	.file	"md5sum.c"
	.text
.Ltext0:
	.p2align 4
	.type	filename_unescape, @function
filename_unescape:
.LVL0:
.LFB140:
	.file 1 "src/md5sum.c"
	.loc 1 313 1 view -0
	.cfi_startproc
	.loc 1 314 3 view .LVU1
	.loc 1 316 3 view .LVU2
.LBB130:
	.loc 1 316 8 view .LVU3
	.loc 1 316 22 view .LVU4
	leaq	1(%rdi), %rcx
	.loc 1 316 15 is_stmt 0 view .LVU5
	xorl	%edx, %edx
	.loc 1 321 26 view .LVU6
	leaq	-1(%rsi), %r8
	.loc 1 316 3 view .LVU7
	testq	%rsi, %rsi
	je	.L14
.LVL1:
.L7:
	.loc 1 318 7 is_stmt 1 view .LVU8
	.loc 1 318 16 is_stmt 0 view .LVU9
	movzbl	(%rdi,%rdx), %eax
	.loc 1 318 7 view .LVU10
	testb	%al, %al
	je	.L11
	cmpb	$92, %al
	jne	.L4
	.loc 1 321 11 is_stmt 1 view .LVU11
	.loc 1 321 14 is_stmt 0 view .LVU12
	cmpq	%rdx, %r8
	je	.L11
	.loc 1 326 11 is_stmt 1 view .LVU13
	addq	$1, %rdx
.LVL2:
	.loc 1 327 11 view .LVU14
	.loc 1 327 20 is_stmt 0 view .LVU15
	movzbl	(%rdi,%rdx), %eax
	cmpb	$92, %al
	je	.L5
	cmpb	$110, %al
	je	.L16
.L11:
	.loc 1 327 20 view .LVU16
	xorl	%eax, %eax
.LBE130:
	.loc 1 354 1 view .LVU17
	ret
	.p2align 4,,10
	.p2align 3
.L4:
.LBB131:
	.loc 1 346 11 is_stmt 1 view .LVU18
	.loc 1 346 18 is_stmt 0 view .LVU19
	movb	%al, -1(%rcx)
	.loc 1 346 15 view .LVU20
	movq	%rcx, %r9
.LVL3:
	.loc 1 347 11 is_stmt 1 view .LVU21
.L6:
	.loc 1 316 33 discriminator 2 view .LVU22
	.loc 1 316 34 is_stmt 0 discriminator 2 view .LVU23
	addq	$1, %rdx
.LVL4:
	.loc 1 316 22 is_stmt 1 discriminator 2 view .LVU24
	addq	$1, %rcx
.LVL5:
	.loc 1 316 3 is_stmt 0 discriminator 2 view .LVU25
	cmpq	%rdx, %rsi
	ja	.L7
.LBE131:
	.loc 1 350 3 is_stmt 1 view .LVU26
	.loc 1 350 15 is_stmt 0 view .LVU27
	addq	%rdi, %rsi
.LVL6:
	.loc 1 350 6 view .LVU28
	cmpq	%rsi, %r9
	jnb	.L14
	.loc 1 351 5 is_stmt 1 view .LVU29
	.loc 1 351 10 is_stmt 0 view .LVU30
	movb	$0, (%r9)
.LVL7:
.L14:
	.loc 1 353 10 view .LVU31
	movq	%rdi, %rax
	ret
.LVL8:
	.p2align 4,,10
	.p2align 3
.L16:
.LBB132:
	.loc 1 330 15 is_stmt 1 view .LVU32
	.loc 1 330 22 is_stmt 0 view .LVU33
	movb	$10, -1(%rcx)
	.loc 1 330 19 view .LVU34
	movq	%rcx, %r9
.LVL9:
	.loc 1 331 15 is_stmt 1 view .LVU35
	jmp	.L6
.LVL10:
	.p2align 4,,10
	.p2align 3
.L5:
	.loc 1 333 15 view .LVU36
	.loc 1 333 22 is_stmt 0 view .LVU37
	movb	$92, -1(%rcx)
	.loc 1 333 19 view .LVU38
	movq	%rcx, %r9
.LVL11:
	.loc 1 334 15 is_stmt 1 view .LVU39
	jmp	.L6
.LBE132:
	.cfi_endproc
.LFE140:
	.size	filename_unescape, .-filename_unescape
	.p2align 4
	.type	hex_digits, @function
hex_digits:
.LVL12:
.LFB141:
	.loc 1 360 1 view -0
	.cfi_startproc
	.loc 1 361 3 view .LVU41
.LBB133:
	.loc 1 361 8 view .LVU42
	.loc 1 361 8 is_stmt 0 view .LVU43
.LBE133:
	.loc 1 360 1 view .LVU44
	pushq	%rbp
	.cfi_def_cfa_offset 16
	.cfi_offset 6, -16
	pushq	%rbx
	.cfi_def_cfa_offset 24
	.cfi_offset 3, -24
	movq	%rdi, %rbx
.LBB134:
	.loc 1 361 28 is_stmt 1 view .LVU45
.LBE134:
	.loc 1 360 1 is_stmt 0 view .LVU46
	subq	$8, %rsp
	.cfi_def_cfa_offset 32
.LBB135:
	.loc 1 361 30 view .LVU47
	movq	digest_hex_bytes(%rip), %rbp
	.loc 1 361 3 view .LVU48
	testq	%rbp, %rbp
	je	.L18
	.loc 1 363 12 view .LVU49
	call	__ctype_b_loc@PLT
.LVL13:
	.loc 1 363 12 view .LVU50
	movq	(%rax), %rcx
	.loc 1 361 21 view .LVU51
	xorl	%eax, %eax
	jmp	.L20
.LVL14:
	.p2align 4,,10
	.p2align 3
.L27:
	.loc 1 365 7 is_stmt 1 discriminator 2 view .LVU52
	.loc 1 361 51 is_stmt 0 discriminator 2 view .LVU53
	leal	1(%rax), %edx
	.loc 1 365 7 discriminator 2 view .LVU54
	addq	$1, %rbx
.LVL15:
	.loc 1 361 50 is_stmt 1 discriminator 2 view .LVU55
	.loc 1 361 51 is_stmt 0 discriminator 2 view .LVU56
	movq	%rdx, %rax
.LVL16:
	.loc 1 361 28 is_stmt 1 discriminator 2 view .LVU57
	.loc 1 361 3 is_stmt 0 discriminator 2 view .LVU58
	cmpq	%rbp, %rdx
	jnb	.L18
.LVL17:
.L20:
	.loc 1 363 7 is_stmt 1 view .LVU59
	.loc 1 363 12 is_stmt 0 view .LVU60
	movzbl	(%rbx), %edx
	.loc 1 363 10 view .LVU61
	testb	$16, 1(%rcx,%rdx,2)
	jne	.L27
	.loc 1 363 10 view .LVU62
.LBE135:
	.loc 1 368 1 view .LVU63
	addq	$8, %rsp
	.cfi_remember_state
	.cfi_def_cfa_offset 24
.LBB136:
	.loc 1 364 16 view .LVU64
	xorl	%eax, %eax
.LVL18:
	.loc 1 364 16 view .LVU65
.LBE136:
	.loc 1 368 1 view .LVU66
	popq	%rbx
	.cfi_def_cfa_offset 16
.LVL19:
	.loc 1 368 1 view .LVU67
	popq	%rbp
	.cfi_def_cfa_offset 8
	ret
.LVL20:
	.p2align 4,,10
	.p2align 3
.L18:
	.cfi_restore_state
	.loc 1 367 3 is_stmt 1 view .LVU68
	.loc 1 367 13 is_stmt 0 view .LVU69
	cmpb	$0, (%rbx)
	sete	%al
	.loc 1 368 1 view .LVU70
	addq	$8, %rsp
	.cfi_def_cfa_offset 24
	popq	%rbx
	.cfi_def_cfa_offset 16
.LVL21:
	.loc 1 368 1 view .LVU71
	popq	%rbp
	.cfi_def_cfa_offset 8
	ret
	.cfi_endproc
.LFE141:
	.size	hex_digits, .-hex_digits
	.section	.rodata.str1.1,"aMS",@progbits,1
.LC0:
	.string	"\\n"
.LC1:
	.string	"\\\\"
	.text
	.p2align 4
	.type	print_filename, @function
print_filename:
.LVL22:
.LFB144:
	.loc 1 551 1 is_stmt 1 view -0
	.cfi_startproc
	.loc 1 552 3 view .LVU73
	.loc 1 551 1 is_stmt 0 view .LVU74
	pushq	%rbp
	.cfi_def_cfa_offset 16
	.cfi_offset 6, -16
	movq	%rdi, %rbp
	pushq	%rbx
	.cfi_def_cfa_offset 24
	.cfi_offset 3, -24
	subq	$8, %rsp
	.cfi_def_cfa_offset 32
	.loc 1 552 6 view .LVU75
	testb	%sil, %sil
	je	.L29
.LVL23:
.LBB141:
.LBB142:
	.loc 1 558 9 is_stmt 1 view .LVU76
	.loc 1 558 10 is_stmt 0 view .LVU77
	movzbl	(%rdi), %esi
.LVL24:
	.loc 1 563 11 view .LVU78
	leaq	.LC0(%rip), %rbx
	.loc 1 558 9 view .LVU79
	testb	%sil, %sil
	jne	.L30
	jmp	.L28
.LVL25:
	.p2align 4,,10
	.p2align 3
.L43:
	.loc 1 571 11 is_stmt 1 view .LVU80
.LBB143:
.LBI143:
	.file 2 "/usr/include/x86_64-linux-gnu/bits/stdio.h"
	.loc 2 108 1 view .LVU81
.LBB144:
	.loc 2 110 3 view .LVU82
	.loc 2 110 10 is_stmt 0 view .LVU83
	movq	40(%rcx), %rax
	cmpq	48(%rcx), %rax
	jnb	.L42
	.loc 2 110 10 view .LVU84
	leaq	1(%rax), %rdx
	movq	%rdx, 40(%rcx)
	movb	%sil, (%rax)
.LVL26:
.L35:
	.loc 2 110 10 view .LVU85
.LBE144:
.LBE143:
	.loc 1 574 7 is_stmt 1 view .LVU86
	.loc 1 558 10 is_stmt 0 view .LVU87
	movzbl	1(%rbp), %esi
	.loc 1 574 11 view .LVU88
	addq	$1, %rbp
.LVL27:
	.loc 1 558 9 is_stmt 1 view .LVU89
	testb	%sil, %sil
	je	.L28
.L30:
	.loc 1 560 7 view .LVU90
	movq	stdout(%rip), %rcx
	cmpb	$10, %sil
	je	.L32
	.loc 1 560 7 is_stmt 0 view .LVU91
	cmpb	$92, %sil
	jne	.L43
	.loc 1 567 11 is_stmt 1 view .LVU92
	movl	$1, %esi
	movl	$2, %edx
	leaq	.LC1(%rip), %rdi
	.loc 1 574 11 is_stmt 0 view .LVU93
	addq	$1, %rbp
.LVL28:
	.loc 1 567 11 view .LVU94
	call	fwrite_unlocked@PLT
.LVL29:
	.loc 1 568 11 is_stmt 1 view .LVU95
	.loc 1 574 7 view .LVU96
	.loc 1 558 9 view .LVU97
	.loc 1 558 10 is_stmt 0 view .LVU98
	movzbl	0(%rbp), %esi
	.loc 1 558 9 view .LVU99
	testb	%sil, %sil
	jne	.L30
.L28:
	.loc 1 558 9 view .LVU100
.LBE142:
.LBE141:
	.loc 1 576 1 view .LVU101
	addq	$8, %rsp
	.cfi_remember_state
	.cfi_def_cfa_offset 24
	popq	%rbx
	.cfi_def_cfa_offset 16
	popq	%rbp
	.cfi_def_cfa_offset 8
.LVL30:
	.loc 1 576 1 view .LVU102
	ret
.LVL31:
	.p2align 4,,10
	.p2align 3
.L32:
	.cfi_restore_state
.LBB148:
.LBB147:
	.loc 1 563 11 is_stmt 1 view .LVU103
	movl	$2, %edx
	movl	$1, %esi
	movq	%rbx, %rdi
	call	fwrite_unlocked@PLT
.LVL32:
	.loc 1 564 11 view .LVU104
	jmp	.L35
.LVL33:
	.p2align 4,,10
	.p2align 3
.L42:
.LBB146:
.LBB145:
	.loc 2 110 10 is_stmt 0 view .LVU105
	movq	%rcx, %rdi
	call	__overflow@PLT
.LVL34:
	.loc 2 110 10 view .LVU106
	jmp	.L35
.LVL35:
	.p2align 4,,10
	.p2align 3
.L29:
	.loc 2 110 10 view .LVU107
.LBE145:
.LBE146:
.LBE147:
.LBE148:
	.loc 1 554 7 is_stmt 1 view .LVU108
	movq	stdout(%rip), %rsi
.LVL36:
	.loc 1 576 1 is_stmt 0 view .LVU109
	addq	$8, %rsp
	.cfi_def_cfa_offset 24
	popq	%rbx
	.cfi_def_cfa_offset 16
	popq	%rbp
	.cfi_def_cfa_offset 8
	.loc 1 554 7 view .LVU110
	jmp	fputs_unlocked@PLT
.LVL37:
	.loc 1 554 7 view .LVU111
	.cfi_endproc
.LFE144:
	.size	print_filename, .-print_filename
	.section	.rodata.str1.1
.LC2:
	.string	"r"
.LC3:
	.string	"%s"
	.text
	.p2align 4
	.type	digest_file.isra.0, @function
digest_file.isra.0:
.LVL38:
.LFB149:
	.loc 1 591 1 is_stmt 1 view -0
	.cfi_startproc
	.loc 1 594 3 view .LVU113
	.loc 1 595 3 view .LVU114
	.loc 1 596 3 view .LVU115
	.loc 1 591 1 is_stmt 0 view .LVU116
	pushq	%r13
	.cfi_def_cfa_offset 16
	.cfi_offset 13, -16
	movq	%rsi, %r13
	pushq	%r12
	.cfi_def_cfa_offset 24
	.cfi_offset 12, -24
	movq	%rdi, %r12
	pushq	%rbp
	.cfi_def_cfa_offset 32
	.cfi_offset 6, -32
	pushq	%rbx
	.cfi_def_cfa_offset 40
	.cfi_offset 3, -40
	movq	%rdx, %rbx
	subq	$8, %rsp
	.cfi_def_cfa_offset 48
	.loc 1 596 19 view .LVU117
	movzbl	(%rdi), %eax
	subl	$45, %eax
	jne	.L45
	movzbl	1(%rdi), %eax
.L45:
.LVL39:
	.loc 1 598 3 is_stmt 1 view .LVU118
	.loc 1 598 12 is_stmt 0 view .LVU119
	movb	$0, (%rbx)
	.loc 1 600 3 is_stmt 1 view .LVU120
	.loc 1 600 6 is_stmt 0 view .LVU121
	testl	%eax, %eax
	jne	.L46
	.loc 1 602 7 is_stmt 1 view .LVU122
	.loc 1 603 10 is_stmt 0 view .LVU123
	movq	stdin(%rip), %rbp
	.loc 1 627 3 view .LVU124
	movl	$2, %esi
.LVL40:
	.loc 1 602 23 view .LVU125
	movb	$1, have_read_stdin(%rip)
	.loc 1 603 7 is_stmt 1 view .LVU126
.LVL41:
	.loc 1 604 7 view .LVU127
	.loc 1 627 3 view .LVU128
	movq	%rbp, %rdi
.LVL42:
	.loc 1 627 3 is_stmt 0 view .LVU129
	call	fadvise@PLT
.LVL43:
	.loc 1 630 3 is_stmt 1 view .LVU130
	.loc 1 630 9 is_stmt 0 view .LVU131
	movq	b2_length(%rip), %rdx
	movq	%r13, %rsi
	movq	%rbp, %rdi
	shrq	$3, %rdx
	call	blake2b_stream@PLT
.LVL44:
	.loc 1 634 3 is_stmt 1 view .LVU132
	.loc 1 634 6 is_stmt 0 view .LVU133
	testl	%eax, %eax
	jne	.L47
.LVL45:
.L51:
	.loc 1 648 10 view .LVU134
	movl	$1, %r13d
.LVL46:
.L44:
	.loc 1 649 1 view .LVU135
	addq	$8, %rsp
	.cfi_remember_state
	.cfi_def_cfa_offset 40
	movl	%r13d, %eax
	popq	%rbx
	.cfi_def_cfa_offset 32
.LVL47:
	.loc 1 649 1 view .LVU136
	popq	%rbp
	.cfi_def_cfa_offset 24
	popq	%r12
	.cfi_def_cfa_offset 16
	popq	%r13
	.cfi_def_cfa_offset 8
	ret
.LVL48:
	.p2align 4,,10
	.p2align 3
.L46:
	.cfi_restore_state
	.loc 1 614 7 is_stmt 1 view .LVU137
	.loc 1 614 12 is_stmt 0 view .LVU138
	leaq	.LC2(%rip), %rsi
.LVL49:
	.loc 1 614 12 view .LVU139
	movq	%r12, %rdi
.LVL50:
	.loc 1 614 12 view .LVU140
	call	fopen_safer@PLT
.LVL51:
	.loc 1 614 12 view .LVU141
	movq	%rax, %rbp
.LVL52:
	.loc 1 615 7 is_stmt 1 view .LVU142
	.loc 1 615 10 is_stmt 0 view .LVU143
	testq	%rax, %rax
	je	.L62
	.loc 1 627 3 is_stmt 1 view .LVU144
	movl	$2, %esi
	movq	%rax, %rdi
	call	fadvise@PLT
.LVL53:
	.loc 1 630 3 view .LVU145
	.loc 1 630 9 is_stmt 0 view .LVU146
	movq	b2_length(%rip), %rdx
	movq	%r13, %rsi
	movq	%rbp, %rdi
	shrq	$3, %rdx
	call	blake2b_stream@PLT
.LVL54:
	.loc 1 634 3 is_stmt 1 view .LVU147
	.loc 1 634 6 is_stmt 0 view .LVU148
	testl	%eax, %eax
	jne	.L47
	.loc 1 642 20 view .LVU149
	movq	%rbp, %rdi
	call	rpl_fclose@PLT
.LVL55:
	.loc 1 642 17 view .LVU150
	testl	%eax, %eax
	je	.L51
	.loc 1 644 7 is_stmt 1 view .LVU151
	movq	%r12, %rdx
	movl	$3, %esi
	xorl	%edi, %edi
	.loc 1 645 14 is_stmt 0 view .LVU152
	xorl	%r13d, %r13d
.LVL56:
	.loc 1 644 7 view .LVU153
	call	quotearg_n_style_colon@PLT
.LVL57:
	movq	%rax, %r12
.LVL58:
	.loc 1 644 17 view .LVU154
	call	__errno_location@PLT
.LVL59:
	.loc 1 644 7 view .LVU155
	movq	%r12, %rcx
	leaq	.LC3(%rip), %rdx
	xorl	%edi, %edi
	movl	(%rax), %esi
	xorl	%eax, %eax
	call	error@PLT
.LVL60:
	.loc 1 645 7 is_stmt 1 view .LVU156
	.loc 1 645 14 is_stmt 0 view .LVU157
	jmp	.L44
.LVL61:
	.p2align 4,,10
	.p2align 3
.L47:
	.loc 1 636 7 is_stmt 1 view .LVU158
	movq	%r12, %rdx
	xorl	%edi, %edi
	movl	$3, %esi
	.loc 1 639 14 is_stmt 0 view .LVU159
	xorl	%r13d, %r13d
.LVL62:
	.loc 1 636 7 view .LVU160
	call	quotearg_n_style_colon@PLT
.LVL63:
	.loc 1 636 7 view .LVU161
	movq	%rax, %r12
.LVL64:
	.loc 1 636 17 view .LVU162
	call	__errno_location@PLT
.LVL65:
	.loc 1 636 7 view .LVU163
	xorl	%edi, %edi
	movq	%r12, %rcx
	leaq	.LC3(%rip), %rdx
	movl	(%rax), %esi
	xorl	%eax, %eax
	call	error@PLT
.LVL66:
	.loc 1 637 7 is_stmt 1 view .LVU164
	.loc 1 637 10 is_stmt 0 view .LVU165
	cmpq	%rbp, stdin(%rip)
	je	.L44
	.loc 1 638 9 is_stmt 1 view .LVU166
	movq	%rbp, %rdi
	call	rpl_fclose@PLT
.LVL67:
	jmp	.L44
.LVL68:
	.p2align 4,,10
	.p2align 3
.L62:
	.loc 1 617 11 view .LVU167
	call	__errno_location@PLT
.LVL69:
	.loc 1 617 15 is_stmt 0 view .LVU168
	movzbl	ignore_missing(%rip), %r13d
.LVL70:
	.loc 1 617 15 view .LVU169
	movq	%rax, %rbp
.LVL71:
	.loc 1 617 14 view .LVU170
	testb	%r13b, %r13b
	je	.L50
	.loc 1 617 30 view .LVU171
	cmpl	$2, (%rax)
	je	.L63
.L50:
	.loc 1 622 11 is_stmt 1 view .LVU172
	movq	%r12, %rdx
	movl	$3, %esi
	xorl	%edi, %edi
	.loc 1 623 18 is_stmt 0 view .LVU173
	xorl	%r13d, %r13d
	.loc 1 622 11 view .LVU174
	call	quotearg_n_style_colon@PLT
.LVL72:
	movl	0(%rbp), %esi
	leaq	.LC3(%rip), %rdx
	xorl	%edi, %edi
	movq	%rax, %rcx
	xorl	%eax, %eax
	call	error@PLT
.LVL73:
	.loc 1 623 11 is_stmt 1 view .LVU175
	.loc 1 623 18 is_stmt 0 view .LVU176
	jmp	.L44
	.p2align 4,,10
	.p2align 3
.L63:
	.loc 1 619 15 is_stmt 1 view .LVU177
	.loc 1 619 24 is_stmt 0 view .LVU178
	movb	$1, (%rbx)
	.loc 1 620 15 is_stmt 1 view .LVU179
	.loc 1 620 22 is_stmt 0 view .LVU180
	jmp	.L44
	.cfi_endproc
.LFE149:
	.size	digest_file.isra.0, .-digest_file.isra.0
	.section	.rodata.str1.1
.LC4:
	.string	"b2sum"
.LC5:
	.string	" invocation"
.LC6:
	.string	""
	.section	.rodata.str1.8,"aMS",@progbits,1
	.align 8
.LC7:
	.string	"Try '%s --help' for more information.\n"
	.align 8
.LC8:
	.string	"Usage: %s [OPTION]... [FILE]...\nPrint or check %s (%d-bit) checksums.\n"
	.section	.rodata.str1.1
.LC9:
	.string	"BLAKE2"
	.section	.rodata.str1.8
	.align 8
.LC10:
	.string	"\nWith no FILE, or when FILE is -, read standard input.\n"
	.align 8
.LC11:
	.string	"\n  -b, --binary         read in binary mode\n"
	.align 8
.LC12:
	.string	"  -c, --check          read %s sums from the FILEs and check them\n"
	.align 8
.LC13:
	.string	"  -l, --length         digest length in bits; must not exceed the maximum for\n                       the blake2 algorithm and must be a multiple of 8\n"
	.align 8
.LC14:
	.string	"      --tag            create a BSD-style checksum\n"
	.align 8
.LC15:
	.string	"  -t, --text           read in text mode (default)\n"
	.align 8
.LC16:
	.string	"  -z, --zero           end each output line with NUL, not newline,\n                       and disable file name escaping\n"
	.align 8
.LC17:
	.ascii	"\nThe following five options are useful only when verifying "
	.ascii	"checksums:\n      --ignore-missing  don't fail or report sta"
	.ascii	"tus for missing files\n      --quiet          don't print OK"
	.ascii	" "
	.string	"for each successfully verified file\n      --status         don't output anything, status code shows success\n      --strict         exit non-zero for improperly formatted checksum lines\n  -w, --warn           warn about improperly formatted checksum lines\n\n"
	.align 8
.LC18:
	.string	"      --help     display this help and exit\n"
	.align 8
.LC19:
	.string	"      --version  output version information and exit\n"
	.align 8
.LC20:
	.ascii	"\nThe sums are computed as described in %s.  When checking, "
	.ascii	"the input\nshould be a former output of this program.  The d"
	.ascii	"ef"
	.string	"ault mode is to print a\nline with checksum, a space, a character indicating input mode ('*' for binary,\n' ' for text or where binary is insignificant), and name for each FILE.\n\nNote: There is no difference between binary mode and text mode on GNU systems.\n"
	.section	.rodata.str1.1
.LC21:
	.string	"RFC 7693"
.LC22:
	.string	"["
.LC23:
	.string	"test invocation"
.LC24:
	.string	"coreutils"
.LC25:
	.string	"Multi-call invocation"
.LC26:
	.string	"sha224sum"
.LC27:
	.string	"sha2 utilities"
.LC28:
	.string	"sha256sum"
.LC29:
	.string	"sha384sum"
.LC30:
	.string	"sha512sum"
.LC31:
	.string	"\n%s online help: <%s>\n"
	.section	.rodata.str1.8
	.align 8
.LC32:
	.string	"https://www.gnu.org/software/coreutils/"
	.section	.rodata.str1.1
.LC33:
	.string	"GNU coreutils"
.LC34:
	.string	"en_"
	.section	.rodata.str1.8
	.align 8
.LC35:
	.string	"Report any translation bugs to <https://translationproject.org/team/>\n"
	.section	.rodata.str1.1
.LC36:
	.string	"Full documentation <%s%s>\n"
	.section	.rodata.str1.8
	.align 8
.LC37:
	.string	"or available locally via: info '(coreutils) %s%s'\n"
	.text
	.p2align 4
	.globl	usage
	.type	usage, @function
usage:
.LVL74:
.LFB139:
	.loc 1 224 1 is_stmt 1 view -0
	.cfi_startproc
	.loc 1 224 1 is_stmt 0 view .LVU182
	endbr64
	pushq	%r13
	.cfi_def_cfa_offset 16
	.cfi_offset 13, -16
	.loc 1 226 5 view .LVU183
	movl	$5, %edx
	.loc 1 224 1 view .LVU184
	pushq	%r12
	.cfi_def_cfa_offset 24
	.cfi_offset 12, -24
	pushq	%rbp
	.cfi_def_cfa_offset 32
	.cfi_offset 6, -32
	movl	%edi, %ebp
	pushq	%rbx
	.cfi_def_cfa_offset 40
	.cfi_offset 3, -40
	subq	$136, %rsp
	.cfi_def_cfa_offset 176
	movq	program_name(%rip), %r12
	.loc 1 224 1 view .LVU185
	movq	%fs:40, %rax
	movq	%rax, 120(%rsp)
	xorl	%eax, %eax
	.loc 1 225 3 is_stmt 1 view .LVU186
	.loc 1 225 6 is_stmt 0 view .LVU187
	testl	%edi, %edi
	je	.L65
	.loc 1 226 5 is_stmt 1 view .LVU188
	.loc 1 226 5 view .LVU189
	leaq	.LC7(%rip), %rsi
	xorl	%edi, %edi
.LVL75:
	.loc 1 226 5 is_stmt 0 view .LVU190
	call	dcgettext@PLT
.LVL76:
.LBB167:
.LBB168:
	.file 3 "/usr/include/x86_64-linux-gnu/bits/stdio2.h"
	.loc 3 100 10 view .LVU191
	movq	stderr(%rip), %rdi
	movq	%r12, %rcx
	movl	$1, %esi
.LBE168:
.LBE167:
	.loc 1 226 5 view .LVU192
	movq	%rax, %rdx
.LVL77:
.LBB170:
.LBI167:
	.loc 3 98 1 is_stmt 1 view .LVU193
.LBB169:
	.loc 3 100 3 view .LVU194
	.loc 3 100 10 is_stmt 0 view .LVU195
	xorl	%eax, %eax
.LVL78:
	.loc 3 100 10 view .LVU196
	call	__fprintf_chk@PLT
.LVL79:
.L66:
	.loc 3 100 10 view .LVU197
.LBE169:
.LBE170:
	.loc 1 298 3 is_stmt 1 view .LVU198
	movl	%ebp, %edi
	call	exit@PLT
.LVL80:
.L65:
	.loc 1 229 7 view .LVU199
	.loc 1 229 15 is_stmt 0 view .LVU200
	xorl	%edi, %edi
.LVL81:
	.loc 1 229 15 view .LVU201
	leaq	.LC8(%rip), %rsi
.LBB171:
.LBB172:
	.file 4 "src/system.h"
	.loc 4 636 67 view .LVU202
	leaq	.LC28(%rip), %rbx
.LBE172:
.LBE171:
	.loc 1 229 15 view .LVU203
	call	dcgettext@PLT
.LVL82:
.LBB198:
.LBB199:
	.loc 3 107 10 view .LVU204
	movl	$512, %r8d
	movq	%r12, %rdx
	leaq	.LC9(%rip), %rcx
.LBE199:
.LBE198:
	.loc 1 229 15 view .LVU205
	movq	%rax, %rsi
.LVL83:
.LBB201:
.LBI198:
	.loc 3 105 1 is_stmt 1 view .LVU206
.LBB200:
	.loc 3 107 3 view .LVU207
	.loc 3 107 10 is_stmt 0 view .LVU208
	movl	$1, %edi
	xorl	%eax, %eax
.LVL84:
	.loc 3 107 10 view .LVU209
	call	__printf_chk@PLT
.LVL85:
	.loc 3 107 10 view .LVU210
.LBE200:
.LBE201:
	.loc 1 237 7 is_stmt 1 view .LVU211
.LBB202:
.LBI202:
	.loc 4 581 1 view .LVU212
.LBB203:
	.loc 4 583 3 view .LVU213
	movq	stdout(%rip), %r12
	xorl	%edi, %edi
	movl	$5, %edx
	leaq	.LC10(%rip), %rsi
	call	dcgettext@PLT
.LVL86:
	movq	%r12, %rsi
	movq	%rax, %rdi
	call	fputs_unlocked@PLT
.LVL87:
.LBE203:
.LBE202:
	.loc 1 238 7 view .LVU214
	.loc 1 244 9 view .LVU215
	movq	stdout(%rip), %r12
	xorl	%edi, %edi
	movl	$5, %edx
	leaq	.LC11(%rip), %rsi
	call	dcgettext@PLT
.LVL88:
	movq	%r12, %rsi
	movq	%rax, %rdi
	call	fputs_unlocked@PLT
.LVL89:
	.loc 1 249 7 view .LVU216
	.loc 1 249 15 is_stmt 0 view .LVU217
	xorl	%edi, %edi
	movl	$5, %edx
	leaq	.LC12(%rip), %rsi
	call	dcgettext@PLT
.LVL90:
.LBB204:
.LBB205:
	.loc 3 107 10 view .LVU218
	leaq	.LC9(%rip), %rdx
	movl	$1, %edi
.LBE205:
.LBE204:
	.loc 1 249 15 view .LVU219
	movq	%rax, %rsi
.LVL91:
.LBB207:
.LBI204:
	.loc 3 105 1 is_stmt 1 view .LVU220
.LBB206:
	.loc 3 107 3 view .LVU221
	.loc 3 107 10 is_stmt 0 view .LVU222
	xorl	%eax, %eax
.LVL92:
	.loc 3 107 10 view .LVU223
	call	__printf_chk@PLT
.LVL93:
	.loc 3 107 10 view .LVU224
.LBE206:
.LBE207:
	.loc 1 253 9 is_stmt 1 view .LVU225
	movq	stdout(%rip), %r12
	xorl	%edi, %edi
	movl	$5, %edx
	leaq	.LC13(%rip), %rsi
	call	dcgettext@PLT
.LVL94:
	movq	%r12, %rsi
	movq	%rax, %rdi
	call	fputs_unlocked@PLT
.LVL95:
	.loc 1 258 7 view .LVU226
	movq	stdout(%rip), %r12
	xorl	%edi, %edi
	movl	$5, %edx
	leaq	.LC14(%rip), %rsi
	call	dcgettext@PLT
.LVL96:
	movq	%r12, %rsi
	movq	%rax, %rdi
	call	fputs_unlocked@PLT
.LVL97:
	.loc 1 261 7 view .LVU227
	.loc 1 266 9 view .LVU228
	movq	stdout(%rip), %r12
	xorl	%edi, %edi
	movl	$5, %edx
	leaq	.LC15(%rip), %rsi
	call	dcgettext@PLT
.LVL98:
	movq	%r12, %rsi
	movq	%rax, %rdi
	call	fputs_unlocked@PLT
.LVL99:
	.loc 1 269 7 view .LVU229
	movq	stdout(%rip), %r12
	xorl	%edi, %edi
	movl	$5, %edx
	leaq	.LC16(%rip), %rsi
	call	dcgettext@PLT
.LVL100:
	movq	%r12, %rsi
	movq	%rax, %rdi
	call	fputs_unlocked@PLT
.LVL101:
	.loc 1 273 7 view .LVU230
	movq	stdout(%rip), %r12
	xorl	%edi, %edi
	movl	$5, %edx
	leaq	.LC17(%rip), %rsi
	call	dcgettext@PLT
.LVL102:
	movq	%r12, %rsi
	movq	%rax, %rdi
	call	fputs_unlocked@PLT
.LVL103:
	.loc 1 283 7 view .LVU231
	movq	stdout(%rip), %r12
	xorl	%edi, %edi
	movl	$5, %edx
	leaq	.LC18(%rip), %rsi
	call	dcgettext@PLT
.LVL104:
	movq	%r12, %rsi
	movq	%rax, %rdi
	call	fputs_unlocked@PLT
.LVL105:
	.loc 1 284 7 view .LVU232
	xorl	%edi, %edi
	movl	$5, %edx
	movq	stdout(%rip), %r12
	leaq	.LC19(%rip), %rsi
	call	dcgettext@PLT
.LVL106:
	movq	%r12, %rsi
	movq	%rax, %rdi
	call	fputs_unlocked@PLT
.LVL107:
	.loc 1 285 7 view .LVU233
	.loc 1 285 15 is_stmt 0 view .LVU234
	movl	$5, %edx
	leaq	.LC20(%rip), %rsi
	xorl	%edi, %edi
	call	dcgettext@PLT
.LVL108:
.LBB208:
.LBB209:
	.loc 3 107 10 view .LVU235
	leaq	.LC21(%rip), %rdx
	movl	$1, %edi
.LBE209:
.LBE208:
	.loc 1 285 15 view .LVU236
	movq	%rax, %rsi
.LVL109:
.LBB211:
.LBI208:
	.loc 3 105 1 is_stmt 1 view .LVU237
.LBB210:
	.loc 3 107 3 view .LVU238
	.loc 3 107 10 is_stmt 0 view .LVU239
	xorl	%eax, %eax
.LVL110:
	.loc 3 107 10 view .LVU240
	call	__printf_chk@PLT
.LVL111:
	.loc 3 107 10 view .LVU241
.LBE210:
.LBE211:
	.loc 1 295 7 is_stmt 1 view .LVU242
.LBB212:
.LBI171:
	.loc 4 634 1 view .LVU243
.LBB197:
	.loc 4 636 3 view .LVU244
	.loc 4 636 67 is_stmt 0 view .LVU245
	leaq	.LC22(%rip), %rax
	movq	%rbx, 48(%rsp)
	leaq	.LC29(%rip), %rbx
	movq	%rax, (%rsp)
	leaq	.LC23(%rip), %rax
	movq	%rax, 8(%rsp)
	leaq	.LC24(%rip), %rax
	movq	%rax, 16(%rsp)
	leaq	.LC25(%rip), %rax
	movq	%rax, 24(%rsp)
	leaq	.LC26(%rip), %rax
	movq	$0, 96(%rsp)
	movq	$0, 104(%rsp)
	.loc 4 646 3 is_stmt 1 view .LVU246
.LVL112:
	.loc 4 647 3 view .LVU247
	.loc 4 649 3 view .LVU248
	.loc 4 649 9 view .LVU249
	.loc 4 636 67 is_stmt 0 view .LVU250
	movq	%rax, 32(%rsp)
	leaq	.LC27(%rip), %rax
	movq	%rbx, 64(%rsp)
	leaq	.LC30(%rip), %rbx
	movq	%rax, 40(%rsp)
	movq	%rax, 56(%rsp)
	movq	%rax, 72(%rsp)
	movq	%rbx, 80(%rsp)
	leaq	.LC4(%rip), %rbx
	movq	%rax, 88(%rsp)
	.loc 4 647 25 view .LVU251
	movq	%rsp, %rax
.LVL113:
	.p2align 4,,10
	.p2align 3
.L68:
	.loc 4 650 5 is_stmt 1 view .LVU252
	.loc 4 649 18 is_stmt 0 view .LVU253
	movq	16(%rax), %rdi
	.loc 4 650 13 view .LVU254
	addq	$16, %rax
.LVL114:
	.loc 4 649 9 is_stmt 1 view .LVU255
	testq	%rdi, %rdi
	je	.L67
	.loc 4 649 33 is_stmt 0 view .LVU256
	movl	$6, %ecx
	movq	%rbx, %rsi
	repz cmpsb
	seta	%dl
	sbbb	$0, %dl
	.loc 4 649 28 view .LVU257
	testb	%dl, %dl
	jne	.L68
.L67:
	.loc 4 652 3 is_stmt 1 view .LVU258
	.loc 4 652 15 is_stmt 0 view .LVU259
	movq	8(%rax), %r12
	.loc 4 655 11 view .LVU260
	movl	$5, %edx
	leaq	.LC31(%rip), %rsi
	xorl	%edi, %edi
	.loc 4 652 6 view .LVU261
	testq	%r12, %r12
	je	.L69
	.loc 4 653 5 is_stmt 1 view .LVU262
.LVL115:
	.loc 4 655 3 view .LVU263
	.loc 4 655 11 is_stmt 0 view .LVU264
	call	dcgettext@PLT
.LVL116:
.LBB173:
.LBB174:
	.loc 3 107 10 view .LVU265
	leaq	.LC32(%rip), %rcx
	movl	$1, %edi
	leaq	.LC33(%rip), %rdx
.LBE174:
.LBE173:
	.loc 4 655 11 view .LVU266
	movq	%rax, %rsi
.LVL117:
.LBB178:
.LBI173:
	.loc 3 105 1 is_stmt 1 view .LVU267
.LBB175:
	.loc 3 107 3 view .LVU268
	.loc 3 107 10 is_stmt 0 view .LVU269
	xorl	%eax, %eax
.LVL118:
	.loc 3 107 10 view .LVU270
	call	__printf_chk@PLT
.LVL119:
	.loc 3 107 10 view .LVU271
.LBE175:
.LBE178:
	.loc 4 659 3 is_stmt 1 view .LVU272
	.loc 4 659 29 is_stmt 0 view .LVU273
	movl	$5, %edi
	xorl	%esi, %esi
	call	setlocale@PLT
.LVL120:
	movq	%rax, %rdi
.LVL121:
	.loc 4 660 3 is_stmt 1 view .LVU274
	.loc 4 660 6 is_stmt 0 view .LVU275
	testq	%rax, %rax
	je	.L70
	.loc 4 660 22 view .LVU276
	movl	$3, %edx
	leaq	.LC34(%rip), %rsi
	call	strncmp@PLT
.LVL122:
	.loc 4 660 19 view .LVU277
	testl	%eax, %eax
	jne	.L73
.LVL123:
.L70:
	.loc 4 669 3 is_stmt 1 view .LVU278
	.loc 4 669 11 is_stmt 0 view .LVU279
	xorl	%edi, %edi
	movl	$5, %edx
	leaq	.LC36(%rip), %rsi
	call	dcgettext@PLT
.LVL124:
.LBB179:
.LBB180:
	.loc 3 107 10 view .LVU280
	leaq	.LC4(%rip), %rcx
	leaq	.LC32(%rip), %rdx
	movl	$1, %edi
.LBE180:
.LBE179:
	.loc 4 669 11 view .LVU281
	movq	%rax, %rsi
.LVL125:
.LBB186:
.LBI179:
	.loc 3 105 1 is_stmt 1 view .LVU282
.LBB181:
	.loc 3 107 3 view .LVU283
	.loc 3 107 10 is_stmt 0 view .LVU284
	xorl	%eax, %eax
.LVL126:
	.loc 3 107 10 view .LVU285
.LBE181:
.LBE186:
	.loc 4 671 3 view .LVU286
	leaq	.LC5(%rip), %r13
.LBB187:
.LBB182:
	.loc 3 107 10 view .LVU287
	call	__printf_chk@PLT
.LVL127:
	.loc 3 107 10 view .LVU288
.LBE182:
.LBE187:
	.loc 4 671 3 is_stmt 1 view .LVU289
	cmpq	%rbx, %r12
	leaq	.LC6(%rip), %rcx
	cmovne	%rcx, %r13
.L71:
	.loc 4 671 11 is_stmt 0 view .LVU290
	xorl	%edi, %edi
	leaq	.LC37(%rip), %rsi
	movl	$5, %edx
	call	dcgettext@PLT
.LVL128:
.LBB188:
.LBB189:
	.loc 3 107 10 view .LVU291
	movq	%r13, %rcx
	movq	%r12, %rdx
	movl	$1, %edi
.LBE189:
.LBE188:
	.loc 4 671 11 view .LVU292
	movq	%rax, %rsi
.LVL129:
.LBB191:
.LBI188:
	.loc 3 105 1 is_stmt 1 view .LVU293
.LBB190:
	.loc 3 107 3 view .LVU294
	.loc 3 107 10 is_stmt 0 view .LVU295
	xorl	%eax, %eax
.LVL130:
	.loc 3 107 10 view .LVU296
	call	__printf_chk@PLT
.LVL131:
	.loc 3 107 10 view .LVU297
.LBE190:
.LBE191:
	.loc 4 673 1 view .LVU298
	jmp	.L66
.LVL132:
.L69:
	.loc 4 655 3 is_stmt 1 view .LVU299
	.loc 4 655 11 is_stmt 0 view .LVU300
	call	dcgettext@PLT
.LVL133:
.LBB192:
.LBB176:
	.loc 3 107 10 view .LVU301
	leaq	.LC32(%rip), %rcx
	movl	$1, %edi
	leaq	.LC33(%rip), %rdx
.LBE176:
.LBE192:
	.loc 4 655 11 view .LVU302
	movq	%rax, %rsi
.LVL134:
.LBB193:
	.loc 3 105 1 is_stmt 1 view .LVU303
.LBB177:
	.loc 3 107 3 view .LVU304
	.loc 3 107 10 is_stmt 0 view .LVU305
	xorl	%eax, %eax
.LVL135:
	.loc 3 107 10 view .LVU306
	call	__printf_chk@PLT
.LVL136:
	.loc 3 107 10 view .LVU307
.LBE177:
.LBE193:
	.loc 4 659 3 is_stmt 1 view .LVU308
	.loc 4 659 29 is_stmt 0 view .LVU309
	movl	$5, %edi
	xorl	%esi, %esi
	call	setlocale@PLT
.LVL137:
	movq	%rax, %rdi
.LVL138:
	.loc 4 660 3 is_stmt 1 view .LVU310
	.loc 4 660 6 is_stmt 0 view .LVU311
	testq	%rax, %rax
	je	.L72
	.loc 4 660 22 view .LVU312
	movl	$3, %edx
	leaq	.LC34(%rip), %rsi
	call	strncmp@PLT
.LVL139:
	.loc 4 660 19 view .LVU313
	testl	%eax, %eax
	jne	.L91
.L72:
	.loc 4 669 3 is_stmt 1 view .LVU314
	.loc 4 669 11 is_stmt 0 view .LVU315
	movl	$5, %edx
	leaq	.LC36(%rip), %rsi
	xorl	%edi, %edi
	call	dcgettext@PLT
.LVL140:
.LBB194:
.LBB183:
	.loc 3 107 10 view .LVU316
	leaq	.LC4(%rip), %rcx
	leaq	.LC32(%rip), %rdx
	movl	$1, %edi
.LBE183:
.LBE194:
	.loc 4 669 11 view .LVU317
	movq	%rax, %rsi
.LVL141:
.LBB195:
	.loc 3 105 1 is_stmt 1 view .LVU318
.LBB184:
	.loc 3 107 3 view .LVU319
	.loc 3 107 10 is_stmt 0 view .LVU320
	xorl	%eax, %eax
.LVL142:
	.loc 3 107 10 view .LVU321
.LBE184:
.LBE195:
	.loc 4 646 15 view .LVU322
	leaq	.LC4(%rip), %r12
.LBB196:
.LBB185:
	.loc 3 107 10 view .LVU323
	call	__printf_chk@PLT
.LVL143:
	.loc 3 107 10 view .LVU324
.LBE185:
.LBE196:
	.loc 4 671 3 is_stmt 1 view .LVU325
	leaq	.LC5(%rip), %r13
	jmp	.L71
.L91:
	.loc 4 646 15 is_stmt 0 view .LVU326
	leaq	.LC4(%rip), %r12
.LVL144:
.L73:
	.loc 4 666 7 is_stmt 1 view .LVU327
	movq	stdout(%rip), %r13
	xorl	%edi, %edi
	movl	$5, %edx
	leaq	.LC35(%rip), %rsi
	call	dcgettext@PLT
.LVL145:
	movq	%rax, %rdi
	movq	%r13, %rsi
	call	fputs_unlocked@PLT
.LVL146:
	jmp	.L70
.LBE197:
.LBE212:
	.cfi_endproc
.LFE139:
	.size	usage, .-usage
	.section	.rodata.str1.1
.LC38:
	.string	"/usr/local/share/locale"
.LC39:
	.string	"invalid length"
.LC40:
	.string	"invalid length: %s"
.LC41:
	.string	"length is not a multiple of 8"
.LC42:
	.string	"Samuel Neves"
.LC43:
	.string	"Padraig Brady"
.LC44:
	.string	"l:bctwz"
	.section	.rodata.str1.8
	.align 8
.LC45:
	.string	"maximum digest length for %s is %lu bits"
	.align 8
.LC46:
	.string	"--tag does not support --text mode"
	.align 8
.LC47:
	.string	"the --zero option is not supported when verifying checksums"
	.align 8
.LC48:
	.string	"the --tag option is meaningless when verifying checksums"
	.align 8
.LC49:
	.string	"the --binary and --text options are meaningless when verifying checksums"
	.align 8
.LC50:
	.string	"the --ignore-missing option is meaningful only when verifying checksums"
	.align 8
.LC51:
	.string	"the --status option is meaningful only when verifying checksums"
	.align 8
.LC52:
	.string	"the --warn option is meaningful only when verifying checksums"
	.align 8
.LC53:
	.string	"the --quiet option is meaningful only when verifying checksums"
	.align 8
.LC54:
	.string	"the --strict option is meaningful only when verifying checksums"
	.section	.rodata.str1.1
.LC55:
	.string	"-"
.LC56:
	.string	"standard input"
.LC57:
	.string	"%s: too many checksum lines"
	.section	.rodata.str1.8
	.align 8
.LC58:
	.string	"%s: %lu: improperly formatted %s checksum line"
	.section	.rodata.str1.1
.LC59:
	.string	"FAILED open or read"
.LC60:
	.string	": %s\n"
.LC61:
	.string	"FAILED"
.LC62:
	.string	"OK"
.LC63:
	.string	"%s: read error"
	.section	.rodata.str1.8
	.align 8
.LC64:
	.string	"%s: no properly formatted %s checksum lines found"
	.align 8
.LC65:
	.string	"WARNING: %lu lines are improperly formatted"
	.align 8
.LC66:
	.string	"WARNING: %lu line is improperly formatted"
	.align 8
.LC67:
	.string	"WARNING: %lu listed files could not be read"
	.align 8
.LC68:
	.string	"WARNING: %lu listed file could not be read"
	.align 8
.LC69:
	.string	"WARNING: %lu computed checksums did NOT match"
	.align 8
.LC70:
	.string	"WARNING: %lu computed checksum did NOT match"
	.section	.rodata.str1.1
.LC71:
	.string	"%s: no file was verified"
.LC72:
	.string	"-%lu"
.LC73:
	.string	" ("
.LC74:
	.string	") = "
.LC75:
	.string	"%02x"
	.section	.text.startup,"ax",@progbits
	.p2align 4
	.globl	main
	.type	main, @function
main:
.LVL147:
.LFB147:
	.loc 1 862 1 view -0
	.cfi_startproc
	.loc 1 862 1 is_stmt 0 view .LVU329
	endbr64
	pushq	%r15
	.cfi_def_cfa_offset 16
	.cfi_offset 15, -16
	.loc 1 866 8 view .LVU330
	xorl	%r15d, %r15d
	.loc 1 862 1 view .LVU331
	pushq	%r14
	.cfi_def_cfa_offset 24
	.cfi_offset 14, -24
	.loc 1 887 15 view .LVU332
	leaq	.LC6(%rip), %r14
	.loc 1 862 1 view .LVU333
	pushq	%r13
	.cfi_def_cfa_offset 32
	.cfi_offset 13, -32
	.loc 1 869 7 view .LVU334
	movl	$-1, %r13d
	.loc 1 862 1 view .LVU335
	pushq	%r12
	.cfi_def_cfa_offset 40
	.cfi_offset 12, -40
	movl	%edi, %r12d
	pushq	%rbp
	.cfi_def_cfa_offset 48
	.cfi_offset 6, -48
	movq	%rsi, %rbp
	pushq	%rbx
	.cfi_def_cfa_offset 56
	.cfi_offset 3, -56
	leaq	.L99(%rip), %rbx
	subq	$312, %rsp
	.cfi_def_cfa_offset 368
	.loc 1 874 3 view .LVU336
	movq	(%rsi), %rdi
.LVL148:
	.loc 1 862 1 view .LVU337
	movq	%fs:40, %rax
	movq	%rax, 296(%rsp)
	xorl	%eax, %eax
	.loc 1 863 3 is_stmt 1 view .LVU338
	.loc 1 865 3 view .LVU339
.LVL149:
	.loc 4 503 3 view .LVU340
	.loc 4 504 3 view .LVU341
	.loc 4 505 3 view .LVU342
	.loc 1 866 3 view .LVU343
	.loc 1 867 3 view .LVU344
	.loc 1 868 3 view .LVU345
	.loc 1 869 3 view .LVU346
	.loc 1 870 3 view .LVU347
	.loc 1 873 33 view .LVU348
	.loc 1 874 3 view .LVU349
	call	set_program_name@PLT
.LVL150:
	.loc 1 875 3 view .LVU350
	leaq	.LC6(%rip), %rsi
	movl	$6, %edi
	call	setlocale@PLT
.LVL151:
	.loc 1 876 3 view .LVU351
	leaq	.LC38(%rip), %rsi
	leaq	.LC24(%rip), %rdi
	call	bindtextdomain@PLT
.LVL152:
	.loc 1 877 3 view .LVU352
	leaq	.LC24(%rip), %rdi
	call	textdomain@PLT
.LVL153:
	.loc 1 879 3 view .LVU353
	movq	close_stdout@GOTPCREL(%rip), %rdi
	call	atexit@PLT
.LVL154:
	.loc 1 883 3 view .LVU354
	movq	stdout(%rip), %rdi
	xorl	%ecx, %ecx
	xorl	%esi, %esi
	movl	$1, %edx
	call	setvbuf@PLT
.LVL155:
	.loc 1 886 3 view .LVU355
	.loc 1 887 3 view .LVU356
	.loc 1 892 3 view .LVU357
	.loc 1 870 8 is_stmt 0 view .LVU358
	movb	$0, 104(%rsp)
.LVL156:
.L93:
	.loc 1 892 9 is_stmt 1 view .LVU359
	.loc 1 892 17 is_stmt 0 view .LVU360
	xorl	%r8d, %r8d
	leaq	long_options(%rip), %rcx
	movq	%rbp, %rsi
	movl	%r12d, %edi
	leaq	.LC44(%rip), %rdx
	call	getopt_long@PLT
.LVL157:
	.loc 1 892 9 view .LVU361
	cmpl	$-1, %eax
	je	.L397
	.loc 1 893 5 is_stmt 1 view .LVU362
	cmpl	$132, %eax
	jg	.L394
	cmpl	$97, %eax
	jle	.L398
	subl	$98, %eax
.LVL158:
	.loc 1 893 5 is_stmt 0 view .LVU363
	cmpl	$34, %eax
	ja	.L394
	movslq	(%rbx,%rax,4), %rax
	addq	%rbx, %rax
	notrack jmp	*%rax
	.section	.rodata
	.align 4
	.align 4
.L99:
	.long	.L109-.L99
	.long	.L108-.L99
	.long	.L394-.L99
	.long	.L394-.L99
	.long	.L394-.L99
	.long	.L394-.L99
	.long	.L394-.L99
	.long	.L394-.L99
	.long	.L394-.L99
	.long	.L394-.L99
	.long	.L107-.L99
	.long	.L394-.L99
	.long	.L394-.L99
	.long	.L394-.L99
	.long	.L394-.L99
	.long	.L394-.L99
	.long	.L394-.L99
	.long	.L394-.L99
	.long	.L240-.L99
	.long	.L394-.L99
	.long	.L394-.L99
	.long	.L105-.L99
	.long	.L394-.L99
	.long	.L394-.L99
	.long	.L104-.L99
	.long	.L394-.L99
	.long	.L394-.L99
	.long	.L394-.L99
	.long	.L394-.L99
	.long	.L394-.L99
	.long	.L103-.L99
	.long	.L102-.L99
	.long	.L101-.L99
	.long	.L100-.L99
	.long	.L98-.L99
	.section	.text.startup
.L240:
	.loc 1 919 16 view .LVU364
	xorl	%r13d, %r13d
.LVL159:
	.loc 1 919 16 view .LVU365
	jmp	.L93
.LVL160:
.L108:
	.loc 1 893 5 view .LVU366
	movl	$1, %r15d
.LVL161:
	.loc 1 893 5 view .LVU367
	jmp	.L93
.LVL162:
.L107:
	.loc 1 897 9 is_stmt 1 view .LVU368
	.loc 1 898 33 is_stmt 0 view .LVU369
	movl	$5, %edx
	leaq	.LC39(%rip), %rsi
	xorl	%edi, %edi
	call	dcgettext@PLT
.LVL163:
	.loc 1 897 21 view .LVU370
	movq	optarg(%rip), %rdi
	xorl	%r9d, %r9d
	xorl	%esi, %esi
	.loc 1 898 33 view .LVU371
	movq	%rax, %r8
	.loc 1 897 21 view .LVU372
	leaq	.LC6(%rip), %rcx
	movq	$-1, %rdx
	call	xdectoumax@PLT
.LVL164:
	.loc 1 899 23 view .LVU373
	movq	optarg(%rip), %r14
.LVL165:
	.loc 1 897 19 view .LVU374
	movq	%rax, b2_length(%rip)
	.loc 1 899 9 is_stmt 1 view .LVU375
.LVL166:
	.loc 1 900 9 view .LVU376
	.loc 1 900 12 is_stmt 0 view .LVU377
	testb	$7, %al
	je	.L93
.LBB273:
	.loc 1 902 13 is_stmt 1 view .LVU378
	movq	%r14, %rdi
	call	quote@PLT
.LVL167:
	.loc 1 902 26 is_stmt 0 view .LVU379
	movl	$5, %edx
	leaq	.LC40(%rip), %rsi
	xorl	%edi, %edi
	.loc 1 902 13 view .LVU380
	movq	%rax, %r12
.LVL168:
	.loc 1 902 26 view .LVU381
	call	dcgettext@PLT
.LVL169:
	.loc 1 902 13 view .LVU382
	movq	%r12, %rcx
	xorl	%esi, %esi
	xorl	%edi, %edi
	.loc 1 902 26 view .LVU383
	movq	%rax, %rdx
	.loc 1 902 13 view .LVU384
	xorl	%eax, %eax
	call	error@PLT
.LVL170:
	.loc 1 903 13 is_stmt 1 view .LVU385
	movl	$5, %edx
	leaq	.LC41(%rip), %rsi
	xorl	%edi, %edi
	call	dcgettext@PLT
.LVL171:
	xorl	%esi, %esi
	movl	$1, %edi
	movq	%rax, %rdx
	xorl	%eax, %eax
	call	error@PLT
.LVL172:
.L98:
	.loc 1 903 13 is_stmt 0 view .LVU386
.LBE273:
	.loc 1 938 9 is_stmt 1 view .LVU387
	.loc 1 939 9 view .LVU388
	.loc 1 940 9 view .LVU389
	.loc 1 938 20 is_stmt 0 view .LVU390
	movb	$1, 104(%rsp)
	.loc 1 939 16 view .LVU391
	movl	$1, %r13d
	.loc 1 940 9 view .LVU392
	jmp	.L93
.LVL173:
.L100:
	.loc 1 935 9 is_stmt 1 view .LVU393
	.loc 1 935 16 is_stmt 0 view .LVU394
	movb	$1, strict(%rip)
	.loc 1 936 9 is_stmt 1 view .LVU395
	jmp	.L93
.L101:
	.loc 1 930 9 view .LVU396
	.loc 1 930 21 is_stmt 0 view .LVU397
	movb	$0, status_only(%rip)
	.loc 1 931 9 is_stmt 1 view .LVU398
	.loc 1 931 14 is_stmt 0 view .LVU399
	movb	$0, warn(%rip)
	.loc 1 932 9 is_stmt 1 view .LVU400
	.loc 1 932 15 is_stmt 0 view .LVU401
	movb	$1, quiet(%rip)
	.loc 1 933 9 is_stmt 1 view .LVU402
	jmp	.L93
.L102:
	.loc 1 914 9 view .LVU403
	.loc 1 914 21 is_stmt 0 view .LVU404
	movb	$1, status_only(%rip)
	.loc 1 915 9 is_stmt 1 view .LVU405
	.loc 1 915 14 is_stmt 0 view .LVU406
	movb	$0, warn(%rip)
	.loc 1 916 9 is_stmt 1 view .LVU407
	.loc 1 916 15 is_stmt 0 view .LVU408
	movb	$0, quiet(%rip)
	.loc 1 917 9 is_stmt 1 view .LVU409
	jmp	.L93
.L103:
	.loc 1 927 9 view .LVU410
	.loc 1 927 24 is_stmt 0 view .LVU411
	movb	$1, ignore_missing(%rip)
	.loc 1 928 9 is_stmt 1 view .LVU412
	jmp	.L93
.L104:
	.loc 1 942 9 view .LVU413
	.loc 1 942 15 is_stmt 0 view .LVU414
	movb	$0, delim(%rip)
	.loc 1 943 9 is_stmt 1 view .LVU415
	jmp	.L93
.L105:
	.loc 1 922 9 view .LVU416
	.loc 1 922 21 is_stmt 0 view .LVU417
	movb	$0, status_only(%rip)
	.loc 1 923 9 is_stmt 1 view .LVU418
	.loc 1 923 14 is_stmt 0 view .LVU419
	movb	$1, warn(%rip)
	.loc 1 924 9 is_stmt 1 view .LVU420
	.loc 1 924 15 is_stmt 0 view .LVU421
	movb	$0, quiet(%rip)
	.loc 1 925 9 is_stmt 1 view .LVU422
	jmp	.L93
.L109:
	.loc 1 908 16 is_stmt 0 view .LVU423
	movl	$1, %r13d
.LVL174:
	.loc 1 908 16 view .LVU424
	jmp	.L93
.LVL175:
	.p2align 4,,10
	.p2align 3
.L398:
	.loc 1 893 5 view .LVU425
	cmpl	$-131, %eax
	jne	.L399
	.loc 1 944 7 is_stmt 1 view .LVU426
	.loc 1 944 28 view .LVU427
	.loc 1 945 7 view .LVU428
	subq	$8, %rsp
	.cfi_remember_state
	.cfi_def_cfa_offset 376
	movq	stdout(%rip), %rdi
	xorl	%eax, %eax
.LVL176:
	.loc 1 945 7 is_stmt 0 view .LVU429
	movq	Version(%rip), %rcx
	pushq	$0
	.cfi_def_cfa_offset 384
	leaq	.LC42(%rip), %r9
	leaq	.LC43(%rip), %r8
	leaq	.LC33(%rip), %rdx
	leaq	.LC4(%rip), %rsi
	call	version_etc@PLT
.LVL177:
	.loc 1 945 7 is_stmt 1 view .LVU430
	xorl	%edi, %edi
	call	exit@PLT
.LVL178:
.L399:
	.cfi_restore_state
	.loc 1 893 5 is_stmt 0 view .LVU431
	cmpl	$-130, %eax
	jne	.L394
	.loc 1 944 7 is_stmt 1 view .LVU432
	xorl	%edi, %edi
	call	usage
.LVL179:
.L397:
	.loc 1 950 3 view .LVU433
	.loc 1 952 17 is_stmt 0 view .LVU434
	movq	b2_length(%rip), %rax
.LVL180:
	.loc 1 950 26 view .LVU435
	movq	$3, min_digest_line_length(%rip)
	.loc 1 952 3 is_stmt 1 view .LVU436
	.loc 1 952 6 is_stmt 0 view .LVU437
	cmpq	$512, %rax
	ja	.L400
	.loc 1 960 3 is_stmt 1 discriminator 1 view .LVU438
	.loc 1 960 22 is_stmt 0 discriminator 1 view .LVU439
	testq	%rax, %rax
	jne	.L112
	testb	%r15b, %r15b
	jne	.L112
	.loc 1 961 5 is_stmt 1 view .LVU440
	.loc 1 961 15 is_stmt 0 view .LVU441
	movq	$512, b2_length(%rip)
	movl	$512, %eax
.L112:
	.loc 1 962 3 is_stmt 1 view .LVU442
	.loc 1 962 32 is_stmt 0 view .LVU443
	shrq	$2, %rax
	.loc 1 967 21 view .LVU444
	testl	%r13d, %r13d
	.loc 1 962 20 view .LVU445
	movq	%rax, digest_hex_bytes(%rip)
	.loc 1 967 3 is_stmt 1 view .LVU446
	.loc 1 967 21 is_stmt 0 view .LVU447
	sete	%al
	.loc 1 967 6 view .LVU448
	testb	%al, 104(%rsp)
	jne	.L401
	.loc 1 978 3 is_stmt 1 view .LVU449
	.loc 1 978 6 is_stmt 0 view .LVU450
	cmpb	$10, delim(%rip)
	je	.L114
	.loc 1 980 20 discriminator 1 view .LVU451
	movl	$5, %edx
	leaq	.LC47(%rip), %rsi
	.loc 1 978 21 discriminator 1 view .LVU452
	testb	%r15b, %r15b
	jne	.L395
	.loc 1 999 3 is_stmt 1 view .LVU453
	.loc 1 999 6 is_stmt 0 view .LVU454
	cmpb	$0, ignore_missing(%rip)
	jne	.L235
	.loc 1 1007 3 is_stmt 1 view .LVU455
	.loc 1 1007 6 is_stmt 0 view .LVU456
	cmpb	$0, status_only(%rip)
	jne	.L238
.L120:
	.loc 1 1014 3 is_stmt 1 view .LVU457
	.loc 1 1014 6 is_stmt 0 view .LVU458
	cmpb	$0, warn(%rip)
	je	.L122
	.loc 1 1017 8 discriminator 1 view .LVU459
	movl	$5, %edx
	leaq	.LC52(%rip), %rsi
	.loc 1 1014 12 discriminator 1 view .LVU460
	testb	%r15b, %r15b
	jne	.L123
	jmp	.L395
.L114:
	.loc 1 985 3 is_stmt 1 view .LVU461
	.loc 1 985 6 is_stmt 0 view .LVU462
	testb	%r15b, %r15b
	je	.L116
	cmpb	$0, 104(%rsp)
	.loc 1 987 20 view .LVU463
	movl	$5, %edx
	leaq	.LC48(%rip), %rsi
	.loc 1 985 6 view .LVU464
	jne	.L395
.L116:
	.loc 1 992 3 is_stmt 1 view .LVU465
	.loc 1 992 6 is_stmt 0 view .LVU466
	testl	%r13d, %r13d
	js	.L117
	.loc 1 994 20 view .LVU467
	movl	$5, %edx
	leaq	.LC49(%rip), %rsi
	.loc 1 992 6 view .LVU468
	testb	%r15b, %r15b
	je	.L117
.L395:
	.loc 1 974 19 view .LVU469
	xorl	%edi, %edi
	call	dcgettext@PLT
.LVL181:
	.loc 1 974 6 view .LVU470
	xorl	%esi, %esi
	xorl	%edi, %edi
	.loc 1 974 19 view .LVU471
	movq	%rax, %rdx
	.loc 1 974 6 view .LVU472
	xorl	%eax, %eax
	call	error@PLT
.LVL182:
.L394:
	.loc 1 975 6 is_stmt 1 view .LVU473
	movl	$1, %edi
	call	usage
.LVL183:
.L117:
	.loc 1 999 3 view .LVU474
	.loc 1 999 6 is_stmt 0 view .LVU475
	cmpb	$0, ignore_missing(%rip)
	je	.L118
	.loc 1 999 22 discriminator 1 view .LVU476
	testb	%r15b, %r15b
	je	.L235
.L377:
	.loc 1 1014 3 is_stmt 1 view .LVU477
	.loc 1 1014 6 is_stmt 0 view .LVU478
	cmpb	$0, warn(%rip)
	jne	.L123
.L124:
	.loc 1 1028 3 is_stmt 1 view .LVU479
	.loc 1 1028 6 is_stmt 0 view .LVU480
	cmpb	$0, strict(%rip)
	je	.L123
	.loc 1 1031 9 view .LVU481
	movl	$5, %edx
	leaq	.LC54(%rip), %rsi
	.loc 1 1028 6 view .LVU482
	testb	%r15b, %r15b
	je	.L395
.L123:
	.loc 1 1035 3 is_stmt 1 view .LVU483
.LVL184:
	.loc 1 1038 3 view .LVU484
	.loc 1 1038 29 is_stmt 0 view .LVU485
	movslq	%r12d, %rax
	.loc 1 1038 10 view .LVU486
	leaq	0(%rbp,%rax,8), %rax
	movq	%rax, 88(%rsp)
.LVL185:
	.loc 1 1039 3 is_stmt 1 view .LVU487
	.loc 1 1039 14 is_stmt 0 view .LVU488
	movslq	optind(%rip), %rax
.LVL186:
	.loc 1 1039 6 view .LVU489
	cmpl	%r12d, %eax
	jne	.L125
	.loc 1 1040 5 is_stmt 1 view .LVU490
.LVL187:
	.loc 4 700 3 view .LVU491
	.loc 1 1040 20 is_stmt 0 view .LVU492
	movq	88(%rsp), %rdi
	leaq	.LC55(%rip), %rsi
	movq	%rsi, (%rdi)
	.loc 1 1040 17 view .LVU493
	addq	$8, %rdi
.LVL188:
	.loc 1 1040 17 view .LVU494
	movq	%rdi, 88(%rsp)
.LVL189:
.L125:
	.loc 1 1042 3 is_stmt 1 view .LVU495
.LBB274:
	.loc 1 1042 8 view .LVU496
	.loc 1 1042 15 is_stmt 0 view .LVU497
	leaq	0(%rbp,%rax,8), %rax
	movq	%rax, 24(%rsp)
.LVL190:
	.loc 1 1042 41 is_stmt 1 view .LVU498
	.loc 1 1042 3 is_stmt 0 view .LVU499
	cmpq	%rax, 88(%rsp)
	jbe	.L241
	subl	$1, %r13d
.LVL191:
	.loc 1 1042 3 view .LVU500
	movl	$42, %edx
	movl	$32, %eax
.LVL192:
	.loc 1 1042 3 view .LVU501
.LBE274:
	.loc 1 868 8 view .LVU502
	movb	$1, 105(%rsp)
	cmove	%edx, %eax
	movl	%eax, 108(%rsp)
.LBB447:
.LBB275:
.LBB276:
.LBB277:
.LBB278:
.LBB279:
	.loc 2 110 10 view .LVU503
	movb	%al, 107(%rsp)
.LVL193:
	.p2align 4,,10
	.p2align 3
.L218:
	.loc 2 110 10 view .LVU504
.LBE279:
.LBE278:
.LBE277:
.LBE276:
	.loc 1 1044 7 is_stmt 1 view .LVU505
	.loc 1 1044 13 is_stmt 0 view .LVU506
	movq	24(%rsp), %rax
	movq	(%rax), %rdi
	movq	%rdi, 32(%rsp)
.LVL194:
	.loc 1 1046 7 is_stmt 1 view .LVU507
	.loc 1 1046 10 is_stmt 0 view .LVU508
	testb	%r15b, %r15b
	je	.L127
	.loc 1 1047 9 is_stmt 1 view .LVU509
.LVL195:
.LBB327:
.LBI327:
	.loc 1 652 1 view .LVU510
.LBB328:
	.loc 1 654 3 view .LVU511
	.loc 1 655 3 view .LVU512
	.loc 1 656 3 view .LVU513
	.loc 1 657 3 view .LVU514
	.loc 1 658 3 view .LVU515
	.loc 1 659 3 view .LVU516
	.loc 1 660 3 view .LVU517
	.loc 1 661 3 view .LVU518
	.loc 1 663 3 view .LVU519
	.loc 1 663 3 is_stmt 0 view .LVU520
.LBE328:
.LBE327:
.LBE275:
.LBE447:
	.loc 4 503 3 is_stmt 1 view .LVU521
	.loc 4 504 3 view .LVU522
	.loc 4 505 3 view .LVU523
.LBB448:
.LBB440:
.LBB422:
.LBB411:
	.loc 1 664 3 view .LVU524
	.loc 1 665 3 view .LVU525
	.loc 1 666 3 view .LVU526
	.loc 1 667 3 view .LVU527
	.loc 1 667 19 is_stmt 0 view .LVU528
	leaq	.LC55(%rip), %rsi
	call	strcmp@PLT
.LVL196:
	.loc 1 667 19 view .LVU529
	movl	%eax, 68(%rsp)
.LVL197:
	.loc 1 669 3 is_stmt 1 view .LVU530
	.loc 1 669 6 is_stmt 0 view .LVU531
	testl	%eax, %eax
	jne	.L128
	.loc 1 671 7 is_stmt 1 view .LVU532
	.loc 1 672 24 is_stmt 0 view .LVU533
	movl	$5, %edx
	leaq	.LC56(%rip), %rsi
	xorl	%edi, %edi
	.loc 1 671 23 view .LVU534
	movb	$1, have_read_stdin(%rip)
	.loc 1 672 7 is_stmt 1 view .LVU535
	.loc 1 672 24 is_stmt 0 view .LVU536
	call	dcgettext@PLT
.LVL198:
	.loc 1 673 24 view .LVU537
	movq	stdin(%rip), %r13
	.loc 1 672 24 view .LVU538
	movq	%rax, 32(%rsp)
.LVL199:
	.loc 1 673 7 is_stmt 1 view .LVU539
.L129:
	.loc 1 685 3 view .LVU540
	.loc 1 686 3 view .LVU541
	leaq	120(%rsp), %rax
	.loc 1 660 8 is_stmt 0 view .LVU542
	movb	$0, 106(%rsp)
.LBB329:
	.loc 1 695 7 view .LVU543
	movl	$1, %r12d
	movq	%rax, 8(%rsp)
	leaq	112(%rsp), %rax
.LBE329:
	.loc 1 686 8 view .LVU544
	movq	$0, 112(%rsp)
	.loc 1 687 3 is_stmt 1 view .LVU545
	.loc 1 687 24 is_stmt 0 view .LVU546
	movq	$0, 120(%rsp)
	.loc 1 688 3 is_stmt 1 view .LVU547
.LBB389:
	.loc 1 690 7 view .LVU548
.LVL200:
	.loc 1 691 7 view .LVU549
	.loc 1 692 7 view .LVU550
	.loc 1 693 7 view .LVU551
	.loc 1 695 7 view .LVU552
	.loc 1 696 7 view .LVU553
.LBE389:
	.loc 1 659 8 is_stmt 0 view .LVU554
	movb	$0, 72(%rsp)
	.loc 1 657 13 view .LVU555
	movq	$0, 96(%rsp)
	.loc 1 658 13 view .LVU556
	movq	$0, 80(%rsp)
	.loc 1 655 13 view .LVU557
	movq	$0, 56(%rsp)
	movq	%rax, (%rsp)
.LVL201:
	.p2align 4,,10
	.p2align 3
.L131:
.LBB390:
	.loc 1 700 7 is_stmt 1 view .LVU558
.LBB330:
.LBI330:
	.loc 2 118 1 view .LVU559
.LBB331:
	.loc 2 120 3 view .LVU560
	.loc 2 120 10 is_stmt 0 view .LVU561
	movq	8(%rsp), %rsi
	movq	(%rsp), %rdi
	movq	%r13, %rcx
	movl	$10, %edx
	call	__getdelim@PLT
.LVL202:
	movq	%rax, %rbp
.LVL203:
	.loc 2 120 10 view .LVU562
.LBE331:
.LBE330:
	.loc 1 701 7 is_stmt 1 view .LVU563
	.loc 1 701 10 is_stmt 0 view .LVU564
	testq	%rax, %rax
	jle	.L132
	.loc 1 705 7 is_stmt 1 view .LVU565
	.loc 1 705 15 is_stmt 0 view .LVU566
	movq	112(%rsp), %r14
	movzbl	(%r14), %ecx
	.loc 1 705 10 view .LVU567
	cmpb	$35, %cl
	je	.L133
	.loc 1 709 7 is_stmt 1 view .LVU568
	.loc 1 709 15 is_stmt 0 view .LVU569
	leaq	-1(%rax), %rax
.LVL204:
	.loc 1 709 15 view .LVU570
	leaq	(%r14,%rax), %rdx
	.loc 1 709 10 view .LVU571
	cmpb	$10, (%rdx)
	jne	.L134
	.loc 1 710 9 is_stmt 1 view .LVU572
.LVL205:
	.loc 1 710 29 is_stmt 0 view .LVU573
	movb	$0, (%rdx)
	movq	112(%rsp), %r14
	movq	%rax, %rbp
	movzbl	(%r14), %ecx
.L134:
	.loc 1 712 7 is_stmt 1 view .LVU574
.LVL206:
.LBB332:
.LBI332:
	.loc 1 419 1 view .LVU575
.LBB333:
	.loc 1 422 3 view .LVU576
	.loc 1 423 3 view .LVU577
	.loc 1 425 3 view .LVU578
	.loc 1 426 3 view .LVU579
	.loc 1 426 9 view .LVU580
	.loc 1 425 10 is_stmt 0 view .LVU581
	xorl	%edx, %edx
	.loc 1 426 9 view .LVU582
	cmpb	$32, %cl
	jne	.L396
.LVL207:
	.p2align 4,,10
	.p2align 3
.L331:
	.loc 1 427 5 is_stmt 1 view .LVU583
	addq	$1, %rdx
.LVL208:
	.loc 1 426 9 view .LVU584
	.loc 1 426 10 is_stmt 0 view .LVU585
	movzbl	(%r14,%rdx), %ecx
	.loc 1 426 9 view .LVU586
	cmpb	$32, %cl
	je	.L331
.LVL209:
.L396:
	.loc 1 426 9 view .LVU587
	cmpb	$9, %cl
	je	.L331
	.loc 1 429 3 is_stmt 1 view .LVU588
	.loc 1 422 8 is_stmt 0 view .LVU589
	movb	$0, 16(%rsp)
	.loc 1 429 6 view .LVU590
	cmpb	$92, %cl
	jne	.L138
	.loc 1 431 7 is_stmt 1 view .LVU591
	.loc 1 432 24 is_stmt 0 view .LVU592
	movb	%r15b, 16(%rsp)
	.loc 1 431 7 view .LVU593
	addq	$1, %rdx
.LVL210:
	.loc 1 432 7 is_stmt 1 view .LVU594
.L138:
	.loc 1 437 3 view .LVU595
	.loc 1 438 3 view .LVU596
	.loc 1 438 7 is_stmt 0 view .LVU597
	leaq	(%r14,%rdx), %r11
	movl	$6, %ecx
	leaq	.LC9(%rip), %rdi
	movq	%r11, %rsi
	repz cmpsb
.LVL211:
	.loc 1 438 7 view .LVU598
	seta	%al
	sbbb	$0, %al
	.loc 1 438 6 view .LVU599
	testb	%al, %al
	jne	.L139
.LBB334:
	.loc 1 440 7 is_stmt 1 view .LVU600
	.loc 1 440 9 is_stmt 0 view .LVU601
	leaq	6(%rdx), %r8
.LVL212:
	.loc 1 443 7 is_stmt 1 view .LVU602
	.loc 1 445 7 view .LVU603
	.loc 1 445 13 view .LVU604
	leaq	7(%r14,%rdx), %rax
	.loc 1 445 15 is_stmt 0 view .LVU605
	leaq	(%r14,%r8), %r10
	movzbl	(%r10), %ebx
	subq	%r10, %rax
	.loc 1 445 13 view .LVU606
	testb	%bl, %bl
	jne	.L140
	jmp	.L141
	.p2align 4,,10
	.p2align 3
.L403:
	.loc 1 445 54 view .LVU607
	cmpb	$40, %bl
	je	.L402
	.loc 1 446 9 is_stmt 1 view .LVU608
	addq	$1, %r8
.LVL213:
	.loc 1 445 13 view .LVU609
	addq	%rax, %r10
	.loc 1 445 15 is_stmt 0 view .LVU610
	movzbl	(%r14,%r8), %ebx
	.loc 1 445 13 view .LVU611
	testb	%bl, %bl
	je	.L141
.L140:
	.loc 1 445 19 view .LVU612
	cmpb	$32, %bl
	je	.L142
	.loc 1 445 19 view .LVU613
	cmpb	$9, %bl
	je	.L142
	.loc 1 445 39 view .LVU614
	cmpb	$45, %bl
	jne	.L403
.L141:
	.loc 1 449 14 view .LVU615
	movb	$0, (%r10)
.LVL214:
	.loc 1 450 24 view .LVU616
	xorl	%ecx, %ecx
	xorl	%edx, %edx
	leaq	algorithm_out_string(%rip), %rsi
	movq	%r11, %rdi
	movq	%r8, 40(%rsp)
	.loc 1 447 7 is_stmt 1 view .LVU617
.LVL215:
	.loc 1 448 7 view .LVU618
	.loc 1 449 7 view .LVU619
	.loc 1 450 7 view .LVU620
	.loc 1 450 24 is_stmt 0 view .LVU621
	call	argmatch@PLT
.LVL216:
	.loc 1 451 7 is_stmt 1 view .LVU622
	.loc 1 451 10 is_stmt 0 view .LVU623
	movq	40(%rsp), %r8
	testq	%rax, %rax
	js	.L146
	.loc 1 453 20 view .LVU624
	movl	%eax, b2_algorithm(%rip)
	.loc 1 449 10 view .LVU625
	addq	$1, %r8
.LVL217:
	.loc 1 453 7 is_stmt 1 view .LVU626
	.loc 1 454 7 view .LVU627
.L222:
	.loc 1 457 7 view .LVU628
	.loc 1 457 17 is_stmt 0 view .LVU629
	movq	$512, b2_length(%rip)
	.loc 1 458 7 is_stmt 1 view .LVU630
	leaq	(%r14,%r8), %rdi
	.loc 1 458 10 is_stmt 0 view .LVU631
	cmpb	$45, %bl
	je	.L148
.L390:
	.loc 1 457 17 view .LVU632
	movl	$128, %eax
.LVL218:
.L149:
	.loc 1 471 7 is_stmt 1 view .LVU633
	.loc 1 471 24 is_stmt 0 view .LVU634
	movq	%rax, digest_hex_bytes(%rip)
	.loc 1 473 7 is_stmt 1 view .LVU635
	.loc 1 473 12 is_stmt 0 view .LVU636
	movzbl	(%rdi), %eax
	.loc 1 473 10 view .LVU637
	cmpb	$32, %al
	jne	.L152
	.loc 1 474 9 is_stmt 1 view .LVU638
.LVL219:
	.loc 1 474 9 is_stmt 0 view .LVU639
	movzbl	1(%r14,%r8), %eax
	addq	$1, %r8
.LVL220:
.L152:
	.loc 1 475 7 is_stmt 1 view .LVU640
	.loc 1 475 10 is_stmt 0 view .LVU641
	cmpb	$40, %al
	je	.L404
.LVL221:
.L146:
	.loc 1 475 10 view .LVU642
.LBE334:
.LBE333:
.LBE332:
	.loc 1 715 11 is_stmt 1 view .LVU643
	.loc 1 717 11 view .LVU644
	.loc 1 715 11 is_stmt 0 view .LVU645
	addq	$1, 56(%rsp)
.LVL222:
	.loc 1 717 14 view .LVU646
	cmpb	$0, warn(%rip)
	jne	.L405
.LVL223:
.L133:
	.loc 1 717 14 view .LVU647
.LBE390:
	.loc 1 797 9 is_stmt 1 view .LVU648
.LBB391:
.LBI391:
	.loc 2 128 1 view .LVU649
.LBB392:
	.loc 2 130 3 view .LVU650
	.loc 2 130 3 is_stmt 0 view .LVU651
.LBE392:
.LBE391:
.LBE411:
.LBE422:
.LBE440:
.LBE448:
	.loc 2 137 3 is_stmt 1 view .LVU652
.LBB449:
.LBB441:
.LBB423:
.LBB412:
	.loc 1 797 35 is_stmt 0 view .LVU653
	testb	$48, 0(%r13)
	jne	.L132
.L186:
	.loc 1 688 3 is_stmt 1 view .LVU654
.LBB394:
	.loc 1 690 7 view .LVU655
.LVL224:
	.loc 1 691 7 view .LVU656
	.loc 1 692 7 view .LVU657
	.loc 1 693 7 view .LVU658
	.loc 1 695 7 view .LVU659
	.loc 1 696 7 view .LVU660
	.loc 1 696 10 is_stmt 0 view .LVU661
	addq	$1, %r12
.LVL225:
	.loc 1 696 10 view .LVU662
	jne	.L131
.LBB354:
	.loc 1 697 9 is_stmt 1 view .LVU663
	movq	32(%rsp), %rdx
	movl	$3, %esi
	xorl	%edi, %edi
	call	quotearg_n_style_colon@PLT
.LVL226:
	movl	$5, %edx
	leaq	.LC57(%rip), %rsi
	xorl	%edi, %edi
	movq	%rax, %r12
.LVL227:
	.loc 1 697 9 is_stmt 0 view .LVU664
	call	dcgettext@PLT
.LVL228:
	movq	%r12, %rcx
	xorl	%esi, %esi
	movl	$1, %edi
	movq	%rax, %rdx
	xorl	%eax, %eax
	call	error@PLT
.LVL229:
	.p2align 4,,10
	.p2align 3
.L139:
	.loc 1 697 9 view .LVU665
.LBE354:
.LBB355:
.LBB348:
	.loc 1 489 3 is_stmt 1 view .LVU666
	.loc 1 489 13 is_stmt 0 view .LVU667
	movq	%rbp, %rcx
	movq	%rdx, 48(%rsp)
	subq	%rdx, %rcx
	.loc 1 489 50 view .LVU668
	cmpb	$92, (%r11)
	movq	%r11, 40(%rsp)
	sete	%al
	movzbl	%al, %eax
	.loc 1 489 42 view .LVU669
	addq	min_digest_line_length(%rip), %rax
	.loc 1 489 6 view .LVU670
	cmpq	%rax, %rcx
	jb	.L146
	.loc 1 492 3 is_stmt 1 view .LVU671
.LVL230:
	.loc 1 496 3 view .LVU672
	.loc 1 497 3 view .LVU673
	.loc 1 497 20 is_stmt 0 view .LVU674
	movq	$0, digest_hex_bytes(%rip)
	.loc 1 498 3 is_stmt 1 view .LVU675
	.loc 1 498 10 is_stmt 0 view .LVU676
	call	__ctype_b_loc@PLT
.LVL231:
	.loc 1 498 10 view .LVU677
	movq	48(%rsp), %rdx
	movq	40(%rsp), %r11
	.loc 1 498 9 view .LVU678
	xorl	%edi, %edi
	.loc 1 498 10 view .LVU679
	movq	(%rax), %r8
	.loc 1 498 9 view .LVU680
	xorl	%eax, %eax
	jmp	.L164
.LVL232:
	.p2align 4,,10
	.p2align 3
.L245:
	.loc 1 498 9 view .LVU681
	movl	%r15d, %edi
.LVL233:
.L164:
	.loc 1 498 9 is_stmt 1 view .LVU682
	.loc 1 498 10 is_stmt 0 view .LVU683
	movzbl	(%r11,%rax), %ecx
	movq	%rax, %rsi
	addq	$1, %rax
.LVL234:
	.loc 1 498 9 view .LVU684
	testb	$16, 1(%r8,%rcx,2)
	jne	.L245
	testb	%dil, %dil
	je	.L146
	.loc 1 500 6 view .LVU685
	leaq	-2(%rsi), %rax
	movq	%rsi, digest_hex_bytes(%rip)
	.loc 1 500 3 is_stmt 1 view .LVU686
	.loc 1 500 6 is_stmt 0 view .LVU687
	cmpq	$126, %rax
	ja	.L146
	.loc 1 501 7 view .LVU688
	testb	$1, %sil
	jne	.L146
	.loc 1 503 3 is_stmt 1 view .LVU689
	.loc 1 503 32 is_stmt 0 view .LVU690
	leaq	0(,%rsi,4), %rax
	.loc 1 509 5 view .LVU691
	leaq	(%rdx,%rsi), %rbx
	.loc 1 503 32 view .LVU692
	movq	%rax, b2_length(%rip)
	.loc 1 509 3 is_stmt 1 view .LVU693
.LVL235:
	.loc 1 510 3 view .LVU694
	.loc 1 510 8 is_stmt 0 view .LVU695
	leaq	(%r14,%rbx), %rax
	movzbl	(%rax), %edx
	.loc 1 510 6 view .LVU696
	cmpb	$32, %dl
	je	.L253
	cmpb	$9, %dl
	jne	.L146
.L253:
	.loc 1 513 3 is_stmt 1 view .LVU697
.LVL236:
	.loc 1 513 10 is_stmt 0 view .LVU698
	movb	$0, (%rax)
	.loc 1 515 3 is_stmt 1 view .LVU699
	.loc 1 515 9 is_stmt 0 view .LVU700
	movq	%r11, %rdi
	movq	%r11, 40(%rsp)
	call	hex_digits
.LVL237:
	.loc 1 515 6 view .LVU701
	testb	%al, %al
	je	.L146
	.loc 1 513 6 view .LVU702
	leaq	1(%rbx), %rax
.LVL238:
	.loc 1 519 3 is_stmt 1 view .LVU703
	.loc 1 519 14 is_stmt 0 view .LVU704
	movq	%rbp, %rdx
	movl	bsd_reversed(%rip), %ecx
	.loc 1 519 6 view .LVU705
	movq	40(%rsp), %r11
	.loc 1 519 14 view .LVU706
	subq	%rax, %rdx
	.loc 1 519 6 view .LVU707
	subq	$1, %rdx
	je	.L166
.LVL239:
	.loc 1 519 29 view .LVU708
	movzbl	1(%r14,%rbx), %edx
	.loc 1 519 24 view .LVU709
	cmpb	$32, %dl
	je	.L167
	cmpb	$42, %dl
	je	.L167
.L166:
	.loc 1 527 7 is_stmt 1 view .LVU710
	.loc 1 527 10 is_stmt 0 view .LVU711
	testl	%ecx, %ecx
	je	.L146
	.loc 1 529 7 is_stmt 1 view .LVU712
	.loc 1 529 20 is_stmt 0 view .LVU713
	movl	$1, bsd_reversed(%rip)
.L168:
	.loc 1 539 3 is_stmt 1 view .LVU714
	.loc 1 541 6 is_stmt 0 view .LVU715
	cmpb	$0, 16(%rsp)
	.loc 1 539 16 view .LVU716
	leaq	(%r14,%rax), %r9
.LVL240:
	.loc 1 541 3 is_stmt 1 view .LVU717
	.loc 1 541 6 is_stmt 0 view .LVU718
	jne	.L406
.LVL241:
.L169:
	.loc 1 541 6 view .LVU719
.LBE348:
.LBE355:
	.loc 1 712 11 view .LVU720
	movl	68(%rsp), %eax
	testl	%eax, %eax
	jne	.L170
	.loc 1 713 32 view .LVU721
	cmpb	$45, (%r9)
	jne	.L170
	.loc 1 713 17 view .LVU722
	cmpb	$0, 1(%r9)
	je	.L146
	.p2align 4,,10
	.p2align 3
.L170:
.LBB356:
	.loc 1 730 11 is_stmt 1 view .LVU723
	.loc 1 734 11 view .LVU724
	.loc 1 735 11 view .LVU725
	.loc 1 738 11 view .LVU726
	.loc 1 738 45 is_stmt 0 view .LVU727
	xorl	%ebp, %ebp
	cmpb	$0, status_only(%rip)
	jne	.L172
	.loc 1 738 48 view .LVU728
	movq	%r9, %rdi
	movl	$10, %esi
	movq	%r11, 40(%rsp)
	.loc 1 738 45 view .LVU729
	xorl	%ebp, %ebp
	.loc 1 738 48 view .LVU730
	movq	%r9, 16(%rsp)
	call	strchr@PLT
.LVL242:
	.loc 1 738 45 view .LVU731
	movq	40(%rsp), %r11
	movq	16(%rsp), %r9
	testq	%rax, %rax
	setne	%bpl
.L172:
	.loc 1 742 16 view .LVU732
	leaq	224(%rsp), %r14
.LVL243:
	.loc 1 742 16 view .LVU733
	leaq	136(%rsp), %rdx
	movq	%r9, %rdi
	movq	%r11, 40(%rsp)
.LVL244:
	.loc 1 740 11 is_stmt 1 view .LVU734
	.loc 1 742 11 view .LVU735
	.loc 1 742 16 is_stmt 0 view .LVU736
	movq	%r14, %rsi
	movq	%r9, 16(%rsp)
	call	digest_file.isra.0
.LVL245:
	.loc 1 744 14 view .LVU737
	movq	16(%rsp), %r9
	movq	40(%rsp), %r11
	testb	%al, %al
	.loc 1 742 16 view .LVU738
	movl	%eax, %edx
.LVL246:
	.loc 1 744 11 is_stmt 1 view .LVU739
	.loc 1 744 14 is_stmt 0 view .LVU740
	jne	.L173
	.loc 1 746 15 is_stmt 1 view .LVU741
	.loc 1 747 15 view .LVU742
	.loc 1 746 15 is_stmt 0 view .LVU743
	addq	$1, 80(%rsp)
.LVL247:
	.loc 1 747 18 view .LVU744
	cmpb	$0, status_only(%rip)
	jne	.L174
	.loc 1 749 19 is_stmt 1 view .LVU745
	.loc 1 749 22 is_stmt 0 view .LVU746
	testl	%ebp, %ebp
	je	.L175
	.loc 1 750 21 is_stmt 1 view .LVU747
.LVL248:
.LBB357:
.LBI357:
	.loc 2 108 1 view .LVU748
.LBB358:
	.loc 2 110 3 view .LVU749
	.loc 2 110 10 is_stmt 0 view .LVU750
	movq	stdout(%rip), %rdi
	movq	40(%rdi), %rax
.LVL249:
	.loc 2 110 10 view .LVU751
	cmpq	48(%rdi), %rax
	jnb	.L407
	leaq	1(%rax), %rdx
.LVL250:
	.loc 2 110 10 view .LVU752
	movq	%rdx, 40(%rdi)
	movb	$92, (%rax)
.LVL251:
.L175:
	.loc 2 110 10 view .LVU753
.LBE358:
.LBE357:
	.loc 1 751 19 is_stmt 1 view .LVU754
	movl	%ebp, %esi
	movq	%r9, %rdi
	call	print_filename
.LVL252:
	.loc 1 752 19 view .LVU755
	movl	$5, %edx
	leaq	.LC59(%rip), %rsi
.LVL253:
.L392:
.LBB360:
	.loc 1 792 21 is_stmt 0 view .LVU756
	xorl	%edi, %edi
	call	dcgettext@PLT
.LVL254:
.LBB361:
.LBB362:
	.loc 3 107 10 view .LVU757
	leaq	.LC60(%rip), %rsi
	movl	$1, %edi
.LBE362:
.LBE361:
	.loc 1 792 21 view .LVU758
	movq	%rax, %rdx
.LVL255:
.LBB364:
.LBI361:
	.loc 3 105 1 is_stmt 1 view .LVU759
.LBB363:
	.loc 3 107 3 view .LVU760
	.loc 3 107 10 is_stmt 0 view .LVU761
	xorl	%eax, %eax
	call	__printf_chk@PLT
.LVL256:
.L174:
	.loc 3 107 10 view .LVU762
.LBE363:
.LBE364:
.LBE360:
	.loc 1 740 36 view .LVU763
	movb	%r15b, 72(%rsp)
.LVL257:
	.loc 1 740 36 view .LVU764
.LBE356:
.LBE394:
	.loc 1 797 9 is_stmt 1 view .LVU765
.LBB395:
	.loc 2 128 1 view .LVU766
.LBB393:
	.loc 2 130 3 view .LVU767
	.loc 2 130 3 is_stmt 0 view .LVU768
.LBE393:
.LBE395:
.LBE412:
.LBE423:
.LBE441:
.LBE449:
	.loc 2 137 3 is_stmt 1 view .LVU769
.LBB450:
.LBB442:
.LBB424:
.LBB413:
	.loc 1 797 35 is_stmt 0 view .LVU770
	testb	$48, 0(%r13)
	je	.L186
.LVL258:
.L132:
	.loc 1 799 3 is_stmt 1 view .LVU771
	movq	112(%rsp), %rdi
	call	free@PLT
.LVL259:
	.loc 1 801 3 view .LVU772
.LBB396:
.LBI396:
	.loc 2 135 1 view .LVU773
.LBB397:
	.loc 2 137 3 view .LVU774
	.loc 2 137 3 is_stmt 0 view .LVU775
.LBE397:
.LBE396:
	.loc 1 801 6 view .LVU776
	movl	0(%r13), %ebx
	andl	$32, %ebx
	jne	.L408
	.loc 1 807 3 is_stmt 1 view .LVU777
	.loc 1 807 6 is_stmt 0 view .LVU778
	cmpl	$0, 68(%rsp)
	jne	.L409
.L188:
	.loc 1 813 3 is_stmt 1 view .LVU779
	.loc 1 813 6 is_stmt 0 view .LVU780
	cmpb	$0, 72(%rsp)
	je	.L410
	.loc 1 821 7 is_stmt 1 view .LVU781
	.loc 1 821 10 is_stmt 0 view .LVU782
	cmpb	$0, status_only(%rip)
	jne	.L191
	.loc 1 823 11 is_stmt 1 view .LVU783
	.loc 1 823 14 is_stmt 0 view .LVU784
	cmpq	$0, 56(%rsp)
	jne	.L411
.L192:
	.loc 1 831 11 is_stmt 1 view .LVU785
	.loc 1 831 14 is_stmt 0 view .LVU786
	cmpq	$0, 80(%rsp)
	jne	.L412
.L193:
	.loc 1 839 11 is_stmt 1 view .LVU787
	.loc 1 839 14 is_stmt 0 view .LVU788
	cmpq	$0, 96(%rsp)
	jne	.L413
.L194:
	.loc 1 847 11 is_stmt 1 view .LVU789
	.loc 1 847 14 is_stmt 0 view .LVU790
	cmpb	$0, ignore_missing(%rip)
	je	.L191
	.loc 1 847 30 view .LVU791
	cmpb	$0, 106(%rsp)
	je	.L195
.L198:
	.loc 1 856 11 view .LVU792
	movq	80(%rsp), %rax
	orq	96(%rsp), %rax
.LVL260:
	.loc 1 856 11 view .LVU793
	jne	.L190
	.loc 1 857 11 view .LVU794
	movzbl	strict(%rip), %eax
	xorl	$1, %eax
	.loc 1 857 23 view .LVU795
	cmpq	$0, 56(%rsp)
	sete	%bl
	.loc 1 857 11 view .LVU796
	orl	%ebx, %eax
	movzbl	%al, %ebx
.LVL261:
.L190:
	.loc 1 857 11 view .LVU797
	movl	%ebx, %eax
	andl	$1, %eax
.LVL262:
.L130:
	.loc 1 857 11 view .LVU798
	andb	%al, 105(%rsp)
.LVL263:
	.loc 1 857 11 view .LVU799
.LBE413:
.LBE424:
	jmp	.L199
.LVL264:
	.p2align 4,,10
	.p2align 3
.L405:
.LBB425:
.LBB414:
.LBB398:
	.loc 1 719 15 is_stmt 1 view .LVU800
	movq	32(%rsp), %rdx
	xorl	%edi, %edi
	movl	$3, %esi
	call	quotearg_n_style_colon@PLT
.LVL265:
	.loc 1 720 22 is_stmt 0 view .LVU801
	xorl	%edi, %edi
	movl	$5, %edx
	leaq	.LC58(%rip), %rsi
	.loc 1 719 15 view .LVU802
	movq	%rax, %r14
	.loc 1 720 22 view .LVU803
	call	dcgettext@PLT
.LVL266:
	.loc 1 719 15 view .LVU804
	leaq	.LC9(%rip), %r9
	xorl	%esi, %esi
	xorl	%edi, %edi
	.loc 1 720 22 view .LVU805
	movq	%rax, %rdx
	.loc 1 719 15 view .LVU806
	movq	%r12, %r8
	movq	%r14, %rcx
	xorl	%eax, %eax
	call	error@PLT
.LVL267:
	jmp	.L133
.LVL268:
	.p2align 4,,10
	.p2align 3
.L173:
.LBB379:
	.loc 1 755 16 is_stmt 1 view .LVU807
	.loc 1 755 19 is_stmt 0 view .LVU808
	cmpb	$0, ignore_missing(%rip)
	je	.L177
	.loc 1 755 35 view .LVU809
	cmpb	$0, 136(%rsp)
	jne	.L174
.L177:
.LBB374:
	.loc 1 767 15 view .LVU810
	movq	digest_hex_bytes(%rip), %rcx
	movq	%r11, 16(%rsp)
	.loc 1 762 15 is_stmt 1 view .LVU811
.LVL269:
	.loc 1 763 15 view .LVU812
	.loc 1 767 15 view .LVU813
	.loc 1 767 29 view .LVU814
	.loc 1 767 15 is_stmt 0 view .LVU815
	shrq	%rcx
.LVL270:
	.loc 1 767 15 view .LVU816
	je	.L178
	movq	%r9, 72(%rsp)
	.loc 1 767 24 view .LVU817
	xorl	%ebx, %ebx
	movq	%rcx, 48(%rsp)
	movb	%dl, 40(%rsp)
.LBB365:
	.loc 1 769 23 view .LVU818
	call	__ctype_tolower_loc@PLT
.LVL271:
	.loc 1 769 23 view .LVU819
.LBE365:
	.loc 1 767 24 view .LVU820
	movzbl	40(%rsp), %edx
	movq	48(%rsp), %rcx
.LBB366:
	.loc 1 769 23 view .LVU821
	movq	(%rax), %rdi
.LBE366:
	.loc 1 767 24 view .LVU822
	movq	72(%rsp), %r9
	movq	16(%rsp), %r11
	jmp	.L180
.LVL272:
	.p2align 4,,10
	.p2align 3
.L414:
.LBB367:
	.loc 1 771 27 is_stmt 1 view .LVU823
	.loc 1 771 27 view .LVU824
	.loc 1 771 27 view .LVU825
	.loc 1 771 27 view .LVU826
	movzbl	1(%r11,%rbx,2), %esi
.LBE367:
	.loc 1 772 38 is_stmt 0 view .LVU827
	andl	$15, %eax
	movsbl	(%r10,%rax), %eax
	.loc 1 771 23 view .LVU828
	cmpl	%eax, (%rdi,%rsi,4)
	jne	.L179
	.loc 1 767 53 is_stmt 1 view .LVU829
	addq	$1, %rbx
.LVL273:
	.loc 1 767 29 view .LVU830
	.loc 1 767 15 is_stmt 0 view .LVU831
	cmpq	%rbx, %rcx
	je	.L178
.LVL274:
.L180:
	.loc 1 769 19 is_stmt 1 view .LVU832
.LBB368:
	.loc 1 769 23 view .LVU833
	.loc 1 769 23 view .LVU834
	.loc 1 769 23 view .LVU835
	.loc 1 769 23 view .LVU836
.LBE368:
	.loc 1 770 44 is_stmt 0 view .LVU837
	movzbl	(%r14,%rbx), %eax
.LBB369:
	.loc 1 769 23 view .LVU838
	movzbl	(%r11,%rbx,2), %r8d
.LBE369:
	.loc 1 770 33 view .LVU839
	leaq	bin2hex.7351(%rip), %r10
	.loc 1 770 50 view .LVU840
	movl	%eax, %esi
	shrb	$4, %sil
	.loc 1 770 33 view .LVU841
	andl	$15, %esi
	movsbl	(%r10,%rsi), %esi
	.loc 1 769 22 view .LVU842
	cmpl	%esi, (%rdi,%r8,4)
	je	.L414
.L179:
	.loc 1 776 17 is_stmt 1 view .LVU843
	.loc 1 780 15 view .LVU844
	.loc 1 776 17 is_stmt 0 view .LVU845
	addq	$1, 96(%rsp)
.LVL275:
	.loc 1 780 18 view .LVU846
	cmpb	$0, status_only(%rip)
	jne	.L174
	.loc 1 784 23 is_stmt 1 view .LVU847
	.loc 1 784 26 is_stmt 0 view .LVU848
	testl	%ebp, %ebp
	je	.L183
.LVL276:
.L230:
	.loc 1 785 25 is_stmt 1 view .LVU849
.LBB370:
.LBI370:
	.loc 2 108 1 view .LVU850
.LBB371:
	.loc 2 110 3 view .LVU851
	.loc 2 110 10 is_stmt 0 view .LVU852
	movq	stdout(%rip), %rdi
	movq	40(%rdi), %rax
	cmpq	48(%rdi), %rax
	jnb	.L415
	leaq	1(%rax), %rdx
.LVL277:
	.loc 2 110 10 view .LVU853
	movq	%rdx, 40(%rdi)
	movb	$92, (%rax)
.LVL278:
.L183:
	.loc 2 110 10 view .LVU854
.LBE371:
.LBE370:
	.loc 1 786 23 view .LVU855
	movl	%ebp, %esi
	movq	%r9, %rdi
	movq	%rcx, 16(%rsp)
	.loc 1 786 23 is_stmt 1 view .LVU856
	call	print_filename
.LVL279:
	.loc 1 789 19 view .LVU857
	.loc 1 789 22 is_stmt 0 view .LVU858
	movq	16(%rsp), %rcx
	cmpq	%rbx, %rcx
	je	.L185
	.loc 1 790 21 is_stmt 1 view .LVU859
	movl	$5, %edx
	leaq	.LC61(%rip), %rsi
	jmp	.L392
.LVL280:
.L142:
	.loc 1 790 21 is_stmt 0 view .LVU860
.LBE374:
.LBE379:
.LBB380:
.LBB349:
.LBB344:
	.loc 1 449 14 view .LVU861
	movb	$0, (%r10)
.LVL281:
	.loc 1 450 24 view .LVU862
	xorl	%ecx, %ecx
	xorl	%edx, %edx
	leaq	algorithm_out_string(%rip), %rsi
	movq	%r11, %rdi
	movq	%r8, 48(%rsp)
	.loc 1 447 7 is_stmt 1 view .LVU863
.LVL282:
	.loc 1 448 7 view .LVU864
	.loc 1 449 7 view .LVU865
	.loc 1 449 14 is_stmt 0 view .LVU866
	movq	%r10, 40(%rsp)
	.loc 1 450 7 is_stmt 1 view .LVU867
	.loc 1 450 24 is_stmt 0 view .LVU868
	call	argmatch@PLT
.LVL283:
	.loc 1 451 7 is_stmt 1 view .LVU869
	.loc 1 451 10 is_stmt 0 view .LVU870
	testq	%rax, %rax
	js	.L146
	.loc 1 453 7 is_stmt 1 view .LVU871
	.loc 1 454 10 is_stmt 0 view .LVU872
	cmpb	$40, %bl
	.loc 1 453 20 view .LVU873
	movl	%eax, b2_algorithm(%rip)
	.loc 1 454 7 is_stmt 1 view .LVU874
	.loc 1 454 10 is_stmt 0 view .LVU875
	movq	40(%rsp), %r10
	movq	48(%rsp), %r8
	je	.L147
.LVL284:
	.loc 1 449 10 view .LVU876
	addq	$1, %r8
.LVL285:
	.loc 1 449 10 view .LVU877
	jmp	.L222
.LVL286:
.L402:
	.loc 1 449 14 view .LVU878
	movb	$0, (%r10)
.LVL287:
	.loc 1 450 24 view .LVU879
	xorl	%ecx, %ecx
	xorl	%edx, %edx
	leaq	algorithm_out_string(%rip), %rsi
	movq	%r11, %rdi
	movq	%r8, 48(%rsp)
	.loc 1 447 7 is_stmt 1 view .LVU880
.LVL288:
	.loc 1 448 7 view .LVU881
	.loc 1 449 7 view .LVU882
	.loc 1 449 14 is_stmt 0 view .LVU883
	movq	%r10, 40(%rsp)
	.loc 1 450 7 is_stmt 1 view .LVU884
	.loc 1 450 24 is_stmt 0 view .LVU885
	call	argmatch@PLT
.LVL289:
	.loc 1 451 7 is_stmt 1 view .LVU886
	.loc 1 451 10 is_stmt 0 view .LVU887
	movq	40(%rsp), %r10
	movq	48(%rsp), %r8
	testq	%rax, %rax
	js	.L146
.LVL290:
	.loc 1 453 7 is_stmt 1 view .LVU888
	.loc 1 453 20 is_stmt 0 view .LVU889
	movl	%eax, b2_algorithm(%rip)
	.loc 1 454 7 is_stmt 1 view .LVU890
.LVL291:
.L147:
	.loc 1 455 9 view .LVU891
	.loc 1 455 16 is_stmt 0 view .LVU892
	movb	$40, (%r10)
	.loc 1 457 7 is_stmt 1 view .LVU893
	leaq	(%r14,%r8), %rdi
	.loc 1 457 17 is_stmt 0 view .LVU894
	movq	$512, b2_length(%rip)
	.loc 1 458 7 is_stmt 1 view .LVU895
	jmp	.L390
.LVL292:
.L127:
	.loc 1 458 7 is_stmt 0 view .LVU896
.LBE344:
.LBE349:
.LBE380:
.LBE398:
.LBE414:
.LBE425:
.LBB426:
	.loc 1 1050 11 is_stmt 1 view .LVU897
	.loc 1 1051 11 view .LVU898
	.loc 1 1053 11 view .LVU899
	.loc 1 1053 17 is_stmt 0 view .LVU900
	leaq	144(%rsp), %rbx
.LVL293:
	.loc 1 1053 17 view .LVU901
	movq	32(%rsp), %rdi
.LVL294:
	.loc 1 1053 17 view .LVU902
	leaq	136(%rsp), %rdx
	movq	%rbx, %rsi
	call	digest_file.isra.0
.LVL295:
	.loc 1 1053 14 view .LVU903
	testb	%al, %al
	jne	.L416
	.loc 1 1054 16 view .LVU904
	movb	$0, 105(%rsp)
.LVL296:
.L199:
	.loc 1 1054 16 view .LVU905
.LBE426:
.LBE442:
	.loc 1 1042 65 is_stmt 1 discriminator 2 view .LVU906
	.loc 1 1042 73 is_stmt 0 discriminator 2 view .LVU907
	addq	$8, 24(%rsp)
.LVL297:
	.loc 1 1042 73 discriminator 2 view .LVU908
	movq	24(%rsp), %rax
.LVL298:
	.loc 1 1042 41 is_stmt 1 discriminator 2 view .LVU909
	.loc 1 1042 3 is_stmt 0 discriminator 2 view .LVU910
	cmpq	%rax, 88(%rsp)
	ja	.L218
.LVL299:
.L126:
	.loc 1 1042 3 discriminator 2 view .LVU911
.LBE450:
	.loc 1 1106 3 is_stmt 1 view .LVU912
	.loc 1 1106 6 is_stmt 0 view .LVU913
	cmpb	$0, have_read_stdin(%rip)
	jne	.L417
.LVL300:
.L219:
	.loc 1 1109 3 is_stmt 1 view .LVU914
	.loc 1 1109 28 is_stmt 0 view .LVU915
	movzbl	105(%rsp), %eax
	xorl	$1, %eax
	.loc 1 1110 1 view .LVU916
	movq	296(%rsp), %rdi
	xorq	%fs:40, %rdi
	.loc 1 1109 28 view .LVU917
	movzbl	%al, %eax
	.loc 1 1110 1 view .LVU918
	jne	.L418
	addq	$312, %rsp
	.cfi_remember_state
	.cfi_def_cfa_offset 56
	popq	%rbx
	.cfi_def_cfa_offset 48
	popq	%rbp
	.cfi_def_cfa_offset 40
	popq	%r12
	.cfi_def_cfa_offset 32
	popq	%r13
	.cfi_def_cfa_offset 24
	popq	%r14
	.cfi_def_cfa_offset 16
	popq	%r15
	.cfi_def_cfa_offset 8
.LVL301:
	.loc 1 1110 1 view .LVU919
	ret
.LVL302:
.L148:
	.cfi_restore_state
.LBB451:
.LBB443:
.LBB427:
.LBB415:
.LBB399:
.LBB381:
.LBB350:
.LBB345:
.LBB335:
	.loc 1 460 11 is_stmt 1 view .LVU920
	.loc 1 461 11 view .LVU921
	.loc 1 462 11 view .LVU922
	.loc 1 462 18 is_stmt 0 view .LVU923
	xorl	%r8d, %r8d
.LVL303:
	.loc 1 462 18 view .LVU924
	xorl	%edx, %edx
	leaq	128(%rsp), %rcx
	leaq	136(%rsp), %rsi
	call	xstrtoumax@PLT
.LVL304:
	.loc 1 462 14 view .LVU925
	testl	%eax, %eax
	jne	.L146
	.loc 1 463 23 view .LVU926
	movq	128(%rsp), %rax
	.loc 1 463 18 view .LVU927
	testq	%rax, %rax
	je	.L146
	.loc 1 463 32 view .LVU928
	cmpq	b2_length(%rip), %rax
	ja	.L146
	.loc 1 462 15 view .LVU929
	testb	$7, %al
	jne	.L146
	.loc 1 467 11 is_stmt 1 view .LVU930
	.loc 1 467 21 is_stmt 0 view .LVU931
	movq	136(%rsp), %rdi
	.loc 1 468 21 view .LVU932
	movq	%rax, b2_length(%rip)
	shrq	$2, %rax
	.loc 1 467 21 view .LVU933
	movq	%rdi, %r8
	subq	%r14, %r8
.LVL305:
	.loc 1 468 11 is_stmt 1 view .LVU934
	jmp	.L149
.L404:
	.loc 1 468 11 is_stmt 0 view .LVU935
.LBE335:
	.loc 1 477 11 is_stmt 1 view .LVU936
	addq	$1, %r8
.LVL306:
	.loc 1 478 11 view .LVU937
	.loc 1 479 11 view .LVU938
.LBB336:
.LBI336:
	.loc 1 375 1 view .LVU939
.LBB337:
	.loc 1 378 3 view .LVU940
	.loc 1 380 3 view .LVU941
	.loc 1 380 6 is_stmt 0 view .LVU942
	subq	%r8, %rbp
.LVL307:
	.loc 1 380 6 view .LVU943
	je	.L146
.LBE337:
.LBE336:
	.loc 1 479 18 view .LVU944
	leaq	(%r14,%r8), %r9
.LVL308:
.LBB341:
.LBB338:
	.loc 1 384 3 is_stmt 1 view .LVU945
	.loc 1 385 3 view .LVU946
	.loc 1 385 9 view .LVU947
	subq	$1, %rbp
.LVL309:
	.loc 1 385 9 is_stmt 0 view .LVU948
	jne	.L154
	jmp	.L155
.LVL310:
	.p2align 4,,10
	.p2align 3
.L156:
	.loc 1 386 5 is_stmt 1 view .LVU949
	.loc 1 385 9 view .LVU950
	subq	$1, %rbp
.LVL311:
	.loc 1 385 9 is_stmt 0 view .LVU951
	je	.L155
.L154:
	.loc 1 385 12 view .LVU952
	cmpb	$41, (%r9,%rbp)
	leaq	(%r9,%rbp), %r10
	jne	.L156
.LVL312:
.L157:
	.loc 1 391 3 is_stmt 1 view .LVU953
	.loc 1 393 3 view .LVU954
	.loc 1 393 6 is_stmt 0 view .LVU955
	cmpb	$0, 16(%rsp)
	jne	.L158
.LVL313:
.L161:
	.loc 1 396 3 is_stmt 1 view .LVU956
	.loc 1 396 10 is_stmt 0 view .LVU957
	movb	$0, (%r10)
	.loc 1 398 10 view .LVU958
	movzbl	1(%r9,%rbp), %edx
	.loc 1 396 6 view .LVU959
	leaq	1(%rbp), %rax
.LVL314:
	.loc 1 398 3 is_stmt 1 view .LVU960
	.loc 1 398 9 view .LVU961
	cmpb	$32, %dl
	jne	.L391
	.p2align 4,,10
	.p2align 3
.L332:
	.loc 1 399 5 view .LVU962
	.loc 1 399 6 is_stmt 0 view .LVU963
	addq	$1, %rax
.LVL315:
	.loc 1 398 9 is_stmt 1 view .LVU964
	.loc 1 398 10 is_stmt 0 view .LVU965
	movzbl	(%r9,%rax), %edx
	.loc 1 398 9 view .LVU966
	cmpb	$32, %dl
	je	.L332
.L391:
	.loc 1 398 9 view .LVU967
	cmpb	$9, %dl
	je	.L332
	.loc 1 401 3 is_stmt 1 view .LVU968
	.loc 1 401 6 is_stmt 0 view .LVU969
	cmpb	$61, %dl
	jne	.L146
	.loc 1 404 3 is_stmt 1 view .LVU970
.LVL316:
	.loc 1 406 3 view .LVU971
	leaq	1(%r9,%rax), %rdx
.LVL317:
.L333:
	.loc 1 406 9 view .LVU972
	.loc 1 406 10 is_stmt 0 view .LVU973
	movzbl	(%rdx), %eax
	movq	%rdx, %r11
	leaq	1(%rdx), %rdx
.LVL318:
	.loc 1 406 9 view .LVU974
	cmpb	$32, %al
	je	.L333
	cmpb	$9, %al
	je	.L333
	.loc 1 411 10 view .LVU975
	movq	%r11, %rdi
	movq	%r9, 40(%rsp)
	.loc 1 409 3 is_stmt 1 view .LVU976
.LVL319:
	.loc 1 411 3 view .LVU977
	.loc 1 411 10 is_stmt 0 view .LVU978
	movq	%r11, 16(%rsp)
	call	hex_digits
.LVL320:
	.loc 1 411 10 view .LVU979
	movq	16(%rsp), %r11
	movq	40(%rsp), %r9
.LVL321:
.L163:
	.loc 1 411 10 view .LVU980
.LBE338:
.LBE341:
.LBE345:
.LBE350:
.LBE381:
	.loc 1 712 10 view .LVU981
	testb	%al, %al
	jne	.L169
	jmp	.L146
.LVL322:
.L128:
	.loc 1 712 10 view .LVU982
.LBE399:
	.loc 1 677 7 is_stmt 1 view .LVU983
	.loc 1 677 26 is_stmt 0 view .LVU984
	movq	32(%rsp), %rdi
	leaq	.LC2(%rip), %rsi
	call	fopen_safer@PLT
.LVL323:
	.loc 1 677 26 view .LVU985
	movq	%rax, %r13
.LVL324:
	.loc 1 678 7 is_stmt 1 view .LVU986
	.loc 1 678 10 is_stmt 0 view .LVU987
	testq	%rax, %rax
	jne	.L129
.LVL325:
.L393:
	.loc 1 809 7 is_stmt 1 view .LVU988
	movq	32(%rsp), %rdx
	movl	$3, %esi
	xorl	%edi, %edi
	call	quotearg_n_style_colon@PLT
.LVL326:
	movq	%rax, %r12
	.loc 1 809 17 is_stmt 0 view .LVU989
	call	__errno_location@PLT
.LVL327:
	.loc 1 809 7 view .LVU990
	movq	%r12, %rcx
	leaq	.LC3(%rip), %rdx
	xorl	%edi, %edi
	movl	(%rax), %esi
	xorl	%eax, %eax
	call	error@PLT
.LVL328:
	.loc 1 810 7 is_stmt 1 view .LVU991
	.loc 1 810 14 is_stmt 0 view .LVU992
	xorl	%eax, %eax
	jmp	.L130
.LVL329:
.L191:
	.loc 1 853 3 is_stmt 1 view .LVU993
	.loc 1 857 11 is_stmt 0 view .LVU994
	cmpb	$0, 106(%rsp)
	jne	.L198
	jmp	.L190
.LVL330:
.L416:
	.loc 1 857 11 view .LVU995
.LBE415:
.LBE427:
.LBB428:
.LBB321:
	.loc 1 1064 15 is_stmt 1 view .LVU996
	.loc 1 1064 36 is_stmt 0 view .LVU997
	movq	32(%rsp), %rdi
	movl	$92, %esi
	call	strchr@PLT
.LVL331:
	.loc 1 1065 35 view .LVU998
	testq	%rax, %rax
	je	.L419
.L201:
	.loc 1 1065 35 discriminator 1 view .LVU999
	cmpb	$10, delim(%rip)
	je	.L420
.L202:
.LVL332:
	.loc 1 1067 15 is_stmt 1 view .LVU1000
	.loc 1 1067 18 is_stmt 0 view .LVU1001
	cmpb	$0, 104(%rsp)
	jne	.L421
.LVL333:
.LBB282:
	.loc 1 1089 34 is_stmt 1 view .LVU1002
	.loc 1 1089 15 is_stmt 0 view .LVU1003
	movq	digest_hex_bytes(%rip), %rax
.LBE282:
	.loc 1 1065 35 view .LVU1004
	xorl	%r12d, %r12d
.LBB291:
	.loc 1 1089 15 view .LVU1005
	shrq	%rax
	je	.L232
.LVL334:
.L211:
	.loc 1 1089 15 view .LVU1006
.LBE291:
	.loc 1 1065 35 view .LVU1007
	xorl	%r13d, %r13d
.LBB292:
.LBB283:
.LBB284:
	.loc 3 107 10 view .LVU1008
	leaq	.LC75(%rip), %rbp
.LVL335:
	.p2align 4,,10
	.p2align 3
.L209:
	.loc 3 107 10 view .LVU1009
.LBE284:
.LBE283:
	.loc 1 1090 17 is_stmt 1 discriminator 3 view .LVU1010
.LBB288:
.LBI283:
	.loc 3 105 1 discriminator 3 view .LVU1011
.LBB285:
	.loc 3 107 3 discriminator 3 view .LVU1012
.LBE285:
.LBE288:
	.loc 1 1090 17 is_stmt 0 discriminator 3 view .LVU1013
	movzbl	(%rbx,%r13), %edx
.LBB289:
.LBB286:
	.loc 3 107 10 discriminator 3 view .LVU1014
	movq	%rbp, %rsi
	movl	$1, %edi
	xorl	%eax, %eax
.LBE286:
.LBE289:
	.loc 1 1089 62 discriminator 3 view .LVU1015
	addq	$1, %r13
.LVL336:
.LBB290:
.LBB287:
	.loc 3 107 10 discriminator 3 view .LVU1016
	call	__printf_chk@PLT
.LVL337:
	.loc 3 107 10 discriminator 3 view .LVU1017
.LBE287:
.LBE290:
	.loc 1 1089 62 is_stmt 1 discriminator 3 view .LVU1018
	.loc 1 1089 34 discriminator 3 view .LVU1019
	.loc 1 1089 56 is_stmt 0 discriminator 3 view .LVU1020
	movq	digest_hex_bytes(%rip), %rax
	shrq	%rax
	.loc 1 1089 15 discriminator 3 view .LVU1021
	cmpq	%r13, %rax
	ja	.L209
.LVL338:
.L210:
	.loc 1 1089 15 discriminator 3 view .LVU1022
.LBE292:
	.loc 1 1092 15 is_stmt 1 view .LVU1023
	.loc 1 1092 18 is_stmt 0 view .LVU1024
	cmpb	$0, 104(%rsp)
	je	.L232
.L212:
	.loc 1 1101 15 is_stmt 1 view .LVU1025
.LBB293:
.LBB294:
	.loc 2 110 10 is_stmt 0 view .LVU1026
	movq	stdout(%rip), %rdi
.LBE294:
.LBE293:
	.loc 1 1101 15 view .LVU1027
	movzbl	delim(%rip), %edx
.LVL339:
.LBB297:
.LBI293:
	.loc 2 108 1 is_stmt 1 view .LVU1028
.LBB295:
	.loc 2 110 3 view .LVU1029
	.loc 2 110 10 is_stmt 0 view .LVU1030
	movq	40(%rdi), %rax
	cmpq	48(%rdi), %rax
	jnb	.L422
	leaq	1(%rax), %rcx
	movq	%rcx, 40(%rdi)
	movb	%dl, (%rax)
	jmp	.L199
.LVL340:
.L178:
	.loc 2 110 10 view .LVU1031
.LBE295:
.LBE297:
.LBE321:
.LBE428:
.LBB429:
.LBB416:
.LBB400:
.LBB382:
.LBB375:
	.loc 1 780 15 is_stmt 1 view .LVU1032
	.loc 1 780 19 is_stmt 0 view .LVU1033
	movzbl	status_only(%rip), %eax
	movb	%al, 106(%rsp)
	.loc 1 780 18 view .LVU1034
	testb	%al, %al
	jne	.L174
	.loc 1 782 50 view .LVU1035
	movzbl	quiet(%rip), %eax
	movb	%al, 106(%rsp)
	.loc 1 782 47 view .LVU1036
	testb	%al, %al
	jne	.L174
	.loc 1 784 23 is_stmt 1 view .LVU1037
	.loc 1 784 26 is_stmt 0 view .LVU1038
	testl	%ebp, %ebp
	je	.L423
	.loc 1 778 35 view .LVU1039
	movb	%dl, 106(%rsp)
	.loc 1 762 22 view .LVU1040
	movq	%rcx, %rbx
	jmp	.L230
.LVL341:
.L409:
	.loc 1 762 22 view .LVU1041
.LBE375:
.LBE382:
.LBE400:
	.loc 1 807 20 view .LVU1042
	movq	%r13, %rdi
	call	rpl_fclose@PLT
.LVL342:
	.loc 1 807 17 view .LVU1043
	testl	%eax, %eax
	je	.L188
	jmp	.L393
.L410:
	.loc 1 816 7 is_stmt 1 view .LVU1044
	movq	32(%rsp), %rdx
	xorl	%edi, %edi
	movl	$3, %esi
	call	quotearg_n_style_colon@PLT
.LVL343:
	.loc 1 816 20 is_stmt 0 view .LVU1045
	xorl	%edi, %edi
	movl	$5, %edx
	leaq	.LC64(%rip), %rsi
	.loc 1 816 7 view .LVU1046
	movq	%rax, %r12
.LVL344:
	.loc 1 816 20 view .LVU1047
	call	dcgettext@PLT
.LVL345:
	.loc 1 816 7 view .LVU1048
	leaq	.LC9(%rip), %r8
	xorl	%esi, %esi
	xorl	%edi, %edi
	.loc 1 816 20 view .LVU1049
	movq	%rax, %rdx
	.loc 1 816 7 view .LVU1050
	movq	%r12, %rcx
	xorl	%eax, %eax
	call	error@PLT
.LVL346:
	jmp	.L190
.LVL347:
.L155:
.LBB401:
.LBB383:
.LBB351:
.LBB346:
.LBB342:
.LBB339:
	.loc 1 388 3 is_stmt 1 view .LVU1051
	.loc 1 388 6 is_stmt 0 view .LVU1052
	cmpb	$41, (%r9)
	jne	.L146
	movq	%r9, %r10
	xorl	%ebp, %ebp
.LVL348:
	.loc 1 388 6 view .LVU1053
	jmp	.L157
.LVL349:
.L408:
	.loc 1 388 6 view .LVU1054
.LBE339:
.LBE342:
.LBE346:
.LBE351:
.LBE383:
.LBE401:
	.loc 1 803 7 is_stmt 1 view .LVU1055
	movq	32(%rsp), %rdx
	movl	$3, %esi
	xorl	%edi, %edi
	call	quotearg_n_style_colon@PLT
.LVL350:
	.loc 1 803 20 is_stmt 0 view .LVU1056
	movl	$5, %edx
	leaq	.LC63(%rip), %rsi
	xorl	%edi, %edi
	.loc 1 803 7 view .LVU1057
	movq	%rax, %r12
.LVL351:
	.loc 1 803 20 view .LVU1058
	call	dcgettext@PLT
.LVL352:
	.loc 1 803 7 view .LVU1059
	movq	%r12, %rcx
	xorl	%esi, %esi
	xorl	%edi, %edi
	.loc 1 803 20 view .LVU1060
	movq	%rax, %rdx
	.loc 1 803 7 view .LVU1061
	xorl	%eax, %eax
	call	error@PLT
.LVL353:
	.loc 1 804 7 is_stmt 1 view .LVU1062
	.loc 1 804 14 is_stmt 0 view .LVU1063
	xorl	%eax, %eax
	jmp	.L130
.LVL354:
.L420:
	.loc 1 804 14 view .LVU1064
.LBE416:
.LBE429:
.LBB430:
.LBB322:
	.loc 1 1067 15 is_stmt 1 view .LVU1065
	.loc 1 1067 18 is_stmt 0 view .LVU1066
	cmpb	$0, 104(%rsp)
	je	.L225
	movq	stdout(%rip), %rdi
	movq	40(%rdi), %rax
	.loc 1 1069 19 is_stmt 1 view .LVU1067
	.loc 1 1070 21 view .LVU1068
.LVL355:
.LBB298:
.LBI298:
	.loc 2 108 1 view .LVU1069
.LBB299:
	.loc 2 110 3 view .LVU1070
	.loc 2 110 10 is_stmt 0 view .LVU1071
	cmpq	%rax, 48(%rdi)
	jbe	.L424
	leaq	1(%rax), %rdx
	movq	%rdx, 40(%rdi)
	movb	$92, (%rax)
.L205:
.LVL356:
	.loc 2 110 10 view .LVU1072
.LBE299:
.LBE298:
	.loc 1 1073 19 is_stmt 1 view .LVU1073
	movl	b2_algorithm(%rip), %eax
	leaq	algorithm_out_string(%rip), %rdi
	movq	stdout(%rip), %rsi
	.loc 1 1074 22 is_stmt 0 view .LVU1074
	movl	$1, %r12d
	.loc 1 1073 19 view .LVU1075
	movq	(%rdi,%rax,8), %rdi
	call	fputs_unlocked@PLT
.LVL357:
	.loc 1 1074 19 is_stmt 1 view .LVU1076
	.loc 1 1074 33 is_stmt 0 view .LVU1077
	movq	b2_length(%rip), %rdx
	.loc 1 1074 22 view .LVU1078
	cmpq	$511, %rdx
	ja	.L234
	.loc 1 1075 21 is_stmt 1 view .LVU1079
.LVL358:
.LBB301:
.LBI301:
	.loc 3 105 1 view .LVU1080
.LBB302:
	.loc 3 107 3 view .LVU1081
	.loc 3 107 10 is_stmt 0 view .LVU1082
	leaq	.LC72(%rip), %rsi
	movl	$1, %edi
	xorl	%eax, %eax
	call	__printf_chk@PLT
.LVL359:
	.loc 3 107 10 view .LVU1083
.LBE302:
.LBE301:
	.loc 1 1079 19 is_stmt 1 view .LVU1084
	movl	$2, %edx
	movq	stdout(%rip), %rcx
	movl	$1, %esi
	leaq	.LC73(%rip), %rdi
	call	fwrite_unlocked@PLT
.LVL360:
	.loc 1 1080 19 view .LVU1085
	movq	32(%rsp), %rdi
	movl	$1, %esi
	call	print_filename
.LVL361:
	.loc 1 1081 19 view .LVU1086
	movl	$4, %edx
	movq	stdout(%rip), %rcx
	movl	$1, %esi
	leaq	.LC74(%rip), %rdi
	call	fwrite_unlocked@PLT
.LVL362:
	.loc 1 1086 15 view .LVU1087
	.loc 1 1086 18 is_stmt 0 view .LVU1088
	cmpb	$0, 104(%rsp)
	jne	.L248
.L225:
	.loc 1 1087 17 is_stmt 1 view .LVU1089
.LVL363:
.LBB305:
.LBI305:
	.loc 2 108 1 view .LVU1090
.LBB306:
	.loc 2 110 3 view .LVU1091
	.loc 2 110 10 is_stmt 0 view .LVU1092
	movq	stdout(%rip), %rdi
	movq	40(%rdi), %rax
	cmpq	48(%rdi), %rax
	jnb	.L425
	leaq	1(%rax), %rdx
	movq	%rdx, 40(%rdi)
	movb	$92, (%rax)
.L208:
.LVL364:
	.loc 2 110 10 view .LVU1093
.LBE306:
.LBE305:
.LBB308:
	.loc 1 1089 34 is_stmt 1 view .LVU1094
	.loc 1 1089 15 is_stmt 0 view .LVU1095
	movq	digest_hex_bytes(%rip), %rax
	movl	$1, %r12d
	shrq	%rax
	jne	.L211
.LVL365:
.L232:
	.loc 1 1089 15 view .LVU1096
.LBE308:
	.loc 1 1094 19 is_stmt 1 view .LVU1097
.LBB309:
.LBI309:
	.loc 2 108 1 view .LVU1098
.LBB310:
	.loc 2 110 3 view .LVU1099
	.loc 2 110 10 is_stmt 0 view .LVU1100
	movq	stdout(%rip), %rdi
	movq	40(%rdi), %rax
	cmpq	48(%rdi), %rax
	jnb	.L426
	leaq	1(%rax), %rdx
	movq	%rdx, 40(%rdi)
	movb	$32, (%rax)
.L214:
.LVL366:
	.loc 2 110 10 view .LVU1101
.LBE310:
.LBE309:
	.loc 1 1096 19 is_stmt 1 view .LVU1102
.LBB312:
.LBI278:
	.loc 2 108 1 view .LVU1103
.LBB280:
	.loc 2 110 3 view .LVU1104
	.loc 2 110 10 is_stmt 0 view .LVU1105
	movq	stdout(%rip), %rdi
	movq	40(%rdi), %rax
	cmpq	48(%rdi), %rax
	jnb	.L427
	leaq	1(%rax), %rdx
	movq	%rdx, 40(%rdi)
	movzbl	107(%rsp), %edi
	movb	%dil, (%rax)
.L216:
.LVL367:
	.loc 2 110 10 view .LVU1106
.LBE280:
.LBE312:
	.loc 1 1098 19 is_stmt 1 view .LVU1107
	movq	32(%rsp), %rdi
	movl	%r12d, %esi
	call	print_filename
.LVL368:
	jmp	.L212
.LVL369:
.L167:
	.loc 1 1098 19 is_stmt 0 view .LVU1108
.LBE322:
.LBE430:
.LBB431:
.LBB417:
.LBB402:
.LBB384:
.LBB352:
	.loc 1 531 8 is_stmt 1 view .LVU1109
	.loc 1 531 11 is_stmt 0 view .LVU1110
	subl	$1, %ecx
	je	.L168
	.loc 1 533 7 is_stmt 1 view .LVU1111
	.loc 1 533 20 is_stmt 0 view .LVU1112
	movl	$0, bsd_reversed(%rip)
	.loc 1 534 7 is_stmt 1 view .LVU1113
	.loc 1 534 21 is_stmt 0 view .LVU1114
	leaq	2(%rbx), %rax
.LVL370:
	.loc 1 534 21 view .LVU1115
	jmp	.L168
.LVL371:
.L423:
	.loc 1 534 21 view .LVU1116
.LBE352:
.LBE384:
.LBB385:
.LBB376:
	.loc 1 786 23 view .LVU1117
	xorl	%esi, %esi
	movq	%r9, %rdi
	movb	%dl, 16(%rsp)
	.loc 1 786 23 is_stmt 1 view .LVU1118
	call	print_filename
.LVL372:
	.loc 1 789 19 view .LVU1119
	.loc 1 778 35 is_stmt 0 view .LVU1120
	movzbl	16(%rsp), %edx
	movb	%dl, 106(%rsp)
.LVL373:
.L185:
	.loc 1 791 24 is_stmt 1 view .LVU1121
	.loc 1 791 27 is_stmt 0 view .LVU1122
	cmpb	$0, quiet(%rip)
	jne	.L174
	.loc 1 792 21 is_stmt 1 view .LVU1123
	movl	$5, %edx
	leaq	.LC62(%rip), %rsi
	jmp	.L392
.LVL374:
.L122:
	.loc 1 792 21 is_stmt 0 view .LVU1124
.LBE376:
.LBE385:
.LBE402:
.LBE417:
.LBE431:
.LBE443:
.LBE451:
	.loc 1 1021 3 is_stmt 1 view .LVU1125
	.loc 1 1021 13 is_stmt 0 view .LVU1126
	cmpb	$1, quiet(%rip)
	jne	.L124
	.loc 1 1024 8 view .LVU1127
	movl	$5, %edx
	leaq	.LC53(%rip), %rsi
	.loc 1 1021 13 view .LVU1128
	testb	%r15b, %r15b
	jne	.L124
	jmp	.L395
.LVL375:
.L195:
.LBB452:
.LBB444:
.LBB432:
.LBB418:
	.loc 1 848 13 is_stmt 1 view .LVU1129
	movq	32(%rsp), %rdx
	xorl	%edi, %edi
	movl	$3, %esi
	call	quotearg_n_style_colon@PLT
.LVL376:
	.loc 1 848 26 is_stmt 0 view .LVU1130
	xorl	%edi, %edi
	movl	$5, %edx
	leaq	.LC71(%rip), %rsi
	.loc 1 848 13 view .LVU1131
	movq	%rax, %r12
.LVL377:
	.loc 1 848 26 view .LVU1132
	call	dcgettext@PLT
.LVL378:
	.loc 1 848 13 view .LVU1133
	movq	%r12, %rcx
	xorl	%esi, %esi
	xorl	%edi, %edi
	.loc 1 848 26 view .LVU1134
	movq	%rax, %rdx
	.loc 1 848 13 view .LVU1135
	xorl	%eax, %eax
	call	error@PLT
.LVL379:
	jmp	.L190
.LVL380:
.L417:
	.loc 1 848 13 view .LVU1136
.LBE418:
.LBE432:
.LBE444:
.LBE452:
	.loc 1 1106 26 discriminator 1 view .LVU1137
	movq	stdin(%rip), %rdi
	call	rpl_fclose@PLT
.LVL381:
	.loc 1 1106 23 discriminator 1 view .LVU1138
	addl	$1, %eax
	jne	.L219
.LBB453:
	.loc 1 1107 5 is_stmt 1 view .LVU1139
	movl	$5, %edx
	leaq	.LC56(%rip), %rsi
	xorl	%edi, %edi
	call	dcgettext@PLT
.LVL382:
	movq	%rax, %r12
	call	__errno_location@PLT
.LVL383:
	movq	%r12, %rdx
	movl	$1, %edi
	movl	(%rax), %esi
	xorl	%eax, %eax
	call	error@PLT
.LVL384:
.L419:
	.loc 1 1107 5 is_stmt 0 view .LVU1140
.LBE453:
.LBB454:
.LBB445:
.LBB433:
.LBB323:
	.loc 1 1064 59 view .LVU1141
	movq	32(%rsp), %rdi
	movl	$10, %esi
	call	strchr@PLT
.LVL385:
	.loc 1 1064 56 view .LVU1142
	testq	%rax, %rax
	jne	.L201
	jmp	.L202
.LVL386:
.L413:
	.loc 1 1064 56 view .LVU1143
.LBE323:
.LBE433:
.LBB434:
.LBB419:
	.loc 1 840 13 is_stmt 1 view .LVU1144
.LBB403:
.LBI403:
	.loc 4 183 1 view .LVU1145
.LBB404:
	.loc 4 187 3 view .LVU1146
	.loc 4 188 3 view .LVU1147
	.loc 4 188 3 is_stmt 0 view .LVU1148
.LBE404:
.LBE403:
	.loc 1 841 21 view .LVU1149
	movq	96(%rsp), %r14
	xorl	%edi, %edi
	movl	$5, %r8d
	leaq	.LC69(%rip), %rdx
	leaq	.LC70(%rip), %rsi
	movq	%r14, %rcx
	call	dcngettext@PLT
.LVL387:
	.loc 1 840 13 view .LVU1150
	movq	%r14, %rcx
	xorl	%esi, %esi
	xorl	%edi, %edi
	.loc 1 841 21 view .LVU1151
	movq	%rax, %rdx
	.loc 1 840 13 view .LVU1152
	xorl	%eax, %eax
	call	error@PLT
.LVL388:
	jmp	.L194
.L412:
	.loc 1 832 13 is_stmt 1 view .LVU1153
.LVL389:
.LBB405:
.LBI405:
	.loc 4 183 1 view .LVU1154
.LBB406:
	.loc 4 187 3 view .LVU1155
	.loc 4 188 3 view .LVU1156
	.loc 4 188 3 is_stmt 0 view .LVU1157
.LBE406:
.LBE405:
	.loc 1 833 21 view .LVU1158
	movq	80(%rsp), %r14
	xorl	%edi, %edi
	movl	$5, %r8d
	leaq	.LC67(%rip), %rdx
	leaq	.LC68(%rip), %rsi
	movq	%r14, %rcx
	call	dcngettext@PLT
.LVL390:
	.loc 1 832 13 view .LVU1159
	movq	%r14, %rcx
	xorl	%esi, %esi
	xorl	%edi, %edi
	.loc 1 833 21 view .LVU1160
	movq	%rax, %rdx
	.loc 1 832 13 view .LVU1161
	xorl	%eax, %eax
	call	error@PLT
.LVL391:
	jmp	.L193
.L411:
	.loc 1 824 13 is_stmt 1 view .LVU1162
.LVL392:
.LBB407:
.LBI407:
	.loc 4 183 1 view .LVU1163
.LBB408:
	.loc 4 187 3 view .LVU1164
	.loc 4 188 3 view .LVU1165
	.loc 4 188 3 is_stmt 0 view .LVU1166
.LBE408:
.LBE407:
	.loc 1 825 21 view .LVU1167
	movq	56(%rsp), %r14
	xorl	%edi, %edi
	movl	$5, %r8d
	leaq	.LC65(%rip), %rdx
	leaq	.LC66(%rip), %rsi
	movq	%r14, %rcx
	call	dcngettext@PLT
.LVL393:
	.loc 1 824 13 view .LVU1168
	movq	%r14, %rcx
	xorl	%esi, %esi
	xorl	%edi, %edi
	.loc 1 825 21 view .LVU1169
	movq	%rax, %rdx
	.loc 1 824 13 view .LVU1170
	xorl	%eax, %eax
	call	error@PLT
.LVL394:
	jmp	.L192
.LVL395:
.L421:
	.loc 1 824 13 view .LVU1171
.LBE419:
.LBE434:
.LBB435:
.LBB324:
	.loc 1 1073 19 is_stmt 1 view .LVU1172
	movl	b2_algorithm(%rip), %eax
	leaq	algorithm_out_string(%rip), %rdi
	movq	stdout(%rip), %rsi
	movq	(%rdi,%rax,8), %rdi
	call	fputs_unlocked@PLT
.LVL396:
	.loc 1 1074 19 view .LVU1173
	.loc 1 1074 33 is_stmt 0 view .LVU1174
	movq	b2_length(%rip), %rdx
	.loc 1 1074 22 view .LVU1175
	cmpq	$511, %rdx
	jbe	.L237
	.loc 1 1065 35 view .LVU1176
	xorl	%r12d, %r12d
.LVL397:
.L234:
	.loc 1 1079 19 is_stmt 1 view .LVU1177
	movq	stdout(%rip), %rcx
	movl	$2, %edx
	movl	$1, %esi
	leaq	.LC73(%rip), %rdi
	call	fwrite_unlocked@PLT
.LVL398:
	.loc 1 1080 19 view .LVU1178
	movq	32(%rsp), %rdi
	movl	%r12d, %esi
	call	print_filename
.LVL399:
	.loc 1 1081 19 view .LVU1179
	movl	$4, %edx
	movq	stdout(%rip), %rcx
	movl	$1, %esi
	leaq	.LC74(%rip), %rdi
	call	fwrite_unlocked@PLT
.LVL400:
	.loc 1 1086 15 view .LVU1180
.L206:
.LBB313:
	.loc 1 1089 34 discriminator 1 view .LVU1181
	.loc 1 1089 15 is_stmt 0 discriminator 1 view .LVU1182
	movq	digest_hex_bytes(%rip), %rax
	shrq	%rax
	jne	.L211
	jmp	.L210
.LVL401:
.L406:
	.loc 1 1089 15 discriminator 1 view .LVU1183
.LBE313:
.LBE324:
.LBE435:
.LBB436:
.LBB420:
.LBB409:
.LBB386:
.LBB353:
	.loc 1 542 12 view .LVU1184
	movq	%rbp, %rsi
	movq	%r9, %rdi
	movq	%r11, 40(%rsp)
	.loc 1 542 5 is_stmt 1 view .LVU1185
	.loc 1 542 12 is_stmt 0 view .LVU1186
	subq	%rax, %rsi
	movq	%r9, 16(%rsp)
.LVL402:
	.loc 1 542 12 view .LVU1187
	call	filename_unescape
.LVL403:
	.loc 1 542 49 view .LVU1188
	movq	40(%rsp), %r11
.LVL404:
	.loc 1 542 49 view .LVU1189
	movq	16(%rsp), %r9
	testq	%rax, %rax
	setne	%al
	jmp	.L163
.LVL405:
.L158:
.LBB347:
.LBB343:
.LBB340:
	.loc 1 393 27 view .LVU1190
	movq	%r9, %rdi
	movq	%rbp, %rsi
	movq	%r9, 16(%rsp)
.LVL406:
	.loc 1 393 27 view .LVU1191
	call	filename_unescape
.LVL407:
	.loc 1 393 24 view .LVU1192
	movq	16(%rsp), %r9
	testq	%rax, %rax
	jne	.L161
	.loc 1 393 24 view .LVU1193
	jmp	.L146
.LVL408:
.L407:
	.loc 1 393 24 view .LVU1194
.LBE340:
.LBE343:
.LBE347:
.LBE353:
.LBE386:
.LBB387:
.LBB377:
.LBB359:
	.loc 2 110 10 view .LVU1195
	movl	$92, %esi
	call	__overflow@PLT
.LVL409:
	.loc 2 110 10 view .LVU1196
	movq	16(%rsp), %r9
	jmp	.L175
.LVL410:
.L241:
	.loc 2 110 10 view .LVU1197
.LBE359:
.LBE377:
.LBE387:
.LBE409:
.LBE420:
.LBE436:
.LBE445:
.LBE454:
	.loc 1 868 8 view .LVU1198
	movb	$1, 105(%rsp)
	jmp	.L126
.LVL411:
.L422:
.LBB455:
.LBB446:
.LBB437:
.LBB325:
	.loc 1 1101 15 view .LVU1199
	movzbl	%dl, %esi
.LBB314:
.LBB296:
	.loc 2 110 10 view .LVU1200
	call	__overflow@PLT
.LVL412:
	.loc 2 110 10 view .LVU1201
	jmp	.L199
.LVL413:
.L415:
	.loc 2 110 10 view .LVU1202
.LBE296:
.LBE314:
.LBE325:
.LBE437:
.LBB438:
.LBB421:
.LBB410:
.LBB388:
.LBB378:
.LBB373:
.LBB372:
	movl	$92, %esi
	movq	%r9, 40(%rsp)
	movq	%rcx, 16(%rsp)
	call	__overflow@PLT
.LVL414:
	.loc 2 110 10 view .LVU1203
	movq	16(%rsp), %rcx
	movq	40(%rsp), %r9
	jmp	.L183
.LVL415:
.L425:
	.loc 2 110 10 view .LVU1204
.LBE372:
.LBE373:
.LBE378:
.LBE388:
.LBE410:
.LBE421:
.LBE438:
.LBB439:
.LBB326:
.LBB315:
.LBB307:
	movl	$92, %esi
	call	__overflow@PLT
.LVL416:
	jmp	.L208
.LVL417:
.L427:
	.loc 2 110 10 view .LVU1205
.LBE307:
.LBE315:
.LBB316:
.LBB281:
	movl	108(%rsp), %esi
	call	__overflow@PLT
.LVL418:
	jmp	.L216
.LVL419:
.L426:
	.loc 2 110 10 view .LVU1206
.LBE281:
.LBE316:
.LBB317:
.LBB311:
	movl	$32, %esi
	call	__overflow@PLT
.LVL420:
	jmp	.L214
.LVL421:
.L424:
	.loc 2 110 10 view .LVU1207
.LBE311:
.LBE317:
.LBB318:
.LBB300:
	movl	$92, %esi
	call	__overflow@PLT
.LVL422:
	jmp	.L205
.LVL423:
.L237:
	.loc 2 110 10 view .LVU1208
.LBE300:
.LBE318:
	.loc 1 1075 21 is_stmt 1 view .LVU1209
.LBB319:
	.loc 3 105 1 view .LVU1210
.LBB303:
	.loc 3 107 3 view .LVU1211
	.loc 3 107 10 is_stmt 0 view .LVU1212
	leaq	.LC72(%rip), %rsi
	movl	$1, %edi
	xorl	%eax, %eax
.LBE303:
.LBE319:
	.loc 1 1065 35 view .LVU1213
	xorl	%r12d, %r12d
.LBB320:
.LBB304:
	.loc 3 107 10 view .LVU1214
	call	__printf_chk@PLT
.LVL424:
	.loc 3 107 10 view .LVU1215
.LBE304:
.LBE320:
	.loc 1 1079 19 is_stmt 1 view .LVU1216
	movl	$2, %edx
	movq	stdout(%rip), %rcx
	movl	$1, %esi
	leaq	.LC73(%rip), %rdi
	call	fwrite_unlocked@PLT
.LVL425:
	.loc 1 1080 19 view .LVU1217
	movq	32(%rsp), %rdi
	xorl	%esi, %esi
	call	print_filename
.LVL426:
	.loc 1 1081 19 view .LVU1218
	movl	$4, %edx
	movq	stdout(%rip), %rcx
	movl	$1, %esi
	leaq	.LC74(%rip), %rdi
	call	fwrite_unlocked@PLT
.LVL427:
	.loc 1 1086 15 view .LVU1219
	jmp	.L206
.LVL428:
.L248:
	.loc 1 1086 15 is_stmt 0 view .LVU1220
	movl	$1, %r12d
	jmp	.L206
.LVL429:
.L418:
	.loc 1 1086 15 view .LVU1221
.LBE326:
.LBE439:
.LBE446:
.LBE455:
	.loc 1 1110 1 view .LVU1222
	call	__stack_chk_fail@PLT
.LVL430:
.L118:
	.loc 1 1007 3 is_stmt 1 view .LVU1223
	.loc 1 1007 6 is_stmt 0 view .LVU1224
	cmpb	$0, status_only(%rip)
	je	.L120
	.loc 1 1007 19 discriminator 1 view .LVU1225
	testb	%r15b, %r15b
	jne	.L377
.L238:
	.loc 1 1009 7 is_stmt 1 view .LVU1226
	.loc 1 1010 8 is_stmt 0 view .LVU1227
	movl	$5, %edx
	leaq	.LC51(%rip), %rsi
	jmp	.L395
.L235:
	.loc 1 1001 7 is_stmt 1 view .LVU1228
	.loc 1 1002 14 is_stmt 0 view .LVU1229
	movl	$5, %edx
	leaq	.LC50(%rip), %rsi
	jmp	.L395
.L401:
	.loc 1 974 6 is_stmt 1 view .LVU1230
	.loc 1 974 19 is_stmt 0 view .LVU1231
	movl	$5, %edx
	leaq	.LC46(%rip), %rsi
	jmp	.L395
.L400:
.LBB456:
	.loc 1 954 7 is_stmt 1 view .LVU1232
	movq	%r14, %rdi
	call	quote@PLT
.LVL431:
	.loc 1 954 20 is_stmt 0 view .LVU1233
	movl	$5, %edx
	leaq	.LC40(%rip), %rsi
	xorl	%edi, %edi
	.loc 1 954 7 view .LVU1234
	movq	%rax, %r12
.LVL432:
	.loc 1 954 20 view .LVU1235
	call	dcgettext@PLT
.LVL433:
	.loc 1 954 7 view .LVU1236
	movq	%r12, %rcx
	xorl	%esi, %esi
	xorl	%edi, %edi
	.loc 1 954 20 view .LVU1237
	movq	%rax, %rdx
	.loc 1 954 7 view .LVU1238
	xorl	%eax, %eax
	call	error@PLT
.LVL434:
	.loc 1 955 7 is_stmt 1 view .LVU1239
	movl	b2_algorithm(%rip), %edx
	leaq	algorithm_in_string(%rip), %rax
	movq	(%rax,%rdx,8), %rdi
	call	quote@PLT
.LVL435:
	movl	$5, %edx
	leaq	.LC45(%rip), %rsi
	xorl	%edi, %edi
	movq	%rax, %r12
	call	dcgettext@PLT
.LVL436:
	movl	$512, %r8d
	movq	%r12, %rcx
	xorl	%esi, %esi
	movq	%rax, %rdx
	movl	$1, %edi
	xorl	%eax, %eax
	call	error@PLT
.LVL437:
.LBE456:
	.cfi_endproc
.LFE147:
	.size	main, .-main
	.section	.rodata
	.align 16
	.type	bin2hex.7351, @object
	.size	bin2hex.7351, 16
bin2hex.7351:
	.ascii	"0123456789abcdef"
	.section	.rodata.str1.1
.LC76:
	.string	"length"
.LC77:
	.string	"binary"
.LC78:
	.string	"check"
.LC79:
	.string	"ignore-missing"
.LC80:
	.string	"quiet"
.LC81:
	.string	"status"
.LC82:
	.string	"text"
.LC83:
	.string	"warn"
.LC84:
	.string	"strict"
.LC85:
	.string	"tag"
.LC86:
	.string	"zero"
.LC87:
	.string	"help"
.LC88:
	.string	"version"
	.section	.data.rel.ro.local,"aw"
	.align 32
	.type	long_options, @object
	.size	long_options, 448
long_options:
	.quad	.LC76
	.long	1
	.zero	4
	.quad	0
	.long	108
	.zero	4
	.quad	.LC77
	.long	0
	.zero	4
	.quad	0
	.long	98
	.zero	4
	.quad	.LC78
	.long	0
	.zero	4
	.quad	0
	.long	99
	.zero	4
	.quad	.LC79
	.long	0
	.zero	4
	.quad	0
	.long	128
	.zero	4
	.quad	.LC80
	.long	0
	.zero	4
	.quad	0
	.long	130
	.zero	4
	.quad	.LC81
	.long	0
	.zero	4
	.quad	0
	.long	129
	.zero	4
	.quad	.LC82
	.long	0
	.zero	4
	.quad	0
	.long	116
	.zero	4
	.quad	.LC83
	.long	0
	.zero	4
	.quad	0
	.long	119
	.zero	4
	.quad	.LC84
	.long	0
	.zero	4
	.quad	0
	.long	131
	.zero	4
	.quad	.LC85
	.long	0
	.zero	4
	.quad	0
	.long	132
	.zero	4
	.quad	.LC86
	.long	0
	.zero	4
	.quad	0
	.long	122
	.zero	4
	.quad	.LC87
	.long	0
	.zero	4
	.quad	0
	.long	-130
	.zero	4
	.quad	.LC88
	.long	0
	.zero	4
	.quad	0
	.long	-131
	.zero	4
	.quad	0
	.long	0
	.zero	4
	.quad	0
	.long	0
	.zero	4
	.local	b2_length
	.comm	b2_length,8,8
	.local	b2_algorithm
	.comm	b2_algorithm,4,4
	.section	.rodata.str1.1
.LC89:
	.string	"BLAKE2b"
	.section	.data.rel.ro.local
	.align 16
	.type	algorithm_out_string, @object
	.size	algorithm_out_string, 16
algorithm_out_string:
	.quad	.LC89
	.quad	0
	.section	.rodata.str1.1
.LC90:
	.string	"blake2b"
	.section	.data.rel.ro.local
	.align 16
	.type	algorithm_in_string, @object
	.size	algorithm_in_string, 16
algorithm_in_string:
	.quad	.LC90
	.quad	0
	.data
	.type	delim, @object
	.size	delim, 1
delim:
	.byte	10
	.align 4
	.type	bsd_reversed, @object
	.size	bsd_reversed, 4
bsd_reversed:
	.long	-1
	.local	strict
	.comm	strict,1,1
	.local	quiet
	.comm	quiet,1,1
	.local	ignore_missing
	.comm	ignore_missing,1,1
	.local	warn
	.comm	warn,1,1
	.local	status_only
	.comm	status_only,1,1
	.local	digest_hex_bytes
	.comm	digest_hex_bytes,8,8
	.local	min_digest_line_length
	.comm	min_digest_line_length,8,8
	.local	have_read_stdin
	.comm	have_read_stdin,1,1
	.text
.Letext0:
	.file 5 "/usr/include/x86_64-linux-gnu/bits/getopt_core.h"
	.file 6 "/usr/include/x86_64-linux-gnu/bits/getopt_ext.h"
	.file 7 "/usr/include/x86_64-linux-gnu/bits/types.h"
	.file 8 "/usr/include/x86_64-linux-gnu/sys/types.h"
	.file 9 "/usr/include/x86_64-linux-gnu/bits/types/time_t.h"
	.file 10 "/usr/lib/gcc/x86_64-linux-gnu/9/include/stddef.h"
	.file 11 "./lib/sys/select.h"
	.file 12 "/usr/include/time.h"
	.file 13 "/usr/include/signal.h"
	.file 14 "/usr/include/unistd.h"
	.file 15 "/usr/include/errno.h"
	.file 16 "src/version.h"
	.file 17 "./lib/exitfail.h"
	.file 18 "/usr/include/stdint.h"
	.file 19 "./lib/timespec.h"
	.file 20 "/usr/include/ctype.h"
	.file 21 "/usr/include/x86_64-linux-gnu/bits/types/struct_FILE.h"
	.file 22 "/usr/include/x86_64-linux-gnu/bits/types/FILE.h"
	.file 23 "/usr/include/stdio.h"
	.file 24 "/usr/include/x86_64-linux-gnu/bits/sys_errlist.h"
	.file 25 "./lib/version-etc.h"
	.file 26 "./lib/progname.h"
	.file 27 "./lib/quotearg.h"
	.file 28 "./lib/quote.h"
	.file 29 "./lib/argmatch.h"
	.file 30 "./lib/xstrtol.h"
	.file 31 "src/blake2/b2sum.h"
	.file 32 "./lib/error.h"
	.file 33 "./lib/fadvise.h"
	.file 34 "/usr/include/libintl.h"
	.file 35 "/usr/include/string.h"
	.file 36 "/usr/include/stdlib.h"
	.file 37 "./lib/stdio-safer.h"
	.file 38 "./lib/stdio.h"
	.file 39 "/usr/include/locale.h"
	.file 40 "./lib/xdectoint.h"
	.file 41 "<built-in>"
	.section	.note.GNU-stack,"",@progbits
	.section	.note.gnu.property,"a"
	.align 8
	.long	 1f - 0f
	.long	 4f - 1f
	.long	 5
0:
	.string	 "GNU"
1:
	.align 8
	.long	 0xc0000002
	.long	 3f - 2f
2:
	.long	 0x3
3:
	.align 8
4:
