	.file	"basenc.c"
	.text
.Ltext0:
	.section	.rodata.str1.1,"aMS",@progbits,1
.LC0:
	.string	"base32"
.LC1:
	.string	" invocation"
.LC2:
	.string	""
	.section	.rodata.str1.8,"aMS",@progbits,1
	.align 8
.LC3:
	.string	"Try '%s --help' for more information.\n"
	.section	.rodata.str1.1
.LC4:
	.string	"Usage: %s [OPTION]... [FILE]\n"
	.section	.rodata.str1.8
	.align 8
.LC5:
	.string	"Base%d encode or decode FILE, or standard input, to standard output.\n"
	.align 8
.LC6:
	.string	"\nWith no FILE, or when FILE is -, read standard input.\n"
	.align 8
.LC7:
	.string	"\nMandatory arguments to long options are mandatory for short options too.\n"
	.align 8
.LC8:
	.string	"  -d, --decode          decode data\n  -i, --ignore-garbage  when decoding, ignore non-alphabet characters\n  -w, --wrap=COLS       wrap encoded lines after COLS character (default 76).\n                          Use 0 to disable line wrapping\n"
	.align 8
.LC9:
	.string	"      --help     display this help and exit\n"
	.align 8
.LC10:
	.string	"      --version  output version information and exit\n"
	.align 8
.LC11:
	.ascii	"\nThe data a"
	.string	"re encoded as described for the %s alphabet in RFC 4648.\nWhen decoding, the input may contain newlines in addition to the bytes of\nthe formal %s alphabet.  Use --ignore-garbage to attempt to recover\nfrom any other non-alphabet bytes in the encoded stream.\n"
	.section	.rodata.str1.1
.LC12:
	.string	"["
.LC13:
	.string	"test invocation"
.LC14:
	.string	"coreutils"
.LC15:
	.string	"Multi-call invocation"
.LC16:
	.string	"sha224sum"
.LC17:
	.string	"sha2 utilities"
.LC18:
	.string	"sha256sum"
.LC19:
	.string	"sha384sum"
.LC20:
	.string	"sha512sum"
.LC21:
	.string	"\n%s online help: <%s>\n"
	.section	.rodata.str1.8
	.align 8
.LC22:
	.string	"https://www.gnu.org/software/coreutils/"
	.section	.rodata.str1.1
.LC23:
	.string	"GNU coreutils"
.LC24:
	.string	"en_"
	.section	.rodata.str1.8
	.align 8
.LC25:
	.string	"Report any translation bugs to <https://translationproject.org/team/>\n"
	.section	.rodata.str1.1
.LC26:
	.string	"Full documentation <%s%s>\n"
	.section	.rodata.str1.8
	.align 8
.LC27:
	.string	"or available locally via: info '(coreutils) %s%s'\n"
	.text
	.p2align 4
	.globl	usage
	.type	usage, @function
usage:
.LVL0:
.LFB154:
	.file 1 "src/basenc.c"
	.loc 1 96 1 view -0
	.cfi_startproc
	.loc 1 96 1 is_stmt 0 view .LVU1
	endbr64
	pushq	%r13
	.cfi_def_cfa_offset 16
	.cfi_offset 13, -16
	.loc 1 98 5 view .LVU2
	movl	$5, %edx
	.loc 1 96 1 view .LVU3
	pushq	%r12
	.cfi_def_cfa_offset 24
	.cfi_offset 12, -24
	pushq	%rbp
	.cfi_def_cfa_offset 32
	.cfi_offset 6, -32
	movl	%edi, %ebp
	pushq	%rbx
	.cfi_def_cfa_offset 40
	.cfi_offset 3, -40
	subq	$136, %rsp
	.cfi_def_cfa_offset 176
	movq	program_name(%rip), %r12
	.loc 1 96 1 view .LVU4
	movq	%fs:40, %rax
	movq	%rax, 120(%rsp)
	xorl	%eax, %eax
	.loc 1 97 3 is_stmt 1 view .LVU5
	.loc 1 97 6 is_stmt 0 view .LVU6
	testl	%edi, %edi
	je	.L2
	.loc 1 98 5 is_stmt 1 view .LVU7
	.loc 1 98 5 view .LVU8
	leaq	.LC3(%rip), %rsi
	xorl	%edi, %edi
.LVL1:
	.loc 1 98 5 is_stmt 0 view .LVU9
	call	dcgettext@PLT
.LVL2:
.LBB114:
.LBB115:
	.file 2 "/usr/include/x86_64-linux-gnu/bits/stdio2.h"
	.loc 2 100 10 view .LVU10
	movq	stderr(%rip), %rdi
	movq	%r12, %rcx
	movl	$1, %esi
.LBE115:
.LBE114:
	.loc 1 98 5 view .LVU11
	movq	%rax, %rdx
.LVL3:
.LBB117:
.LBI114:
	.loc 2 98 1 is_stmt 1 view .LVU12
.LBB116:
	.loc 2 100 3 view .LVU13
	.loc 2 100 10 is_stmt 0 view .LVU14
	xorl	%eax, %eax
.LVL4:
	.loc 2 100 10 view .LVU15
	call	__fprintf_chk@PLT
.LVL5:
.L3:
	.loc 2 100 10 view .LVU16
.LBE116:
.LBE117:
	.loc 1 174 3 is_stmt 1 view .LVU17
	movl	%ebp, %edi
	call	exit@PLT
.LVL6:
.L2:
	.loc 1 101 7 view .LVU18
	.loc 1 101 15 is_stmt 0 view .LVU19
	leaq	.LC4(%rip), %rsi
	xorl	%edi, %edi
.LVL7:
.LBB118:
.LBB119:
	.file 3 "src/system.h"
	.loc 3 636 67 view .LVU20
	leaq	.LC18(%rip), %rbx
.LBE119:
.LBE118:
	.loc 1 101 15 view .LVU21
	call	dcgettext@PLT
.LVL8:
.LBB145:
.LBB146:
	.loc 2 107 10 view .LVU22
	movq	%r12, %rdx
	movl	$1, %edi
.LBE146:
.LBE145:
	.loc 1 101 15 view .LVU23
	movq	%rax, %rsi
.LVL9:
.LBB148:
.LBI145:
	.loc 2 105 1 is_stmt 1 view .LVU24
.LBB147:
	.loc 2 107 3 view .LVU25
	.loc 2 107 10 is_stmt 0 view .LVU26
	xorl	%eax, %eax
.LVL10:
	.loc 2 107 10 view .LVU27
	call	__printf_chk@PLT
.LVL11:
	.loc 2 107 10 view .LVU28
.LBE147:
.LBE148:
	.loc 1 110 7 is_stmt 1 view .LVU29
	.loc 1 110 15 is_stmt 0 view .LVU30
	movl	$5, %edx
	leaq	.LC5(%rip), %rsi
	xorl	%edi, %edi
	call	dcgettext@PLT
.LVL12:
.LBB149:
.LBB150:
	.loc 2 107 10 view .LVU31
	movl	$32, %edx
	movl	$1, %edi
.LBE150:
.LBE149:
	.loc 1 110 15 view .LVU32
	movq	%rax, %rsi
.LVL13:
.LBB152:
.LBI149:
	.loc 2 105 1 is_stmt 1 view .LVU33
.LBB151:
	.loc 2 107 3 view .LVU34
	.loc 2 107 10 is_stmt 0 view .LVU35
	xorl	%eax, %eax
.LVL14:
	.loc 2 107 10 view .LVU36
	call	__printf_chk@PLT
.LVL15:
	.loc 2 107 10 view .LVU37
.LBE151:
.LBE152:
	.loc 1 115 7 is_stmt 1 view .LVU38
.LBB153:
.LBI153:
	.loc 3 581 1 view .LVU39
.LBB154:
	.loc 3 583 3 view .LVU40
	movq	stdout(%rip), %r12
	movl	$5, %edx
	xorl	%edi, %edi
	leaq	.LC6(%rip), %rsi
	call	dcgettext@PLT
.LVL16:
	movq	%r12, %rsi
	movq	%rax, %rdi
	call	fputs_unlocked@PLT
.LVL17:
.LBE154:
.LBE153:
	.loc 1 116 7 view .LVU41
.LBB155:
.LBI155:
	.loc 3 588 1 view .LVU42
.LBB156:
	.loc 3 590 3 view .LVU43
	movq	stdout(%rip), %r12
	movl	$5, %edx
	xorl	%edi, %edi
	leaq	.LC7(%rip), %rsi
	call	dcgettext@PLT
.LVL18:
	movq	%r12, %rsi
	movq	%rax, %rdi
	call	fputs_unlocked@PLT
.LVL19:
.LBE156:
.LBE155:
	.loc 1 140 7 view .LVU44
	movq	stdout(%rip), %r12
	movl	$5, %edx
	xorl	%edi, %edi
	leaq	.LC8(%rip), %rsi
	call	dcgettext@PLT
.LVL20:
	movq	%r12, %rsi
	movq	%rax, %rdi
	call	fputs_unlocked@PLT
.LVL21:
	.loc 1 153 7 view .LVU45
	movq	stdout(%rip), %r12
	movl	$5, %edx
	xorl	%edi, %edi
	leaq	.LC9(%rip), %rsi
	call	dcgettext@PLT
.LVL22:
	movq	%r12, %rsi
	movq	%rax, %rdi
	call	fputs_unlocked@PLT
.LVL23:
	.loc 1 154 7 view .LVU46
	movl	$5, %edx
	movq	stdout(%rip), %r12
	xorl	%edi, %edi
	leaq	.LC10(%rip), %rsi
	call	dcgettext@PLT
.LVL24:
	movq	%r12, %rsi
	movq	%rax, %rdi
	call	fputs_unlocked@PLT
.LVL25:
	.loc 1 163 7 view .LVU47
	.loc 1 163 15 is_stmt 0 view .LVU48
	movl	$5, %edx
	leaq	.LC11(%rip), %rsi
	xorl	%edi, %edi
	call	dcgettext@PLT
.LVL26:
.LBB157:
.LBB158:
	.loc 2 107 10 view .LVU49
	leaq	.LC0(%rip), %rcx
	movl	$1, %edi
.LBE158:
.LBE157:
	.loc 1 163 15 view .LVU50
	movq	%rax, %rsi
.LVL27:
.LBB160:
.LBI157:
	.loc 2 105 1 is_stmt 1 view .LVU51
.LBB159:
	.loc 2 107 3 view .LVU52
	.loc 2 107 10 is_stmt 0 view .LVU53
	movq	%rcx, %rdx
	xorl	%eax, %eax
.LVL28:
	.loc 2 107 10 view .LVU54
	call	__printf_chk@PLT
.LVL29:
	.loc 2 107 10 view .LVU55
.LBE159:
.LBE160:
	.loc 1 171 7 is_stmt 1 view .LVU56
.LBB161:
.LBI118:
	.loc 3 634 1 view .LVU57
.LBB144:
	.loc 3 636 3 view .LVU58
	.loc 3 636 67 is_stmt 0 view .LVU59
	leaq	.LC12(%rip), %rax
	movq	%rbx, 48(%rsp)
	leaq	.LC19(%rip), %rbx
	movq	%rax, (%rsp)
	leaq	.LC13(%rip), %rax
	movq	%rax, 8(%rsp)
	leaq	.LC14(%rip), %rax
	movq	%rax, 16(%rsp)
	leaq	.LC15(%rip), %rax
	movq	%rax, 24(%rsp)
	leaq	.LC16(%rip), %rax
	movq	$0, 96(%rsp)
	movq	$0, 104(%rsp)
	.loc 3 646 3 is_stmt 1 view .LVU60
.LVL30:
	.loc 3 647 3 view .LVU61
	.loc 3 649 3 view .LVU62
	.loc 3 649 9 view .LVU63
	.loc 3 636 67 is_stmt 0 view .LVU64
	movq	%rax, 32(%rsp)
	leaq	.LC17(%rip), %rax
	movq	%rbx, 64(%rsp)
	leaq	.LC20(%rip), %rbx
	movq	%rax, 40(%rsp)
	movq	%rax, 56(%rsp)
	movq	%rax, 72(%rsp)
	movq	%rbx, 80(%rsp)
	leaq	.LC0(%rip), %rbx
	movq	%rax, 88(%rsp)
	.loc 3 647 25 view .LVU65
	movq	%rsp, %rax
.LVL31:
	.p2align 4,,10
	.p2align 3
.L5:
	.loc 3 650 5 is_stmt 1 view .LVU66
	.loc 3 649 18 is_stmt 0 view .LVU67
	movq	16(%rax), %rdi
	.loc 3 650 13 view .LVU68
	addq	$16, %rax
.LVL32:
	.loc 3 649 9 is_stmt 1 view .LVU69
	testq	%rdi, %rdi
	je	.L4
	.loc 3 649 33 is_stmt 0 view .LVU70
	movl	$7, %ecx
	movq	%rbx, %rsi
	repz cmpsb
	seta	%dl
	sbbb	$0, %dl
	.loc 3 649 28 view .LVU71
	testb	%dl, %dl
	jne	.L5
.L4:
	.loc 3 652 3 is_stmt 1 view .LVU72
	.loc 3 652 15 is_stmt 0 view .LVU73
	movq	8(%rax), %r12
	.loc 3 655 11 view .LVU74
	movl	$5, %edx
	leaq	.LC21(%rip), %rsi
	xorl	%edi, %edi
	.loc 3 652 6 view .LVU75
	testq	%r12, %r12
	je	.L6
	.loc 3 653 5 is_stmt 1 view .LVU76
.LVL33:
	.loc 3 655 3 view .LVU77
	.loc 3 655 11 is_stmt 0 view .LVU78
	call	dcgettext@PLT
.LVL34:
.LBB120:
.LBB121:
	.loc 2 107 10 view .LVU79
	leaq	.LC22(%rip), %rcx
	movl	$1, %edi
	leaq	.LC23(%rip), %rdx
.LBE121:
.LBE120:
	.loc 3 655 11 view .LVU80
	movq	%rax, %rsi
.LVL35:
.LBB125:
.LBI120:
	.loc 2 105 1 is_stmt 1 view .LVU81
.LBB122:
	.loc 2 107 3 view .LVU82
	.loc 2 107 10 is_stmt 0 view .LVU83
	xorl	%eax, %eax
.LVL36:
	.loc 2 107 10 view .LVU84
	call	__printf_chk@PLT
.LVL37:
	.loc 2 107 10 view .LVU85
.LBE122:
.LBE125:
	.loc 3 659 3 is_stmt 1 view .LVU86
	.loc 3 659 29 is_stmt 0 view .LVU87
	movl	$5, %edi
	xorl	%esi, %esi
	call	setlocale@PLT
.LVL38:
	movq	%rax, %rdi
.LVL39:
	.loc 3 660 3 is_stmt 1 view .LVU88
	.loc 3 660 6 is_stmt 0 view .LVU89
	testq	%rax, %rax
	je	.L7
	.loc 3 660 22 view .LVU90
	movl	$3, %edx
	leaq	.LC24(%rip), %rsi
	call	strncmp@PLT
.LVL40:
	.loc 3 660 19 view .LVU91
	testl	%eax, %eax
	jne	.L10
.LVL41:
.L7:
	.loc 3 669 3 is_stmt 1 view .LVU92
	.loc 3 669 11 is_stmt 0 view .LVU93
	xorl	%edi, %edi
	movl	$5, %edx
	leaq	.LC26(%rip), %rsi
	call	dcgettext@PLT
.LVL42:
.LBB126:
.LBB127:
	.loc 2 107 10 view .LVU94
	leaq	.LC0(%rip), %rcx
	leaq	.LC22(%rip), %rdx
	movl	$1, %edi
.LBE127:
.LBE126:
	.loc 3 669 11 view .LVU95
	movq	%rax, %rsi
.LVL43:
.LBB133:
.LBI126:
	.loc 2 105 1 is_stmt 1 view .LVU96
.LBB128:
	.loc 2 107 3 view .LVU97
	.loc 2 107 10 is_stmt 0 view .LVU98
	xorl	%eax, %eax
.LVL44:
	.loc 2 107 10 view .LVU99
.LBE128:
.LBE133:
	.loc 3 671 3 view .LVU100
	leaq	.LC1(%rip), %r13
.LBB134:
.LBB129:
	.loc 2 107 10 view .LVU101
	call	__printf_chk@PLT
.LVL45:
	.loc 2 107 10 view .LVU102
.LBE129:
.LBE134:
	.loc 3 671 3 is_stmt 1 view .LVU103
	cmpq	%rbx, %r12
	leaq	.LC2(%rip), %rcx
	cmovne	%rcx, %r13
.L8:
	.loc 3 671 11 is_stmt 0 view .LVU104
	xorl	%edi, %edi
	leaq	.LC27(%rip), %rsi
	movl	$5, %edx
	call	dcgettext@PLT
.LVL46:
.LBB135:
.LBB136:
	.loc 2 107 10 view .LVU105
	movq	%r13, %rcx
	movq	%r12, %rdx
	movl	$1, %edi
.LBE136:
.LBE135:
	.loc 3 671 11 view .LVU106
	movq	%rax, %rsi
.LVL47:
.LBB138:
.LBI135:
	.loc 2 105 1 is_stmt 1 view .LVU107
.LBB137:
	.loc 2 107 3 view .LVU108
	.loc 2 107 10 is_stmt 0 view .LVU109
	xorl	%eax, %eax
.LVL48:
	.loc 2 107 10 view .LVU110
	call	__printf_chk@PLT
.LVL49:
	.loc 2 107 10 view .LVU111
.LBE137:
.LBE138:
	.loc 3 673 1 view .LVU112
	jmp	.L3
.LVL50:
.L6:
	.loc 3 655 3 is_stmt 1 view .LVU113
	.loc 3 655 11 is_stmt 0 view .LVU114
	call	dcgettext@PLT
.LVL51:
.LBB139:
.LBB123:
	.loc 2 107 10 view .LVU115
	leaq	.LC22(%rip), %rcx
	movl	$1, %edi
	leaq	.LC23(%rip), %rdx
.LBE123:
.LBE139:
	.loc 3 655 11 view .LVU116
	movq	%rax, %rsi
.LVL52:
.LBB140:
	.loc 2 105 1 is_stmt 1 view .LVU117
.LBB124:
	.loc 2 107 3 view .LVU118
	.loc 2 107 10 is_stmt 0 view .LVU119
	xorl	%eax, %eax
.LVL53:
	.loc 2 107 10 view .LVU120
	call	__printf_chk@PLT
.LVL54:
	.loc 2 107 10 view .LVU121
.LBE124:
.LBE140:
	.loc 3 659 3 is_stmt 1 view .LVU122
	.loc 3 659 29 is_stmt 0 view .LVU123
	movl	$5, %edi
	xorl	%esi, %esi
	call	setlocale@PLT
.LVL55:
	movq	%rax, %rdi
.LVL56:
	.loc 3 660 3 is_stmt 1 view .LVU124
	.loc 3 660 6 is_stmt 0 view .LVU125
	testq	%rax, %rax
	je	.L9
	.loc 3 660 22 view .LVU126
	movl	$3, %edx
	leaq	.LC24(%rip), %rsi
	call	strncmp@PLT
.LVL57:
	.loc 3 660 19 view .LVU127
	testl	%eax, %eax
	jne	.L29
.L9:
	.loc 3 669 3 is_stmt 1 view .LVU128
	.loc 3 669 11 is_stmt 0 view .LVU129
	movl	$5, %edx
	leaq	.LC26(%rip), %rsi
	xorl	%edi, %edi
	call	dcgettext@PLT
.LVL58:
.LBB141:
.LBB130:
	.loc 2 107 10 view .LVU130
	leaq	.LC0(%rip), %rcx
	leaq	.LC22(%rip), %rdx
	movl	$1, %edi
.LBE130:
.LBE141:
	.loc 3 669 11 view .LVU131
	movq	%rax, %rsi
.LVL59:
.LBB142:
	.loc 2 105 1 is_stmt 1 view .LVU132
.LBB131:
	.loc 2 107 3 view .LVU133
	.loc 2 107 10 is_stmt 0 view .LVU134
	xorl	%eax, %eax
.LVL60:
	.loc 2 107 10 view .LVU135
.LBE131:
.LBE142:
	.loc 3 646 15 view .LVU136
	leaq	.LC0(%rip), %r12
.LBB143:
.LBB132:
	.loc 2 107 10 view .LVU137
	call	__printf_chk@PLT
.LVL61:
	.loc 2 107 10 view .LVU138
.LBE132:
.LBE143:
	.loc 3 671 3 is_stmt 1 view .LVU139
	leaq	.LC1(%rip), %r13
	jmp	.L8
.L29:
	.loc 3 646 15 is_stmt 0 view .LVU140
	leaq	.LC0(%rip), %r12
.LVL62:
.L10:
	.loc 3 666 7 is_stmt 1 view .LVU141
	movq	stdout(%rip), %r13
	xorl	%edi, %edi
	movl	$5, %edx
	leaq	.LC25(%rip), %rsi
	call	dcgettext@PLT
.LVL63:
	movq	%rax, %rdi
	movq	%r13, %rsi
	call	fputs_unlocked@PLT
.LVL64:
	jmp	.L7
.LBE144:
.LBE161:
	.cfi_endproc
.LFE154:
	.size	usage, .-usage
	.section	.rodata.str1.1
.LC28:
	.string	"-"
.LC29:
	.string	"/usr/local/share/locale"
.LC30:
	.string	"invalid wrap size"
.LC31:
	.string	"Simon Josefsson"
.LC32:
	.string	"diw:"
.LC33:
	.string	"extra operand %s"
.LC34:
	.string	"rb"
.LC35:
	.string	"%s"
.LC36:
	.string	"read error"
.LC37:
	.string	"write error"
.LC38:
	.string	"invalid input"
.LC39:
	.string	"closing standard input"
	.section	.text.startup,"ax",@progbits
	.p2align 4
	.globl	main
	.type	main, @function
main:
.LVL65:
.LFB158:
	.loc 1 1087 1 view -0
	.cfi_startproc
	.loc 1 1087 1 is_stmt 0 view .LVU143
	endbr64
	pushq	%r15
	.cfi_def_cfa_offset 16
	.cfi_offset 15, -16
	pushq	%r14
	.cfi_def_cfa_offset 24
	.cfi_offset 14, -24
	movl	%edi, %r14d
	pushq	%r13
	.cfi_def_cfa_offset 32
	.cfi_offset 13, -32
	pushq	%r12
	.cfi_def_cfa_offset 40
	.cfi_offset 12, -40
	movq	%rsi, %r12
	pushq	%rbp
	.cfi_def_cfa_offset 48
	.cfi_offset 6, -48
	.loc 1 1093 8 view .LVU144
	xorl	%ebp, %ebp
	.loc 1 1087 1 view .LVU145
	pushq	%rbx
	.cfi_def_cfa_offset 56
	.cfi_offset 3, -56
	.loc 1 1097 13 view .LVU146
	movl	$76, %ebx
	.loc 1 1087 1 view .LVU147
	subq	$104, %rsp
	.cfi_def_cfa_offset 160
	.loc 1 1104 3 view .LVU148
	movq	(%rsi), %rdi
.LVL66:
	.loc 1 1087 1 view .LVU149
	movq	%fs:40, %rax
	movq	%rax, 88(%rsp)
	xorl	%eax, %eax
	.loc 1 1088 3 is_stmt 1 view .LVU150
	.loc 1 1089 3 view .LVU151
	.loc 1 1090 3 view .LVU152
	.loc 1 1093 3 view .LVU153
.LVL67:
	.loc 1 1095 3 view .LVU154
	.loc 1 1097 3 view .LVU155
	.loc 1 1103 33 view .LVU156
	.loc 1 1104 3 view .LVU157
	call	set_program_name@PLT
.LVL68:
	.loc 1 1105 3 view .LVU158
	leaq	.LC2(%rip), %rsi
	movl	$6, %edi
	call	setlocale@PLT
.LVL69:
	.loc 1 1106 3 view .LVU159
	leaq	.LC29(%rip), %rsi
	leaq	.LC14(%rip), %rdi
	call	bindtextdomain@PLT
.LVL70:
	.loc 1 1107 3 view .LVU160
	leaq	.LC14(%rip), %rdi
	call	textdomain@PLT
.LVL71:
	.loc 1 1109 3 view .LVU161
	movq	close_stdout@GOTPCREL(%rip), %rdi
	call	atexit@PLT
.LVL72:
	.loc 1 1111 3 view .LVU162
	.loc 1 1095 8 is_stmt 0 view .LVU163
	movb	$0, 32(%rsp)
.LVL73:
.L31:
	.loc 1 1146 9 is_stmt 1 view .LVU164
	.loc 1 1111 9 view .LVU165
	.loc 1 1111 17 is_stmt 0 view .LVU166
	xorl	%r8d, %r8d
	leaq	long_options(%rip), %rcx
	movq	%r12, %rsi
	movl	%r14d, %edi
	leaq	.LC32(%rip), %rdx
	call	getopt_long@PLT
.LVL74:
	.loc 1 1111 9 view .LVU167
	cmpl	$-1, %eax
	je	.L127
	.loc 1 1112 5 is_stmt 1 view .LVU168
	cmpl	$100, %eax
	je	.L90
	jle	.L128
	cmpl	$105, %eax
	jne	.L129
	movb	$1, 32(%rsp)
.LVL75:
	.loc 1 1112 5 is_stmt 0 view .LVU169
	jmp	.L31
.LVL76:
	.p2align 4,,10
	.p2align 3
.L128:
	.loc 1 1112 5 view .LVU170
	cmpl	$-131, %eax
	jne	.L130
	.loc 1 1140 7 is_stmt 1 view .LVU171
	.loc 1 1140 28 view .LVU172
	.loc 1 1142 7 view .LVU173
	movq	stdout(%rip), %rdi
	movq	Version(%rip), %rcx
	xorl	%eax, %eax
.LVL77:
	.loc 1 1142 7 is_stmt 0 view .LVU174
	xorl	%r9d, %r9d
	leaq	.LC31(%rip), %r8
	leaq	.LC23(%rip), %rdx
	leaq	.LC0(%rip), %rsi
	call	version_etc@PLT
.LVL78:
	.loc 1 1142 7 is_stmt 1 view .LVU175
	xorl	%edi, %edi
	call	exit@PLT
.LVL79:
	.p2align 4,,10
	.p2align 3
.L129:
	.loc 1 1112 5 is_stmt 0 view .LVU176
	cmpl	$119, %eax
	jne	.L126
	.loc 1 1119 9 is_stmt 1 view .LVU177
	.loc 1 1120 35 is_stmt 0 view .LVU178
	movl	$5, %edx
	leaq	.LC30(%rip), %rsi
	xorl	%edi, %edi
	call	dcgettext@PLT
.LVL80:
	.loc 1 1119 23 view .LVU179
	movq	optarg(%rip), %rdi
	xorl	%r9d, %r9d
	xorl	%esi, %esi
	.loc 1 1120 35 view .LVU180
	movq	%rax, %r8
	.loc 1 1119 23 view .LVU181
	leaq	.LC2(%rip), %rcx
	movq	$-1, %rdx
	call	xdectoumax@PLT
.LVL81:
	movq	%rax, %rbx
.LVL82:
	.loc 1 1121 9 is_stmt 1 view .LVU182
	jmp	.L31
.LVL83:
.L130:
	.loc 1 1112 5 is_stmt 0 view .LVU183
	cmpl	$-130, %eax
	jne	.L126
	.loc 1 1140 7 is_stmt 1 view .LVU184
	xorl	%edi, %edi
	call	usage
.LVL84:
	.p2align 4,,10
	.p2align 3
.L90:
	.loc 1 1115 16 is_stmt 0 view .LVU185
	movl	$1, %ebp
.LVL85:
	.loc 1 1115 16 view .LVU186
	jmp	.L31
.LVL86:
.L127:
	.loc 1 1222 3 is_stmt 1 view .LVU187
	.loc 1 1222 12 is_stmt 0 view .LVU188
	movslq	optind(%rip), %rax
.LVL87:
	.loc 1 1222 12 view .LVU189
	movl	%r14d, %edx
	subl	%eax, %edx
	.loc 1 1222 6 view .LVU190
	subl	$1, %edx
	jg	.L131
	.loc 1 1228 3 is_stmt 1 view .LVU191
	.loc 1 1228 6 is_stmt 0 view .LVU192
	cmpl	%r14d, %eax
	jge	.L92
	.loc 1 1229 5 is_stmt 1 view .LVU193
	.loc 1 1229 12 is_stmt 0 view .LVU194
	movq	(%r12,%rax,8), %rax
	.loc 1 1233 7 view .LVU195
	leaq	.LC28(%rip), %rsi
	movq	%rax, %rdi
	.loc 1 1229 12 view .LVU196
	movq	%rax, 56(%rsp)
.LVL88:
	.loc 1 1233 3 is_stmt 1 view .LVU197
	.loc 1 1233 7 is_stmt 0 view .LVU198
	call	strcmp@PLT
.LVL89:
	.loc 1 1233 6 view .LVU199
	testl	%eax, %eax
	je	.L39
	.loc 1 1240 7 is_stmt 1 view .LVU200
	.loc 1 1240 18 is_stmt 0 view .LVU201
	movq	56(%rsp), %rdi
	leaq	.LC34(%rip), %rsi
	call	fopen@PLT
.LVL90:
	movq	%rax, %r15
.LVL91:
	.loc 1 1241 7 is_stmt 1 view .LVU202
	.loc 1 1241 10 is_stmt 0 view .LVU203
	testq	%rax, %rax
	jne	.L41
.LBB226:
	.loc 1 1242 9 is_stmt 1 view .LVU204
	movq	56(%rsp), %rdx
	movl	$3, %esi
	xorl	%edi, %edi
	call	quotearg_n_style_colon@PLT
.LVL92:
	.loc 1 1242 9 is_stmt 0 view .LVU205
	movq	%rax, %r12
.LVL93:
	.loc 1 1242 9 view .LVU206
	call	__errno_location@PLT
.LVL94:
	movq	%r12, %rcx
	movl	$1, %edi
	leaq	.LC35(%rip), %rdx
	movl	(%rax), %esi
	xorl	%eax, %eax
	call	error@PLT
.LVL95:
.L92:
	.loc 1 1242 9 view .LVU207
.LBE226:
	.loc 1 1231 12 view .LVU208
	leaq	.LC28(%rip), %rax
	movq	%rax, 56(%rsp)
.L39:
.LVL96:
	.loc 1 1235 7 is_stmt 1 view .LVU209
	.file 4 "./lib/xbinary-io.h"
	.loc 4 42 3 view .LVU210
	.file 5 "./lib/binary-io.h"
	.loc 5 68 3 view .LVU211
	.loc 5 52 3 view .LVU212
	.loc 1 1236 7 view .LVU213
	.loc 1 1236 16 is_stmt 0 view .LVU214
	movq	stdin(%rip), %r15
.LVL97:
.L41:
	.loc 1 1245 3 is_stmt 1 view .LVU215
	movl	$2, %esi
	movq	%r15, %rdi
	call	fadvise@PLT
.LVL98:
	.loc 1 1247 3 view .LVU216
	.loc 1 1247 6 is_stmt 0 view .LVU217
	testb	%bpl, %bpl
	je	.L42
	.loc 1 1248 5 is_stmt 1 view .LVU218
	movq	stdout(%rip), %rax
.LBB227:
.LBB228:
	.loc 1 1021 11 is_stmt 0 view .LVU219
	movl	$8192, %edi
.LBE228:
.LBE227:
	.loc 1 1248 5 view .LVU220
	movq	%rax, 40(%rsp)
.LVL99:
.LBB262:
.LBI227:
	.loc 1 1015 1 is_stmt 1 view .LVU221
.LBB259:
	.loc 1 1017 3 view .LVU222
	.loc 1 1018 3 view .LVU223
	.loc 1 1019 3 view .LVU224
	.loc 1 1021 3 view .LVU225
	.loc 1 1021 11 is_stmt 0 view .LVU226
	call	xmalloc@PLT
.LVL100:
	.loc 1 1022 12 view .LVU227
	movl	$5120, %edi
	.loc 1 1021 11 view .LVU228
	movq	%rax, %rbp
.LVL101:
	.loc 1 1022 3 is_stmt 1 view .LVU229
	.loc 1 1022 12 is_stmt 0 view .LVU230
	call	xmalloc@PLT
.LVL102:
	.loc 1 1022 12 view .LVU231
	movq	%rax, %r12
.LVL103:
	.loc 1 1027 3 is_stmt 1 view .LVU232
	leaq	76(%rsp), %rax
.LVL104:
	.loc 1 1027 3 is_stmt 0 view .LVU233
	movq	%rax, %rdi
	movq	%rax, 48(%rsp)
	call	base32_decode_ctx_init@PLT
.LVL105:
	.p2align 4,,10
	.p2align 3
.L85:
	.loc 1 1029 3 is_stmt 1 view .LVU234
.LBB229:
	.loc 1 1031 7 view .LVU235
	.loc 1 1032 7 view .LVU236
	.loc 1 1033 7 view .LVU237
	.loc 1 1035 7 view .LVU238
	.loc 1 1035 11 is_stmt 0 view .LVU239
	xorl	%ebx, %ebx
	jmp	.L52
.LVL106:
	.p2align 4,,10
	.p2align 3
.L43:
	.loc 1 1051 11 is_stmt 1 view .LVU240
.LBB230:
.LBB231:
	.file 6 "/usr/include/x86_64-linux-gnu/bits/stdio.h"
	.loc 6 137 10 is_stmt 0 view .LVU241
	movl	(%r15), %eax
.LBE231:
.LBE230:
	.loc 1 1051 15 view .LVU242
	addq	%r13, %rbx
.LVL107:
	.loc 1 1053 11 is_stmt 1 view .LVU243
.LBB234:
.LBI230:
	.loc 6 135 1 view .LVU244
.LBB232:
	.loc 6 137 3 view .LVU245
	.loc 6 137 3 is_stmt 0 view .LVU246
.LBE232:
.LBE234:
	.loc 1 1053 14 view .LVU247
	testb	$32, %al
	jne	.L87
	.loc 1 1056 13 is_stmt 1 view .LVU248
	.loc 1 1056 7 is_stmt 0 view .LVU249
	cmpq	$8191, %rbx
	ja	.L51
.L88:
.LVL108:
.LBB235:
.LBI235:
	.loc 6 128 1 is_stmt 1 view .LVU250
.LBB236:
	.loc 6 130 3 view .LVU251
	.loc 6 130 3 is_stmt 0 view .LVU252
.LBE236:
.LBE235:
	.loc 1 1056 48 view .LVU253
	testb	$16, %al
	jne	.L51
.LVL109:
.L52:
	.loc 1 1036 7 is_stmt 1 view .LVU254
	.loc 1 1038 11 view .LVU255
.LBB237:
.LBI237:
	.loc 2 345 1 view .LVU256
.LBB238:
	.loc 2 348 3 view .LVU257
	.loc 2 362 3 view .LVU258
	.loc 2 382 3 view .LVU259
.LBE238:
.LBE237:
	.loc 1 1038 15 is_stmt 0 view .LVU260
	movl	$8192, %edx
	leaq	0(%rbp,%rbx), %rdi
.LVL110:
.LBB242:
.LBB239:
	.loc 2 382 10 view .LVU261
	movq	%r15, %rcx
	movl	$1, %esi
.LBE239:
.LBE242:
	.loc 1 1038 15 view .LVU262
	subq	%rbx, %rdx
.LVL111:
.LBB243:
.LBB240:
	.loc 2 382 10 view .LVU263
	call	fread_unlocked@PLT
.LVL112:
	.loc 2 382 10 view .LVU264
.LBE240:
.LBE243:
	.loc 1 1040 14 view .LVU265
	cmpb	$0, 32(%rsp)
	.loc 1 1038 13 view .LVU266
	movq	%rax, 64(%rsp)
.LBB244:
.LBB241:
	.loc 2 382 10 view .LVU267
	movq	%rax, %r13
.LVL113:
	.loc 2 382 10 view .LVU268
.LBE241:
.LBE244:
	.loc 1 1040 11 is_stmt 1 view .LVU269
	.loc 1 1040 14 is_stmt 0 view .LVU270
	je	.L43
.LVL114:
.LBB245:
	.loc 1 1042 34 is_stmt 1 view .LVU271
	.loc 1 1042 15 is_stmt 0 view .LVU272
	testq	%rax, %rax
	je	.L44
	.loc 1 1042 27 view .LVU273
	xorl	%r14d, %r14d
	jmp	.L48
.LVL115:
	.p2align 4,,10
	.p2align 3
.L94:
	.loc 1 1045 21 is_stmt 1 view .LVU274
	movq	64(%rsp), %r13
	.loc 1 1045 22 is_stmt 0 view .LVU275
	addq	$1, %r14
.LVL116:
.L47:
	.loc 1 1042 34 is_stmt 1 view .LVU276
	.loc 1 1042 15 is_stmt 0 view .LVU277
	testq	%r13, %r13
	je	.L43
	.loc 1 1042 15 view .LVU278
	cmpq	%r14, %r13
	jbe	.L43
.LVL117:
.L48:
	.loc 1 1044 19 is_stmt 1 view .LVU279
	.loc 1 1044 41 is_stmt 0 view .LVU280
	leaq	(%rbx,%r14), %rdx
	.loc 1 1044 36 view .LVU281
	leaq	0(%rbp,%rdx), %r9
	movq	%rdx, 24(%rsp)
	movsbl	(%r9), %edi
	movq	%r9, 16(%rsp)
	.loc 1 1044 23 view .LVU282
	movb	%dil, 8(%rsp)
	call	isbase32@PLT
.LVL118:
	.loc 1 1044 47 view .LVU283
	movzbl	8(%rsp), %esi
	cmpb	$61, %sil
	je	.L94
	testb	%al, %al
	movq	16(%rsp), %r9
	movq	24(%rsp), %rdx
	jne	.L94
	.loc 1 1047 21 is_stmt 1 view .LVU284
	.loc 1 1047 68 is_stmt 0 view .LVU285
	subq	$1, %r13
	.loc 1 1047 63 view .LVU286
	leaq	1(%rbp,%rdx), %rsi
.LBB246:
.LBB247:
	.file 7 "/usr/include/x86_64-linux-gnu/bits/string_fortified.h"
	.loc 7 40 10 view .LVU287
	movq	%r9, %rdi
.LBE247:
.LBE246:
	.loc 1 1047 21 view .LVU288
	movq	%r13, %r10
	movq	%r13, 64(%rsp)
.LVL119:
.LBB250:
.LBI246:
	.loc 7 38 1 is_stmt 1 view .LVU289
.LBB248:
	.loc 7 40 3 view .LVU290
.LBE248:
.LBE250:
	.loc 1 1047 21 is_stmt 0 view .LVU291
	subq	%r14, %r10
.LVL120:
.LBB251:
.LBB249:
	.loc 7 40 10 view .LVU292
	movq	%r10, %rdx
	call	memmove@PLT
.LVL121:
	.loc 7 40 10 view .LVU293
	jmp	.L47
.LVL122:
	.p2align 4,,10
	.p2align 3
.L51:
	.loc 7 40 10 view .LVU294
.LBE249:
.LBE251:
.LBE245:
	.loc 1 1066 13 view .LVU295
	xorl	%r13d, %r13d
	jmp	.L53
.LVL123:
	.p2align 4,,10
	.p2align 3
.L134:
	.loc 1 1062 7 view .LVU296
	testl	%r13d, %r13d
	jne	.L85
.L54:
	.loc 1 1066 11 is_stmt 1 view .LVU297
	.loc 1 1066 13 is_stmt 0 view .LVU298
	movq	$5120, 64(%rsp)
	.loc 1 1067 11 is_stmt 1 view .LVU299
	.loc 1 1066 13 is_stmt 0 view .LVU300
	movq	%rbx, %rdx
.L86:
	.loc 1 1067 16 view .LVU301
	movq	48(%rsp), %rdi
	movq	%r12, %rcx
	movq	%rbp, %rsi
	leaq	64(%rsp), %r8
	call	base32_decode_ctx@PLT
.LVL124:
	.loc 1 1069 15 view .LVU302
	movq	40(%rsp), %rcx
	movq	64(%rsp), %rdx
	movq	%r12, %rdi
	movl	$1, %esi
	.loc 1 1067 16 view .LVU303
	movl	%eax, %r14d
.LVL125:
	.loc 1 1069 11 is_stmt 1 view .LVU304
	.loc 1 1069 15 is_stmt 0 view .LVU305
	call	fwrite_unlocked@PLT
.LVL126:
	.loc 1 1069 14 view .LVU306
	cmpq	64(%rsp), %rax
	jb	.L132
	.loc 1 1072 11 is_stmt 1 view .LVU307
	.loc 1 1072 14 is_stmt 0 view .LVU308
	testb	%r14b, %r14b
	je	.L133
	.loc 1 1062 40 is_stmt 1 view .LVU309
	movl	(%r15), %eax
	.loc 1 1062 41 is_stmt 0 view .LVU310
	addl	$1, %r13d
.LVL127:
.L53:
	.loc 1 1062 19 is_stmt 1 view .LVU311
.LBB252:
.LBI252:
	.loc 6 128 1 view .LVU312
.LBB253:
	.loc 6 130 3 view .LVU313
	.loc 6 130 3 is_stmt 0 view .LVU314
.LBE253:
.LBE252:
	.loc 1 1062 25 view .LVU315
	testb	$16, %al
	je	.L134
	.loc 1 1062 7 view .LVU316
	cmpl	$1, %r13d
	ja	.L55
	.loc 1 1064 11 is_stmt 1 view .LVU317
	.loc 1 1064 14 is_stmt 0 view .LVU318
	jne	.L54
	.loc 1 1064 22 view .LVU319
	movl	76(%rsp), %eax
	testl	%eax, %eax
	je	.L55
	.loc 1 1066 11 is_stmt 1 view .LVU320
	.loc 1 1066 13 is_stmt 0 view .LVU321
	movq	$5120, 64(%rsp)
	.loc 1 1067 11 is_stmt 1 view .LVU322
	.loc 1 1067 16 is_stmt 0 view .LVU323
	xorl	%edx, %edx
	jmp	.L86
.LVL128:
.L44:
	.loc 1 1051 11 is_stmt 1 view .LVU324
	.loc 1 1053 11 view .LVU325
.LBB254:
	.loc 6 135 1 view .LVU326
.LBB233:
	.loc 6 137 3 view .LVU327
	.loc 6 137 10 is_stmt 0 view .LVU328
	movl	(%r15), %eax
.LVL129:
	.loc 6 137 10 view .LVU329
.LBE233:
.LBE254:
	.loc 1 1053 14 view .LVU330
	testb	$32, %al
	je	.L88
.LVL130:
.L87:
.LBB255:
	.loc 1 1054 13 is_stmt 1 view .LVU331
	movl	$5, %edx
	leaq	.LC36(%rip), %rsi
	xorl	%edi, %edi
	call	dcgettext@PLT
.LVL131:
	movq	%rax, %r12
.LVL132:
	.loc 1 1054 13 is_stmt 0 view .LVU332
	call	__errno_location@PLT
.LVL133:
	movq	%r12, %rdx
	movl	$1, %edi
	movl	(%rax), %esi
	xorl	%eax, %eax
	call	error@PLT
.LVL134:
.L55:
	.loc 1 1054 13 view .LVU333
.LBE255:
.LBE229:
	.loc 1 1076 9 is_stmt 1 view .LVU334
	.loc 1 1076 9 is_stmt 0 view .LVU335
.LBE259:
.LBE262:
	.loc 6 130 3 is_stmt 1 view .LVU336
.LBB263:
.LBB260:
	.loc 1 1081 3 view .LVU337
	movq	%rbp, %rdi
	call	free@PLT
.LVL135:
	.loc 1 1082 3 view .LVU338
	movq	%r12, %rdi
	call	free@PLT
.LVL136:
.L62:
	.loc 1 1082 3 is_stmt 0 view .LVU339
.LBE260:
.LBE263:
	.loc 1 1252 3 is_stmt 1 view .LVU340
	.loc 1 1252 7 is_stmt 0 view .LVU341
	movq	%r15, %rdi
	call	rpl_fclose@PLT
.LVL137:
	.loc 1 1252 6 view .LVU342
	addl	$1, %eax
	je	.L135
	.loc 1 1260 3 is_stmt 1 view .LVU343
	.loc 1 1261 1 is_stmt 0 view .LVU344
	movq	88(%rsp), %rax
	xorq	%fs:40, %rax
	jne	.L136
	addq	$104, %rsp
	.cfi_remember_state
	.cfi_def_cfa_offset 56
	xorl	%eax, %eax
	popq	%rbx
	.cfi_def_cfa_offset 48
	popq	%rbp
	.cfi_def_cfa_offset 40
	popq	%r12
	.cfi_def_cfa_offset 32
	popq	%r13
	.cfi_def_cfa_offset 24
	popq	%r14
	.cfi_def_cfa_offset 16
	popq	%r15
	.cfi_def_cfa_offset 8
	ret
.LVL138:
.L42:
	.cfi_restore_state
	.loc 1 1250 5 is_stmt 1 view .LVU345
.LBB264:
.LBB265:
	.loc 1 976 11 is_stmt 0 view .LVU346
	movl	$30720, %edi
.LBE265:
.LBE264:
	.loc 1 1250 5 view .LVU347
	movq	stdout(%rip), %r14
.LVL139:
.LBB311:
.LBI264:
	.loc 1 970 1 is_stmt 1 view .LVU348
.LBB307:
	.loc 1 972 3 view .LVU349
	.loc 1 973 3 view .LVU350
	.loc 1 974 3 view .LVU351
	.loc 1 976 3 view .LVU352
	.loc 1 972 10 is_stmt 0 view .LVU353
	xorl	%ebp, %ebp
.LVL140:
	.loc 1 976 11 view .LVU354
	call	xmalloc@PLT
.LVL141:
	.loc 1 977 12 view .LVU355
	movl	$49152, %edi
	.loc 1 976 11 view .LVU356
	movq	%rax, %r12
.LVL142:
	.loc 1 977 3 is_stmt 1 view .LVU357
	.loc 1 977 12 is_stmt 0 view .LVU358
	call	xmalloc@PLT
.LVL143:
.LBB266:
	.loc 1 986 15 view .LVU359
	movq	%rbx, 16(%rsp)
.LBE266:
	.loc 1 977 12 view .LVU360
	movq	%rax, 8(%rsp)
.LVL144:
.L75:
	.loc 1 979 3 is_stmt 1 view .LVU361
.LBB292:
	.loc 1 981 7 view .LVU362
	.loc 1 983 7 view .LVU363
	.loc 1 983 11 is_stmt 0 view .LVU364
	xorl	%r13d, %r13d
	jmp	.L64
.LVL145:
	.p2align 4,,10
	.p2align 3
.L137:
	.loc 1 989 41 view .LVU365
	cmpq	$30719, %r13
	ja	.L65
.LVL146:
.L64:
	.loc 1 984 7 is_stmt 1 view .LVU366
	.loc 1 986 11 view .LVU367
.LBB267:
.LBI267:
	.loc 2 345 1 view .LVU368
.LBB268:
	.loc 2 348 3 view .LVU369
	.loc 2 362 3 view .LVU370
	.loc 2 382 3 view .LVU371
.LBE268:
.LBE267:
	.loc 1 986 15 is_stmt 0 view .LVU372
	movl	$30720, %edx
	leaq	(%r12,%r13), %rdi
.LVL147:
.LBB271:
.LBB269:
	.loc 2 382 10 view .LVU373
	movq	%r15, %rcx
	movl	$1, %esi
.LBE269:
.LBE271:
	.loc 1 986 15 view .LVU374
	subq	%r13, %rdx
.LVL148:
.LBB272:
.LBB270:
	.loc 2 382 10 view .LVU375
	call	fread_unlocked@PLT
.LVL149:
	.loc 2 382 10 view .LVU376
.LBE270:
.LBE272:
	.loc 1 987 11 is_stmt 1 view .LVU377
	.loc 1 987 15 is_stmt 0 view .LVU378
	addq	%rax, %r13
.LVL150:
	.loc 1 989 13 is_stmt 1 view .LVU379
.LBB273:
.LBI273:
	.loc 6 128 1 view .LVU380
.LBB274:
	.loc 6 130 3 view .LVU381
	.loc 6 130 3 is_stmt 0 view .LVU382
.LBE274:
.LBE273:
.LBE292:
.LBE307:
.LBE311:
	.loc 6 137 3 is_stmt 1 view .LVU383
.LBB312:
.LBB308:
.LBB293:
	.loc 1 989 25 is_stmt 0 view .LVU384
	movl	(%r15), %eax
.LVL151:
	.loc 1 989 25 view .LVU385
	testb	$48, %al
	je	.L137
	.loc 1 991 7 is_stmt 1 view .LVU386
	.loc 1 991 10 is_stmt 0 view .LVU387
	testq	%r13, %r13
	jne	.L65
.LVL152:
.L66:
	.loc 1 991 10 view .LVU388
	movq	16(%rsp), %rbx
	.loc 1 991 10 view .LVU389
.LBE293:
	.loc 1 1004 3 is_stmt 1 view .LVU390
	.loc 1 1004 19 is_stmt 0 view .LVU391
	testq	%rbp, %rbp
	je	.L80
	.loc 1 1004 19 view .LVU392
	testq	%rbx, %rbx
	je	.L80
.LVL153:
.LBB294:
.LBI294:
	.loc 6 91 1 is_stmt 1 view .LVU393
.LBB295:
	.loc 6 93 3 view .LVU394
	.loc 6 93 10 is_stmt 0 view .LVU395
	movq	40(%r14), %rax
	cmpq	48(%r14), %rax
	jnb	.L138
	leaq	1(%rax), %rdx
	movq	%rdx, 40(%r14)
	movb	$10, (%rax)
.LVL154:
.L125:
	.loc 6 93 10 view .LVU396
	movl	(%r15), %eax
.L80:
	.loc 6 93 10 view .LVU397
.LBE295:
.LBE294:
	.loc 1 1007 3 is_stmt 1 view .LVU398
.LVL155:
.LBB297:
.LBI297:
	.loc 6 135 1 view .LVU399
.LBB298:
	.loc 6 137 3 view .LVU400
	.loc 6 137 3 is_stmt 0 view .LVU401
.LBE298:
.LBE297:
	.loc 1 1007 6 view .LVU402
	testb	$32, %al
	jne	.L139
	.loc 1 1010 3 is_stmt 1 view .LVU403
	movq	%r12, %rdi
	call	free@PLT
.LVL156:
	.loc 1 1011 3 view .LVU404
	movq	8(%rsp), %rdi
	call	free@PLT
.LVL157:
	.loc 1 1012 1 is_stmt 0 view .LVU405
	jmp	.L62
.LVL158:
.L65:
.LBB299:
	.loc 1 995 11 is_stmt 1 view .LVU406
	.loc 1 995 44 is_stmt 0 view .LVU407
	movl	$5, %ecx
	xorl	%edx, %edx
	leaq	4(%r13), %rax
	.loc 1 995 11 view .LVU408
	movq	%r13, %rsi
	.loc 1 995 44 view .LVU409
	divq	%rcx
	.loc 1 995 11 view .LVU410
	movq	8(%rsp), %rdx
	movq	%r12, %rdi
	leaq	0(,%rax,8), %rbx
	movq	%rbx, %rcx
	call	base32_encode@PLT
.LVL159:
	.loc 1 997 11 is_stmt 1 view .LVU411
.LBB275:
.LBI275:
	.loc 1 935 1 view .LVU412
.LBB276:
	.loc 1 938 3 view .LVU413
	.loc 1 940 3 view .LVU414
	.loc 1 940 6 is_stmt 0 view .LVU415
	cmpq	$0, 16(%rsp)
	je	.L67
.LVL160:
	.loc 1 947 23 is_stmt 1 view .LVU416
	.loc 1 947 18 is_stmt 0 view .LVU417
	xorl	%r9d, %r9d
	.loc 1 947 5 view .LVU418
	testq	%rbx, %rbx
	je	.L69
	movq	%r15, 24(%rsp)
	movq	%rbx, %r15
	movq	%r12, 32(%rsp)
	movq	%r9, %r12
	movq	%r13, 40(%rsp)
	movq	%rbp, %r13
.LVL161:
	.loc 1 947 5 view .LVU419
	movq	16(%rsp), %rbp
.LVL162:
	.loc 1 947 5 view .LVU420
	jmp	.L68
.LVL163:
	.p2align 4,,10
	.p2align 3
.L142:
.LBB277:
	.loc 1 955 13 is_stmt 1 view .LVU421
.LBB278:
.LBI278:
	.loc 6 91 1 view .LVU422
.LBB279:
	.loc 6 93 3 view .LVU423
	.loc 6 93 10 is_stmt 0 view .LVU424
	movq	40(%r14), %rax
	cmpq	48(%r14), %rax
	jnb	.L140
	leaq	1(%rax), %rdx
	movq	%rdx, 40(%r14)
	movb	$10, (%rax)
.LVL164:
.L124:
	.loc 6 93 10 view .LVU425
.LBE279:
.LBE278:
	.loc 1 957 29 view .LVU426
	xorl	%r13d, %r13d
.LVL165:
.L73:
	.loc 1 957 29 view .LVU427
.LBE277:
	.loc 1 947 23 is_stmt 1 view .LVU428
	.loc 1 947 5 is_stmt 0 view .LVU429
	cmpq	%r12, %r15
	jbe	.L141
.LVL166:
.L68:
.LBB284:
	.loc 1 949 9 is_stmt 1 view .LVU430
	.loc 1 950 9 view .LVU431
	.loc 1 951 9 view .LVU432
	.loc 1 949 19 is_stmt 0 view .LVU433
	movq	%rbp, %rbx
	.loc 1 951 20 view .LVU434
	movq	%r15, %rax
	.loc 1 949 19 view .LVU435
	subq	%r13, %rbx
.LVL167:
	.loc 1 951 20 view .LVU436
	subq	%r12, %rax
	.loc 1 951 18 view .LVU437
	cmpq	%rax, %rbx
	cmova	%rax, %rbx
.LVL168:
	.loc 1 953 9 is_stmt 1 view .LVU438
	.loc 1 953 12 is_stmt 0 view .LVU439
	testq	%rbx, %rbx
	je	.L142
	.loc 1 961 13 is_stmt 1 view .LVU440
	.loc 1 961 17 is_stmt 0 view .LVU441
	movq	8(%rsp), %rax
	movq	stdout(%rip), %rcx
	movq	%rbx, %rdx
	movl	$1, %esi
	leaq	(%rax,%r12), %rdi
	call	fwrite_unlocked@PLT
.LVL169:
	.loc 1 961 16 view .LVU442
	cmpq	%rax, %rbx
	ja	.L143
	.loc 1 963 13 is_stmt 1 view .LVU443
	.loc 1 963 29 is_stmt 0 view .LVU444
	addq	%rbx, %r13
.LVL170:
	.loc 1 964 13 is_stmt 1 view .LVU445
	.loc 1 964 21 is_stmt 0 view .LVU446
	addq	%rbx, %r12
.LVL171:
	.loc 1 964 21 view .LVU447
	jmp	.L73
.L141:
	.loc 1 964 21 view .LVU448
	movq	%r13, %rbp
.LVL172:
	.loc 1 964 21 view .LVU449
	movq	24(%rsp), %r15
.LVL173:
	.loc 1 964 21 view .LVU450
	movq	32(%rsp), %r12
.LVL174:
	.loc 1 964 21 view .LVU451
	movq	40(%rsp), %r13
.LVL175:
.L69:
	.loc 1 964 21 view .LVU452
.LBE284:
.LBE276:
.LBE275:
.LBE299:
	.loc 1 1001 9 is_stmt 1 view .LVU453
.LBB300:
.LBI300:
	.loc 6 128 1 view .LVU454
.LBB301:
	.loc 6 130 3 view .LVU455
	.loc 6 130 3 is_stmt 0 view .LVU456
.LBE301:
.LBE300:
.LBE308:
.LBE312:
	.loc 6 137 3 is_stmt 1 view .LVU457
.LBB313:
.LBB309:
	.loc 1 1001 21 is_stmt 0 view .LVU458
	movl	(%r15), %eax
	.loc 1 1001 37 view .LVU459
	testb	$48, %al
	jne	.L66
	.loc 1 1001 37 view .LVU460
	cmpq	$30720, %r13
	je	.L75
	jmp	.L66
.LVL176:
.L140:
.LBB302:
.LBB290:
.LBB288:
.LBB285:
.LBB281:
.LBB280:
	.loc 6 93 10 view .LVU461
	movl	$10, %esi
	movq	%r14, %rdi
	call	__overflow@PLT
.LVL177:
	.loc 6 93 10 view .LVU462
.LBE280:
.LBE281:
	.loc 1 955 16 view .LVU463
	addl	$1, %eax
	jne	.L124
.LBB282:
	.loc 1 956 15 is_stmt 1 view .LVU464
	movl	$5, %edx
	leaq	.LC37(%rip), %rsi
	xorl	%edi, %edi
	call	dcgettext@PLT
.LVL178:
	movq	%rax, %r12
.LVL179:
	.loc 1 956 15 is_stmt 0 view .LVU465
	call	__errno_location@PLT
.LVL180:
	movq	%r12, %rdx
	movl	$1, %edi
	movl	(%rax), %esi
	xorl	%eax, %eax
	call	error@PLT
.LVL181:
.L67:
	.loc 1 956 15 view .LVU466
.LBE282:
.LBE285:
	.loc 1 943 7 is_stmt 1 view .LVU467
	.loc 1 943 11 is_stmt 0 view .LVU468
	movq	stdout(%rip), %rcx
	movq	8(%rsp), %rdi
	movq	%rbx, %rdx
	movl	$1, %esi
	call	fwrite_unlocked@PLT
.LVL182:
	.loc 1 943 10 view .LVU469
	cmpq	%rax, %rbx
	jbe	.L69
.LBB286:
	.loc 1 944 9 is_stmt 1 view .LVU470
	movl	$5, %edx
	leaq	.LC37(%rip), %rsi
	xorl	%edi, %edi
	call	dcgettext@PLT
.LVL183:
	movq	%rax, %r12
	call	__errno_location@PLT
.LVL184:
	movq	%r12, %rdx
	movl	$1, %edi
	movl	(%rax), %esi
	xorl	%eax, %eax
	call	error@PLT
.LVL185:
.L135:
	.loc 1 944 9 is_stmt 0 view .LVU471
.LBE286:
.LBE288:
.LBE290:
.LBE302:
.LBE309:
.LBE313:
	.loc 1 1254 7 is_stmt 1 view .LVU472
	.loc 1 1254 11 is_stmt 0 view .LVU473
	movq	56(%rsp), %rdi
	leaq	.LC28(%rip), %rsi
	call	strcmp@PLT
.LVL186:
	movl	%eax, %ebx
	call	__errno_location@PLT
.LVL187:
	movq	%rax, %rbp
	.loc 1 1254 10 view .LVU474
	testl	%ebx, %ebx
	jne	.L83
.LBB314:
	.loc 1 1255 9 is_stmt 1 view .LVU475
	movl	$5, %edx
	leaq	.LC39(%rip), %rsi
	xorl	%edi, %edi
	call	dcgettext@PLT
.LVL188:
	movl	0(%rbp), %esi
	movl	$1, %edi
	movq	%rax, %rdx
	xorl	%eax, %eax
	call	error@PLT
.LVL189:
.L83:
.LBE314:
.LBB315:
	.loc 1 1257 9 view .LVU476
	movq	56(%rsp), %rdx
	movl	$3, %esi
	xorl	%edi, %edi
	call	quotearg_n_style_colon@PLT
.LVL190:
	movl	0(%rbp), %esi
	movl	$1, %edi
	leaq	.LC35(%rip), %rdx
	movq	%rax, %rcx
	xorl	%eax, %eax
	call	error@PLT
.LVL191:
.L132:
	.loc 1 1257 9 is_stmt 0 view .LVU477
.LBE315:
.LBB316:
.LBB261:
.LBB258:
.LBB256:
	.loc 1 1070 13 is_stmt 1 view .LVU478
	movl	$5, %edx
	leaq	.LC37(%rip), %rsi
	xorl	%edi, %edi
	call	dcgettext@PLT
.LVL192:
	movq	%rax, %r12
.LVL193:
	.loc 1 1070 13 is_stmt 0 view .LVU479
	call	__errno_location@PLT
.LVL194:
	movq	%r12, %rdx
	movl	$1, %edi
	movl	(%rax), %esi
	xorl	%eax, %eax
	call	error@PLT
.LVL195:
.L133:
	.loc 1 1070 13 view .LVU480
.LBE256:
.LBB257:
	.loc 1 1073 13 is_stmt 1 view .LVU481
	movl	$5, %edx
	leaq	.LC38(%rip), %rsi
	xorl	%edi, %edi
	call	dcgettext@PLT
.LVL196:
	xorl	%esi, %esi
	movl	$1, %edi
	movq	%rax, %rdx
	xorl	%eax, %eax
	call	error@PLT
.LVL197:
.L131:
	.loc 1 1073 13 is_stmt 0 view .LVU482
.LBE257:
.LBE258:
.LBE261:
.LBE316:
	.loc 1 1224 7 is_stmt 1 view .LVU483
	movq	8(%r12,%rax,8), %rdi
	call	quote@PLT
.LVL198:
	.loc 1 1224 20 is_stmt 0 view .LVU484
	movl	$5, %edx
	leaq	.LC33(%rip), %rsi
	xorl	%edi, %edi
	.loc 1 1224 7 view .LVU485
	movq	%rax, %r12
.LVL199:
	.loc 1 1224 20 view .LVU486
	call	dcgettext@PLT
.LVL200:
	.loc 1 1224 7 view .LVU487
	movq	%r12, %rcx
	xorl	%esi, %esi
	xorl	%edi, %edi
	.loc 1 1224 20 view .LVU488
	movq	%rax, %rdx
	.loc 1 1224 7 view .LVU489
	xorl	%eax, %eax
	call	error@PLT
.LVL201:
.L126:
	.loc 1 1225 7 is_stmt 1 view .LVU490
	movl	$1, %edi
	call	usage
.LVL202:
.L138:
.LBB317:
.LBB310:
.LBB303:
.LBB296:
	.loc 6 93 10 is_stmt 0 view .LVU491
	movl	$10, %esi
	movq	%r14, %rdi
	call	__overflow@PLT
.LVL203:
	.loc 6 93 10 view .LVU492
.LBE296:
.LBE303:
	.loc 1 1004 41 view .LVU493
	addl	$1, %eax
	jne	.L125
.LBB304:
	.loc 1 1005 5 is_stmt 1 view .LVU494
	movl	$5, %edx
	leaq	.LC37(%rip), %rsi
	xorl	%edi, %edi
	call	dcgettext@PLT
.LVL204:
	movq	%rax, %r12
	call	__errno_location@PLT
.LVL205:
	movq	%r12, %rdx
	movl	$1, %edi
	movl	(%rax), %esi
	xorl	%eax, %eax
	call	error@PLT
.LVL206:
.L143:
	.loc 1 1005 5 is_stmt 0 view .LVU495
.LBE304:
.LBB305:
.LBB291:
.LBB289:
.LBB287:
.LBB283:
	.loc 1 962 15 is_stmt 1 view .LVU496
	movl	$5, %edx
	leaq	.LC37(%rip), %rsi
	xorl	%edi, %edi
	call	dcgettext@PLT
.LVL207:
	movq	%rax, %r12
.LVL208:
	.loc 1 962 15 is_stmt 0 view .LVU497
	call	__errno_location@PLT
.LVL209:
	movq	%r12, %rdx
	movl	$1, %edi
	movl	(%rax), %esi
	xorl	%eax, %eax
	call	error@PLT
.LVL210:
.L139:
	.loc 1 962 15 view .LVU498
.LBE283:
.LBE287:
.LBE289:
.LBE291:
.LBE305:
.LBB306:
	.loc 1 1008 5 is_stmt 1 view .LVU499
	movl	$5, %edx
	leaq	.LC36(%rip), %rsi
	xorl	%edi, %edi
	call	dcgettext@PLT
.LVL211:
	movq	%rax, %r12
	call	__errno_location@PLT
.LVL212:
	movq	%r12, %rdx
	movl	$1, %edi
	movl	(%rax), %esi
	xorl	%eax, %eax
	call	error@PLT
.LVL213:
.L136:
	.loc 1 1008 5 is_stmt 0 view .LVU500
.LBE306:
.LBE310:
.LBE317:
	.loc 1 1261 1 view .LVU501
	call	__stack_chk_fail@PLT
.LVL214:
	.cfi_endproc
.LFE158:
	.size	main, .-main
	.section	.rodata.str1.1
.LC40:
	.string	"decode"
.LC41:
	.string	"wrap"
.LC42:
	.string	"ignore-garbage"
.LC43:
	.string	"help"
.LC44:
	.string	"version"
	.section	.data.rel.ro.local,"aw"
	.align 32
	.type	long_options, @object
	.size	long_options, 192
long_options:
	.quad	.LC40
	.long	0
	.zero	4
	.quad	0
	.long	100
	.zero	4
	.quad	.LC41
	.long	1
	.zero	4
	.quad	0
	.long	119
	.zero	4
	.quad	.LC42
	.long	0
	.zero	4
	.quad	0
	.long	105
	.zero	4
	.quad	.LC43
	.long	0
	.zero	4
	.quad	0
	.long	-130
	.zero	4
	.quad	.LC44
	.long	0
	.zero	4
	.quad	0
	.long	-131
	.zero	4
	.quad	0
	.long	0
	.zero	4
	.quad	0
	.long	0
	.zero	4
	.text
.Letext0:
	.file 8 "/usr/lib/gcc/x86_64-linux-gnu/9/include/stddef.h"
	.file 9 "/usr/include/x86_64-linux-gnu/bits/types.h"
	.file 10 "/usr/include/x86_64-linux-gnu/bits/types/struct_FILE.h"
	.file 11 "/usr/include/x86_64-linux-gnu/bits/types/FILE.h"
	.file 12 "/usr/include/stdio.h"
	.file 13 "/usr/include/x86_64-linux-gnu/bits/sys_errlist.h"
	.file 14 "/usr/include/x86_64-linux-gnu/bits/types/time_t.h"
	.file 15 "./lib/sys/select.h"
	.file 16 "/usr/include/x86_64-linux-gnu/bits/getopt_core.h"
	.file 17 "/usr/include/x86_64-linux-gnu/bits/getopt_ext.h"
	.file 18 "/usr/include/time.h"
	.file 19 "/usr/include/signal.h"
	.file 20 "/usr/include/unistd.h"
	.file 21 "/usr/include/errno.h"
	.file 22 "src/version.h"
	.file 23 "./lib/exitfail.h"
	.file 24 "/usr/include/stdint.h"
	.file 25 "./lib/timespec.h"
	.file 26 "./lib/version-etc.h"
	.file 27 "./lib/progname.h"
	.file 28 "./lib/quotearg.h"
	.file 29 "./lib/error.h"
	.file 30 "./lib/fadvise.h"
	.file 31 "./lib/quote.h"
	.file 32 "./lib/base32.h"
	.file 33 "/usr/include/libintl.h"
	.file 34 "./lib/xalloc.h"
	.file 35 "/usr/include/stdlib.h"
	.file 36 "/usr/include/locale.h"
	.file 37 "./lib/xdectoint.h"
	.file 38 "/usr/include/string.h"
	.file 39 "./lib/stdio.h"
	.file 40 "<built-in>"
	.section	.note.GNU-stack,"",@progbits
	.section	.note.gnu.property,"a"
	.align 8
	.long	 1f - 0f
	.long	 4f - 1f
	.long	 5
0:
	.string	 "GNU"
1:
	.align 8
	.long	 0xc0000002
	.long	 3f - 2f
2:
	.long	 0x3
3:
	.align 8
4:
