	.file	"cat.c"
	.text
.Ltext0:
	.p2align 4
	.type	next_line_num, @function
next_line_num:
.LFB141:
	.file 1 "src/cat.c"
	.loc 1 131 1 view -0
	.cfi_startproc
	.loc 1 132 3 view .LVU1
.LVL0:
	.loc 1 139 15 is_stmt 0 view .LVU2
	movq	line_num_start(%rip), %rcx
	.loc 1 132 9 view .LVU3
	leaq	17+line_buf(%rip), %rax
.LVL1:
	.loc 1 132 9 view .LVU4
	jmp	.L4
	.p2align 4,,10
	.p2align 3
.L2:
	.loc 1 137 7 is_stmt 1 view .LVU5
	.loc 1 137 12 is_stmt 0 view .LVU6
	subq	$1, %rax
.LVL2:
	.loc 1 137 15 view .LVU7
	movb	$48, 1(%rax)
	.loc 1 139 9 is_stmt 1 view .LVU8
	.loc 1 139 3 is_stmt 0 view .LVU9
	cmpq	%rax, %rcx
	ja	.L10
.L4:
	.loc 1 133 3 is_stmt 1 view .LVU10
	.loc 1 135 7 view .LVU11
	.loc 1 135 12 is_stmt 0 view .LVU12
	movzbl	(%rax), %edx
	.loc 1 135 10 view .LVU13
	cmpb	$56, %dl
	jg	.L2
	.loc 1 135 18 view .LVU14
	addl	$1, %edx
	movb	%dl, (%rax)
	ret
	.p2align 4,,10
	.p2align 3
.L10:
	.loc 1 140 3 is_stmt 1 view .LVU15
	.loc 1 140 6 is_stmt 0 view .LVU16
	leaq	line_buf(%rip), %rax
.LVL3:
	.loc 1 140 6 view .LVU17
	cmpq	%rax, %rcx
	jbe	.L5
	.loc 1 141 5 is_stmt 1 view .LVU18
	.loc 1 141 6 is_stmt 0 view .LVU19
	leaq	-1(%rcx), %rdx
	.loc 1 141 23 view .LVU20
	movb	$49, -1(%rcx)
	movq	%rdx, line_num_start(%rip)
.L6:
.LBB66:
.LBI66:
	.loc 1 130 1 is_stmt 1 view .LVU21
.LBB67:
	.loc 1 144 3 view .LVU22
	.loc 1 144 22 is_stmt 0 view .LVU23
	movq	line_num_print(%rip), %rax
	.loc 1 144 6 view .LVU24
	cmpq	%rdx, %rax
	jbe	.L1
	.loc 1 145 5 is_stmt 1 view .LVU25
	.loc 1 145 19 is_stmt 0 view .LVU26
	subq	$1, %rax
	movq	%rax, line_num_print(%rip)
.L1:
.LBE67:
.LBE66:
	.loc 1 146 1 view .LVU27
	ret
	.p2align 4,,10
	.p2align 3
.L5:
	.loc 1 143 5 is_stmt 1 view .LVU28
	.loc 1 143 15 is_stmt 0 view .LVU29
	movb	$62, line_buf(%rip)
	movq	%rcx, %rdx
	jmp	.L6
	.cfi_endproc
.LFE141:
	.size	next_line_num, .-next_line_num
	.section	.rodata.str1.1,"aMS",@progbits,1
.LC0:
	.string	"write error"
	.text
	.p2align 4
	.type	write_pending.part.0, @function
write_pending.part.0:
.LFB151:
	.loc 1 197 1 is_stmt 1 view -0
	.cfi_startproc
.LVL4:
.LBB68:
	.loc 1 203 9 view .LVU31
.LBE68:
	.loc 1 197 1 is_stmt 0 view .LVU32
	pushq	%r12
	.cfi_def_cfa_offset 16
	.cfi_offset 12, -16
.LBB69:
	.loc 1 203 9 view .LVU33
	movl	$5, %edx
	leaq	.LC0(%rip), %rsi
	xorl	%edi, %edi
	call	dcgettext@PLT
.LVL5:
	movq	%rax, %r12
	call	__errno_location@PLT
.LVL6:
	movq	%r12, %rdx
	movl	$1, %edi
	movl	(%rax), %esi
	xorl	%eax, %eax
	call	error@PLT
.LVL7:
.LBE69:
	.cfi_endproc
.LFE151:
	.size	write_pending.part.0, .-write_pending.part.0
	.section	.rodata.str1.1
.LC1:
	.string	"cat"
.LC2:
	.string	" invocation"
.LC3:
	.string	""
	.section	.rodata.str1.8,"aMS",@progbits,1
	.align 8
.LC4:
	.string	"Try '%s --help' for more information.\n"
	.align 8
.LC5:
	.string	"Usage: %s [OPTION]... [FILE]...\n"
	.align 8
.LC6:
	.string	"Concatenate FILE(s) to standard output.\n"
	.align 8
.LC7:
	.string	"\nWith no FILE, or when FILE is -, read standard input.\n"
	.align 8
.LC8:
	.ascii	"\n  -A, --show-all           equivalent to -vET\n  -b, --num"
	.ascii	"ber-nonblank    numb"
	.string	"er nonempty output lines, overrides -n\n  -e                       equivalent to -vE\n  -E, --show-ends          display $ at end of each line\n  -n, --number             number all output lines\n  -s, --squeeze-blank      suppress repeated empty output lines\n"
	.align 8
.LC9:
	.string	"  -t                       equivalent to -vT\n  -T, --show-tabs          display TAB characters as ^I\n  -u                       (ignored)\n  -v, --show-nonprinting   use ^ and M- notation, except for LFD and TAB\n"
	.align 8
.LC10:
	.string	"      --help     display this help and exit\n"
	.align 8
.LC11:
	.string	"      --version  output version information and exit\n"
	.align 8
.LC12:
	.string	"\nExamples:\n  %s f - g  Output f's contents, then standard input, then g's contents.\n  %s        Copy standard input to standard output.\n"
	.section	.rodata.str1.1
.LC13:
	.string	"["
.LC14:
	.string	"test invocation"
.LC15:
	.string	"coreutils"
.LC16:
	.string	"Multi-call invocation"
.LC17:
	.string	"sha224sum"
.LC18:
	.string	"sha2 utilities"
.LC19:
	.string	"sha256sum"
.LC20:
	.string	"sha384sum"
.LC21:
	.string	"sha512sum"
.LC22:
	.string	"\n%s online help: <%s>\n"
	.section	.rodata.str1.8
	.align 8
.LC23:
	.string	"https://www.gnu.org/software/coreutils/"
	.section	.rodata.str1.1
.LC24:
	.string	"GNU coreutils"
.LC25:
	.string	"en_"
	.section	.rodata.str1.8
	.align 8
.LC26:
	.string	"Report any translation bugs to <https://translationproject.org/team/>\n"
	.section	.rodata.str1.1
.LC27:
	.string	"Full documentation <%s%s>\n"
	.section	.rodata.str1.8
	.align 8
.LC28:
	.string	"or available locally via: info '(coreutils) %s%s'\n"
	.text
	.p2align 4
	.globl	usage
	.type	usage, @function
usage:
.LVL8:
.LFB140:
	.loc 1 83 1 is_stmt 1 view -0
	.cfi_startproc
	.loc 1 83 1 is_stmt 0 view .LVU35
	endbr64
	pushq	%r13
	.cfi_def_cfa_offset 16
	.cfi_offset 13, -16
	.loc 1 85 5 view .LVU36
	movl	$5, %edx
	.loc 1 83 1 view .LVU37
	pushq	%r12
	.cfi_def_cfa_offset 24
	.cfi_offset 12, -24
	pushq	%rbp
	.cfi_def_cfa_offset 32
	.cfi_offset 6, -32
	movl	%edi, %ebp
	pushq	%rbx
	.cfi_def_cfa_offset 40
	.cfi_offset 3, -40
	subq	$136, %rsp
	.cfi_def_cfa_offset 176
	movq	program_name(%rip), %r12
	.loc 1 83 1 view .LVU38
	movq	%fs:40, %rax
	movq	%rax, 120(%rsp)
	xorl	%eax, %eax
	.loc 1 84 3 is_stmt 1 view .LVU39
	.loc 1 84 6 is_stmt 0 view .LVU40
	testl	%edi, %edi
	je	.L14
	.loc 1 85 5 is_stmt 1 view .LVU41
	.loc 1 85 5 view .LVU42
	leaq	.LC4(%rip), %rsi
	xorl	%edi, %edi
.LVL9:
	.loc 1 85 5 is_stmt 0 view .LVU43
	call	dcgettext@PLT
.LVL10:
.LBB86:
.LBB87:
	.file 2 "/usr/include/x86_64-linux-gnu/bits/stdio2.h"
	.loc 2 100 10 view .LVU44
	movq	stderr(%rip), %rdi
	movq	%r12, %rcx
	movl	$1, %esi
.LBE87:
.LBE86:
	.loc 1 85 5 view .LVU45
	movq	%rax, %rdx
.LVL11:
.LBB89:
.LBI86:
	.loc 2 98 1 is_stmt 1 view .LVU46
.LBB88:
	.loc 2 100 3 view .LVU47
	.loc 2 100 10 is_stmt 0 view .LVU48
	xorl	%eax, %eax
.LVL12:
	.loc 2 100 10 view .LVU49
	call	__fprintf_chk@PLT
.LVL13:
.L15:
	.loc 2 100 10 view .LVU50
.LBE88:
.LBE89:
	.loc 1 124 3 is_stmt 1 view .LVU51
	movl	%ebp, %edi
	call	exit@PLT
.LVL14:
.L14:
	.loc 1 88 7 view .LVU52
	.loc 1 88 15 is_stmt 0 view .LVU53
	leaq	.LC5(%rip), %rsi
	xorl	%edi, %edi
.LVL15:
.LBB90:
.LBB91:
	.file 3 "src/system.h"
	.loc 3 636 67 view .LVU54
	leaq	.LC19(%rip), %rbx
.LBE91:
.LBE90:
	.loc 1 88 15 view .LVU55
	call	dcgettext@PLT
.LVL16:
.LBB117:
.LBB118:
	.loc 2 107 10 view .LVU56
	movq	%r12, %rdx
	movl	$1, %edi
.LBE118:
.LBE117:
	.loc 1 88 15 view .LVU57
	movq	%rax, %rsi
.LVL17:
.LBB120:
.LBI117:
	.loc 2 105 1 is_stmt 1 view .LVU58
.LBB119:
	.loc 2 107 3 view .LVU59
	.loc 2 107 10 is_stmt 0 view .LVU60
	xorl	%eax, %eax
.LVL18:
	.loc 2 107 10 view .LVU61
	call	__printf_chk@PLT
.LVL19:
	.loc 2 107 10 view .LVU62
.LBE119:
.LBE120:
	.loc 1 92 7 is_stmt 1 view .LVU63
	movq	stdout(%rip), %r12
	movl	$5, %edx
	xorl	%edi, %edi
	leaq	.LC6(%rip), %rsi
	call	dcgettext@PLT
.LVL20:
	movq	%r12, %rsi
	movq	%rax, %rdi
	call	fputs_unlocked@PLT
.LVL21:
	.loc 1 96 7 view .LVU64
.LBB121:
.LBI121:
	.loc 3 581 1 view .LVU65
.LBB122:
	.loc 3 583 3 view .LVU66
	movq	stdout(%rip), %r12
	movl	$5, %edx
	xorl	%edi, %edi
	leaq	.LC7(%rip), %rsi
	call	dcgettext@PLT
.LVL22:
	movq	%r12, %rsi
	movq	%rax, %rdi
	call	fputs_unlocked@PLT
.LVL23:
.LBE122:
.LBE121:
	.loc 1 98 7 view .LVU67
	movq	stdout(%rip), %r12
	movl	$5, %edx
	xorl	%edi, %edi
	leaq	.LC8(%rip), %rsi
	call	dcgettext@PLT
.LVL24:
	movq	%r12, %rsi
	movq	%rax, %rdi
	call	fputs_unlocked@PLT
.LVL25:
	.loc 1 107 7 view .LVU68
	movq	stdout(%rip), %r12
	movl	$5, %edx
	xorl	%edi, %edi
	leaq	.LC9(%rip), %rsi
	call	dcgettext@PLT
.LVL26:
	movq	%r12, %rsi
	movq	%rax, %rdi
	call	fputs_unlocked@PLT
.LVL27:
	.loc 1 113 7 view .LVU69
	movq	stdout(%rip), %r12
	movl	$5, %edx
	xorl	%edi, %edi
	leaq	.LC10(%rip), %rsi
	call	dcgettext@PLT
.LVL28:
	movq	%r12, %rsi
	movq	%rax, %rdi
	call	fputs_unlocked@PLT
.LVL29:
	.loc 1 114 7 view .LVU70
	movq	stdout(%rip), %r12
	movl	$5, %edx
	xorl	%edi, %edi
	leaq	.LC11(%rip), %rsi
	call	dcgettext@PLT
.LVL30:
	movq	%r12, %rsi
	movq	%rax, %rdi
	call	fputs_unlocked@PLT
.LVL31:
	.loc 1 115 7 view .LVU71
	movq	program_name(%rip), %r12
	.loc 1 115 15 is_stmt 0 view .LVU72
	movl	$5, %edx
	xorl	%edi, %edi
	leaq	.LC12(%rip), %rsi
	call	dcgettext@PLT
.LVL32:
.LBB123:
.LBB124:
	.loc 2 107 10 view .LVU73
	movq	%r12, %rcx
	movq	%r12, %rdx
	movl	$1, %edi
.LBE124:
.LBE123:
	.loc 1 115 15 view .LVU74
	movq	%rax, %rsi
.LVL33:
.LBB126:
.LBI123:
	.loc 2 105 1 is_stmt 1 view .LVU75
.LBB125:
	.loc 2 107 3 view .LVU76
	.loc 2 107 10 is_stmt 0 view .LVU77
	xorl	%eax, %eax
.LVL34:
	.loc 2 107 10 view .LVU78
	call	__printf_chk@PLT
.LVL35:
	.loc 2 107 10 view .LVU79
.LBE125:
.LBE126:
	.loc 1 122 7 is_stmt 1 view .LVU80
.LBB127:
.LBI90:
	.loc 3 634 1 view .LVU81
.LBB116:
	.loc 3 636 3 view .LVU82
	.loc 3 636 67 is_stmt 0 view .LVU83
	leaq	.LC13(%rip), %rax
	movq	%rbx, 48(%rsp)
	leaq	.LC20(%rip), %rbx
	movq	%rax, (%rsp)
	leaq	.LC14(%rip), %rax
	movq	%rax, 8(%rsp)
	leaq	.LC15(%rip), %rax
	movq	%rax, 16(%rsp)
	leaq	.LC16(%rip), %rax
	movq	%rax, 24(%rsp)
	leaq	.LC17(%rip), %rax
	movq	$0, 96(%rsp)
	movq	$0, 104(%rsp)
	.loc 3 646 3 is_stmt 1 view .LVU84
.LVL36:
	.loc 3 647 3 view .LVU85
	.loc 3 649 3 view .LVU86
	.loc 3 649 9 view .LVU87
	.loc 3 636 67 is_stmt 0 view .LVU88
	movq	%rax, 32(%rsp)
	leaq	.LC18(%rip), %rax
	movq	%rbx, 64(%rsp)
	leaq	.LC21(%rip), %rbx
	movq	%rax, 40(%rsp)
	movq	%rax, 56(%rsp)
	movq	%rax, 72(%rsp)
	movq	%rbx, 80(%rsp)
	leaq	.LC1(%rip), %rbx
	movq	%rax, 88(%rsp)
	.loc 3 647 25 view .LVU89
	movq	%rsp, %rax
.LVL37:
	.p2align 4,,10
	.p2align 3
.L17:
	.loc 3 650 5 is_stmt 1 view .LVU90
	.loc 3 649 18 is_stmt 0 view .LVU91
	movq	16(%rax), %rdi
	.loc 3 650 13 view .LVU92
	addq	$16, %rax
.LVL38:
	.loc 3 649 9 is_stmt 1 view .LVU93
	testq	%rdi, %rdi
	je	.L16
	.loc 3 649 33 is_stmt 0 view .LVU94
	movl	$4, %ecx
	movq	%rbx, %rsi
	repz cmpsb
	seta	%dl
	sbbb	$0, %dl
	.loc 3 649 28 view .LVU95
	testb	%dl, %dl
	jne	.L17
.L16:
	.loc 3 652 3 is_stmt 1 view .LVU96
	.loc 3 652 15 is_stmt 0 view .LVU97
	movq	8(%rax), %r12
	.loc 3 655 11 view .LVU98
	movl	$5, %edx
	leaq	.LC22(%rip), %rsi
	xorl	%edi, %edi
	.loc 3 652 6 view .LVU99
	testq	%r12, %r12
	je	.L18
	.loc 3 653 5 is_stmt 1 view .LVU100
.LVL39:
	.loc 3 655 3 view .LVU101
	.loc 3 655 11 is_stmt 0 view .LVU102
	call	dcgettext@PLT
.LVL40:
.LBB92:
.LBB93:
	.loc 2 107 10 view .LVU103
	leaq	.LC23(%rip), %rcx
	movl	$1, %edi
	leaq	.LC24(%rip), %rdx
.LBE93:
.LBE92:
	.loc 3 655 11 view .LVU104
	movq	%rax, %rsi
.LVL41:
.LBB97:
.LBI92:
	.loc 2 105 1 is_stmt 1 view .LVU105
.LBB94:
	.loc 2 107 3 view .LVU106
	.loc 2 107 10 is_stmt 0 view .LVU107
	xorl	%eax, %eax
.LVL42:
	.loc 2 107 10 view .LVU108
	call	__printf_chk@PLT
.LVL43:
	.loc 2 107 10 view .LVU109
.LBE94:
.LBE97:
	.loc 3 659 3 is_stmt 1 view .LVU110
	.loc 3 659 29 is_stmt 0 view .LVU111
	movl	$5, %edi
	xorl	%esi, %esi
	call	setlocale@PLT
.LVL44:
	movq	%rax, %rdi
.LVL45:
	.loc 3 660 3 is_stmt 1 view .LVU112
	.loc 3 660 6 is_stmt 0 view .LVU113
	testq	%rax, %rax
	je	.L19
	.loc 3 660 22 view .LVU114
	movl	$3, %edx
	leaq	.LC25(%rip), %rsi
	call	strncmp@PLT
.LVL46:
	.loc 3 660 19 view .LVU115
	testl	%eax, %eax
	jne	.L22
.LVL47:
.L19:
	.loc 3 669 3 is_stmt 1 view .LVU116
	.loc 3 669 11 is_stmt 0 view .LVU117
	xorl	%edi, %edi
	movl	$5, %edx
	leaq	.LC27(%rip), %rsi
	call	dcgettext@PLT
.LVL48:
.LBB98:
.LBB99:
	.loc 2 107 10 view .LVU118
	leaq	.LC1(%rip), %rcx
	leaq	.LC23(%rip), %rdx
	movl	$1, %edi
.LBE99:
.LBE98:
	.loc 3 669 11 view .LVU119
	movq	%rax, %rsi
.LVL49:
.LBB105:
.LBI98:
	.loc 2 105 1 is_stmt 1 view .LVU120
.LBB100:
	.loc 2 107 3 view .LVU121
	.loc 2 107 10 is_stmt 0 view .LVU122
	xorl	%eax, %eax
.LVL50:
	.loc 2 107 10 view .LVU123
.LBE100:
.LBE105:
	.loc 3 671 3 view .LVU124
	leaq	.LC2(%rip), %r13
.LBB106:
.LBB101:
	.loc 2 107 10 view .LVU125
	call	__printf_chk@PLT
.LVL51:
	.loc 2 107 10 view .LVU126
.LBE101:
.LBE106:
	.loc 3 671 3 is_stmt 1 view .LVU127
	cmpq	%rbx, %r12
	leaq	.LC3(%rip), %rcx
	cmovne	%rcx, %r13
.L20:
	.loc 3 671 11 is_stmt 0 view .LVU128
	xorl	%edi, %edi
	leaq	.LC28(%rip), %rsi
	movl	$5, %edx
	call	dcgettext@PLT
.LVL52:
.LBB107:
.LBB108:
	.loc 2 107 10 view .LVU129
	movq	%r13, %rcx
	movq	%r12, %rdx
	movl	$1, %edi
.LBE108:
.LBE107:
	.loc 3 671 11 view .LVU130
	movq	%rax, %rsi
.LVL53:
.LBB110:
.LBI107:
	.loc 2 105 1 is_stmt 1 view .LVU131
.LBB109:
	.loc 2 107 3 view .LVU132
	.loc 2 107 10 is_stmt 0 view .LVU133
	xorl	%eax, %eax
.LVL54:
	.loc 2 107 10 view .LVU134
	call	__printf_chk@PLT
.LVL55:
	.loc 2 107 10 view .LVU135
.LBE109:
.LBE110:
	.loc 3 673 1 view .LVU136
	jmp	.L15
.LVL56:
.L18:
	.loc 3 655 3 is_stmt 1 view .LVU137
	.loc 3 655 11 is_stmt 0 view .LVU138
	call	dcgettext@PLT
.LVL57:
.LBB111:
.LBB95:
	.loc 2 107 10 view .LVU139
	leaq	.LC23(%rip), %rcx
	movl	$1, %edi
	leaq	.LC24(%rip), %rdx
.LBE95:
.LBE111:
	.loc 3 655 11 view .LVU140
	movq	%rax, %rsi
.LVL58:
.LBB112:
	.loc 2 105 1 is_stmt 1 view .LVU141
.LBB96:
	.loc 2 107 3 view .LVU142
	.loc 2 107 10 is_stmt 0 view .LVU143
	xorl	%eax, %eax
.LVL59:
	.loc 2 107 10 view .LVU144
	call	__printf_chk@PLT
.LVL60:
	.loc 2 107 10 view .LVU145
.LBE96:
.LBE112:
	.loc 3 659 3 is_stmt 1 view .LVU146
	.loc 3 659 29 is_stmt 0 view .LVU147
	movl	$5, %edi
	xorl	%esi, %esi
	call	setlocale@PLT
.LVL61:
	movq	%rax, %rdi
.LVL62:
	.loc 3 660 3 is_stmt 1 view .LVU148
	.loc 3 660 6 is_stmt 0 view .LVU149
	testq	%rax, %rax
	je	.L21
	.loc 3 660 22 view .LVU150
	movl	$3, %edx
	leaq	.LC25(%rip), %rsi
	call	strncmp@PLT
.LVL63:
	.loc 3 660 19 view .LVU151
	testl	%eax, %eax
	jne	.L40
.L21:
	.loc 3 669 3 is_stmt 1 view .LVU152
	.loc 3 669 11 is_stmt 0 view .LVU153
	movl	$5, %edx
	leaq	.LC27(%rip), %rsi
	xorl	%edi, %edi
	call	dcgettext@PLT
.LVL64:
.LBB113:
.LBB102:
	.loc 2 107 10 view .LVU154
	leaq	.LC1(%rip), %rcx
	leaq	.LC23(%rip), %rdx
	movl	$1, %edi
.LBE102:
.LBE113:
	.loc 3 669 11 view .LVU155
	movq	%rax, %rsi
.LVL65:
.LBB114:
	.loc 2 105 1 is_stmt 1 view .LVU156
.LBB103:
	.loc 2 107 3 view .LVU157
	.loc 2 107 10 is_stmt 0 view .LVU158
	xorl	%eax, %eax
.LVL66:
	.loc 2 107 10 view .LVU159
.LBE103:
.LBE114:
	.loc 3 646 15 view .LVU160
	leaq	.LC1(%rip), %r12
.LBB115:
.LBB104:
	.loc 2 107 10 view .LVU161
	call	__printf_chk@PLT
.LVL67:
	.loc 2 107 10 view .LVU162
.LBE104:
.LBE115:
	.loc 3 671 3 is_stmt 1 view .LVU163
	leaq	.LC2(%rip), %r13
	jmp	.L20
.L40:
	.loc 3 646 15 is_stmt 0 view .LVU164
	leaq	.LC1(%rip), %r12
.LVL68:
.L22:
	.loc 3 666 7 is_stmt 1 view .LVU165
	movq	stdout(%rip), %r13
	xorl	%edi, %edi
	movl	$5, %edx
	leaq	.LC26(%rip), %rsi
	call	dcgettext@PLT
.LVL69:
	movq	%rax, %rdi
	movq	%r13, %rsi
	call	fputs_unlocked@PLT
.LVL70:
	jmp	.L19
.LBE116:
.LBE127:
	.cfi_endproc
.LFE140:
	.size	usage, .-usage
	.section	.rodata.str1.1
.LC29:
	.string	"/usr/local/share/locale"
.LC30:
	.string	"Richard M. Stallman"
.LC31:
	.string	"Torbjorn Granlund"
.LC32:
	.string	"benstuvAET"
.LC33:
	.string	"standard output"
.LC34:
	.string	"-"
.LC35:
	.string	"%s"
.LC36:
	.string	"%s: input file is output file"
.LC37:
	.string	"cannot do ioctl on %s"
.LC38:
	.string	"closing standard input"
	.section	.text.startup,"ax",@progbits
	.p2align 4
	.globl	main
	.type	main, @function
main:
.LVL71:
.LFB145:
	.loc 1 504 1 view -0
	.cfi_startproc
	.loc 1 504 1 is_stmt 0 view .LVU167
	endbr64
	pushq	%r15
	.cfi_def_cfa_offset 16
	.cfi_offset 15, -16
	movq	%rsi, %rax
	pushq	%r14
	.cfi_def_cfa_offset 24
	.cfi_offset 14, -24
	pushq	%r13
	.cfi_def_cfa_offset 32
	.cfi_offset 13, -32
	pushq	%r12
	.cfi_def_cfa_offset 40
	.cfi_offset 12, -40
	pushq	%rbp
	.cfi_def_cfa_offset 48
	.cfi_offset 6, -48
	pushq	%rbx
	.cfi_def_cfa_offset 56
	.cfi_offset 3, -56
	leaq	.L48(%rip), %rbx
	subq	$328, %rsp
	.cfi_def_cfa_offset 384
	.loc 1 504 1 view .LVU168
	movl	%edi, 44(%rsp)
	.loc 1 563 3 view .LVU169
	movq	(%rax), %rdi
.LVL72:
	.loc 1 504 1 view .LVU170
	movq	%rsi, 56(%rsp)
	movq	%fs:40, %rsi
	movq	%rsi, 312(%rsp)
	xorl	%esi, %esi
.LVL73:
	.loc 1 506 3 is_stmt 1 view .LVU171
	.loc 1 509 3 view .LVU172
	.loc 1 511 3 view .LVU173
	.loc 1 514 3 view .LVU174
	.loc 1 517 3 view .LVU175
	.loc 1 519 3 view .LVU176
	.loc 1 520 3 view .LVU177
	.loc 1 523 3 view .LVU178
	.loc 1 526 3 view .LVU179
	.loc 1 529 3 view .LVU180
	.loc 1 532 3 view .LVU181
	.loc 1 535 3 view .LVU182
	.loc 1 537 3 view .LVU183
	.loc 1 540 3 view .LVU184
	.loc 1 541 3 view .LVU185
	.loc 1 542 3 view .LVU186
	.loc 1 543 3 view .LVU187
	.loc 1 544 3 view .LVU188
	.loc 1 545 3 view .LVU189
	.loc 1 546 3 view .LVU190
	.loc 1 548 3 view .LVU191
	.loc 1 562 33 view .LVU192
	.loc 1 563 3 view .LVU193
	call	set_program_name@PLT
.LVL74:
	.loc 1 564 3 view .LVU194
	leaq	.LC3(%rip), %rsi
	movl	$6, %edi
	call	setlocale@PLT
.LVL75:
	.loc 1 565 3 view .LVU195
	leaq	.LC29(%rip), %rsi
	leaq	.LC15(%rip), %rdi
	call	bindtextdomain@PLT
.LVL76:
	.loc 1 566 3 view .LVU196
	leaq	.LC15(%rip), %rdi
	call	textdomain@PLT
.LVL77:
	.loc 1 572 3 view .LVU197
	movq	close_stdout@GOTPCREL(%rip), %rdi
	call	atexit@PLT
.LVL78:
	.loc 1 576 3 view .LVU198
	.loc 1 545 8 is_stmt 0 view .LVU199
	movb	$0, 40(%rsp)
	.loc 1 544 8 view .LVU200
	movb	$0, 15(%rsp)
	.loc 1 543 8 view .LVU201
	movb	$0, 41(%rsp)
	.loc 1 542 8 view .LVU202
	movb	$0, 124(%rsp)
	.loc 1 541 8 view .LVU203
	movb	$0, 42(%rsp)
	.loc 1 540 8 view .LVU204
	movb	$0, 14(%rsp)
.LVL79:
.L42:
	.loc 1 576 9 is_stmt 1 view .LVU205
	.loc 1 576 15 is_stmt 0 view .LVU206
	movq	56(%rsp), %rsi
	movl	44(%rsp), %edi
	xorl	%r8d, %r8d
	leaq	long_options.7202(%rip), %rcx
	leaq	.LC32(%rip), %rdx
	call	getopt_long@PLT
.LVL80:
	.loc 1 576 9 view .LVU207
	cmpl	$-1, %eax
	je	.L177
	.loc 1 579 7 is_stmt 1 view .LVU208
	cmpl	$118, %eax
	jg	.L43
	cmpl	$64, %eax
	jle	.L178
	subl	$65, %eax
.LVL81:
	.loc 1 579 7 is_stmt 0 view .LVU209
	cmpl	$53, %eax
	ja	.L43
	movslq	(%rbx,%rax,4), %rax
	addq	%rbx, %rax
	notrack jmp	*%rax
	.section	.rodata
	.align 4
	.align 4
.L48:
	.long	.L57-.L48
	.long	.L43-.L48
	.long	.L43-.L48
	.long	.L43-.L48
	.long	.L175-.L48
	.long	.L43-.L48
	.long	.L43-.L48
	.long	.L43-.L48
	.long	.L43-.L48
	.long	.L43-.L48
	.long	.L43-.L48
	.long	.L43-.L48
	.long	.L43-.L48
	.long	.L43-.L48
	.long	.L43-.L48
	.long	.L43-.L48
	.long	.L43-.L48
	.long	.L43-.L48
	.long	.L43-.L48
	.long	.L55-.L48
	.long	.L43-.L48
	.long	.L43-.L48
	.long	.L43-.L48
	.long	.L43-.L48
	.long	.L43-.L48
	.long	.L43-.L48
	.long	.L43-.L48
	.long	.L43-.L48
	.long	.L43-.L48
	.long	.L43-.L48
	.long	.L43-.L48
	.long	.L43-.L48
	.long	.L43-.L48
	.long	.L54-.L48
	.long	.L43-.L48
	.long	.L43-.L48
	.long	.L114-.L48
	.long	.L43-.L48
	.long	.L43-.L48
	.long	.L43-.L48
	.long	.L43-.L48
	.long	.L43-.L48
	.long	.L43-.L48
	.long	.L43-.L48
	.long	.L43-.L48
	.long	.L52-.L48
	.long	.L43-.L48
	.long	.L43-.L48
	.long	.L43-.L48
	.long	.L43-.L48
	.long	.L51-.L48
	.long	.L50-.L48
	.long	.L42-.L48
	.long	.L47-.L48
	.section	.text.startup
.L114:
	.loc 1 588 28 view .LVU210
	movb	$1, 15(%rsp)
.LVL82:
.L175:
	.loc 1 587 21 view .LVU211
	movb	$1, 41(%rsp)
.LVL83:
	.loc 1 587 21 view .LVU212
	jmp	.L42
.LVL84:
.L54:
	.loc 1 579 7 view .LVU213
	movb	$1, 42(%rsp)
.LVL85:
	.loc 1 579 7 view .LVU214
	movb	$1, 14(%rsp)
.LVL86:
	.loc 1 579 7 view .LVU215
	jmp	.L42
.LVL87:
.L55:
	.loc 1 623 11 is_stmt 1 view .LVU216
	.loc 1 624 11 view .LVU217
	.loc 1 623 21 is_stmt 0 view .LVU218
	movb	$1, 40(%rsp)
	.loc 1 624 11 view .LVU219
	jmp	.L42
.LVL88:
.L57:
	.loc 1 613 11 is_stmt 1 view .LVU220
	.loc 1 614 11 view .LVU221
	.loc 1 615 11 view .LVU222
	.loc 1 616 11 view .LVU223
	.loc 1 615 21 is_stmt 0 view .LVU224
	movb	$1, 40(%rsp)
	.loc 1 613 28 view .LVU225
	movb	$1, 15(%rsp)
	.loc 1 614 21 view .LVU226
	movb	$1, 41(%rsp)
	.loc 1 616 11 view .LVU227
	jmp	.L42
.LVL89:
.L47:
	.loc 1 609 11 is_stmt 1 view .LVU228
	.loc 1 610 11 view .LVU229
	.loc 1 609 28 is_stmt 0 view .LVU230
	movb	$1, 15(%rsp)
	.loc 1 610 11 view .LVU231
	jmp	.L42
.LVL90:
.L50:
	.loc 1 600 11 is_stmt 1 view .LVU232
	.loc 1 601 11 view .LVU233
	.loc 1 602 11 view .LVU234
	.loc 1 600 21 is_stmt 0 view .LVU235
	movb	$1, 40(%rsp)
	.loc 1 601 28 view .LVU236
	movb	$1, 15(%rsp)
	.loc 1 602 11 view .LVU237
	jmp	.L42
.LVL91:
.L51:
	.loc 1 596 11 is_stmt 1 view .LVU238
	.loc 1 597 11 view .LVU239
	.loc 1 596 25 is_stmt 0 view .LVU240
	movb	$1, 124(%rsp)
	.loc 1 597 11 view .LVU241
	jmp	.L42
.LVL92:
.L52:
	.loc 1 592 11 is_stmt 1 view .LVU242
	.loc 1 593 11 view .LVU243
	.loc 1 592 18 is_stmt 0 view .LVU244
	movb	$1, 14(%rsp)
	.loc 1 593 11 view .LVU245
	jmp	.L42
.LVL93:
	.p2align 4,,10
	.p2align 3
.L178:
	.loc 1 579 7 view .LVU246
	cmpl	$-131, %eax
	jne	.L179
	.loc 1 626 9 is_stmt 1 view .LVU247
	.loc 1 626 30 view .LVU248
	.loc 1 628 9 view .LVU249
	subq	$8, %rsp
	.cfi_remember_state
	.cfi_def_cfa_offset 392
	movq	stdout(%rip), %rdi
	xorl	%eax, %eax
.LVL94:
	.loc 1 628 9 is_stmt 0 view .LVU250
	movq	Version(%rip), %rcx
	pushq	$0
	.cfi_def_cfa_offset 400
	leaq	.LC30(%rip), %r9
	leaq	.LC31(%rip), %r8
	leaq	.LC24(%rip), %rdx
	leaq	.LC1(%rip), %rsi
	call	version_etc@PLT
.LVL95:
	.loc 1 628 9 is_stmt 1 view .LVU251
	xorl	%edi, %edi
	call	exit@PLT
.LVL96:
.L179:
	.cfi_restore_state
	.loc 1 579 7 is_stmt 0 view .LVU252
	cmpl	$-130, %eax
	jne	.L43
	.loc 1 626 9 is_stmt 1 view .LVU253
	xorl	%edi, %edi
	call	usage
.LVL97:
.L177:
	.loc 1 637 3 view .LVU254
.LBB170:
.LBI170:
	.file 4 "/usr/include/x86_64-linux-gnu/sys/stat.h"
	.loc 4 467 1 view .LVU255
.LBB171:
	.loc 4 469 3 view .LVU256
	.loc 4 469 10 is_stmt 0 view .LVU257
	leaq	160(%rsp), %rax
.LVL98:
	.loc 4 469 10 view .LVU258
	movl	$1, %esi
	movl	$1, %edi
	movq	%rax, %rdx
	movq	%rax, 112(%rsp)
	call	__fxstat@PLT
.LVL99:
	.loc 4 469 10 view .LVU259
.LBE171:
.LBE170:
	.loc 1 637 6 view .LVU260
	testl	%eax, %eax
	js	.L180
	.loc 1 640 3 is_stmt 1 view .LVU261
.LBB172:
.LBI172:
	.file 5 "src/ioblksize.h"
	.loc 5 75 1 view .LVU262
.LBB173:
	.loc 5 77 3 view .LVU263
	.loc 5 77 10 is_stmt 0 view .LVU264
	movq	216(%rsp), %r14
	movabsq	$2305843009213562880, %rax
	leaq	-131072(%r14), %rdx
	cmpq	%rax, %rdx
	movl	$131072, %eax
	cmova	%rax, %r14
.LBE173:
.LBE172:
	.loc 1 511 22 view .LVU265
	call	getpagesize@PLT
.LVL100:
	movslq	optind(%rip), %rsi
	.loc 1 535 8 view .LVU266
	movb	$0, 127(%rsp)
	.loc 1 655 10 view .LVU267
	leaq	.LC34(%rip), %rdi
	.loc 1 511 10 view .LVU268
	cltq
	.loc 1 655 10 view .LVU269
	movq	%rdi, infile(%rip)
	.loc 1 511 10 view .LVU270
	movq	%rax, 88(%rsp)
.LVL101:
	.loc 1 641 3 is_stmt 1 view .LVU271
	.loc 1 641 11 is_stmt 0 view .LVU272
	movq	160(%rsp), %rax
	movq	%rsi, 80(%rsp)
	movq	%rax, 128(%rsp)
.LVL102:
	.loc 1 642 3 is_stmt 1 view .LVU273
	.loc 1 642 11 is_stmt 0 view .LVU274
	movq	168(%rsp), %rax
.LVL103:
	.loc 1 519 8 view .LVU275
	movb	$1, 125(%rsp)
	.loc 1 642 11 view .LVU276
	movq	%rax, 136(%rsp)
.LVL104:
	.loc 1 643 3 is_stmt 1 view .LVU277
	.loc 1 643 15 is_stmt 0 view .LVU278
	movl	184(%rsp), %eax
.LVL105:
	.loc 1 643 15 view .LVU279
	andl	$61440, %eax
	movl	%eax, 120(%rsp)
.LVL106:
	.loc 1 645 3 is_stmt 1 view .LVU280
	movzbl	14(%rsp), %eax
.LVL107:
	.loc 1 645 3 is_stmt 0 view .LVU281
	orb	41(%rsp), %al
	movb	%al, 126(%rsp)
	.loc 1 655 3 is_stmt 1 view .LVU282
	.loc 1 656 3 view .LVU283
.LVL108:
	.loc 1 658 3 view .LVU284
	.loc 1 660 7 view .LVU285
	.loc 1 660 10 is_stmt 0 view .LVU286
	cmpl	%esi, 44(%rsp)
	jle	.L62
.LVL109:
	.p2align 4,,10
	.p2align 3
.L61:
	.loc 1 661 9 is_stmt 1 view .LVU287
	.loc 1 661 22 is_stmt 0 view .LVU288
	movq	56(%rsp), %rax
	movq	80(%rsp), %rsi
	movq	(%rax,%rsi,8), %rdi
	.loc 1 661 16 view .LVU289
	movq	%rdi, infile(%rip)
.L62:
	.loc 1 663 7 is_stmt 1 view .LVU290
	.loc 1 663 11 is_stmt 0 view .LVU291
	cmpb	$45, (%rdi)
	je	.L181
.L64:
	.loc 1 672 11 is_stmt 1 view .LVU292
.LVL110:
.LBB174:
.LBI174:
	.file 6 "/usr/include/x86_64-linux-gnu/bits/fcntl2.h"
	.loc 6 41 1 view .LVU293
.LBB175:
	.loc 6 43 3 view .LVU294
	.loc 6 46 3 view .LVU295
	.loc 6 48 7 view .LVU296
	.loc 6 53 7 view .LVU297
	.loc 6 53 14 is_stmt 0 view .LVU298
	xorl	%esi, %esi
	xorl	%eax, %eax
	call	open@PLT
.LVL111:
	.loc 6 53 14 view .LVU299
.LBE175:
.LBE174:
	.loc 1 672 22 view .LVU300
	movl	%eax, input_desc(%rip)
.LBB177:
.LBB176:
	.loc 6 53 14 view .LVU301
	movl	%eax, %ebp
.LVL112:
	.loc 6 53 14 view .LVU302
.LBE176:
.LBE177:
	.loc 1 673 11 is_stmt 1 view .LVU303
	.loc 1 673 14 is_stmt 0 view .LVU304
	testl	%eax, %eax
	js	.L176
.L65:
.LVL113:
	.loc 1 681 7 is_stmt 1 view .LVU305
.LBB178:
.LBI178:
	.loc 4 467 1 view .LVU306
.LBB179:
	.loc 4 469 3 view .LVU307
	.loc 4 469 10 is_stmt 0 view .LVU308
	movq	112(%rsp), %rdx
	movl	%ebp, %esi
	movl	$1, %edi
	call	__fxstat@PLT
.LVL114:
	.loc 4 469 10 view .LVU309
.LBE179:
.LBE178:
	.loc 1 681 10 view .LVU310
	testl	%eax, %eax
	js	.L182
	.loc 1 687 7 is_stmt 1 view .LVU311
.LBB180:
.LBI180:
	.loc 5 75 1 view .LVU312
.LBB181:
	.loc 5 77 3 view .LVU313
	.loc 5 77 10 is_stmt 0 view .LVU314
	movq	216(%rsp), %rdi
.LBE181:
.LBE180:
	.loc 1 689 7 view .LVU315
	movl	$2, %ecx
.LBB184:
.LBB182:
	.loc 5 77 10 view .LVU316
	movabsq	$2305843009213562880, %rax
	leaq	-131072(%rdi), %rdx
	cmpq	%rax, %rdx
	movl	$131072, %eax
	cmovbe	%rdi, %rax
.LBE182:
.LBE184:
	.loc 1 689 7 view .LVU317
	xorl	%edx, %edx
	xorl	%esi, %esi
	movl	%ebp, %edi
.LBB185:
.LBB183:
	.loc 5 77 10 view .LVU318
	movq	%rax, 48(%rsp)
.LVL115:
	.loc 5 77 10 view .LVU319
.LBE183:
.LBE185:
	.loc 1 689 7 is_stmt 1 view .LVU320
	call	fdadvise@PLT
.LVL116:
	.loc 1 695 7 view .LVU321
	.loc 1 695 10 is_stmt 0 view .LVU322
	cmpl	$32768, 120(%rsp)
	je	.L183
.L70:
	.loc 1 707 7 is_stmt 1 view .LVU323
	movq	88(%rsp), %rax
	.loc 1 707 10 is_stmt 0 view .LVU324
	cmpb	$0, 126(%rsp)
	leaq	-1(%rax), %r13
	jne	.L71
	movzbl	15(%rsp), %ebp
	orb	40(%rsp), %bpl
	.loc 1 707 11 discriminator 1 view .LVU325
	orb	124(%rsp), %bpl
	je	.L184
.L71:
	.loc 1 717 11 is_stmt 1 view .LVU326
	.loc 1 717 19 is_stmt 0 view .LVU327
	movq	88(%rsp), %rbx
	movq	48(%rsp), %r15
	movq	%rbx, %rdi
	addq	%r15, %rdi
	call	xmalloc@PLT
.LVL117:
	movq	%rax, %rbp
	movq	%rax, 96(%rsp)
.LVL118:
	.loc 1 741 11 is_stmt 1 view .LVU328
	.loc 1 741 20 is_stmt 0 view .LVU329
	leaq	18(%rbx,%r14), %rax
.LVL119:
	.loc 1 741 20 view .LVU330
	leaq	(%rax,%r15,4), %rdi
	call	xmalloc@PLT
.LVL120:
.LBB186:
.LBB187:
	.loc 3 505 37 view .LVU331
	xorl	%edx, %edx
.LBE187:
.LBE186:
.LBB195:
.LBB196:
	.loc 1 263 8 view .LVU332
	movb	$1, 43(%rsp)
.LBE196:
.LBE195:
.LBB238:
.LBB188:
	.loc 3 504 15 view .LVU333
	leaq	(%rax,%r13), %r12
.LBE188:
.LBE238:
	.loc 1 741 20 view .LVU334
	movq	%rax, 104(%rsp)
.LVL121:
	.loc 1 744 11 is_stmt 1 view .LVU335
.LBB239:
.LBI186:
	.loc 3 501 1 view .LVU336
.LBB189:
	.loc 3 503 3 view .LVU337
	.loc 3 504 3 view .LVU338
	.loc 3 505 3 view .LVU339
.LBE189:
.LBE239:
.LBB240:
.LBB241:
	.loc 3 504 15 is_stmt 0 view .LVU340
	addq	%rbp, %r13
.LBE241:
.LBE240:
.LBB245:
.LBB230:
	.loc 1 258 7 view .LVU341
	movl	newlines2(%rip), %ebp
.LVL122:
	.loc 1 258 7 view .LVU342
.LBE230:
.LBE245:
.LBB246:
.LBB190:
	.loc 3 505 37 view .LVU343
	movq	%r12, %rax
.LVL123:
	.loc 3 505 37 view .LVU344
	divq	%rbx
.LBE190:
.LBE246:
.LBB247:
.LBB242:
	movq	%r13, %rax
.LBE242:
.LBE247:
.LBB248:
.LBB191:
	.loc 3 505 10 view .LVU345
	subq	%rdx, %r12
.LVL124:
	.loc 3 505 10 view .LVU346
.LBE191:
.LBE248:
.LBB249:
.LBI240:
	.loc 3 501 1 is_stmt 1 view .LVU347
.LBB243:
	.loc 3 503 3 view .LVU348
	.loc 3 504 3 view .LVU349
	.loc 3 505 3 view .LVU350
	.loc 3 505 37 is_stmt 0 view .LVU351
	xorl	%edx, %edx
	divq	%rbx
.LVL125:
	.loc 3 505 37 view .LVU352
	leaq	(%r12,%r14), %rax
.LBE243:
.LBE249:
.LBB250:
.LBB192:
	.loc 3 505 10 view .LVU353
	movq	%r12, %r15
	movq	%rax, 72(%rsp)
.LBE192:
.LBE250:
.LBB251:
.LBB244:
	subq	%rdx, %r13
.LVL126:
	.loc 3 505 10 view .LVU354
.LBE244:
.LBE251:
.LBB252:
.LBI195:
	.loc 1 216 1 is_stmt 1 view .LVU355
.LBB231:
	.loc 1 238 3 view .LVU356
	.loc 1 241 3 view .LVU357
	.loc 1 245 3 view .LVU358
	.loc 1 248 3 view .LVU359
	.loc 1 251 3 view .LVU360
	.loc 1 258 3 view .LVU361
	.loc 1 263 3 view .LVU362
	.loc 1 269 3 view .LVU363
	.loc 1 270 3 view .LVU364
	.loc 1 270 8 is_stmt 0 view .LVU365
	leaq	1(%r13), %rbx
	.loc 1 269 7 view .LVU366
	movq	%r13, 16(%rsp)
	.loc 1 270 8 view .LVU367
	movq	%rbx, 64(%rsp)
.LVL127:
	.loc 1 272 3 is_stmt 1 view .LVU368
	.loc 1 272 3 is_stmt 0 view .LVU369
	movq	%r13, 24(%rsp)
	movl	%ebp, %r13d
.LVL128:
	.loc 1 272 3 view .LVU370
	movq	%rbx, %rbp
.LVL129:
	.p2align 4,,10
	.p2align 3
.L76:
	.loc 1 274 3 is_stmt 1 view .LVU371
	.loc 1 276 7 view .LVU372
	.loc 1 280 11 view .LVU373
	.loc 1 280 14 is_stmt 0 view .LVU374
	cmpq	%r15, 72(%rsp)
	jbe	.L185
.L77:
	.loc 1 302 11 is_stmt 1 view .LVU375
	.loc 1 302 14 is_stmt 0 view .LVU376
	cmpq	16(%rsp), %rbp
	jbe	.L80
.L193:
.LBB197:
	.loc 1 304 15 is_stmt 1 view .LVU377
.LVL130:
	.loc 1 306 15 view .LVU378
	.loc 1 306 19 is_stmt 0 view .LVU379
	movl	$0, 156(%rsp)
	.loc 1 312 15 is_stmt 1 view .LVU380
	.loc 1 312 18 is_stmt 0 view .LVU381
	cmpb	$0, 43(%rsp)
	jne	.L186
.LVL131:
.L81:
	.loc 1 337 15 is_stmt 1 view .LVU382
	.loc 1 338 17 view .LVU383
.LBB198:
.LBI198:
	.loc 1 197 1 view .LVU384
.LBB199:
	.loc 1 199 3 view .LVU385
	.loc 1 200 3 view .LVU386
	.loc 1 200 6 is_stmt 0 view .LVU387
	movq	%r15, %rbx
	movl	input_desc(%rip), %ebp
	subq	%r12, %rbx
.LVL132:
	.loc 1 200 6 view .LVU388
	jne	.L187
.LVL133:
.L85:
	.loc 1 200 6 view .LVU389
.LBE199:
.LBE198:
	.loc 1 342 15 is_stmt 1 view .LVU390
	.loc 1 342 24 is_stmt 0 view .LVU391
	movq	48(%rsp), %rdx
	movq	24(%rsp), %rsi
	movl	%ebp, %edi
	call	safe_read@PLT
.LVL134:
	.loc 1 343 15 is_stmt 1 view .LVU392
	.loc 1 343 18 is_stmt 0 view .LVU393
	cmpq	$-1, %rax
	je	.L188
	.loc 1 350 15 is_stmt 1 view .LVU394
	.loc 1 350 18 is_stmt 0 view .LVU395
	testq	%rax, %rax
	je	.L189
	.loc 1 360 15 is_stmt 1 view .LVU396
.LVL135:
	.loc 1 361 15 view .LVU397
	.loc 1 361 19 is_stmt 0 view .LVU398
	movq	24(%rsp), %rcx
.LBE197:
	movq	64(%rsp), %rbp
.LBB214:
	addq	%rcx, %rax
.LVL136:
	.loc 1 361 19 view .LVU399
	movq	%rax, 16(%rsp)
.LVL137:
	.loc 1 362 15 is_stmt 1 view .LVU400
	.loc 1 362 20 is_stmt 0 view .LVU401
	movb	$10, (%rax)
	.loc 1 360 20 view .LVU402
	movq	%rcx, %rax
.LVL138:
.L92:
	.loc 1 360 20 view .LVU403
.LBE214:
	.loc 1 408 11 is_stmt 1 view .LVU404
	.loc 1 408 14 is_stmt 0 view .LVU405
	movzbl	(%rax), %ebx
.LVL139:
.L95:
	.loc 1 410 13 is_stmt 1 view .LVU406
	.loc 1 410 7 is_stmt 0 view .LVU407
	cmpb	$10, %bl
	je	.L76
	.loc 1 414 7 is_stmt 1 view .LVU408
	.loc 1 414 10 is_stmt 0 view .LVU409
	testl	%r13d, %r13d
	js	.L98
	cmpb	$0, 14(%rsp)
	je	.L98
	.loc 1 416 11 is_stmt 1 view .LVU410
	call	next_line_num
.LVL140:
	.loc 1 417 11 view .LVU411
.LBB215:
.LBI215:
	.file 7 "/usr/include/x86_64-linux-gnu/bits/string_fortified.h"
	.loc 7 95 1 view .LVU412
.LBB216:
	.loc 7 97 3 view .LVU413
	.loc 7 97 10 is_stmt 0 view .LVU414
	movq	line_num_print(%rip), %rsi
	movq	%r15, %rdi
	call	stpcpy@PLT
.LVL141:
	.loc 7 97 10 view .LVU415
	movq	%rax, %r15
.LVL142:
.L98:
	.loc 7 97 10 view .LVU416
.LBE216:
.LBE215:
	.loc 1 428 7 is_stmt 1 view .LVU417
	.loc 1 428 10 is_stmt 0 view .LVU418
	cmpb	$0, 15(%rsp)
	je	.L99
	movzbl	40(%rsp), %ecx
	xorl	$1, %ecx
	jmp	.L107
	.p2align 4,,10
	.p2align 3
.L190:
	.loc 1 434 19 is_stmt 1 view .LVU419
	.loc 1 434 22 is_stmt 0 view .LVU420
	cmpb	$126, %bl
	ja	.L101
	.loc 1 435 21 is_stmt 1 view .LVU421
	.loc 1 435 30 is_stmt 0 view .LVU422
	movb	%bl, (%r15)
	.loc 1 435 27 view .LVU423
	leaq	1(%r15), %rax
.LVL143:
.L102:
	.loc 1 475 15 is_stmt 1 view .LVU424
	.loc 1 475 18 is_stmt 0 view .LVU425
	movzbl	0(%rbp), %ebx
	.loc 1 475 25 view .LVU426
	addq	$1, %rbp
.LVL144:
	.loc 1 430 17 is_stmt 1 view .LVU427
	.loc 1 432 18 is_stmt 0 view .LVU428
	movq	%rax, %r15
.LVL145:
.L107:
	.loc 1 430 11 is_stmt 1 view .LVU429
	.loc 1 432 15 view .LVU430
	.loc 1 432 18 is_stmt 0 view .LVU431
	cmpb	$31, %bl
	ja	.L190
	.loc 1 462 20 is_stmt 1 view .LVU432
	.loc 1 462 23 is_stmt 0 view .LVU433
	cmpb	$9, %bl
	jne	.L106
	testb	%cl, %cl
	je	.L106
	.loc 1 463 17 is_stmt 1 view .LVU434
	.loc 1 463 26 is_stmt 0 view .LVU435
	movb	$9, (%r15)
	.loc 1 463 23 view .LVU436
	leaq	1(%r15), %rax
.LVL146:
	.loc 1 463 23 view .LVU437
	jmp	.L102
.LVL147:
	.p2align 4,,10
	.p2align 3
.L191:
	.loc 1 485 19 is_stmt 1 view .LVU438
	.loc 1 486 19 view .LVU439
	.loc 1 485 28 is_stmt 0 view .LVU440
	movl	$18782, %edx
	.loc 1 486 25 view .LVU441
	leaq	2(%r15), %rax
.LVL148:
	.loc 1 485 28 view .LVU442
	movw	%dx, (%r15)
.L109:
	.loc 1 496 15 is_stmt 1 view .LVU443
	.loc 1 496 18 is_stmt 0 view .LVU444
	movzbl	0(%rbp), %ebx
.LVL149:
	.loc 1 496 25 view .LVU445
	addq	$1, %rbp
.LVL150:
	.loc 1 481 17 is_stmt 1 view .LVU446
	.loc 1 483 18 is_stmt 0 view .LVU447
	movq	%rax, %r15
.LVL151:
.L99:
	.loc 1 481 11 is_stmt 1 view .LVU448
	.loc 1 483 15 view .LVU449
	.loc 1 483 18 is_stmt 0 view .LVU450
	cmpb	$9, %bl
	jne	.L108
	.loc 1 483 18 view .LVU451
	cmpb	$0, 40(%rsp)
	jne	.L191
.L108:
	.loc 1 488 20 is_stmt 1 view .LVU452
	.loc 1 488 23 is_stmt 0 view .LVU453
	cmpb	$10, %bl
	je	.L121
	.loc 1 489 17 is_stmt 1 view .LVU454
	.loc 1 489 26 is_stmt 0 view .LVU455
	movb	%bl, (%r15)
	.loc 1 489 23 view .LVU456
	leaq	1(%r15), %rax
.LVL152:
	.loc 1 489 23 view .LVU457
	jmp	.L109
.LVL153:
	.p2align 4,,10
	.p2align 3
.L106:
	.loc 1 464 20 is_stmt 1 view .LVU458
	.loc 1 464 23 is_stmt 0 view .LVU459
	cmpb	$10, %bl
	je	.L121
	.loc 1 471 19 is_stmt 1 view .LVU460
.LVL154:
	.loc 1 472 33 is_stmt 0 view .LVU461
	addl	$64, %ebx
.LVL155:
	.loc 1 471 28 view .LVU462
	movb	$94, (%r15)
	.loc 1 472 19 is_stmt 1 view .LVU463
	.loc 1 472 25 is_stmt 0 view .LVU464
	leaq	2(%r15), %rax
.LVL156:
	.loc 1 472 33 view .LVU465
	movb	%bl, 1(%r15)
	jmp	.L102
.LVL157:
	.p2align 4,,10
	.p2align 3
.L121:
	.loc 1 492 28 view .LVU466
	movl	$-1, %r13d
.LVL158:
	.loc 1 274 3 is_stmt 1 view .LVU467
	.loc 1 276 7 view .LVU468
	.loc 1 280 11 view .LVU469
	.loc 1 280 14 is_stmt 0 view .LVU470
	cmpq	%r15, 72(%rsp)
	ja	.L77
.LVL159:
.L185:
	.loc 1 280 14 view .LVU471
.LBE231:
.LBE252:
.LBB253:
.LBB193:
	.loc 3 505 10 view .LVU472
	movq	%r12, %rbx
	.p2align 4,,10
	.p2align 3
.L79:
.LVL160:
	.loc 3 505 10 view .LVU473
.LBE193:
.LBE253:
.LBB254:
.LBB232:
.LBB217:
	.loc 1 283 15 is_stmt 1 view .LVU474
	.loc 1 284 15 view .LVU475
	.loc 1 286 19 view .LVU476
	.loc 1 286 23 is_stmt 0 view .LVU477
	movq	%r14, %rdx
	movq	%rbx, %rsi
	movl	$1, %edi
	call	full_write@PLT
.LVL161:
	.loc 1 286 22 view .LVU478
	cmpq	%rax, %r14
	jne	.L192
	.loc 1 288 19 is_stmt 1 view .LVU479
	.loc 1 288 22 is_stmt 0 view .LVU480
	addq	%r14, %rbx
.LVL162:
	.loc 1 289 19 is_stmt 1 view .LVU481
	.loc 1 289 43 is_stmt 0 view .LVU482
	movq	%r15, %rdx
	subq	%rbx, %rdx
.LVL163:
	.loc 1 291 21 is_stmt 1 view .LVU483
	.loc 1 291 15 is_stmt 0 view .LVU484
	cmpq	%rdx, %r14
	jbe	.L79
	.loc 1 296 15 is_stmt 1 view .LVU485
.LVL164:
.LBB218:
.LBI218:
	.loc 7 38 1 view .LVU486
.LBB219:
	.loc 7 40 3 view .LVU487
	.loc 7 40 10 is_stmt 0 view .LVU488
	movq	%rbx, %rsi
	movq	%r12, %rdi
	movq	%rdx, 32(%rsp)
	call	memmove@PLT
.LVL165:
	.loc 7 40 10 view .LVU489
.LBE219:
.LBE218:
	.loc 1 297 15 is_stmt 1 view .LVU490
	.loc 1 297 30 is_stmt 0 view .LVU491
	movq	32(%rsp), %rdx
	leaq	(%r12,%rdx), %r15
.LVL166:
	.loc 1 297 30 view .LVU492
.LBE217:
	.loc 1 302 11 is_stmt 1 view .LVU493
	.loc 1 302 14 is_stmt 0 view .LVU494
	cmpq	16(%rsp), %rbp
	ja	.L193
.LVL167:
.L80:
	.loc 1 371 15 is_stmt 1 view .LVU495
	.loc 1 371 18 is_stmt 0 view .LVU496
	addl	$1, %r13d
.LVL168:
	.loc 1 371 18 view .LVU497
	leaq	1(%rbp), %rdx
	testl	%r13d, %r13d
	jle	.L93
	.loc 1 373 19 is_stmt 1 view .LVU498
	.loc 1 373 22 is_stmt 0 view .LVU499
	cmpl	$1, %r13d
	je	.L94
	.loc 1 378 23 is_stmt 1 view .LVU500
.LVL169:
	.loc 1 383 23 view .LVU501
	.loc 1 383 26 is_stmt 0 view .LVU502
	cmpb	$0, 124(%rsp)
	.loc 1 378 32 view .LVU503
	movl	$2, %r13d
	.loc 1 383 26 view .LVU504
	jne	.L194
.LVL170:
.L94:
	.loc 1 392 19 is_stmt 1 view .LVU505
	.loc 1 392 22 is_stmt 0 view .LVU506
	cmpb	$0, 42(%rsp)
	jne	.L93
	cmpb	$0, 14(%rsp)
	je	.L93
	movq	%rdx, 32(%rsp)
	.loc 1 394 23 is_stmt 1 view .LVU507
	call	next_line_num
.LVL171:
	.loc 1 395 23 view .LVU508
.LBB221:
.LBI221:
	.loc 7 95 1 view .LVU509
.LBB222:
	.loc 7 97 3 view .LVU510
	.loc 7 97 10 is_stmt 0 view .LVU511
	movq	line_num_print(%rip), %rsi
	movq	%r15, %rdi
	call	stpcpy@PLT
.LVL172:
	.loc 7 97 10 view .LVU512
	movq	32(%rsp), %rdx
	movq	%rax, %r15
.LVL173:
	.p2align 4,,10
	.p2align 3
.L93:
	.loc 7 97 10 view .LVU513
.LBE222:
.LBE221:
	.loc 1 401 15 is_stmt 1 view .LVU514
	.loc 1 401 18 is_stmt 0 view .LVU515
	cmpb	$0, 41(%rsp)
	leaq	1(%r15), %rax
	je	.L96
	.loc 1 402 17 is_stmt 1 view .LVU516
.LVL174:
	.loc 1 402 17 is_stmt 0 view .LVU517
	leaq	2(%r15), %rcx
	.loc 1 402 26 view .LVU518
	movb	$36, (%r15)
	.loc 1 402 23 view .LVU519
	movq	%rax, %r15
	.loc 1 402 26 view .LVU520
	movq	%rcx, %rax
.LVL175:
.L96:
	.loc 1 406 15 is_stmt 1 view .LVU521
	.loc 1 406 24 is_stmt 0 view .LVU522
	movb	$10, (%r15)
	.loc 1 406 21 view .LVU523
	movq	%rax, %r15
.LVL176:
	.loc 1 406 24 view .LVU524
	movq	%rbp, %rax
	movq	%rdx, %rbp
.LVL177:
	.loc 1 406 24 view .LVU525
	jmp	.L92
.LVL178:
	.p2align 4,,10
	.p2align 3
.L101:
	.loc 1 436 24 is_stmt 1 view .LVU526
	.loc 1 436 27 is_stmt 0 view .LVU527
	cmpb	$127, %bl
	je	.L195
	.loc 1 443 23 is_stmt 1 view .LVU528
.LVL179:
	.loc 1 444 23 view .LVU529
	.loc 1 443 32 is_stmt 0 view .LVU530
	movl	$11597, %edi
	movw	%di, (%r15)
	.loc 1 445 23 is_stmt 1 view .LVU531
	.loc 1 445 26 is_stmt 0 view .LVU532
	cmpb	$-97, %bl
	jbe	.L104
	.loc 1 447 27 is_stmt 1 view .LVU533
	.loc 1 447 30 is_stmt 0 view .LVU534
	cmpb	$-1, %bl
	je	.L105
	.loc 1 448 29 is_stmt 1 view .LVU535
	.loc 1 448 43 is_stmt 0 view .LVU536
	addl	$-128, %ebx
.LVL180:
	.loc 1 448 35 view .LVU537
	leaq	3(%r15), %rax
.LVL181:
	.loc 1 448 43 view .LVU538
	movb	%bl, 2(%r15)
	jmp	.L102
.LVL182:
	.p2align 4,,10
	.p2align 3
.L105:
	.loc 1 451 31 is_stmt 1 view .LVU539
	.loc 1 452 31 view .LVU540
	.loc 1 451 40 is_stmt 0 view .LVU541
	movl	$16222, %esi
	.loc 1 452 37 view .LVU542
	leaq	4(%r15), %rax
.LVL183:
	.loc 1 451 40 view .LVU543
	movw	%si, 2(%r15)
	jmp	.L102
.LVL184:
	.p2align 4,,10
	.p2align 3
.L104:
	.loc 1 457 27 is_stmt 1 view .LVU544
	.loc 1 458 47 is_stmt 0 view .LVU545
	subl	$64, %ebx
.LVL185:
	.loc 1 457 36 view .LVU546
	movb	$94, 2(%r15)
	.loc 1 458 27 is_stmt 1 view .LVU547
	.loc 1 458 33 is_stmt 0 view .LVU548
	leaq	4(%r15), %rax
.LVL186:
	.loc 1 458 47 view .LVU549
	movb	%bl, 3(%r15)
	jmp	.L102
.LVL187:
	.p2align 4,,10
	.p2align 3
.L195:
	.loc 1 438 23 is_stmt 1 view .LVU550
	.loc 1 439 23 view .LVU551
	.loc 1 438 32 is_stmt 0 view .LVU552
	movl	$16222, %r8d
	.loc 1 439 29 view .LVU553
	leaq	2(%r15), %rax
.LVL188:
	.loc 1 438 32 view .LVU554
	movw	%r8w, (%r15)
	jmp	.L102
.LVL189:
	.p2align 4,,10
	.p2align 3
.L186:
.LBB223:
	.loc 1 313 22 view .LVU555
	movl	input_desc(%rip), %ebp
.LVL190:
	.loc 1 313 22 view .LVU556
	xorl	%eax, %eax
	movl	$21531, %esi
	leaq	156(%rsp), %rdx
	movl	%ebp, %edi
	call	ioctl@PLT
.LVL191:
	.loc 1 313 19 view .LVU557
	testl	%eax, %eax
	js	.L196
.LVL192:
.L82:
	.loc 1 333 15 is_stmt 1 view .LVU558
	.loc 1 333 18 is_stmt 0 view .LVU559
	movl	156(%rsp), %r9d
	testl	%r9d, %r9d
	jne	.L85
	jmp	.L81
	.p2align 4,,10
	.p2align 3
.L196:
	.loc 1 321 19 is_stmt 1 view .LVU560
	.loc 1 321 23 is_stmt 0 view .LVU561
	call	__errno_location@PLT
.LVL193:
	movl	(%rax), %ecx
	.loc 1 321 43 view .LVU562
	cmpl	$95, %ecx
	sete	%r10b
	.loc 1 322 42 view .LVU563
	cmpl	$38, %ecx
	ja	.L83
	movabsq	$274916179968, %rdx
	shrq	%cl, %rdx
	andl	$1, %edx
	orl	%edx, %r10d
.L83:
	.loc 1 323 23 view .LVU564
	testb	%r10b, %r10b
	je	.L197
	.loc 1 324 34 view .LVU565
	movb	$0, 43(%rsp)
.LVL194:
	.loc 1 324 34 view .LVU566
	jmp	.L82
.LVL195:
	.p2align 4,,10
	.p2align 3
.L194:
	.loc 1 324 34 view .LVU567
.LBE223:
	.loc 1 385 27 is_stmt 1 view .LVU568
	.loc 1 385 30 is_stmt 0 view .LVU569
	movzbl	0(%rbp), %ebx
.LVL196:
	.loc 1 386 27 is_stmt 1 view .LVU570
	.loc 1 385 37 is_stmt 0 view .LVU571
	movq	%rdx, %rbp
.LVL197:
	.loc 1 386 27 view .LVU572
	jmp	.L95
.LVL198:
	.p2align 4,,10
	.p2align 3
.L187:
.LBB224:
.LBB202:
.LBB200:
	.loc 1 202 7 is_stmt 1 view .LVU573
	.loc 1 202 11 is_stmt 0 view .LVU574
	movq	%rbx, %rdx
	movq	%r12, %rsi
	movl	$1, %edi
	call	full_write@PLT
.LVL199:
	.loc 1 202 10 view .LVU575
	cmpq	%rax, %rbx
	jne	.L87
	movl	input_desc(%rip), %ebp
.LBE200:
.LBE202:
.LBE224:
.LBE232:
.LBE254:
.LBB255:
.LBB194:
	.loc 3 505 10 view .LVU576
	movq	%r12, %r15
.LVL200:
	.loc 3 505 10 view .LVU577
	jmp	.L85
.LVL201:
	.p2align 4,,10
	.p2align 3
.L181:
	.loc 3 505 10 view .LVU578
.LBE194:
.LBE255:
	.loc 1 663 11 view .LVU579
	movzbl	1(%rdi), %ebp
	.loc 1 663 10 view .LVU580
	testl	%ebp, %ebp
	jne	.L64
	.loc 1 665 11 is_stmt 1 view .LVU581
.LVL202:
	.loc 1 666 11 view .LVU582
	.loc 1 666 22 is_stmt 0 view .LVU583
	movl	$0, input_desc(%rip)
	.loc 1 667 11 is_stmt 1 view .LVU584
	.loc 1 665 27 is_stmt 0 view .LVU585
	movb	$1, 127(%rsp)
	jmp	.L65
.LVL203:
.L188:
.LBB256:
.LBB233:
.LBB225:
	.loc 1 345 19 view .LVU586
	movq	infile(%rip), %rdx
	xorl	%edi, %edi
	movl	$3, %esi
	movl	%r13d, %ebp
	.loc 1 345 19 is_stmt 1 view .LVU587
	call	quotearg_n_style_colon@PLT
.LVL204:
	.loc 1 345 19 is_stmt 0 view .LVU588
	movq	%rax, %r13
.LVL205:
	.loc 1 345 29 view .LVU589
	call	__errno_location@PLT
.LVL206:
	.loc 1 345 19 view .LVU590
	xorl	%edi, %edi
	movq	%r13, %rcx
	leaq	.LC35(%rip), %rdx
	movl	(%rax), %esi
	xorl	%eax, %eax
	call	error@PLT
.LVL207:
	.loc 1 346 19 is_stmt 1 view .LVU591
.LBB203:
.LBI203:
	.loc 1 197 1 view .LVU592
.LBB204:
	.loc 1 199 3 view .LVU593
	.loc 1 200 3 view .LVU594
	.loc 1 200 6 is_stmt 0 view .LVU595
	subq	%r12, %r15
.LVL208:
	.loc 1 200 6 view .LVU596
	jne	.L198
.L89:
.LVL209:
	.loc 1 200 6 view .LVU597
.LBE204:
.LBE203:
	.loc 1 347 19 is_stmt 1 view .LVU598
	.loc 1 347 29 is_stmt 0 view .LVU599
	movl	%ebp, newlines2(%rip)
	.loc 1 348 19 is_stmt 1 view .LVU600
	.loc 1 348 26 is_stmt 0 view .LVU601
	xorl	%r10d, %r10d
.LVL210:
.L84:
	.loc 1 348 26 view .LVU602
.LBE225:
.LBE233:
.LBE256:
	.loc 1 749 11 is_stmt 1 view .LVU603
	movq	104(%rsp), %rdi
	andb	%r10b, 125(%rsp)
.LVL211:
	.loc 1 749 11 is_stmt 0 view .LVU604
	call	free@PLT
.LVL212:
.L75:
	.loc 1 752 7 is_stmt 1 view .LVU605
	movq	96(%rsp), %rdi
	call	free@PLT
.LVL213:
.L68:
	.loc 1 755 7 view .LVU606
	.loc 1 755 12 is_stmt 0 view .LVU607
	movq	infile(%rip), %rax
	cmpb	$45, (%rax)
	je	.L199
.L122:
	.loc 1 755 35 discriminator 1 view .LVU608
	movl	input_desc(%rip), %edi
	call	close@PLT
.LVL214:
	.loc 1 755 32 discriminator 1 view .LVU609
	testl	%eax, %eax
	js	.L176
.LVL215:
.L66:
	.loc 1 761 9 is_stmt 1 view .LVU610
	.loc 1 761 9 is_stmt 0 view .LVU611
	addq	$1, 80(%rsp)
.LVL216:
	.loc 1 761 9 view .LVU612
	movq	80(%rsp), %rax
	.loc 1 761 3 view .LVU613
	cmpl	%eax, 44(%rsp)
	jg	.L61
	.loc 1 763 3 is_stmt 1 view .LVU614
	.loc 1 763 6 is_stmt 0 view .LVU615
	cmpb	$0, 127(%rsp)
	jne	.L200
.L112:
	.loc 1 766 3 is_stmt 1 view .LVU616
	.loc 1 766 28 is_stmt 0 view .LVU617
	movzbl	125(%rsp), %eax
	xorl	$1, %eax
	.loc 1 767 1 view .LVU618
	movq	312(%rsp), %rdi
	xorq	%fs:40, %rdi
	.loc 1 766 28 view .LVU619
	movzbl	%al, %eax
	.loc 1 767 1 view .LVU620
	jne	.L201
	addq	$328, %rsp
	.cfi_remember_state
	.cfi_def_cfa_offset 56
	popq	%rbx
	.cfi_def_cfa_offset 48
	popq	%rbp
	.cfi_def_cfa_offset 40
	popq	%r12
	.cfi_def_cfa_offset 32
	popq	%r13
	.cfi_def_cfa_offset 24
	popq	%r14
	.cfi_def_cfa_offset 16
.LVL217:
	.loc 1 767 1 view .LVU621
	popq	%r15
	.cfi_def_cfa_offset 8
	ret
.LVL218:
	.p2align 4,,10
	.p2align 3
.L199:
	.cfi_restore_state
	.loc 1 755 10 view .LVU622
	cmpb	$0, 1(%rax)
	je	.L66
	jmp	.L122
.LVL219:
.L189:
.LBB257:
.LBB234:
.LBB226:
.LBB206:
.LBB207:
	.loc 1 200 6 view .LVU623
	movq	%r15, %rbx
	movl	%r13d, %ebp
.LBE207:
.LBE206:
	.loc 1 352 19 is_stmt 1 view .LVU624
.LVL220:
.LBB210:
.LBI206:
	.loc 1 197 1 view .LVU625
.LBB208:
	.loc 1 199 3 view .LVU626
	.loc 1 200 3 view .LVU627
	.loc 1 200 6 is_stmt 0 view .LVU628
	subq	%r12, %rbx
.LVL221:
	.loc 1 200 6 view .LVU629
	jne	.L202
.LVL222:
.L91:
	.loc 1 200 6 view .LVU630
.LBE208:
.LBE210:
	.loc 1 353 19 is_stmt 1 view .LVU631
	.loc 1 353 29 is_stmt 0 view .LVU632
	movl	%ebp, newlines2(%rip)
	.loc 1 354 19 is_stmt 1 view .LVU633
	.loc 1 354 26 is_stmt 0 view .LVU634
	movl	$1, %r10d
	jmp	.L84
.LVL223:
.L183:
	.loc 1 354 26 view .LVU635
.LBE226:
.LBE234:
.LBE257:
	.loc 1 696 11 view .LVU636
	movq	128(%rsp), %rax
	cmpq	%rax, 160(%rsp)
	jne	.L70
	.loc 1 696 41 discriminator 1 view .LVU637
	movq	136(%rsp), %rax
	cmpq	%rax, 168(%rsp)
	jne	.L70
	.loc 1 697 14 view .LVU638
	movl	input_desc(%rip), %edi
	xorl	%esi, %esi
	movl	$1, %edx
	call	lseek@PLT
.LVL224:
	.loc 1 697 11 view .LVU639
	cmpq	208(%rsp), %rax
	jge	.L70
	.loc 1 699 11 is_stmt 1 view .LVU640
	movq	infile(%rip), %rdx
	movl	$3, %esi
	xorl	%edi, %edi
	call	quotearg_n_style_colon@PLT
.LVL225:
	.loc 1 699 24 is_stmt 0 view .LVU641
	movl	$5, %edx
	leaq	.LC36(%rip), %rsi
	xorl	%edi, %edi
	.loc 1 699 11 view .LVU642
	movq	%rax, %r12
	.loc 1 699 24 view .LVU643
	call	dcgettext@PLT
.LVL226:
	.loc 1 699 11 view .LVU644
	movq	%r12, %rcx
	xorl	%esi, %esi
	xorl	%edi, %edi
	.loc 1 699 24 view .LVU645
	movq	%rax, %rdx
	.loc 1 699 11 view .LVU646
	xorl	%eax, %eax
	call	error@PLT
.LVL227:
	.loc 1 700 11 is_stmt 1 view .LVU647
	.loc 1 701 11 view .LVU648
	.loc 1 700 14 is_stmt 0 view .LVU649
	movb	$0, 125(%rsp)
	.loc 1 701 11 view .LVU650
	jmp	.L68
.LVL228:
.L182:
	.loc 1 683 11 is_stmt 1 view .LVU651
	movq	infile(%rip), %rdx
	movl	$3, %esi
	xorl	%edi, %edi
	call	quotearg_n_style_colon@PLT
.LVL229:
	movq	%rax, %r12
	.loc 1 683 21 is_stmt 0 view .LVU652
	call	__errno_location@PLT
.LVL230:
	.loc 1 683 11 view .LVU653
	movq	%r12, %rcx
	leaq	.LC35(%rip), %rdx
	xorl	%edi, %edi
	movl	(%rax), %esi
	xorl	%eax, %eax
	call	error@PLT
.LVL231:
	.loc 1 684 11 is_stmt 1 view .LVU654
	.loc 1 685 11 view .LVU655
	.loc 1 684 14 is_stmt 0 view .LVU656
	movb	$0, 125(%rsp)
	.loc 1 685 11 view .LVU657
	jmp	.L68
.LVL232:
.L176:
	.loc 1 757 11 is_stmt 1 view .LVU658
	movq	infile(%rip), %rdx
	movl	$3, %esi
	xorl	%edi, %edi
	call	quotearg_n_style_colon@PLT
.LVL233:
	movq	%rax, %r12
	.loc 1 757 21 is_stmt 0 view .LVU659
	call	__errno_location@PLT
.LVL234:
	.loc 1 757 11 view .LVU660
	movq	%r12, %rcx
	leaq	.LC35(%rip), %rdx
	xorl	%edi, %edi
	movl	(%rax), %esi
	xorl	%eax, %eax
	call	error@PLT
.LVL235:
	.loc 1 758 11 is_stmt 1 view .LVU661
	.loc 1 758 14 is_stmt 0 view .LVU662
	movb	$0, 125(%rsp)
	jmp	.L66
.LVL236:
.L198:
.LBB258:
.LBB235:
.LBB227:
.LBB211:
.LBB205:
	.loc 1 202 7 is_stmt 1 view .LVU663
	.loc 1 202 11 is_stmt 0 view .LVU664
	movq	%r15, %rdx
	movq	%r12, %rsi
	movl	$1, %edi
	call	full_write@PLT
.LVL237:
	.loc 1 202 10 view .LVU665
	cmpq	%rax, %r15
	je	.L89
.LVL238:
.L87:
	.loc 1 202 10 view .LVU666
.LBE205:
.LBE211:
.LBB212:
.LBB201:
	call	write_pending.part.0
.LVL239:
.L202:
	.loc 1 202 10 view .LVU667
.LBE201:
.LBE212:
.LBB213:
.LBB209:
	.loc 1 202 7 is_stmt 1 view .LVU668
	.loc 1 202 11 is_stmt 0 view .LVU669
	movq	%rbx, %rdx
	movq	%r12, %rsi
	movl	$1, %edi
	call	full_write@PLT
.LVL240:
	.loc 1 202 10 view .LVU670
	cmpq	%rax, %rbx
	je	.L91
	jmp	.L87
.LVL241:
.L184:
	.loc 1 202 10 view .LVU671
.LBE209:
.LBE213:
.LBE227:
.LBE235:
.LBE258:
	.loc 1 710 11 is_stmt 1 view .LVU672
	.loc 1 710 18 is_stmt 0 view .LVU673
	movq	48(%rsp), %rax
	cmpq	%rax, %r14
	movq	%rax, %r15
	cmovnb	%r14, %r15
.LVL242:
	.loc 1 711 11 is_stmt 1 view .LVU674
	.loc 1 711 19 is_stmt 0 view .LVU675
	leaq	(%r15,%r13), %rdi
	call	xmalloc@PLT
.LVL243:
.LBB259:
.LBB260:
	.loc 3 505 37 view .LVU676
	xorl	%edx, %edx
	.loc 3 504 15 view .LVU677
	leaq	(%rax,%r13), %rbx
.LBE260:
.LBE259:
	.loc 1 711 19 view .LVU678
	movq	%rax, 96(%rsp)
.LVL244:
	.loc 1 713 11 is_stmt 1 view .LVU679
.LBB262:
.LBI259:
	.loc 3 501 1 view .LVU680
.LBB261:
	.loc 3 503 3 view .LVU681
	.loc 3 504 3 view .LVU682
	.loc 3 505 3 view .LVU683
	.loc 3 505 37 is_stmt 0 view .LVU684
	movq	%rbx, %rax
.LVL245:
	.loc 3 505 37 view .LVU685
	divq	88(%rsp)
	.loc 3 505 10 view .LVU686
	subq	%rdx, %rbx
.LVL246:
	.loc 3 505 10 view .LVU687
.LBE261:
.LBE262:
.LBB263:
.LBI263:
	.loc 1 152 1 is_stmt 1 view .LVU688
	jmp	.L74
.LVL247:
	.p2align 4,,10
	.p2align 3
.L72:
.LBB264:
	.loc 1 178 7 view .LVU689
	.loc 1 178 10 is_stmt 0 view .LVU690
	testq	%rax, %rax
	je	.L117
.LBB265:
	.loc 1 185 9 is_stmt 1 view .LVU691
.LVL248:
	.loc 1 186 9 view .LVU692
	.loc 1 186 13 is_stmt 0 view .LVU693
	movq	%rax, %rdx
	movq	%rbx, %rsi
	movl	$1, %edi
	call	full_write@PLT
.LVL249:
	.loc 1 186 12 view .LVU694
	cmpq	%rax, %r12
	jne	.L203
.LVL250:
.L74:
	.loc 1 186 12 view .LVU695
.LBE265:
	.loc 1 161 3 is_stmt 1 view .LVU696
	.loc 1 165 3 view .LVU697
	.loc 1 169 7 view .LVU698
	.loc 1 169 16 is_stmt 0 view .LVU699
	movl	input_desc(%rip), %edi
	movq	%r15, %rdx
	movq	%rbx, %rsi
	call	safe_read@PLT
.LVL251:
	movq	%rax, %r12
.LVL252:
	.loc 1 170 7 is_stmt 1 view .LVU700
	.loc 1 170 10 is_stmt 0 view .LVU701
	cmpq	$-1, %rax
	jne	.L72
	.loc 1 172 11 is_stmt 1 view .LVU702
	movq	infile(%rip), %rdx
	movl	$3, %esi
	xorl	%edi, %edi
	call	quotearg_n_style_colon@PLT
.LVL253:
	.loc 1 172 11 is_stmt 0 view .LVU703
	movq	%rax, %r12
.LVL254:
	.loc 1 172 21 view .LVU704
	call	__errno_location@PLT
.LVL255:
	.loc 1 172 11 view .LVU705
	movq	%r12, %rcx
	leaq	.LC35(%rip), %rdx
	xorl	%edi, %edi
	movl	(%rax), %esi
	xorl	%eax, %eax
	call	error@PLT
.LVL256:
	.loc 1 173 11 is_stmt 1 view .LVU706
.L73:
	.loc 1 173 11 is_stmt 0 view .LVU707
	andb	%bpl, 125(%rsp)
.LVL257:
	.loc 1 173 11 view .LVU708
.LBE264:
.LBE263:
	.loc 1 713 11 view .LVU709
	jmp	.L75
.LVL258:
.L192:
.LBB270:
.LBB236:
.LBB228:
.LBB220:
	.loc 1 287 21 is_stmt 1 view .LVU710
	movl	$5, %edx
	leaq	.LC0(%rip), %rsi
	xorl	%edi, %edi
	call	dcgettext@PLT
.LVL259:
	movq	%rax, %r12
.LVL260:
	.loc 1 287 21 is_stmt 0 view .LVU711
	call	__errno_location@PLT
.LVL261:
	movq	%r12, %rdx
	movl	$1, %edi
	movl	(%rax), %esi
	xorl	%eax, %eax
	call	error@PLT
.LVL262:
.L117:
	.loc 1 287 21 view .LVU712
.LBE220:
.LBE228:
.LBE236:
.LBE270:
.LBB271:
.LBB268:
	.loc 1 179 16 view .LVU713
	movl	$1, %ebp
	jmp	.L73
.LVL263:
.L200:
	.loc 1 179 16 view .LVU714
.LBE268:
.LBE271:
	.loc 1 763 26 discriminator 1 view .LVU715
	xorl	%edi, %edi
	call	close@PLT
.LVL264:
	.loc 1 763 23 discriminator 1 view .LVU716
	testl	%eax, %eax
	jns	.L112
.LBB272:
	.loc 1 764 5 is_stmt 1 view .LVU717
	movl	$5, %edx
	leaq	.LC38(%rip), %rsi
	xorl	%edi, %edi
	call	dcgettext@PLT
.LVL265:
	movq	%rax, %r12
	call	__errno_location@PLT
.LVL266:
	movq	%r12, %rdx
	movl	$1, %edi
	movl	(%rax), %esi
	xorl	%eax, %eax
	call	error@PLT
.LVL267:
.L43:
	.loc 1 764 5 is_stmt 0 view .LVU718
.LBE272:
	.loc 1 628 9 is_stmt 1 view .LVU719
	.loc 1 628 57 view .LVU720
	.loc 1 631 11 view .LVU721
	movl	$1, %edi
	call	usage
.LVL268:
.L197:
.LBB273:
.LBB237:
.LBB229:
	.loc 1 327 23 is_stmt 0 view .LVU722
	movq	infile(%rip), %rsi
	movl	$4, %edi
	movb	%r10b, 16(%rsp)
.LVL269:
	.loc 1 327 23 is_stmt 1 view .LVU723
	movq	%rax, 24(%rsp)
.LVL270:
	.loc 1 327 23 is_stmt 0 view .LVU724
	call	quotearg_style@PLT
.LVL271:
	.loc 1 327 40 view .LVU725
	movl	$5, %edx
	leaq	.LC37(%rip), %rsi
	xorl	%edi, %edi
	.loc 1 327 23 view .LVU726
	movq	%rax, %r12
.LVL272:
	.loc 1 327 40 view .LVU727
	call	dcgettext@PLT
.LVL273:
	.loc 1 327 23 view .LVU728
	movq	24(%rsp), %r9
	movq	%r12, %rcx
	xorl	%edi, %edi
	.loc 1 327 40 view .LVU729
	movq	%rax, %rdx
	.loc 1 327 23 view .LVU730
	xorl	%eax, %eax
	movl	(%r9), %esi
	call	error@PLT
.LVL274:
	.loc 1 329 23 is_stmt 1 view .LVU731
	.loc 1 329 33 is_stmt 0 view .LVU732
	movl	%r13d, newlines2(%rip)
	.loc 1 330 23 is_stmt 1 view .LVU733
	.loc 1 330 30 is_stmt 0 view .LVU734
	movzbl	16(%rsp), %r10d
	jmp	.L84
.LVL275:
.L203:
	.loc 1 330 30 view .LVU735
.LBE229:
.LBE237:
.LBE273:
.LBB274:
.LBB269:
.LBB267:
.LBB266:
	.loc 1 187 11 is_stmt 1 view .LVU736
	movl	$5, %edx
	leaq	.LC0(%rip), %rsi
	xorl	%edi, %edi
	call	dcgettext@PLT
.LVL276:
	movq	%rax, %r12
.LVL277:
	.loc 1 187 11 is_stmt 0 view .LVU737
	call	__errno_location@PLT
.LVL278:
	movq	%r12, %rdx
	movl	$1, %edi
	movl	(%rax), %esi
	xorl	%eax, %eax
	call	error@PLT
.LVL279:
.L180:
	.loc 1 187 11 view .LVU738
.LBE266:
.LBE267:
.LBE269:
.LBE274:
.LBB275:
	.loc 1 638 5 is_stmt 1 view .LVU739
	movl	$5, %edx
	leaq	.LC33(%rip), %rsi
	xorl	%edi, %edi
	call	dcgettext@PLT
.LVL280:
	movq	%rax, %r12
	call	__errno_location@PLT
.LVL281:
	movq	%r12, %rdx
	movl	$1, %edi
	movl	(%rax), %esi
	xorl	%eax, %eax
	call	error@PLT
.LVL282:
.L201:
	.loc 1 638 5 is_stmt 0 view .LVU740
.LBE275:
	.loc 1 767 1 view .LVU741
	call	__stack_chk_fail@PLT
.LVL283:
	.cfi_endproc
.LFE145:
	.size	main, .-main
	.section	.rodata.str1.1
.LC39:
	.string	"number-nonblank"
.LC40:
	.string	"number"
.LC41:
	.string	"squeeze-blank"
.LC42:
	.string	"show-nonprinting"
.LC43:
	.string	"show-ends"
.LC44:
	.string	"show-tabs"
.LC45:
	.string	"show-all"
.LC46:
	.string	"help"
.LC47:
	.string	"version"
	.section	.data.rel.ro.local,"aw"
	.align 32
	.type	long_options.7202, @object
	.size	long_options.7202, 320
long_options.7202:
	.quad	.LC39
	.long	0
	.zero	4
	.quad	0
	.long	98
	.zero	4
	.quad	.LC40
	.long	0
	.zero	4
	.quad	0
	.long	110
	.zero	4
	.quad	.LC41
	.long	0
	.zero	4
	.quad	0
	.long	115
	.zero	4
	.quad	.LC42
	.long	0
	.zero	4
	.quad	0
	.long	118
	.zero	4
	.quad	.LC43
	.long	0
	.zero	4
	.quad	0
	.long	69
	.zero	4
	.quad	.LC44
	.long	0
	.zero	4
	.quad	0
	.long	84
	.zero	4
	.quad	.LC45
	.long	0
	.zero	4
	.quad	0
	.long	65
	.zero	4
	.quad	.LC46
	.long	0
	.zero	4
	.quad	0
	.long	-130
	.zero	4
	.quad	.LC47
	.long	0
	.zero	4
	.quad	0
	.long	-131
	.zero	4
	.quad	0
	.long	0
	.zero	4
	.quad	0
	.long	0
	.zero	4
	.local	newlines2
	.comm	newlines2,4,4
	.section	.data.rel.local,"aw"
	.align 8
	.type	line_num_start, @object
	.size	line_num_start, 8
line_num_start:
	.quad	line_buf+17
	.align 8
	.type	line_num_print, @object
	.size	line_num_print, 8
line_num_print:
	.quad	line_buf+12
	.data
	.align 16
	.type	line_buf, @object
	.size	line_buf, 20
line_buf:
	.string	"                 0\t"
	.local	input_desc
	.comm	input_desc,4,4
	.local	infile
	.comm	infile,8,8
	.text
.Letext0:
	.file 8 "/usr/lib/gcc/x86_64-linux-gnu/9/include/stddef.h"
	.file 9 "/usr/include/x86_64-linux-gnu/bits/types.h"
	.file 10 "/usr/include/x86_64-linux-gnu/bits/types/struct_FILE.h"
	.file 11 "/usr/include/x86_64-linux-gnu/bits/types/FILE.h"
	.file 12 "/usr/include/stdio.h"
	.file 13 "/usr/include/x86_64-linux-gnu/bits/sys_errlist.h"
	.file 14 "/usr/include/x86_64-linux-gnu/sys/types.h"
	.file 15 "/usr/include/x86_64-linux-gnu/bits/types/time_t.h"
	.file 16 "/usr/include/x86_64-linux-gnu/bits/types/struct_timespec.h"
	.file 17 "./lib/sys/select.h"
	.file 18 "/usr/include/x86_64-linux-gnu/bits/getopt_core.h"
	.file 19 "/usr/include/x86_64-linux-gnu/bits/getopt_ext.h"
	.file 20 "/usr/include/time.h"
	.file 21 "/usr/include/x86_64-linux-gnu/bits/stat.h"
	.file 22 "/usr/include/signal.h"
	.file 23 "/usr/include/unistd.h"
	.file 24 "/usr/include/errno.h"
	.file 25 "src/version.h"
	.file 26 "./lib/exitfail.h"
	.file 27 "./lib/timespec.h"
	.file 28 "./lib/version-etc.h"
	.file 29 "./lib/progname.h"
	.file 30 "./lib/quotearg.h"
	.file 31 "./lib/error.h"
	.file 32 "./lib/fadvise.h"
	.file 33 "./lib/xbinary-io.h"
	.file 34 "./lib/binary-io.h"
	.file 35 "/usr/include/libintl.h"
	.file 36 "./lib/full-write.h"
	.file 37 "./lib/safe-read.h"
	.file 38 "/usr/include/x86_64-linux-gnu/sys/ioctl.h"
	.file 39 "<built-in>"
	.file 40 "/usr/include/locale.h"
	.file 41 "/usr/include/stdlib.h"
	.file 42 "./lib/xalloc.h"
	.file 43 "/usr/include/string.h"
	.section	.note.GNU-stack,"",@progbits
	.section	.note.gnu.property,"a"
	.align 8
	.long	 1f - 0f
	.long	 4f - 1f
	.long	 5
0:
	.string	 "GNU"
1:
	.align 8
	.long	 0xc0000002
	.long	 3f - 2f
2:
	.long	 0x3
3:
	.align 8
4:
