	.file	"chcon.c"
	.text
.Ltext0:
	.section	.rodata.str1.1,"aMS",@progbits,1
.LC0:
	.string	"chcon"
.LC1:
	.string	" invocation"
.LC2:
	.string	""
	.section	.rodata.str1.8,"aMS",@progbits,1
	.align 8
.LC3:
	.string	"Try '%s --help' for more information.\n"
	.align 8
.LC4:
	.string	"Usage: %s [OPTION]... CONTEXT FILE...\n  or:  %s [OPTION]... [-u USER] [-r ROLE] [-l RANGE] [-t TYPE] FILE...\n  or:  %s [OPTION]... --reference=RFILE FILE...\n"
	.align 8
.LC5:
	.string	"Change the SELinux security context of each FILE to CONTEXT.\nWith --reference, change the security context of each FILE to that of RFILE.\n"
	.align 8
.LC6:
	.string	"\nMandatory arguments to long options are mandatory for short options too.\n"
	.align 8
.LC7:
	.string	"      --dereference      affect the referent of each symbolic link (this is\n                         the default), rather than the symbolic link itself\n  -h, --no-dereference   affect symbolic links instead of any referenced file\n"
	.align 8
.LC8:
	.ascii	"  -u, --user=USER        s"
	.string	"et user USER in the target security context\n  -r, --role=ROLE        set role ROLE in the target security context\n  -t, --type=TYPE        set type TYPE in the target security context\n  -l, --range=RANGE      set range RANGE in the target security context\n"
	.align 8
.LC9:
	.string	"      --no-preserve-root  do not treat '/' specially (the default)\n      --preserve-root    fail to operate recursively on '/'\n"
	.align 8
.LC10:
	.string	"      --reference=RFILE  use RFILE's security context rather than specifying\n                         a CONTEXT value\n"
	.align 8
.LC11:
	.string	"  -R, --recursive        operate on files and directories recursively\n"
	.align 8
.LC12:
	.string	"  -v, --verbose          output a diagnostic for every file processed\n"
	.align 8
.LC13:
	.ascii	"\nThe following options modify how a hierarchy is traversed "
	.ascii	"when the -R\noption is also specified.  If more than one is "
	.ascii	"specified, only the final\none takes effect.\n\n  -H        "
	.ascii	"             if a command line ar"
	.string	"gument is a symbolic link\n                         to a directory, traverse it\n  -L                     traverse every symbolic link to a directory\n                         encountered\n  -P                     do not traverse any symbolic links (default)\n\n"
	.align 8
.LC14:
	.string	"      --help     display this help and exit\n"
	.align 8
.LC15:
	.string	"      --version  output version information and exit\n"
	.section	.rodata.str1.1
.LC16:
	.string	"["
.LC17:
	.string	"test invocation"
.LC18:
	.string	"coreutils"
.LC19:
	.string	"Multi-call invocation"
.LC20:
	.string	"sha224sum"
.LC21:
	.string	"sha2 utilities"
.LC22:
	.string	"sha256sum"
.LC23:
	.string	"sha384sum"
.LC24:
	.string	"sha512sum"
.LC25:
	.string	"\n%s online help: <%s>\n"
	.section	.rodata.str1.8
	.align 8
.LC26:
	.string	"https://www.gnu.org/software/coreutils/"
	.section	.rodata.str1.1
.LC27:
	.string	"GNU coreutils"
.LC28:
	.string	"en_"
	.section	.rodata.str1.8
	.align 8
.LC29:
	.string	"Report any translation bugs to <https://translationproject.org/team/>\n"
	.section	.rodata.str1.1
.LC30:
	.string	"Full documentation <%s%s>\n"
	.section	.rodata.str1.8
	.align 8
.LC31:
	.string	"or available locally via: info '(coreutils) %s%s'\n"
	.text
	.p2align 4
	.globl	usage
	.type	usage, @function
usage:
.LVL0:
.LFB139:
	.file 1 "src/chcon.c"
	.loc 1 348 1 view -0
	.cfi_startproc
	.loc 1 348 1 is_stmt 0 view .LVU1
	endbr64
	pushq	%r13
	.cfi_def_cfa_offset 16
	.cfi_offset 13, -16
	.loc 1 350 5 view .LVU2
	movl	$5, %edx
	.loc 1 348 1 view .LVU3
	pushq	%r12
	.cfi_def_cfa_offset 24
	.cfi_offset 12, -24
	pushq	%rbp
	.cfi_def_cfa_offset 32
	.cfi_offset 6, -32
	movl	%edi, %ebp
	pushq	%rbx
	.cfi_def_cfa_offset 40
	.cfi_offset 3, -40
	subq	$136, %rsp
	.cfi_def_cfa_offset 176
	movq	program_name(%rip), %r12
	.loc 1 348 1 view .LVU4
	movq	%fs:40, %rax
	movq	%rax, 120(%rsp)
	xorl	%eax, %eax
	.loc 1 349 3 is_stmt 1 view .LVU5
	.loc 1 349 6 is_stmt 0 view .LVU6
	testl	%edi, %edi
	je	.L2
	.loc 1 350 5 is_stmt 1 view .LVU7
	.loc 1 350 5 view .LVU8
	leaq	.LC3(%rip), %rsi
	xorl	%edi, %edi
.LVL1:
	.loc 1 350 5 is_stmt 0 view .LVU9
	call	dcgettext@PLT
.LVL2:
.LBB35:
.LBB36:
	.file 2 "/usr/include/x86_64-linux-gnu/bits/stdio2.h"
	.loc 2 100 10 view .LVU10
	movq	stderr(%rip), %rdi
	movq	%r12, %rcx
	movl	$1, %esi
.LBE36:
.LBE35:
	.loc 1 350 5 view .LVU11
	movq	%rax, %rdx
.LVL3:
.LBB38:
.LBI35:
	.loc 2 98 1 is_stmt 1 view .LVU12
.LBB37:
	.loc 2 100 3 view .LVU13
	.loc 2 100 10 is_stmt 0 view .LVU14
	xorl	%eax, %eax
.LVL4:
	.loc 2 100 10 view .LVU15
	call	__fprintf_chk@PLT
.LVL5:
.L3:
	.loc 2 100 10 view .LVU16
.LBE37:
.LBE38:
	.loc 1 408 3 is_stmt 1 view .LVU17
	movl	%ebp, %edi
	call	exit@PLT
.LVL6:
.L2:
	.loc 1 353 7 view .LVU18
	.loc 1 353 15 is_stmt 0 view .LVU19
	xorl	%edi, %edi
.LVL7:
	.loc 1 353 15 view .LVU20
	leaq	.LC4(%rip), %rsi
.LBB39:
.LBB40:
	.file 3 "src/system.h"
	.loc 3 636 67 view .LVU21
	leaq	.LC22(%rip), %rbx
.LBE40:
.LBE39:
	.loc 1 353 15 view .LVU22
	call	dcgettext@PLT
.LVL8:
.LBB66:
.LBB67:
	.loc 2 107 10 view .LVU23
	movq	%r12, %r8
	movq	%r12, %rcx
	movq	%r12, %rdx
.LBE67:
.LBE66:
	.loc 1 353 15 view .LVU24
	movq	%rax, %rsi
.LVL9:
.LBB69:
.LBI66:
	.loc 2 105 1 is_stmt 1 view .LVU25
.LBB68:
	.loc 2 107 3 view .LVU26
	.loc 2 107 10 is_stmt 0 view .LVU27
	movl	$1, %edi
	xorl	%eax, %eax
.LVL10:
	.loc 2 107 10 view .LVU28
	call	__printf_chk@PLT
.LVL11:
	.loc 2 107 10 view .LVU29
.LBE68:
.LBE69:
	.loc 1 359 7 is_stmt 1 view .LVU30
	movq	stdout(%rip), %r12
	xorl	%edi, %edi
	movl	$5, %edx
	leaq	.LC5(%rip), %rsi
	call	dcgettext@PLT
.LVL12:
	movq	%r12, %rsi
	movq	%rax, %rdi
	call	fputs_unlocked@PLT
.LVL13:
	.loc 1 364 7 view .LVU31
.LBB70:
.LBI70:
	.loc 3 588 1 view .LVU32
.LBB71:
	.loc 3 590 3 view .LVU33
	movq	stdout(%rip), %r12
	xorl	%edi, %edi
	movl	$5, %edx
	leaq	.LC6(%rip), %rsi
	call	dcgettext@PLT
.LVL14:
	movq	%r12, %rsi
	movq	%rax, %rdi
	call	fputs_unlocked@PLT
.LVL15:
.LBE71:
.LBE70:
	.loc 1 366 7 view .LVU34
	movq	stdout(%rip), %r12
	xorl	%edi, %edi
	movl	$5, %edx
	leaq	.LC7(%rip), %rsi
	call	dcgettext@PLT
.LVL16:
	movq	%r12, %rsi
	movq	%rax, %rdi
	call	fputs_unlocked@PLT
.LVL17:
	.loc 1 371 7 view .LVU35
	movq	stdout(%rip), %r12
	xorl	%edi, %edi
	movl	$5, %edx
	leaq	.LC8(%rip), %rsi
	call	dcgettext@PLT
.LVL18:
	movq	%r12, %rsi
	movq	%rax, %rdi
	call	fputs_unlocked@PLT
.LVL19:
	.loc 1 377 7 view .LVU36
	movq	stdout(%rip), %r12
	xorl	%edi, %edi
	movl	$5, %edx
	leaq	.LC9(%rip), %rsi
	call	dcgettext@PLT
.LVL20:
	movq	%r12, %rsi
	movq	%rax, %rdi
	call	fputs_unlocked@PLT
.LVL21:
	.loc 1 381 7 view .LVU37
	movq	stdout(%rip), %r12
	xorl	%edi, %edi
	movl	$5, %edx
	leaq	.LC10(%rip), %rsi
	call	dcgettext@PLT
.LVL22:
	movq	%r12, %rsi
	movq	%rax, %rdi
	call	fputs_unlocked@PLT
.LVL23:
	.loc 1 385 7 view .LVU38
	movq	stdout(%rip), %r12
	xorl	%edi, %edi
	movl	$5, %edx
	leaq	.LC11(%rip), %rsi
	call	dcgettext@PLT
.LVL24:
	movq	%r12, %rsi
	movq	%rax, %rdi
	call	fputs_unlocked@PLT
.LVL25:
	.loc 1 388 7 view .LVU39
	movq	stdout(%rip), %r12
	xorl	%edi, %edi
	movl	$5, %edx
	leaq	.LC12(%rip), %rsi
	call	dcgettext@PLT
.LVL26:
	movq	%r12, %rsi
	movq	%rax, %rdi
	call	fputs_unlocked@PLT
.LVL27:
	.loc 1 391 7 view .LVU40
	movq	stdout(%rip), %r12
	xorl	%edi, %edi
	movl	$5, %edx
	leaq	.LC13(%rip), %rsi
	call	dcgettext@PLT
.LVL28:
	movq	%r12, %rsi
	movq	%rax, %rdi
	call	fputs_unlocked@PLT
.LVL29:
	.loc 1 404 7 view .LVU41
	movq	stdout(%rip), %r12
	movl	$5, %edx
	xorl	%edi, %edi
	leaq	.LC14(%rip), %rsi
	call	dcgettext@PLT
.LVL30:
	movq	%r12, %rsi
	movq	%rax, %rdi
	call	fputs_unlocked@PLT
.LVL31:
	.loc 1 405 7 view .LVU42
	movq	stdout(%rip), %r12
	movl	$5, %edx
	xorl	%edi, %edi
	leaq	.LC15(%rip), %rsi
	call	dcgettext@PLT
.LVL32:
	movq	%r12, %rsi
	movq	%rax, %rdi
	call	fputs_unlocked@PLT
.LVL33:
	.loc 1 406 7 view .LVU43
.LBB72:
.LBI39:
	.loc 3 634 1 view .LVU44
.LBB65:
	.loc 3 636 3 view .LVU45
	.loc 3 636 67 is_stmt 0 view .LVU46
	leaq	.LC16(%rip), %rax
	movq	%rbx, 48(%rsp)
	leaq	.LC23(%rip), %rbx
	movq	%rax, (%rsp)
	leaq	.LC17(%rip), %rax
	movq	%rax, 8(%rsp)
	leaq	.LC18(%rip), %rax
	movq	%rax, 16(%rsp)
	leaq	.LC19(%rip), %rax
	movq	%rax, 24(%rsp)
	leaq	.LC20(%rip), %rax
	movq	$0, 96(%rsp)
	movq	$0, 104(%rsp)
	.loc 3 646 3 is_stmt 1 view .LVU47
.LVL34:
	.loc 3 647 3 view .LVU48
	.loc 3 649 3 view .LVU49
	.loc 3 649 9 view .LVU50
	.loc 3 636 67 is_stmt 0 view .LVU51
	movq	%rax, 32(%rsp)
	leaq	.LC21(%rip), %rax
	movq	%rbx, 64(%rsp)
	leaq	.LC24(%rip), %rbx
	movq	%rax, 40(%rsp)
	movq	%rax, 56(%rsp)
	movq	%rax, 72(%rsp)
	movq	%rbx, 80(%rsp)
	leaq	.LC0(%rip), %rbx
	movq	%rax, 88(%rsp)
	.loc 3 647 25 view .LVU52
	movq	%rsp, %rax
.LVL35:
	.p2align 4,,10
	.p2align 3
.L5:
	.loc 3 650 5 is_stmt 1 view .LVU53
	.loc 3 649 18 is_stmt 0 view .LVU54
	movq	16(%rax), %rdi
	.loc 3 650 13 view .LVU55
	addq	$16, %rax
.LVL36:
	.loc 3 649 9 is_stmt 1 view .LVU56
	testq	%rdi, %rdi
	je	.L4
	.loc 3 649 33 is_stmt 0 view .LVU57
	movl	$6, %ecx
	movq	%rbx, %rsi
	repz cmpsb
	seta	%dl
	sbbb	$0, %dl
	.loc 3 649 28 view .LVU58
	testb	%dl, %dl
	jne	.L5
.L4:
	.loc 3 652 3 is_stmt 1 view .LVU59
	.loc 3 652 15 is_stmt 0 view .LVU60
	movq	8(%rax), %r12
	.loc 3 655 11 view .LVU61
	movl	$5, %edx
	leaq	.LC25(%rip), %rsi
	xorl	%edi, %edi
	.loc 3 652 6 view .LVU62
	testq	%r12, %r12
	je	.L6
	.loc 3 653 5 is_stmt 1 view .LVU63
.LVL37:
	.loc 3 655 3 view .LVU64
	.loc 3 655 11 is_stmt 0 view .LVU65
	call	dcgettext@PLT
.LVL38:
.LBB41:
.LBB42:
	.loc 2 107 10 view .LVU66
	leaq	.LC26(%rip), %rcx
	movl	$1, %edi
	leaq	.LC27(%rip), %rdx
.LBE42:
.LBE41:
	.loc 3 655 11 view .LVU67
	movq	%rax, %rsi
.LVL39:
.LBB46:
.LBI41:
	.loc 2 105 1 is_stmt 1 view .LVU68
.LBB43:
	.loc 2 107 3 view .LVU69
	.loc 2 107 10 is_stmt 0 view .LVU70
	xorl	%eax, %eax
.LVL40:
	.loc 2 107 10 view .LVU71
	call	__printf_chk@PLT
.LVL41:
	.loc 2 107 10 view .LVU72
.LBE43:
.LBE46:
	.loc 3 659 3 is_stmt 1 view .LVU73
	.loc 3 659 29 is_stmt 0 view .LVU74
	movl	$5, %edi
	xorl	%esi, %esi
	call	setlocale@PLT
.LVL42:
	movq	%rax, %rdi
.LVL43:
	.loc 3 660 3 is_stmt 1 view .LVU75
	.loc 3 660 6 is_stmt 0 view .LVU76
	testq	%rax, %rax
	je	.L7
	.loc 3 660 22 view .LVU77
	movl	$3, %edx
	leaq	.LC28(%rip), %rsi
	call	strncmp@PLT
.LVL44:
	.loc 3 660 19 view .LVU78
	testl	%eax, %eax
	jne	.L10
.LVL45:
.L7:
	.loc 3 669 3 is_stmt 1 view .LVU79
	.loc 3 669 11 is_stmt 0 view .LVU80
	xorl	%edi, %edi
	movl	$5, %edx
	leaq	.LC30(%rip), %rsi
	call	dcgettext@PLT
.LVL46:
.LBB47:
.LBB48:
	.loc 2 107 10 view .LVU81
	leaq	.LC0(%rip), %rcx
	leaq	.LC26(%rip), %rdx
	movl	$1, %edi
.LBE48:
.LBE47:
	.loc 3 669 11 view .LVU82
	movq	%rax, %rsi
.LVL47:
.LBB54:
.LBI47:
	.loc 2 105 1 is_stmt 1 view .LVU83
.LBB49:
	.loc 2 107 3 view .LVU84
	.loc 2 107 10 is_stmt 0 view .LVU85
	xorl	%eax, %eax
.LVL48:
	.loc 2 107 10 view .LVU86
.LBE49:
.LBE54:
	.loc 3 671 3 view .LVU87
	leaq	.LC1(%rip), %r13
.LBB55:
.LBB50:
	.loc 2 107 10 view .LVU88
	call	__printf_chk@PLT
.LVL49:
	.loc 2 107 10 view .LVU89
.LBE50:
.LBE55:
	.loc 3 671 3 is_stmt 1 view .LVU90
	cmpq	%rbx, %r12
	leaq	.LC2(%rip), %rcx
	cmovne	%rcx, %r13
.L8:
	.loc 3 671 11 is_stmt 0 view .LVU91
	xorl	%edi, %edi
	leaq	.LC31(%rip), %rsi
	movl	$5, %edx
	call	dcgettext@PLT
.LVL50:
.LBB56:
.LBB57:
	.loc 2 107 10 view .LVU92
	movq	%r13, %rcx
	movq	%r12, %rdx
	movl	$1, %edi
.LBE57:
.LBE56:
	.loc 3 671 11 view .LVU93
	movq	%rax, %rsi
.LVL51:
.LBB59:
.LBI56:
	.loc 2 105 1 is_stmt 1 view .LVU94
.LBB58:
	.loc 2 107 3 view .LVU95
	.loc 2 107 10 is_stmt 0 view .LVU96
	xorl	%eax, %eax
.LVL52:
	.loc 2 107 10 view .LVU97
	call	__printf_chk@PLT
.LVL53:
	.loc 2 107 10 view .LVU98
.LBE58:
.LBE59:
	.loc 3 673 1 view .LVU99
	jmp	.L3
.LVL54:
.L6:
	.loc 3 655 3 is_stmt 1 view .LVU100
	.loc 3 655 11 is_stmt 0 view .LVU101
	call	dcgettext@PLT
.LVL55:
.LBB60:
.LBB44:
	.loc 2 107 10 view .LVU102
	leaq	.LC26(%rip), %rcx
	movl	$1, %edi
	leaq	.LC27(%rip), %rdx
.LBE44:
.LBE60:
	.loc 3 655 11 view .LVU103
	movq	%rax, %rsi
.LVL56:
.LBB61:
	.loc 2 105 1 is_stmt 1 view .LVU104
.LBB45:
	.loc 2 107 3 view .LVU105
	.loc 2 107 10 is_stmt 0 view .LVU106
	xorl	%eax, %eax
.LVL57:
	.loc 2 107 10 view .LVU107
	call	__printf_chk@PLT
.LVL58:
	.loc 2 107 10 view .LVU108
.LBE45:
.LBE61:
	.loc 3 659 3 is_stmt 1 view .LVU109
	.loc 3 659 29 is_stmt 0 view .LVU110
	movl	$5, %edi
	xorl	%esi, %esi
	call	setlocale@PLT
.LVL59:
	movq	%rax, %rdi
.LVL60:
	.loc 3 660 3 is_stmt 1 view .LVU111
	.loc 3 660 6 is_stmt 0 view .LVU112
	testq	%rax, %rax
	je	.L9
	.loc 3 660 22 view .LVU113
	movl	$3, %edx
	leaq	.LC28(%rip), %rsi
	call	strncmp@PLT
.LVL61:
	.loc 3 660 19 view .LVU114
	testl	%eax, %eax
	jne	.L29
.L9:
	.loc 3 669 3 is_stmt 1 view .LVU115
	.loc 3 669 11 is_stmt 0 view .LVU116
	movl	$5, %edx
	leaq	.LC30(%rip), %rsi
	xorl	%edi, %edi
	call	dcgettext@PLT
.LVL62:
.LBB62:
.LBB51:
	.loc 2 107 10 view .LVU117
	leaq	.LC0(%rip), %rcx
	leaq	.LC26(%rip), %rdx
	movl	$1, %edi
.LBE51:
.LBE62:
	.loc 3 669 11 view .LVU118
	movq	%rax, %rsi
.LVL63:
.LBB63:
	.loc 2 105 1 is_stmt 1 view .LVU119
.LBB52:
	.loc 2 107 3 view .LVU120
	.loc 2 107 10 is_stmt 0 view .LVU121
	xorl	%eax, %eax
.LVL64:
	.loc 2 107 10 view .LVU122
.LBE52:
.LBE63:
	.loc 3 646 15 view .LVU123
	leaq	.LC0(%rip), %r12
.LBB64:
.LBB53:
	.loc 2 107 10 view .LVU124
	call	__printf_chk@PLT
.LVL65:
	.loc 2 107 10 view .LVU125
.LBE53:
.LBE64:
	.loc 3 671 3 is_stmt 1 view .LVU126
	leaq	.LC1(%rip), %r13
	jmp	.L8
.L29:
	.loc 3 646 15 is_stmt 0 view .LVU127
	leaq	.LC0(%rip), %r12
.LVL66:
.L10:
	.loc 3 666 7 is_stmt 1 view .LVU128
	movq	stdout(%rip), %r13
	xorl	%edi, %edi
	movl	$5, %edx
	leaq	.LC29(%rip), %rsi
	call	dcgettext@PLT
.LVL67:
	movq	%rax, %rdi
	movq	%r13, %rsi
	call	fputs_unlocked@PLT
.LVL68:
	jmp	.L7
.LBE65:
.LBE72:
	.cfi_endproc
.LFE139:
	.size	usage, .-usage
	.section	.rodata.str1.1
.LC32:
	.string	"/usr/local/share/locale"
.LC33:
	.string	"Jim Meyering"
.LC34:
	.string	"Russell Coker"
.LC35:
	.string	"HLPRhvu:r:t:l:"
	.section	.rodata.str1.8
	.align 8
.LC36:
	.string	"-R --dereference requires either -H or -L"
	.section	.rodata.str1.1
.LC37:
	.string	"-R -h requires -P"
.LC38:
	.string	"missing operand"
.LC39:
	.string	"missing operand after %s"
	.section	.rodata.str1.8
	.align 8
.LC40:
	.string	"failed to get security context of %s"
	.section	.rodata.str1.1
.LC41:
	.string	"invalid context: %s"
	.section	.rodata.str1.8
	.align 8
.LC42:
	.string	"conflicting security context specifiers given"
	.section	.rodata.str1.1
.LC43:
	.string	"/"
	.section	.rodata.str1.8
	.align 8
.LC44:
	.string	"failed to get attributes of %s"
	.section	.rodata.str1.1
.LC45:
	.string	"fts_read failed"
	.section	.rodata.str1.8
	.align 8
.LC46:
	.string	"it is dangerous to operate recursively on %s"
	.align 8
.LC47:
	.string	"it is dangerous to operate recursively on %s (same as %s)"
	.align 8
.LC48:
	.string	"use --no-preserve-root to override this failsafe"
	.section	.rodata.str1.1
.LC49:
	.string	"cannot access %s"
.LC50:
	.string	"%s"
.LC51:
	.string	"cannot read directory %s"
	.section	.rodata.str1.8
	.align 8
.LC52:
	.string	"WARNING: Circular directory structure.\nThis almost certainly means that you have a corrupted file system.\nNOTIFY YOUR SYSTEM MANAGER.\nThe following directory is part of the cycle:\n  %s\n"
	.align 8
.LC53:
	.string	"changing security context of %s\n"
	.align 8
.LC54:
	.string	"can't apply partial context to unlabeled file %s"
	.align 8
.LC55:
	.string	"failed to create security context: %s"
	.align 8
.LC56:
	.string	"failed to set %s security context component to %s"
	.section	.rodata.str1.1
.LC57:
	.string	"user"
.LC58:
	.string	"range"
.LC59:
	.string	"role"
.LC60:
	.string	"type"
	.section	.rodata.str1.8
	.align 8
.LC61:
	.string	"failed to change context of %s to %s"
	.section	.rodata.str1.1
.LC62:
	.string	"fts_close failed"
	.section	.text.startup,"ax",@progbits
	.p2align 4
	.globl	main
	.type	main, @function
main:
.LVL69:
.LFB140:
	.loc 1 413 1 view -0
	.cfi_startproc
	.loc 1 413 1 is_stmt 0 view .LVU130
	endbr64
	pushq	%r15
	.cfi_def_cfa_offset 16
	.cfi_offset 15, -16
	.loc 1 415 7 view .LVU131
	movl	$16, %r15d
	.loc 1 413 1 view .LVU132
	pushq	%r14
	.cfi_def_cfa_offset 24
	.cfi_offset 14, -24
	.loc 1 422 8 view .LVU133
	xorl	%r14d, %r14d
	.loc 1 413 1 view .LVU134
	pushq	%r13
	.cfi_def_cfa_offset 32
	.cfi_offset 13, -32
	.loc 1 423 8 view .LVU135
	xorl	%r13d, %r13d
	.loc 1 413 1 view .LVU136
	pushq	%r12
	.cfi_def_cfa_offset 40
	.cfi_offset 12, -40
	movslq	%edi, %r12
	pushq	%rbp
	.cfi_def_cfa_offset 48
	.cfi_offset 6, -48
	movq	%rsi, %rbp
	pushq	%rbx
	.cfi_def_cfa_offset 56
	.cfi_offset 3, -56
	leaq	.L37(%rip), %rbx
	subq	$56, %rsp
	.cfi_def_cfa_offset 112
	.loc 1 428 3 view .LVU137
	movq	(%rsi), %rdi
.LVL70:
	.loc 1 413 1 view .LVU138
	movq	%fs:40, %rax
	movq	%rax, 40(%rsp)
	xorl	%eax, %eax
	.loc 1 415 3 is_stmt 1 view .LVU139
.LVL71:
	.loc 1 419 3 view .LVU140
	.loc 1 421 3 view .LVU141
	.loc 1 422 3 view .LVU142
	.loc 1 423 3 view .LVU143
	.loc 1 424 3 view .LVU144
	.loc 1 425 3 view .LVU145
	.loc 1 427 33 view .LVU146
	.loc 1 428 3 view .LVU147
	call	set_program_name@PLT
.LVL72:
	.loc 1 429 3 view .LVU148
	leaq	.LC2(%rip), %rsi
	movl	$6, %edi
	call	setlocale@PLT
.LVL73:
	.loc 1 430 3 view .LVU149
	leaq	.LC32(%rip), %rsi
	leaq	.LC18(%rip), %rdi
	call	bindtextdomain@PLT
.LVL74:
	.loc 1 431 3 view .LVU150
	leaq	.LC18(%rip), %rdi
	call	textdomain@PLT
.LVL75:
	.loc 1 433 3 view .LVU151
	movq	close_stdout@GOTPCREL(%rip), %rdi
	call	atexit@PLT
.LVL76:
	.loc 1 435 3 view .LVU152
	.loc 1 419 7 is_stmt 0 view .LVU153
	movl	$-1, 8(%rsp)
	.loc 1 424 9 view .LVU154
	movq	$0, 16(%rsp)
.LVL77:
.L31:
	.loc 1 435 9 is_stmt 1 view .LVU155
	.loc 1 435 18 is_stmt 0 view .LVU156
	xorl	%r8d, %r8d
	leaq	long_options(%rip), %rcx
	movq	%rbp, %rsi
	movl	%r12d, %edi
	leaq	.LC35(%rip), %rdx
	call	getopt_long@PLT
.LVL78:
	.loc 1 435 9 view .LVU157
	cmpl	$-1, %eax
	je	.L172
	.loc 1 438 7 is_stmt 1 view .LVU158
	cmpl	$131, %eax
	jg	.L170
	cmpl	$71, %eax
	jle	.L173
	subl	$72, %eax
.LVL79:
	.loc 1 438 7 is_stmt 0 view .LVU159
	cmpl	$59, %eax
	ja	.L170
	movslq	(%rbx,%rax,4), %rax
	addq	%rbx, %rax
	notrack jmp	*%rax
	.section	.rodata
	.align 4
	.align 4
.L37:
	.long	.L51-.L37
	.long	.L170-.L37
	.long	.L170-.L37
	.long	.L170-.L37
	.long	.L120-.L37
	.long	.L170-.L37
	.long	.L170-.L37
	.long	.L170-.L37
	.long	.L49-.L37
	.long	.L170-.L37
	.long	.L48-.L37
	.long	.L170-.L37
	.long	.L170-.L37
	.long	.L170-.L37
	.long	.L170-.L37
	.long	.L170-.L37
	.long	.L170-.L37
	.long	.L170-.L37
	.long	.L170-.L37
	.long	.L170-.L37
	.long	.L170-.L37
	.long	.L170-.L37
	.long	.L170-.L37
	.long	.L170-.L37
	.long	.L170-.L37
	.long	.L170-.L37
	.long	.L170-.L37
	.long	.L170-.L37
	.long	.L170-.L37
	.long	.L170-.L37
	.long	.L31-.L37
	.long	.L170-.L37
	.long	.L46-.L37
	.long	.L170-.L37
	.long	.L170-.L37
	.long	.L170-.L37
	.long	.L45-.L37
	.long	.L170-.L37
	.long	.L170-.L37
	.long	.L170-.L37
	.long	.L170-.L37
	.long	.L170-.L37
	.long	.L44-.L37
	.long	.L170-.L37
	.long	.L43-.L37
	.long	.L42-.L37
	.long	.L41-.L37
	.long	.L170-.L37
	.long	.L170-.L37
	.long	.L170-.L37
	.long	.L170-.L37
	.long	.L170-.L37
	.long	.L170-.L37
	.long	.L170-.L37
	.long	.L170-.L37
	.long	.L170-.L37
	.long	.L40-.L37
	.long	.L39-.L37
	.long	.L38-.L37
	.long	.L36-.L37
	.section	.text.startup
.L120:
	.loc 1 445 21 view .LVU160
	movl	$2, %r15d
.LVL80:
	.loc 1 445 21 view .LVU161
	jmp	.L31
.LVL81:
.L51:
	.loc 1 438 7 view .LVU162
	movl	$17, %r15d
.LVL82:
	.loc 1 438 7 view .LVU163
	jmp	.L31
.LVL83:
.L36:
	.loc 1 470 11 is_stmt 1 view .LVU164
	.loc 1 470 26 is_stmt 0 view .LVU165
	movq	optarg(%rip), %rax
	movq	%rax, 16(%rsp)
.LVL84:
	.loc 1 471 11 is_stmt 1 view .LVU166
	jmp	.L31
.LVL85:
.L38:
	.loc 1 466 11 view .LVU167
	.loc 1 467 11 view .LVU168
	.loc 1 466 25 is_stmt 0 view .LVU169
	movl	$1, %r14d
	.loc 1 467 11 view .LVU170
	jmp	.L31
.LVL86:
.L39:
	.loc 1 462 11 is_stmt 1 view .LVU171
	.loc 1 463 11 view .LVU172
	.loc 1 462 25 is_stmt 0 view .LVU173
	xorl	%r14d, %r14d
	.loc 1 463 11 view .LVU174
	jmp	.L31
.LVL87:
.L40:
	.loc 1 458 11 is_stmt 1 view .LVU175
	.loc 1 459 11 view .LVU176
	.loc 1 458 23 is_stmt 0 view .LVU177
	movl	$1, 8(%rsp)
	.loc 1 459 11 view .LVU178
	jmp	.L31
.LVL88:
.L41:
	.loc 1 482 11 is_stmt 1 view .LVU179
	.loc 1 482 19 is_stmt 0 view .LVU180
	movb	$1, verbose(%rip)
	.loc 1 483 11 is_stmt 1 view .LVU181
	jmp	.L31
.L42:
	.loc 1 486 11 view .LVU182
	.loc 1 486 26 is_stmt 0 view .LVU183
	movq	optarg(%rip), %rax
	.loc 1 487 31 view .LVU184
	movl	$1, %r13d
.LVL89:
	.loc 1 486 26 view .LVU185
	movq	%rax, specified_user(%rip)
	.loc 1 487 11 is_stmt 1 view .LVU186
.LVL90:
	.loc 1 488 11 view .LVU187
	jmp	.L31
.LVL91:
.L43:
	.loc 1 496 11 view .LVU188
	.loc 1 496 26 is_stmt 0 view .LVU189
	movq	optarg(%rip), %rax
	.loc 1 497 31 view .LVU190
	movl	$1, %r13d
.LVL92:
	.loc 1 496 26 view .LVU191
	movq	%rax, specified_type(%rip)
	.loc 1 497 11 is_stmt 1 view .LVU192
.LVL93:
	.loc 1 498 11 view .LVU193
	jmp	.L31
.LVL94:
.L44:
	.loc 1 491 11 view .LVU194
	.loc 1 491 26 is_stmt 0 view .LVU195
	movq	optarg(%rip), %rax
	.loc 1 492 31 view .LVU196
	movl	$1, %r13d
.LVL95:
	.loc 1 491 26 view .LVU197
	movq	%rax, specified_role(%rip)
	.loc 1 492 11 is_stmt 1 view .LVU198
.LVL96:
	.loc 1 493 11 view .LVU199
	jmp	.L31
.LVL97:
.L45:
	.loc 1 501 11 view .LVU200
	.loc 1 501 27 is_stmt 0 view .LVU201
	movq	optarg(%rip), %rax
	.loc 1 502 31 view .LVU202
	movl	$1, %r13d
.LVL98:
	.loc 1 501 27 view .LVU203
	movq	%rax, specified_range(%rip)
	.loc 1 502 11 is_stmt 1 view .LVU204
.LVL99:
	.loc 1 503 11 view .LVU205
	jmp	.L31
.LVL100:
.L46:
	.loc 1 453 11 view .LVU206
	.loc 1 454 11 view .LVU207
	.loc 1 453 23 is_stmt 0 view .LVU208
	movl	$0, 8(%rsp)
	.loc 1 454 11 view .LVU209
	jmp	.L31
.LVL101:
.L48:
	.loc 1 474 11 is_stmt 1 view .LVU210
	.loc 1 474 19 is_stmt 0 view .LVU211
	movb	$1, recurse(%rip)
	.loc 1 475 11 is_stmt 1 view .LVU212
	jmp	.L31
.L49:
	.loc 1 449 11 view .LVU213
.LVL102:
	.loc 1 450 11 view .LVU214
	.loc 1 449 21 is_stmt 0 view .LVU215
	movl	$16, %r15d
	.loc 1 450 11 view .LVU216
	jmp	.L31
.LVL103:
	.p2align 4,,10
	.p2align 3
.L173:
	.loc 1 438 7 view .LVU217
	cmpl	$-131, %eax
	jne	.L174
	.loc 1 505 9 is_stmt 1 view .LVU218
	.loc 1 505 30 view .LVU219
	.loc 1 506 9 view .LVU220
	subq	$8, %rsp
	.cfi_remember_state
	.cfi_def_cfa_offset 120
	movq	stdout(%rip), %rdi
	xorl	%eax, %eax
.LVL104:
	.loc 1 506 9 is_stmt 0 view .LVU221
	movq	Version(%rip), %rcx
	pushq	$0
	.cfi_def_cfa_offset 128
	leaq	.LC33(%rip), %r9
	leaq	.LC34(%rip), %r8
	leaq	.LC27(%rip), %rdx
	leaq	.LC0(%rip), %rsi
	call	version_etc@PLT
.LVL105:
	.loc 1 506 9 is_stmt 1 view .LVU222
	xorl	%edi, %edi
	call	exit@PLT
.LVL106:
	.p2align 4,,10
	.p2align 3
.L174:
	.cfi_restore_state
	.loc 1 438 7 is_stmt 0 view .LVU223
	cmpl	$-130, %eax
	jne	.L170
	.loc 1 505 9 is_stmt 1 view .LVU224
	xorl	%edi, %edi
	call	usage
.LVL107:
.L172:
	.loc 1 512 3 view .LVU225
	.loc 1 512 6 is_stmt 0 view .LVU226
	cmpb	$0, recurse(%rip)
	jne	.L175
	.loc 1 530 7 is_stmt 1 view .LVU227
.LVL108:
	.loc 1 531 7 view .LVU228
	.loc 1 531 46 is_stmt 0 view .LVU229
	cmpl	$0, 8(%rsp)
	.loc 1 530 17 view .LVU230
	movl	$16, %r15d
	.loc 1 531 31 view .LVU231
	setne	affect_symlink_referent(%rip)
.LVL109:
.L56:
	.loc 1 534 3 is_stmt 1 view .LVU232
	.loc 1 534 12 is_stmt 0 view .LVU233
	movslq	optind(%rip), %rax
.LVL110:
	.loc 1 534 12 view .LVU234
	movl	%r12d, %edx
	subl	%eax, %edx
	.loc 1 534 66 view .LVU235
	cmpq	$0, 16(%rsp)
	jne	.L122
	testb	%r13b, %r13b
	jne	.L122
	.loc 1 534 6 view .LVU236
	subl	$1, %edx
	jg	.L176
.L116:
	.loc 1 536 7 is_stmt 1 view .LVU237
	.loc 1 536 10 is_stmt 0 view .LVU238
	cmpl	%r12d, %eax
	jl	.L61
	.loc 1 537 9 is_stmt 1 view .LVU239
	.loc 1 537 22 is_stmt 0 view .LVU240
	movl	$5, %edx
	leaq	.LC38(%rip), %rsi
.L171:
	.loc 1 569 20 view .LVU241
	xorl	%edi, %edi
	call	dcgettext@PLT
.LVL111:
	.loc 1 569 7 view .LVU242
	xorl	%esi, %esi
	xorl	%edi, %edi
	.loc 1 569 20 view .LVU243
	movq	%rax, %rdx
	.loc 1 569 7 view .LVU244
	xorl	%eax, %eax
	call	error@PLT
.LVL112:
.L170:
	.loc 1 570 7 is_stmt 1 view .LVU245
	movl	$1, %edi
	call	usage
.LVL113:
.L175:
	.loc 1 514 7 view .LVU246
	.loc 1 514 10 is_stmt 0 view .LVU247
	cmpl	$16, %r15d
	je	.L177
	.loc 1 523 11 is_stmt 1 view .LVU248
	.loc 1 523 14 is_stmt 0 view .LVU249
	cmpl	$0, 8(%rsp)
	je	.L178
	.loc 1 525 11 is_stmt 1 view .LVU250
	.loc 1 525 35 is_stmt 0 view .LVU251
	movb	$1, affect_symlink_referent(%rip)
	jmp	.L56
.LVL114:
.L122:
	.loc 1 534 6 discriminator 4 view .LVU252
	testl	%edx, %edx
	jle	.L116
	.loc 1 543 3 is_stmt 1 view .LVU253
	.loc 1 543 6 is_stmt 0 view .LVU254
	movq	16(%rsp), %rdi
	testq	%rdi, %rdi
	je	.L63
.LBB95:
	.loc 1 545 7 is_stmt 1 view .LVU255
	.loc 1 545 13 is_stmt 0 view .LVU256
	movq	$0, 32(%rsp)
	.loc 1 547 7 is_stmt 1 view .LVU257
	.loc 1 547 11 is_stmt 0 view .LVU258
	leaq	32(%rsp), %rsi
	call	rpl_getfilecon@PLT
.LVL115:
	.loc 1 547 10 view .LVU259
	testl	%eax, %eax
	js	.L179
	.loc 1 551 7 is_stmt 1 view .LVU260
	.loc 1 551 25 is_stmt 0 view .LVU261
	movq	32(%rsp), %rax
	movq	%rax, specified_context(%rip)
.LBE95:
	.loc 1 567 3 is_stmt 1 view .LVU262
	.loc 1 567 6 is_stmt 0 view .LVU263
	testb	%r13b, %r13b
	jne	.L180
.L67:
	.loc 1 573 3 is_stmt 1 view .LVU264
	call	__errno_location@PLT
.LVL116:
	.loc 1 573 15 is_stmt 0 view .LVU265
	andb	recurse(%rip), %r14b
.LVL117:
	.loc 1 573 15 view .LVU266
	movq	%rax, 16(%rsp)
.LVL118:
	.loc 1 573 15 view .LVU267
	testb	%r14b, %r14b
	jne	.L181
	.loc 1 583 7 is_stmt 1 view .LVU268
	.loc 1 583 20 is_stmt 0 view .LVU269
	movq	$0, root_dev_ino(%rip)
.L69:
	.loc 1 586 3 is_stmt 1 view .LVU270
.LVL119:
.LBB97:
.LBI97:
	.loc 1 312 1 view .LVU271
.LBB98:
	.loc 1 314 3 view .LVU272
	.loc 1 316 3 view .LVU273
.LBE98:
.LBE97:
	.loc 1 586 28 is_stmt 0 view .LVU274
	movslq	optind(%rip), %rax
	.loc 1 586 8 view .LVU275
	movl	%r15d, %esi
.LBB165:
.LBB159:
	.loc 1 316 14 view .LVU276
	xorl	%edx, %edx
	.loc 1 314 8 view .LVU277
	movl	$1, %ebx
.LBE159:
.LBE165:
	.loc 1 586 8 view .LVU278
	orl	$8, %esi
.LVL120:
	.loc 1 586 8 view .LVU279
	leaq	.L74(%rip), %r12
	leaq	0(%rbp,%rax,8), %rdi
.LVL121:
.LBB166:
.LBB160:
	.loc 1 316 14 view .LVU280
	call	xfts_open@PLT
.LVL122:
	.loc 1 316 14 view .LVU281
	movq	%rax, %rbp
.LVL123:
	.loc 1 318 3 is_stmt 1 view .LVU282
.LBB99:
	.loc 1 320 7 view .LVU283
	.loc 1 322 7 view .LVU284
	.loc 1 322 13 is_stmt 0 view .LVU285
	movq	%rbp, %rdi
	call	rpl_fts_read@PLT
.LVL124:
	.loc 1 322 13 view .LVU286
	movq	%rax, %r14
.LVL125:
	.loc 1 323 7 is_stmt 1 view .LVU287
	.loc 1 323 10 is_stmt 0 view .LVU288
	testq	%rax, %rax
	je	.L182
.LVL126:
	.p2align 4,,10
	.p2align 3
.L70:
	.loc 1 334 7 is_stmt 1 view .LVU289
.LBB100:
.LBI100:
	.loc 1 210 1 view .LVU290
.LBB101:
	.loc 1 212 3 view .LVU291
	cmpw	$10, 104(%rax)
	.loc 1 212 15 is_stmt 0 view .LVU292
	movq	56(%rax), %r15
.LVL127:
	.loc 1 213 3 is_stmt 1 view .LVU293
	.loc 1 214 3 view .LVU294
	.loc 1 215 3 view .LVU295
	.loc 1 217 3 view .LVU296
	ja	.L72
	.loc 1 217 3 is_stmt 0 view .LVU297
	movzwl	104(%rax), %eax
.LVL128:
	.loc 1 217 3 view .LVU298
	movslq	(%r12,%rax,4), %rax
	addq	%r12, %rax
	notrack jmp	*%rax
	.section	.rodata
	.align 4
	.align 4
.L74:
	.long	.L72-.L74
	.long	.L79-.L74
	.long	.L78-.L74
	.long	.L72-.L74
	.long	.L77-.L74
	.long	.L72-.L74
	.long	.L76-.L74
	.long	.L75-.L74
	.long	.L72-.L74
	.long	.L72-.L74
	.long	.L73-.L74
	.section	.text.startup
.L76:
	.loc 1 238 7 is_stmt 1 view .LVU299
	.loc 1 238 10 is_stmt 0 view .LVU300
	cmpb	$0, recurse(%rip)
	je	.L169
.LVL129:
	.loc 1 285 16 view .LVU301
	movq	root_dev_ino(%rip), %rax
	.loc 1 285 13 view .LVU302
	testq	%rax, %rax
	je	.L72
	.loc 1 285 16 view .LVU303
	movq	(%rax), %rcx
	cmpq	%rcx, 120(%r14)
	jne	.L72
	movq	8(%rax), %rax
	cmpq	%rax, 112(%r14)
	je	.L183
.LVL130:
	.p2align 4,,10
	.p2align 3
.L72:
	.loc 1 213 15 view .LVU304
	movq	48(%r14), %rax
	.loc 1 293 10 view .LVU305
	cmpb	$0, verbose(%rip)
	.loc 1 213 15 view .LVU306
	movq	%rax, 8(%rsp)
.LVL131:
	.loc 1 291 3 is_stmt 1 view .LVU307
	.loc 1 293 7 view .LVU308
	.loc 1 293 10 is_stmt 0 view .LVU309
	jne	.L184
.L115:
	.loc 1 297 7 is_stmt 1 view .LVU310
.LBB102:
.LBB103:
	.loc 1 149 25 is_stmt 0 view .LVU311
	movq	specified_context(%rip), %r8
.LBE103:
.LBE102:
	.loc 1 297 11 view .LVU312
	movl	44(%rbp), %r15d
.LVL132:
.LBB132:
.LBI102:
	.loc 1 142 1 is_stmt 1 view .LVU313
.LBB124:
	.loc 1 144 3 view .LVU314
	.loc 1 145 13 is_stmt 0 view .LVU315
	xorl	%r13d, %r13d
	.loc 1 144 9 view .LVU316
	movq	$0, 32(%rsp)
	.loc 1 145 3 is_stmt 1 view .LVU317
.LVL133:
	.loc 1 146 3 view .LVU318
	.loc 1 147 3 view .LVU319
	.loc 1 149 3 view .LVU320
	movzbl	affect_symlink_referent(%rip), %eax
	.loc 1 149 6 is_stmt 0 view .LVU321
	testq	%r8, %r8
	je	.L185
.LVL134:
.L88:
.LBB104:
	.loc 1 184 7 is_stmt 1 view .LVU322
	.loc 1 185 22 is_stmt 0 view .LVU323
	movq	%r8, 24(%rsp)
	movq	8(%rsp), %rsi
	movq	%r8, %rdx
	movl	%r15d, %edi
	.loc 1 186 19 view .LVU324
	testb	%al, %al
	je	.L106
.LVL135:
	.loc 1 185 22 view .LVU325
	call	setfileconat@PLT
.LVL136:
	.loc 1 185 22 view .LVU326
	movq	24(%rsp), %r8
.L107:
.LVL137:
	.loc 1 188 7 is_stmt 1 view .LVU327
	.loc 1 188 10 is_stmt 0 view .LVU328
	testl	%eax, %eax
	jne	.L186
.LVL138:
.L108:
	.loc 1 188 10 view .LVU329
.LBE104:
	.loc 1 196 3 is_stmt 1 view .LVU330
	.loc 1 196 6 is_stmt 0 view .LVU331
	cmpq	$0, specified_context(%rip)
	je	.L110
.L168:
.LVL139:
	.loc 1 196 6 view .LVU332
	movl	$1, %r13d
.LVL140:
.L85:
	.loc 1 196 6 view .LVU333
.LBE124:
.LBE132:
	.loc 1 301 3 is_stmt 1 view .LVU334
	.loc 1 301 6 is_stmt 0 view .LVU335
	cmpb	$0, recurse(%rip)
	je	.L187
.LVL141:
.L80:
	.loc 1 301 6 view .LVU336
.LBE101:
.LBE100:
	.loc 1 322 13 view .LVU337
	movq	%rbp, %rdi
	andl	%r13d, %ebx
.LVL142:
	.loc 1 322 13 view .LVU338
.LBE99:
	.loc 1 318 9 is_stmt 1 view .LVU339
	.loc 1 318 3 view .LVU340
.LBB153:
	.loc 1 320 7 view .LVU341
	.loc 1 322 7 view .LVU342
	.loc 1 322 13 is_stmt 0 view .LVU343
	call	rpl_fts_read@PLT
.LVL143:
	movq	%rax, %r14
.LVL144:
	.loc 1 323 7 is_stmt 1 view .LVU344
	.loc 1 323 10 is_stmt 0 view .LVU345
	testq	%rax, %rax
	jne	.L70
.L182:
	.loc 1 325 11 is_stmt 1 view .LVU346
	.loc 1 325 14 is_stmt 0 view .LVU347
	movq	16(%rsp), %rax
.LVL145:
	.loc 1 325 14 view .LVU348
	cmpl	$0, (%rax)
	jne	.L188
.LVL146:
.L71:
	.loc 1 331 11 is_stmt 1 view .LVU349
.LBE153:
	.loc 1 337 3 view .LVU350
	.loc 1 337 7 is_stmt 0 view .LVU351
	movq	%rbp, %rdi
	call	rpl_fts_close@PLT
.LVL147:
	.loc 1 337 6 view .LVU352
	testl	%eax, %eax
	jne	.L189
.LVL148:
.L113:
	.loc 1 343 3 is_stmt 1 view .LVU353
	.loc 1 343 3 is_stmt 0 view .LVU354
.LBE160:
.LBE166:
	.loc 1 588 3 is_stmt 1 view .LVU355
	.loc 1 588 28 is_stmt 0 view .LVU356
	xorl	$1, %ebx
.LVL149:
	.loc 1 589 1 view .LVU357
	movq	40(%rsp), %rcx
	xorq	%fs:40, %rcx
	.loc 1 588 28 view .LVU358
	movzbl	%bl, %eax
	.loc 1 589 1 view .LVU359
	jne	.L190
	addq	$56, %rsp
	.cfi_remember_state
	.cfi_def_cfa_offset 56
	popq	%rbx
	.cfi_def_cfa_offset 48
	popq	%rbp
	.cfi_def_cfa_offset 40
	popq	%r12
	.cfi_def_cfa_offset 32
	popq	%r13
	.cfi_def_cfa_offset 24
	popq	%r14
	.cfi_def_cfa_offset 16
	popq	%r15
	.cfi_def_cfa_offset 8
	ret
.LVL150:
.L73:
	.cfi_restore_state
.LBB167:
.LBB161:
.LBB154:
.LBB149:
.LBB145:
	.loc 1 250 7 is_stmt 1 view .LVU360
	.loc 1 250 10 is_stmt 0 view .LVU361
	cmpq	$0, 88(%r14)
	jne	.L84
	.loc 1 250 31 view .LVU362
	cmpq	$0, 32(%r14)
	je	.L191
.L84:
	.loc 1 256 7 is_stmt 1 view .LVU363
	movq	%r15, %rsi
	movl	$4, %edi
	call	quotearg_style@PLT
.LVL151:
	.loc 1 256 33 is_stmt 0 view .LVU364
	movl	$5, %edx
	leaq	.LC49(%rip), %rsi
	.loc 1 256 7 view .LVU365
	movq	%rax, %r13
.L166:
	.loc 1 267 33 view .LVU366
	xorl	%edi, %edi
	call	dcgettext@PLT
.LVL152:
	.loc 1 267 7 view .LVU367
	movl	64(%r14), %esi
	movq	%r13, %rcx
	xorl	%edi, %edi
	.loc 1 267 33 view .LVU368
	movq	%rax, %rdx
	.loc 1 267 7 view .LVU369
	xorl	%eax, %eax
	call	error@PLT
.LVL153:
.L167:
	.loc 1 269 7 is_stmt 1 view .LVU370
	.loc 1 270 7 view .LVU371
	.loc 1 284 3 view .LVU372
	.loc 1 267 7 is_stmt 0 view .LVU373
	xorl	%r13d, %r13d
.LVL154:
	.loc 1 301 3 is_stmt 1 view .LVU374
	.loc 1 301 6 is_stmt 0 view .LVU375
	cmpb	$0, recurse(%rip)
	jne	.L80
.L187:
	.loc 1 302 5 is_stmt 1 view .LVU376
	movl	$4, %edx
	movq	%r14, %rsi
	movq	%rbp, %rdi
	call	rpl_fts_set@PLT
.LVL155:
	jmp	.L80
.LVL156:
.L75:
	.loc 1 262 7 view .LVU377
	movq	%r15, %rdx
	movl	$3, %esi
	xorl	%edi, %edi
	xorl	%r13d, %r13d
	call	quotearg_n_style_colon@PLT
.LVL157:
	.loc 1 262 7 is_stmt 0 view .LVU378
	movl	64(%r14), %esi
	leaq	.LC50(%rip), %rdx
	xorl	%edi, %edi
	movq	%rax, %rcx
	xorl	%eax, %eax
	call	error@PLT
.LVL158:
	.loc 1 263 7 is_stmt 1 view .LVU379
	.loc 1 264 7 view .LVU380
	.loc 1 284 3 view .LVU381
	jmp	.L85
.LVL159:
.L77:
	.loc 1 267 7 view .LVU382
	movq	%r15, %rsi
	movl	$4, %edi
	call	quotearg_style@PLT
.LVL160:
	.loc 1 267 33 is_stmt 0 view .LVU383
	movl	$5, %edx
	leaq	.LC51(%rip), %rsi
	.loc 1 267 7 view .LVU384
	movq	%rax, %r13
	jmp	.L166
.LVL161:
.L78:
	.loc 1 273 7 is_stmt 1 view .LVU385
	.loc 1 273 11 is_stmt 0 view .LVU386
	movq	%r14, %rsi
	movq	%rbp, %rdi
	call	cycle_warning_required@PLT
.LVL162:
	.loc 1 273 10 view .LVU387
	testb	%al, %al
	je	.L72
	.loc 1 275 11 is_stmt 1 view .LVU388
	.loc 1 275 11 view .LVU389
	movq	%r15, %rdx
	movl	$3, %esi
	xorl	%edi, %edi
	call	quotearg_n_style_colon@PLT
.LVL163:
	movl	$5, %edx
	leaq	.LC52(%rip), %rsi
	xorl	%edi, %edi
	movq	%rax, %r13
	call	dcgettext@PLT
.LVL164:
	movq	%r13, %rcx
	xorl	%esi, %esi
	xorl	%edi, %edi
	movq	%rax, %rdx
	xorl	%eax, %eax
	.loc 1 276 18 is_stmt 0 view .LVU390
	xorl	%r13d, %r13d
	.loc 1 275 11 view .LVU391
	call	error@PLT
.LVL165:
	.loc 1 275 11 is_stmt 1 view .LVU392
	.loc 1 276 11 view .LVU393
	.loc 1 276 18 is_stmt 0 view .LVU394
	jmp	.L80
.LVL166:
.L79:
	.loc 1 220 7 is_stmt 1 view .LVU395
	.loc 1 220 11 is_stmt 0 view .LVU396
	movzbl	recurse(%rip), %r13d
	.loc 1 220 10 view .LVU397
	testb	%r13b, %r13b
	je	.L72
	.loc 1 222 11 is_stmt 1 view .LVU398
	.loc 1 222 15 is_stmt 0 view .LVU399
	movq	root_dev_ino(%rip), %rax
	.loc 1 222 14 view .LVU400
	testq	%rax, %rax
	je	.L80
	.loc 1 222 15 view .LVU401
	movq	(%rax), %rcx
	cmpq	%rcx, 120(%r14)
	jne	.L80
	movq	8(%rax), %rax
	cmpq	%rax, 112(%r14)
	jne	.L80
	.loc 1 226 15 is_stmt 1 view .LVU402
	.loc 1 226 15 view .LVU403
	leaq	.LC43(%rip), %rsi
	movq	%r15, %rdi
	call	strcmp@PLT
.LVL167:
	.loc 1 226 15 is_stmt 0 view .LVU404
	testl	%eax, %eax
	jne	.L81
	.loc 1 226 15 is_stmt 1 view .LVU405
	movq	%r15, %rsi
	movl	$4, %edi
	call	quotearg_style@PLT
.LVL168:
	movl	$5, %edx
	leaq	.LC46(%rip), %rsi
	xorl	%edi, %edi
	movq	%rax, %r13
	call	dcgettext@PLT
.LVL169:
	movq	%r13, %rcx
	xorl	%esi, %esi
	xorl	%edi, %edi
	movq	%rax, %rdx
	xorl	%eax, %eax
	call	error@PLT
.LVL170:
.L82:
	.loc 1 226 15 view .LVU406
	movl	$5, %edx
	leaq	.LC48(%rip), %rsi
	xorl	%edi, %edi
	.loc 1 231 22 is_stmt 0 view .LVU407
	xorl	%r13d, %r13d
	.loc 1 226 15 view .LVU408
	call	dcgettext@PLT
.LVL171:
	xorl	%esi, %esi
	xorl	%edi, %edi
	movq	%rax, %rdx
	xorl	%eax, %eax
	call	error@PLT
.LVL172:
	.loc 1 226 15 is_stmt 1 view .LVU409
	.loc 1 228 15 view .LVU410
	movl	$4, %edx
	movq	%r14, %rsi
	movq	%rbp, %rdi
	call	rpl_fts_set@PLT
.LVL173:
	.loc 1 230 15 view .LVU411
.LBB133:
	.loc 1 230 15 view .LVU412
	movq	%rbp, %rdi
	call	rpl_fts_read@PLT
.LVL174:
	.loc 1 230 15 view .LVU413
.LBE133:
	.loc 1 231 15 view .LVU414
	.loc 1 231 22 is_stmt 0 view .LVU415
	jmp	.L80
.L184:
	.loc 1 294 9 is_stmt 1 view .LVU416
	movq	%r15, %rsi
	movl	$4, %edi
	call	quotearg_style@PLT
.LVL175:
	.loc 1 294 17 is_stmt 0 view .LVU417
	xorl	%edi, %edi
	movl	$5, %edx
	leaq	.LC53(%rip), %rsi
	.loc 1 294 9 view .LVU418
	movq	%rax, %r13
	.loc 1 294 17 view .LVU419
	call	dcgettext@PLT
.LVL176:
.LBB134:
.LBB135:
	.loc 2 107 10 view .LVU420
	movq	%r13, %rdx
	movl	$1, %edi
.LBE135:
.LBE134:
	.loc 1 294 17 view .LVU421
	movq	%rax, %rsi
.LVL177:
.LBB137:
.LBI134:
	.loc 2 105 1 is_stmt 1 view .LVU422
.LBB136:
	.loc 2 107 3 view .LVU423
	.loc 2 107 10 is_stmt 0 view .LVU424
	xorl	%eax, %eax
.LVL178:
	.loc 2 107 10 view .LVU425
	call	__printf_chk@PLT
.LVL179:
	.loc 2 107 10 view .LVU426
	jmp	.L115
.LVL180:
.L185:
	.loc 2 107 10 view .LVU427
.LBE136:
.LBE137:
.LBB138:
.LBB125:
.LBB105:
	.loc 1 151 7 is_stmt 1 view .LVU428
	.loc 1 152 23 is_stmt 0 view .LVU429
	movq	8(%rsp), %rsi
	leaq	32(%rsp), %rdx
	movl	%r15d, %edi
	.loc 1 153 21 view .LVU430
	testb	%al, %al
	je	.L89
.LVL181:
	.loc 1 152 23 view .LVU431
	call	getfileconat@PLT
.LVL182:
.L90:
	.loc 1 155 7 is_stmt 1 view .LVU432
	.loc 1 155 10 is_stmt 0 view .LVU433
	testl	%eax, %eax
	js	.L192
.LVL183:
.L91:
	.loc 1 165 7 is_stmt 1 view .LVU434
	.loc 1 165 24 is_stmt 0 view .LVU435
	movq	32(%rsp), %rdi
	.loc 1 165 10 view .LVU436
	testq	%rdi, %rdi
	je	.L193
	.loc 1 172 7 is_stmt 1 view .LVU437
.LVL184:
.LBB106:
.LBI106:
	.loc 1 95 1 view .LVU438
.LBB107:
	.loc 1 97 3 view .LVU439
	.loc 1 98 3 view .LVU440
	.loc 1 98 27 is_stmt 0 view .LVU441
	movq	%rdi, 24(%rsp)
	call	context_new@PLT
.LVL185:
	.loc 1 99 6 view .LVU442
	movq	24(%rsp), %rdi
	testq	%rax, %rax
	.loc 1 98 27 view .LVU443
	movq	%rax, %r13
.LVL186:
	.loc 1 99 3 is_stmt 1 view .LVU444
	.loc 1 99 6 is_stmt 0 view .LVU445
	je	.L194
	.loc 1 120 3 is_stmt 1 view .LVU446
	.loc 1 120 3 view .LVU447
	movq	specified_user(%rip), %rsi
	testq	%rsi, %rsi
	je	.L97
	movq	%rax, %rdi
	call	context_user_set@PLT
.LVL187:
	.loc 1 120 3 is_stmt 0 view .LVU448
	testl	%eax, %eax
	jne	.L195
.L97:
	.loc 1 97 8 view .LVU449
	movb	$1, 24(%rsp)
.LVL188:
.L96:
	.loc 1 120 3 is_stmt 1 view .LVU450
	.loc 1 121 3 view .LVU451
	.loc 1 121 3 view .LVU452
	movq	specified_range(%rip), %rsi
	testq	%rsi, %rsi
	je	.L98
	movq	%r13, %rdi
	call	context_range_set@PLT
.LVL189:
	testl	%eax, %eax
	jne	.L196
.LVL190:
.L98:
	.loc 1 121 3 view .LVU453
	.loc 1 122 3 view .LVU454
	.loc 1 122 3 view .LVU455
	movq	specified_role(%rip), %rsi
	testq	%rsi, %rsi
	je	.L99
	movq	%r13, %rdi
	call	context_role_set@PLT
.LVL191:
	testl	%eax, %eax
	jne	.L197
.L99:
	.loc 1 122 3 view .LVU456
	.loc 1 123 3 view .LVU457
	.loc 1 123 3 view .LVU458
	movq	specified_type(%rip), %rsi
	testq	%rsi, %rsi
	je	.L102
	movq	%r13, %rdi
	call	context_type_set@PLT
.LVL192:
	testl	%eax, %eax
	jne	.L118
.L102:
	.loc 1 123 3 view .LVU459
	.loc 1 125 3 view .LVU460
	.loc 1 125 6 is_stmt 0 view .LVU461
	cmpb	$0, 24(%rsp)
	je	.L103
.LVL193:
	.loc 1 125 6 view .LVU462
.LBE107:
.LBE106:
	.loc 1 175 7 is_stmt 1 view .LVU463
	.loc 1 175 24 is_stmt 0 view .LVU464
	movq	%r13, %rdi
	call	context_str@PLT
.LVL194:
.LBE105:
	.loc 1 182 20 view .LVU465
	movq	32(%rsp), %rsi
.LBB115:
	.loc 1 175 24 view .LVU466
	movq	%rax, %r8
.LVL195:
	.loc 1 175 24 view .LVU467
.LBE115:
	.loc 1 182 3 is_stmt 1 view .LVU468
	movzbl	affect_symlink_referent(%rip), %eax
.LVL196:
	.loc 1 182 6 is_stmt 0 view .LVU469
	testq	%rsi, %rsi
	je	.L88
	.loc 1 182 33 view .LVU470
	movq	%r8, %rdi
	movq	%r8, 24(%rsp)
	call	strcmp@PLT
.LVL197:
	.loc 1 182 28 view .LVU471
	testl	%eax, %eax
	je	.L108
	movzbl	affect_symlink_referent(%rip), %eax
	movq	24(%rsp), %r8
	jmp	.L88
.LVL198:
.L106:
.LBB116:
	.loc 1 186 21 view .LVU472
	call	lsetfileconat@PLT
.LVL199:
	.loc 1 186 21 view .LVU473
	movq	24(%rsp), %r8
	jmp	.L107
.LVL200:
.L186:
	.loc 1 190 11 is_stmt 1 view .LVU474
	.loc 1 191 11 view .LVU475
	movq	%r8, %rsi
	movl	$1, %edi
	call	quote_n@PLT
.LVL201:
	.loc 1 191 11 is_stmt 0 view .LVU476
	movq	8(%rsp), %rdx
	xorl	%edi, %edi
	movl	$4, %esi
	movq	%rax, %r15
.LVL202:
	.loc 1 191 11 view .LVU477
	call	quotearg_n_style@PLT
.LVL203:
	.loc 1 191 28 view .LVU478
	xorl	%edi, %edi
	movl	$5, %edx
	leaq	.LC61(%rip), %rsi
	.loc 1 191 11 view .LVU479
	movq	%rax, 8(%rsp)
	.loc 1 191 28 view .LVU480
	call	dcgettext@PLT
.LVL204:
	.loc 1 191 11 view .LVU481
	movq	8(%rsp), %rcx
	xorl	%edi, %edi
	movq	%r15, %r8
	.loc 1 191 28 view .LVU482
	movq	%rax, %rdx
	.loc 1 191 11 view .LVU483
	movq	16(%rsp), %rax
	movl	(%rax), %esi
	xorl	%eax, %eax
	call	error@PLT
.LVL205:
	.loc 1 191 11 view .LVU484
.LBE116:
	.loc 1 196 3 is_stmt 1 view .LVU485
	.loc 1 196 6 is_stmt 0 view .LVU486
	cmpq	$0, specified_context(%rip)
	jne	.L167
	.loc 1 198 7 is_stmt 1 view .LVU487
	movq	%r13, %rdi
	call	context_free@PLT
.LVL206:
	.loc 1 199 7 view .LVU488
	movq	32(%rsp), %rdi
	call	freecon@PLT
.LVL207:
	.loc 1 199 7 is_stmt 0 view .LVU489
	jmp	.L167
.LVL208:
.L191:
	.loc 1 199 7 view .LVU490
.LBE125:
.LBE138:
	.loc 1 252 11 is_stmt 1 view .LVU491
	.loc 1 252 27 is_stmt 0 view .LVU492
	movq	$1, 32(%r14)
	.loc 1 253 11 is_stmt 1 view .LVU493
	movl	$1, %edx
	movq	%r14, %rsi
	movq	%rbp, %rdi
	call	rpl_fts_set@PLT
.LVL209:
.L169:
	.loc 1 254 11 view .LVU494
	.loc 1 254 18 is_stmt 0 view .LVU495
	movl	$1, %r13d
	jmp	.L80
.LVL210:
.L89:
.LBB139:
.LBB126:
.LBB117:
	.loc 1 153 23 view .LVU496
	call	lgetfileconat@PLT
.LVL211:
	.loc 1 153 23 view .LVU497
	jmp	.L90
.LVL212:
.L192:
	.loc 1 155 22 view .LVU498
	movq	16(%rsp), %rax
.LVL213:
	.loc 1 155 22 view .LVU499
	cmpl	$61, (%rax)
	je	.L91
	.loc 1 157 11 is_stmt 1 view .LVU500
	movq	8(%rsp), %rsi
	movl	$4, %edi
	call	quotearg_style@PLT
.LVL214:
	.loc 1 157 28 is_stmt 0 view .LVU501
	movl	$5, %edx
	leaq	.LC40(%rip), %rsi
	xorl	%edi, %edi
	.loc 1 157 11 view .LVU502
	movq	%rax, %r13
	.loc 1 157 28 view .LVU503
	call	dcgettext@PLT
.LVL215:
	.loc 1 157 11 view .LVU504
	movq	%r13, %rcx
	xorl	%edi, %edi
.LBE117:
.LBE126:
.LBE139:
	.loc 1 298 12 view .LVU505
	xorl	%r13d, %r13d
.LBB140:
.LBB127:
.LBB118:
	.loc 1 157 28 view .LVU506
	movq	%rax, %rdx
	.loc 1 157 11 view .LVU507
	movq	16(%rsp), %rax
	movl	(%rax), %esi
	xorl	%eax, %eax
	call	error@PLT
.LVL216:
	.loc 1 159 11 is_stmt 1 view .LVU508
	.loc 1 159 11 is_stmt 0 view .LVU509
	jmp	.L85
.LVL217:
.L189:
	.loc 1 159 11 view .LVU510
.LBE118:
.LBE127:
.LBE140:
.LBE145:
.LBE149:
.LBE154:
	.loc 1 339 7 is_stmt 1 view .LVU511
	.loc 1 339 24 is_stmt 0 view .LVU512
	movl	$5, %edx
	leaq	.LC62(%rip), %rsi
	xorl	%edi, %edi
	.loc 1 340 10 view .LVU513
	xorl	%ebx, %ebx
.LVL218:
	.loc 1 339 24 view .LVU514
	call	dcgettext@PLT
.LVL219:
	.loc 1 339 7 view .LVU515
	xorl	%edi, %edi
	.loc 1 339 24 view .LVU516
	movq	%rax, %rdx
	.loc 1 339 7 view .LVU517
	movq	16(%rsp), %rax
	movl	(%rax), %esi
	xorl	%eax, %eax
	call	error@PLT
.LVL220:
	.loc 1 340 7 is_stmt 1 view .LVU518
	.loc 1 340 7 is_stmt 0 view .LVU519
	jmp	.L113
.LVL221:
.L188:
.LBB155:
	.loc 1 328 15 is_stmt 1 view .LVU520
	.loc 1 328 32 is_stmt 0 view .LVU521
	movl	$5, %edx
	leaq	.LC45(%rip), %rsi
	xorl	%edi, %edi
	.loc 1 329 18 view .LVU522
	xorl	%ebx, %ebx
.LVL222:
	.loc 1 328 32 view .LVU523
	call	dcgettext@PLT
.LVL223:
	.loc 1 328 15 view .LVU524
	xorl	%edi, %edi
	.loc 1 328 32 view .LVU525
	movq	%rax, %rdx
	.loc 1 328 15 view .LVU526
	movq	16(%rsp), %rax
	movl	(%rax), %esi
	xorl	%eax, %eax
	call	error@PLT
.LVL224:
	.loc 1 329 15 is_stmt 1 view .LVU527
	.loc 1 329 15 is_stmt 0 view .LVU528
	jmp	.L71
.LVL225:
.L63:
	.loc 1 329 15 view .LVU529
.LBE155:
.LBE161:
.LBE167:
	.loc 1 553 8 is_stmt 1 view .LVU530
	.loc 1 556 7 view .LVU531
	.loc 1 556 25 is_stmt 0 view .LVU532
	movq	$0, specified_context(%rip)
	.loc 1 567 3 is_stmt 1 view .LVU533
	jmp	.L67
.LVL226:
.L197:
.LBB168:
.LBB162:
.LBB156:
.LBB150:
.LBB146:
.LBB141:
.LBB128:
.LBB119:
.LBB112:
.LBB109:
	.loc 1 122 3 view .LVU534
	movq	specified_role(%rip), %rdi
	call	quote@PLT
.LVL227:
	movl	$5, %edx
	leaq	.LC56(%rip), %rsi
	xorl	%edi, %edi
	movq	%rax, %r15
.LVL228:
	.loc 1 122 3 is_stmt 0 view .LVU535
	call	dcgettext@PLT
.LVL229:
	movq	%r15, %r8
	leaq	.LC59(%rip), %rcx
	xorl	%edi, %edi
	movq	%rax, %rdx
	movq	16(%rsp), %rax
	movl	(%rax), %esi
	xorl	%eax, %eax
	call	error@PLT
.LVL230:
	.loc 1 122 3 is_stmt 1 view .LVU536
	.loc 1 122 3 view .LVU537
	.loc 1 123 3 view .LVU538
	.loc 1 123 3 view .LVU539
	movq	specified_type(%rip), %rsi
	testq	%rsi, %rsi
	je	.L103
	movq	%r13, %rdi
	call	context_type_set@PLT
.LVL231:
	testl	%eax, %eax
	je	.L103
.LVL232:
.L118:
	.loc 1 123 3 view .LVU540
	movq	specified_type(%rip), %rdi
	call	quote@PLT
.LVL233:
	movl	$5, %edx
	leaq	.LC56(%rip), %rsi
	xorl	%edi, %edi
	movq	%rax, %r15
	call	dcgettext@PLT
.LVL234:
	movq	%r15, %r8
	leaq	.LC60(%rip), %rcx
	xorl	%edi, %edi
	movq	%rax, %rdx
	movq	16(%rsp), %rax
	movl	(%rax), %esi
	xorl	%eax, %eax
	call	error@PLT
.LVL235:
	.loc 1 123 3 view .LVU541
	.loc 1 123 3 view .LVU542
	.loc 1 125 3 view .LVU543
.L103:
.LBB108:
	.loc 1 127 7 view .LVU544
	.loc 1 127 11 is_stmt 0 view .LVU545
	movq	16(%rsp), %rax
	.loc 1 128 7 view .LVU546
	movq	%r13, %rdi
	.loc 1 127 11 view .LVU547
	movl	(%rax), %r15d
.LVL236:
	.loc 1 128 7 is_stmt 1 view .LVU548
	call	context_free@PLT
.LVL237:
	.loc 1 129 7 view .LVU549
	.loc 1 129 13 is_stmt 0 view .LVU550
	movq	16(%rsp), %rax
	movl	%r15d, (%rax)
	.loc 1 130 7 is_stmt 1 view .LVU551
.LVL238:
	.loc 1 130 7 is_stmt 0 view .LVU552
	jmp	.L167
.LVL239:
.L177:
	.loc 1 130 7 view .LVU553
.LBE108:
.LBE109:
.LBE112:
.LBE119:
.LBE128:
.LBE141:
.LBE146:
.LBE150:
.LBE156:
.LBE162:
.LBE168:
	.loc 1 516 11 is_stmt 1 view .LVU554
	.loc 1 516 14 is_stmt 0 view .LVU555
	cmpl	$1, 8(%rsp)
	je	.L198
	.loc 1 519 11 is_stmt 1 view .LVU556
	.loc 1 519 35 is_stmt 0 view .LVU557
	movb	$0, affect_symlink_referent(%rip)
	jmp	.L56
.LVL240:
.L181:
.LBB169:
	.loc 1 575 7 is_stmt 1 view .LVU558
	.loc 1 576 7 view .LVU559
	.loc 1 576 22 is_stmt 0 view .LVU560
	leaq	dev_ino_buf.7786(%rip), %rdi
	call	get_root_dev_ino@PLT
.LVL241:
	.loc 1 576 20 view .LVU561
	movq	%rax, root_dev_ino(%rip)
	.loc 1 577 7 is_stmt 1 view .LVU562
	.loc 1 577 10 is_stmt 0 view .LVU563
	testq	%rax, %rax
	jne	.L69
.LBB170:
	.loc 1 578 9 is_stmt 1 view .LVU564
	leaq	.LC43(%rip), %rsi
	movl	$4, %edi
	call	quotearg_style@PLT
.LVL242:
	movl	$5, %edx
	leaq	.LC44(%rip), %rsi
	xorl	%edi, %edi
	movq	%rax, %r12
	call	dcgettext@PLT
.LVL243:
	movq	%r12, %rcx
	movl	$1, %edi
	movq	%rax, %rdx
	movq	16(%rsp), %rax
	movl	(%rax), %esi
	xorl	%eax, %eax
	call	error@PLT
.LVL244:
.L183:
	.loc 1 578 9 is_stmt 0 view .LVU565
.LBE170:
.LBE169:
.LBB171:
.LBB163:
.LBB157:
.LBB151:
.LBB147:
	.loc 1 287 7 is_stmt 1 view .LVU566
	.loc 1 287 7 view .LVU567
	leaq	.LC43(%rip), %rsi
	movq	%r15, %rdi
	call	strcmp@PLT
.LVL245:
	.loc 1 287 7 is_stmt 0 view .LVU568
	testl	%eax, %eax
	jne	.L86
	.loc 1 287 7 is_stmt 1 view .LVU569
	movq	%r15, %rsi
	movl	$4, %edi
	call	quotearg_style@PLT
.LVL246:
	movl	$5, %edx
	leaq	.LC46(%rip), %rsi
	xorl	%edi, %edi
	movq	%rax, %r13
	call	dcgettext@PLT
.LVL247:
	movq	%r13, %rcx
	xorl	%esi, %esi
	xorl	%edi, %edi
	movq	%rax, %rdx
	xorl	%eax, %eax
	call	error@PLT
.LVL248:
.L87:
	.loc 1 287 7 view .LVU570
	movl	$5, %edx
	leaq	.LC48(%rip), %rsi
	xorl	%edi, %edi
	.loc 1 288 10 is_stmt 0 view .LVU571
	xorl	%r13d, %r13d
	.loc 1 287 7 view .LVU572
	call	dcgettext@PLT
.LVL249:
	xorl	%esi, %esi
	xorl	%edi, %edi
	movq	%rax, %rdx
	xorl	%eax, %eax
	call	error@PLT
.LVL250:
	.loc 1 287 7 is_stmt 1 view .LVU573
	.loc 1 288 7 view .LVU574
	.loc 1 291 3 view .LVU575
	jmp	.L85
.LVL251:
.L193:
.LBB142:
.LBB129:
.LBB120:
	.loc 1 167 11 view .LVU576
	movq	8(%rsp), %rsi
	movl	$4, %edi
	call	quotearg_style@PLT
.LVL252:
	.loc 1 167 24 is_stmt 0 view .LVU577
	movl	$5, %edx
	leaq	.LC54(%rip), %rsi
	xorl	%edi, %edi
	.loc 1 167 11 view .LVU578
	movq	%rax, %r13
	.loc 1 167 24 view .LVU579
	call	dcgettext@PLT
.LVL253:
	.loc 1 167 11 view .LVU580
	movq	%r13, %rcx
	xorl	%esi, %esi
	xorl	%edi, %edi
	.loc 1 167 24 view .LVU581
	movq	%rax, %rdx
	.loc 1 167 11 view .LVU582
	xorl	%eax, %eax
.LBE120:
.LBE129:
.LBE142:
	.loc 1 298 12 view .LVU583
	xorl	%r13d, %r13d
.LBB143:
.LBB130:
.LBB121:
	.loc 1 167 11 view .LVU584
	call	error@PLT
.LVL254:
	.loc 1 169 11 is_stmt 1 view .LVU585
	.loc 1 169 11 is_stmt 0 view .LVU586
	jmp	.L85
.LVL255:
.L176:
	.loc 1 169 11 view .LVU587
.LBE121:
.LBE130:
.LBE143:
.LBE147:
.LBE151:
.LBE157:
.LBE163:
.LBE171:
	.loc 1 560 7 is_stmt 1 view .LVU588
	.loc 1 560 38 is_stmt 0 view .LVU589
	leal	1(%rax), %edx
	.loc 1 560 25 view .LVU590
	movq	0(%rbp,%rax,8), %rax
	.loc 1 560 38 view .LVU591
	movl	%edx, optind(%rip)
	.loc 1 560 25 view .LVU592
	movq	%rax, specified_context(%rip)
	.loc 1 561 7 is_stmt 1 view .LVU593
	.loc 1 561 15 is_stmt 0 view .LVU594
	call	is_selinux_enabled@PLT
.LVL256:
	.loc 1 561 10 view .LVU595
	testl	%eax, %eax
	jle	.L67
	.loc 1 562 14 view .LVU596
	movq	specified_context(%rip), %rdi
	call	security_check_context@PLT
.LVL257:
	.loc 1 562 11 view .LVU597
	testl	%eax, %eax
	jns	.L67
.LBB172:
	.loc 1 563 9 is_stmt 1 view .LVU598
	movq	specified_context(%rip), %rdi
	call	quote@PLT
.LVL258:
	movl	$5, %edx
	leaq	.LC41(%rip), %rsi
	xorl	%edi, %edi
	movq	%rax, %r13
.LVL259:
	.loc 1 563 9 is_stmt 0 view .LVU599
	call	dcgettext@PLT
.LVL260:
	movq	%rax, %r12
	call	__errno_location@PLT
.LVL261:
	movq	%r13, %rcx
	movq	%r12, %rdx
	movl	$1, %edi
	movl	(%rax), %esi
	xorl	%eax, %eax
	call	error@PLT
.LVL262:
.L196:
	.loc 1 563 9 view .LVU600
.LBE172:
.LBB173:
.LBB164:
.LBB158:
.LBB152:
.LBB148:
.LBB144:
.LBB131:
.LBB122:
.LBB113:
.LBB110:
	.loc 1 121 3 is_stmt 1 view .LVU601
	movq	specified_range(%rip), %rdi
	call	quote@PLT
.LVL263:
	movl	$5, %edx
	leaq	.LC56(%rip), %rsi
	xorl	%edi, %edi
	movq	%rax, 24(%rsp)
.LVL264:
	.loc 1 121 3 is_stmt 0 view .LVU602
	call	dcgettext@PLT
.LVL265:
	movq	24(%rsp), %r8
	leaq	.LC58(%rip), %rcx
	xorl	%edi, %edi
	movq	%rax, %rdx
	movq	16(%rsp), %rax
	movl	(%rax), %esi
	xorl	%eax, %eax
	call	error@PLT
.LVL266:
	.loc 1 121 3 is_stmt 1 view .LVU603
	.loc 1 121 3 is_stmt 0 view .LVU604
	movb	$0, 24(%rsp)
	jmp	.L98
.LVL267:
.L195:
	.loc 1 120 3 is_stmt 1 view .LVU605
	movq	specified_user(%rip), %rdi
	call	quote@PLT
.LVL268:
	movl	$5, %edx
	leaq	.LC56(%rip), %rsi
	xorl	%edi, %edi
	movq	%rax, 24(%rsp)
.LVL269:
	.loc 1 120 3 is_stmt 0 view .LVU606
	call	dcgettext@PLT
.LVL270:
	movq	24(%rsp), %r8
	leaq	.LC57(%rip), %rcx
	xorl	%edi, %edi
	movq	%rax, %rdx
	movq	16(%rsp), %rax
	movl	(%rax), %esi
	xorl	%eax, %eax
	call	error@PLT
.LVL271:
	.loc 1 120 3 is_stmt 1 view .LVU607
	.loc 1 120 3 is_stmt 0 view .LVU608
	movb	$0, 24(%rsp)
	jmp	.L96
.LVL272:
.L110:
	.loc 1 120 3 view .LVU609
.LBE110:
.LBE113:
.LBE122:
	.loc 1 198 7 is_stmt 1 view .LVU610
	movq	%r13, %rdi
	call	context_free@PLT
.LVL273:
	.loc 1 199 7 view .LVU611
	movq	32(%rsp), %rdi
	call	freecon@PLT
.LVL274:
	jmp	.L168
.LVL275:
.L194:
.LBB123:
.LBB114:
.LBB111:
	.loc 1 101 7 view .LVU612
	call	quote@PLT
.LVL276:
	.loc 1 101 24 is_stmt 0 view .LVU613
	xorl	%edi, %edi
	movl	$5, %edx
	leaq	.LC55(%rip), %rsi
	.loc 1 101 7 view .LVU614
	movq	%rax, %r13
.LVL277:
	.loc 1 101 24 view .LVU615
	call	dcgettext@PLT
.LVL278:
	.loc 1 101 7 view .LVU616
	movq	%r13, %rcx
	xorl	%edi, %edi
	.loc 1 101 24 view .LVU617
	movq	%rax, %rdx
	.loc 1 101 7 view .LVU618
	movq	16(%rsp), %rax
	movl	(%rax), %esi
	xorl	%eax, %eax
	call	error@PLT
.LVL279:
	.loc 1 103 7 is_stmt 1 view .LVU619
	.loc 1 103 7 is_stmt 0 view .LVU620
	jmp	.L167
.LVL280:
.L86:
	.loc 1 103 7 view .LVU621
.LBE111:
.LBE114:
.LBE123:
.LBE131:
.LBE144:
	.loc 1 287 7 is_stmt 1 view .LVU622
	leaq	.LC43(%rip), %rdx
	movl	$4, %esi
	movl	$1, %edi
	call	quotearg_n_style@PLT
.LVL281:
	movq	%r15, %rdx
	xorl	%edi, %edi
	movl	$4, %esi
	movq	%rax, 8(%rsp)
	call	quotearg_n_style@PLT
.LVL282:
	xorl	%edi, %edi
	movl	$5, %edx
	leaq	.LC47(%rip), %rsi
	movq	%rax, %r13
	call	dcgettext@PLT
.LVL283:
	movq	8(%rsp), %r8
	movq	%r13, %rcx
	xorl	%esi, %esi
	movq	%rax, %rdx
	xorl	%edi, %edi
	xorl	%eax, %eax
	call	error@PLT
.LVL284:
	jmp	.L87
.LVL285:
.L81:
	.loc 1 226 15 view .LVU623
	leaq	.LC43(%rip), %rdx
	movl	$4, %esi
	movl	$1, %edi
	call	quotearg_n_style@PLT
.LVL286:
	movq	%r15, %rdx
	xorl	%edi, %edi
	movl	$4, %esi
	movq	%rax, 8(%rsp)
	call	quotearg_n_style@PLT
.LVL287:
	xorl	%edi, %edi
	movl	$5, %edx
	leaq	.LC47(%rip), %rsi
	movq	%rax, %r13
	call	dcgettext@PLT
.LVL288:
	movq	8(%rsp), %r8
	movq	%r13, %rcx
	xorl	%esi, %esi
	movq	%rax, %rdx
	xorl	%edi, %edi
	xorl	%eax, %eax
	call	error@PLT
.LVL289:
	jmp	.L82
.LVL290:
.L190:
	.loc 1 226 15 is_stmt 0 view .LVU624
.LBE148:
.LBE152:
.LBE158:
.LBE164:
.LBE173:
	.loc 1 589 1 view .LVU625
	call	__stack_chk_fail@PLT
.LVL291:
.L178:
.LBB174:
	.loc 1 524 13 is_stmt 1 view .LVU626
	movl	$5, %edx
	leaq	.LC37(%rip), %rsi
	xorl	%edi, %edi
	call	dcgettext@PLT
.LVL292:
	.loc 1 524 13 is_stmt 0 view .LVU627
	xorl	%esi, %esi
	movl	$1, %edi
	movq	%rax, %rdx
	xorl	%eax, %eax
	call	error@PLT
.LVL293:
.L61:
	.loc 1 524 13 view .LVU628
.LBE174:
	.loc 1 539 9 is_stmt 1 view .LVU629
	movq	-8(%rbp,%r12,8), %rdi
	call	quote@PLT
.LVL294:
	.loc 1 539 22 is_stmt 0 view .LVU630
	xorl	%edi, %edi
	movl	$5, %edx
	leaq	.LC39(%rip), %rsi
	.loc 1 539 9 view .LVU631
	movq	%rax, %r12
	.loc 1 539 22 view .LVU632
	call	dcgettext@PLT
.LVL295:
	.loc 1 539 9 view .LVU633
	movq	%r12, %rcx
	xorl	%esi, %esi
	xorl	%edi, %edi
	.loc 1 539 22 view .LVU634
	movq	%rax, %rdx
	.loc 1 539 9 view .LVU635
	xorl	%eax, %eax
	call	error@PLT
.LVL296:
	.loc 1 540 7 is_stmt 1 view .LVU636
	jmp	.L170
.L180:
	.loc 1 569 7 view .LVU637
	.loc 1 569 20 is_stmt 0 view .LVU638
	movl	$5, %edx
	leaq	.LC42(%rip), %rsi
	jmp	.L171
.L179:
.LBB175:
.LBB96:
	.loc 1 548 9 is_stmt 1 view .LVU639
	movq	16(%rsp), %rsi
	movl	$4, %edi
	call	quotearg_style@PLT
.LVL297:
	movl	$5, %edx
	leaq	.LC40(%rip), %rsi
	xorl	%edi, %edi
	movq	%rax, %r13
.LVL298:
	.loc 1 548 9 is_stmt 0 view .LVU640
	call	dcgettext@PLT
.LVL299:
	movq	%rax, %r12
	call	__errno_location@PLT
.LVL300:
	movq	%r13, %rcx
	movq	%r12, %rdx
	movl	$1, %edi
	movl	(%rax), %esi
	xorl	%eax, %eax
	call	error@PLT
.LVL301:
.L198:
	.loc 1 548 9 view .LVU641
.LBE96:
.LBE175:
.LBB176:
	.loc 1 517 13 is_stmt 1 view .LVU642
	movl	$5, %edx
	leaq	.LC36(%rip), %rsi
	xorl	%edi, %edi
	call	dcgettext@PLT
.LVL302:
	.loc 1 517 13 is_stmt 0 view .LVU643
	xorl	%esi, %esi
	movl	$1, %edi
	movq	%rax, %rdx
	xorl	%eax, %eax
	call	error@PLT
.LVL303:
.LBE176:
	.cfi_endproc
.LFE140:
	.size	main, .-main
	.local	dev_ino_buf.7786
	.comm	dev_ino_buf.7786,16,16
	.section	.rodata.str1.1
.LC63:
	.string	"recursive"
.LC64:
	.string	"dereference"
.LC65:
	.string	"no-dereference"
.LC66:
	.string	"no-preserve-root"
.LC67:
	.string	"preserve-root"
.LC68:
	.string	"reference"
.LC69:
	.string	"verbose"
.LC70:
	.string	"help"
.LC71:
	.string	"version"
	.section	.data.rel.ro.local,"aw"
	.align 32
	.type	long_options, @object
	.size	long_options, 448
long_options:
	.quad	.LC63
	.long	0
	.zero	4
	.quad	0
	.long	82
	.zero	4
	.quad	.LC64
	.long	0
	.zero	4
	.quad	0
	.long	128
	.zero	4
	.quad	.LC65
	.long	0
	.zero	4
	.quad	0
	.long	104
	.zero	4
	.quad	.LC66
	.long	0
	.zero	4
	.quad	0
	.long	129
	.zero	4
	.quad	.LC67
	.long	0
	.zero	4
	.quad	0
	.long	130
	.zero	4
	.quad	.LC68
	.long	1
	.zero	4
	.quad	0
	.long	131
	.zero	4
	.quad	.LC57
	.long	1
	.zero	4
	.quad	0
	.long	117
	.zero	4
	.quad	.LC59
	.long	1
	.zero	4
	.quad	0
	.long	114
	.zero	4
	.quad	.LC60
	.long	1
	.zero	4
	.quad	0
	.long	116
	.zero	4
	.quad	.LC58
	.long	1
	.zero	4
	.quad	0
	.long	108
	.zero	4
	.quad	.LC69
	.long	0
	.zero	4
	.quad	0
	.long	118
	.zero	4
	.quad	.LC70
	.long	0
	.zero	4
	.quad	0
	.long	-130
	.zero	4
	.quad	.LC71
	.long	0
	.zero	4
	.quad	0
	.long	-131
	.zero	4
	.quad	0
	.long	0
	.zero	4
	.quad	0
	.long	0
	.zero	4
	.local	specified_type
	.comm	specified_type,8,8
	.local	specified_range
	.comm	specified_range,8,8
	.local	specified_role
	.comm	specified_role,8,8
	.local	specified_user
	.comm	specified_user,8,8
	.local	specified_context
	.comm	specified_context,8,8
	.local	root_dev_ino
	.comm	root_dev_ino,8,8
	.local	verbose
	.comm	verbose,1,1
	.local	recurse
	.comm	recurse,1,1
	.local	affect_symlink_referent
	.comm	affect_symlink_referent,1,1
	.text
.Letext0:
	.file 4 "/usr/lib/gcc/x86_64-linux-gnu/9/include/stddef.h"
	.file 5 "/usr/include/x86_64-linux-gnu/bits/types.h"
	.file 6 "/usr/include/x86_64-linux-gnu/bits/types/struct_FILE.h"
	.file 7 "/usr/include/x86_64-linux-gnu/bits/types/FILE.h"
	.file 8 "/usr/include/stdio.h"
	.file 9 "/usr/include/x86_64-linux-gnu/bits/sys_errlist.h"
	.file 10 "/usr/include/x86_64-linux-gnu/sys/types.h"
	.file 11 "/usr/include/x86_64-linux-gnu/bits/types/time_t.h"
	.file 12 "/usr/include/x86_64-linux-gnu/bits/types/struct_timespec.h"
	.file 13 "./lib/sys/select.h"
	.file 14 "/usr/include/x86_64-linux-gnu/bits/getopt_core.h"
	.file 15 "/usr/include/x86_64-linux-gnu/bits/getopt_ext.h"
	.file 16 "/usr/include/time.h"
	.file 17 "/usr/include/x86_64-linux-gnu/bits/stat.h"
	.file 18 "/usr/include/signal.h"
	.file 19 "/usr/include/unistd.h"
	.file 20 "/usr/include/errno.h"
	.file 21 "src/version.h"
	.file 22 "./lib/exitfail.h"
	.file 23 "./lib/timespec.h"
	.file 24 "./lib/version-etc.h"
	.file 25 "./lib/progname.h"
	.file 26 "./lib/quotearg.h"
	.file 27 "./lib/dev-ino.h"
	.file 28 "./lib/error.h"
	.file 29 "./lib/quote.h"
	.file 30 "/usr/include/selinux/context.h"
	.file 31 "./lib/i-ring.h"
	.file 32 "./lib/fts_.h"
	.file 33 "/usr/include/dirent.h"
	.file 34 "/usr/include/libintl.h"
	.file 35 "/usr/include/selinux/selinux.h"
	.file 36 "./lib/root-dev-ino.h"
	.file 37 "./lib/selinux-at.h"
	.file 38 "/usr/include/string.h"
	.file 39 "./lib/xfts.h"
	.file 40 "/usr/include/locale.h"
	.file 41 "/usr/include/stdlib.h"
	.section	.note.GNU-stack,"",@progbits
	.section	.note.gnu.property,"a"
	.align 8
	.long	 1f - 0f
	.long	 4f - 1f
	.long	 5
0:
	.string	 "GNU"
1:
	.align 8
	.long	 0xc0000002
	.long	 3f - 2f
2:
	.long	 0x3
3:
	.align 8
4:
