	.file	"chgrp.c"
	.text
.Ltext0:
	.section	.rodata.str1.1,"aMS",@progbits,1
.LC0:
	.string	"chgrp"
.LC1:
	.string	" invocation"
.LC2:
	.string	""
	.section	.rodata.str1.8,"aMS",@progbits,1
	.align 8
.LC3:
	.string	"Try '%s --help' for more information.\n"
	.align 8
.LC4:
	.string	"Usage: %s [OPTION]... GROUP FILE...\n  or:  %s [OPTION]... --reference=RFILE FILE...\n"
	.align 8
.LC5:
	.string	"Change the group of each FILE to GROUP.\nWith --reference, change the group of each FILE to that of RFILE.\n\n"
	.align 8
.LC6:
	.string	"  -c, --changes          like verbose but report only when a change is made\n  -f, --silent, --quiet  suppress most error messages\n  -v, --verbose          output a diagnostic for every file processed\n"
	.align 8
.LC7:
	.string	"      --dereference      affect the referent of each symbolic link (this is\n                         the default), rather than the symbolic link itself\n  -h, --no-dereference   affect symbolic links instead of any referenced file\n"
	.align 8
.LC8:
	.string	"                         (useful only on systems that can change the\n                         ownership of a symlink)\n"
	.align 8
.LC9:
	.string	"      --no-preserve-root  do not treat '/' specially (the default)\n      --preserve-root    fail to operate recursively on '/'\n"
	.align 8
.LC10:
	.string	"      --reference=RFILE  use RFILE's group rather than specifying a\n                         GROUP value\n"
	.align 8
.LC11:
	.string	"  -R, --recursive        operate on files and directories recursively\n"
	.align 8
.LC12:
	.ascii	"\nThe following options modify how a hierarchy is traversed "
	.ascii	"when the -R\noption is also specified.  If more than one is "
	.ascii	"specified, only the final\none takes effect.\n\n  -H        "
	.ascii	"             if a command line ar"
	.string	"gument is a symbolic link\n                         to a directory, traverse it\n  -L                     traverse every symbolic link to a directory\n                         encountered\n  -P                     do not traverse any symbolic links (default)\n\n"
	.align 8
.LC13:
	.string	"      --help     display this help and exit\n"
	.align 8
.LC14:
	.string	"      --version  output version information and exit\n"
	.align 8
.LC15:
	.string	"\nExamples:\n  %s staff /u      Change the group of /u to \"staff\".\n  %s -hR staff /u  Change the group of /u and subfiles to \"staff\".\n"
	.section	.rodata.str1.1
.LC16:
	.string	"["
.LC17:
	.string	"test invocation"
.LC18:
	.string	"coreutils"
.LC19:
	.string	"Multi-call invocation"
.LC20:
	.string	"sha224sum"
.LC21:
	.string	"sha2 utilities"
.LC22:
	.string	"sha256sum"
.LC23:
	.string	"sha384sum"
.LC24:
	.string	"sha512sum"
.LC25:
	.string	"\n%s online help: <%s>\n"
	.section	.rodata.str1.8
	.align 8
.LC26:
	.string	"https://www.gnu.org/software/coreutils/"
	.section	.rodata.str1.1
.LC27:
	.string	"GNU coreutils"
.LC28:
	.string	"en_"
	.section	.rodata.str1.8
	.align 8
.LC29:
	.string	"Report any translation bugs to <https://translationproject.org/team/>\n"
	.section	.rodata.str1.1
.LC30:
	.string	"Full documentation <%s%s>\n"
	.section	.rodata.str1.8
	.align 8
.LC31:
	.string	"or available locally via: info '(coreutils) %s%s'\n"
	.text
	.p2align 4
	.globl	usage
	.type	usage, @function
usage:
.LVL0:
.LFB136:
	.file 1 "src/chgrp.c"
	.loc 1 105 1 view -0
	.cfi_startproc
	.loc 1 105 1 is_stmt 0 view .LVU1
	endbr64
	pushq	%r13
	.cfi_def_cfa_offset 16
	.cfi_offset 13, -16
	.loc 1 107 5 view .LVU2
	movl	$5, %edx
	.loc 1 105 1 view .LVU3
	pushq	%r12
	.cfi_def_cfa_offset 24
	.cfi_offset 12, -24
	pushq	%rbp
	.cfi_def_cfa_offset 32
	.cfi_offset 6, -32
	movl	%edi, %ebp
	pushq	%rbx
	.cfi_def_cfa_offset 40
	.cfi_offset 3, -40
	subq	$136, %rsp
	.cfi_def_cfa_offset 176
	movq	program_name(%rip), %r12
	.loc 1 105 1 view .LVU4
	movq	%fs:40, %rax
	movq	%rax, 120(%rsp)
	xorl	%eax, %eax
	.loc 1 106 3 is_stmt 1 view .LVU5
	.loc 1 106 6 is_stmt 0 view .LVU6
	testl	%edi, %edi
	je	.L2
	.loc 1 107 5 is_stmt 1 view .LVU7
	.loc 1 107 5 view .LVU8
	leaq	.LC3(%rip), %rsi
	xorl	%edi, %edi
.LVL1:
	.loc 1 107 5 is_stmt 0 view .LVU9
	call	dcgettext@PLT
.LVL2:
.LBB42:
.LBB43:
	.file 2 "/usr/include/x86_64-linux-gnu/bits/stdio2.h"
	.loc 2 100 10 view .LVU10
	movq	stderr(%rip), %rdi
	movq	%r12, %rcx
	movl	$1, %esi
.LBE43:
.LBE42:
	.loc 1 107 5 view .LVU11
	movq	%rax, %rdx
.LVL3:
.LBB45:
.LBI42:
	.loc 2 98 1 is_stmt 1 view .LVU12
.LBB44:
	.loc 2 100 3 view .LVU13
	.loc 2 100 10 is_stmt 0 view .LVU14
	xorl	%eax, %eax
.LVL4:
	.loc 2 100 10 view .LVU15
	call	__fprintf_chk@PLT
.LVL5:
.L3:
	.loc 2 100 10 view .LVU16
.LBE44:
.LBE45:
	.loc 1 169 3 is_stmt 1 view .LVU17
	movl	%ebp, %edi
	call	exit@PLT
.LVL6:
.L2:
	.loc 1 110 7 view .LVU18
	.loc 1 110 15 is_stmt 0 view .LVU19
	xorl	%edi, %edi
.LVL7:
	.loc 1 110 15 view .LVU20
	leaq	.LC4(%rip), %rsi
.LBB46:
.LBB47:
	.file 3 "src/system.h"
	.loc 3 636 67 view .LVU21
	leaq	.LC22(%rip), %rbx
.LBE47:
.LBE46:
	.loc 1 110 15 view .LVU22
	call	dcgettext@PLT
.LVL8:
.LBB73:
.LBB74:
	.loc 2 107 10 view .LVU23
	movq	%r12, %rcx
	movq	%r12, %rdx
	movl	$1, %edi
.LBE74:
.LBE73:
	.loc 1 110 15 view .LVU24
	movq	%rax, %rsi
.LVL9:
.LBB76:
.LBI73:
	.loc 2 105 1 is_stmt 1 view .LVU25
.LBB75:
	.loc 2 107 3 view .LVU26
	.loc 2 107 10 is_stmt 0 view .LVU27
	xorl	%eax, %eax
.LVL10:
	.loc 2 107 10 view .LVU28
	call	__printf_chk@PLT
.LVL11:
	.loc 2 107 10 view .LVU29
.LBE75:
.LBE76:
	.loc 1 115 7 is_stmt 1 view .LVU30
	movq	stdout(%rip), %r12
	xorl	%edi, %edi
	movl	$5, %edx
	leaq	.LC5(%rip), %rsi
	call	dcgettext@PLT
.LVL12:
	movq	%r12, %rsi
	movq	%rax, %rdi
	call	fputs_unlocked@PLT
.LVL13:
	.loc 1 120 7 view .LVU31
	movq	stdout(%rip), %r12
	xorl	%edi, %edi
	movl	$5, %edx
	leaq	.LC6(%rip), %rsi
	call	dcgettext@PLT
.LVL14:
	movq	%r12, %rsi
	movq	%rax, %rdi
	call	fputs_unlocked@PLT
.LVL15:
	.loc 1 125 7 view .LVU32
	movq	stdout(%rip), %r12
	xorl	%edi, %edi
	movl	$5, %edx
	leaq	.LC7(%rip), %rsi
	call	dcgettext@PLT
.LVL16:
	movq	%r12, %rsi
	movq	%rax, %rdi
	call	fputs_unlocked@PLT
.LVL17:
	.loc 1 130 7 view .LVU33
	movq	stdout(%rip), %r12
	xorl	%edi, %edi
	movl	$5, %edx
	leaq	.LC8(%rip), %rsi
	call	dcgettext@PLT
.LVL18:
	movq	%r12, %rsi
	movq	%rax, %rdi
	call	fputs_unlocked@PLT
.LVL19:
	.loc 1 134 7 view .LVU34
	movq	stdout(%rip), %r12
	xorl	%edi, %edi
	movl	$5, %edx
	leaq	.LC9(%rip), %rsi
	call	dcgettext@PLT
.LVL20:
	movq	%r12, %rsi
	movq	%rax, %rdi
	call	fputs_unlocked@PLT
.LVL21:
	.loc 1 138 7 view .LVU35
	movq	stdout(%rip), %r12
	xorl	%edi, %edi
	movl	$5, %edx
	leaq	.LC10(%rip), %rsi
	call	dcgettext@PLT
.LVL22:
	movq	%r12, %rsi
	movq	%rax, %rdi
	call	fputs_unlocked@PLT
.LVL23:
	.loc 1 142 7 view .LVU36
	movq	stdout(%rip), %r12
	xorl	%edi, %edi
	movl	$5, %edx
	leaq	.LC11(%rip), %rsi
	call	dcgettext@PLT
.LVL24:
	movq	%r12, %rsi
	movq	%rax, %rdi
	call	fputs_unlocked@PLT
.LVL25:
	.loc 1 145 7 view .LVU37
	movq	stdout(%rip), %r12
	xorl	%edi, %edi
	movl	$5, %edx
	leaq	.LC12(%rip), %rsi
	call	dcgettext@PLT
.LVL26:
	movq	%r12, %rsi
	movq	%rax, %rdi
	call	fputs_unlocked@PLT
.LVL27:
	.loc 1 158 7 view .LVU38
	movq	stdout(%rip), %r12
	xorl	%edi, %edi
	movl	$5, %edx
	leaq	.LC13(%rip), %rsi
	call	dcgettext@PLT
.LVL28:
	movq	%r12, %rsi
	movq	%rax, %rdi
	call	fputs_unlocked@PLT
.LVL29:
	.loc 1 159 7 view .LVU39
	movq	stdout(%rip), %r12
	movl	$5, %edx
	xorl	%edi, %edi
	leaq	.LC14(%rip), %rsi
	call	dcgettext@PLT
.LVL30:
	movq	%r12, %rsi
	movq	%rax, %rdi
	call	fputs_unlocked@PLT
.LVL31:
	.loc 1 160 7 view .LVU40
	movq	program_name(%rip), %r12
	.loc 1 160 15 is_stmt 0 view .LVU41
	movl	$5, %edx
	xorl	%edi, %edi
	leaq	.LC15(%rip), %rsi
	call	dcgettext@PLT
.LVL32:
.LBB77:
.LBB78:
	.loc 2 107 10 view .LVU42
	movq	%r12, %rcx
	movq	%r12, %rdx
	movl	$1, %edi
.LBE78:
.LBE77:
	.loc 1 160 15 view .LVU43
	movq	%rax, %rsi
.LVL33:
.LBB80:
.LBI77:
	.loc 2 105 1 is_stmt 1 view .LVU44
.LBB79:
	.loc 2 107 3 view .LVU45
	.loc 2 107 10 is_stmt 0 view .LVU46
	xorl	%eax, %eax
.LVL34:
	.loc 2 107 10 view .LVU47
	call	__printf_chk@PLT
.LVL35:
	.loc 2 107 10 view .LVU48
.LBE79:
.LBE80:
	.loc 1 167 7 is_stmt 1 view .LVU49
.LBB81:
.LBI46:
	.loc 3 634 1 view .LVU50
.LBB72:
	.loc 3 636 3 view .LVU51
	.loc 3 636 67 is_stmt 0 view .LVU52
	leaq	.LC16(%rip), %rax
	movq	%rbx, 48(%rsp)
	leaq	.LC23(%rip), %rbx
	movq	%rax, (%rsp)
	leaq	.LC17(%rip), %rax
	movq	%rax, 8(%rsp)
	leaq	.LC18(%rip), %rax
	movq	%rax, 16(%rsp)
	leaq	.LC19(%rip), %rax
	movq	%rax, 24(%rsp)
	leaq	.LC20(%rip), %rax
	movq	$0, 96(%rsp)
	movq	$0, 104(%rsp)
	.loc 3 646 3 is_stmt 1 view .LVU53
.LVL36:
	.loc 3 647 3 view .LVU54
	.loc 3 649 3 view .LVU55
	.loc 3 649 9 view .LVU56
	.loc 3 636 67 is_stmt 0 view .LVU57
	movq	%rax, 32(%rsp)
	leaq	.LC21(%rip), %rax
	movq	%rbx, 64(%rsp)
	leaq	.LC24(%rip), %rbx
	movq	%rax, 40(%rsp)
	movq	%rax, 56(%rsp)
	movq	%rax, 72(%rsp)
	movq	%rbx, 80(%rsp)
	leaq	.LC0(%rip), %rbx
	movq	%rax, 88(%rsp)
	.loc 3 647 25 view .LVU58
	movq	%rsp, %rax
.LVL37:
	.p2align 4,,10
	.p2align 3
.L5:
	.loc 3 650 5 is_stmt 1 view .LVU59
	.loc 3 649 18 is_stmt 0 view .LVU60
	movq	16(%rax), %rdi
	.loc 3 650 13 view .LVU61
	addq	$16, %rax
.LVL38:
	.loc 3 649 9 is_stmt 1 view .LVU62
	testq	%rdi, %rdi
	je	.L4
	.loc 3 649 33 is_stmt 0 view .LVU63
	movl	$6, %ecx
	movq	%rbx, %rsi
	repz cmpsb
	seta	%dl
	sbbb	$0, %dl
	.loc 3 649 28 view .LVU64
	testb	%dl, %dl
	jne	.L5
.L4:
	.loc 3 652 3 is_stmt 1 view .LVU65
	.loc 3 652 15 is_stmt 0 view .LVU66
	movq	8(%rax), %r12
	.loc 3 655 11 view .LVU67
	movl	$5, %edx
	leaq	.LC25(%rip), %rsi
	xorl	%edi, %edi
	.loc 3 652 6 view .LVU68
	testq	%r12, %r12
	je	.L6
	.loc 3 653 5 is_stmt 1 view .LVU69
.LVL39:
	.loc 3 655 3 view .LVU70
	.loc 3 655 11 is_stmt 0 view .LVU71
	call	dcgettext@PLT
.LVL40:
.LBB48:
.LBB49:
	.loc 2 107 10 view .LVU72
	leaq	.LC26(%rip), %rcx
	movl	$1, %edi
	leaq	.LC27(%rip), %rdx
.LBE49:
.LBE48:
	.loc 3 655 11 view .LVU73
	movq	%rax, %rsi
.LVL41:
.LBB53:
.LBI48:
	.loc 2 105 1 is_stmt 1 view .LVU74
.LBB50:
	.loc 2 107 3 view .LVU75
	.loc 2 107 10 is_stmt 0 view .LVU76
	xorl	%eax, %eax
.LVL42:
	.loc 2 107 10 view .LVU77
	call	__printf_chk@PLT
.LVL43:
	.loc 2 107 10 view .LVU78
.LBE50:
.LBE53:
	.loc 3 659 3 is_stmt 1 view .LVU79
	.loc 3 659 29 is_stmt 0 view .LVU80
	movl	$5, %edi
	xorl	%esi, %esi
	call	setlocale@PLT
.LVL44:
	movq	%rax, %rdi
.LVL45:
	.loc 3 660 3 is_stmt 1 view .LVU81
	.loc 3 660 6 is_stmt 0 view .LVU82
	testq	%rax, %rax
	je	.L7
	.loc 3 660 22 view .LVU83
	movl	$3, %edx
	leaq	.LC28(%rip), %rsi
	call	strncmp@PLT
.LVL46:
	.loc 3 660 19 view .LVU84
	testl	%eax, %eax
	jne	.L10
.LVL47:
.L7:
	.loc 3 669 3 is_stmt 1 view .LVU85
	.loc 3 669 11 is_stmt 0 view .LVU86
	xorl	%edi, %edi
	movl	$5, %edx
	leaq	.LC30(%rip), %rsi
	call	dcgettext@PLT
.LVL48:
.LBB54:
.LBB55:
	.loc 2 107 10 view .LVU87
	leaq	.LC0(%rip), %rcx
	leaq	.LC26(%rip), %rdx
	movl	$1, %edi
.LBE55:
.LBE54:
	.loc 3 669 11 view .LVU88
	movq	%rax, %rsi
.LVL49:
.LBB61:
.LBI54:
	.loc 2 105 1 is_stmt 1 view .LVU89
.LBB56:
	.loc 2 107 3 view .LVU90
	.loc 2 107 10 is_stmt 0 view .LVU91
	xorl	%eax, %eax
.LVL50:
	.loc 2 107 10 view .LVU92
.LBE56:
.LBE61:
	.loc 3 671 3 view .LVU93
	leaq	.LC1(%rip), %r13
.LBB62:
.LBB57:
	.loc 2 107 10 view .LVU94
	call	__printf_chk@PLT
.LVL51:
	.loc 2 107 10 view .LVU95
.LBE57:
.LBE62:
	.loc 3 671 3 is_stmt 1 view .LVU96
	cmpq	%rbx, %r12
	leaq	.LC2(%rip), %rcx
	cmovne	%rcx, %r13
.L8:
	.loc 3 671 11 is_stmt 0 view .LVU97
	xorl	%edi, %edi
	leaq	.LC31(%rip), %rsi
	movl	$5, %edx
	call	dcgettext@PLT
.LVL52:
.LBB63:
.LBB64:
	.loc 2 107 10 view .LVU98
	movq	%r13, %rcx
	movq	%r12, %rdx
	movl	$1, %edi
.LBE64:
.LBE63:
	.loc 3 671 11 view .LVU99
	movq	%rax, %rsi
.LVL53:
.LBB66:
.LBI63:
	.loc 2 105 1 is_stmt 1 view .LVU100
.LBB65:
	.loc 2 107 3 view .LVU101
	.loc 2 107 10 is_stmt 0 view .LVU102
	xorl	%eax, %eax
.LVL54:
	.loc 2 107 10 view .LVU103
	call	__printf_chk@PLT
.LVL55:
	.loc 2 107 10 view .LVU104
.LBE65:
.LBE66:
	.loc 3 673 1 view .LVU105
	jmp	.L3
.LVL56:
.L6:
	.loc 3 655 3 is_stmt 1 view .LVU106
	.loc 3 655 11 is_stmt 0 view .LVU107
	call	dcgettext@PLT
.LVL57:
.LBB67:
.LBB51:
	.loc 2 107 10 view .LVU108
	leaq	.LC26(%rip), %rcx
	movl	$1, %edi
	leaq	.LC27(%rip), %rdx
.LBE51:
.LBE67:
	.loc 3 655 11 view .LVU109
	movq	%rax, %rsi
.LVL58:
.LBB68:
	.loc 2 105 1 is_stmt 1 view .LVU110
.LBB52:
	.loc 2 107 3 view .LVU111
	.loc 2 107 10 is_stmt 0 view .LVU112
	xorl	%eax, %eax
.LVL59:
	.loc 2 107 10 view .LVU113
	call	__printf_chk@PLT
.LVL60:
	.loc 2 107 10 view .LVU114
.LBE52:
.LBE68:
	.loc 3 659 3 is_stmt 1 view .LVU115
	.loc 3 659 29 is_stmt 0 view .LVU116
	movl	$5, %edi
	xorl	%esi, %esi
	call	setlocale@PLT
.LVL61:
	movq	%rax, %rdi
.LVL62:
	.loc 3 660 3 is_stmt 1 view .LVU117
	.loc 3 660 6 is_stmt 0 view .LVU118
	testq	%rax, %rax
	je	.L9
	.loc 3 660 22 view .LVU119
	movl	$3, %edx
	leaq	.LC28(%rip), %rsi
	call	strncmp@PLT
.LVL63:
	.loc 3 660 19 view .LVU120
	testl	%eax, %eax
	jne	.L29
.L9:
	.loc 3 669 3 is_stmt 1 view .LVU121
	.loc 3 669 11 is_stmt 0 view .LVU122
	movl	$5, %edx
	leaq	.LC30(%rip), %rsi
	xorl	%edi, %edi
	call	dcgettext@PLT
.LVL64:
.LBB69:
.LBB58:
	.loc 2 107 10 view .LVU123
	leaq	.LC0(%rip), %rcx
	leaq	.LC26(%rip), %rdx
	movl	$1, %edi
.LBE58:
.LBE69:
	.loc 3 669 11 view .LVU124
	movq	%rax, %rsi
.LVL65:
.LBB70:
	.loc 2 105 1 is_stmt 1 view .LVU125
.LBB59:
	.loc 2 107 3 view .LVU126
	.loc 2 107 10 is_stmt 0 view .LVU127
	xorl	%eax, %eax
.LVL66:
	.loc 2 107 10 view .LVU128
.LBE59:
.LBE70:
	.loc 3 646 15 view .LVU129
	leaq	.LC0(%rip), %r12
.LBB71:
.LBB60:
	.loc 2 107 10 view .LVU130
	call	__printf_chk@PLT
.LVL67:
	.loc 2 107 10 view .LVU131
.LBE60:
.LBE71:
	.loc 3 671 3 is_stmt 1 view .LVU132
	leaq	.LC1(%rip), %r13
	jmp	.L8
.L29:
	.loc 3 646 15 is_stmt 0 view .LVU133
	leaq	.LC0(%rip), %r12
.LVL68:
.L10:
	.loc 3 666 7 is_stmt 1 view .LVU134
	movq	stdout(%rip), %r13
	xorl	%edi, %edi
	movl	$5, %edx
	leaq	.LC29(%rip), %rsi
	call	dcgettext@PLT
.LVL69:
	movq	%rax, %rdi
	movq	%r13, %rsi
	call	fputs_unlocked@PLT
.LVL70:
	jmp	.L7
.LBE72:
.LBE81:
	.cfi_endproc
.LFE136:
	.size	usage, .-usage
	.section	.rodata.str1.1
.LC32:
	.string	"/usr/local/share/locale"
.LC33:
	.string	"Jim Meyering"
.LC34:
	.string	"David MacKenzie"
.LC35:
	.string	"HLPRcfhv"
	.section	.rodata.str1.8
	.align 8
.LC36:
	.string	"-R --dereference requires either -H or -L"
	.section	.rodata.str1.1
.LC37:
	.string	"missing operand"
.LC38:
	.string	"missing operand after %s"
	.section	.rodata.str1.8
	.align 8
.LC39:
	.string	"failed to get attributes of %s"
	.section	.rodata.str1.1
.LC40:
	.string	"invalid group: %s"
.LC41:
	.string	"/"
	.section	.text.startup,"ax",@progbits
	.p2align 4
	.globl	main
	.type	main, @function
main:
.LVL71:
.LFB137:
	.loc 1 174 1 view -0
	.cfi_startproc
	.loc 1 174 1 is_stmt 0 view .LVU136
	endbr64
	pushq	%r15
	.cfi_def_cfa_offset 16
	.cfi_offset 15, -16
	pushq	%r14
	.cfi_def_cfa_offset 24
	.cfi_offset 14, -24
	.loc 1 179 7 view .LVU137
	movl	$16, %r14d
	.loc 1 174 1 view .LVU138
	pushq	%r13
	.cfi_def_cfa_offset 32
	.cfi_offset 13, -32
	.loc 1 183 7 view .LVU139
	movl	$-1, %r13d
	.loc 1 174 1 view .LVU140
	pushq	%r12
	.cfi_def_cfa_offset 40
	.cfi_offset 12, -40
	movslq	%edi, %r12
	pushq	%rbp
	.cfi_def_cfa_offset 48
	.cfi_offset 6, -48
	movq	%rsi, %rbp
	pushq	%rbx
	.cfi_def_cfa_offset 56
	.cfi_offset 3, -56
	leaq	.L37(%rip), %rbx
	subq	$248, %rsp
	.cfi_def_cfa_offset 304
	.loc 1 190 3 view .LVU141
	movq	(%rsi), %rdi
.LVL72:
	.loc 1 174 1 view .LVU142
	movq	%fs:40, %rax
	movq	%rax, 232(%rsp)
	xorl	%eax, %eax
	.loc 1 175 3 is_stmt 1 view .LVU143
.LVL73:
	.loc 1 176 3 view .LVU144
	.loc 1 179 3 view .LVU145
	.loc 1 183 3 view .LVU146
	.loc 1 185 3 view .LVU147
	.loc 1 186 3 view .LVU148
	.loc 1 187 3 view .LVU149
	.loc 1 189 33 view .LVU150
	.loc 1 190 3 view .LVU151
	.loc 1 197 3 is_stmt 0 view .LVU152
	leaq	32(%rsp), %r15
	.loc 1 190 3 view .LVU153
	call	set_program_name@PLT
.LVL74:
	.loc 1 191 3 is_stmt 1 view .LVU154
	leaq	.LC2(%rip), %rsi
	movl	$6, %edi
	call	setlocale@PLT
.LVL75:
	.loc 1 192 3 view .LVU155
	leaq	.LC32(%rip), %rsi
	leaq	.LC18(%rip), %rdi
	call	bindtextdomain@PLT
.LVL76:
	.loc 1 193 3 view .LVU156
	leaq	.LC18(%rip), %rdi
	call	textdomain@PLT
.LVL77:
	.loc 1 195 3 view .LVU157
	movq	close_stdout@GOTPCREL(%rip), %rdi
	call	atexit@PLT
.LVL78:
	.loc 1 197 3 view .LVU158
	movq	%r15, %rdi
	call	chopt_init@PLT
.LVL79:
	.loc 1 199 3 view .LVU159
	.loc 1 175 8 is_stmt 0 view .LVU160
	movb	$0, 15(%rsp)
.LVL80:
.L31:
	.loc 1 199 9 is_stmt 1 view .LVU161
	.loc 1 199 18 is_stmt 0 view .LVU162
	xorl	%r8d, %r8d
	leaq	long_options(%rip), %rcx
	movq	%rbp, %rsi
	movl	%r12d, %edi
	leaq	.LC35(%rip), %rdx
	call	getopt_long@PLT
.LVL81:
	.loc 1 199 9 view .LVU163
	cmpl	$-1, %eax
	je	.L79
	.loc 1 202 7 is_stmt 1 view .LVU164
	cmpl	$131, %eax
	jg	.L54
	cmpl	$71, %eax
	jle	.L80
	subl	$72, %eax
.LVL82:
	.loc 1 202 7 is_stmt 0 view .LVU165
	cmpl	$59, %eax
	ja	.L54
	movslq	(%rbx,%rax,4), %rax
	addq	%rbx, %rax
	notrack jmp	*%rax
	.section	.rodata
	.align 4
	.align 4
.L37:
	.long	.L48-.L37
	.long	.L54-.L37
	.long	.L54-.L37
	.long	.L54-.L37
	.long	.L47-.L37
	.long	.L54-.L37
	.long	.L54-.L37
	.long	.L54-.L37
	.long	.L67-.L37
	.long	.L54-.L37
	.long	.L45-.L37
	.long	.L54-.L37
	.long	.L54-.L37
	.long	.L54-.L37
	.long	.L54-.L37
	.long	.L54-.L37
	.long	.L54-.L37
	.long	.L54-.L37
	.long	.L54-.L37
	.long	.L54-.L37
	.long	.L54-.L37
	.long	.L54-.L37
	.long	.L54-.L37
	.long	.L54-.L37
	.long	.L54-.L37
	.long	.L54-.L37
	.long	.L54-.L37
	.long	.L44-.L37
	.long	.L54-.L37
	.long	.L54-.L37
	.long	.L43-.L37
	.long	.L54-.L37
	.long	.L42-.L37
	.long	.L54-.L37
	.long	.L54-.L37
	.long	.L54-.L37
	.long	.L54-.L37
	.long	.L54-.L37
	.long	.L54-.L37
	.long	.L54-.L37
	.long	.L54-.L37
	.long	.L54-.L37
	.long	.L54-.L37
	.long	.L54-.L37
	.long	.L54-.L37
	.long	.L54-.L37
	.long	.L41-.L37
	.long	.L54-.L37
	.long	.L54-.L37
	.long	.L54-.L37
	.long	.L54-.L37
	.long	.L54-.L37
	.long	.L54-.L37
	.long	.L54-.L37
	.long	.L54-.L37
	.long	.L54-.L37
	.long	.L40-.L37
	.long	.L39-.L37
	.long	.L38-.L37
	.long	.L36-.L37
	.section	.text.startup
.L67:
	.loc 1 213 21 view .LVU166
	movl	$16, %r14d
.LVL83:
	.loc 1 213 21 view .LVU167
	jmp	.L31
.LVL84:
.L47:
	.loc 1 202 7 view .LVU168
	movl	$2, %r14d
.LVL85:
	.loc 1 202 7 view .LVU169
	jmp	.L31
.LVL86:
.L48:
	.loc 1 205 21 view .LVU170
	movl	$17, %r14d
.LVL87:
	.loc 1 205 21 view .LVU171
	jmp	.L31
.LVL88:
.L36:
	.loc 1 234 11 is_stmt 1 view .LVU172
	.loc 1 234 26 is_stmt 0 view .LVU173
	movq	optarg(%rip), %rax
	movq	%rax, reference_file(%rip)
	.loc 1 235 11 is_stmt 1 view .LVU174
	jmp	.L31
.L38:
	.loc 1 230 11 view .LVU175
.LVL89:
	.loc 1 231 11 view .LVU176
	.loc 1 230 25 is_stmt 0 view .LVU177
	movb	$1, 15(%rsp)
	.loc 1 231 11 view .LVU178
	jmp	.L31
.LVL90:
.L39:
	.loc 1 226 11 is_stmt 1 view .LVU179
	.loc 1 227 11 view .LVU180
	.loc 1 226 25 is_stmt 0 view .LVU181
	movb	$0, 15(%rsp)
	.loc 1 227 11 view .LVU182
	jmp	.L31
.LVL91:
.L40:
	.loc 1 222 11 is_stmt 1 view .LVU183
	.loc 1 223 11 view .LVU184
	.loc 1 222 23 is_stmt 0 view .LVU185
	movl	$1, %r13d
	.loc 1 223 11 view .LVU186
	jmp	.L31
.LVL92:
.L41:
	.loc 1 250 11 is_stmt 1 view .LVU187
	.loc 1 250 27 is_stmt 0 view .LVU188
	movl	$0, 32(%rsp)
	.loc 1 251 11 is_stmt 1 view .LVU189
	jmp	.L31
.L42:
	.loc 1 217 11 view .LVU190
.LVL93:
	.loc 1 218 11 view .LVU191
	.loc 1 217 23 is_stmt 0 view .LVU192
	xorl	%r13d, %r13d
	.loc 1 218 11 view .LVU193
	jmp	.L31
.LVL94:
.L43:
	.loc 1 246 11 is_stmt 1 view .LVU194
	.loc 1 246 30 is_stmt 0 view .LVU195
	movb	$1, 49(%rsp)
	.loc 1 247 11 is_stmt 1 view .LVU196
	jmp	.L31
.L44:
	.loc 1 242 11 view .LVU197
	.loc 1 242 27 is_stmt 0 view .LVU198
	movl	$1, 32(%rsp)
	.loc 1 243 11 is_stmt 1 view .LVU199
	jmp	.L31
.L45:
	.loc 1 238 11 view .LVU200
	.loc 1 238 25 is_stmt 0 view .LVU201
	movb	$1, 36(%rsp)
	.loc 1 239 11 is_stmt 1 view .LVU202
	jmp	.L31
.LVL95:
	.p2align 4,,10
	.p2align 3
.L80:
	.loc 1 202 7 is_stmt 0 view .LVU203
	cmpl	$-131, %eax
	jne	.L81
	.loc 1 253 9 is_stmt 1 view .LVU204
	.loc 1 253 30 view .LVU205
	.loc 1 254 9 view .LVU206
	subq	$8, %rsp
	.cfi_remember_state
	.cfi_def_cfa_offset 312
	movq	stdout(%rip), %rdi
	xorl	%eax, %eax
.LVL96:
	.loc 1 254 9 is_stmt 0 view .LVU207
	movq	Version(%rip), %rcx
	pushq	$0
	.cfi_def_cfa_offset 320
	leaq	.LC33(%rip), %r9
	leaq	.LC34(%rip), %r8
	leaq	.LC27(%rip), %rdx
	leaq	.LC0(%rip), %rsi
	call	version_etc@PLT
.LVL97:
	.loc 1 254 9 is_stmt 1 view .LVU208
	xorl	%edi, %edi
	call	exit@PLT
.LVL98:
.L81:
	.cfi_restore_state
	.loc 1 202 7 is_stmt 0 view .LVU209
	cmpl	$-130, %eax
	jne	.L54
	.loc 1 253 9 is_stmt 1 view .LVU210
	xorl	%edi, %edi
	call	usage
.LVL99:
.L79:
	.loc 1 260 3 view .LVU211
	.loc 1 260 6 is_stmt 0 view .LVU212
	cmpb	$0, 36(%rsp)
	jne	.L82
	.loc 1 272 17 view .LVU213
	movl	$16, %r14d
.LVL100:
.L50:
	.loc 1 274 3 is_stmt 1 view .LVU214
	.loc 1 274 48 is_stmt 0 view .LVU215
	testl	%r13d, %r13d
	.loc 1 276 12 view .LVU216
	movslq	optind(%rip), %rax
.LVL101:
	.loc 1 276 39 view .LVU217
	movq	reference_file(%rip), %r13
.LVL102:
	.loc 1 276 12 view .LVU218
	movl	%r12d, %edx
	.loc 1 274 33 view .LVU219
	setne	48(%rsp)
	.loc 1 276 3 is_stmt 1 view .LVU220
	.loc 1 276 12 is_stmt 0 view .LVU221
	subl	%eax, %edx
	.loc 1 276 43 view .LVU222
	testq	%r13, %r13
	je	.L83
	.loc 1 276 6 view .LVU223
	testl	%edx, %edx
	jle	.L63
.LBB95:
	.loc 1 287 7 is_stmt 1 view .LVU224
	.loc 1 288 7 view .LVU225
.LVL103:
.LBB96:
.LBI96:
	.file 4 "/usr/include/x86_64-linux-gnu/sys/stat.h"
	.loc 4 453 1 view .LVU226
.LBB97:
	.loc 4 455 3 view .LVU227
	.loc 4 455 10 is_stmt 0 view .LVU228
	leaq	80(%rsp), %rdx
.LVL104:
	.loc 4 455 10 view .LVU229
	movq	%r13, %rsi
	movl	$1, %edi
	call	__xstat@PLT
.LVL105:
	.loc 4 455 10 view .LVU230
.LBE97:
.LBE96:
	.loc 1 288 10 view .LVU231
	testl	%eax, %eax
	jne	.L84
	.loc 1 292 7 is_stmt 1 view .LVU232
	.loc 1 292 11 is_stmt 0 view .LVU233
	movl	112(%rsp), %r12d
.LVL106:
	.loc 1 293 7 is_stmt 1 view .LVU234
	.loc 1 293 26 is_stmt 0 view .LVU235
	movl	%r12d, %edi
	call	gid_to_name@PLT
.LVL107:
	.loc 1 293 24 view .LVU236
	movq	%rax, 64(%rsp)
.LVL108:
.L56:
	.loc 1 293 24 view .LVU237
.LBE95:
	.loc 1 302 3 is_stmt 1 view .LVU238
	.loc 1 302 21 is_stmt 0 view .LVU239
	cmpb	$0, 36(%rsp)
	je	.L62
	cmpb	$0, 15(%rsp)
	jne	.L85
.L62:
	.loc 1 311 3 is_stmt 1 view .LVU240
.LVL109:
	.loc 1 312 3 view .LVU241
	.loc 1 312 26 is_stmt 0 view .LVU242
	movslq	optind(%rip), %rax
	.loc 1 311 13 view .LVU243
	movl	%r14d, %esi
	.loc 1 312 8 view .LVU244
	orl	$-1, %edx
	movl	%r12d, %ecx
	.loc 1 311 13 view .LVU245
	orl	$1024, %esi
.LVL110:
	.loc 1 312 8 view .LVU246
	orl	$-1, %r9d
	orl	$-1, %r8d
	leaq	0(%rbp,%rax,8), %rdi
	pushq	%rax
	.cfi_def_cfa_offset 312
	pushq	%r15
	.cfi_def_cfa_offset 320
	call	chown_files@PLT
.LVL111:
	.loc 1 316 3 view .LVU247
	movq	%r15, %rdi
	.loc 1 312 8 view .LVU248
	movl	%eax, %ebx
.LVL112:
	.loc 1 316 3 is_stmt 1 view .LVU249
	call	chopt_free@PLT
.LVL113:
	.loc 1 318 3 view .LVU250
	popq	%rdx
	.cfi_def_cfa_offset 312
	popq	%rcx
	.cfi_def_cfa_offset 304
	.loc 1 318 28 is_stmt 0 view .LVU251
	xorl	$1, %ebx
.LVL114:
	.loc 1 319 1 view .LVU252
	movq	232(%rsp), %rcx
	xorq	%fs:40, %rcx
	.loc 1 318 28 view .LVU253
	movzbl	%bl, %eax
	.loc 1 319 1 view .LVU254
	jne	.L86
	addq	$248, %rsp
	.cfi_remember_state
	.cfi_def_cfa_offset 56
	popq	%rbx
	.cfi_def_cfa_offset 48
	popq	%rbp
	.cfi_def_cfa_offset 40
.LVL115:
	.loc 1 319 1 view .LVU255
	popq	%r12
	.cfi_def_cfa_offset 32
.LVL116:
	.loc 1 319 1 view .LVU256
	popq	%r13
	.cfi_def_cfa_offset 24
	popq	%r14
	.cfi_def_cfa_offset 16
.LVL117:
	.loc 1 319 1 view .LVU257
	popq	%r15
	.cfi_def_cfa_offset 8
	ret
.LVL118:
.L82:
	.cfi_restore_state
	.loc 1 262 7 is_stmt 1 view .LVU258
	.loc 1 262 10 is_stmt 0 view .LVU259
	cmpl	$16, %r14d
	jne	.L50
	.loc 1 264 11 is_stmt 1 view .LVU260
	.loc 1 264 14 is_stmt 0 view .LVU261
	subl	$1, %r13d
.LVL119:
	.loc 1 264 14 view .LVU262
	je	.L87
	.loc 1 267 23 view .LVU263
	xorl	%r13d, %r13d
	jmp	.L50
.LVL120:
.L83:
	.loc 1 276 6 view .LVU264
	subl	$1, %edx
	jle	.L63
.LBB99:
	.loc 1 297 7 is_stmt 1 view .LVU265
	.loc 1 297 13 is_stmt 0 view .LVU266
	movq	0(%rbp,%rax,8), %rbx
.LVL121:
	.loc 1 298 7 is_stmt 1 view .LVU267
	.loc 1 297 37 is_stmt 0 view .LVU268
	leal	1(%rax), %edx
	movl	%edx, optind(%rip)
	.loc 1 298 62 view .LVU269
	cmpb	$0, (%rbx)
	jne	.L88
.L57:
	.loc 1 298 24 discriminator 4 view .LVU270
	movq	%r13, 64(%rsp)
	.loc 1 299 7 is_stmt 1 discriminator 4 view .LVU271
.LVL122:
.LBB100:
.LBI100:
	.loc 1 79 1 discriminator 4 view .LVU272
.LBB101:
	.loc 1 81 3 discriminator 4 view .LVU273
	.loc 1 83 3 discriminator 4 view .LVU274
	.loc 1 81 9 is_stmt 0 discriminator 4 view .LVU275
	orl	$-1, %r12d
	.loc 1 83 6 discriminator 4 view .LVU276
	cmpb	$0, (%rbx)
	je	.L56
.LBB102:
	.loc 1 85 7 is_stmt 1 view .LVU277
	.loc 1 85 27 is_stmt 0 view .LVU278
	movq	%rbx, %rdi
	call	getgrnam@PLT
.LVL123:
	.loc 1 86 7 is_stmt 1 view .LVU279
	.loc 1 86 10 is_stmt 0 view .LVU280
	testq	%rax, %rax
	je	.L58
	.loc 1 87 9 is_stmt 1 view .LVU281
	.loc 1 87 13 is_stmt 0 view .LVU282
	movl	16(%rax), %r12d
.LVL124:
.L59:
	.loc 1 97 7 is_stmt 1 view .LVU283
	call	endgrent@PLT
.LVL125:
	jmp	.L56
.LVL126:
.L85:
	.loc 1 97 7 is_stmt 0 view .LVU284
.LBE102:
.LBE101:
.LBE100:
.LBE99:
.LBB108:
	.loc 1 304 7 is_stmt 1 view .LVU285
	.loc 1 305 7 view .LVU286
	.loc 1 305 28 is_stmt 0 view .LVU287
	leaq	dev_ino_buf.7334(%rip), %rdi
	call	get_root_dev_ino@PLT
.LVL127:
	.loc 1 305 26 view .LVU288
	movq	%rax, 40(%rsp)
	.loc 1 306 7 is_stmt 1 view .LVU289
	.loc 1 306 10 is_stmt 0 view .LVU290
	testq	%rax, %rax
	jne	.L62
.LBB109:
	.loc 1 307 9 is_stmt 1 view .LVU291
	leaq	.LC41(%rip), %rsi
	movl	$4, %edi
	call	quotearg_style@PLT
.LVL128:
	movl	$5, %edx
	leaq	.LC39(%rip), %rsi
	xorl	%edi, %edi
	movq	%rax, %r13
	call	dcgettext@PLT
.LVL129:
	movq	%rax, %r12
.LVL130:
	.loc 1 307 9 is_stmt 0 view .LVU292
	call	__errno_location@PLT
.LVL131:
	movq	%r13, %rcx
	movq	%r12, %rdx
	movl	$1, %edi
	movl	(%rax), %esi
	xorl	%eax, %eax
	call	error@PLT
.LVL132:
.L63:
	.loc 1 307 9 view .LVU293
.LBE109:
.LBE108:
	.loc 1 278 7 is_stmt 1 view .LVU294
	.loc 1 278 10 is_stmt 0 view .LVU295
	cmpl	%r12d, %eax
	jl	.L53
	.loc 1 279 9 is_stmt 1 view .LVU296
	.loc 1 279 22 is_stmt 0 view .LVU297
	movl	$5, %edx
	leaq	.LC37(%rip), %rsi
	xorl	%edi, %edi
	call	dcgettext@PLT
.LVL133:
	.loc 1 279 9 view .LVU298
	xorl	%esi, %esi
	xorl	%edi, %edi
	.loc 1 279 22 view .LVU299
	movq	%rax, %rdx
	.loc 1 279 9 view .LVU300
	xorl	%eax, %eax
	call	error@PLT
.LVL134:
.L54:
	.loc 1 282 7 is_stmt 1 view .LVU301
	movl	$1, %edi
	call	usage
.LVL135:
.L58:
.LBB110:
.LBB107:
.LBB106:
.LBB105:
.LBB103:
	.loc 1 90 11 view .LVU302
	.loc 1 91 11 view .LVU303
	.loc 1 91 18 is_stmt 0 view .LVU304
	xorl	%esi, %esi
	leaq	24(%rsp), %rcx
	movl	$10, %edx
	movq	%rbx, %rdi
	leaq	.LC2(%rip), %r8
	call	xstrtoumax@PLT
.LVL136:
	.loc 1 91 14 view .LVU305
	testl	%eax, %eax
	jne	.L60
	.loc 1 92 25 view .LVU306
	movq	24(%rsp), %rax
	.loc 1 91 15 view .LVU307
	movl	$4294967295, %edx
	.loc 1 95 15 view .LVU308
	movl	%eax, %r12d
	.loc 1 91 15 view .LVU309
	cmpq	%rdx, %rax
	jbe	.L59
.L60:
.LBB104:
	.loc 1 93 13 is_stmt 1 view .LVU310
	movq	%rbx, %rdi
	call	quote@PLT
.LVL137:
	movl	$5, %edx
	leaq	.LC40(%rip), %rsi
	xorl	%edi, %edi
	movq	%rax, %r12
	call	dcgettext@PLT
.LVL138:
	movq	%r12, %rcx
	xorl	%esi, %esi
	movl	$1, %edi
	movq	%rax, %rdx
	xorl	%eax, %eax
	call	error@PLT
.LVL139:
.L88:
	.loc 1 93 13 is_stmt 0 view .LVU311
.LBE104:
.LBE103:
.LBE105:
.LBE106:
.LBE107:
	.loc 1 298 41 discriminator 1 view .LVU312
	movq	%rbx, %rdi
	call	xstrdup@PLT
.LVL140:
	movq	%rax, %r13
	jmp	.L57
.LVL141:
.L86:
	.loc 1 298 41 discriminator 1 view .LVU313
.LBE110:
	.loc 1 319 1 view .LVU314
	call	__stack_chk_fail@PLT
.LVL142:
.L87:
.LBB111:
	.loc 1 265 13 is_stmt 1 view .LVU315
	movl	$5, %edx
	leaq	.LC36(%rip), %rsi
	xorl	%edi, %edi
	call	dcgettext@PLT
.LVL143:
	.loc 1 265 13 is_stmt 0 view .LVU316
	xorl	%esi, %esi
	movl	$1, %edi
	movq	%rax, %rdx
	xorl	%eax, %eax
	call	error@PLT
.LVL144:
.L84:
	.loc 1 265 13 view .LVU317
.LBE111:
.LBB112:
.LBB98:
	.loc 1 289 9 is_stmt 1 view .LVU318
	movq	%r13, %rsi
	movl	$4, %edi
	call	quotearg_style@PLT
.LVL145:
	movl	$5, %edx
	leaq	.LC39(%rip), %rsi
	xorl	%edi, %edi
	movq	%rax, %r13
	call	dcgettext@PLT
.LVL146:
	movq	%rax, %r12
	call	__errno_location@PLT
.LVL147:
	movq	%r13, %rcx
	movq	%r12, %rdx
	movl	$1, %edi
	movl	(%rax), %esi
	xorl	%eax, %eax
	call	error@PLT
.LVL148:
.L53:
.LBE98:
.LBE112:
	.loc 1 281 9 view .LVU319
	movq	-8(%rbp,%r12,8), %rdi
	call	quote@PLT
.LVL149:
	.loc 1 281 22 is_stmt 0 view .LVU320
	xorl	%edi, %edi
	movl	$5, %edx
	leaq	.LC38(%rip), %rsi
	.loc 1 281 9 view .LVU321
	movq	%rax, %r12
	.loc 1 281 22 view .LVU322
	call	dcgettext@PLT
.LVL150:
	.loc 1 281 9 view .LVU323
	movq	%r12, %rcx
	xorl	%esi, %esi
	xorl	%edi, %edi
	.loc 1 281 22 view .LVU324
	movq	%rax, %rdx
	.loc 1 281 9 view .LVU325
	xorl	%eax, %eax
	call	error@PLT
.LVL151:
	jmp	.L54
	.cfi_endproc
.LFE137:
	.size	main, .-main
	.local	dev_ino_buf.7334
	.comm	dev_ino_buf.7334,16,16
	.section	.rodata.str1.1
.LC42:
	.string	"recursive"
.LC43:
	.string	"changes"
.LC44:
	.string	"dereference"
.LC45:
	.string	"no-dereference"
.LC46:
	.string	"no-preserve-root"
.LC47:
	.string	"preserve-root"
.LC48:
	.string	"quiet"
.LC49:
	.string	"silent"
.LC50:
	.string	"reference"
.LC51:
	.string	"verbose"
.LC52:
	.string	"help"
.LC53:
	.string	"version"
	.section	.data.rel.ro.local,"aw"
	.align 32
	.type	long_options, @object
	.size	long_options, 416
long_options:
	.quad	.LC42
	.long	0
	.zero	4
	.quad	0
	.long	82
	.zero	4
	.quad	.LC43
	.long	0
	.zero	4
	.quad	0
	.long	99
	.zero	4
	.quad	.LC44
	.long	0
	.zero	4
	.quad	0
	.long	128
	.zero	4
	.quad	.LC45
	.long	0
	.zero	4
	.quad	0
	.long	104
	.zero	4
	.quad	.LC46
	.long	0
	.zero	4
	.quad	0
	.long	129
	.zero	4
	.quad	.LC47
	.long	0
	.zero	4
	.quad	0
	.long	130
	.zero	4
	.quad	.LC48
	.long	0
	.zero	4
	.quad	0
	.long	102
	.zero	4
	.quad	.LC49
	.long	0
	.zero	4
	.quad	0
	.long	102
	.zero	4
	.quad	.LC50
	.long	1
	.zero	4
	.quad	0
	.long	131
	.zero	4
	.quad	.LC51
	.long	0
	.zero	4
	.quad	0
	.long	118
	.zero	4
	.quad	.LC52
	.long	0
	.zero	4
	.quad	0
	.long	-130
	.zero	4
	.quad	.LC53
	.long	0
	.zero	4
	.quad	0
	.long	-131
	.zero	4
	.quad	0
	.long	0
	.zero	4
	.quad	0
	.long	0
	.zero	4
	.local	reference_file
	.comm	reference_file,8,8
	.text
.Letext0:
	.file 5 "/usr/lib/gcc/x86_64-linux-gnu/9/include/stddef.h"
	.file 6 "/usr/include/x86_64-linux-gnu/bits/types.h"
	.file 7 "/usr/include/x86_64-linux-gnu/bits/types/struct_FILE.h"
	.file 8 "/usr/include/x86_64-linux-gnu/bits/types/FILE.h"
	.file 9 "/usr/include/stdio.h"
	.file 10 "/usr/include/x86_64-linux-gnu/bits/sys_errlist.h"
	.file 11 "/usr/include/x86_64-linux-gnu/sys/types.h"
	.file 12 "/usr/include/x86_64-linux-gnu/bits/types/time_t.h"
	.file 13 "/usr/include/x86_64-linux-gnu/bits/types/struct_timespec.h"
	.file 14 "./lib/sys/select.h"
	.file 15 "/usr/include/grp.h"
	.file 16 "/usr/include/x86_64-linux-gnu/bits/getopt_core.h"
	.file 17 "/usr/include/x86_64-linux-gnu/bits/getopt_ext.h"
	.file 18 "/usr/include/time.h"
	.file 19 "/usr/include/x86_64-linux-gnu/bits/stat.h"
	.file 20 "/usr/include/signal.h"
	.file 21 "/usr/include/unistd.h"
	.file 22 "/usr/include/errno.h"
	.file 23 "src/version.h"
	.file 24 "./lib/exitfail.h"
	.file 25 "/usr/include/stdint.h"
	.file 26 "./lib/timespec.h"
	.file 27 "./lib/version-etc.h"
	.file 28 "./lib/progname.h"
	.file 29 "./lib/quotearg.h"
	.file 30 "./lib/dev-ino.h"
	.file 31 "src/chown-core.h"
	.file 32 "./lib/error.h"
	.file 33 "./lib/i-ring.h"
	.file 34 "./lib/quote.h"
	.file 35 "./lib/xstrtol.h"
	.file 36 "/usr/include/libintl.h"
	.file 37 "./lib/xalloc.h"
	.file 38 "./lib/root-dev-ino.h"
	.file 39 "/usr/include/locale.h"
	.file 40 "/usr/include/stdlib.h"
	.file 41 "/usr/include/string.h"
	.section	.note.GNU-stack,"",@progbits
	.section	.note.gnu.property,"a"
	.align 8
	.long	 1f - 0f
	.long	 4f - 1f
	.long	 5
0:
	.string	 "GNU"
1:
	.align 8
	.long	 0xc0000002
	.long	 3f - 2f
2:
	.long	 0x3
3:
	.align 8
4:
