	.file	"cp-hash.c"
	.text
.Ltext0:
	.p2align 4
	.type	src_to_dest_hash, @function
src_to_dest_hash:
.LVL0:
.LFB135:
	.file 1 "src/cp-hash.c"
	.loc 1 52 1 view -0
	.cfi_startproc
	.loc 1 52 1 is_stmt 0 view .LVU1
	endbr64
	.loc 1 53 3 is_stmt 1 view .LVU2
.LVL1:
	.loc 1 58 3 view .LVU3
	.loc 1 58 32 is_stmt 0 view .LVU4
	movq	(%rdi), %rax
	xorl	%edx, %edx
	divq	%rsi
	.loc 1 59 1 view .LVU5
	movq	%rdx, %rax
	ret
	.cfi_endproc
.LFE135:
	.size	src_to_dest_hash, .-src_to_dest_hash
	.p2align 4
	.type	src_to_dest_compare, @function
src_to_dest_compare:
.LVL2:
.LFB136:
	.loc 1 65 1 is_stmt 1 view -0
	.cfi_startproc
	.loc 1 65 1 is_stmt 0 view .LVU7
	endbr64
	.loc 1 66 3 is_stmt 1 view .LVU8
.LVL3:
	.loc 1 67 3 view .LVU9
	.loc 1 68 3 view .LVU10
	.loc 1 68 37 is_stmt 0 view .LVU11
	movq	(%rsi), %rdx
	xorl	%eax, %eax
	cmpq	%rdx, (%rdi)
	je	.L6
	.loc 1 69 1 view .LVU12
	ret
	.p2align 4,,10
	.p2align 3
.L6:
	.loc 1 68 37 discriminator 1 view .LVU13
	movq	8(%rsi), %rax
	cmpq	%rax, 8(%rdi)
	sete	%al
	.loc 1 69 1 discriminator 1 view .LVU14
	ret
	.cfi_endproc
.LFE136:
	.size	src_to_dest_compare, .-src_to_dest_compare
	.p2align 4
	.type	src_to_dest_free, @function
src_to_dest_free:
.LVL4:
.LFB137:
	.loc 1 73 1 is_stmt 1 view -0
	.cfi_startproc
	.loc 1 73 1 is_stmt 0 view .LVU16
	endbr64
	.loc 1 74 3 is_stmt 1 view .LVU17
.LVL5:
	.loc 1 75 3 view .LVU18
	.loc 1 73 1 is_stmt 0 view .LVU19
	pushq	%rbp
	.cfi_def_cfa_offset 16
	.cfi_offset 6, -16
	.loc 1 73 1 view .LVU20
	movq	%rdi, %rbp
	.loc 1 75 3 view .LVU21
	movq	16(%rdi), %rdi
.LVL6:
	.loc 1 75 3 view .LVU22
	call	free@PLT
.LVL7:
	.loc 1 76 3 is_stmt 1 view .LVU23
	movq	%rbp, %rdi
	.loc 1 77 1 is_stmt 0 view .LVU24
	popq	%rbp
	.cfi_def_cfa_offset 8
.LVL8:
	.loc 1 76 3 view .LVU25
	jmp	free@PLT
.LVL9:
	.loc 1 76 3 view .LVU26
	.cfi_endproc
.LFE137:
	.size	src_to_dest_free, .-src_to_dest_free
	.p2align 4
	.globl	forget_created
	.type	forget_created, @function
forget_created:
.LVL10:
.LFB138:
	.loc 1 83 1 is_stmt 1 view -0
	.cfi_startproc
	.loc 1 83 1 is_stmt 0 view .LVU28
	endbr64
	pushq	%rbp
	.cfi_def_cfa_offset 16
	.cfi_offset 6, -16
	subq	$32, %rsp
	.cfi_def_cfa_offset 48
	.loc 1 83 1 view .LVU29
	movq	%fs:40, %rax
	movq	%rax, 24(%rsp)
	xorl	%eax, %eax
	.loc 1 84 3 is_stmt 1 view .LVU30
	.loc 1 85 3 view .LVU31
	.loc 1 87 3 view .LVU32
	.loc 1 87 16 is_stmt 0 view .LVU33
	movq	%rdi, (%rsp)
	.loc 1 88 3 is_stmt 1 view .LVU34
	.loc 1 91 9 is_stmt 0 view .LVU35
	movq	src_to_dest(%rip), %rdi
.LVL11:
	.loc 1 88 16 view .LVU36
	movq	%rsi, 8(%rsp)
	.loc 1 89 3 is_stmt 1 view .LVU37
	.loc 1 91 9 is_stmt 0 view .LVU38
	movq	%rsp, %rsi
.LVL12:
	.loc 1 89 14 view .LVU39
	movq	$0, 16(%rsp)
	.loc 1 91 3 is_stmt 1 view .LVU40
	.loc 1 91 9 is_stmt 0 view .LVU41
	call	hash_remove@PLT
.LVL13:
	.loc 1 92 3 is_stmt 1 view .LVU42
	.loc 1 92 6 is_stmt 0 view .LVU43
	testq	%rax, %rax
	je	.L9
.LBB6:
.LBB7:
	.loc 1 75 3 view .LVU44
	movq	16(%rax), %rdi
	movq	%rax, %rbp
.LBE7:
.LBE6:
	.loc 1 93 5 is_stmt 1 view .LVU45
.LVL14:
.LBB9:
.LBI6:
	.loc 1 72 1 view .LVU46
.LBB8:
	.loc 1 74 3 view .LVU47
	.loc 1 75 3 view .LVU48
	call	free@PLT
.LVL15:
	.loc 1 76 3 view .LVU49
	movq	%rbp, %rdi
	call	free@PLT
.LVL16:
.L9:
	.loc 1 76 3 is_stmt 0 view .LVU50
.LBE8:
.LBE9:
	.loc 1 94 1 view .LVU51
	movq	24(%rsp), %rax
	xorq	%fs:40, %rax
	jne	.L16
	addq	$32, %rsp
	.cfi_remember_state
	.cfi_def_cfa_offset 16
	popq	%rbp
	.cfi_def_cfa_offset 8
	ret
.L16:
	.cfi_restore_state
	call	__stack_chk_fail@PLT
.LVL17:
	.cfi_endproc
.LFE138:
	.size	forget_created, .-forget_created
	.p2align 4
	.globl	src_to_dest_lookup
	.type	src_to_dest_lookup, @function
src_to_dest_lookup:
.LVL18:
.LFB139:
	.loc 1 101 1 is_stmt 1 view -0
	.cfi_startproc
	.loc 1 101 1 is_stmt 0 view .LVU53
	endbr64
	subq	$40, %rsp
	.cfi_def_cfa_offset 48
	.loc 1 101 1 view .LVU54
	movq	%fs:40, %rax
	movq	%rax, 24(%rsp)
	xorl	%eax, %eax
	.loc 1 102 3 is_stmt 1 view .LVU55
	.loc 1 103 3 view .LVU56
	.loc 1 104 3 view .LVU57
	.loc 1 104 14 is_stmt 0 view .LVU58
	movq	%rdi, (%rsp)
	.loc 1 105 3 is_stmt 1 view .LVU59
	.loc 1 106 7 is_stmt 0 view .LVU60
	movq	src_to_dest(%rip), %rdi
.LVL19:
	.loc 1 105 14 view .LVU61
	movq	%rsi, 8(%rsp)
	.loc 1 106 3 is_stmt 1 view .LVU62
	.loc 1 106 7 is_stmt 0 view .LVU63
	movq	%rsp, %rsi
.LVL20:
	.loc 1 106 7 view .LVU64
	call	hash_lookup@PLT
.LVL21:
	.loc 1 107 3 is_stmt 1 view .LVU65
	.loc 1 107 22 is_stmt 0 view .LVU66
	testq	%rax, %rax
	je	.L17
	.loc 1 107 22 discriminator 1 view .LVU67
	movq	16(%rax), %rax
.LVL22:
.L17:
	.loc 1 108 1 view .LVU68
	movq	24(%rsp), %rdx
	xorq	%fs:40, %rdx
	jne	.L24
	addq	$40, %rsp
	.cfi_remember_state
	.cfi_def_cfa_offset 8
	ret
.L24:
	.cfi_restore_state
	call	__stack_chk_fail@PLT
.LVL23:
	.cfi_endproc
.LFE139:
	.size	src_to_dest_lookup, .-src_to_dest_lookup
	.p2align 4
	.globl	remember_copied
	.type	remember_copied, @function
remember_copied:
.LVL24:
.LFB140:
	.loc 1 116 1 is_stmt 1 view -0
	.cfi_startproc
	.loc 1 116 1 is_stmt 0 view .LVU70
	endbr64
	.loc 1 117 3 is_stmt 1 view .LVU71
	.loc 1 118 3 view .LVU72
	.loc 1 120 3 view .LVU73
	.loc 1 116 1 is_stmt 0 view .LVU74
	pushq	%r13
	.cfi_def_cfa_offset 16
	.cfi_offset 13, -16
	movq	%rdi, %r13
	.loc 1 120 9 view .LVU75
	movl	$24, %edi
.LVL25:
	.loc 1 116 1 view .LVU76
	pushq	%r12
	.cfi_def_cfa_offset 24
	.cfi_offset 12, -24
	movq	%rsi, %r12
	pushq	%rbp
	.cfi_def_cfa_offset 32
	.cfi_offset 6, -32
	pushq	%rbx
	.cfi_def_cfa_offset 40
	.cfi_offset 3, -40
	movq	%rdx, %rbx
	subq	$8, %rsp
	.cfi_def_cfa_offset 48
	.loc 1 120 9 view .LVU77
	call	xmalloc@PLT
.LVL26:
	.loc 1 121 15 view .LVU78
	movq	%r13, %rdi
	.loc 1 120 9 view .LVU79
	movq	%rax, %rbp
.LVL27:
	.loc 1 121 3 is_stmt 1 view .LVU80
	.loc 1 121 15 is_stmt 0 view .LVU81
	call	xstrdup@PLT
.LVL28:
	.loc 1 125 20 view .LVU82
	movq	src_to_dest(%rip), %rdi
	movq	%rbp, %rsi
	.loc 1 122 15 view .LVU83
	movq	%r12, 0(%rbp)
	.loc 1 121 13 view .LVU84
	movq	%rax, 16(%rbp)
	.loc 1 122 3 is_stmt 1 view .LVU85
	.loc 1 123 3 view .LVU86
	.loc 1 123 15 is_stmt 0 view .LVU87
	movq	%rbx, 8(%rbp)
	.loc 1 125 3 is_stmt 1 view .LVU88
	.loc 1 125 20 is_stmt 0 view .LVU89
	call	hash_insert@PLT
.LVL29:
	.loc 1 126 3 is_stmt 1 view .LVU90
	.loc 1 126 6 is_stmt 0 view .LVU91
	testq	%rax, %rax
	je	.L30
	movq	%rax, %rbx
.LVL30:
	.loc 1 135 3 is_stmt 1 view .LVU92
	.loc 1 142 10 is_stmt 0 view .LVU93
	xorl	%eax, %eax
.LVL31:
	.loc 1 135 6 view .LVU94
	cmpq	%rbx, %rbp
	je	.L25
	.loc 1 137 7 is_stmt 1 view .LVU95
.LVL32:
.LBB10:
.LBI10:
	.loc 1 72 1 view .LVU96
.LBB11:
	.loc 1 74 3 view .LVU97
	.loc 1 75 3 view .LVU98
	movq	16(%rbp), %rdi
	call	free@PLT
.LVL33:
	.loc 1 76 3 view .LVU99
	movq	%rbp, %rdi
	call	free@PLT
.LVL34:
	.loc 1 76 3 is_stmt 0 view .LVU100
.LBE11:
.LBE10:
	.loc 1 138 7 is_stmt 1 view .LVU101
	.loc 1 138 14 is_stmt 0 view .LVU102
	movq	16(%rbx), %rax
.LVL35:
.L25:
	.loc 1 143 1 view .LVU103
	addq	$8, %rsp
	.cfi_remember_state
	.cfi_def_cfa_offset 40
	popq	%rbx
	.cfi_def_cfa_offset 32
.LVL36:
	.loc 1 143 1 view .LVU104
	popq	%rbp
	.cfi_def_cfa_offset 24
.LVL37:
	.loc 1 143 1 view .LVU105
	popq	%r12
	.cfi_def_cfa_offset 16
.LVL38:
	.loc 1 143 1 view .LVU106
	popq	%r13
	.cfi_def_cfa_offset 8
.LVL39:
	.loc 1 143 1 view .LVU107
	ret
.LVL40:
.L30:
	.cfi_restore_state
	.loc 1 129 7 is_stmt 1 view .LVU108
	call	xalloc_die@PLT
.LVL41:
	.loc 1 129 7 is_stmt 0 view .LVU109
	.cfi_endproc
.LFE140:
	.size	remember_copied, .-remember_copied
	.p2align 4
	.globl	hash_init
	.type	hash_init, @function
hash_init:
.LFB141:
	.loc 1 148 1 is_stmt 1 view -0
	.cfi_startproc
	endbr64
	.loc 1 149 3 view .LVU111
	.loc 1 148 1 is_stmt 0 view .LVU112
	subq	$8, %rsp
	.cfi_def_cfa_offset 16
	.loc 1 149 17 view .LVU113
	leaq	src_to_dest_free(%rip), %r8
	xorl	%esi, %esi
	movl	$103, %edi
	leaq	src_to_dest_compare(%rip), %rcx
	leaq	src_to_dest_hash(%rip), %rdx
	call	hash_initialize@PLT
.LVL42:
	.loc 1 149 15 view .LVU114
	movq	%rax, src_to_dest(%rip)
	.loc 1 153 3 is_stmt 1 view .LVU115
	.loc 1 153 6 is_stmt 0 view .LVU116
	testq	%rax, %rax
	je	.L34
	.loc 1 155 1 view .LVU117
	addq	$8, %rsp
	.cfi_remember_state
	.cfi_def_cfa_offset 8
	ret
.L34:
	.cfi_restore_state
	.loc 1 154 5 is_stmt 1 view .LVU118
	call	xalloc_die@PLT
.LVL43:
	.cfi_endproc
.LFE141:
	.size	hash_init, .-hash_init
	.p2align 4
	.globl	forget_all
	.type	forget_all, @function
forget_all:
.LFB142:
	.loc 1 162 1 view -0
	.cfi_startproc
	endbr64
	.loc 1 163 3 view .LVU120
	movq	src_to_dest(%rip), %rdi
	jmp	hash_free@PLT
.LVL44:
	.cfi_endproc
.LFE142:
	.size	forget_all, .-forget_all
	.local	src_to_dest
	.comm	src_to_dest,8,8
.Letext0:
	.file 2 "/usr/include/x86_64-linux-gnu/bits/types.h"
	.file 3 "/usr/include/x86_64-linux-gnu/sys/types.h"
	.file 4 "/usr/include/x86_64-linux-gnu/bits/types/time_t.h"
	.file 5 "/usr/lib/gcc/x86_64-linux-gnu/9/include/stddef.h"
	.file 6 "./lib/sys/select.h"
	.file 7 "/usr/include/time.h"
	.file 8 "/usr/include/signal.h"
	.file 9 "/usr/include/unistd.h"
	.file 10 "/usr/include/x86_64-linux-gnu/bits/getopt_core.h"
	.file 11 "/usr/include/errno.h"
	.file 12 "src/version.h"
	.file 13 "./lib/exitfail.h"
	.file 14 "/usr/include/stdint.h"
	.file 15 "./lib/timespec.h"
	.file 16 "/usr/include/x86_64-linux-gnu/bits/types/struct_FILE.h"
	.file 17 "/usr/include/x86_64-linux-gnu/bits/types/FILE.h"
	.file 18 "/usr/include/stdio.h"
	.file 19 "/usr/include/x86_64-linux-gnu/bits/sys_errlist.h"
	.file 20 "./lib/version-etc.h"
	.file 21 "./lib/progname.h"
	.file 22 "./lib/quotearg.h"
	.file 23 "./lib/hash.h"
	.file 24 "./lib/xalloc.h"
	.file 25 "/usr/include/stdlib.h"
	.section	.note.GNU-stack,"",@progbits
	.section	.note.gnu.property,"a"
	.align 8
	.long	 1f - 0f
	.long	 4f - 1f
	.long	 5
0:
	.string	 "GNU"
1:
	.align 8
	.long	 0xc0000002
	.long	 3f - 2f
2:
	.long	 0x3
3:
	.align 8
4:
