	.file	"date.c"
	.text
.Ltext0:
	.section	.rodata.str1.1,"aMS",@progbits,1
.LC0:
	.string	"output format: %s"
.LC1:
	.string	"C"
.LC2:
	.string	""
.LC3:
	.string	"time %s is out of range"
	.text
	.p2align 4
	.type	show_date, @function
show_date:
.LVL0:
.LFB147:
	.file 1 "src/date.c"
	.loc 1 584 1 view -0
	.cfi_startproc
	.loc 1 584 1 is_stmt 0 view .LVU1
	pushq	%r13
	.cfi_def_cfa_offset 16
	.cfi_offset 13, -16
	pushq	%r12
	.cfi_def_cfa_offset 24
	.cfi_offset 12, -24
	movq	%rcx, %r12
	pushq	%rbp
	.cfi_def_cfa_offset 32
	.cfi_offset 6, -32
	movq	%rdi, %rbp
	subq	$112, %rsp
	.cfi_def_cfa_offset 144
	.loc 1 584 1 view .LVU2
	movq	%rsi, (%rsp)
.LVL1:
	.loc 1 584 1 view .LVU3
	movq	%rdx, 8(%rsp)
.LVL2:
	.loc 1 584 1 view .LVU4
	movq	%fs:40, %rax
	movq	%rax, 104(%rsp)
	xorl	%eax, %eax
	.loc 1 585 3 is_stmt 1 view .LVU5
	.loc 1 587 3 view .LVU6
	.loc 1 587 6 is_stmt 0 view .LVU7
	testb	$1, parse_datetime_flags(%rip)
	jne	.L14
.LVL3:
.L2:
	.loc 1 590 3 is_stmt 1 view .LVU8
	.loc 1 590 7 is_stmt 0 view .LVU9
	leaq	16(%rsp), %r13
	movq	%rsp, %rsi
	movq	%r12, %rdi
	movq	%r13, %rdx
	call	localtime_rz@PLT
.LVL4:
	.loc 1 590 6 view .LVU10
	testq	%rax, %rax
	je	.L3
	.loc 1 592 7 is_stmt 1 view .LVU11
	.loc 1 592 10 is_stmt 0 view .LVU12
	leaq	rfc_email_format(%rip), %rax
	cmpq	%rax, %rbp
	je	.L15
	.loc 1 594 7 is_stmt 1 view .LVU13
	movl	8(%rsp), %r8d
	movq	%r12, %rcx
	movq	%r13, %rdx
	movq	%rbp, %rsi
	movq	stdout(%rip), %rdi
	call	fprintftime@PLT
.LVL5:
	.loc 1 595 7 view .LVU14
.L7:
	.loc 1 597 7 view .LVU15
	movq	stdout(%rip), %rdi
.LVL6:
.LBB55:
.LBI55:
	.file 2 "/usr/include/x86_64-linux-gnu/bits/stdio.h"
	.loc 2 91 1 view .LVU16
.LBB56:
	.loc 2 93 3 view .LVU17
	.loc 2 93 10 is_stmt 0 view .LVU18
	movq	40(%rdi), %rax
	cmpq	48(%rdi), %rax
	jnb	.L16
	leaq	1(%rax), %rdx
	movq	%rdx, 40(%rdi)
	movb	$10, (%rax)
.LBE56:
.LBE55:
	.loc 1 598 14 view .LVU19
	movl	$1, %eax
.LVL7:
.L1:
	.loc 1 607 1 view .LVU20
	movq	104(%rsp), %rcx
	xorq	%fs:40, %rcx
	jne	.L17
	addq	$112, %rsp
	.cfi_remember_state
	.cfi_def_cfa_offset 32
	popq	%rbp
	.cfi_def_cfa_offset 24
.LVL8:
	.loc 1 607 1 view .LVU21
	popq	%r12
	.cfi_def_cfa_offset 16
	popq	%r13
	.cfi_def_cfa_offset 8
	ret
.LVL9:
	.p2align 4,,10
	.p2align 3
.L14:
	.cfi_restore_state
	.loc 1 588 5 is_stmt 1 view .LVU22
	call	quote@PLT
.LVL10:
	.loc 1 588 18 is_stmt 0 view .LVU23
	xorl	%edi, %edi
	movl	$5, %edx
	leaq	.LC0(%rip), %rsi
	.loc 1 588 5 view .LVU24
	movq	%rax, %r13
	.loc 1 588 18 view .LVU25
	call	dcgettext@PLT
.LVL11:
	.loc 1 588 5 view .LVU26
	movq	%r13, %rcx
	xorl	%esi, %esi
	xorl	%edi, %edi
	.loc 1 588 18 view .LVU27
	movq	%rax, %rdx
	.loc 1 588 5 view .LVU28
	xorl	%eax, %eax
	call	error@PLT
.LVL12:
	jmp	.L2
	.p2align 4,,10
	.p2align 3
.L3:
.LBB59:
	.loc 1 602 7 is_stmt 1 view .LVU29
	.loc 1 603 7 view .LVU30
.LVL13:
.LBB60:
.LBI60:
	.file 3 "src/system.h"
	.loc 3 690 1 view .LVU31
.LBB61:
	.loc 3 692 3 view .LVU32
	.loc 3 694 11 is_stmt 0 view .LVU33
	movq	(%rsp), %rdi
	leaq	80(%rsp), %rsi
.LVL14:
	.loc 3 694 11 view .LVU34
	call	imaxtostr@PLT
.LVL15:
	.loc 3 694 11 view .LVU35
	movq	%rax, %rdi
.LVL16:
	.loc 3 694 11 view .LVU36
.LBE61:
.LBE60:
	.loc 1 603 7 view .LVU37
	call	quote@PLT
.LVL17:
	.loc 1 603 20 view .LVU38
	movl	$5, %edx
	leaq	.LC3(%rip), %rsi
	xorl	%edi, %edi
	.loc 1 603 7 view .LVU39
	movq	%rax, %r12
.LVL18:
	.loc 1 603 20 view .LVU40
	call	dcgettext@PLT
.LVL19:
	.loc 1 603 7 view .LVU41
	movq	%r12, %rcx
	xorl	%esi, %esi
	xorl	%edi, %edi
	.loc 1 603 20 view .LVU42
	movq	%rax, %rdx
	.loc 1 603 7 view .LVU43
	xorl	%eax, %eax
	call	error@PLT
.LVL20:
	.loc 1 605 7 is_stmt 1 view .LVU44
	.loc 1 605 14 is_stmt 0 view .LVU45
	xorl	%eax, %eax
	jmp	.L1
.LVL21:
	.p2align 4,,10
	.p2align 3
.L15:
	.loc 1 605 14 view .LVU46
.LBE59:
	.loc 1 593 9 is_stmt 1 view .LVU47
	leaq	.LC1(%rip), %rsi
	movl	$2, %edi
	call	setlocale@PLT
.LVL22:
	.loc 1 594 7 view .LVU48
	movl	8(%rsp), %r8d
	movq	%rbp, %rsi
	movq	%r12, %rcx
	movq	stdout(%rip), %rdi
	movq	%r13, %rdx
	call	fprintftime@PLT
.LVL23:
	.loc 1 595 7 view .LVU49
	.loc 1 596 9 view .LVU50
	leaq	.LC2(%rip), %rsi
	movl	$2, %edi
	call	setlocale@PLT
.LVL24:
	jmp	.L7
.LVL25:
	.p2align 4,,10
	.p2align 3
.L16:
.LBB62:
.LBB57:
	.loc 2 93 10 is_stmt 0 view .LVU51
	movl	$10, %esi
	call	__overflow@PLT
.LVL26:
	.loc 2 93 10 view .LVU52
.LBE57:
.LBE62:
	.loc 1 598 14 view .LVU53
	movl	$1, %eax
.LBB63:
.LBB58:
	jmp	.L1
.LVL27:
.L17:
	.loc 1 598 14 view .LVU54
.LBE58:
.LBE63:
	.loc 1 607 1 view .LVU55
	call	__stack_chk_fail@PLT
.LVL28:
	.cfi_endproc
.LFE147:
	.size	show_date, .-show_date
	.section	.rodata.str1.1
.LC4:
	.string	"date"
.LC5:
	.string	" invocation"
	.section	.rodata.str1.8,"aMS",@progbits,1
	.align 8
.LC6:
	.string	"Try '%s --help' for more information.\n"
	.align 8
.LC7:
	.string	"Usage: %s [OPTION]... [+FORMAT]\n  or:  %s [-u|--utc|--universal] [MMDDhhmm[[CC]YY][.ss]]\n"
	.align 8
.LC8:
	.string	"Display the current time in the given FORMAT, or set the system date.\n"
	.align 8
.LC9:
	.string	"\nMandatory arguments to long options are mandatory for short options too.\n"
	.align 8
.LC10:
	.string	"  -d, --date=STRING          display time described by STRING, not 'now'\n"
	.align 8
.LC11:
	.string	"      --debug                annotate the parsed date,\n                              and warn about questionable usage to stderr\n"
	.align 8
.LC12:
	.string	"  -f, --file=DATEFILE        like --date; once for each line of DATEFILE\n"
	.align 8
.LC13:
	.ascii	"  -I[FMT], --iso-8601[=FMT]  output date/time in ISO 8601 fo"
	.ascii	"rmat.\n                            "
	.string	"   FMT='date' for date only (the default),\n                               'hours', 'minutes', 'seconds', or 'ns'\n                               for date and time to the indicated precision.\n                               Example: 2006-08-14T02:34:56-06:00\n"
	.align 8
.LC14:
	.string	"  -R, --rfc-email            output date and time in RFC 5322 format.\n                               Example: Mon, 14 Aug 2006 02:34:56 -0600\n"
	.align 8
.LC15:
	.ascii	"      --rfc-333"
	.string	"9=FMT         output date/time in RFC 3339 format.\n                               FMT='date', 'seconds', or 'ns'\n                               for date and time to the indicated precision.\n                               Example: 2006-08-14 02:34:56-06:00\n"
	.align 8
.LC16:
	.string	"  -r, --reference=FILE       display the last modification time of FILE\n"
	.align 8
.LC17:
	.string	"  -s, --set=STRING           set time described by STRING\n  -u, --utc, --universal     print or set Coordinated Universal Time (UTC)\n"
	.align 8
.LC18:
	.string	"      --help     display this help and exit\n"
	.align 8
.LC19:
	.string	"      --version  output version information and exit\n"
	.align 8
.LC20:
	.string	"\nFORMAT controls the output.  Interpreted sequences are:\n\n  %%   a literal %\n  %a   locale's abbreviated weekday name (e.g., Sun)\n"
	.align 8
.LC21:
	.string	"  %A   locale's full weekday name (e.g., Sunday)\n  %b   locale's abbreviated month name (e.g., Jan)\n  %B   locale's full month name (e.g., January)\n  %c   locale's date and time (e.g., Thu Mar  3 23:05:25 2005)\n"
	.align 8
.LC22:
	.string	"  %C   century; like %Y, except omit last two digits (e.g., 20)\n  %d   day of month (e.g., 01)\n  %D   date; same as %m/%d/%y\n  %e   day of month, space padded; same as %_d\n"
	.align 8
.LC23:
	.string	"  %F   full date; like %+4Y-%m-%d\n  %g   last two digits of year of ISO week number (see %G)\n  %G   year of ISO week number (see %V); normally useful only with %V\n"
	.align 8
.LC24:
	.string	"  %h   same as %b\n  %H   hour (00..23)\n  %I   hour (01..12)\n  %j   day of year (001..366)\n"
	.align 8
.LC25:
	.string	"  %k   hour, space padded ( 0..23); same as %_H\n  %l   hour, space padded ( 1..12); same as %_I\n  %m   month (01..12)\n  %M   minute (00..59)\n"
	.align 8
.LC26:
	.ascii	"  %n   a newline\n  %N   nanoseconds (000000000..999999999)\n"
	.ascii	"  %p   locale's equivalent"
	.string	" of either AM or PM; blank if not known\n  %P   like %p, but lower case\n  %q   quarter of year (1..4)\n  %r   locale's 12-hour clock time (e.g., 11:11:04 PM)\n  %R   24-hour hour and minute; same as %H:%M\n  %s   seconds since the Epoch (1970-01-01 00:00 UTC)\n"
	.align 8
.LC27:
	.string	"  %S   second (00..60)\n  %t   a tab\n  %T   time; same as %H:%M:%S\n  %u   day of week (1..7); 1 is Monday\n"
	.align 8
.LC28:
	.string	"  %U   week number of year, with Sunday as first day of week (00..53)\n  %V   ISO week number, with Monday as first day of week (01..53)\n  %w   day of week (0..6); 0 is Sunday\n  %W   week number of year, with Monday as first day of week (00..53)\n"
	.align 8
.LC29:
	.string	"  %x   locale's date representation (e.g., 12/31/99)\n  %X   locale's time representation (e.g., 23:13:48)\n  %y   last two digits of year (00..99)\n  %Y   year\n"
	.align 8
.LC30:
	.ascii	"  %z   +hhmm numeric time zone (e.g., -0400)\n  %:z  +hh:mm "
	.ascii	"numeric time"
	.string	" zone (e.g., -04:00)\n  %::z  +hh:mm:ss numeric time zone (e.g., -04:00:00)\n  %:::z  numeric time zone with : to necessary precision (e.g., -04, +05:30)\n  %Z   alphabetic time zone abbreviation (e.g., EDT)\n\nBy default, date pads numeric fields with zeroes.\n"
	.align 8
.LC31:
	.ascii	"The following optiona"
	.string	"l flags may follow '%':\n\n  -  (hyphen) do not pad the field\n  _  (underscore) pad with spaces\n  0  (zero) pad with zeros\n  +  pad with zeros, and put '+' before future years with >4 digits\n  ^  use upper case if possible\n  #  use opposite case if possible\n"
	.align 8
.LC32:
	.string	"\nAfter any flags comes an optional field width, as a decimal number;\nthen an optional modifier, which is either\nE to use the locale's alternate representations if available, or\nO to use the locale's alternate numeric symbols if available.\n"
	.align 8
.LC33:
	.ascii	"\nExamples:\nConvert seconds since the Epoch (1970-01-01 UTC"
	.ascii	") to a date\n  $ dat"
	.string	"e --date='@2147483647'\n\nShow the time on the west coast of the US (use tzselect(1) to find TZ)\n  $ TZ='America/Los_Angeles' date\n\nShow the local time for 9AM next Friday on the west coast of the US\n  $ date --date='TZ=\"America/Los_Angeles\" 09:00 next Fri'\n"
	.section	.rodata.str1.1
.LC34:
	.string	"["
.LC35:
	.string	"test invocation"
.LC36:
	.string	"coreutils"
.LC37:
	.string	"Multi-call invocation"
.LC38:
	.string	"sha224sum"
.LC39:
	.string	"sha2 utilities"
.LC40:
	.string	"sha256sum"
.LC41:
	.string	"sha384sum"
.LC42:
	.string	"sha512sum"
.LC43:
	.string	"\n%s online help: <%s>\n"
	.section	.rodata.str1.8
	.align 8
.LC44:
	.string	"https://www.gnu.org/software/coreutils/"
	.section	.rodata.str1.1
.LC45:
	.string	"GNU coreutils"
.LC46:
	.string	"en_"
	.section	.rodata.str1.8
	.align 8
.LC47:
	.string	"Report any translation bugs to <https://translationproject.org/team/>\n"
	.section	.rodata.str1.1
.LC48:
	.string	"Full documentation <%s%s>\n"
	.section	.rodata.str1.8
	.align 8
.LC49:
	.string	"or available locally via: info '(coreutils) %s%s'\n"
	.text
	.p2align 4
	.globl	usage
	.type	usage, @function
usage:
.LVL29:
.LFB144:
	.loc 1 125 1 is_stmt 1 view -0
	.cfi_startproc
	.loc 1 125 1 is_stmt 0 view .LVU57
	endbr64
	pushq	%r13
	.cfi_def_cfa_offset 16
	.cfi_offset 13, -16
	.loc 1 127 5 view .LVU58
	movl	$5, %edx
	.loc 1 125 1 view .LVU59
	pushq	%r12
	.cfi_def_cfa_offset 24
	.cfi_offset 12, -24
	pushq	%rbp
	.cfi_def_cfa_offset 32
	.cfi_offset 6, -32
	movl	%edi, %ebp
	pushq	%rbx
	.cfi_def_cfa_offset 40
	.cfi_offset 3, -40
	subq	$136, %rsp
	.cfi_def_cfa_offset 176
	movq	program_name(%rip), %r12
	.loc 1 125 1 view .LVU60
	movq	%fs:40, %rax
	movq	%rax, 120(%rsp)
	xorl	%eax, %eax
	.loc 1 126 3 is_stmt 1 view .LVU61
	.loc 1 126 6 is_stmt 0 view .LVU62
	testl	%edi, %edi
	je	.L19
	.loc 1 127 5 is_stmt 1 view .LVU63
	.loc 1 127 5 view .LVU64
	leaq	.LC6(%rip), %rsi
	xorl	%edi, %edi
.LVL30:
	.loc 1 127 5 is_stmt 0 view .LVU65
	call	dcgettext@PLT
.LVL31:
.LBB78:
.LBB79:
	.file 4 "/usr/include/x86_64-linux-gnu/bits/stdio2.h"
	.loc 4 100 10 view .LVU66
	movq	stderr(%rip), %rdi
	movq	%r12, %rcx
	movl	$1, %esi
.LBE79:
.LBE78:
	.loc 1 127 5 view .LVU67
	movq	%rax, %rdx
.LVL32:
.LBB81:
.LBI78:
	.loc 4 98 1 is_stmt 1 view .LVU68
.LBB80:
	.loc 4 100 3 view .LVU69
	.loc 4 100 10 is_stmt 0 view .LVU70
	xorl	%eax, %eax
.LVL33:
	.loc 4 100 10 view .LVU71
	call	__fprintf_chk@PLT
.LVL34:
.L20:
	.loc 4 100 10 view .LVU72
.LBE80:
.LBE81:
	.loc 1 281 3 is_stmt 1 view .LVU73
	movl	%ebp, %edi
	call	exit@PLT
.LVL35:
.L19:
	.loc 1 130 7 view .LVU74
	.loc 1 130 15 is_stmt 0 view .LVU75
	xorl	%edi, %edi
.LVL36:
	.loc 1 130 15 view .LVU76
	leaq	.LC7(%rip), %rsi
.LBB82:
.LBB83:
	.loc 3 636 67 view .LVU77
	leaq	.LC40(%rip), %rbx
.LBE83:
.LBE82:
	.loc 1 130 15 view .LVU78
	call	dcgettext@PLT
.LVL37:
.LBB109:
.LBB110:
	.loc 4 107 10 view .LVU79
	movq	%r12, %rcx
	movq	%r12, %rdx
	movl	$1, %edi
.LBE110:
.LBE109:
	.loc 1 130 15 view .LVU80
	movq	%rax, %rsi
.LVL38:
.LBB112:
.LBI109:
	.loc 4 105 1 is_stmt 1 view .LVU81
.LBB111:
	.loc 4 107 3 view .LVU82
	.loc 4 107 10 is_stmt 0 view .LVU83
	xorl	%eax, %eax
.LVL39:
	.loc 4 107 10 view .LVU84
	call	__printf_chk@PLT
.LVL40:
	.loc 4 107 10 view .LVU85
.LBE111:
.LBE112:
	.loc 1 135 7 is_stmt 1 view .LVU86
	movq	stdout(%rip), %r12
	xorl	%edi, %edi
	movl	$5, %edx
	leaq	.LC8(%rip), %rsi
	call	dcgettext@PLT
.LVL41:
	movq	%r12, %rsi
	movq	%rax, %rdi
	call	fputs_unlocked@PLT
.LVL42:
	.loc 1 139 7 view .LVU87
.LBB113:
.LBI113:
	.loc 3 588 1 view .LVU88
.LBB114:
	.loc 3 590 3 view .LVU89
	movq	stdout(%rip), %r12
	xorl	%edi, %edi
	movl	$5, %edx
	leaq	.LC9(%rip), %rsi
	call	dcgettext@PLT
.LVL43:
	movq	%r12, %rsi
	movq	%rax, %rdi
	call	fputs_unlocked@PLT
.LVL44:
.LBE114:
.LBE113:
	.loc 1 141 7 view .LVU90
	movq	stdout(%rip), %r12
	xorl	%edi, %edi
	movl	$5, %edx
	leaq	.LC10(%rip), %rsi
	call	dcgettext@PLT
.LVL45:
	movq	%r12, %rsi
	movq	%rax, %rdi
	call	fputs_unlocked@PLT
.LVL46:
	.loc 1 144 7 view .LVU91
	movq	stdout(%rip), %r12
	xorl	%edi, %edi
	movl	$5, %edx
	leaq	.LC11(%rip), %rsi
	call	dcgettext@PLT
.LVL47:
	movq	%r12, %rsi
	movq	%rax, %rdi
	call	fputs_unlocked@PLT
.LVL48:
	.loc 1 148 7 view .LVU92
	movq	stdout(%rip), %r12
	xorl	%edi, %edi
	movl	$5, %edx
	leaq	.LC12(%rip), %rsi
	call	dcgettext@PLT
.LVL49:
	movq	%r12, %rsi
	movq	%rax, %rdi
	call	fputs_unlocked@PLT
.LVL50:
	.loc 1 151 7 view .LVU93
	movq	stdout(%rip), %r12
	xorl	%edi, %edi
	movl	$5, %edx
	leaq	.LC13(%rip), %rsi
	call	dcgettext@PLT
.LVL51:
	movq	%r12, %rsi
	movq	%rax, %rdi
	call	fputs_unlocked@PLT
.LVL52:
	.loc 1 158 7 view .LVU94
	movq	stdout(%rip), %r12
	xorl	%edi, %edi
	movl	$5, %edx
	leaq	.LC14(%rip), %rsi
	call	dcgettext@PLT
.LVL53:
	movq	%r12, %rsi
	movq	%rax, %rdi
	call	fputs_unlocked@PLT
.LVL54:
	.loc 1 162 7 view .LVU95
	movq	stdout(%rip), %r12
	xorl	%edi, %edi
	movl	$5, %edx
	leaq	.LC15(%rip), %rsi
	call	dcgettext@PLT
.LVL55:
	movq	%r12, %rsi
	movq	%rax, %rdi
	call	fputs_unlocked@PLT
.LVL56:
	.loc 1 168 7 view .LVU96
	movq	stdout(%rip), %r12
	xorl	%edi, %edi
	movl	$5, %edx
	leaq	.LC16(%rip), %rsi
	call	dcgettext@PLT
.LVL57:
	movq	%r12, %rsi
	movq	%rax, %rdi
	call	fputs_unlocked@PLT
.LVL58:
	.loc 1 171 7 view .LVU97
	movq	stdout(%rip), %r12
	movl	$5, %edx
	xorl	%edi, %edi
	leaq	.LC17(%rip), %rsi
	call	dcgettext@PLT
.LVL59:
	movq	%r12, %rsi
	movq	%rax, %rdi
	call	fputs_unlocked@PLT
.LVL60:
	.loc 1 175 7 view .LVU98
	movq	stdout(%rip), %r12
	xorl	%edi, %edi
	movl	$5, %edx
	leaq	.LC18(%rip), %rsi
	call	dcgettext@PLT
.LVL61:
	movq	%r12, %rsi
	movq	%rax, %rdi
	call	fputs_unlocked@PLT
.LVL62:
	.loc 1 176 7 view .LVU99
	movq	stdout(%rip), %r12
	xorl	%edi, %edi
	movl	$5, %edx
	leaq	.LC19(%rip), %rsi
	call	dcgettext@PLT
.LVL63:
	movq	%r12, %rsi
	movq	%rax, %rdi
	call	fputs_unlocked@PLT
.LVL64:
	.loc 1 177 7 view .LVU100
	movq	stdout(%rip), %r12
	xorl	%edi, %edi
	movl	$5, %edx
	leaq	.LC20(%rip), %rsi
	call	dcgettext@PLT
.LVL65:
	movq	%r12, %rsi
	movq	%rax, %rdi
	call	fputs_unlocked@PLT
.LVL66:
	.loc 1 184 7 view .LVU101
	movq	stdout(%rip), %r12
	xorl	%edi, %edi
	movl	$5, %edx
	leaq	.LC21(%rip), %rsi
	call	dcgettext@PLT
.LVL67:
	movq	%r12, %rsi
	movq	%rax, %rdi
	call	fputs_unlocked@PLT
.LVL68:
	.loc 1 190 7 view .LVU102
	movq	stdout(%rip), %r12
	xorl	%edi, %edi
	movl	$5, %edx
	leaq	.LC22(%rip), %rsi
	call	dcgettext@PLT
.LVL69:
	movq	%r12, %rsi
	movq	%rax, %rdi
	call	fputs_unlocked@PLT
.LVL70:
	.loc 1 196 7 view .LVU103
	movq	stdout(%rip), %r12
	xorl	%edi, %edi
	movl	$5, %edx
	leaq	.LC23(%rip), %rsi
	call	dcgettext@PLT
.LVL71:
	movq	%r12, %rsi
	movq	%rax, %rdi
	call	fputs_unlocked@PLT
.LVL72:
	.loc 1 201 7 view .LVU104
	movq	stdout(%rip), %r12
	xorl	%edi, %edi
	movl	$5, %edx
	leaq	.LC24(%rip), %rsi
	call	dcgettext@PLT
.LVL73:
	movq	%r12, %rsi
	movq	%rax, %rdi
	call	fputs_unlocked@PLT
.LVL74:
	.loc 1 207 7 view .LVU105
	movq	stdout(%rip), %r12
	xorl	%edi, %edi
	movl	$5, %edx
	leaq	.LC25(%rip), %rsi
	call	dcgettext@PLT
.LVL75:
	movq	%r12, %rsi
	movq	%rax, %rdi
	call	fputs_unlocked@PLT
.LVL76:
	.loc 1 213 7 view .LVU106
	movq	stdout(%rip), %r12
	xorl	%edi, %edi
	movl	$5, %edx
	leaq	.LC26(%rip), %rsi
	call	dcgettext@PLT
.LVL77:
	movq	%r12, %rsi
	movq	%rax, %rdi
	call	fputs_unlocked@PLT
.LVL78:
	.loc 1 223 7 view .LVU107
	movq	stdout(%rip), %r12
	xorl	%edi, %edi
	movl	$5, %edx
	leaq	.LC27(%rip), %rsi
	call	dcgettext@PLT
.LVL79:
	movq	%r12, %rsi
	movq	%rax, %rdi
	call	fputs_unlocked@PLT
.LVL80:
	.loc 1 229 7 view .LVU108
	xorl	%edi, %edi
	movq	stdout(%rip), %r12
	movl	$5, %edx
	leaq	.LC28(%rip), %rsi
	call	dcgettext@PLT
.LVL81:
	movq	%r12, %rsi
	movq	%rax, %rdi
	call	fputs_unlocked@PLT
.LVL82:
	.loc 1 235 7 view .LVU109
	movq	stdout(%rip), %r12
	movl	$5, %edx
	xorl	%edi, %edi
	leaq	.LC29(%rip), %rsi
	call	dcgettext@PLT
.LVL83:
	movq	%r12, %rsi
	movq	%rax, %rdi
	call	fputs_unlocked@PLT
.LVL84:
	.loc 1 241 7 view .LVU110
	movq	stdout(%rip), %r12
	movl	$5, %edx
	xorl	%edi, %edi
	leaq	.LC30(%rip), %rsi
	call	dcgettext@PLT
.LVL85:
	movq	%r12, %rsi
	movq	%rax, %rdi
	call	fputs_unlocked@PLT
.LVL86:
	.loc 1 250 7 view .LVU111
	movq	stdout(%rip), %r12
	movl	$5, %edx
	xorl	%edi, %edi
	leaq	.LC31(%rip), %rsi
	call	dcgettext@PLT
.LVL87:
	movq	%r12, %rsi
	movq	%rax, %rdi
	call	fputs_unlocked@PLT
.LVL88:
	.loc 1 260 7 view .LVU112
	movq	stdout(%rip), %r12
	movl	$5, %edx
	xorl	%edi, %edi
	leaq	.LC32(%rip), %rsi
	call	dcgettext@PLT
.LVL89:
	movq	%r12, %rsi
	movq	%rax, %rdi
	call	fputs_unlocked@PLT
.LVL90:
	.loc 1 267 7 view .LVU113
	movq	stdout(%rip), %r12
	movl	$5, %edx
	xorl	%edi, %edi
	leaq	.LC33(%rip), %rsi
	call	dcgettext@PLT
.LVL91:
	movq	%r12, %rsi
	movq	%rax, %rdi
	call	fputs_unlocked@PLT
.LVL92:
	.loc 1 279 7 view .LVU114
.LBB115:
.LBI82:
	.loc 3 634 1 view .LVU115
.LBB108:
	.loc 3 636 3 view .LVU116
	.loc 3 636 67 is_stmt 0 view .LVU117
	leaq	.LC34(%rip), %rax
	movq	%rbx, 48(%rsp)
	leaq	.LC41(%rip), %rbx
	movq	%rax, (%rsp)
	leaq	.LC35(%rip), %rax
	movq	%rax, 8(%rsp)
	leaq	.LC36(%rip), %rax
	movq	%rax, 16(%rsp)
	leaq	.LC37(%rip), %rax
	movq	%rax, 24(%rsp)
	leaq	.LC38(%rip), %rax
	movq	$0, 96(%rsp)
	movq	$0, 104(%rsp)
	.loc 3 646 3 is_stmt 1 view .LVU118
.LVL93:
	.loc 3 647 3 view .LVU119
	.loc 3 649 3 view .LVU120
	.loc 3 649 9 view .LVU121
	.loc 3 636 67 is_stmt 0 view .LVU122
	movq	%rax, 32(%rsp)
	leaq	.LC39(%rip), %rax
	movq	%rbx, 64(%rsp)
	leaq	.LC42(%rip), %rbx
	movq	%rax, 40(%rsp)
	movq	%rax, 56(%rsp)
	movq	%rax, 72(%rsp)
	movq	%rbx, 80(%rsp)
	leaq	.LC4(%rip), %rbx
	movq	%rax, 88(%rsp)
	.loc 3 647 25 view .LVU123
	movq	%rsp, %rax
.LVL94:
	.p2align 4,,10
	.p2align 3
.L22:
	.loc 3 650 5 is_stmt 1 view .LVU124
	.loc 3 649 18 is_stmt 0 view .LVU125
	movq	16(%rax), %rdi
	.loc 3 650 13 view .LVU126
	addq	$16, %rax
.LVL95:
	.loc 3 649 9 is_stmt 1 view .LVU127
	testq	%rdi, %rdi
	je	.L21
	.loc 3 649 33 is_stmt 0 view .LVU128
	movl	$5, %ecx
	movq	%rbx, %rsi
	repz cmpsb
	seta	%dl
	sbbb	$0, %dl
	.loc 3 649 28 view .LVU129
	testb	%dl, %dl
	jne	.L22
.L21:
	.loc 3 652 3 is_stmt 1 view .LVU130
	.loc 3 652 15 is_stmt 0 view .LVU131
	movq	8(%rax), %r12
	.loc 3 655 11 view .LVU132
	movl	$5, %edx
	leaq	.LC43(%rip), %rsi
	xorl	%edi, %edi
	.loc 3 652 6 view .LVU133
	testq	%r12, %r12
	je	.L23
	.loc 3 653 5 is_stmt 1 view .LVU134
.LVL96:
	.loc 3 655 3 view .LVU135
	.loc 3 655 11 is_stmt 0 view .LVU136
	call	dcgettext@PLT
.LVL97:
.LBB84:
.LBB85:
	.loc 4 107 10 view .LVU137
	leaq	.LC44(%rip), %rcx
	movl	$1, %edi
	leaq	.LC45(%rip), %rdx
.LBE85:
.LBE84:
	.loc 3 655 11 view .LVU138
	movq	%rax, %rsi
.LVL98:
.LBB89:
.LBI84:
	.loc 4 105 1 is_stmt 1 view .LVU139
.LBB86:
	.loc 4 107 3 view .LVU140
	.loc 4 107 10 is_stmt 0 view .LVU141
	xorl	%eax, %eax
.LVL99:
	.loc 4 107 10 view .LVU142
	call	__printf_chk@PLT
.LVL100:
	.loc 4 107 10 view .LVU143
.LBE86:
.LBE89:
	.loc 3 659 3 is_stmt 1 view .LVU144
	.loc 3 659 29 is_stmt 0 view .LVU145
	movl	$5, %edi
	xorl	%esi, %esi
	call	setlocale@PLT
.LVL101:
	movq	%rax, %rdi
.LVL102:
	.loc 3 660 3 is_stmt 1 view .LVU146
	.loc 3 660 6 is_stmt 0 view .LVU147
	testq	%rax, %rax
	je	.L24
	.loc 3 660 22 view .LVU148
	movl	$3, %edx
	leaq	.LC46(%rip), %rsi
	call	strncmp@PLT
.LVL103:
	.loc 3 660 19 view .LVU149
	testl	%eax, %eax
	jne	.L27
.LVL104:
.L24:
	.loc 3 669 3 is_stmt 1 view .LVU150
	.loc 3 669 11 is_stmt 0 view .LVU151
	xorl	%edi, %edi
	movl	$5, %edx
	leaq	.LC48(%rip), %rsi
	call	dcgettext@PLT
.LVL105:
.LBB90:
.LBB91:
	.loc 4 107 10 view .LVU152
	leaq	.LC4(%rip), %rcx
	leaq	.LC44(%rip), %rdx
	movl	$1, %edi
.LBE91:
.LBE90:
	.loc 3 669 11 view .LVU153
	movq	%rax, %rsi
.LVL106:
.LBB97:
.LBI90:
	.loc 4 105 1 is_stmt 1 view .LVU154
.LBB92:
	.loc 4 107 3 view .LVU155
	.loc 4 107 10 is_stmt 0 view .LVU156
	xorl	%eax, %eax
.LVL107:
	.loc 4 107 10 view .LVU157
.LBE92:
.LBE97:
	.loc 3 671 3 view .LVU158
	leaq	.LC5(%rip), %r13
.LBB98:
.LBB93:
	.loc 4 107 10 view .LVU159
	call	__printf_chk@PLT
.LVL108:
	.loc 4 107 10 view .LVU160
.LBE93:
.LBE98:
	.loc 3 671 3 is_stmt 1 view .LVU161
	cmpq	%rbx, %r12
	leaq	.LC2(%rip), %rcx
	cmovne	%rcx, %r13
.L25:
	.loc 3 671 11 is_stmt 0 view .LVU162
	xorl	%edi, %edi
	leaq	.LC49(%rip), %rsi
	movl	$5, %edx
	call	dcgettext@PLT
.LVL109:
.LBB99:
.LBB100:
	.loc 4 107 10 view .LVU163
	movq	%r13, %rcx
	movq	%r12, %rdx
	movl	$1, %edi
.LBE100:
.LBE99:
	.loc 3 671 11 view .LVU164
	movq	%rax, %rsi
.LVL110:
.LBB102:
.LBI99:
	.loc 4 105 1 is_stmt 1 view .LVU165
.LBB101:
	.loc 4 107 3 view .LVU166
	.loc 4 107 10 is_stmt 0 view .LVU167
	xorl	%eax, %eax
.LVL111:
	.loc 4 107 10 view .LVU168
	call	__printf_chk@PLT
.LVL112:
	.loc 4 107 10 view .LVU169
.LBE101:
.LBE102:
	.loc 3 673 1 view .LVU170
	jmp	.L20
.LVL113:
.L23:
	.loc 3 655 3 is_stmt 1 view .LVU171
	.loc 3 655 11 is_stmt 0 view .LVU172
	call	dcgettext@PLT
.LVL114:
.LBB103:
.LBB87:
	.loc 4 107 10 view .LVU173
	leaq	.LC44(%rip), %rcx
	movl	$1, %edi
	leaq	.LC45(%rip), %rdx
.LBE87:
.LBE103:
	.loc 3 655 11 view .LVU174
	movq	%rax, %rsi
.LVL115:
.LBB104:
	.loc 4 105 1 is_stmt 1 view .LVU175
.LBB88:
	.loc 4 107 3 view .LVU176
	.loc 4 107 10 is_stmt 0 view .LVU177
	xorl	%eax, %eax
.LVL116:
	.loc 4 107 10 view .LVU178
	call	__printf_chk@PLT
.LVL117:
	.loc 4 107 10 view .LVU179
.LBE88:
.LBE104:
	.loc 3 659 3 is_stmt 1 view .LVU180
	.loc 3 659 29 is_stmt 0 view .LVU181
	movl	$5, %edi
	xorl	%esi, %esi
	call	setlocale@PLT
.LVL118:
	movq	%rax, %rdi
.LVL119:
	.loc 3 660 3 is_stmt 1 view .LVU182
	.loc 3 660 6 is_stmt 0 view .LVU183
	testq	%rax, %rax
	je	.L26
	.loc 3 660 22 view .LVU184
	movl	$3, %edx
	leaq	.LC46(%rip), %rsi
	call	strncmp@PLT
.LVL120:
	.loc 3 660 19 view .LVU185
	testl	%eax, %eax
	jne	.L45
.L26:
	.loc 3 669 3 is_stmt 1 view .LVU186
	.loc 3 669 11 is_stmt 0 view .LVU187
	movl	$5, %edx
	leaq	.LC48(%rip), %rsi
	xorl	%edi, %edi
	call	dcgettext@PLT
.LVL121:
.LBB105:
.LBB94:
	.loc 4 107 10 view .LVU188
	leaq	.LC4(%rip), %rcx
	leaq	.LC44(%rip), %rdx
	movl	$1, %edi
.LBE94:
.LBE105:
	.loc 3 669 11 view .LVU189
	movq	%rax, %rsi
.LVL122:
.LBB106:
	.loc 4 105 1 is_stmt 1 view .LVU190
.LBB95:
	.loc 4 107 3 view .LVU191
	.loc 4 107 10 is_stmt 0 view .LVU192
	xorl	%eax, %eax
.LVL123:
	.loc 4 107 10 view .LVU193
.LBE95:
.LBE106:
	.loc 3 646 15 view .LVU194
	leaq	.LC4(%rip), %r12
.LBB107:
.LBB96:
	.loc 4 107 10 view .LVU195
	call	__printf_chk@PLT
.LVL124:
	.loc 4 107 10 view .LVU196
.LBE96:
.LBE107:
	.loc 3 671 3 is_stmt 1 view .LVU197
	leaq	.LC5(%rip), %r13
	jmp	.L25
.L45:
	.loc 3 646 15 is_stmt 0 view .LVU198
	leaq	.LC4(%rip), %r12
.LVL125:
.L27:
	.loc 3 666 7 is_stmt 1 view .LVU199
	movq	stdout(%rip), %r13
	xorl	%edi, %edi
	movl	$5, %edx
	leaq	.LC47(%rip), %rsi
	call	dcgettext@PLT
.LVL126:
	movq	%rax, %rdi
	movq	%r13, %rsi
	call	fputs_unlocked@PLT
.LVL127:
	jmp	.L24
.LBE108:
.LBE115:
	.cfi_endproc
.LFE144:
	.size	usage, .-usage
	.section	.rodata.str1.1
.LC50:
	.string	"%a %b %e %H:%M:%S %Z %Y"
.LC51:
	.string	"/usr/local/share/locale"
.LC52:
	.string	"--rfc-3339"
.LC53:
	.string	"--iso-8601"
.LC54:
	.string	"TZ=UTC0"
.LC55:
	.string	"David MacKenzie"
	.section	.rodata.str1.8
	.align 8
.LC56:
	.string	"multiple output formats specified"
	.align 8
.LC57:
	.string	"the options to specify dates for printing are mutually exclusive"
	.align 8
.LC58:
	.string	"the options to print and set the time may not be used together"
	.section	.rodata.str1.1
.LC59:
	.string	"extra operand %s"
	.section	.rodata.str1.8
	.align 8
.LC60:
	.string	"the argument %s lacks a leading '+';\nwhen using an option to specify date(s), any non-option\nargument must be a format string beginning with '+'"
	.section	.rodata.str1.1
.LC61:
	.string	"TZ"
.LC62:
	.string	"-"
.LC63:
	.string	"standard input"
.LC64:
	.string	"r"
.LC65:
	.string	"%s"
.LC66:
	.string	"invalid date %s"
.LC67:
	.string	"cannot set date"
	.section	.text.startup,"ax",@progbits
	.p2align 4
	.globl	main
	.type	main, @function
main:
.LVL128:
.LFB146:
	.loc 1 349 1 view -0
	.cfi_startproc
	.loc 1 349 1 is_stmt 0 view .LVU201
	endbr64
	pushq	%r15
	.cfi_def_cfa_offset 16
	.cfi_offset 15, -16
	.loc 1 354 8 view .LVU202
	xorl	%r15d, %r15d
	.loc 1 349 1 view .LVU203
	pushq	%r14
	.cfi_def_cfa_offset 24
	.cfi_offset 14, -24
	movl	%edi, %r14d
	pushq	%r13
	.cfi_def_cfa_offset 32
	.cfi_offset 13, -32
	movq	%rsi, %r13
	pushq	%r12
	.cfi_def_cfa_offset 40
	.cfi_offset 12, -40
.LBB133:
	.loc 1 375 7 view .LVU204
	leaq	rfc_email_format(%rip), %r12
.LBE133:
	.loc 1 349 1 view .LVU205
	pushq	%rbp
	.cfi_def_cfa_offset 48
	.cfi_offset 6, -48
	.loc 1 355 15 view .LVU206
	xorl	%ebp, %ebp
	.loc 1 349 1 view .LVU207
	pushq	%rbx
	.cfi_def_cfa_offset 56
	.cfi_offset 3, -56
	leaq	.L53(%rip), %rbx
	subq	$248, %rsp
	.cfi_def_cfa_offset 304
	.loc 1 363 3 view .LVU208
	movq	(%rsi), %rdi
.LVL129:
	.loc 1 349 1 view .LVU209
	movq	%fs:40, %rax
	movq	%rax, 232(%rsp)
	xorl	%eax, %eax
	.loc 1 350 3 is_stmt 1 view .LVU210
	.loc 1 351 3 view .LVU211
.LVL130:
	.loc 1 352 3 view .LVU212
	.loc 1 353 3 view .LVU213
	.loc 1 354 3 view .LVU214
	.loc 1 355 3 view .LVU215
	.loc 1 356 3 view .LVU216
	.loc 1 357 3 view .LVU217
	.loc 1 358 3 view .LVU218
	.loc 1 359 3 view .LVU219
	.loc 1 360 3 view .LVU220
	.loc 1 362 33 view .LVU221
	.loc 1 363 3 view .LVU222
	call	set_program_name@PLT
.LVL131:
	.loc 1 364 3 view .LVU223
	leaq	.LC2(%rip), %rsi
	movl	$6, %edi
	call	setlocale@PLT
.LVL132:
	.loc 1 365 3 view .LVU224
	leaq	.LC51(%rip), %rsi
	leaq	.LC36(%rip), %rdi
	call	bindtextdomain@PLT
.LVL133:
	.loc 1 366 3 view .LVU225
	leaq	.LC36(%rip), %rdi
	call	textdomain@PLT
.LVL134:
	.loc 1 368 3 view .LVU226
	movq	close_stdout@GOTPCREL(%rip), %rdi
	call	atexit@PLT
.LVL135:
	.loc 1 370 3 view .LVU227
	.loc 1 357 9 is_stmt 0 view .LVU228
	movq	$0, 24(%rsp)
	.loc 1 356 9 view .LVU229
	movq	$0, 8(%rsp)
	.loc 1 352 15 view .LVU230
	movq	$0, 32(%rsp)
	.loc 1 351 15 view .LVU231
	movq	$0, 16(%rsp)
.LVL136:
	.p2align 4,,10
	.p2align 3
.L47:
	.loc 1 370 9 is_stmt 1 view .LVU232
	.loc 1 370 18 is_stmt 0 view .LVU233
	xorl	%r8d, %r8d
	leaq	long_options(%rip), %rcx
	movq	%r13, %rsi
	movl	%r14d, %edi
	leaq	short_options(%rip), %rdx
	call	getopt_long@PLT
.LVL137:
	.loc 1 370 9 view .LVU234
	cmpl	$-1, %eax
	je	.L117
.LBB137:
	.loc 1 373 7 is_stmt 1 view .LVU235
.LVL138:
	.loc 1 375 7 view .LVU236
	cmpl	$129, %eax
	jg	.L116
	cmpl	$72, %eax
	jle	.L118
	subl	$73, %eax
.LVL139:
	.loc 1 375 7 is_stmt 0 view .LVU237
	cmpl	$56, %eax
	ja	.L116
	movslq	(%rbx,%rax,4), %rax
	addq	%rbx, %rax
	notrack jmp	*%rax
	.section	.rodata
	.align 4
	.align 4
.L53:
	.long	.L61-.L53
	.long	.L116-.L53
	.long	.L116-.L53
	.long	.L116-.L53
	.long	.L116-.L53
	.long	.L116-.L53
	.long	.L116-.L53
	.long	.L116-.L53
	.long	.L116-.L53
	.long	.L95-.L53
	.long	.L116-.L53
	.long	.L116-.L53
	.long	.L116-.L53
	.long	.L116-.L53
	.long	.L116-.L53
	.long	.L116-.L53
	.long	.L116-.L53
	.long	.L116-.L53
	.long	.L116-.L53
	.long	.L116-.L53
	.long	.L116-.L53
	.long	.L116-.L53
	.long	.L116-.L53
	.long	.L116-.L53
	.long	.L116-.L53
	.long	.L116-.L53
	.long	.L116-.L53
	.long	.L59-.L53
	.long	.L116-.L53
	.long	.L58-.L53
	.long	.L116-.L53
	.long	.L116-.L53
	.long	.L116-.L53
	.long	.L116-.L53
	.long	.L116-.L53
	.long	.L116-.L53
	.long	.L116-.L53
	.long	.L116-.L53
	.long	.L116-.L53
	.long	.L116-.L53
	.long	.L116-.L53
	.long	.L57-.L53
	.long	.L56-.L53
	.long	.L116-.L53
	.long	.L55-.L53
	.long	.L116-.L53
	.long	.L116-.L53
	.long	.L116-.L53
	.long	.L116-.L53
	.long	.L116-.L53
	.long	.L116-.L53
	.long	.L116-.L53
	.long	.L116-.L53
	.long	.L116-.L53
	.long	.L116-.L53
	.long	.L54-.L53
	.long	.L52-.L53
	.section	.text.startup
.L95:
	movq	%r12, %rax
.LVL140:
.L60:
	.loc 1 443 11 is_stmt 1 view .LVU238
	.loc 1 443 14 is_stmt 0 view .LVU239
	testq	%rbp, %rbp
	jne	.L119
	movq	%rax, %rbp
.LVL141:
	.loc 1 443 14 view .LVU240
	jmp	.L47
.LVL142:
.L61:
.LBB134:
	.loc 1 402 13 is_stmt 1 view .LVU241
	.loc 1 410 13 view .LVU242
	.loc 1 412 16 is_stmt 0 view .LVU243
	movq	optarg(%rip), %rsi
	.loc 1 413 16 view .LVU244
	xorl	%eax, %eax
	testq	%rsi, %rsi
	je	.L63
	.loc 1 412 18 discriminator 1 view .LVU245
	movq	argmatch_die(%rip), %r9
	movl	$4, %r8d
	leaq	time_spec(%rip), %rcx
	leaq	time_spec_string(%rip), %rdx
	leaq	.LC53(%rip), %rdi
	call	__xargmatch_internal@PLT
.LVL143:
	movq	%rax, %r8
	.loc 1 413 16 discriminator 1 view .LVU246
	leaq	time_spec(%rip), %rax
	movl	(%rax,%r8,4), %eax
.L63:
.LVL144:
	.loc 1 414 13 is_stmt 1 view .LVU247
	.loc 1 414 24 is_stmt 0 view .LVU248
	salq	$5, %rax
.LVL145:
	.loc 1 414 24 view .LVU249
	leaq	iso_8601_format.7610(%rip), %rcx
	addq	%rcx, %rax
.LVL146:
	.loc 1 415 13 is_stmt 1 view .LVU250
	jmp	.L60
.LVL147:
.L52:
	.loc 1 415 13 is_stmt 0 view .LVU251
.LBE134:
	.loc 1 381 11 is_stmt 1 view .LVU252
	.loc 1 381 32 is_stmt 0 view .LVU253
	orl	$1, parse_datetime_flags(%rip)
	.loc 1 382 11 is_stmt 1 view .LVU254
	.loc 1 441 7 view .LVU255
	jmp	.L47
.L56:
	.loc 1 424 11 view .LVU256
	.loc 1 424 23 is_stmt 0 view .LVU257
	movq	optarg(%rip), %rax
	.loc 1 425 20 view .LVU258
	movl	$1, %r15d
.LVL148:
	.loc 1 424 23 view .LVU259
	movq	%rax, 32(%rsp)
.LVL149:
	.loc 1 425 11 is_stmt 1 view .LVU260
	.loc 1 426 11 view .LVU261
	.loc 1 441 7 view .LVU262
	jmp	.L47
.LVL150:
.L57:
	.loc 1 418 11 view .LVU263
	.loc 1 418 21 is_stmt 0 view .LVU264
	movq	optarg(%rip), %rax
	movq	%rax, 24(%rsp)
.LVL151:
	.loc 1 419 11 is_stmt 1 view .LVU265
	.loc 1 441 7 view .LVU266
	jmp	.L47
.LVL152:
.L58:
	.loc 1 384 11 view .LVU267
	.loc 1 384 22 is_stmt 0 view .LVU268
	movq	optarg(%rip), %rax
	movq	%rax, 8(%rsp)
.LVL153:
	.loc 1 385 11 is_stmt 1 view .LVU269
	.loc 1 441 7 view .LVU270
	jmp	.L47
.LVL154:
.L59:
	.loc 1 378 11 view .LVU271
	.loc 1 378 19 is_stmt 0 view .LVU272
	movq	optarg(%rip), %rax
	movq	%rax, 16(%rsp)
	.loc 1 379 11 is_stmt 1 view .LVU273
	.loc 1 441 7 view .LVU274
	jmp	.L47
.LVL155:
.L54:
.LBB135:
	.loc 1 388 13 view .LVU275
	.loc 1 394 13 view .LVU276
	.loc 1 395 15 is_stmt 0 view .LVU277
	movq	argmatch_die(%rip), %r9
	movq	optarg(%rip), %rsi
	movl	$4, %r8d
	leaq	8+time_spec(%rip), %rcx
	leaq	16+time_spec_string(%rip), %rdx
	leaq	.LC52(%rip), %rdi
	call	__xargmatch_internal@PLT
.LVL156:
	.loc 1 397 24 view .LVU278
	leaq	rfc_3339_format.7607(%rip), %rcx
	.loc 1 395 15 view .LVU279
	movq	%rax, %r8
.LVL157:
	.loc 1 397 13 is_stmt 1 view .LVU280
	.loc 1 394 28 is_stmt 0 view .LVU281
	leaq	time_spec(%rip), %rax
.LVL158:
	.loc 1 397 24 view .LVU282
	movl	8(%rax,%r8,4), %eax
	salq	$5, %rax
	addq	%rcx, %rax
.LVL159:
	.loc 1 398 13 is_stmt 1 view .LVU283
	jmp	.L60
.LVL160:
.L55:
	.loc 1 398 13 is_stmt 0 view .LVU284
.LBE135:
	.loc 1 431 11 is_stmt 1 view .LVU285
	.loc 1 431 11 is_stmt 0 view .LVU286
.LBE137:
	.loc 3 700 3 is_stmt 1 view .LVU287
.LBB138:
	.loc 1 431 15 is_stmt 0 view .LVU288
	leaq	.LC54(%rip), %rdi
	call	putenv@PLT
.LVL161:
	.loc 1 431 14 view .LVU289
	testl	%eax, %eax
	je	.L47
	.loc 1 432 13 is_stmt 1 view .LVU290
	call	xalloc_die@PLT
.LVL162:
	.p2align 4,,10
	.p2align 3
.L118:
	.loc 1 375 7 is_stmt 0 view .LVU291
	cmpl	$-131, %eax
	jne	.L120
	.loc 1 435 9 is_stmt 1 view .LVU292
	.loc 1 435 30 view .LVU293
	.loc 1 436 9 view .LVU294
	movq	stdout(%rip), %rdi
	movq	Version(%rip), %rcx
	xorl	%eax, %eax
.LVL163:
	.loc 1 436 9 is_stmt 0 view .LVU295
	xorl	%r9d, %r9d
	leaq	.LC55(%rip), %r8
	leaq	.LC45(%rip), %rdx
	leaq	.LC4(%rip), %rsi
	call	version_etc@PLT
.LVL164:
	.loc 1 436 9 is_stmt 1 view .LVU296
	xorl	%edi, %edi
	call	exit@PLT
.LVL165:
.L120:
	.loc 1 375 7 is_stmt 0 view .LVU297
	cmpl	$-130, %eax
	jne	.L116
	.loc 1 435 9 is_stmt 1 view .LVU298
	xorl	%edi, %edi
	call	usage
.LVL166:
.L117:
	.loc 1 435 9 is_stmt 0 view .LVU299
.LBE138:
	.loc 1 449 3 is_stmt 1 view .LVU300
	.loc 1 449 41 is_stmt 0 view .LVU301
	xorl	%edx, %edx
	cmpq	$0, 16(%rsp)
	setne	%dl
	.loc 1 450 46 view .LVU302
	xorl	%eax, %eax
.LVL167:
	.loc 1 450 46 view .LVU303
	cmpq	$0, 8(%rsp)
	setne	%al
	.loc 1 450 28 view .LVU304
	addl	%eax, %edx
	.loc 1 451 45 view .LVU305
	xorl	%eax, %eax
	cmpq	$0, 24(%rsp)
	setne	%al
	.loc 1 449 25 view .LVU306
	addl	%eax, %edx
.LVL168:
	.loc 1 453 3 is_stmt 1 view .LVU307
	.loc 1 453 6 is_stmt 0 view .LVU308
	cmpl	$1, %edx
	jg	.L121
	.loc 1 460 3 is_stmt 1 view .LVU309
	.loc 1 460 16 is_stmt 0 view .LVU310
	movl	%edx, %ecx
	andl	$1, %ecx
	.loc 1 460 6 view .LVU311
	testb	%dl, %r15b
	jne	.L122
	.loc 1 467 3 is_stmt 1 view .LVU312
	.loc 1 467 14 is_stmt 0 view .LVU313
	movslq	optind(%rip), %rax
	.loc 1 467 6 view .LVU314
	cmpl	%r14d, %eax
	jge	.L67
	.loc 1 469 7 is_stmt 1 view .LVU315
	.loc 1 469 18 is_stmt 0 view .LVU316
	leal	1(%rax), %esi
	.loc 1 469 10 view .LVU317
	cmpl	%r14d, %esi
	jl	.L123
	.loc 1 475 7 is_stmt 1 view .LVU318
	.loc 1 475 15 is_stmt 0 view .LVU319
	movq	0(%r13,%rax,8), %rdi
	.loc 1 475 10 view .LVU320
	cmpb	$43, (%rdi)
	je	.L124
	.loc 1 481 12 is_stmt 1 view .LVU321
	.loc 1 481 15 is_stmt 0 view .LVU322
	testb	%cl, %cl
	jne	.L98
	testb	%r15b, %r15b
	jne	.L98
.L67:
	.loc 1 492 3 is_stmt 1 view .LVU323
	.loc 1 492 6 is_stmt 0 view .LVU324
	testq	%rbp, %rbp
	je	.L125
.LVL169:
.L71:
	.loc 1 508 26 view .LVU325
	leaq	.LC61(%rip), %rdi
	movl	%edx, 44(%rsp)
.LVL170:
	.loc 1 508 3 is_stmt 1 view .LVU326
	.loc 1 508 26 is_stmt 0 view .LVU327
	call	getenv@PLT
.LVL171:
	.loc 1 509 19 view .LVU328
	movq	%rax, %rdi
	.loc 1 508 26 view .LVU329
	movq	%rax, %rbx
.LVL172:
	.loc 1 509 3 is_stmt 1 view .LVU330
	.loc 1 509 19 is_stmt 0 view .LVU331
	call	tzalloc@PLT
.LVL173:
	.loc 1 511 6 view .LVU332
	movq	8(%rsp), %rdi
	movl	44(%rsp), %edx
	.loc 1 509 19 view .LVU333
	movq	%rax, %r12
.LVL174:
	.loc 1 511 3 is_stmt 1 view .LVU334
	.loc 1 511 6 is_stmt 0 view .LVU335
	testq	%rdi, %rdi
	je	.L73
	.loc 1 512 5 is_stmt 1 view .LVU336
.LVL175:
.LBB139:
.LBI139:
	.loc 1 290 1 view .LVU337
.LBB140:
	.loc 1 293 3 view .LVU338
	.loc 1 294 3 view .LVU339
	.loc 1 295 3 view .LVU340
	.loc 1 296 3 view .LVU341
	.loc 1 297 3 view .LVU342
	.loc 1 299 3 view .LVU343
	.loc 1 299 7 is_stmt 0 view .LVU344
	leaq	.LC62(%rip), %rsi
	call	strcmp@PLT
.LVL176:
	.loc 1 299 6 view .LVU345
	testl	%eax, %eax
	je	.L126
	.loc 1 306 7 is_stmt 1 view .LVU346
	.loc 1 306 19 is_stmt 0 view .LVU347
	movq	8(%rsp), %rdi
	leaq	.LC64(%rip), %rsi
	call	fopen@PLT
.LVL177:
	movq	%rax, %r13
.LVL178:
	.loc 1 307 7 is_stmt 1 view .LVU348
	.loc 1 307 10 is_stmt 0 view .LVU349
	testq	%rax, %rax
	je	.L127
.LVL179:
.L75:
	.loc 1 313 3 is_stmt 1 view .LVU350
	leaq	48(%rsp), %rax
	.loc 1 315 6 is_stmt 0 view .LVU351
	movb	$1, 16(%rsp)
	.loc 1 315 6 view .LVU352
	leaq	56(%rsp), %r15
.LVL180:
	.loc 1 315 6 view .LVU353
	movq	%rax, 24(%rsp)
.LVL181:
.LBB141:
	.loc 1 325 13 view .LVU354
	leaq	64(%rsp), %rax
.LBE141:
	.loc 1 313 8 view .LVU355
	movq	$0, 48(%rsp)
	.loc 1 314 3 is_stmt 1 view .LVU356
	.loc 1 314 10 is_stmt 0 view .LVU357
	movq	$0, 56(%rsp)
	.loc 1 315 3 is_stmt 1 view .LVU358
.LVL182:
.LBB144:
	.loc 1 325 13 is_stmt 0 view .LVU359
	movq	%rax, 32(%rsp)
.LVL183:
	.p2align 4,,10
	.p2align 3
.L76:
	.loc 1 325 13 view .LVU360
.LBE144:
	.loc 1 316 3 is_stmt 1 view .LVU361
.LBB145:
	.loc 1 318 7 view .LVU362
.LBB142:
.LBI142:
	.loc 2 118 1 view .LVU363
.LBB143:
	.loc 2 120 3 view .LVU364
	.loc 2 120 10 is_stmt 0 view .LVU365
	movq	24(%rsp), %rdi
	movq	%r13, %rcx
	movl	$10, %edx
	movq	%r15, %rsi
	call	__getdelim@PLT
.LVL184:
	movq	%rax, %r14
.LVL185:
	.loc 2 120 10 view .LVU366
.LBE143:
.LBE142:
	.loc 1 319 7 is_stmt 1 view .LVU367
	.loc 1 319 10 is_stmt 0 view .LVU368
	testq	%rax, %rax
	js	.L77
	.loc 1 325 7 is_stmt 1 view .LVU369
	.loc 1 325 13 is_stmt 0 view .LVU370
	movl	parse_datetime_flags(%rip), %ecx
	movq	48(%rsp), %rsi
	xorl	%edx, %edx
	movq	%rbx, %r9
	movq	32(%rsp), %rdi
	movq	%r12, %r8
	call	parse_datetime2@PLT
.LVL186:
	.loc 1 325 10 view .LVU371
	testb	%al, %al
	jne	.L78
	.loc 1 328 11 is_stmt 1 view .LVU372
	.loc 1 328 19 is_stmt 0 view .LVU373
	movq	48(%rsp), %rdi
	leaq	-1(%rdi,%r14), %rax
	.loc 1 328 14 view .LVU374
	cmpb	$10, (%rax)
	jne	.L79
	.loc 1 329 13 is_stmt 1 view .LVU375
	.loc 1 329 35 is_stmt 0 view .LVU376
	movb	$0, (%rax)
	movq	48(%rsp), %rdi
.L79:
	.loc 1 330 11 is_stmt 1 view .LVU377
	call	quote@PLT
.LVL187:
	.loc 1 330 24 is_stmt 0 view .LVU378
	movl	$5, %edx
	leaq	.LC66(%rip), %rsi
	xorl	%edi, %edi
	.loc 1 330 11 view .LVU379
	movq	%rax, %r14
.LVL188:
	.loc 1 330 24 view .LVU380
	call	dcgettext@PLT
.LVL189:
	.loc 1 330 11 view .LVU381
	movq	%r14, %rcx
	xorl	%esi, %esi
	xorl	%edi, %edi
	.loc 1 330 24 view .LVU382
	movq	%rax, %rdx
	.loc 1 330 11 view .LVU383
	xorl	%eax, %eax
	call	error@PLT
.LVL190:
	.loc 1 331 11 is_stmt 1 view .LVU384
	.loc 1 331 14 is_stmt 0 view .LVU385
	movb	$0, 16(%rsp)
	jmp	.L76
.LVL191:
.L73:
	.loc 1 331 14 view .LVU386
.LBE145:
.LBE140:
.LBE139:
.LBB153:
	.loc 1 515 7 is_stmt 1 view .LVU387
	.loc 1 516 7 view .LVU388
	.loc 1 518 7 view .LVU389
	.loc 1 518 37 is_stmt 0 view .LVU390
	movl	%r15d, %eax
.LVL192:
	.loc 1 518 11 view .LVU391
	xorl	$1, %edx
	.loc 1 518 37 view .LVU392
	xorl	$1, %eax
	.loc 1 518 10 view .LVU393
	andb	%dl, %al
	movl	%eax, %r8d
	jne	.L128
	.loc 1 541 11 is_stmt 1 view .LVU394
	.loc 1 541 14 is_stmt 0 view .LVU395
	movq	24(%rsp), %rsi
	testq	%rsi, %rsi
	je	.L89
	.loc 1 543 15 is_stmt 1 view .LVU396
.LVL193:
.LBB154:
.LBI154:
	.file 5 "/usr/include/x86_64-linux-gnu/sys/stat.h"
	.loc 5 453 1 view .LVU397
.LBB155:
	.loc 5 455 3 view .LVU398
	.loc 5 455 10 is_stmt 0 view .LVU399
	leaq	80(%rsp), %rdx
.LVL194:
	.loc 5 455 10 view .LVU400
	movl	$1, %edi
	call	__xstat@PLT
.LVL195:
	.loc 5 455 10 view .LVU401
.LBE155:
.LBE154:
	.loc 1 543 18 view .LVU402
	testl	%eax, %eax
	jne	.L129
	.loc 1 545 15 is_stmt 1 view .LVU403
.LVL196:
	.loc 1 545 15 is_stmt 0 view .LVU404
.LBE153:
	.file 6 "./lib/stat-time.h"
	.loc 6 149 3 is_stmt 1 view .LVU405
.LBB158:
	.loc 1 545 22 is_stmt 0 view .LVU406
	movq	168(%rsp), %rax
	movq	%rax, 64(%rsp)
	movq	176(%rsp), %rax
	movq	%rax, 72(%rsp)
	.loc 1 557 7 is_stmt 1 view .LVU407
.LVL197:
.L91:
	.loc 1 560 7 view .LVU408
	leaq	64(%rsp), %r13
	.loc 1 560 10 is_stmt 0 view .LVU409
	testb	%r15b, %r15b
	jne	.L93
.LVL198:
.L87:
	.loc 1 516 10 view .LVU410
	movl	$1, %r8d
.LVL199:
.L88:
	.loc 1 571 13 view .LVU411
	movq	64(%rsp), %rsi
	movq	72(%rsp), %rdx
	movq	%r12, %rcx
	movq	%rbp, %rdi
	movb	%r8b, 8(%rsp)
.LVL200:
	.loc 1 571 7 is_stmt 1 view .LVU412
	.loc 1 571 13 is_stmt 0 view .LVU413
	call	show_date
.LVL201:
	.loc 1 571 13 view .LVU414
	movzbl	8(%rsp), %r8d
	andl	%eax, %r8d
	movb	%r8b, 16(%rsp)
.LVL202:
.L82:
	.loc 1 571 13 view .LVU415
.LBE158:
	.loc 1 574 3 is_stmt 1 view .LVU416
	movq	%r12, %rdi
	call	tzfree@PLT
.LVL203:
	.loc 1 576 3 view .LVU417
	.loc 1 576 28 is_stmt 0 view .LVU418
	movzbl	16(%rsp), %eax
	xorl	$1, %eax
	.loc 1 577 1 view .LVU419
	movq	232(%rsp), %rdx
	xorq	%fs:40, %rdx
	.loc 1 576 28 view .LVU420
	movzbl	%al, %eax
	.loc 1 577 1 view .LVU421
	jne	.L130
	addq	$248, %rsp
	.cfi_remember_state
	.cfi_def_cfa_offset 56
	popq	%rbx
	.cfi_def_cfa_offset 48
.LVL204:
	.loc 1 577 1 view .LVU422
	popq	%rbp
	.cfi_def_cfa_offset 40
.LVL205:
	.loc 1 577 1 view .LVU423
	popq	%r12
	.cfi_def_cfa_offset 32
.LVL206:
	.loc 1 577 1 view .LVU424
	popq	%r13
	.cfi_def_cfa_offset 24
	popq	%r14
	.cfi_def_cfa_offset 16
	popq	%r15
	.cfi_def_cfa_offset 8
	ret
.LVL207:
.L123:
	.cfi_restore_state
	.loc 1 471 11 is_stmt 1 view .LVU425
	movq	8(%r13,%rax,8), %rdi
	call	quote@PLT
.LVL208:
	.loc 1 471 24 is_stmt 0 view .LVU426
	movl	$5, %edx
	leaq	.LC59(%rip), %rsi
	.loc 1 471 11 view .LVU427
	movq	%rax, %r12
.L115:
	.loc 1 484 18 view .LVU428
	xorl	%edi, %edi
	call	dcgettext@PLT
.LVL209:
	.loc 1 483 11 view .LVU429
	movq	%r12, %rcx
	xorl	%esi, %esi
	xorl	%edi, %edi
	.loc 1 484 18 view .LVU430
	movq	%rax, %rdx
	.loc 1 483 11 view .LVU431
	xorl	%eax, %eax
	call	error@PLT
.LVL210:
.L116:
	.loc 1 488 11 is_stmt 1 view .LVU432
	movl	$1, %edi
	call	usage
.LVL211:
.L126:
.LBB159:
.LBB149:
	.loc 1 301 7 view .LVU433
	.loc 1 301 24 is_stmt 0 view .LVU434
	movl	$5, %edx
	leaq	.LC63(%rip), %rsi
	xorl	%edi, %edi
	call	dcgettext@PLT
.LVL212:
	.loc 1 302 17 view .LVU435
	movq	stdin(%rip), %r13
.LVL213:
	.loc 1 301 24 view .LVU436
	movq	%rax, 8(%rsp)
.LVL214:
	.loc 1 302 7 is_stmt 1 view .LVU437
	.loc 1 302 7 is_stmt 0 view .LVU438
	jmp	.L75
.LVL215:
.L128:
	.loc 1 302 7 view .LVU439
.LBE149:
.LBE159:
.LBB160:
	.loc 1 520 11 is_stmt 1 view .LVU440
	.loc 1 520 22 is_stmt 0 view .LVU441
	movslq	optind(%rip), %rax
	.loc 1 520 14 view .LVU442
	cmpl	%r14d, %eax
	jge	.L84
	.loc 1 524 15 is_stmt 1 view .LVU443
.LVL216:
	.loc 1 525 15 view .LVU444
	.loc 1 525 23 is_stmt 0 view .LVU445
	movq	0(%r13,%rax,8), %rax
.LVL217:
	.loc 1 526 28 view .LVU446
	leaq	64(%rsp), %r13
.LVL218:
	.loc 1 526 28 view .LVU447
	movl	$7, %edx
	movq	%r13, %rdi
	movq	%rax, %rsi
	.loc 1 525 23 view .LVU448
	movq	%rax, 16(%rsp)
.LVL219:
	.loc 1 526 15 is_stmt 1 view .LVU449
	.loc 1 526 28 is_stmt 0 view .LVU450
	call	posixtime@PLT
.LVL220:
	.loc 1 530 15 is_stmt 1 view .LVU451
	.loc 1 530 28 is_stmt 0 view .LVU452
	movq	$0, 72(%rsp)
	.loc 1 557 7 is_stmt 1 view .LVU453
	.loc 1 557 10 is_stmt 0 view .LVU454
	testb	%al, %al
	je	.L85
.LVL221:
.L93:
	.loc 1 564 11 is_stmt 1 view .LVU455
	.loc 1 564 15 is_stmt 0 view .LVU456
	movq	%r13, %rdi
	call	settime@PLT
.LVL222:
	.loc 1 564 14 view .LVU457
	testl	%eax, %eax
	je	.L87
	.loc 1 566 15 is_stmt 1 view .LVU458
	.loc 1 566 32 is_stmt 0 view .LVU459
	movl	$5, %edx
	leaq	.LC67(%rip), %rsi
	xorl	%edi, %edi
	call	dcgettext@PLT
.LVL223:
	movq	%rax, %r13
	.loc 1 566 25 view .LVU460
	call	__errno_location@PLT
.LVL224:
	.loc 1 566 15 view .LVU461
	movq	%r13, %rdx
	xorl	%edi, %edi
	movl	(%rax), %esi
	xorl	%eax, %eax
	call	error@PLT
.LVL225:
	.loc 1 567 15 is_stmt 1 view .LVU462
	.loc 1 567 18 is_stmt 0 view .LVU463
	xorl	%r8d, %r8d
	jmp	.L88
.LVL226:
.L78:
	.loc 1 567 18 view .LVU464
.LBE160:
.LBB161:
.LBB150:
.LBB146:
	.loc 1 335 11 is_stmt 1 view .LVU465
	.loc 1 335 17 is_stmt 0 view .LVU466
	movq	64(%rsp), %rsi
	movq	72(%rsp), %rdx
	movq	%r12, %rcx
	movq	%rbp, %rdi
	call	show_date
.LVL227:
	.loc 1 335 17 view .LVU467
	andb	%al, 16(%rsp)
.LVL228:
	.loc 1 335 17 view .LVU468
	jmp	.L76
.LVL229:
.L77:
	.loc 1 335 17 view .LVU469
.LBE146:
	.loc 1 339 3 is_stmt 1 view .LVU470
	.loc 1 339 7 is_stmt 0 view .LVU471
	movq	%r13, %rdi
	call	rpl_fclose@PLT
.LVL230:
	.loc 1 339 6 view .LVU472
	addl	$1, %eax
	je	.L131
	.loc 1 342 3 is_stmt 1 view .LVU473
	movq	48(%rsp), %rdi
	call	free@PLT
.LVL231:
	.loc 1 344 3 view .LVU474
	.loc 1 344 3 is_stmt 0 view .LVU475
.LBE150:
.LBE161:
	jmp	.L82
.LVL232:
.L125:
	.loc 1 494 16 view .LVU476
	movl	$131180, %edi
	movl	%edx, 44(%rsp)
	.loc 1 494 7 is_stmt 1 view .LVU477
	.loc 1 494 16 is_stmt 0 view .LVU478
	call	nl_langinfo@PLT
.LVL233:
	.loc 1 495 10 view .LVU479
	movl	44(%rsp), %edx
	cmpb	$0, (%rax)
	.loc 1 494 16 view .LVU480
	movq	%rax, %rbp
.LVL234:
	.loc 1 495 7 is_stmt 1 view .LVU481
	.loc 1 495 10 is_stmt 0 view .LVU482
	jne	.L71
	.loc 1 504 18 view .LVU483
	leaq	.LC50(%rip), %rbp
	jmp	.L71
.LVL235:
.L124:
	.loc 1 477 11 is_stmt 1 view .LVU484
	.loc 1 477 14 is_stmt 0 view .LVU485
	testq	%rbp, %rbp
	jne	.L132
	.loc 1 479 11 is_stmt 1 view .LVU486
	.loc 1 479 31 is_stmt 0 view .LVU487
	movl	%esi, optind(%rip)
	.loc 1 479 18 view .LVU488
	leaq	1(%rdi), %rbp
.LVL236:
	.loc 1 492 3 is_stmt 1 view .LVU489
	jmp	.L71
.LVL237:
.L84:
.LBB162:
	.loc 1 535 15 is_stmt 0 view .LVU490
	leaq	64(%rsp), %rdi
	movb	%r8b, 8(%rsp)
.LVL238:
	.loc 1 535 15 is_stmt 1 view .LVU491
	call	gettime@PLT
.LVL239:
	.loc 1 557 7 view .LVU492
	movzbl	8(%rsp), %r8d
	jmp	.L88
.LVL240:
.L89:
	.loc 1 549 15 view .LVU493
	.loc 1 549 18 is_stmt 0 view .LVU494
	movq	32(%rsp), %rax
	.loc 1 551 28 view .LVU495
	leaq	64(%rsp), %r13
.LVL241:
	.loc 1 551 28 view .LVU496
	movq	%rbx, %r9
	movq	%r12, %r8
	movl	parse_datetime_flags(%rip), %ecx
	movq	%r13, %rdi
	.loc 1 549 18 view .LVU497
	testq	%rax, %rax
	cmove	16(%rsp), %rax
	.loc 1 551 28 view .LVU498
	xorl	%edx, %edx
	movq	%rax, %rsi
	.loc 1 549 18 view .LVU499
	movq	%rax, 16(%rsp)
.LVL242:
	.loc 1 551 15 is_stmt 1 view .LVU500
	.loc 1 551 28 is_stmt 0 view .LVU501
	call	parse_datetime2@PLT
.LVL243:
	.loc 1 557 7 is_stmt 1 view .LVU502
	.loc 1 557 10 is_stmt 0 view .LVU503
	testb	%al, %al
	jne	.L91
.LVL244:
.L85:
.LBB156:
	.loc 1 558 9 is_stmt 1 view .LVU504
	movq	16(%rsp), %rdi
	call	quote@PLT
.LVL245:
	.loc 1 558 9 is_stmt 0 view .LVU505
	movl	$5, %edx
	leaq	.LC66(%rip), %rsi
	xorl	%edi, %edi
	movq	%rax, %r12
.LVL246:
	.loc 1 558 9 view .LVU506
	call	dcgettext@PLT
.LVL247:
	movq	%r12, %rcx
	xorl	%esi, %esi
	movl	$1, %edi
	movq	%rax, %rdx
	xorl	%eax, %eax
	call	error@PLT
.LVL248:
.L119:
	.loc 1 558 9 view .LVU507
.LBE156:
.LBE162:
.LBB163:
.LBB136:
	.loc 1 444 13 is_stmt 1 view .LVU508
	movl	$5, %edx
	leaq	.LC56(%rip), %rsi
	xorl	%edi, %edi
	call	dcgettext@PLT
.LVL249:
	.loc 1 444 13 is_stmt 0 view .LVU509
	xorl	%esi, %esi
	movl	$1, %edi
	movq	%rax, %rdx
	xorl	%eax, %eax
	call	error@PLT
.LVL250:
.L132:
	.loc 1 444 13 view .LVU510
.LBE136:
.LBE163:
.LBB164:
	.loc 1 478 13 is_stmt 1 view .LVU511
	movl	$5, %edx
.LVL251:
	.loc 1 478 13 is_stmt 0 view .LVU512
	leaq	.LC56(%rip), %rsi
	xorl	%edi, %edi
	call	dcgettext@PLT
.LVL252:
	xorl	%esi, %esi
	movl	$1, %edi
	movq	%rax, %rdx
	xorl	%eax, %eax
	call	error@PLT
.LVL253:
.L129:
	.loc 1 478 13 view .LVU513
.LBE164:
.LBB165:
.LBB157:
	.loc 1 544 17 is_stmt 1 view .LVU514
	movq	24(%rsp), %rdx
	movl	$3, %esi
	xorl	%edi, %edi
	call	quotearg_n_style_colon@PLT
.LVL254:
	movq	%rax, %r12
.LVL255:
	.loc 1 544 17 is_stmt 0 view .LVU515
	call	__errno_location@PLT
.LVL256:
	movq	%r12, %rcx
	movl	$1, %edi
	leaq	.LC65(%rip), %rdx
	movl	(%rax), %esi
	xorl	%eax, %eax
	call	error@PLT
.LVL257:
.L127:
	.loc 1 544 17 view .LVU516
.LBE157:
.LBE165:
.LBB166:
.LBB151:
.LBB147:
	.loc 1 309 11 is_stmt 1 view .LVU517
	movq	8(%rsp), %rdx
	movl	$3, %esi
	xorl	%edi, %edi
	call	quotearg_n_style_colon@PLT
.LVL258:
	.loc 1 309 11 is_stmt 0 view .LVU518
	movq	%rax, %r12
.LVL259:
	.loc 1 309 11 view .LVU519
	call	__errno_location@PLT
.LVL260:
	movq	%r12, %rcx
	movl	$1, %edi
	leaq	.LC65(%rip), %rdx
	movl	(%rax), %esi
	xorl	%eax, %eax
	call	error@PLT
.LVL261:
.L130:
	.loc 1 309 11 view .LVU520
.LBE147:
.LBE151:
.LBE166:
	.loc 1 577 1 view .LVU521
	call	__stack_chk_fail@PLT
.LVL262:
.L98:
	.loc 1 483 11 is_stmt 1 view .LVU522
	call	quote@PLT
.LVL263:
	.loc 1 484 18 is_stmt 0 view .LVU523
	movl	$5, %edx
	leaq	.LC60(%rip), %rsi
	.loc 1 483 11 view .LVU524
	movq	%rax, %r12
	jmp	.L115
.LVL264:
.L131:
.LBB167:
.LBB152:
.LBB148:
	.loc 1 340 5 is_stmt 1 view .LVU525
	movq	8(%rsp), %rdx
	movl	$3, %esi
	xorl	%edi, %edi
	call	quotearg_n_style_colon@PLT
.LVL265:
	movq	%rax, %r12
.LVL266:
	.loc 1 340 5 is_stmt 0 view .LVU526
	call	__errno_location@PLT
.LVL267:
	movq	%r12, %rcx
	movl	$1, %edi
	leaq	.LC65(%rip), %rdx
	movl	(%rax), %esi
	xorl	%eax, %eax
	call	error@PLT
.LVL268:
.L122:
	.loc 1 340 5 view .LVU527
.LBE148:
.LBE152:
.LBE167:
	.loc 1 462 7 is_stmt 1 view .LVU528
	.loc 1 463 11 is_stmt 0 view .LVU529
	movl	$5, %edx
.LVL269:
	.loc 1 463 11 view .LVU530
	leaq	.LC58(%rip), %rsi
.L114:
	.loc 1 456 9 view .LVU531
	xorl	%edi, %edi
	call	dcgettext@PLT
.LVL270:
	.loc 1 455 7 view .LVU532
	xorl	%esi, %esi
	xorl	%edi, %edi
	.loc 1 456 9 view .LVU533
	movq	%rax, %rdx
	.loc 1 455 7 view .LVU534
	xorl	%eax, %eax
	call	error@PLT
.LVL271:
	.loc 1 457 7 is_stmt 1 view .LVU535
	jmp	.L116
.LVL272:
.L121:
	.loc 1 455 7 view .LVU536
	.loc 1 456 9 is_stmt 0 view .LVU537
	movl	$5, %edx
.LVL273:
	.loc 1 456 9 view .LVU538
	leaq	.LC57(%rip), %rsi
	jmp	.L114
	.cfi_endproc
.LFE146:
	.size	main, .-main
	.section	.rodata
	.align 32
	.type	iso_8601_format.7610, @object
	.size	iso_8601_format.7610, 160
iso_8601_format.7610:
	.string	"%Y-%m-%d"
	.zero	23
	.string	"%Y-%m-%dT%H:%M:%S%:z"
	.zero	11
	.string	"%Y-%m-%dT%H:%M:%S,%N%:z"
	.zero	8
	.string	"%Y-%m-%dT%H%:z"
	.zero	17
	.string	"%Y-%m-%dT%H:%M%:z"
	.zero	14
	.align 32
	.type	rfc_3339_format.7607, @object
	.size	rfc_3339_format.7607, 96
rfc_3339_format.7607:
	.string	"%Y-%m-%d"
	.zero	23
	.string	"%Y-%m-%d %H:%M:%S%:z"
	.zero	11
	.string	"%Y-%m-%d %H:%M:%S.%N%:z"
	.zero	8
	.local	parse_datetime_flags
	.comm	parse_datetime_flags,4,4
	.section	.rodata.str1.1
.LC68:
	.string	"debug"
.LC69:
	.string	"file"
.LC70:
	.string	"iso-8601"
.LC71:
	.string	"reference"
.LC72:
	.string	"rfc-email"
.LC73:
	.string	"rfc-822"
.LC74:
	.string	"rfc-2822"
.LC75:
	.string	"rfc-3339"
.LC76:
	.string	"set"
.LC77:
	.string	"uct"
.LC78:
	.string	"utc"
.LC79:
	.string	"universal"
.LC80:
	.string	"help"
.LC81:
	.string	"version"
	.section	.data.rel.ro.local,"aw"
	.align 32
	.type	long_options, @object
	.size	long_options, 512
long_options:
	.quad	.LC4
	.long	1
	.zero	4
	.quad	0
	.long	100
	.zero	4
	.quad	.LC68
	.long	0
	.zero	4
	.quad	0
	.long	129
	.zero	4
	.quad	.LC69
	.long	1
	.zero	4
	.quad	0
	.long	102
	.zero	4
	.quad	.LC70
	.long	2
	.zero	4
	.quad	0
	.long	73
	.zero	4
	.quad	.LC71
	.long	1
	.zero	4
	.quad	0
	.long	114
	.zero	4
	.quad	.LC72
	.long	0
	.zero	4
	.quad	0
	.long	82
	.zero	4
	.quad	.LC73
	.long	0
	.zero	4
	.quad	0
	.long	82
	.zero	4
	.quad	.LC74
	.long	0
	.zero	4
	.quad	0
	.long	82
	.zero	4
	.quad	.LC75
	.long	1
	.zero	4
	.quad	0
	.long	128
	.zero	4
	.quad	.LC76
	.long	1
	.zero	4
	.quad	0
	.long	115
	.zero	4
	.quad	.LC77
	.long	0
	.zero	4
	.quad	0
	.long	117
	.zero	4
	.quad	.LC78
	.long	0
	.zero	4
	.quad	0
	.long	117
	.zero	4
	.quad	.LC79
	.long	0
	.zero	4
	.quad	0
	.long	117
	.zero	4
	.quad	.LC80
	.long	0
	.zero	4
	.quad	0
	.long	-130
	.zero	4
	.quad	.LC81
	.long	0
	.zero	4
	.quad	0
	.long	-131
	.zero	4
	.quad	0
	.long	0
	.zero	4
	.quad	0
	.long	0
	.zero	4
	.section	.rodata
	.align 8
	.type	short_options, @object
	.size	short_options, 14
short_options:
	.string	"d:f:I::r:Rs:u"
	.align 16
	.type	rfc_email_format, @object
	.size	rfc_email_format, 25
rfc_email_format:
	.string	"%a, %d %b %Y %H:%M:%S %z"
	.align 16
	.type	time_spec, @object
	.size	time_spec, 20
time_spec:
	.long	3
	.long	4
	.long	0
	.long	1
	.long	2
	.section	.rodata.str1.1
.LC82:
	.string	"hours"
.LC83:
	.string	"minutes"
.LC84:
	.string	"seconds"
.LC85:
	.string	"ns"
	.section	.data.rel.ro.local
	.align 32
	.type	time_spec_string, @object
	.size	time_spec_string, 48
time_spec_string:
	.quad	.LC82
	.quad	.LC83
	.quad	.LC4
	.quad	.LC84
	.quad	.LC85
	.quad	0
	.text
.Letext0:
	.file 7 "/usr/lib/gcc/x86_64-linux-gnu/9/include/stddef.h"
	.file 8 "/usr/include/x86_64-linux-gnu/bits/types.h"
	.file 9 "/usr/include/x86_64-linux-gnu/bits/types/struct_FILE.h"
	.file 10 "/usr/include/x86_64-linux-gnu/bits/types/FILE.h"
	.file 11 "/usr/include/stdio.h"
	.file 12 "/usr/include/x86_64-linux-gnu/bits/sys_errlist.h"
	.file 13 "/usr/include/x86_64-linux-gnu/bits/types/time_t.h"
	.file 14 "/usr/include/x86_64-linux-gnu/bits/types/struct_timespec.h"
	.file 15 "./lib/sys/select.h"
	.file 16 "/usr/include/x86_64-linux-gnu/bits/getopt_core.h"
	.file 17 "/usr/include/x86_64-linux-gnu/bits/getopt_ext.h"
	.file 18 "/usr/include/x86_64-linux-gnu/bits/types/struct_tm.h"
	.file 19 "/usr/include/time.h"
	.file 20 "./lib/time.h"
	.file 21 "/usr/include/x86_64-linux-gnu/bits/stat.h"
	.file 22 "/usr/include/signal.h"
	.file 23 "/usr/include/unistd.h"
	.file 24 "/usr/include/errno.h"
	.file 25 "src/version.h"
	.file 26 "./lib/exitfail.h"
	.file 27 "/usr/include/stdint.h"
	.file 28 "/usr/include/langinfo.h"
	.file 29 "./lib/timespec.h"
	.file 30 "./lib/version-etc.h"
	.file 31 "./lib/progname.h"
	.file 32 "./lib/quotearg.h"
	.file 33 "./lib/quote.h"
	.file 34 "./lib/argmatch.h"
	.file 35 "./lib/error.h"
	.file 36 "./lib/inttostr.h"
	.file 37 "/usr/include/libintl.h"
	.file 38 "./lib/fprintftime.h"
	.file 39 "/usr/include/locale.h"
	.file 40 "/usr/include/stdlib.h"
	.file 41 "./lib/xalloc.h"
	.file 42 "./lib/posixtm.h"
	.file 43 "./lib/parse-datetime.h"
	.file 44 "/usr/include/string.h"
	.file 45 "./lib/stdio.h"
	.section	.note.GNU-stack,"",@progbits
	.section	.note.gnu.property,"a"
	.align 8
	.long	 1f - 0f
	.long	 4f - 1f
	.long	 5
0:
	.string	 "GNU"
1:
	.align 8
	.long	 0xc0000002
	.long	 3f - 2f
2:
	.long	 0x3
3:
	.align 8
4:
