	.file	"dd.c"
	.text
.Ltext0:
	.p2align 4
	.type	interrupt_handler, @function
interrupt_handler:
.LVL0:
.LFB151:
	.file 1 "src/dd.c"
	.loc 1 886 1 view -0
	.cfi_startproc
	.loc 1 886 1 is_stmt 0 view .LVU1
	endbr64
	.loc 1 887 3 is_stmt 1 view .LVU2
	.loc 1 889 3 view .LVU3
	.loc 1 889 20 is_stmt 0 view .LVU4
	movl	%edi, interrupt_signal(%rip)
	.loc 1 890 1 view .LVU5
	ret
	.cfi_endproc
.LFE151:
	.size	interrupt_handler, .-interrupt_handler
	.p2align 4
	.type	siginfo_handler, @function
siginfo_handler:
.LVL1:
.LFB152:
	.loc 1 896 1 is_stmt 1 view -0
	.cfi_startproc
	.loc 1 896 1 is_stmt 0 view .LVU7
	endbr64
	.loc 1 897 3 is_stmt 1 view .LVU8
	.loc 1 899 3 view .LVU9
	.loc 1 899 20 is_stmt 0 view .LVU10
	movl	info_signal_count(%rip), %eax
	addl	$1, %eax
	movl	%eax, info_signal_count(%rip)
	.loc 1 900 1 view .LVU11
	ret
	.cfi_endproc
.LFE152:
	.size	siginfo_handler, .-siginfo_handler
	.section	.rodata.str1.1,"aMS",@progbits,1
.LC1:
	.string	"%.0f s"
.LC2:
	.string	"%g s"
.LC4:
	.string	"Infinity"
.LC5:
	.string	"%s B/s"
.LC6:
	.string	"%lu bytes copied, %s, %s"
.LC7:
	.string	"%lu byte copied, %s, %s"
.LC8:
	.string	"%lu bytes (%s) copied, %s, %s"
	.section	.rodata.str1.8,"aMS",@progbits,1
	.align 8
.LC9:
	.string	"%lu bytes (%s, %s) copied, %s, %s"
	.section	.rodata.str1.1
.LC10:
	.string	""
.LC11:
	.string	"%*s"
	.text
	.p2align 4
	.type	print_xfer_stats, @function
print_xfer_stats:
.LVL2:
.LFB149:
	.loc 1 778 1 is_stmt 1 view -0
	.cfi_startproc
	.loc 1 778 1 is_stmt 0 view .LVU13
	pushq	%r15
	.cfi_def_cfa_offset 16
	.cfi_offset 15, -16
	pushq	%r14
	.cfi_def_cfa_offset 24
	.cfi_offset 14, -24
	pushq	%r13
	.cfi_def_cfa_offset 32
	.cfi_offset 13, -32
	pushq	%r12
	.cfi_def_cfa_offset 40
	.cfi_offset 12, -40
	pushq	%rbp
	.cfi_def_cfa_offset 48
	.cfi_offset 6, -48
	movq	%rdi, %rbp
	pushq	%rbx
	.cfi_def_cfa_offset 56
	.cfi_offset 3, -56
	movq	%rdi, %rbx
	subq	$2024, %rsp
	.cfi_def_cfa_offset 2080
	.loc 1 778 1 view .LVU14
	movq	%fs:40, %rax
	movq	%rax, 2008(%rsp)
	xorl	%eax, %eax
	.loc 1 779 3 is_stmt 1 view .LVU15
	.loc 1 779 47 is_stmt 0 view .LVU16
	testq	%rdi, %rdi
	je	.L26
.LVL3:
.L5:
	.loc 1 780 3 is_stmt 1 discriminator 4 view .LVU17
	.loc 1 781 3 discriminator 4 view .LVU18
	.loc 1 782 3 discriminator 4 view .LVU19
	.loc 1 783 3 discriminator 4 view .LVU20
	.loc 1 784 3 discriminator 4 view .LVU21
	.loc 1 784 20 is_stmt 0 discriminator 4 view .LVU22
	leaq	16(%rsp), %rsi
	movl	$1, %r8d
	movl	$1, %ecx
	movq	w_bytes(%rip), %rdi
	movl	$465, %edx
	call	human_readable@PLT
.LVL4:
	.loc 1 785 21 discriminator 4 view .LVU23
	movl	$1, %r8d
	movl	$1, %ecx
	movq	w_bytes(%rip), %rdi
	leaq	670(%rsp), %rsi
	movl	$497, %edx
	.loc 1 784 20 discriminator 4 view .LVU24
	movq	%rax, %r12
.LVL5:
	.loc 1 785 3 is_stmt 1 discriminator 4 view .LVU25
	.loc 1 785 21 is_stmt 0 discriminator 4 view .LVU26
	call	human_readable@PLT
.LVL6:
	.loc 1 785 21 discriminator 4 view .LVU27
	movq	%rax, %r13
.LVL7:
	.loc 1 790 3 is_stmt 1 discriminator 4 view .LVU28
	.loc 1 791 3 discriminator 4 view .LVU29
	.loc 1 792 3 discriminator 4 view .LVU30
	.loc 1 792 18 is_stmt 0 discriminator 4 view .LVU31
	movq	start_time(%rip), %rax
.LVL8:
	.loc 1 792 6 discriminator 4 view .LVU32
	cmpq	%rbp, %rax
	jge	.L6
.LBB290:
	.loc 1 794 7 is_stmt 1 view .LVU33
.LVL9:
	.loc 1 795 7 view .LVU34
	.loc 1 796 7 view .LVU35
	.loc 1 797 7 view .LVU36
	.loc 1 797 29 is_stmt 0 view .LVU37
	movq	%rbp, %r8
	subq	%rax, %r8
.LVL10:
	.loc 1 797 29 view .LVU38
	js	.L7
	pxor	%xmm0, %xmm0
	cvtsi2sdq	%r8, %xmm0
.L8:
	.loc 1 798 26 view .LVU39
	movq	w_bytes(%rip), %rdi
	movl	$465, %edx
	leaq	1324(%rsp), %rsi
.LVL11:
	.loc 1 798 26 view .LVU40
	movl	$1000000000, %ecx
	.loc 1 797 15 view .LVU41
	divsd	.LC3(%rip), %xmm0
	movsd	%xmm0, 8(%rsp)
.LVL12:
	.loc 1 798 7 is_stmt 1 view .LVU42
	.loc 1 798 26 is_stmt 0 view .LVU43
	call	human_readable@PLT
.LVL13:
.LBB291:
.LBB292:
	.file 2 "/usr/include/x86_64-linux-gnu/bits/string_fortified.h"
	.loc 2 128 10 view .LVU44
	movq	%rax, %rdi
.LBE292:
.LBE291:
	.loc 1 798 26 view .LVU45
	movq	%rax, %rbp
.LVL14:
	.loc 1 800 7 is_stmt 1 view .LVU46
.LBB295:
.LBI291:
	.loc 2 126 1 view .LVU47
.LBB293:
	.loc 2 128 3 view .LVU48
	.loc 2 128 10 is_stmt 0 view .LVU49
	call	strlen@PLT
.LVL15:
	.loc 2 128 10 view .LVU50
	movzwl	slash_s.7316(%rip), %edx
	movsd	8(%rsp), %xmm0
.LVL16:
	.loc 2 128 10 view .LVU51
.LBE293:
.LBE295:
.LBE290:
	.loc 1 809 3 is_stmt 1 view .LVU52
	.loc 1 818 3 is_stmt 0 view .LVU53
	leaq	.LC2(%rip), %r8
.LBB297:
.LBB296:
.LBB294:
	.loc 2 128 10 view .LVU54
	movw	%dx, 0(%rbp,%rax)
	movzbl	2+slash_s.7316(%rip), %edx
	movb	%dl, 2(%rbp,%rax)
.LBE294:
.LBE296:
.LBE297:
	.loc 1 809 6 view .LVU55
	testq	%rbx, %rbx
	jne	.L27
.LVL17:
.L10:
.LBB298:
.LBI298:
	.file 3 "/usr/include/x86_64-linux-gnu/bits/stdio2.h"
	.loc 3 64 1 is_stmt 1 discriminator 4 view .LVU56
.LBB299:
	.loc 3 67 3 discriminator 4 view .LVU57
	.loc 3 67 10 is_stmt 0 discriminator 4 view .LVU58
	movl	$24, %ecx
	movl	$1, %edx
	movl	$24, %esi
	movl	$1, %eax
	leaq	1984(%rsp), %r14
.LVL18:
	.loc 3 67 10 discriminator 4 view .LVU59
	movq	%r14, %rdi
	call	__snprintf_chk@PLT
.LVL19:
	.loc 3 67 10 discriminator 4 view .LVU60
.LBE299:
.LBE298:
	.loc 1 821 3 is_stmt 1 discriminator 4 view .LVU61
.LBB300:
.LBI300:
	.loc 1 769 1 discriminator 4 view .LVU62
.LBB301:
	.loc 1 771 3 discriminator 4 view .LVU63
	.loc 1 771 18 is_stmt 0 discriminator 4 view .LVU64
	movq	%r12, %rdi
	call	strlen@PLT
.LVL20:
	.loc 1 771 18 discriminator 4 view .LVU65
.LBE301:
.LBE300:
	.loc 1 828 8 discriminator 4 view .LVU66
	cmpb	$32, -2(%r12,%rax)
	je	.L28
.LVL21:
.LBB302:
.LBI302:
	.loc 1 769 1 is_stmt 1 view .LVU67
.LBB303:
	.loc 1 771 3 view .LVU68
	.loc 1 771 18 is_stmt 0 view .LVU69
	movq	%r13, %rdi
	call	strlen@PLT
.LVL22:
	.loc 1 771 18 view .LVU70
	movq	w_bytes(%rip), %r15
.LBE303:
.LBE302:
	.loc 1 830 19 view .LVU71
	movl	$5, %edx
	.loc 1 832 8 view .LVU72
	cmpb	$32, -2(%r13,%rax)
	je	.L29
	.loc 1 833 19 discriminator 1 view .LVU73
	leaq	.LC9(%rip), %rsi
	xorl	%edi, %edi
	call	dcgettext@PLT
.LVL23:
.LBB304:
.LBB305:
	.loc 3 100 10 discriminator 1 view .LVU74
	pushq	%rbp
	.cfi_def_cfa_offset 2088
	movq	%r13, %r9
	pushq	%r14
	.cfi_def_cfa_offset 2096
.LBE305:
.LBE304:
	.loc 1 833 19 discriminator 1 view .LVU75
	movq	%rax, %rdx
.LVL24:
.LBB307:
.LBI304:
	.loc 3 98 1 is_stmt 1 discriminator 1 view .LVU76
.LBB306:
	.loc 3 100 3 discriminator 1 view .LVU77
.L25:
	.loc 3 100 10 is_stmt 0 discriminator 1 view .LVU78
	movq	stderr(%rip), %rdi
	movq	%r12, %r8
	movq	%r15, %rcx
	xorl	%eax, %eax
	movl	$1, %esi
	call	__fprintf_chk@PLT
.LVL25:
	movl	%eax, %ebp
.LVL26:
	.loc 3 100 10 discriminator 1 view .LVU79
	popq	%rax
	.cfi_def_cfa_offset 2088
	popq	%rdx
	.cfi_def_cfa_offset 2080
.LVL27:
.L13:
	.loc 3 100 10 discriminator 1 view .LVU80
.LBE306:
.LBE307:
	.loc 1 836 3 is_stmt 1 view .LVU81
	.loc 1 836 6 is_stmt 0 view .LVU82
	testq	%rbx, %rbx
	je	.L15
	.loc 1 844 7 is_stmt 1 view .LVU83
	.loc 1 844 10 is_stmt 0 view .LVU84
	testl	%ebp, %ebp
	js	.L16
	.loc 1 844 39 discriminator 1 view .LVU85
	movl	progress_len(%rip), %ecx
	.loc 1 844 26 discriminator 1 view .LVU86
	cmpl	%ebp, %ecx
	jg	.L30
.L16:
	.loc 1 846 7 is_stmt 1 view .LVU87
	.loc 1 846 20 is_stmt 0 view .LVU88
	movl	%ebp, progress_len(%rip)
.L4:
	.loc 1 850 1 view .LVU89
	movq	2008(%rsp), %rax
	xorq	%fs:40, %rax
	jne	.L31
	addq	$2024, %rsp
	.cfi_remember_state
	.cfi_def_cfa_offset 56
	popq	%rbx
	.cfi_def_cfa_offset 48
.LVL28:
	.loc 1 850 1 view .LVU90
	popq	%rbp
	.cfi_def_cfa_offset 40
.LVL29:
	.loc 1 850 1 view .LVU91
	popq	%r12
	.cfi_def_cfa_offset 32
	popq	%r13
	.cfi_def_cfa_offset 24
.LVL30:
	.loc 1 850 1 view .LVU92
	popq	%r14
	.cfi_def_cfa_offset 16
	popq	%r15
	.cfi_def_cfa_offset 8
	ret
.LVL31:
	.p2align 4,,10
	.p2align 3
.L6:
	.cfi_restore_state
	.loc 1 804 7 is_stmt 1 view .LVU93
	.loc 1 805 7 view .LVU94
	movl	$5, %edx
	leaq	.LC4(%rip), %rsi
	xorl	%edi, %edi
	call	dcgettext@PLT
.LVL32:
.LBB308:
.LBI308:
	.loc 3 64 1 view .LVU95
.LBB309:
	.loc 3 67 3 view .LVU96
	.loc 3 67 10 is_stmt 0 view .LVU97
	movl	$654, %ecx
	movl	$1, %edx
	leaq	1324(%rsp), %rbp
.LVL33:
	.loc 3 67 10 view .LVU98
.LBE309:
.LBE308:
	.loc 1 805 7 view .LVU99
	movq	%rax, %r9
.LBB311:
.LBB310:
	.loc 3 67 10 view .LVU100
	leaq	.LC5(%rip), %r8
	movq	%rbp, %rdi
	xorl	%eax, %eax
	movl	$654, %esi
	call	__snprintf_chk@PLT
.LVL34:
	.loc 3 67 10 view .LVU101
.LBE310:
.LBE311:
	.loc 1 806 7 is_stmt 1 view .LVU102
	.loc 1 804 15 is_stmt 0 view .LVU103
	pxor	%xmm0, %xmm0
.LVL35:
	.loc 1 809 3 is_stmt 1 view .LVU104
	.loc 1 818 3 is_stmt 0 view .LVU105
	leaq	.LC2(%rip), %r8
	.loc 1 809 6 view .LVU106
	testq	%rbx, %rbx
	je	.L10
.LVL36:
.L27:
	.loc 1 810 5 is_stmt 1 view .LVU107
	movq	stderr(%rip), %rdi
.LVL37:
.LBB312:
.LBI312:
	.file 4 "/usr/include/x86_64-linux-gnu/bits/stdio.h"
	.loc 4 91 1 view .LVU108
.LBB313:
	.loc 4 93 3 view .LVU109
	.loc 4 93 10 is_stmt 0 view .LVU110
	movq	40(%rdi), %rax
	cmpq	48(%rdi), %rax
	jnb	.L32
	leaq	1(%rax), %rdx
.LBE313:
.LBE312:
	.loc 1 818 3 view .LVU111
	leaq	.LC1(%rip), %r8
.LBB317:
.LBB314:
	.loc 4 93 10 view .LVU112
	movq	%rdx, 40(%rdi)
	movb	$13, (%rax)
	jmp	.L10
.LVL38:
	.p2align 4,,10
	.p2align 3
.L7:
	.loc 4 93 10 view .LVU113
.LBE314:
.LBE317:
.LBB318:
	.loc 1 797 29 view .LVU114
	movq	%r8, %rax
	movq	%r8, %rdx
	pxor	%xmm0, %xmm0
	shrq	%rax
	andl	$1, %edx
	orq	%rdx, %rax
	cvtsi2sdq	%rax, %xmm0
	addsd	%xmm0, %xmm0
	jmp	.L8
.LVL39:
	.p2align 4,,10
	.p2align 3
.L15:
	.loc 1 797 29 view .LVU115
.LBE318:
	.loc 1 849 5 is_stmt 1 view .LVU116
	movq	stderr(%rip), %rdi
.LVL40:
.LBB319:
.LBI319:
	.loc 4 91 1 view .LVU117
.LBB320:
	.loc 4 93 3 view .LVU118
	.loc 4 93 10 is_stmt 0 view .LVU119
	movq	40(%rdi), %rax
	cmpq	48(%rdi), %rax
	jnb	.L33
	leaq	1(%rax), %rdx
	movq	%rdx, 40(%rdi)
	movb	$10, (%rax)
.LVL41:
	.loc 4 93 10 view .LVU120
.LBE320:
.LBE319:
	.loc 1 850 1 view .LVU121
	jmp	.L4
.LVL42:
	.p2align 4,,10
	.p2align 3
.L26:
	.loc 1 779 49 discriminator 1 view .LVU122
	call	gethrxtime@PLT
.LVL43:
	movq	%rax, %rbp
	jmp	.L5
.LVL44:
	.p2align 4,,10
	.p2align 3
.L29:
	.loc 1 830 19 view .LVU123
	leaq	.LC8(%rip), %rsi
	xorl	%edi, %edi
	call	dcgettext@PLT
.LVL45:
.LBB322:
.LBB323:
	.loc 3 100 10 view .LVU124
	subq	$8, %rsp
	.cfi_remember_state
	.cfi_def_cfa_offset 2088
	movq	%r14, %r9
	pushq	%rbp
	.cfi_def_cfa_offset 2096
.LBE323:
.LBE322:
	.loc 1 830 19 view .LVU125
	movq	%rax, %rdx
.LVL46:
.LBB325:
.LBI322:
	.loc 3 98 1 is_stmt 1 view .LVU126
.LBB324:
	.loc 3 100 3 view .LVU127
	jmp	.L25
.LVL47:
	.p2align 4,,10
	.p2align 3
.L28:
	.cfi_restore_state
	.loc 3 100 3 is_stmt 0 view .LVU128
.LBE324:
.LBE325:
	.loc 1 823 10 view .LVU129
	movq	w_bytes(%rip), %r12
.LVL48:
.LBB326:
.LBI326:
	.file 5 "src/system.h"
	.loc 5 183 1 is_stmt 1 view .LVU130
.LBB327:
	.loc 5 187 3 view .LVU131
	.loc 5 188 3 view .LVU132
	.loc 5 188 3 is_stmt 0 view .LVU133
.LBE327:
.LBE326:
	.loc 1 824 19 view .LVU134
	movl	$5, %r8d
	leaq	.LC6(%rip), %rdx
	xorl	%edi, %edi
	leaq	.LC7(%rip), %rsi
	movq	%r12, %rcx
	call	dcngettext@PLT
.LVL49:
.LBB328:
.LBB329:
	.loc 3 100 10 view .LVU135
	movq	%rbp, %r9
	movq	%r14, %r8
	movq	%r12, %rcx
	movq	stderr(%rip), %rdi
.LBE329:
.LBE328:
	.loc 1 824 19 view .LVU136
	movq	%rax, %rdx
.LVL50:
.LBB331:
.LBI328:
	.loc 3 98 1 is_stmt 1 view .LVU137
.LBB330:
	.loc 3 100 3 view .LVU138
	.loc 3 100 10 is_stmt 0 view .LVU139
	movl	$1, %esi
	xorl	%eax, %eax
.LVL51:
	.loc 3 100 10 view .LVU140
	call	__fprintf_chk@PLT
.LVL52:
	.loc 3 100 10 view .LVU141
	movl	%eax, %ebp
.LVL53:
	.loc 3 100 10 view .LVU142
.LBE330:
.LBE331:
	jmp	.L13
.LVL54:
	.p2align 4,,10
	.p2align 3
.L30:
	.loc 1 845 9 is_stmt 1 view .LVU143
.LBB332:
.LBI332:
	.loc 3 98 1 view .LVU144
.LBB333:
	.loc 3 100 3 view .LVU145
	.loc 3 100 10 is_stmt 0 view .LVU146
	movq	stderr(%rip), %rdi
.LBE333:
.LBE332:
	.loc 1 845 9 view .LVU147
	subl	%ebp, %ecx
.LBB335:
.LBB334:
	.loc 3 100 10 view .LVU148
	movl	$1, %esi
	xorl	%eax, %eax
	leaq	.LC10(%rip), %r8
	leaq	.LC11(%rip), %rdx
	call	__fprintf_chk@PLT
.LVL55:
	.loc 3 100 10 view .LVU149
	jmp	.L16
.LVL56:
	.p2align 4,,10
	.p2align 3
.L32:
	.loc 3 100 10 view .LVU150
.LBE334:
.LBE335:
.LBB336:
.LBB315:
	.loc 4 93 10 view .LVU151
	movl	$13, %esi
	movsd	%xmm0, 8(%rsp)
	call	__overflow@PLT
.LVL57:
	.loc 4 93 10 view .LVU152
	movsd	8(%rsp), %xmm0
.LBE315:
.LBE336:
	.loc 1 818 3 view .LVU153
	leaq	.LC1(%rip), %r8
.LBB337:
.LBB316:
	jmp	.L10
.LVL58:
	.p2align 4,,10
	.p2align 3
.L33:
	.loc 1 818 3 view .LVU154
.LBE316:
.LBE337:
.LBB338:
.LBB321:
	.loc 4 93 10 view .LVU155
	movl	$10, %esi
	call	__overflow@PLT
.LVL59:
	.loc 4 93 10 view .LVU156
	jmp	.L4
.LVL60:
.L31:
	.loc 4 93 10 view .LVU157
.LBE321:
.LBE338:
	.loc 1 850 1 view .LVU158
	call	__stack_chk_fail@PLT
.LVL61:
	.cfi_endproc
.LFE149:
	.size	print_xfer_stats, .-print_xfer_stats
	.section	.rodata.str1.8
	.align 8
.LC12:
	.string	"%lu+%lu records in\n%lu+%lu records out\n"
	.section	.rodata.str1.1
.LC13:
	.string	"%lu truncated records\n"
.LC14:
	.string	"%lu truncated record\n"
	.text
	.p2align 4
	.type	print_stats, @function
print_stats:
.LFB150:
	.loc 1 854 1 is_stmt 1 view -0
	.cfi_startproc
	.loc 1 855 3 view .LVU160
	.loc 1 855 6 is_stmt 0 view .LVU161
	cmpl	$1, status_level(%rip)
	je	.L46
	.loc 1 858 3 is_stmt 1 view .LVU162
	.loc 1 854 1 is_stmt 0 view .LVU163
	pushq	%r13
	.cfi_def_cfa_offset 16
	.cfi_offset 13, -16
	pushq	%r12
	.cfi_def_cfa_offset 24
	.cfi_offset 12, -24
	pushq	%rbp
	.cfi_def_cfa_offset 32
	.cfi_offset 6, -32
	pushq	%rbx
	.cfi_def_cfa_offset 40
	.cfi_offset 3, -40
	subq	$8, %rsp
	.cfi_def_cfa_offset 48
	.loc 1 858 6 view .LVU164
	movl	progress_len(%rip), %ecx
	testl	%ecx, %ecx
	jle	.L37
	.loc 1 860 7 is_stmt 1 view .LVU165
	movq	stderr(%rip), %rdi
.LVL62:
.LBB339:
.LBI339:
	.loc 4 91 1 view .LVU166
.LBB340:
	.loc 4 93 3 view .LVU167
	.loc 4 93 10 is_stmt 0 view .LVU168
	movq	40(%rdi), %rax
	cmpq	48(%rdi), %rax
	jnb	.L49
	leaq	1(%rax), %rdx
	movq	%rdx, 40(%rdi)
	movb	$10, (%rax)
.LVL63:
.L39:
	.loc 4 93 10 view .LVU169
.LBE340:
.LBE339:
	.loc 1 861 7 is_stmt 1 view .LVU170
	.loc 1 861 20 is_stmt 0 view .LVU171
	movl	$0, progress_len(%rip)
.L37:
	.loc 1 864 3 is_stmt 1 view .LVU172
	movq	w_partial(%rip), %r13
	.loc 1 865 12 is_stmt 0 view .LVU173
	movl	$5, %edx
	leaq	.LC12(%rip), %rsi
	xorl	%edi, %edi
	.loc 1 864 3 view .LVU174
	movq	r_full(%rip), %r12
	movq	w_full(%rip), %rbp
	movq	r_partial(%rip), %rbx
	.loc 1 865 12 view .LVU175
	call	dcgettext@PLT
.LVL64:
.LBB342:
.LBB343:
	.loc 3 100 10 view .LVU176
	subq	$8, %rsp
	.cfi_def_cfa_offset 56
	movq	%r12, %rcx
	movq	%rbp, %r9
	pushq	%r13
	.cfi_def_cfa_offset 64
	movq	stderr(%rip), %rdi
.LBE343:
.LBE342:
	.loc 1 865 12 view .LVU177
	movq	%rax, %rdx
.LVL65:
.LBB345:
.LBI342:
	.loc 3 98 1 is_stmt 1 view .LVU178
.LBB344:
	.loc 3 100 3 view .LVU179
	.loc 3 100 10 is_stmt 0 view .LVU180
	movq	%rbx, %r8
	movl	$1, %esi
	xorl	%eax, %eax
.LVL66:
	.loc 3 100 10 view .LVU181
	call	__fprintf_chk@PLT
.LVL67:
	.loc 3 100 10 view .LVU182
.LBE344:
.LBE345:
	.loc 1 869 3 is_stmt 1 view .LVU183
	.loc 1 869 18 is_stmt 0 view .LVU184
	movq	r_truncate(%rip), %r12
	.loc 1 869 6 view .LVU185
	popq	%rax
	.cfi_def_cfa_offset 56
	popq	%rdx
	.cfi_def_cfa_offset 48
	testq	%r12, %r12
	jne	.L50
.L40:
	.loc 1 876 3 is_stmt 1 view .LVU186
	.loc 1 876 6 is_stmt 0 view .LVU187
	cmpl	$2, status_level(%rip)
	je	.L34
	.loc 1 879 3 is_stmt 1 view .LVU188
	.loc 1 880 1 is_stmt 0 view .LVU189
	addq	$8, %rsp
	.cfi_remember_state
	.cfi_def_cfa_offset 40
	.loc 1 879 3 view .LVU190
	xorl	%edi, %edi
	.loc 1 880 1 view .LVU191
	popq	%rbx
	.cfi_restore 3
	.cfi_def_cfa_offset 32
	popq	%rbp
	.cfi_restore 6
	.cfi_def_cfa_offset 24
	popq	%r12
	.cfi_restore 12
	.cfi_def_cfa_offset 16
	popq	%r13
	.cfi_restore 13
	.cfi_def_cfa_offset 8
	.loc 1 879 3 view .LVU192
	jmp	print_xfer_stats
.LVL68:
	.p2align 4,,10
	.p2align 3
.L34:
	.cfi_restore_state
	.loc 1 880 1 view .LVU193
	addq	$8, %rsp
	.cfi_remember_state
	.cfi_def_cfa_offset 40
	popq	%rbx
	.cfi_def_cfa_offset 32
	popq	%rbp
	.cfi_def_cfa_offset 24
	popq	%r12
	.cfi_def_cfa_offset 16
	popq	%r13
	.cfi_def_cfa_offset 8
	ret
	.p2align 4,,10
	.p2align 3
.L50:
	.cfi_restore_state
	.loc 1 870 5 is_stmt 1 view .LVU194
.LVL69:
.LBB346:
.LBI346:
	.loc 5 183 1 view .LVU195
.LBB347:
	.loc 5 187 3 view .LVU196
	.loc 5 188 3 view .LVU197
	.loc 5 188 3 is_stmt 0 view .LVU198
.LBE347:
.LBE346:
	.loc 1 871 14 view .LVU199
	movq	%r12, %rcx
	xorl	%edi, %edi
	movl	$5, %r8d
	leaq	.LC13(%rip), %rdx
	leaq	.LC14(%rip), %rsi
	call	dcngettext@PLT
.LVL70:
.LBB348:
.LBB349:
	.loc 3 100 10 view .LVU200
	movq	stderr(%rip), %rdi
	movq	%r12, %rcx
	movl	$1, %esi
.LBE349:
.LBE348:
	.loc 1 871 14 view .LVU201
	movq	%rax, %rdx
.LVL71:
.LBB351:
.LBI348:
	.loc 3 98 1 is_stmt 1 view .LVU202
.LBB350:
	.loc 3 100 3 view .LVU203
	.loc 3 100 10 is_stmt 0 view .LVU204
	xorl	%eax, %eax
.LVL72:
	.loc 3 100 10 view .LVU205
	call	__fprintf_chk@PLT
.LVL73:
	.loc 3 100 10 view .LVU206
	jmp	.L40
	.p2align 4,,10
	.p2align 3
.L46:
	.cfi_def_cfa_offset 8
	.cfi_restore 3
	.cfi_restore 6
	.cfi_restore 12
	.cfi_restore 13
	.loc 3 100 10 view .LVU207
	ret
.LVL74:
	.p2align 4,,10
	.p2align 3
.L49:
	.cfi_def_cfa_offset 48
	.cfi_offset 3, -40
	.cfi_offset 6, -32
	.cfi_offset 12, -24
	.cfi_offset 13, -16
	.loc 3 100 10 view .LVU208
.LBE350:
.LBE351:
.LBB352:
.LBB341:
	.loc 4 93 10 view .LVU209
	movl	$10, %esi
	call	__overflow@PLT
.LVL75:
	.loc 4 93 10 view .LVU210
	jmp	.L39
.LBE341:
.LBE352:
	.cfi_endproc
.LFE150:
	.size	print_stats, .-print_stats
	.p2align 4
	.type	nl_error, @function
nl_error:
.LVL76:
.LFB142:
	.loc 1 540 1 is_stmt 1 view -0
	.cfi_startproc
	.loc 1 540 1 is_stmt 0 view .LVU212
	pushq	%r12
	.cfi_def_cfa_offset 16
	.cfi_offset 12, -16
	movl	%esi, %r12d
	pushq	%rbp
	.cfi_def_cfa_offset 24
	.cfi_offset 6, -24
	movl	%edi, %ebp
	subq	$232, %rsp
	.cfi_def_cfa_offset 256
	movq	%rcx, 72(%rsp)
	movq	%r8, 80(%rsp)
	movq	%r9, 88(%rsp)
	testb	%al, %al
	je	.L52
	movaps	%xmm0, 96(%rsp)
	movaps	%xmm1, 112(%rsp)
	movaps	%xmm2, 128(%rsp)
	movaps	%xmm3, 144(%rsp)
	movaps	%xmm4, 160(%rsp)
	movaps	%xmm5, 176(%rsp)
	movaps	%xmm6, 192(%rsp)
	movaps	%xmm7, 208(%rsp)
.L52:
	.loc 1 540 1 view .LVU213
	movq	%fs:40, %rax
	movq	%rax, 40(%rsp)
	xorl	%eax, %eax
	.loc 1 541 3 is_stmt 1 view .LVU214
	.loc 1 541 6 is_stmt 0 view .LVU215
	movl	progress_len(%rip), %eax
	testl	%eax, %eax
	jle	.L53
	.loc 1 543 7 is_stmt 1 view .LVU216
	movq	stderr(%rip), %rdi
.LVL77:
.LBB353:
.LBI353:
	.loc 4 91 1 view .LVU217
.LBB354:
	.loc 4 93 3 view .LVU218
	.loc 4 93 10 is_stmt 0 view .LVU219
	movq	40(%rdi), %rax
	cmpq	48(%rdi), %rax
	jnb	.L58
	leaq	1(%rax), %rcx
	movq	%rcx, 40(%rdi)
	movb	$10, (%rax)
.LVL78:
.L55:
	.loc 4 93 10 view .LVU220
.LBE354:
.LBE353:
	.loc 1 544 7 is_stmt 1 view .LVU221
	.loc 1 544 20 is_stmt 0 view .LVU222
	movl	$0, progress_len(%rip)
.L53:
	.loc 1 547 3 is_stmt 1 view .LVU223
	.loc 1 548 3 view .LVU224
	leaq	256(%rsp), %rax
	.loc 1 549 3 is_stmt 0 view .LVU225
	leaq	16(%rsp), %rcx
	movl	%r12d, %esi
	movl	%ebp, %edi
	.loc 1 548 3 view .LVU226
	movq	%rax, 24(%rsp)
	leaq	48(%rsp), %rax
	movq	%rax, 32(%rsp)
	.loc 1 549 3 is_stmt 1 view .LVU227
	.loc 1 548 3 is_stmt 0 view .LVU228
	movl	$24, 16(%rsp)
	movl	$48, 20(%rsp)
	.loc 1 549 3 view .LVU229
	call	verror@PLT
.LVL79:
	.loc 1 550 3 is_stmt 1 view .LVU230
	.loc 1 551 1 is_stmt 0 view .LVU231
	movq	40(%rsp), %rax
	xorq	%fs:40, %rax
	jne	.L59
	addq	$232, %rsp
	.cfi_remember_state
	.cfi_def_cfa_offset 24
	popq	%rbp
	.cfi_def_cfa_offset 16
.LVL80:
	.loc 1 551 1 view .LVU232
	popq	%r12
	.cfi_def_cfa_offset 8
.LVL81:
	.loc 1 551 1 view .LVU233
	ret
.LVL82:
	.p2align 4,,10
	.p2align 3
.L58:
	.cfi_restore_state
.LBB356:
.LBB355:
	.loc 4 93 10 view .LVU234
	movl	$10, %esi
.LVL83:
	.loc 4 93 10 view .LVU235
	movq	%rdx, 8(%rsp)
	call	__overflow@PLT
.LVL84:
	.loc 4 93 10 view .LVU236
	movq	8(%rsp), %rdx
	jmp	.L55
.LVL85:
.L59:
	.loc 4 93 10 view .LVU237
.LBE355:
.LBE356:
	.loc 1 551 1 view .LVU238
	call	__stack_chk_fail@PLT
.LVL86:
	.cfi_endproc
.LFE142:
	.size	nl_error, .-nl_error
	.section	.rodata.str1.1
.LC15:
	.string	"bcEGkKMPTwYZ0"
.LC16:
	.string	"00x"
.LC17:
	.string	"0x"
	.section	.rodata.str1.8
	.align 8
.LC18:
	.string	"warning: %s is a zero multiplier; use %s if that is intended"
	.text
	.p2align 4
	.type	parse_integer, @function
parse_integer:
.LVL87:
.LFB172:
	.loc 1 1449 1 is_stmt 1 view -0
	.cfi_startproc
	.loc 1 1449 1 is_stmt 0 view .LVU240
	pushq	%r13
	.cfi_def_cfa_offset 16
	.cfi_offset 13, -16
	.loc 1 1452 20 view .LVU241
	leaq	.LC15(%rip), %r8
	movl	$10, %edx
	.loc 1 1449 1 view .LVU242
	pushq	%r12
	.cfi_def_cfa_offset 24
	.cfi_offset 12, -24
	pushq	%rbp
	.cfi_def_cfa_offset 32
	.cfi_offset 6, -32
	movq	%rsi, %rbp
	pushq	%rbx
	.cfi_def_cfa_offset 40
	.cfi_offset 3, -40
	movq	%rdi, %rbx
	subq	$40, %rsp
	.cfi_def_cfa_offset 80
	.loc 1 1449 1 view .LVU243
	movq	%fs:40, %rax
	movq	%rax, 24(%rsp)
	xorl	%eax, %eax
	.loc 1 1450 3 is_stmt 1 view .LVU244
	.loc 1 1451 3 view .LVU245
	.loc 1 1452 3 view .LVU246
	.loc 1 1452 20 is_stmt 0 view .LVU247
	leaq	8(%rsp), %rcx
	leaq	16(%rsp), %rsi
.LVL88:
	.loc 1 1452 20 view .LVU248
	call	xstrtoumax@PLT
.LVL89:
	.loc 1 1454 3 is_stmt 1 view .LVU249
	.loc 1 1454 6 is_stmt 0 view .LVU250
	cmpl	$2, %eax
	je	.L73
	.loc 1 1472 8 is_stmt 1 view .LVU251
	movq	8(%rsp), %r8
	.loc 1 1472 11 is_stmt 0 view .LVU252
	testl	%eax, %eax
	jne	.L62
.LVL90:
.L60:
	.loc 1 1479 1 view .LVU253
	movq	24(%rsp), %rax
	xorq	%fs:40, %rax
	jne	.L74
	addq	$40, %rsp
	.cfi_remember_state
	.cfi_def_cfa_offset 40
	movq	%r8, %rax
	popq	%rbx
	.cfi_def_cfa_offset 32
	popq	%rbp
	.cfi_def_cfa_offset 24
.LVL91:
	.loc 1 1479 1 view .LVU254
	popq	%r12
	.cfi_def_cfa_offset 16
	popq	%r13
	.cfi_def_cfa_offset 8
	ret
.LVL92:
	.p2align 4,,10
	.p2align 3
.L73:
	.cfi_restore_state
	.loc 1 1454 43 discriminator 1 view .LVU255
	movq	16(%rsp), %rdi
	.loc 1 1454 40 discriminator 1 view .LVU256
	cmpb	$120, (%rdi)
	je	.L75
.L62:
	.loc 1 1474 7 is_stmt 1 view .LVU257
	.loc 1 1474 16 is_stmt 0 view .LVU258
	movl	%eax, 0(%rbp)
	.loc 1 1475 7 is_stmt 1 view .LVU259
	.loc 1 1475 14 is_stmt 0 view .LVU260
	xorl	%r8d, %r8d
	jmp	.L60
	.p2align 4,,10
	.p2align 3
.L75:
.LBB357:
	.loc 1 1456 7 is_stmt 1 view .LVU261
	.loc 1 1456 52 is_stmt 0 view .LVU262
	addq	$1, %rdi
	.loc 1 1456 30 view .LVU263
	movq	%rbp, %rsi
	call	parse_integer
.LVL93:
	.loc 1 1456 30 view .LVU264
	movq	%rax, %r12
.LVL94:
	.loc 1 1458 7 is_stmt 1 view .LVU265
	.loc 1 1458 10 is_stmt 0 view .LVU266
	testq	%rax, %rax
	jne	.L76
	movq	8(%rsp), %r8
.LVL95:
.L64:
	.loc 1 1464 7 is_stmt 1 view .LVU267
	.loc 1 1464 10 is_stmt 0 view .LVU268
	testq	%r8, %r8
	jne	.L66
	.loc 1 1464 21 discriminator 1 view .LVU269
	cmpb	$48, (%rbx)
	jne	.L66
	.loc 1 1464 18 discriminator 1 view .LVU270
	cmpb	$120, 1(%rbx)
	jne	.L66
	.loc 1 1465 9 is_stmt 1 view .LVU271
	leaq	.LC16(%rip), %rsi
	movl	$1, %edi
	call	quote_n@PLT
.LVL96:
	leaq	.LC17(%rip), %rsi
	xorl	%edi, %edi
	movq	%rax, %rbx
.LVL97:
	.loc 1 1465 9 is_stmt 0 view .LVU272
	call	quote_n@PLT
.LVL98:
	.loc 1 1466 16 view .LVU273
	movl	$5, %edx
	leaq	.LC18(%rip), %rsi
	xorl	%edi, %edi
	.loc 1 1465 9 view .LVU274
	movq	%rax, %r13
	.loc 1 1466 16 view .LVU275
	call	dcgettext@PLT
.LVL99:
	.loc 1 1465 9 view .LVU276
	movq	%rbx, %r8
	movq	%r13, %rcx
	xorl	%esi, %esi
	.loc 1 1466 16 view .LVU277
	movq	%rax, %rdx
	.loc 1 1465 9 view .LVU278
	xorl	%edi, %edi
	xorl	%eax, %eax
	call	nl_error
.LVL100:
	movq	8(%rsp), %r8
	.p2align 4,,10
	.p2align 3
.L66:
	.loc 1 1470 7 is_stmt 1 view .LVU279
	.loc 1 1470 9 is_stmt 0 view .LVU280
	imulq	%r12, %r8
.LVL101:
	.loc 1 1470 9 view .LVU281
.LBE357:
	.loc 1 1455 5 view .LVU282
	jmp	.L60
.LVL102:
	.p2align 4,,10
	.p2align 3
.L76:
.LBB358:
	.loc 1 1458 32 discriminator 1 view .LVU283
	movq	8(%rsp), %rcx
	.loc 1 1458 45 discriminator 1 view .LVU284
	xorl	%edx, %edx
	.loc 1 1458 32 discriminator 1 view .LVU285
	movq	%rcx, %rax
.LVL103:
	.loc 1 1458 32 discriminator 1 view .LVU286
	imulq	%r12, %rax
	.loc 1 1458 45 discriminator 1 view .LVU287
	divq	%r12
	movq	%rax, %r8
	.loc 1 1458 27 discriminator 1 view .LVU288
	cmpq	%rax, %rcx
	je	.L64
	.loc 1 1460 11 is_stmt 1 view .LVU289
	.loc 1 1460 20 is_stmt 0 view .LVU290
	movl	$1, 0(%rbp)
	.loc 1 1461 11 is_stmt 1 view .LVU291
	.loc 1 1461 18 is_stmt 0 view .LVU292
	xorl	%r8d, %r8d
	jmp	.L60
.LVL104:
.L74:
	.loc 1 1461 18 view .LVU293
.LBE358:
	.loc 1 1479 1 view .LVU294
	call	__stack_chk_fail@PLT
.LVL105:
	.cfi_endproc
.LFE172:
	.size	parse_integer, .-parse_integer
	.p2align 4
	.type	invalidate_cache, @function
invalidate_cache:
.LVL106:
.LFB160:
	.loc 1 1071 1 is_stmt 1 view -0
	.cfi_startproc
	.loc 1 1072 3 view .LVU296
	.loc 1 1073 3 view .LVU297
	.loc 1 1074 3 view .LVU298
	.loc 1 1071 1 is_stmt 0 view .LVU299
	pushq	%r15
	.cfi_def_cfa_offset 16
	.cfi_offset 15, -16
	leaq	o_pending.7374(%rip), %rax
	pushq	%r14
	.cfi_def_cfa_offset 24
	.cfi_offset 14, -24
	movl	%edi, %r14d
	pushq	%r13
	.cfi_def_cfa_offset 32
	.cfi_offset 13, -32
	pushq	%r12
	.cfi_def_cfa_offset 40
	.cfi_offset 12, -40
	pushq	%rbp
	.cfi_def_cfa_offset 48
	.cfi_offset 6, -48
	movq	%rsi, %rbp
	pushq	%rbx
	.cfi_def_cfa_offset 56
	.cfi_offset 3, -56
	subq	$8, %rsp
	.cfi_def_cfa_offset 64
	.loc 1 1074 58 view .LVU300
	movzbl	o_nocache_eof(%rip), %r15d
.LVL107:
	.loc 1 1077 3 is_stmt 1 view .LVU301
.LBB359:
.LBI359:
	.loc 1 1045 1 view .LVU302
.LBB360:
	.loc 1 1047 3 view .LVU303
	.loc 1 1048 3 view .LVU304
.LBE360:
.LBE359:
	.loc 1 1074 58 is_stmt 0 view .LVU305
	testl	%edi, %edi
	jne	.L79
	.loc 1 1074 58 discriminator 1 view .LVU306
	movzbl	i_nocache_eof(%rip), %r15d
.LVL108:
	.loc 1 1077 3 is_stmt 1 discriminator 1 view .LVU307
.LBB366:
	.loc 1 1045 1 discriminator 1 view .LVU308
.LBB363:
	.loc 1 1047 3 discriminator 1 view .LVU309
	.loc 1 1048 3 discriminator 1 view .LVU310
	.loc 1 1048 53 is_stmt 0 discriminator 1 view .LVU311
	leaq	i_pending.7373(%rip), %rax
.LVL109:
.L79:
	.loc 1 1050 3 is_stmt 1 view .LVU312
	movq	(%rax), %r12
	.loc 1 1050 6 is_stmt 0 view .LVU313
	testq	%rbp, %rbp
	je	.L80
.LBB361:
	.loc 1 1052 7 is_stmt 1 view .LVU314
	.loc 1 1052 38 is_stmt 0 view .LVU315
	addq	%rbp, %r12
.LVL110:
	.loc 1 1053 7 is_stmt 1 view .LVU316
	.loc 1 1053 28 is_stmt 0 view .LVU317
	movq	%r12, %rbx
	andl	$131071, %ebx
	.loc 1 1053 16 view .LVU318
	movq	%rbx, (%rax)
	.loc 1 1054 7 is_stmt 1 view .LVU319
	.loc 1 1054 10 is_stmt 0 view .LVU320
	cmpq	%rbx, %r12
	ja	.L81
.LVL111:
.L83:
	.loc 1 1054 10 view .LVU321
.LBE361:
.LBE363:
.LBE366:
	.loc 1 1079 12 view .LVU322
	movl	$1, %r13d
.LVL112:
.L77:
	.loc 1 1133 1 view .LVU323
	addq	$8, %rsp
	.cfi_remember_state
	.cfi_def_cfa_offset 56
	movl	%r13d, %eax
	popq	%rbx
	.cfi_def_cfa_offset 48
	popq	%rbp
	.cfi_def_cfa_offset 40
.LVL113:
	.loc 1 1133 1 view .LVU324
	popq	%r12
	.cfi_def_cfa_offset 32
	popq	%r13
	.cfi_def_cfa_offset 24
	popq	%r14
	.cfi_def_cfa_offset 16
.LVL114:
	.loc 1 1133 1 view .LVU325
	popq	%r15
	.cfi_def_cfa_offset 8
	ret
.LVL115:
	.p2align 4,,10
	.p2align 3
.L80:
	.cfi_restore_state
.LBB367:
.LBB364:
	.loc 1 1060 5 is_stmt 1 view .LVU326
	.loc 1 1062 3 view .LVU327
	.loc 1 1062 3 is_stmt 0 view .LVU328
.LBE364:
.LBE367:
	.loc 1 1078 3 is_stmt 1 view .LVU329
	.loc 1 1080 8 view .LVU330
	.loc 1 1080 11 is_stmt 0 view .LVU331
	testq	%r12, %r12
	jne	.L96
	.loc 1 1080 28 discriminator 1 view .LVU332
	testb	%r15b, %r15b
	je	.L83
.L96:
	.loc 1 1082 45 view .LVU333
	xorl	%ebx, %ebx
.LVL116:
	.loc 1 1084 3 is_stmt 1 view .LVU334
	.loc 1 1084 6 is_stmt 0 view .LVU335
	testl	%r14d, %r14d
	jne	.L85
.L119:
	.loc 1 1086 7 is_stmt 1 view .LVU336
	.loc 1 1086 11 is_stmt 0 view .LVU337
	movzbl	input_seekable(%rip), %r13d
	.loc 1 1087 16 view .LVU338
	movq	input_offset(%rip), %rsi
.LVL117:
	.loc 1 1086 10 view .LVU339
	testb	%r13b, %r13b
	jne	.L87
	.loc 1 1090 11 is_stmt 1 view .LVU340
.LVL118:
	.loc 1 1091 11 view .LVU341
	call	__errno_location@PLT
.LVL119:
	.loc 1 1091 17 is_stmt 0 view .LVU342
	movl	$29, (%rax)
	.loc 1 1109 3 is_stmt 1 view .LVU343
	jmp	.L77
.LVL120:
	.p2align 4,,10
	.p2align 3
.L81:
.LBB368:
.LBB365:
.LBB362:
	.loc 1 1055 9 view .LVU344
	.loc 1 1055 9 is_stmt 0 view .LVU345
.LBE362:
	.loc 1 1062 3 is_stmt 1 view .LVU346
	.loc 1 1062 3 is_stmt 0 view .LVU347
.LBE365:
.LBE368:
	.loc 1 1078 3 is_stmt 1 view .LVU348
	.loc 1 1078 6 is_stmt 0 view .LVU349
	subq	%rbx, %r12
.LVL121:
	.loc 1 1078 6 view .LVU350
	je	.L83
.LVL122:
	.loc 1 1084 3 is_stmt 1 view .LVU351
	.loc 1 1084 6 is_stmt 0 view .LVU352
	testl	%r14d, %r14d
	je	.L119
.L85:
.LBB369:
	.loc 1 1096 7 is_stmt 1 view .LVU353
	.loc 1 1098 7 view .LVU354
	.loc 1 1098 25 is_stmt 0 view .LVU355
	movq	output_offset.7386(%rip), %rsi
.LVL123:
	.loc 1 1098 25 view .LVU356
	xorl	%r13d, %r13d
	.loc 1 1098 10 view .LVU357
	cmpq	$-1, %rsi
	je	.L77
	.loc 1 1100 11 is_stmt 1 view .LVU358
	.loc 1 1100 14 is_stmt 0 view .LVU359
	testq	%rsi, %rsi
	js	.L120
	.loc 1 1102 16 is_stmt 1 view .LVU360
	.loc 1 1102 19 is_stmt 0 view .LVU361
	testq	%rbp, %rbp
	je	.L91
	.loc 1 1103 13 is_stmt 1 view .LVU362
	.loc 1 1103 35 is_stmt 0 view .LVU363
	leaq	(%rbx,%r12), %rax
	.loc 1 1103 27 view .LVU364
	addq	%rax, %rsi
	movq	%rsi, output_offset.7386(%rip)
	.loc 1 1106 7 is_stmt 1 view .LVU365
.LVL124:
.L87:
	.loc 1 1106 7 is_stmt 0 view .LVU366
.LBE369:
	.loc 1 1109 3 is_stmt 1 view .LVU367
	xorl	%r13d, %r13d
	.loc 1 1109 6 is_stmt 0 view .LVU368
	testq	%rsi, %rsi
	js	.L77
.LVL125:
.L91:
	.loc 1 1111 6 is_stmt 1 view .LVU369
	subq	%r12, %rsi
.LVL126:
	.loc 1 1111 9 is_stmt 0 view .LVU370
	testq	%rbp, %rbp
	jne	.L92
	testq	%r12, %r12
	je	.L92
	.loc 1 1111 24 discriminator 1 view .LVU371
	testb	%r15b, %r15b
	jne	.L93
.LVL127:
	.loc 1 1122 6 is_stmt 1 view .LVU372
	.loc 1 1122 13 is_stmt 0 view .LVU373
	subq	%rbx, %rsi
.LVL128:
	.loc 1 1124 6 is_stmt 1 view .LVU374
.L95:
	.loc 1 1126 6 view .LVU375
	.loc 1 1126 16 is_stmt 0 view .LVU376
	movl	$4, %ecx
	movq	%r12, %rdx
	movl	%r14d, %edi
	call	posix_fadvise@PLT
.LVL129:
	.loc 1 1126 16 view .LVU377
	cmpl	$-1, %eax
	setne	%r13b
	jmp	.L77
.LVL130:
	.p2align 4,,10
	.p2align 3
.L92:
	.loc 1 1122 6 is_stmt 1 view .LVU378
	.loc 1 1122 13 is_stmt 0 view .LVU379
	subq	%rbx, %rsi
.LVL131:
	.loc 1 1124 6 is_stmt 1 view .LVU380
	.loc 1 1124 9 is_stmt 0 view .LVU381
	testq	%r12, %r12
	jne	.L95
.LVL132:
.L93:
	.loc 1 1125 8 is_stmt 1 view .LVU382
	.loc 1 1125 25 is_stmt 0 view .LVU383
	movq	%rsi, %rax
	xorl	%edx, %edx
	.loc 1 1125 15 view .LVU384
	xorl	%r12d, %r12d
	.loc 1 1125 25 view .LVU385
	divq	page_size(%rip)
	.loc 1 1125 15 view .LVU386
	subq	%rdx, %rsi
.LVL133:
	.loc 1 1125 15 view .LVU387
	jmp	.L95
.LVL134:
	.p2align 4,,10
	.p2align 3
.L120:
.LBB370:
	.loc 1 1101 13 is_stmt 1 view .LVU388
	.loc 1 1101 29 is_stmt 0 view .LVU389
	xorl	%esi, %esi
	movl	$1, %edx
	movl	$1, %edi
.LVL135:
	.loc 1 1101 29 view .LVU390
	call	lseek@PLT
.LVL136:
	.loc 1 1101 27 view .LVU391
	movq	%rax, output_offset.7386(%rip)
	.loc 1 1101 29 view .LVU392
	movq	%rax, %rsi
	jmp	.L87
.LBE370:
	.cfi_endproc
.LFE160:
	.size	invalidate_cache, .-invalidate_cache
	.p2align 4
	.type	maybe_close_stdout, @function
maybe_close_stdout:
.LFB141:
	.loc 1 529 1 is_stmt 1 view -0
	.cfi_startproc
	endbr64
	.loc 1 530 3 view .LVU394
	.loc 1 530 6 is_stmt 0 view .LVU395
	cmpb	$0, close_stdout_required(%rip)
	je	.L122
	.loc 1 531 5 is_stmt 1 view .LVU396
	jmp	close_stdout@PLT
.LVL137:
	.p2align 4,,10
	.p2align 3
.L122:
.LBB373:
.LBI373:
	.loc 1 528 1 view .LVU397
.LBB374:
	.loc 1 532 8 view .LVU398
.LBE374:
.LBE373:
	.loc 1 529 1 is_stmt 0 view .LVU399
	subq	$8, %rsp
	.cfi_def_cfa_offset 16
.LBB377:
.LBB375:
	.loc 1 532 12 view .LVU400
	movq	stderr(%rip), %rdi
	call	close_stream@PLT
.LVL138:
	.loc 1 532 11 view .LVU401
	testl	%eax, %eax
	jne	.L126
.LBE375:
.LBE377:
	.loc 1 534 1 view .LVU402
	addq	$8, %rsp
	.cfi_remember_state
	.cfi_def_cfa_offset 8
	ret
.L126:
	.cfi_restore_state
.LBB378:
.LBB376:
	.loc 1 533 5 is_stmt 1 view .LVU403
	movl	$1, %edi
	call	_exit@PLT
.LVL139:
.LBE376:
.LBE378:
	.cfi_endproc
.LFE141:
	.size	maybe_close_stdout, .-maybe_close_stdout
	.p2align 4
	.type	iclose.part.0, @function
iclose.part.0:
.LVL140:
.LFB189:
	.loc 1 958 1 view -0
	.cfi_startproc
	.loc 1 958 1 is_stmt 0 view .LVU405
	pushq	%rbp
	.cfi_def_cfa_offset 16
	.cfi_offset 6, -16
	movl	%edi, %ebp
	pushq	%rbx
	.cfi_def_cfa_offset 24
	.cfi_offset 3, -24
	subq	$8, %rsp
	.cfi_def_cfa_offset 32
	.loc 1 962 11 view .LVU406
	call	__errno_location@PLT
.LVL141:
	.loc 1 962 11 view .LVU407
	movq	%rax, %rbx
	movl	(%rax), %eax
	jmp	.L129
	.p2align 4,,10
	.p2align 3
.L137:
	.loc 1 964 11 is_stmt 1 view .LVU408
	.loc 1 964 12 is_stmt 0 view .LVU409
	movl	%ebp, %edi
	call	close@PLT
.LVL142:
	.loc 1 964 5 view .LVU410
	testl	%eax, %eax
	je	.L127
	.loc 1 964 31 view .LVU411
	movl	(%rbx), %eax
	.loc 1 964 28 view .LVU412
	cmpl	$9, %eax
	je	.L136
.L129:
	.loc 1 961 5 is_stmt 1 view .LVU413
	.loc 1 962 7 view .LVU414
	.loc 1 962 10 is_stmt 0 view .LVU415
	cmpl	$4, %eax
	je	.L137
	.loc 1 963 16 view .LVU416
	movl	$-1, %eax
.L127:
	.loc 1 967 1 view .LVU417
	addq	$8, %rsp
	.cfi_remember_state
	.cfi_def_cfa_offset 24
	popq	%rbx
	.cfi_def_cfa_offset 16
	popq	%rbp
	.cfi_def_cfa_offset 8
.LVL143:
	.loc 1 967 1 view .LVU418
	ret
.LVL144:
	.p2align 4,,10
	.p2align 3
.L136:
	.cfi_restore_state
	.loc 1 967 1 view .LVU419
	addq	$8, %rsp
	.cfi_def_cfa_offset 24
	.loc 1 966 10 view .LVU420
	xorl	%eax, %eax
	.loc 1 967 1 view .LVU421
	popq	%rbx
	.cfi_def_cfa_offset 16
	popq	%rbp
	.cfi_def_cfa_offset 8
.LVL145:
	.loc 1 967 1 view .LVU422
	ret
	.cfi_endproc
.LFE189:
	.size	iclose.part.0, .-iclose.part.0
	.section	.rodata.str1.8
	.align 8
.LC19:
	.string	"memory exhausted by input buffer of size %lu bytes (%s)"
	.text
	.p2align 4
	.type	alloc_ibuf.part.0, @function
alloc_ibuf.part.0:
.LFB191:
	.loc 1 695 1 is_stmt 1 view -0
	.cfi_startproc
	pushq	%r12
	.cfi_def_cfa_offset 16
	.cfi_offset 12, -16
	pushq	%rbx
	.cfi_def_cfa_offset 24
	.cfi_offset 3, -24
	subq	$680, %rsp
	.cfi_def_cfa_offset 704
	.loc 1 700 41 is_stmt 0 view .LVU424
	movq	page_size(%rip), %rbx
	.loc 1 700 39 view .LVU425
	movq	input_blocksize(%rip), %r12
	.loc 1 695 1 view .LVU426
	movq	%fs:40, %rax
	movq	%rax, 664(%rsp)
	xorl	%eax, %eax
	.loc 1 700 3 is_stmt 1 view .LVU427
	.loc 1 700 15 is_stmt 0 view .LVU428
	leaq	3(%r12,%rbx,2), %rdi
	call	malloc@PLT
.LVL146:
	.loc 1 701 3 is_stmt 1 view .LVU429
	.loc 1 701 6 is_stmt 0 view .LVU430
	testq	%rax, %rax
	je	.L142
	.loc 1 712 3 is_stmt 1 view .LVU431
.LBB379:
.LBB380:
	.loc 5 504 15 is_stmt 0 view .LVU432
	leaq	1(%rax,%rbx), %rcx
.LBE380:
.LBE379:
	.loc 1 712 13 view .LVU433
	movq	%rax, real_ibuf(%rip)
	.loc 1 714 3 is_stmt 1 view .LVU434
.LVL147:
.LBB382:
.LBI379:
	.loc 5 501 1 view .LVU435
.LBB381:
	.loc 5 503 3 view .LVU436
	.loc 5 504 3 view .LVU437
	.loc 5 505 3 view .LVU438
	.loc 5 505 37 is_stmt 0 view .LVU439
	xorl	%edx, %edx
	movq	%rcx, %rax
.LVL148:
	.loc 5 505 37 view .LVU440
	divq	%rbx
	.loc 5 505 10 view .LVU441
	subq	%rdx, %rcx
	movq	%rcx, ibuf(%rip)
.LBE381:
.LBE382:
	.loc 1 715 1 view .LVU442
	movq	664(%rsp), %rax
	xorq	%fs:40, %rax
	jne	.L143
	addq	$680, %rsp
	.cfi_remember_state
	.cfi_def_cfa_offset 24
	popq	%rbx
	.cfi_def_cfa_offset 16
	popq	%r12
	.cfi_def_cfa_offset 8
	ret
.LVL149:
.L142:
	.cfi_restore_state
.LBB383:
	.loc 1 703 7 is_stmt 1 view .LVU443
	.loc 1 704 7 view .LVU444
	.loc 1 705 7 view .LVU445
	movl	$1, %ecx
	movq	%rsp, %rsi
	movl	$497, %edx
	movq	%r12, %rdi
	movl	$1, %r8d
	call	human_readable@PLT
.LVL150:
	.loc 1 705 7 is_stmt 0 view .LVU446
	movl	$5, %edx
	leaq	.LC19(%rip), %rsi
	xorl	%edi, %edi
	movq	%rax, %rbx
	call	dcgettext@PLT
.LVL151:
	movq	%rbx, %r8
	movq	%r12, %rcx
	xorl	%esi, %esi
	movq	%rax, %rdx
	movl	$1, %edi
	xorl	%eax, %eax
	call	nl_error
.LVL152:
.L143:
	.loc 1 705 7 view .LVU447
.LBE383:
	.loc 1 715 1 view .LVU448
	call	__stack_chk_fail@PLT
.LVL153:
	.loc 1 715 1 view .LVU449
	.cfi_endproc
.LFE191:
	.size	alloc_ibuf.part.0, .-alloc_ibuf.part.0
	.section	.rodata.str1.8
	.align 8
.LC20:
	.string	"memory exhausted by output buffer of size %lu bytes (%s)"
	.text
	.p2align 4
	.type	alloc_obuf.part.0, @function
alloc_obuf.part.0:
.LFB192:
	.loc 1 720 1 is_stmt 1 view -0
	.cfi_startproc
	pushq	%r12
	.cfi_def_cfa_offset 16
	.cfi_offset 12, -16
	pushq	%rbx
	.cfi_def_cfa_offset 24
	.cfi_offset 3, -24
	subq	$680, %rsp
	.cfi_def_cfa_offset 704
.LBB384:
	.loc 1 728 44 is_stmt 0 view .LVU451
	movq	page_size(%rip), %rbx
	movq	output_blocksize(%rip), %r12
.LBE384:
	.loc 1 720 1 view .LVU452
	movq	%fs:40, %rax
	movq	%rax, 664(%rsp)
	xorl	%eax, %eax
.LBB390:
	.loc 1 728 7 is_stmt 1 view .LVU453
	.loc 1 728 19 is_stmt 0 view .LVU454
	leaq	-1(%rbx,%r12), %rdi
	call	malloc@PLT
.LVL154:
	.loc 1 729 7 is_stmt 1 view .LVU455
	.loc 1 729 10 is_stmt 0 view .LVU456
	testq	%rax, %rax
	je	.L148
	.loc 1 741 7 is_stmt 1 view .LVU457
.LBB385:
.LBB386:
	.loc 5 504 15 is_stmt 0 view .LVU458
	leaq	-1(%rax,%rbx), %rcx
.LBE386:
.LBE385:
	.loc 1 741 17 view .LVU459
	movq	%rax, real_obuf(%rip)
	.loc 1 743 7 is_stmt 1 view .LVU460
.LVL155:
.LBB388:
.LBI385:
	.loc 5 501 1 view .LVU461
.LBB387:
	.loc 5 503 3 view .LVU462
	.loc 5 504 3 view .LVU463
	.loc 5 505 3 view .LVU464
	.loc 5 505 37 is_stmt 0 view .LVU465
	xorl	%edx, %edx
	movq	%rcx, %rax
.LVL156:
	.loc 5 505 37 view .LVU466
	divq	%rbx
	.loc 5 505 10 view .LVU467
	subq	%rdx, %rcx
	movq	%rcx, obuf(%rip)
.LBE387:
.LBE388:
.LBE390:
	.loc 1 750 1 view .LVU468
	movq	664(%rsp), %rax
	xorq	%fs:40, %rax
	jne	.L149
	addq	$680, %rsp
	.cfi_remember_state
	.cfi_def_cfa_offset 24
	popq	%rbx
	.cfi_def_cfa_offset 16
	popq	%r12
	.cfi_def_cfa_offset 8
	ret
.LVL157:
.L148:
	.cfi_restore_state
.LBB391:
.LBB389:
	.loc 1 731 11 is_stmt 1 view .LVU469
	.loc 1 732 11 view .LVU470
	.loc 1 733 11 view .LVU471
	movl	$1, %ecx
	movq	%rsp, %rsi
	movl	$497, %edx
	movq	%r12, %rdi
	movl	$1, %r8d
	call	human_readable@PLT
.LVL158:
	.loc 1 733 11 is_stmt 0 view .LVU472
	movl	$5, %edx
	leaq	.LC20(%rip), %rsi
	xorl	%edi, %edi
	movq	%rax, %rbx
	call	dcgettext@PLT
.LVL159:
	movq	%rbx, %r8
	movq	%r12, %rcx
	xorl	%esi, %esi
	movq	%rax, %rdx
	movl	$1, %edi
	xorl	%eax, %eax
	call	nl_error
.LVL160:
.L149:
	.loc 1 733 11 view .LVU473
.LBE389:
.LBE391:
	.loc 1 750 1 view .LVU474
	call	__stack_chk_fail@PLT
.LVL161:
	.loc 1 750 1 view .LVU475
	.cfi_endproc
.LFE192:
	.size	alloc_obuf.part.0, .-alloc_obuf.part.0
	.p2align 4
	.type	alloc_obuf, @function
alloc_obuf:
.LFB145:
	.loc 1 721 1 is_stmt 1 view -0
	.cfi_startproc
	.loc 1 722 3 view .LVU477
	.loc 1 722 6 is_stmt 0 view .LVU478
	cmpq	$0, obuf(%rip)
	je	.L159
	ret
.L159:
	.loc 1 725 3 is_stmt 1 view .LVU479
	.loc 1 725 6 is_stmt 0 view .LVU480
	testb	$8, 1+conversions_mask(%rip)
	jne	.L160
	.loc 1 747 7 is_stmt 1 view .LVU481
.LBB392:
.LBI392:
	.loc 1 695 1 view .LVU482
.LBB393:
	.loc 1 697 3 view .LVU483
	.loc 1 697 6 is_stmt 0 view .LVU484
	cmpq	$0, ibuf(%rip)
	je	.L161
.LBE393:
.LBE392:
	.loc 1 748 7 is_stmt 1 view .LVU485
	.loc 1 748 12 is_stmt 0 view .LVU486
	movq	ibuf(%rip), %rax
	movq	%rax, obuf(%rip)
	ret
.L160:
	jmp	alloc_obuf.part.0
.LVL162:
.L161:
	.loc 1 721 1 view .LVU487
	pushq	%rax
	.cfi_def_cfa_offset 16
.LBB395:
.LBB394:
	call	alloc_ibuf.part.0
.LVL163:
.LBE394:
.LBE395:
	.loc 1 748 7 is_stmt 1 view .LVU488
	.loc 1 748 12 is_stmt 0 view .LVU489
	movq	ibuf(%rip), %rax
	movq	%rax, obuf(%rip)
	.loc 1 750 1 view .LVU490
	popq	%rdx
	.cfi_def_cfa_offset 8
	ret
	.cfi_endproc
.LFE145:
	.size	alloc_obuf, .-alloc_obuf
	.section	.rodata.str1.1
.LC21:
	.string	"dd"
.LC22:
	.string	" invocation"
	.section	.rodata.str1.8
	.align 8
.LC23:
	.string	"Try '%s --help' for more information.\n"
	.align 8
.LC24:
	.string	"Usage: %s [OPERAND]...\n  or:  %s OPTION\n"
	.align 8
.LC25:
	.ascii	"Copy a file, converting and formatting according to the oper"
	.ascii	"ands.\n\n  bs=BYTES        read and write up to BYTES bytes "
	.ascii	"at a time (default: 512);\n               "
	.string	"   overrides ibs and obs\n  cbs=BYTES       convert BYTES bytes at a time\n  conv=CONVS      convert the file as per the comma separated symbol list\n  count=N         copy only N input blocks\n  ibs=BYTES       read up to BYTES bytes at a time (default: 512)\n"
	.align 8
.LC26:
	.ascii	"  if=FILE         read from FILE instead of stdin\n  iflag=F"
	.ascii	"LAGS     read as per the comma separated symbol list\n  obs="
	.ascii	"BYTES       write BYTES bytes at a time (default: 512)\n  of"
	.ascii	"=FILE         write to FILE instead of stdout\n  oflag=FLAGS"
	.ascii	"     write as per the comma separated symbol list\n  seek=N "
	.ascii	"         skip N obs-sized blocks at start of output\n  skip="
	.ascii	"N          skip N ibs-sized blocks at start of input\n  stat"
	.ascii	"u"
	.string	"s=LEVEL    The LEVEL of information to print to stderr;\n                  'none' suppresses everything but error messages,\n                  'noxfer' suppresses the final transfer statistics,\n                  'progress' shows periodic transfer statistics\n"
	.align 8
.LC27:
	.ascii	"\nN and BYTES may be followed by th"
	.string	"e following multiplicative suffixes:\nc=1, w=2, b=512, kB=1000, K=1024, MB=1000*1000, M=1024*1024, xM=M,\nGB=1000*1000*1000, G=1024*1024*1024, and so on for T, P, E, Z, Y.\nBinary prefixes can be used, too: KiB=K, MiB=M, and so on.\n\nEach CONV symbol may be:\n\n"
	.align 8
.LC28:
	.ascii	"  ascii     from EBCDIC to ASCII\n  ebcdic    from ASCII to "
	.ascii	"EBCDIC\n  ibm       from ASCII to alternate EBCDIC\n  block "
	.ascii	"    pad newline-terminated records with spaces to cbs-size\n"
	.ascii	"  unblock   replace trailing spaces in cbs-size records with"
	.ascii	" newline\n  lcase     change upper case to lower case\n  uca"
	.ascii	"se     change lower case "
	.string	"to upper case\n  sparse    try to seek rather than write all-NUL output blocks\n  swab      swap every pair of input bytes\n  sync      pad every input block with NULs to ibs-size; when used\n            with block or unblock, pad with spaces rather than NULs\n"
	.align 8
.LC29:
	.ascii	"  excl      fail if the output"
	.string	" file already exists\n  nocreat   do not create the output file\n  notrunc   do not truncate the output file\n  noerror   continue after read errors\n  fdatasync  physically write output file data before finishing\n  fsync     likewise, but also write metadata\n"
	.align 8
.LC30:
	.string	"\nEach FLAG symbol may be:\n\n  append    append mode (makes sense only for output; conv=notrunc suggested)\n"
	.align 8
.LC31:
	.string	"  direct    use direct I/O for data\n"
	.align 8
.LC32:
	.string	"  directory  fail unless a directory\n"
	.align 8
.LC33:
	.string	"  dsync     use synchronized I/O for data\n"
	.align 8
.LC34:
	.string	"  sync      likewise, but also for metadata\n"
	.align 8
.LC35:
	.string	"  fullblock  accumulate full blocks of input (iflag only)\n"
	.align 8
.LC36:
	.string	"  nonblock  use non-blocking I/O\n"
	.align 8
.LC37:
	.string	"  noatime   do not update access time\n"
	.align 8
.LC38:
	.string	"  nocache   Request to drop cache.  See also oflag=sync\n"
	.align 8
.LC39:
	.string	"  noctty    do not assign controlling terminal from file\n"
	.align 8
.LC40:
	.string	"  nofollow  do not follow symlinks\n"
	.align 8
.LC41:
	.string	"  count_bytes  treat 'count=N' as a byte count (iflag only)\n"
	.align 8
.LC42:
	.string	"  skip_bytes  treat 'skip=N' as a byte count (iflag only)\n"
	.align 8
.LC43:
	.string	"  seek_bytes  treat 'seek=N' as a byte count (oflag only)\n"
	.align 8
.LC44:
	.string	"\nSending a %s signal to a running 'dd' process makes it\nprint I/O statistics to standard error and then resume copying.\n\nOptions are:\n\n"
	.section	.rodata.str1.1
.LC45:
	.string	"USR1"
	.section	.rodata.str1.8
	.align 8
.LC46:
	.string	"      --help     display this help and exit\n"
	.align 8
.LC47:
	.string	"      --version  output version information and exit\n"
	.section	.rodata.str1.1
.LC48:
	.string	"["
.LC49:
	.string	"test invocation"
.LC50:
	.string	"coreutils"
.LC51:
	.string	"Multi-call invocation"
.LC52:
	.string	"sha224sum"
.LC53:
	.string	"sha2 utilities"
.LC54:
	.string	"sha256sum"
.LC55:
	.string	"sha384sum"
.LC56:
	.string	"sha512sum"
.LC57:
	.string	"\n%s online help: <%s>\n"
	.section	.rodata.str1.8
	.align 8
.LC58:
	.string	"https://www.gnu.org/software/coreutils/"
	.section	.rodata.str1.1
.LC59:
	.string	"GNU coreutils"
.LC60:
	.string	"en_"
	.section	.rodata.str1.8
	.align 8
.LC61:
	.string	"Report any translation bugs to <https://translationproject.org/team/>\n"
	.section	.rodata.str1.1
.LC62:
	.string	"Full documentation <%s%s>\n"
	.section	.rodata.str1.8
	.align 8
.LC63:
	.string	"or available locally via: info '(coreutils) %s%s'\n"
	.text
	.p2align 4
	.globl	usage
	.type	usage, @function
usage:
.LVL164:
.LFB143:
	.loc 1 557 1 is_stmt 1 view -0
	.cfi_startproc
	.loc 1 557 1 is_stmt 0 view .LVU492
	endbr64
	pushq	%r14
	.cfi_def_cfa_offset 16
	.cfi_offset 14, -16
	.loc 1 559 5 view .LVU493
	movl	$5, %edx
	.loc 1 557 1 view .LVU494
	pushq	%r13
	.cfi_def_cfa_offset 24
	.cfi_offset 13, -24
	pushq	%r12
	.cfi_def_cfa_offset 32
	.cfi_offset 12, -32
	pushq	%rbp
	.cfi_def_cfa_offset 40
	.cfi_offset 6, -40
	movl	%edi, %ebp
	subq	$136, %rsp
	.cfi_def_cfa_offset 176
	movq	program_name(%rip), %r12
	.loc 1 557 1 view .LVU495
	movq	%fs:40, %rax
	movq	%rax, 120(%rsp)
	xorl	%eax, %eax
	.loc 1 558 3 is_stmt 1 view .LVU496
	.loc 1 558 6 is_stmt 0 view .LVU497
	testl	%edi, %edi
	je	.L163
	.loc 1 559 5 is_stmt 1 view .LVU498
	.loc 1 559 5 view .LVU499
	leaq	.LC23(%rip), %rsi
	xorl	%edi, %edi
.LVL165:
	.loc 1 559 5 is_stmt 0 view .LVU500
	call	dcgettext@PLT
.LVL166:
.LBB410:
.LBB411:
	.loc 3 100 10 view .LVU501
	movq	stderr(%rip), %rdi
	movq	%r12, %rcx
	movl	$1, %esi
.LBE411:
.LBE410:
	.loc 1 559 5 view .LVU502
	movq	%rax, %rdx
.LVL167:
.LBB413:
.LBI410:
	.loc 3 98 1 is_stmt 1 view .LVU503
.LBB412:
	.loc 3 100 3 view .LVU504
	.loc 3 100 10 is_stmt 0 view .LVU505
	xorl	%eax, %eax
.LVL168:
	.loc 3 100 10 view .LVU506
	call	__fprintf_chk@PLT
.LVL169:
.L164:
	.loc 3 100 10 view .LVU507
.LBE412:
.LBE413:
	.loc 1 684 3 is_stmt 1 view .LVU508
	movl	%ebp, %edi
	call	exit@PLT
.LVL170:
.L163:
	.loc 1 562 7 view .LVU509
	.loc 1 562 15 is_stmt 0 view .LVU510
	xorl	%edi, %edi
.LVL171:
	.loc 1 562 15 view .LVU511
	leaq	.LC24(%rip), %rsi
	call	dcgettext@PLT
.LVL172:
.LBB414:
.LBB415:
	.loc 3 107 10 view .LVU512
	movq	%r12, %rcx
	movq	%r12, %rdx
	movl	$1, %edi
.LBE415:
.LBE414:
	.loc 1 562 15 view .LVU513
	movq	%rax, %rsi
.LVL173:
.LBB417:
.LBI414:
	.loc 3 105 1 is_stmt 1 view .LVU514
.LBB416:
	.loc 3 107 3 view .LVU515
	.loc 3 107 10 is_stmt 0 view .LVU516
	xorl	%eax, %eax
.LVL174:
	.loc 3 107 10 view .LVU517
	call	__printf_chk@PLT
.LVL175:
	.loc 3 107 10 view .LVU518
.LBE416:
.LBE417:
	.loc 1 567 7 is_stmt 1 view .LVU519
	movq	stdout(%rip), %r12
	xorl	%edi, %edi
	movl	$5, %edx
	leaq	.LC25(%rip), %rsi
	call	dcgettext@PLT
.LVL176:
	movq	%r12, %rsi
	movq	%rax, %rdi
	call	fputs_unlocked@PLT
.LVL177:
	.loc 1 577 7 view .LVU520
	movq	stdout(%rip), %r12
	xorl	%edi, %edi
	movl	$5, %edx
	leaq	.LC26(%rip), %rsi
	call	dcgettext@PLT
.LVL178:
	movq	%r12, %rsi
	movq	%rax, %rdi
	call	fputs_unlocked@PLT
.LVL179:
	.loc 1 590 7 view .LVU521
	movq	stdout(%rip), %r12
	xorl	%edi, %edi
	movl	$5, %edx
	leaq	.LC27(%rip), %rsi
	call	dcgettext@PLT
.LVL180:
	movq	%r12, %rsi
	movq	%rax, %rdi
	call	fputs_unlocked@PLT
.LVL181:
	.loc 1 600 7 view .LVU522
	movq	stdout(%rip), %r12
	xorl	%edi, %edi
	movl	$5, %edx
	leaq	.LC28(%rip), %rsi
	call	dcgettext@PLT
.LVL182:
	movq	%r12, %rsi
	movq	%rax, %rdi
	call	fputs_unlocked@PLT
.LVL183:
	.loc 1 613 7 view .LVU523
	movq	stdout(%rip), %r12
	xorl	%edi, %edi
	movl	$5, %edx
	leaq	.LC29(%rip), %rsi
	call	dcgettext@PLT
.LVL184:
	movq	%r12, %rsi
	movq	%rax, %rdi
	call	fputs_unlocked@PLT
.LVL185:
	.loc 1 621 7 view .LVU524
	movq	stdout(%rip), %r12
	xorl	%edi, %edi
	movl	$5, %edx
	leaq	.LC30(%rip), %rsi
	call	dcgettext@PLT
.LVL186:
	movq	%r12, %rsi
	movq	%rax, %rdi
	call	fputs_unlocked@PLT
.LVL187:
	.loc 1 627 7 view .LVU525
	.loc 1 629 7 view .LVU526
	.loc 1 630 9 view .LVU527
	movq	stdout(%rip), %r12
	xorl	%edi, %edi
	movl	$5, %edx
	leaq	.LC31(%rip), %rsi
	call	dcgettext@PLT
.LVL188:
	movq	%r12, %rsi
	movq	%rax, %rdi
	call	fputs_unlocked@PLT
.LVL189:
	.loc 1 631 7 view .LVU528
	.loc 1 632 9 view .LVU529
	movq	stdout(%rip), %r12
	xorl	%edi, %edi
	movl	$5, %edx
	leaq	.LC32(%rip), %rsi
	call	dcgettext@PLT
.LVL190:
	movq	%r12, %rsi
	movq	%rax, %rdi
	call	fputs_unlocked@PLT
.LVL191:
	.loc 1 633 7 view .LVU530
	.loc 1 634 9 view .LVU531
	movq	stdout(%rip), %r12
	xorl	%edi, %edi
	movl	$5, %edx
	leaq	.LC33(%rip), %rsi
	call	dcgettext@PLT
.LVL192:
	movq	%r12, %rsi
	movq	%rax, %rdi
	call	fputs_unlocked@PLT
.LVL193:
	.loc 1 635 7 view .LVU532
	.loc 1 636 9 view .LVU533
	movq	stdout(%rip), %r12
	movl	$5, %edx
	xorl	%edi, %edi
	leaq	.LC34(%rip), %rsi
	call	dcgettext@PLT
.LVL194:
	movq	%r12, %rsi
	movq	%rax, %rdi
	call	fputs_unlocked@PLT
.LVL195:
	.loc 1 637 7 view .LVU534
	movq	stdout(%rip), %r12
	xorl	%edi, %edi
	movl	$5, %edx
	leaq	.LC35(%rip), %rsi
	call	dcgettext@PLT
.LVL196:
	movq	%r12, %rsi
	movq	%rax, %rdi
	call	fputs_unlocked@PLT
.LVL197:
	.loc 1 639 7 view .LVU535
	.loc 1 640 9 view .LVU536
	movq	stdout(%rip), %r12
	xorl	%edi, %edi
	movl	$5, %edx
	leaq	.LC36(%rip), %rsi
	call	dcgettext@PLT
.LVL198:
	movq	%r12, %rsi
	movq	%rax, %rdi
	call	fputs_unlocked@PLT
.LVL199:
	.loc 1 641 7 view .LVU537
	.loc 1 642 9 view .LVU538
	movq	stdout(%rip), %r12
	xorl	%edi, %edi
	movl	$5, %edx
	leaq	.LC37(%rip), %rsi
	call	dcgettext@PLT
.LVL200:
	movq	%r12, %rsi
	movq	%rax, %rdi
	call	fputs_unlocked@PLT
.LVL201:
	.loc 1 644 7 view .LVU539
	.loc 1 645 9 view .LVU540
	movq	stdout(%rip), %r12
	xorl	%edi, %edi
	movl	$5, %edx
	leaq	.LC38(%rip), %rsi
	call	dcgettext@PLT
.LVL202:
	movq	%r12, %rsi
	movq	%rax, %rdi
	call	fputs_unlocked@PLT
.LVL203:
	.loc 1 648 7 view .LVU541
	.loc 1 649 9 view .LVU542
	movq	stdout(%rip), %r12
	xorl	%edi, %edi
	movl	$5, %edx
	leaq	.LC39(%rip), %rsi
	call	dcgettext@PLT
.LVL204:
	movq	%r12, %rsi
	movq	%rax, %rdi
	call	fputs_unlocked@PLT
.LVL205:
	.loc 1 651 7 view .LVU543
	.loc 1 652 9 view .LVU544
	movq	stdout(%rip), %r12
	xorl	%edi, %edi
	movl	$5, %edx
	leaq	.LC40(%rip), %rsi
	call	dcgettext@PLT
.LVL206:
	movq	%r12, %rsi
	movq	%rax, %rdi
	call	fputs_unlocked@PLT
.LVL207:
	.loc 1 653 7 view .LVU545
	.loc 1 655 7 view .LVU546
	.loc 1 657 7 view .LVU547
	.loc 1 659 7 view .LVU548
	.loc 1 660 9 view .LVU549
	movq	stdout(%rip), %r12
	xorl	%edi, %edi
	movl	$5, %edx
	leaq	.LC41(%rip), %rsi
	call	dcgettext@PLT
.LVL208:
	movq	%r12, %rsi
	movq	%rax, %rdi
	call	fputs_unlocked@PLT
.LVL209:
	.loc 1 662 7 view .LVU550
	.loc 1 663 9 view .LVU551
	movq	stdout(%rip), %r12
	xorl	%edi, %edi
	movl	$5, %edx
	leaq	.LC42(%rip), %rsi
	call	dcgettext@PLT
.LVL210:
	movq	%r12, %rsi
	movq	%rax, %rdi
	call	fputs_unlocked@PLT
.LVL211:
	.loc 1 665 7 view .LVU552
	.loc 1 666 9 view .LVU553
	movq	stdout(%rip), %r12
	xorl	%edi, %edi
	movl	$5, %edx
	leaq	.LC43(%rip), %rsi
	call	dcgettext@PLT
.LVL212:
	movq	%r12, %rsi
	movq	%rax, %rdi
	call	fputs_unlocked@PLT
.LVL213:
	.loc 1 670 9 view .LVU554
	.loc 1 670 17 is_stmt 0 view .LVU555
	xorl	%edi, %edi
	movl	$5, %edx
	leaq	.LC44(%rip), %rsi
	call	dcgettext@PLT
.LVL214:
.LBB418:
.LBB419:
	.loc 3 107 10 view .LVU556
	leaq	.LC45(%rip), %rdx
	movl	$1, %edi
.LBE419:
.LBE418:
	.loc 1 670 17 view .LVU557
	movq	%rax, %rsi
.LVL215:
.LBB421:
.LBI418:
	.loc 3 105 1 is_stmt 1 view .LVU558
.LBB420:
	.loc 3 107 3 view .LVU559
	.loc 3 107 10 is_stmt 0 view .LVU560
	xorl	%eax, %eax
.LVL216:
	.loc 3 107 10 view .LVU561
	call	__printf_chk@PLT
.LVL217:
	.loc 3 107 10 view .LVU562
.LBE420:
.LBE421:
	.loc 1 680 7 is_stmt 1 view .LVU563
	movq	stdout(%rip), %r12
	movl	$5, %edx
	xorl	%edi, %edi
	leaq	.LC46(%rip), %rsi
	call	dcgettext@PLT
.LVL218:
	movq	%r12, %rsi
	movq	%rax, %rdi
	call	fputs_unlocked@PLT
.LVL219:
	.loc 1 681 7 view .LVU564
	movl	$5, %edx
	movq	stdout(%rip), %r12
	xorl	%edi, %edi
	leaq	.LC47(%rip), %rsi
	call	dcgettext@PLT
.LVL220:
	movq	%r12, %rsi
	movq	%rax, %rdi
	call	fputs_unlocked@PLT
.LVL221:
	.loc 1 682 7 view .LVU565
.LBB422:
.LBI422:
	.loc 5 634 1 view .LVU566
.LBB423:
	.loc 5 636 3 view .LVU567
	.loc 5 636 67 is_stmt 0 view .LVU568
	leaq	.LC48(%rip), %rax
	leaq	.LC54(%rip), %rcx
	.loc 5 647 25 view .LVU569
	movq	%rsp, %rdx
	.loc 5 636 67 view .LVU570
	movq	%rax, (%rsp)
	leaq	.LC49(%rip), %rax
	movq	%rax, 8(%rsp)
	leaq	.LC50(%rip), %rax
	movq	%rax, 16(%rsp)
	leaq	.LC51(%rip), %rax
	movq	%rax, 24(%rsp)
	leaq	.LC52(%rip), %rax
	movq	%rax, 32(%rsp)
	leaq	.LC53(%rip), %rax
	movq	%rcx, 48(%rsp)
	leaq	.LC55(%rip), %rcx
	movq	%rax, 40(%rsp)
	movq	%rax, 56(%rsp)
	movq	%rax, 72(%rsp)
	movq	%rax, 88(%rsp)
	movq	$0, 96(%rsp)
	movq	$0, 104(%rsp)
	.loc 5 646 3 is_stmt 1 view .LVU571
.LVL222:
	.loc 5 647 3 view .LVU572
	.loc 5 649 3 view .LVU573
	.loc 5 649 9 view .LVU574
	.loc 5 636 67 is_stmt 0 view .LVU575
	movq	%rcx, 64(%rsp)
	leaq	.LC56(%rip), %rcx
	movq	%rcx, 80(%rsp)
	.loc 5 649 33 view .LVU576
	movl	$100, %ecx
	.p2align 4,,10
	.p2align 3
.L184:
	.loc 5 650 5 is_stmt 1 view .LVU577
	.loc 5 649 18 is_stmt 0 view .LVU578
	movq	16(%rdx), %rax
	.loc 5 650 13 view .LVU579
	addq	$16, %rdx
.LVL223:
	.loc 5 649 9 is_stmt 1 view .LVU580
	testq	%rax, %rax
	je	.L165
	.loc 5 649 33 is_stmt 0 view .LVU581
	movzbl	(%rax), %esi
	cmpl	%esi, %ecx
	jne	.L184
	movzbl	1(%rax), %esi
	cmpl	%esi, %ecx
	jne	.L184
	.loc 5 649 28 view .LVU582
	cmpb	$0, 2(%rax)
	jne	.L184
.L165:
	.loc 5 652 3 is_stmt 1 view .LVU583
	.loc 5 652 15 is_stmt 0 view .LVU584
	movq	8(%rdx), %r12
	.loc 5 655 11 view .LVU585
	leaq	.LC57(%rip), %rsi
	movl	$5, %edx
.LVL224:
	.loc 5 655 11 view .LVU586
	xorl	%edi, %edi
	.loc 5 652 6 view .LVU587
	testq	%r12, %r12
	je	.L168
	.loc 5 653 5 is_stmt 1 view .LVU588
.LVL225:
	.loc 5 655 3 view .LVU589
	.loc 5 655 11 is_stmt 0 view .LVU590
	call	dcgettext@PLT
.LVL226:
.LBB424:
.LBB425:
	.loc 3 107 10 view .LVU591
	leaq	.LC58(%rip), %rcx
	leaq	.LC59(%rip), %rdx
	movl	$1, %edi
.LBE425:
.LBE424:
	.loc 5 655 11 view .LVU592
	movq	%rax, %rsi
.LVL227:
.LBB429:
.LBI424:
	.loc 3 105 1 is_stmt 1 view .LVU593
.LBB426:
	.loc 3 107 3 view .LVU594
	.loc 3 107 10 is_stmt 0 view .LVU595
	xorl	%eax, %eax
.LVL228:
	.loc 3 107 10 view .LVU596
	leaq	.LC21(%rip), %r13
	call	__printf_chk@PLT
.LVL229:
	.loc 3 107 10 view .LVU597
.LBE426:
.LBE429:
	.loc 5 659 3 is_stmt 1 view .LVU598
	.loc 5 659 29 is_stmt 0 view .LVU599
	movl	$5, %edi
	xorl	%esi, %esi
	call	setlocale@PLT
.LVL230:
	movq	%rax, %rdi
.LVL231:
	.loc 5 660 3 is_stmt 1 view .LVU600
	.loc 5 660 6 is_stmt 0 view .LVU601
	testq	%rax, %rax
	je	.L169
	.loc 5 660 22 view .LVU602
	movl	$3, %edx
	leaq	.LC60(%rip), %rsi
	call	strncmp@PLT
.LVL232:
	.loc 5 660 19 view .LVU603
	testl	%eax, %eax
	jne	.L172
.LVL233:
.L169:
	.loc 5 669 3 is_stmt 1 view .LVU604
	.loc 5 669 11 is_stmt 0 view .LVU605
	xorl	%edi, %edi
	movl	$5, %edx
	leaq	.LC62(%rip), %rsi
	call	dcgettext@PLT
.LVL234:
.LBB430:
.LBB431:
	.loc 3 107 10 view .LVU606
	leaq	.LC21(%rip), %rcx
	movl	$1, %edi
	leaq	.LC58(%rip), %rdx
.LBE431:
.LBE430:
	.loc 5 669 11 view .LVU607
	movq	%rax, %rsi
.LVL235:
.LBB436:
.LBI430:
	.loc 3 105 1 is_stmt 1 view .LVU608
.LBB432:
	.loc 3 107 3 view .LVU609
	.loc 3 107 10 is_stmt 0 view .LVU610
	xorl	%eax, %eax
.LVL236:
	.loc 3 107 10 view .LVU611
	call	__printf_chk@PLT
.LVL237:
	.loc 3 107 10 view .LVU612
.LBE432:
.LBE436:
	.loc 5 671 3 is_stmt 1 view .LVU613
	cmpq	%r13, %r12
	leaq	.LC10(%rip), %rcx
	leaq	.LC22(%rip), %r13
	cmovne	%rcx, %r13
.L170:
	.loc 5 671 11 is_stmt 0 view .LVU614
	xorl	%edi, %edi
	leaq	.LC63(%rip), %rsi
	movl	$5, %edx
	call	dcgettext@PLT
.LVL238:
.LBB437:
.LBB438:
	.loc 3 107 10 view .LVU615
	movq	%r13, %rcx
	movq	%r12, %rdx
	movl	$1, %edi
.LBE438:
.LBE437:
	.loc 5 671 11 view .LVU616
	movq	%rax, %rsi
.LVL239:
.LBB440:
.LBI437:
	.loc 3 105 1 is_stmt 1 view .LVU617
.LBB439:
	.loc 3 107 3 view .LVU618
	.loc 3 107 10 is_stmt 0 view .LVU619
	xorl	%eax, %eax
.LVL240:
	.loc 3 107 10 view .LVU620
	call	__printf_chk@PLT
.LVL241:
	.loc 3 107 10 view .LVU621
.LBE439:
.LBE440:
	.loc 5 673 1 view .LVU622
	jmp	.L164
.LVL242:
.L168:
	.loc 5 655 3 is_stmt 1 view .LVU623
	.loc 5 655 11 is_stmt 0 view .LVU624
	call	dcgettext@PLT
.LVL243:
.LBB441:
.LBB427:
	.loc 3 107 10 view .LVU625
	leaq	.LC58(%rip), %rcx
	movl	$1, %edi
	leaq	.LC59(%rip), %rdx
.LBE427:
.LBE441:
	.loc 5 655 11 view .LVU626
	movq	%rax, %rsi
.LVL244:
.LBB442:
	.loc 3 105 1 is_stmt 1 view .LVU627
.LBB428:
	.loc 3 107 3 view .LVU628
	.loc 3 107 10 is_stmt 0 view .LVU629
	xorl	%eax, %eax
.LVL245:
	.loc 3 107 10 view .LVU630
	call	__printf_chk@PLT
.LVL246:
	.loc 3 107 10 view .LVU631
.LBE428:
.LBE442:
	.loc 5 659 3 is_stmt 1 view .LVU632
	.loc 5 659 29 is_stmt 0 view .LVU633
	movl	$5, %edi
	xorl	%esi, %esi
	call	setlocale@PLT
.LVL247:
	movq	%rax, %rdi
.LVL248:
	.loc 5 660 3 is_stmt 1 view .LVU634
	.loc 5 660 6 is_stmt 0 view .LVU635
	testq	%rax, %rax
	je	.L171
	.loc 5 660 22 view .LVU636
	movl	$3, %edx
	leaq	.LC60(%rip), %rsi
	call	strncmp@PLT
.LVL249:
	.loc 5 660 19 view .LVU637
	testl	%eax, %eax
	jne	.L190
.L171:
	.loc 5 669 3 is_stmt 1 view .LVU638
	.loc 5 669 11 is_stmt 0 view .LVU639
	movl	$5, %edx
	leaq	.LC62(%rip), %rsi
	xorl	%edi, %edi
	call	dcgettext@PLT
.LVL250:
.LBB443:
.LBB433:
	.loc 3 107 10 view .LVU640
	leaq	.LC21(%rip), %rcx
	leaq	.LC58(%rip), %rdx
	movl	$1, %edi
.LBE433:
.LBE443:
	.loc 5 669 11 view .LVU641
	movq	%rax, %rsi
.LVL251:
.LBB444:
	.loc 3 105 1 is_stmt 1 view .LVU642
.LBB434:
	.loc 3 107 3 view .LVU643
	.loc 3 107 10 is_stmt 0 view .LVU644
	xorl	%eax, %eax
.LVL252:
	.loc 3 107 10 view .LVU645
.LBE434:
.LBE444:
	.loc 5 646 15 view .LVU646
	leaq	.LC21(%rip), %r12
.LBB445:
.LBB435:
	.loc 3 107 10 view .LVU647
	call	__printf_chk@PLT
.LVL253:
	.loc 3 107 10 view .LVU648
.LBE435:
.LBE445:
	.loc 5 671 3 is_stmt 1 view .LVU649
	leaq	.LC22(%rip), %r13
	jmp	.L170
.L190:
	.loc 5 646 15 is_stmt 0 view .LVU650
	leaq	.LC21(%rip), %r13
	movq	%r13, %r12
.LVL254:
.L172:
	.loc 5 666 7 is_stmt 1 view .LVU651
	movq	stdout(%rip), %r14
	xorl	%edi, %edi
	movl	$5, %edx
	leaq	.LC61(%rip), %rsi
	call	dcgettext@PLT
.LVL255:
	movq	%rax, %rdi
	movq	%r14, %rsi
	call	fputs_unlocked@PLT
.LVL256:
	jmp	.L169
.LBE423:
.LBE422:
	.cfi_endproc
.LFE143:
	.size	usage, .-usage
	.section	.rodata.str1.1
.LC64:
	.string	"%s: %s"
	.text
	.p2align 4
	.type	parse_symbols, @function
parse_symbols:
.LVL257:
.LFB171:
	.loc 1 1409 1 view -0
	.cfi_startproc
	.loc 1 1410 3 view .LVU653
	.loc 1 1409 1 is_stmt 0 view .LVU654
	pushq	%r14
	.cfi_def_cfa_offset 16
	.cfi_offset 14, -16
	movq	%rdi, %r14
	pushq	%r13
	.cfi_def_cfa_offset 24
	.cfi_offset 13, -24
	movq	%rcx, %r13
	pushq	%r12
	.cfi_def_cfa_offset 32
	.cfi_offset 12, -32
	movl	%edx, %r12d
	pushq	%rbp
	.cfi_def_cfa_offset 40
	.cfi_offset 6, -40
	movq	%rsi, %rbp
	pushq	%rbx
	.cfi_def_cfa_offset 48
	.cfi_offset 3, -48
	.loc 1 1410 7 view .LVU655
	xorl	%ebx, %ebx
.LVL258:
.L202:
	.loc 1 1412 3 is_stmt 1 view .LVU656
.LBB446:
	.loc 1 1414 7 view .LVU657
	.loc 1 1414 30 is_stmt 0 view .LVU658
	movl	$44, %esi
	movq	%r14, %rdi
	call	strchr@PLT
.LVL259:
	.loc 1 1417 18 view .LVU659
	movq	%rbp, %rsi
	.loc 1 1414 30 view .LVU660
	movq	%rax, %rdi
.LVL260:
	.loc 1 1415 7 is_stmt 1 view .LVU661
	.loc 1 1417 7 view .LVU662
	.p2align 4,,10
	.p2align 3
.L192:
	.loc 1 1418 12 discriminator 1 view .LVU663
.LBB447:
.LBI447:
	.loc 1 1394 1 discriminator 1 view .LVU664
.LBB448:
	.loc 1 1396 3 discriminator 1 view .LVU665
	.loc 1 1396 9 is_stmt 0 discriminator 1 view .LVU666
	xorl	%eax, %eax
	jmp	.L196
.LVL261:
	.p2align 4,,10
	.p2align 3
.L198:
	.loc 1 1397 5 is_stmt 1 view .LVU667
	.loc 1 1397 5 is_stmt 0 view .LVU668
	addq	$1, %rax
.LVL262:
	.loc 1 1397 8 view .LVU669
	cmpb	%cl, %dl
	jne	.L197
.LVL263:
.L196:
	.loc 1 1396 9 is_stmt 1 view .LVU670
	.loc 1 1396 10 is_stmt 0 view .LVU671
	movzbl	(%rsi,%rax), %edx
	movzbl	(%r14,%rax), %ecx
	.loc 1 1396 9 view .LVU672
	testb	%dl, %dl
	jne	.L198
	.loc 1 1399 3 is_stmt 1 view .LVU673
.LVL264:
	.loc 1 1399 3 is_stmt 0 view .LVU674
.LBE448:
.LBE447:
	.loc 1 1417 7 view .LVU675
	cmpb	$44, %cl
	je	.L203
	testb	%cl, %cl
	jne	.L197
.L203:
	.loc 1 1418 65 view .LVU676
	movl	12(%rsi), %eax
	.loc 1 1418 12 view .LVU677
	testl	%eax, %eax
	jne	.L211
.L197:
	.loc 1 1421 11 is_stmt 1 view .LVU678
	.loc 1 1421 14 is_stmt 0 view .LVU679
	cmpb	$0, (%rsi)
	je	.L212
	.loc 1 1419 12 is_stmt 1 view .LVU680
	.loc 1 1419 17 is_stmt 0 view .LVU681
	addq	$16, %rsi
.LVL265:
	.loc 1 1419 17 view .LVU682
	jmp	.L192
.L211:
	.loc 1 1430 7 is_stmt 1 view .LVU683
	.loc 1 1433 15 is_stmt 0 view .LVU684
	orl	%eax, %ebx
.LVL266:
	.loc 1 1433 15 view .LVU685
	testb	%r12b, %r12b
	cmove	%ebx, %eax
.LVL267:
	.loc 1 1434 7 is_stmt 1 view .LVU686
	.loc 1 1434 10 is_stmt 0 view .LVU687
	testq	%rdi, %rdi
	je	.L191
	.loc 1 1436 7 is_stmt 1 view .LVU688
	.loc 1 1436 11 is_stmt 0 view .LVU689
	leaq	1(%rdi), %r14
.LVL268:
	.loc 1 1436 11 view .LVU690
.LBE446:
	.loc 1 1412 9 is_stmt 1 view .LVU691
	.loc 1 1413 5 is_stmt 0 view .LVU692
	movl	%eax, %ebx
	jmp	.L202
.L191:
	.loc 1 1440 1 view .LVU693
	popq	%rbx
	.cfi_remember_state
	.cfi_def_cfa_offset 40
	popq	%rbp
	.cfi_def_cfa_offset 32
.LVL269:
	.loc 1 1440 1 view .LVU694
	popq	%r12
	.cfi_def_cfa_offset 24
.LVL270:
	.loc 1 1440 1 view .LVU695
	popq	%r13
	.cfi_def_cfa_offset 16
.LVL271:
	.loc 1 1440 1 view .LVU696
	popq	%r14
	.cfi_def_cfa_offset 8
.LVL272:
	.loc 1 1440 1 view .LVU697
	ret
.LVL273:
.L212:
	.cfi_restore_state
.LBB450:
.LBB449:
	.loc 1 1423 15 is_stmt 1 view .LVU698
	.loc 1 1423 55 is_stmt 0 view .LVU699
	testq	%rdi, %rdi
	je	.L194
	.loc 1 1423 49 discriminator 1 view .LVU700
	subq	%r14, %rdi
.LVL274:
	.loc 1 1423 49 discriminator 1 view .LVU701
	movq	%rdi, %rcx
.LVL275:
.L195:
	.loc 1 1424 15 is_stmt 1 discriminator 4 view .LVU702
	movq	%r14, %rdx
	movl	$8, %esi
	xorl	%edi, %edi
	call	quotearg_n_style_mem@PLT
.LVL276:
	.loc 1 1424 15 is_stmt 0 discriminator 4 view .LVU703
	movl	$5, %edx
	movq	%r13, %rsi
	xorl	%edi, %edi
	movq	%rax, %rbx
.LVL277:
	.loc 1 1424 15 discriminator 4 view .LVU704
	call	dcgettext@PLT
.LVL278:
	xorl	%edi, %edi
	movq	%rbx, %r8
	xorl	%esi, %esi
	movq	%rax, %rcx
	leaq	.LC64(%rip), %rdx
	xorl	%eax, %eax
	call	nl_error
.LVL279:
	.loc 1 1426 15 is_stmt 1 discriminator 4 view .LVU705
	movl	$1, %edi
	call	usage
.LVL280:
.L194:
	.loc 1 1423 57 is_stmt 0 discriminator 2 view .LVU706
	movq	%r14, %rdi
.LVL281:
	.loc 1 1423 57 discriminator 2 view .LVU707
	call	strlen@PLT
.LVL282:
	.loc 1 1423 57 discriminator 2 view .LVU708
	movq	%rax, %rcx
	jmp	.L195
.LBE449:
.LBE450:
	.cfi_endproc
.LFE171:
	.size	parse_symbols, .-parse_symbols
	.section	.rodata.str1.1
.LC65:
	.string	"closing input file %s"
.LC66:
	.string	"closing output file %s"
	.text
	.p2align 4
	.type	cleanup, @function
cleanup:
.LFB155:
	.loc 1 971 1 is_stmt 1 view -0
	.cfi_startproc
	.loc 1 973 3 view .LVU710
	.loc 1 971 1 is_stmt 0 view .LVU711
	pushq	%r13
	.cfi_def_cfa_offset 16
	.cfi_offset 13, -16
	pushq	%r12
	.cfi_def_cfa_offset 24
	.cfi_offset 12, -24
	subq	$8, %rsp
	.cfi_def_cfa_offset 32
	.loc 1 973 3 view .LVU712
	movq	real_ibuf(%rip), %rdi
	call	free@PLT
.LVL283:
	.loc 1 974 3 is_stmt 1 view .LVU713
	movq	real_obuf(%rip), %rdi
	call	free@PLT
.LVL284:
	.loc 1 975 3 view .LVU714
.LBB461:
.LBB462:
	.loc 1 960 7 is_stmt 0 view .LVU715
	xorl	%edi, %edi
.LBE462:
.LBE461:
	.loc 1 975 13 view .LVU716
	movq	$0, real_ibuf(%rip)
	.loc 1 976 3 is_stmt 1 view .LVU717
	.loc 1 976 13 is_stmt 0 view .LVU718
	movq	$0, real_obuf(%rip)
	.loc 1 979 3 is_stmt 1 view .LVU719
.LVL285:
.LBB464:
.LBI461:
	.loc 1 958 1 view .LVU720
.LBB463:
	.loc 1 960 3 view .LVU721
	.loc 1 960 7 is_stmt 0 view .LVU722
	call	close@PLT
.LVL286:
	.loc 1 960 6 view .LVU723
	testl	%eax, %eax
	je	.L214
	xorl	%edi, %edi
	call	iclose.part.0
.LVL287:
	.loc 1 960 6 view .LVU724
.LBE463:
.LBE464:
	.loc 1 979 6 view .LVU725
	testl	%eax, %eax
	jne	.L229
.L214:
	.loc 1 985 3 is_stmt 1 view .LVU726
.LVL288:
.LBB465:
.LBI465:
	.loc 1 958 1 view .LVU727
.LBB466:
	.loc 1 960 3 view .LVU728
	.loc 1 960 7 is_stmt 0 view .LVU729
	movl	$1, %edi
	call	close@PLT
.LVL289:
	.loc 1 960 6 view .LVU730
	testl	%eax, %eax
	je	.L213
	movl	$1, %edi
	call	iclose.part.0
.LVL290:
	.loc 1 960 6 view .LVU731
.LBE466:
.LBE465:
	.loc 1 985 6 view .LVU732
	testl	%eax, %eax
	jne	.L230
.L213:
	.loc 1 988 1 view .LVU733
	addq	$8, %rsp
	.cfi_remember_state
	.cfi_def_cfa_offset 24
	popq	%r12
	.cfi_def_cfa_offset 16
	popq	%r13
	.cfi_def_cfa_offset 8
	ret
.L230:
	.cfi_restore_state
.LBB467:
.LBI467:
	.loc 1 970 1 is_stmt 1 view .LVU734
.LBB468:
	.loc 1 986 5 view .LVU735
	movq	output_file(%rip), %rsi
	movl	$4, %edi
	call	quotearg_style@PLT
.LVL291:
	movl	$5, %edx
	leaq	.LC66(%rip), %rsi
	xorl	%edi, %edi
	movq	%rax, %r13
	call	dcgettext@PLT
.LVL292:
	movq	%rax, %r12
	call	__errno_location@PLT
.LVL293:
	movq	%r13, %rcx
	movq	%r12, %rdx
	movl	$1, %edi
	movl	(%rax), %esi
	xorl	%eax, %eax
	call	nl_error
.LVL294:
.L229:
.LBE468:
.LBE467:
.LBB469:
	.loc 1 980 5 view .LVU736
	movq	input_file(%rip), %rsi
	movl	$4, %edi
	call	quotearg_style@PLT
.LVL295:
	movl	$5, %edx
	leaq	.LC65(%rip), %rsi
	xorl	%edi, %edi
	movq	%rax, %r13
	call	dcgettext@PLT
.LVL296:
	movq	%rax, %r12
	call	__errno_location@PLT
.LVL297:
	movq	%r13, %rcx
	movq	%r12, %rdx
	movl	$1, %edi
	movl	(%rax), %esi
	xorl	%eax, %eax
	call	nl_error
.LVL298:
.LBE469:
	.cfi_endproc
.LFE155:
	.size	cleanup, .-cleanup
	.p2align 4
	.type	process_signals, @function
process_signals:
.LFB156:
	.loc 1 996 1 view -0
	.cfi_startproc
	pushq	%rbp
	.cfi_def_cfa_offset 16
	.cfi_offset 6, -16
	pushq	%rbx
	.cfi_def_cfa_offset 24
	.cfi_offset 3, -24
	subq	$152, %rsp
	.cfi_def_cfa_offset 176
	.loc 1 996 1 is_stmt 0 view .LVU738
	movq	%fs:40, %rax
	movq	%rax, 136(%rsp)
	xorl	%eax, %eax
	.loc 1 997 3 is_stmt 1 view .LVU739
.LBB470:
	.loc 1 1003 7 is_stmt 0 view .LVU740
	movq	%rsp, %rbx
	.p2align 4,,10
	.p2align 3
.L232:
.LBE470:
	.loc 1 997 9 is_stmt 1 view .LVU741
	.loc 1 997 10 is_stmt 0 view .LVU742
	movl	interrupt_signal(%rip), %eax
	.loc 1 997 9 view .LVU743
	testl	%eax, %eax
	jne	.L235
	.loc 1 997 27 discriminator 1 view .LVU744
	movl	info_signal_count(%rip), %eax
	testl	%eax, %eax
	je	.L243
.L235:
.LBB471:
	.loc 1 999 7 is_stmt 1 view .LVU745
	.loc 1 1000 7 view .LVU746
	.loc 1 1001 7 view .LVU747
	.loc 1 1003 7 view .LVU748
	movq	%rbx, %rdx
	leaq	caught_signals(%rip), %rsi
	xorl	%edi, %edi
	call	sigprocmask@PLT
.LVL299:
	.loc 1 1007 7 view .LVU749
	.loc 1 1007 17 is_stmt 0 view .LVU750
	movl	interrupt_signal(%rip), %ebp
.LVL300:
	.loc 1 1008 7 is_stmt 1 view .LVU751
	.loc 1 1008 13 is_stmt 0 view .LVU752
	movl	info_signal_count(%rip), %eax
.LVL301:
	.loc 1 1010 7 is_stmt 1 view .LVU753
	.loc 1 1010 10 is_stmt 0 view .LVU754
	testl	%eax, %eax
	je	.L233
	.loc 1 1011 9 is_stmt 1 view .LVU755
	.loc 1 1011 35 is_stmt 0 view .LVU756
	subl	$1, %eax
.LVL302:
	.loc 1 1011 27 view .LVU757
	movl	%eax, info_signal_count(%rip)
.LVL303:
.L233:
	.loc 1 1013 7 is_stmt 1 view .LVU758
	xorl	%edx, %edx
	movq	%rbx, %rsi
	movl	$2, %edi
	call	sigprocmask@PLT
.LVL304:
	.loc 1 1015 7 view .LVU759
	.loc 1 1015 10 is_stmt 0 view .LVU760
	testl	%ebp, %ebp
	jne	.L244
	.loc 1 1017 7 is_stmt 1 view .LVU761
	call	print_stats
.LVL305:
	.loc 1 1018 7 view .LVU762
.LBE471:
	.loc 1 997 9 view .LVU763
	.loc 1 997 10 is_stmt 0 view .LVU764
	movl	interrupt_signal(%rip), %eax
	.loc 1 997 9 view .LVU765
	testl	%eax, %eax
	jne	.L235
	.loc 1 997 27 view .LVU766
	movl	info_signal_count(%rip), %eax
	testl	%eax, %eax
	jne	.L235
.LVL306:
.L243:
	.loc 1 1021 1 view .LVU767
	movq	136(%rsp), %rax
	xorq	%fs:40, %rax
	jne	.L245
	addq	$152, %rsp
	.cfi_remember_state
	.cfi_def_cfa_offset 24
	popq	%rbx
	.cfi_def_cfa_offset 16
	popq	%rbp
	.cfi_def_cfa_offset 8
	ret
.LVL307:
	.p2align 4,,10
	.p2align 3
.L244:
	.cfi_restore_state
.LBB472:
	.loc 1 1016 9 is_stmt 1 view .LVU768
	call	cleanup
.LVL308:
	.loc 1 1017 7 view .LVU769
	call	print_stats
.LVL309:
	.loc 1 1018 7 view .LVU770
	.loc 1 1019 9 view .LVU771
	movl	%ebp, %edi
	call	raise@PLT
.LVL310:
	jmp	.L232
.LVL311:
.L245:
	.loc 1 1019 9 is_stmt 0 view .LVU772
.LBE472:
	.loc 1 1021 1 view .LVU773
	call	__stack_chk_fail@PLT
.LVL312:
	.cfi_endproc
.LFE156:
	.size	process_signals, .-process_signals
	.p2align 4
	.type	ifd_reopen, @function
ifd_reopen:
.LVL313:
.LFB166:
	.loc 1 1327 1 is_stmt 1 view -0
	.cfi_startproc
	.loc 1 1327 1 is_stmt 0 view .LVU775
	pushq	%r14
	.cfi_def_cfa_offset 16
	.cfi_offset 14, -16
	movl	%edi, %r14d
	pushq	%r13
	.cfi_def_cfa_offset 24
	.cfi_offset 13, -24
	movq	%rsi, %r13
	pushq	%r12
	.cfi_def_cfa_offset 32
	.cfi_offset 12, -32
	pushq	%rbp
	.cfi_def_cfa_offset 40
	.cfi_offset 6, -40
	movl	%edx, %ebp
	pushq	%rbx
	.cfi_def_cfa_offset 48
	.cfi_offset 3, -48
	.loc 1 1327 1 view .LVU776
	movl	%ecx, %ebx
	jmp	.L248
.LVL314:
	.p2align 4,,10
	.p2align 3
.L251:
	.loc 1 1335 21 discriminator 1 view .LVU777
	call	__errno_location@PLT
.LVL315:
	.loc 1 1335 18 discriminator 1 view .LVU778
	cmpl	$4, (%rax)
	jne	.L246
.LVL316:
.L248:
	.loc 1 1328 3 is_stmt 1 discriminator 2 view .LVU779
	.loc 1 1330 3 discriminator 2 view .LVU780
	.loc 1 1332 7 discriminator 2 view .LVU781
	call	process_signals
.LVL317:
	.loc 1 1333 7 discriminator 2 view .LVU782
	.loc 1 1333 13 is_stmt 0 discriminator 2 view .LVU783
	movl	%ebx, %ecx
	movl	%ebp, %edx
	movq	%r13, %rsi
	movl	%r14d, %edi
	call	fd_reopen@PLT
.LVL318:
	movl	%eax, %r12d
.LVL319:
	.loc 1 1335 9 is_stmt 1 discriminator 2 view .LVU784
	.loc 1 1335 3 is_stmt 0 discriminator 2 view .LVU785
	testl	%eax, %eax
	js	.L251
.LVL320:
.L246:
	.loc 1 1338 1 view .LVU786
	popq	%rbx
	.cfi_def_cfa_offset 40
.LVL321:
	.loc 1 1338 1 view .LVU787
	movl	%r12d, %eax
	popq	%rbp
	.cfi_def_cfa_offset 32
.LVL322:
	.loc 1 1338 1 view .LVU788
	popq	%r12
	.cfi_def_cfa_offset 24
.LVL323:
	.loc 1 1338 1 view .LVU789
	popq	%r13
	.cfi_def_cfa_offset 16
.LVL324:
	.loc 1 1338 1 view .LVU790
	popq	%r14
	.cfi_def_cfa_offset 8
.LVL325:
	.loc 1 1338 1 view .LVU791
	ret
	.cfi_endproc
.LFE166:
	.size	ifd_reopen, .-ifd_reopen
	.p2align 4
	.type	ifstat, @function
ifstat:
.LVL326:
.LFB167:
	.loc 1 1344 1 is_stmt 1 view -0
	.cfi_startproc
	.loc 1 1344 1 is_stmt 0 view .LVU793
	pushq	%r12
	.cfi_def_cfa_offset 16
	.cfi_offset 12, -16
	pushq	%rbp
	.cfi_def_cfa_offset 24
	.cfi_offset 6, -24
	movl	%edi, %ebp
	pushq	%rbx
	.cfi_def_cfa_offset 32
	.cfi_offset 3, -32
	.loc 1 1344 1 view .LVU794
	movq	%rsi, %rbx
	jmp	.L254
.LVL327:
	.p2align 4,,10
	.p2align 3
.L257:
	.loc 1 1352 21 discriminator 1 view .LVU795
	call	__errno_location@PLT
.LVL328:
	.loc 1 1352 18 discriminator 1 view .LVU796
	cmpl	$4, (%rax)
	jne	.L252
.LVL329:
.L254:
	.loc 1 1345 3 is_stmt 1 discriminator 2 view .LVU797
	.loc 1 1347 3 discriminator 2 view .LVU798
	.loc 1 1349 7 discriminator 2 view .LVU799
	call	process_signals
.LVL330:
	.loc 1 1350 7 discriminator 2 view .LVU800
.LBB473:
.LBI473:
	.file 6 "/usr/include/x86_64-linux-gnu/sys/stat.h"
	.loc 6 467 1 discriminator 2 view .LVU801
.LBB474:
	.loc 6 469 3 discriminator 2 view .LVU802
	.loc 6 469 10 is_stmt 0 discriminator 2 view .LVU803
	movq	%rbx, %rdx
	movl	%ebp, %esi
	movl	$1, %edi
	call	__fxstat@PLT
.LVL331:
	movl	%eax, %r12d
.LVL332:
	.loc 6 469 10 discriminator 2 view .LVU804
.LBE474:
.LBE473:
	.loc 1 1352 9 is_stmt 1 discriminator 2 view .LVU805
	.loc 1 1352 3 is_stmt 0 discriminator 2 view .LVU806
	testl	%eax, %eax
	js	.L257
.LVL333:
.L252:
	.loc 1 1355 1 view .LVU807
	movl	%r12d, %eax
	popq	%rbx
	.cfi_def_cfa_offset 24
.LVL334:
	.loc 1 1355 1 view .LVU808
	popq	%rbp
	.cfi_def_cfa_offset 16
.LVL335:
	.loc 1 1355 1 view .LVU809
	popq	%r12
	.cfi_def_cfa_offset 8
.LVL336:
	.loc 1 1355 1 view .LVU810
	ret
	.cfi_endproc
.LFE167:
	.size	ifstat, .-ifstat
	.section	.rodata.str1.1
.LC67:
	.string	"setting flags for %s"
	.text
	.p2align 4
	.type	set_fd_flags, @function
set_fd_flags:
.LVL337:
.LFB184:
	.loc 1 2051 1 is_stmt 1 view -0
	.cfi_startproc
	.loc 1 2051 1 is_stmt 0 view .LVU812
	pushq	%r13
	.cfi_def_cfa_offset 16
	.cfi_offset 13, -16
	pushq	%r12
	.cfi_def_cfa_offset 24
	.cfi_offset 12, -24
	pushq	%rbp
	.cfi_def_cfa_offset 32
	.cfi_offset 6, -32
	pushq	%rbx
	.cfi_def_cfa_offset 40
	.cfi_offset 3, -40
	.loc 1 2055 6 view .LVU813
	movl	%esi, %ebx
	.loc 1 2051 1 view .LVU814
	subq	$168, %rsp
	.cfi_def_cfa_offset 208
	.loc 1 2051 1 view .LVU815
	movq	%fs:40, %rax
	movq	%rax, 152(%rsp)
	xorl	%eax, %eax
	.loc 1 2053 3 is_stmt 1 view .LVU816
.LVL338:
	.loc 1 2055 3 view .LVU817
	.loc 1 2055 6 is_stmt 0 view .LVU818
	andl	$-131329, %ebx
.LVL339:
	.loc 1 2055 6 view .LVU819
	jne	.L277
.LVL340:
.L258:
	.loc 1 2092 1 view .LVU820
	movq	152(%rsp), %rax
	xorq	%fs:40, %rax
	jne	.L278
	addq	$168, %rsp
	.cfi_remember_state
	.cfi_def_cfa_offset 40
	popq	%rbx
	.cfi_def_cfa_offset 32
	popq	%rbp
	.cfi_def_cfa_offset 24
	popq	%r12
	.cfi_def_cfa_offset 16
	popq	%r13
	.cfi_def_cfa_offset 8
	ret
.LVL341:
.L277:
	.cfi_restore_state
.LBB475:
	.loc 1 2057 23 view .LVU821
	movl	$3, %esi
	movl	%edi, %ebp
	movq	%rdx, %r12
	.loc 1 2057 7 is_stmt 1 view .LVU822
	.loc 1 2057 23 is_stmt 0 view .LVU823
	call	rpl_fcntl@PLT
.LVL342:
	.loc 1 2057 23 view .LVU824
	movl	%eax, %r13d
.LVL343:
	.loc 1 2058 7 is_stmt 1 view .LVU825
	.loc 1 2058 11 is_stmt 0 view .LVU826
	orl	%eax, %ebx
.LVL344:
	.loc 1 2059 7 is_stmt 1 view .LVU827
	.loc 1 2060 7 view .LVU828
	.loc 1 2060 10 is_stmt 0 view .LVU829
	testl	%eax, %eax
	js	.L261
	.loc 1 2062 12 is_stmt 1 view .LVU830
	.loc 1 2062 15 is_stmt 0 view .LVU831
	cmpl	%ebx, %eax
	je	.L258
	.loc 1 2064 11 is_stmt 1 view .LVU832
	.loc 1 2064 14 is_stmt 0 view .LVU833
	testl	$65536, %ebx
	jne	.L279
.LVL345:
.L262:
	.loc 1 2085 18 view .LVU834
	xorl	%eax, %eax
	movl	%ebx, %edx
	movl	$4, %esi
	movl	%ebp, %edi
	call	rpl_fcntl@PLT
.LVL346:
	.loc 1 2085 15 view .LVU835
	addl	$1, %eax
	jne	.L258
	jmp	.L261
.LVL347:
.L279:
.LBB476:
	.loc 1 2068 15 is_stmt 1 view .LVU836
	.loc 1 2069 15 view .LVU837
	.loc 1 2069 19 is_stmt 0 view .LVU838
	movq	%rsp, %rsi
	movl	%ebp, %edi
	call	ifstat
.LVL348:
	.loc 1 2069 18 view .LVU839
	testl	%eax, %eax
	jne	.L261
	.loc 1 2071 20 is_stmt 1 discriminator 1 view .LVU840
	.loc 1 2071 55 is_stmt 0 discriminator 1 view .LVU841
	movl	24(%rsp), %eax
	andl	$61440, %eax
	.loc 1 2071 50 discriminator 1 view .LVU842
	cmpl	$16384, %eax
	je	.L264
	.loc 1 2073 19 is_stmt 1 view .LVU843
	call	__errno_location@PLT
.LVL349:
	.loc 1 2073 25 is_stmt 0 view .LVU844
	movl	$20, (%rax)
	.loc 1 2074 19 is_stmt 1 view .LVU845
.LVL350:
.L261:
	.loc 1 2074 19 is_stmt 0 view .LVU846
.LBE476:
.LBB477:
	.loc 1 2090 9 is_stmt 1 view .LVU847
	movq	%r12, %rsi
	movl	$4, %edi
	call	quotearg_style@PLT
.LVL351:
	movl	$5, %edx
	leaq	.LC67(%rip), %rsi
	xorl	%edi, %edi
	movq	%rax, %r13
.LVL352:
	.loc 1 2090 9 is_stmt 0 view .LVU848
	call	dcgettext@PLT
.LVL353:
	movq	%rax, %r12
.LVL354:
	.loc 1 2090 9 view .LVU849
	call	__errno_location@PLT
.LVL355:
	movq	%r13, %rcx
	movq	%r12, %rdx
	movl	$1, %edi
	movl	(%rax), %esi
	xorl	%eax, %eax
	call	nl_error
.LVL356:
.L264:
	.loc 1 2090 9 view .LVU850
.LBE477:
.LBB478:
	.loc 1 2081 15 is_stmt 1 view .LVU851
	.loc 1 2081 25 is_stmt 0 view .LVU852
	andl	$-65537, %ebx
.LVL357:
	.loc 1 2081 25 view .LVU853
.LBE478:
	.loc 1 2084 11 is_stmt 1 view .LVU854
	.loc 1 2084 14 is_stmt 0 view .LVU855
	cmpl	%r13d, %ebx
	je	.L258
	jmp	.L262
.LVL358:
.L278:
	.loc 1 2084 14 view .LVU856
.LBE475:
	.loc 1 2092 1 view .LVU857
	call	__stack_chk_fail@PLT
.LVL359:
	.cfi_endproc
.LFE184:
	.size	set_fd_flags, .-set_fd_flags
	.section	.rodata.str1.8
	.align 8
.LC68:
	.string	"warning: partial read (%lu bytes); suggest iflag=fullblock"
	.align 8
.LC69:
	.string	"warning: partial read (%lu byte); suggest iflag=fullblock"
	.text
	.p2align 4
	.type	iread, @function
iread:
.LVL360:
.LFB161:
	.loc 1 1141 1 is_stmt 1 view -0
	.cfi_startproc
	.loc 1 1141 1 is_stmt 0 view .LVU859
	endbr64
	pushq	%r13
	.cfi_def_cfa_offset 16
	.cfi_offset 13, -16
	movl	%edi, %r13d
	pushq	%r12
	.cfi_def_cfa_offset 24
	.cfi_offset 12, -24
	pushq	%rbp
	.cfi_def_cfa_offset 32
	.cfi_offset 6, -32
	movq	%rsi, %rbp
	pushq	%rbx
	.cfi_def_cfa_offset 40
	.cfi_offset 3, -40
	movq	%rdx, %rbx
	subq	$8, %rsp
	.cfi_def_cfa_offset 48
	jmp	.L285
.LVL361:
	.p2align 4,,10
	.p2align 3
.L281:
	.loc 1 1159 9 is_stmt 1 view .LVU860
	.loc 1 1159 3 is_stmt 0 view .LVU861
	testq	%rax, %rax
	jns	.L284
	.loc 1 1159 3 view .LVU862
	call	__errno_location@PLT
.LVL362:
	.loc 1 1159 3 view .LVU863
	movl	(%rax), %edx
.L282:
	.loc 1 1159 20 discriminator 1 view .LVU864
	cmpl	$4, %edx
	jne	.L284
.LVL363:
.L285:
	.loc 1 1142 3 is_stmt 1 view .LVU865
	.loc 1 1143 3 view .LVU866
	.loc 1 1145 3 view .LVU867
	.loc 1 1147 7 view .LVU868
	call	process_signals
.LVL364:
	.loc 1 1148 7 view .LVU869
.LBB479:
.LBI479:
	.file 7 "/usr/include/x86_64-linux-gnu/bits/unistd.h"
	.loc 7 34 1 view .LVU870
.LBB480:
	.loc 7 36 3 view .LVU871
	.loc 7 44 3 view .LVU872
	.loc 7 44 10 is_stmt 0 view .LVU873
	movq	%rbx, %rdx
	movq	%rbp, %rsi
	movl	%r13d, %edi
	call	read@PLT
.LVL365:
	movq	%rax, %r12
.LVL366:
	.loc 7 44 10 view .LVU874
.LBE480:
.LBE479:
	.loc 1 1151 7 is_stmt 1 view .LVU875
	.loc 1 1151 10 is_stmt 0 view .LVU876
	cmpq	$-1, %rax
	jne	.L281
	.loc 1 1151 26 discriminator 1 view .LVU877
	call	__errno_location@PLT
.LVL367:
	.loc 1 1151 26 discriminator 1 view .LVU878
	movl	(%rax), %edx
	.loc 1 1151 23 discriminator 1 view .LVU879
	cmpl	$22, %edx
	jne	.L282
	.loc 1 1152 16 view .LVU880
	movq	prev_nread.7393(%rip), %rdx
	.loc 1 1152 11 view .LVU881
	testq	%rdx, %rdx
	jle	.L283
	.loc 1 1152 29 discriminator 1 view .LVU882
	cmpq	%rbx, %rdx
	jnb	.L283
	.loc 1 1153 11 view .LVU883
	testb	$64, 1+input_flags(%rip)
	jne	.L301
.LVL368:
.L283:
	.loc 1 1181 3 is_stmt 1 view .LVU884
	.loc 1 1181 14 is_stmt 0 view .LVU885
	movq	%r12, prev_nread.7393(%rip)
	.loc 1 1182 3 is_stmt 1 view .LVU886
	.loc 1 1183 1 is_stmt 0 view .LVU887
	addq	$8, %rsp
	.cfi_remember_state
	.cfi_def_cfa_offset 40
	movq	%r12, %rax
	popq	%rbx
	.cfi_def_cfa_offset 32
.LVL369:
	.loc 1 1183 1 view .LVU888
	popq	%rbp
	.cfi_def_cfa_offset 24
.LVL370:
	.loc 1 1183 1 view .LVU889
	popq	%r12
	.cfi_def_cfa_offset 16
	popq	%r13
	.cfi_def_cfa_offset 8
	ret
.LVL371:
	.p2align 4,,10
	.p2align 3
.L284:
	.cfi_restore_state
	.loc 1 1162 3 is_stmt 1 view .LVU890
	.loc 1 1162 6 is_stmt 0 view .LVU891
	testq	%r12, %r12
	jle	.L283
	cmpq	%rbx, %r12
	jnb	.L286
	.loc 1 1163 5 is_stmt 1 view .LVU892
	call	process_signals
.LVL372:
	.loc 1 1165 3 view .LVU893
.L287:
	.loc 1 1165 17 is_stmt 0 discriminator 1 view .LVU894
	cmpb	$0, warn_partial_read(%rip)
	je	.L283
	.loc 1 1167 7 is_stmt 1 view .LVU895
	.loc 1 1167 13 is_stmt 0 view .LVU896
	movq	prev_nread.7393(%rip), %r13
.LVL373:
	.loc 1 1167 10 view .LVU897
	testq	%r13, %r13
	jle	.L283
	.loc 1 1167 26 discriminator 1 view .LVU898
	cmpq	%rbx, %r13
	jnb	.L283
.LBB481:
	.loc 1 1169 11 is_stmt 1 view .LVU899
.LVL374:
	.loc 1 1170 11 view .LVU900
	.loc 1 1170 14 is_stmt 0 view .LVU901
	cmpl	$1, status_level(%rip)
	jne	.L302
.L288:
	.loc 1 1177 11 is_stmt 1 view .LVU902
	.loc 1 1177 29 is_stmt 0 view .LVU903
	movb	$0, warn_partial_read(%rip)
	jmp	.L283
.LVL375:
.L286:
	.loc 1 1177 29 view .LVU904
.LBE481:
	.loc 1 1165 3 is_stmt 1 view .LVU905
	.loc 1 1165 6 is_stmt 0 view .LVU906
	testq	%r12, %r12
	jg	.L287
	jmp	.L283
.LVL376:
	.p2align 4,,10
	.p2align 3
.L302:
.LBB484:
	.loc 1 1171 13 is_stmt 1 view .LVU907
.LBB482:
.LBI482:
	.loc 5 183 1 view .LVU908
.LBB483:
	.loc 5 187 3 view .LVU909
	.loc 5 188 3 view .LVU910
	.loc 5 188 3 is_stmt 0 view .LVU911
.LBE483:
.LBE482:
	.loc 1 1171 26 view .LVU912
	movq	%r13, %rcx
	xorl	%edi, %edi
	movl	$5, %r8d
	leaq	.LC68(%rip), %rdx
	leaq	.LC69(%rip), %rsi
	call	dcngettext@PLT
.LVL377:
	.loc 1 1171 13 view .LVU913
	movq	%r13, %rcx
	xorl	%esi, %esi
	xorl	%edi, %edi
	.loc 1 1171 26 view .LVU914
	movq	%rax, %rdx
	.loc 1 1171 13 view .LVU915
	xorl	%eax, %eax
	call	nl_error
.LVL378:
	jmp	.L288
.LVL379:
.L301:
	.loc 1 1171 13 view .LVU916
.LBE484:
	.loc 1 1155 11 is_stmt 1 view .LVU917
	.loc 1 1155 17 is_stmt 0 view .LVU918
	movl	$0, (%rax)
	.loc 1 1156 11 is_stmt 1 view .LVU919
.LVL380:
	.loc 1 1159 9 view .LVU920
	.loc 1 1162 3 view .LVU921
	.loc 1 1165 3 view .LVU922
	.loc 1 1156 17 is_stmt 0 view .LVU923
	xorl	%r12d, %r12d
	jmp	.L283
	.cfi_endproc
.LFE161:
	.size	iread, .-iread
	.p2align 4
	.type	iread_fullblock, @function
iread_fullblock:
.LVL381:
.LFB162:
	.loc 1 1188 1 is_stmt 1 view -0
	.cfi_startproc
	.loc 1 1188 1 is_stmt 0 view .LVU925
	endbr64
	.loc 1 1189 3 is_stmt 1 view .LVU926
.LVL382:
	.loc 1 1191 3 view .LVU927
	.loc 1 1191 9 view .LVU928
	testq	%rdx, %rdx
	je	.L306
	.loc 1 1188 1 is_stmt 0 view .LVU929
	pushq	%r13
	.cfi_def_cfa_offset 16
	.cfi_offset 13, -16
	.loc 1 1189 11 view .LVU930
	xorl	%r13d, %r13d
	.loc 1 1188 1 view .LVU931
	pushq	%r12
	.cfi_def_cfa_offset 24
	.cfi_offset 12, -24
	movl	%edi, %r12d
	pushq	%rbp
	.cfi_def_cfa_offset 32
	.cfi_offset 6, -32
	movq	%rsi, %rbp
	pushq	%rbx
	.cfi_def_cfa_offset 40
	.cfi_offset 3, -40
	movq	%rdx, %rbx
	subq	$8, %rsp
	.cfi_def_cfa_offset 48
	jmp	.L305
.LVL383:
	.p2align 4,,10
	.p2align 3
.L313:
.LBB485:
	.loc 1 1196 7 is_stmt 1 view .LVU932
	.loc 1 1196 10 is_stmt 0 view .LVU933
	je	.L307
	.loc 1 1198 7 is_stmt 1 view .LVU934
	.loc 1 1198 13 is_stmt 0 view .LVU935
	addq	%rax, %r13
.LVL384:
	.loc 1 1199 7 is_stmt 1 view .LVU936
	.loc 1 1199 13 is_stmt 0 view .LVU937
	addq	%rax, %rbp
.LVL385:
	.loc 1 1200 7 is_stmt 1 view .LVU938
	.loc 1 1200 7 is_stmt 0 view .LVU939
.LBE485:
	.loc 1 1191 9 is_stmt 1 view .LVU940
	subq	%rax, %rbx
.LVL386:
	.loc 1 1191 9 is_stmt 0 view .LVU941
	je	.L307
.LVL387:
.L305:
.LBB486:
	.loc 1 1193 7 is_stmt 1 view .LVU942
	.loc 1 1193 23 is_stmt 0 view .LVU943
	movq	%rbx, %rdx
	movq	%rbp, %rsi
	movl	%r12d, %edi
	call	iread
.LVL388:
	.loc 1 1194 7 is_stmt 1 view .LVU944
	.loc 1 1194 10 is_stmt 0 view .LVU945
	testq	%rax, %rax
	jns	.L313
.LBE486:
	.loc 1 1204 1 view .LVU946
	addq	$8, %rsp
	.cfi_remember_state
	.cfi_def_cfa_offset 40
	popq	%rbx
	.cfi_def_cfa_offset 32
.LVL389:
	.loc 1 1204 1 view .LVU947
	popq	%rbp
	.cfi_def_cfa_offset 24
.LVL390:
	.loc 1 1204 1 view .LVU948
	popq	%r12
	.cfi_def_cfa_offset 16
.LVL391:
	.loc 1 1204 1 view .LVU949
	popq	%r13
	.cfi_def_cfa_offset 8
.LVL392:
	.loc 1 1204 1 view .LVU950
	ret
.LVL393:
	.p2align 4,,10
	.p2align 3
.L307:
	.cfi_restore_state
	.loc 1 1204 1 view .LVU951
	addq	$8, %rsp
	.cfi_def_cfa_offset 40
	movq	%r13, %rax
.LVL394:
	.loc 1 1204 1 view .LVU952
	popq	%rbx
	.cfi_def_cfa_offset 32
	popq	%rbp
	.cfi_def_cfa_offset 24
.LVL395:
	.loc 1 1204 1 view .LVU953
	popq	%r12
	.cfi_def_cfa_offset 16
.LVL396:
	.loc 1 1204 1 view .LVU954
	popq	%r13
	.cfi_def_cfa_offset 8
.LVL397:
	.loc 1 1204 1 view .LVU955
	ret
.LVL398:
.L306:
	.cfi_restore 3
	.cfi_restore 6
	.cfi_restore 12
	.cfi_restore 13
	.loc 1 1189 11 view .LVU956
	xorl	%eax, %eax
	.loc 1 1204 1 view .LVU957
	ret
	.cfi_endproc
.LFE162:
	.size	iread_fullblock, .-iread_fullblock
	.p2align 4
	.type	iftruncate.constprop.0, @function
iftruncate.constprop.0:
.LVL399:
.LFB198:
	.loc 1 1377 1 is_stmt 1 view -0
	.cfi_startproc
	.loc 1 1377 1 is_stmt 0 view .LVU959
	pushq	%r12
	.cfi_def_cfa_offset 16
	.cfi_offset 12, -16
	pushq	%rbx
	.cfi_def_cfa_offset 24
	.cfi_offset 3, -24
	movq	%rdi, %rbx
	subq	$8, %rsp
	.cfi_def_cfa_offset 32
	jmp	.L316
.LVL400:
	.p2align 4,,10
	.p2align 3
.L319:
	.loc 1 1386 21 view .LVU960
	call	__errno_location@PLT
.LVL401:
	.loc 1 1386 18 view .LVU961
	cmpl	$4, (%rax)
	jne	.L314
.LVL402:
.L316:
	.loc 1 1379 3 is_stmt 1 view .LVU962
	.loc 1 1381 3 view .LVU963
	.loc 1 1383 7 view .LVU964
	call	process_signals
.LVL403:
	.loc 1 1384 7 view .LVU965
	.loc 1 1384 13 is_stmt 0 view .LVU966
	movq	%rbx, %rsi
	movl	$1, %edi
	call	ftruncate@PLT
.LVL404:
	movl	%eax, %r12d
.LVL405:
	.loc 1 1386 9 is_stmt 1 view .LVU967
	.loc 1 1386 3 is_stmt 0 view .LVU968
	testl	%eax, %eax
	js	.L319
.LVL406:
.L314:
	.loc 1 1389 1 view .LVU969
	addq	$8, %rsp
	.cfi_def_cfa_offset 24
	movl	%r12d, %eax
	popq	%rbx
	.cfi_def_cfa_offset 16
.LVL407:
	.loc 1 1389 1 view .LVU970
	popq	%r12
	.cfi_def_cfa_offset 8
.LVL408:
	.loc 1 1389 1 view .LVU971
	ret
	.cfi_endproc
.LFE198:
	.size	iftruncate.constprop.0, .-iftruncate.constprop.0
	.section	.rodata.str1.8
	.align 8
.LC70:
	.string	"failed to turn off O_DIRECT: %s"
	.text
	.p2align 4
	.type	iwrite.constprop.0, @function
iwrite.constprop.0:
.LVL409:
.LFB195:
	.loc 1 1212 1 is_stmt 1 view -0
	.cfi_startproc
	.loc 1 1214 3 view .LVU973
	.loc 1 1216 3 view .LVU974
	.loc 1 1212 1 is_stmt 0 view .LVU975
	pushq	%r13
	.cfi_def_cfa_offset 16
	.cfi_offset 13, -16
	pushq	%r12
	.cfi_def_cfa_offset 24
	.cfi_offset 12, -24
	pushq	%rbp
	.cfi_def_cfa_offset 32
	.cfi_offset 6, -32
	movq	%rdi, %rbp
	pushq	%rbx
	.cfi_def_cfa_offset 40
	.cfi_offset 3, -40
	movq	%rsi, %rbx
	subq	$8, %rsp
	.cfi_def_cfa_offset 48
	.loc 1 1216 6 view .LVU976
	testb	$64, 1+output_flags(%rip)
	je	.L321
	.loc 1 1216 33 view .LVU977
	cmpq	%rsi, output_blocksize(%rip)
	ja	.L354
.LVL410:
.L321:
	.loc 1 1240 9 is_stmt 1 view .LVU978
	xorl	%r12d, %r12d
	testq	%rbx, %rbx
	jne	.L333
	jmp	.L320
.LVL411:
	.p2align 4,,10
	.p2align 3
.L356:
.LBB491:
	.loc 1 1269 12 view .LVU979
	.loc 1 1269 15 is_stmt 0 view .LVU980
	je	.L355
.L328:
	.loc 1 1278 9 is_stmt 1 view .LVU981
	.loc 1 1278 23 is_stmt 0 view .LVU982
	addq	%rax, %r12
.LVL412:
.L330:
	.loc 1 1278 23 view .LVU983
.LBE491:
	.loc 1 1240 9 is_stmt 1 view .LVU984
	cmpq	%r12, %rbx
	jbe	.L329
.LVL413:
.L333:
.LBB496:
	.loc 1 1242 7 view .LVU985
	.loc 1 1243 7 view .LVU986
	call	process_signals
.LVL414:
	.loc 1 1246 7 view .LVU987
	.loc 1 1247 29 is_stmt 0 view .LVU988
	movl	conversions_mask(%rip), %r13d
	.loc 1 1246 25 view .LVU989
	movb	$0, final_op_was_seek(%rip)
	.loc 1 1247 7 is_stmt 1 view .LVU990
	.loc 1 1247 10 is_stmt 0 view .LVU991
	testl	$65536, %r13d
	je	.L324
	movq	%rbp, %rsi
	movq	%rbx, %rdx
.L326:
.LVL415:
.LBB492:
.LBB493:
	.loc 5 531 9 is_stmt 1 view .LVU992
	.loc 5 542 3 view .LVU993
	.loc 5 544 7 view .LVU994
	.loc 5 544 7 is_stmt 0 view .LVU995
.LBE493:
.LBE492:
.LBE496:
	.loc 2 34 3 is_stmt 1 view .LVU996
.LBB497:
.LBB495:
.LBB494:
	.loc 5 545 7 view .LVU997
	.loc 5 545 10 is_stmt 0 view .LVU998
	cmpb	$0, (%rsi)
	jne	.L324
	.loc 5 547 7 is_stmt 1 view .LVU999
	.loc 5 547 9 is_stmt 0 view .LVU1000
	addq	$1, %rsi
.LVL416:
	.loc 5 548 7 is_stmt 1 view .LVU1001
	.loc 5 549 7 view .LVU1002
	.loc 5 549 10 is_stmt 0 view .LVU1003
	subq	$1, %rdx
.LVL417:
	.loc 5 549 10 view .LVU1004
	je	.L325
	.loc 5 551 7 is_stmt 1 view .LVU1005
	.loc 5 551 10 is_stmt 0 view .LVU1006
	testb	$15, %dl
	jne	.L326
	.loc 5 556 4 is_stmt 1 view .LVU1007
	.loc 5 556 11 is_stmt 0 view .LVU1008
	movq	%rbp, %rdi
	call	memcmp@PLT
.LVL418:
	.loc 5 556 11 view .LVU1009
.LBE494:
.LBE495:
	.loc 1 1247 41 view .LVU1010
	testl	%eax, %eax
	je	.L325
.L324:
.LVL419:
	.loc 1 1262 9 is_stmt 1 view .LVU1011
	.loc 1 1262 20 is_stmt 0 view .LVU1012
	movq	%rbx, %rdx
	.loc 1 1262 35 view .LVU1013
	leaq	0(%rbp,%r12), %rsi
	.loc 1 1262 20 view .LVU1014
	movl	$1, %edi
	subq	%r12, %rdx
	call	write@PLT
.LVL420:
	.loc 1 1264 7 is_stmt 1 view .LVU1015
	.loc 1 1264 10 is_stmt 0 view .LVU1016
	testq	%rax, %rax
	jns	.L356
	.loc 1 1266 11 is_stmt 1 view .LVU1017
	.loc 1 1266 15 is_stmt 0 view .LVU1018
	call	__errno_location@PLT
.LVL421:
	.loc 1 1266 14 view .LVU1019
	cmpl	$4, (%rax)
	je	.L330
	.p2align 4,,10
	.p2align 3
.L329:
	.loc 1 1266 14 view .LVU1020
.LBE497:
	.loc 1 1281 3 is_stmt 1 view .LVU1021
	.loc 1 1281 17 is_stmt 0 view .LVU1022
	cmpb	$0, o_nocache(%rip)
	je	.L320
	testq	%r12, %r12
	jne	.L357
.LVL422:
.L320:
	.loc 1 1285 1 view .LVU1023
	addq	$8, %rsp
	.cfi_remember_state
	.cfi_def_cfa_offset 40
	movq	%r12, %rax
	popq	%rbx
	.cfi_def_cfa_offset 32
.LVL423:
	.loc 1 1285 1 view .LVU1024
	popq	%rbp
	.cfi_def_cfa_offset 24
.LVL424:
	.loc 1 1285 1 view .LVU1025
	popq	%r12
	.cfi_def_cfa_offset 16
	popq	%r13
	.cfi_def_cfa_offset 8
	ret
.LVL425:
	.p2align 4,,10
	.p2align 3
.L325:
	.cfi_restore_state
.LBB498:
	.loc 1 1249 11 is_stmt 1 view .LVU1026
	.loc 1 1249 15 is_stmt 0 view .LVU1027
	movl	$1, %edx
	movq	%rbx, %rsi
	movl	$1, %edi
	call	lseek@PLT
.LVL426:
	.loc 1 1249 14 view .LVU1028
	testq	%rax, %rax
	js	.L358
	.loc 1 1256 15 is_stmt 1 view .LVU1029
	.loc 1 1256 33 is_stmt 0 view .LVU1030
	movb	$1, final_op_was_seek(%rip)
	.loc 1 1257 15 is_stmt 1 view .LVU1031
.LVL427:
	.loc 1 1261 7 view .LVU1032
	.loc 1 1264 7 view .LVU1033
	.loc 1 1264 10 is_stmt 0 view .LVU1034
	movq	%rbx, %rax
	testq	%rbx, %rbx
	jns	.L328
.LVL428:
	.loc 1 1266 11 is_stmt 1 view .LVU1035
	.loc 1 1266 15 is_stmt 0 view .LVU1036
	call	__errno_location@PLT
.LVL429:
	.loc 1 1266 14 view .LVU1037
	cmpl	$4, (%rax)
	je	.L330
	jmp	.L329
.LVL430:
	.p2align 4,,10
	.p2align 3
.L358:
	.loc 1 1251 15 is_stmt 1 view .LVU1038
	.loc 1 1251 32 is_stmt 0 view .LVU1039
	andl	$-65537, %r13d
	movl	%r13d, conversions_mask(%rip)
	.loc 1 1261 7 is_stmt 1 view .LVU1040
	jmp	.L324
.LVL431:
	.p2align 4,,10
	.p2align 3
.L355:
	.loc 1 1274 11 view .LVU1041
	call	__errno_location@PLT
.LVL432:
	.loc 1 1274 17 is_stmt 0 view .LVU1042
	movl	$28, (%rax)
	.loc 1 1275 11 is_stmt 1 view .LVU1043
	jmp	.L329
	.p2align 4,,10
	.p2align 3
.L357:
	.loc 1 1275 11 is_stmt 0 view .LVU1044
.LBE498:
	.loc 1 1282 5 is_stmt 1 view .LVU1045
	movq	%r12, %rsi
	movl	$1, %edi
	call	invalidate_cache
.LVL433:
	.loc 1 1285 1 is_stmt 0 view .LVU1046
	addq	$8, %rsp
	.cfi_remember_state
	.cfi_def_cfa_offset 40
	movq	%r12, %rax
	popq	%rbx
	.cfi_def_cfa_offset 32
.LVL434:
	.loc 1 1285 1 view .LVU1047
	popq	%rbp
	.cfi_def_cfa_offset 24
.LVL435:
	.loc 1 1285 1 view .LVU1048
	popq	%r12
	.cfi_def_cfa_offset 16
.LVL436:
	.loc 1 1285 1 view .LVU1049
	popq	%r13
	.cfi_def_cfa_offset 8
	ret
.LVL437:
	.p2align 4,,10
	.p2align 3
.L354:
	.cfi_restore_state
.LBB499:
	.loc 1 1218 7 is_stmt 1 view .LVU1050
	.loc 1 1218 23 is_stmt 0 view .LVU1051
	movl	$3, %esi
	movl	$1, %edi
.LVL438:
	.loc 1 1218 23 view .LVU1052
	xorl	%eax, %eax
	call	rpl_fcntl@PLT
.LVL439:
	.loc 1 1219 7 is_stmt 1 view .LVU1053
	.loc 1 1219 11 is_stmt 0 view .LVU1054
	movl	$4, %esi
	movl	$1, %edi
	andb	$-65, %ah
.LVL440:
	.loc 1 1219 11 view .LVU1055
	movl	%eax, %edx
	xorl	%eax, %eax
	call	rpl_fcntl@PLT
.LVL441:
	.loc 1 1219 10 view .LVU1056
	testl	%eax, %eax
	je	.L322
	.loc 1 1220 11 view .LVU1057
	cmpl	$1, status_level(%rip)
	jne	.L359
.L322:
	.loc 1 1229 7 is_stmt 1 view .LVU1058
	.loc 1 1230 7 is_stmt 0 view .LVU1059
	xorl	%esi, %esi
	movl	$1, %edi
	.loc 1 1229 21 view .LVU1060
	movb	$1, o_nocache_eof(%rip)
	.loc 1 1230 7 is_stmt 1 view .LVU1061
	call	invalidate_cache
.LVL442:
	.loc 1 1234 7 view .LVU1062
	.loc 1 1234 24 is_stmt 0 view .LVU1063
	orl	$32768, conversions_mask(%rip)
	jmp	.L321
.L359:
	.loc 1 1221 9 is_stmt 1 view .LVU1064
	movq	output_file(%rip), %rdx
	xorl	%edi, %edi
	movl	$3, %esi
	call	quotearg_n_style_colon@PLT
.LVL443:
	.loc 1 1221 26 is_stmt 0 view .LVU1065
	xorl	%edi, %edi
	movl	$5, %edx
	leaq	.LC70(%rip), %rsi
	.loc 1 1221 9 view .LVU1066
	movq	%rax, %r13
	.loc 1 1221 26 view .LVU1067
	call	dcgettext@PLT
.LVL444:
	movq	%rax, %r12
	.loc 1 1221 19 view .LVU1068
	call	__errno_location@PLT
.LVL445:
	.loc 1 1221 9 view .LVU1069
	movq	%r13, %rcx
	movq	%r12, %rdx
	xorl	%edi, %edi
	movl	(%rax), %esi
	xorl	%eax, %eax
	call	nl_error
.LVL446:
	jmp	.L322
.LBE499:
	.cfi_endproc
.LFE195:
	.size	iwrite.constprop.0, .-iwrite.constprop.0
	.p2align 4
	.type	quit.constprop.0, @function
quit.constprop.0:
.LFB194:
	.loc 1 1033 1 is_stmt 1 view -0
	.cfi_startproc
	pushq	%rax
	.cfi_def_cfa_offset 16
	popq	%rax
	.cfi_def_cfa_offset 8
.LVL447:
	.loc 1 1035 3 view .LVU1071
.LBB500:
.LBI500:
	.loc 1 1024 1 view .LVU1072
.LBB501:
	.loc 1 1027 3 view .LVU1073
.LBE501:
.LBE500:
	.loc 1 1033 1 is_stmt 0 view .LVU1074
	subq	$8, %rsp
	.cfi_def_cfa_offset 16
.LBB503:
.LBB502:
	.loc 1 1027 3 view .LVU1075
	call	process_signals
.LVL448:
	.loc 1 1028 3 is_stmt 1 view .LVU1076
	call	cleanup
.LVL449:
	.loc 1 1029 3 view .LVU1077
	call	print_stats
.LVL450:
.LBE502:
.LBE503:
	.loc 1 1036 3 view .LVU1078
	movl	$1, %edi
	call	exit@PLT
.LVL451:
	.cfi_endproc
.LFE194:
	.size	quit.constprop.0, .-quit.constprop.0
	.section	.rodata.str1.1
.LC71:
	.string	"writing to %s"
	.text
	.p2align 4
	.type	write_output, @function
write_output:
.LFB164:
	.loc 1 1291 1 view -0
	.cfi_startproc
	.loc 1 1292 3 view .LVU1080
	.loc 1 1292 21 is_stmt 0 view .LVU1081
	movq	output_blocksize(%rip), %rsi
	movq	obuf(%rip), %rdi
	.loc 1 1291 1 view .LVU1082
	pushq	%r13
	.cfi_def_cfa_offset 16
	.cfi_offset 13, -16
	pushq	%r12
	.cfi_def_cfa_offset 24
	.cfi_offset 12, -24
	pushq	%rbx
	.cfi_def_cfa_offset 32
	.cfi_offset 3, -32
	.loc 1 1292 21 view .LVU1083
	call	iwrite.constprop.0
.LVL452:
	.loc 1 1293 3 is_stmt 1 view .LVU1084
	.loc 1 1293 11 is_stmt 0 view .LVU1085
	addq	%rax, w_bytes(%rip)
	.loc 1 1294 3 is_stmt 1 view .LVU1086
	.loc 1 1294 6 is_stmt 0 view .LVU1087
	cmpq	%rax, output_blocksize(%rip)
	jne	.L369
	.loc 1 1302 5 is_stmt 1 view .LVU1088
	.loc 1 1304 1 is_stmt 0 view .LVU1089
	popq	%rbx
	.cfi_remember_state
	.cfi_def_cfa_offset 24
	popq	%r12
	.cfi_def_cfa_offset 16
	.loc 1 1303 6 view .LVU1090
	movq	$0, oc(%rip)
	.loc 1 1302 11 view .LVU1091
	addq	$1, w_full(%rip)
	.loc 1 1303 3 is_stmt 1 view .LVU1092
	.loc 1 1304 1 is_stmt 0 view .LVU1093
	popq	%r13
	.cfi_def_cfa_offset 8
	ret
.L369:
	.cfi_restore_state
	.loc 1 1296 7 view .LVU1094
	movq	output_file(%rip), %rsi
	movl	$4, %edi
	movq	%rax, %rbx
	.loc 1 1296 7 is_stmt 1 view .LVU1095
	call	quotearg_style@PLT
.LVL453:
	.loc 1 1296 24 is_stmt 0 view .LVU1096
	xorl	%edi, %edi
	movl	$5, %edx
	leaq	.LC71(%rip), %rsi
	.loc 1 1296 7 view .LVU1097
	movq	%rax, %r13
	.loc 1 1296 24 view .LVU1098
	call	dcgettext@PLT
.LVL454:
	movq	%rax, %r12
	.loc 1 1296 17 view .LVU1099
	call	__errno_location@PLT
.LVL455:
	.loc 1 1296 7 view .LVU1100
	xorl	%edi, %edi
	movq	%r13, %rcx
	movq	%r12, %rdx
	movl	(%rax), %esi
	xorl	%eax, %eax
	call	nl_error
.LVL456:
	.loc 1 1297 7 is_stmt 1 view .LVU1101
	.loc 1 1297 10 is_stmt 0 view .LVU1102
	testq	%rbx, %rbx
	je	.L364
	.loc 1 1298 9 is_stmt 1 view .LVU1103
	.loc 1 1298 18 is_stmt 0 view .LVU1104
	addq	$1, w_partial(%rip)
.L364:
	.loc 1 1299 7 is_stmt 1 view .LVU1105
	call	quit.constprop.0
.LVL457:
	.cfi_endproc
.LFE164:
	.size	write_output, .-write_output
	.p2align 4
	.type	copy_with_block, @function
copy_with_block:
.LVL458:
.LFB182:
	.loc 1 1987 1 view -0
	.cfi_startproc
	.loc 1 1988 3 view .LVU1107
.LBB504:
	.loc 1 1988 8 view .LVU1108
	.loc 1 1988 26 view .LVU1109
.LBE504:
	.loc 1 1987 1 is_stmt 0 view .LVU1110
	pushq	%r12
	.cfi_def_cfa_offset 16
	.cfi_offset 12, -16
	leaq	(%rdi,%rsi), %r12
	pushq	%rbp
	.cfi_def_cfa_offset 24
	.cfi_offset 6, -24
	pushq	%rbx
	.cfi_def_cfa_offset 32
	.cfi_offset 3, -32
.LBB506:
	.loc 1 1988 3 view .LVU1111
	testq	%rsi, %rsi
	je	.L370
	movq	%rdi, %rbp
	jmp	.L379
.LVL459:
	.p2align 4,,10
	.p2align 3
.L372:
	.loc 1 2002 11 is_stmt 1 view .LVU1112
	.loc 1 2002 14 is_stmt 0 view .LVU1113
	cmpq	%rdx, %rbx
	je	.L386
	.loc 1 2004 16 is_stmt 1 view .LVU1114
	.loc 1 2004 19 is_stmt 0 view .LVU1115
	jnb	.L378
	.loc 1 2005 13 is_stmt 1 view .LVU1116
	.loc 1 2005 13 view .LVU1117
	movq	oc(%rip), %rcx
	movq	obuf(%rip), %rsi
	leaq	1(%rcx), %rdx
	cmpq	output_blocksize(%rip), %rdx
	movb	%al, (%rsi,%rcx)
	.loc 1 2005 13 view .LVU1118
	movq	%rdx, oc(%rip)
	jnb	.L387
.L378:
	.loc 1 2005 13 discriminator 3 view .LVU1119
	.loc 1 2006 11 discriminator 3 view .LVU1120
	.loc 1 2006 14 is_stmt 0 discriminator 3 view .LVU1121
	addq	$1, %rbx
	.loc 1 1988 37 discriminator 3 view .LVU1122
	addq	$1, %rbp
.LVL460:
	.loc 1 2006 14 discriminator 3 view .LVU1123
	movq	%rbx, col(%rip)
	.loc 1 1988 29 is_stmt 1 discriminator 3 view .LVU1124
.LVL461:
	.loc 1 1988 26 discriminator 3 view .LVU1125
	.loc 1 1988 3 is_stmt 0 discriminator 3 view .LVU1126
	cmpq	%rbp, %r12
	je	.L370
.LVL462:
.L379:
	.loc 1 1990 7 is_stmt 1 view .LVU1127
	.loc 1 1990 11 is_stmt 0 view .LVU1128
	movzbl	0(%rbp), %eax
	.loc 1 1990 10 view .LVU1129
	cmpb	newline_character(%rip), %al
	movq	col(%rip), %rbx
	movq	conversion_blocksize(%rip), %rdx
	jne	.L372
	.loc 1 1992 11 is_stmt 1 view .LVU1130
	.loc 1 1992 14 is_stmt 0 view .LVU1131
	cmpq	%rdx, %rbx
	jb	.L373
.L376:
	.loc 1 1998 11 is_stmt 1 view .LVU1132
	.loc 1 1998 15 is_stmt 0 view .LVU1133
	movq	$0, col(%rip)
	.loc 1 1988 29 is_stmt 1 view .LVU1134
.LVL463:
	.loc 1 1988 37 is_stmt 0 view .LVU1135
	addq	$1, %rbp
.LVL464:
	.loc 1 1988 26 is_stmt 1 view .LVU1136
	.loc 1 1988 3 is_stmt 0 view .LVU1137
	cmpq	%rbp, %r12
	jne	.L379
.LVL465:
.L370:
	.loc 1 1988 3 view .LVU1138
.LBE506:
	.loc 1 2009 1 view .LVU1139
	popq	%rbx
	.cfi_remember_state
	.cfi_def_cfa_offset 24
	popq	%rbp
	.cfi_def_cfa_offset 16
	popq	%r12
	.cfi_def_cfa_offset 8
	ret
.LVL466:
	.p2align 4,,10
	.p2align 3
.L388:
	.cfi_restore_state
.LBB507:
.LBB505:
	.loc 1 1996 17 is_stmt 1 discriminator 1 view .LVU1140
	call	write_output
.LVL467:
.L375:
	.loc 1 1996 17 discriminator 3 view .LVU1141
	.loc 1 1995 55 discriminator 3 view .LVU1142
	.loc 1 1995 56 is_stmt 0 discriminator 3 view .LVU1143
	addq	$1, %rbx
.LVL468:
	.loc 1 1995 29 is_stmt 1 discriminator 3 view .LVU1144
	.loc 1 1995 15 is_stmt 0 discriminator 3 view .LVU1145
	cmpq	%rbx, conversion_blocksize(%rip)
	jbe	.L376
.LVL469:
.L373:
	.loc 1 1996 17 is_stmt 1 view .LVU1146
	.loc 1 1996 17 view .LVU1147
	movq	oc(%rip), %rdx
	movq	obuf(%rip), %rcx
	movzbl	space_character(%rip), %esi
	leaq	1(%rdx), %rax
	cmpq	output_blocksize(%rip), %rax
	movq	%rax, oc(%rip)
	movb	%sil, (%rcx,%rdx)
	.loc 1 1996 17 view .LVU1148
	jb	.L375
	jmp	.L388
.LVL470:
	.p2align 4,,10
	.p2align 3
.L386:
	.loc 1 1996 17 is_stmt 0 view .LVU1149
.LBE505:
	.loc 1 2003 13 is_stmt 1 view .LVU1150
	.loc 1 2003 23 is_stmt 0 view .LVU1151
	addq	$1, r_truncate(%rip)
	jmp	.L378
	.p2align 4,,10
	.p2align 3
.L387:
	.loc 1 2005 13 is_stmt 1 discriminator 1 view .LVU1152
	call	write_output
.LVL471:
	movq	col(%rip), %rbx
	jmp	.L378
.LBE507:
	.cfi_endproc
.LFE182:
	.size	copy_with_block, .-copy_with_block
	.p2align 4
	.type	copy_with_unblock, @function
copy_with_unblock:
.LVL472:
.LFB183:
	.loc 1 2017 1 view -0
	.cfi_startproc
	.loc 1 2018 3 view .LVU1154
	.loc 1 2020 3 view .LVU1155
.LBB508:
	.loc 1 2020 8 view .LVU1156
	.loc 1 2020 22 view .LVU1157
	.loc 1 2020 3 is_stmt 0 view .LVU1158
	testq	%rsi, %rsi
	je	.L406
.LBE508:
	.loc 1 2017 1 view .LVU1159
	pushq	%r13
	.cfi_def_cfa_offset 16
	.cfi_offset 13, -16
	pushq	%r12
	.cfi_def_cfa_offset 24
	.cfi_offset 12, -24
	xorl	%r12d, %r12d
	pushq	%rbp
	.cfi_def_cfa_offset 32
	.cfi_offset 6, -32
	movq	%rdi, %rbp
	pushq	%rbx
	.cfi_def_cfa_offset 40
	.cfi_offset 3, -40
	movq	%rsi, %rbx
	subq	$8, %rsp
	.cfi_def_cfa_offset 48
	jmp	.L390
.LVL473:
	.p2align 4,,10
	.p2align 3
.L411:
.LBB512:
.LBB509:
	.loc 1 2026 11 is_stmt 1 view .LVU1160
	.loc 1 2028 11 is_stmt 0 view .LVU1161
	movq	oc(%rip), %rdx
	movq	obuf(%rip), %rcx
	.loc 1 2026 32 view .LVU1162
	movq	$0, pending_spaces.7607(%rip)
	.loc 1 2028 11 view .LVU1163
	movzbl	newline_character(%rip), %esi
	.loc 1 2026 15 view .LVU1164
	movq	$0, col(%rip)
	.loc 1 2027 11 is_stmt 1 view .LVU1165
.LVL474:
	.loc 1 2028 11 view .LVU1166
	.loc 1 2028 11 view .LVU1167
	leaq	1(%rdx), %rax
	cmpq	output_blocksize(%rip), %rax
	movq	%rax, oc(%rip)
	movb	%sil, (%rcx,%rdx)
	.loc 1 2028 11 view .LVU1168
	jnb	.L409
.LVL475:
.L392:
	.loc 1 2041 11 discriminator 3 view .LVU1169
.LBE509:
	.loc 1 2020 33 discriminator 3 view .LVU1170
	.loc 1 2020 22 discriminator 3 view .LVU1171
	.loc 1 2020 3 is_stmt 0 discriminator 3 view .LVU1172
	cmpq	%r12, %rbx
	jbe	.L410
.LVL476:
.L390:
.LBB510:
	.loc 1 2022 7 is_stmt 1 view .LVU1173
	.loc 1 2024 14 is_stmt 0 view .LVU1174
	movq	col(%rip), %rax
	.loc 1 2024 10 view .LVU1175
	cmpq	conversion_blocksize(%rip), %rax
	.loc 1 2022 12 view .LVU1176
	movzbl	0(%rbp,%r12), %r13d
.LVL477:
	.loc 1 2024 7 is_stmt 1 view .LVU1177
	.loc 1 2024 14 is_stmt 0 view .LVU1178
	leaq	1(%rax), %rdx
	movq	%rdx, col(%rip)
	.loc 1 2024 10 view .LVU1179
	jnb	.L411
	.loc 1 2030 12 is_stmt 1 view .LVU1180
	.loc 1 2030 18 is_stmt 0 view .LVU1181
	movzbl	space_character(%rip), %ecx
	movq	pending_spaces.7607(%rip), %rdx
	addq	$1, %r12
.LVL478:
	.loc 1 2030 15 view .LVU1182
	cmpb	%r13b, %cl
	jne	.L412
	.loc 1 2031 9 is_stmt 1 view .LVU1183
	.loc 1 2031 23 is_stmt 0 view .LVU1184
	addq	$1, %rdx
	movq	%rdx, pending_spaces.7607(%rip)
.LVL479:
	.loc 1 2041 11 is_stmt 1 view .LVU1185
.LBE510:
	.loc 1 2020 33 view .LVU1186
	.loc 1 2020 22 view .LVU1187
	.loc 1 2020 3 is_stmt 0 view .LVU1188
	cmpq	%r12, %rbx
	ja	.L390
.L410:
	.loc 1 2020 3 view .LVU1189
.LBE512:
	.loc 1 2044 1 view .LVU1190
	addq	$8, %rsp
	.cfi_remember_state
	.cfi_def_cfa_offset 40
	popq	%rbx
	.cfi_def_cfa_offset 32
.LVL480:
	.loc 1 2044 1 view .LVU1191
	popq	%rbp
	.cfi_def_cfa_offset 24
.LVL481:
	.loc 1 2044 1 view .LVU1192
	popq	%r12
	.cfi_def_cfa_offset 16
	popq	%r13
	.cfi_def_cfa_offset 8
.LVL482:
	.loc 1 2044 1 view .LVU1193
	ret
.LVL483:
	.p2align 4,,10
	.p2align 3
.L413:
	.cfi_restore_state
.LBB513:
.LBB511:
	.loc 1 2036 17 view .LVU1194
	movq	%rax, %rdx
	.p2align 4,,10
	.p2align 3
.L395:
	.loc 1 2041 11 is_stmt 1 view .LVU1195
	.loc 1 2041 11 view .LVU1196
	leaq	1(%rdx), %rax
	movb	%r13b, (%rdi,%rdx)
	.loc 1 2041 11 view .LVU1197
	movq	%rax, oc(%rip)
	cmpq	%rsi, %rax
	jb	.L392
.LVL484:
.L409:
	.loc 1 2041 11 discriminator 1 view .LVU1198
	call	write_output
.LVL485:
	jmp	.L392
.LVL486:
	.p2align 4,,10
	.p2align 3
.L412:
	.loc 1 2036 17 view .LVU1199
	movq	obuf(%rip), %rdi
	movq	oc(%rip), %rax
	movq	output_blocksize(%rip), %rsi
	testq	%rdx, %rdx
	jne	.L394
	jmp	.L413
	.p2align 4,,10
	.p2align 3
.L396:
	.loc 1 2038 15 discriminator 3 view .LVU1200
	.loc 1 2039 15 discriminator 3 view .LVU1201
	subq	$1, pending_spaces.7607(%rip)
	.loc 1 2036 17 discriminator 3 view .LVU1202
	je	.L395
	movzbl	space_character(%rip), %ecx
	.loc 1 2036 17 is_stmt 0 view .LVU1203
	movq	%rdx, %rax
.L394:
	.loc 1 2038 15 is_stmt 1 view .LVU1204
	.loc 1 2038 15 view .LVU1205
	leaq	1(%rax), %rdx
	movb	%cl, (%rdi,%rax)
	.loc 1 2038 15 view .LVU1206
	movq	%rdx, oc(%rip)
	cmpq	%rsi, %rdx
	jb	.L396
	.loc 1 2038 15 discriminator 1 view .LVU1207
	call	write_output
.LVL487:
	movq	obuf(%rip), %rdi
	movq	oc(%rip), %rdx
	movq	output_blocksize(%rip), %rsi
	jmp	.L396
.LVL488:
.L406:
	.cfi_def_cfa_offset 8
	.cfi_restore 3
	.cfi_restore 6
	.cfi_restore 12
	.cfi_restore 13
	.loc 1 2038 15 is_stmt 0 discriminator 1 view .LVU1208
	ret
.LBE511:
.LBE513:
	.cfi_endproc
.LFE183:
	.size	copy_with_unblock, .-copy_with_unblock
	.section	.rodata.str1.1
.LC72:
	.string	"cannot fstat %s"
.LC73:
	.string	"%s: cannot skip"
.LC74:
	.string	"%s: cannot seek"
.LC75:
	.string	"error reading %s"
	.text
	.p2align 4
	.type	skip, @function
skip:
.LVL489:
.LFB179:
	.loc 1 1799 1 is_stmt 1 view -0
	.cfi_startproc
	.loc 1 1799 1 is_stmt 0 view .LVU1210
	pushq	%r15
	.cfi_def_cfa_offset 16
	.cfi_offset 15, -16
	movl	%edi, %r15d
	pushq	%r14
	.cfi_def_cfa_offset 24
	.cfi_offset 14, -24
	movq	%rdx, %r14
	pushq	%r13
	.cfi_def_cfa_offset 32
	.cfi_offset 13, -32
	pushq	%r12
	.cfi_def_cfa_offset 40
	.cfi_offset 12, -40
	movq	%rcx, %r12
	pushq	%rbp
	.cfi_def_cfa_offset 48
	.cfi_offset 6, -48
	pushq	%rbx
	.cfi_def_cfa_offset 56
	.cfi_offset 3, -56
	movq	%r8, %rbx
	subq	$184, %rsp
	.cfi_def_cfa_offset 240
	.loc 1 1800 44 view .LVU1211
	movq	(%r8), %rbp
	.loc 1 1799 1 view .LVU1212
	movq	%rsi, (%rsp)
	movq	%fs:40, %rax
	movq	%rax, 168(%rsp)
	xorl	%eax, %eax
	.loc 1 1800 3 is_stmt 1 view .LVU1213
.LVL490:
	.loc 1 1806 3 view .LVU1214
	call	__errno_location@PLT
.LVL491:
	.loc 1 1807 28 is_stmt 0 view .LVU1215
	xorl	%edx, %edx
	.loc 1 1806 9 view .LVU1216
	movl	$0, (%rax)
	.loc 1 1807 3 is_stmt 1 view .LVU1217
	.loc 1 1806 3 is_stmt 0 view .LVU1218
	movq	%rax, %r13
	.loc 1 1807 28 view .LVU1219
	movabsq	$9223372036854775807, %rax
	divq	%r12
	.loc 1 1807 6 view .LVU1220
	cmpq	%r14, %rax
	jb	.L415
	.loc 1 1800 30 view .LVU1221
	movq	%r14, %rax
	.loc 1 1808 15 view .LVU1222
	movl	$1, %edx
	movl	%r15d, %edi
	.loc 1 1800 30 view .LVU1223
	imulq	%r12, %rax
.LVL492:
	.loc 1 1800 13 view .LVU1224
	addq	%rax, %rbp
.LVL493:
	.loc 1 1808 15 view .LVU1225
	movq	%rbp, %rsi
	call	lseek@PLT
.LVL494:
	.loc 1 1808 7 view .LVU1226
	testq	%rax, %rax
	js	.L416
	.loc 1 1810 7 is_stmt 1 view .LVU1227
	.loc 1 1810 10 is_stmt 0 view .LVU1228
	testl	%r15d, %r15d
	je	.L463
.LVL495:
	.p2align 4,,10
	.p2align 3
.L417:
	.loc 1 1829 11 is_stmt 1 view .LVU1229
	.loc 1 1830 11 view .LVU1230
	.loc 1 1830 18 is_stmt 0 view .LVU1231
	movq	$0, (%rbx)
	.loc 1 1829 19 view .LVU1232
	xorl	%r8d, %r8d
.LVL496:
.L414:
	.loc 1 1911 1 view .LVU1233
	movq	168(%rsp), %rax
	xorq	%fs:40, %rax
	jne	.L464
	addq	$184, %rsp
	.cfi_remember_state
	.cfi_def_cfa_offset 56
.LVL497:
	.loc 1 1911 1 view .LVU1234
	movq	%r8, %rax
	popq	%rbx
	.cfi_def_cfa_offset 48
.LVL498:
	.loc 1 1911 1 view .LVU1235
	popq	%rbp
	.cfi_def_cfa_offset 40
	popq	%r12
	.cfi_def_cfa_offset 32
.LVL499:
	.loc 1 1911 1 view .LVU1236
	popq	%r13
	.cfi_def_cfa_offset 24
	popq	%r14
	.cfi_def_cfa_offset 16
	popq	%r15
	.cfi_def_cfa_offset 8
.LVL500:
	.loc 1 1911 1 view .LVU1237
	ret
.LVL501:
.L415:
	.cfi_restore_state
.LBB514:
	.loc 1 1836 7 is_stmt 1 view .LVU1238
	.loc 1 1843 7 view .LVU1239
	.loc 1 1843 11 is_stmt 0 view .LVU1240
	xorl	%esi, %esi
	movl	$2, %edx
	movl	%r15d, %edi
	call	lseek@PLT
.LVL502:
	.loc 1 1843 10 view .LVU1241
	testq	%rax, %rax
	jns	.L442
	.loc 1 1836 11 view .LVU1242
	movl	$0, 12(%rsp)
.LVL503:
.L424:
	.loc 1 1870 7 is_stmt 1 view .LVU1243
	.loc 1 1871 7 view .LVU1244
	.loc 1 1871 10 is_stmt 0 view .LVU1245
	testl	%r15d, %r15d
	jne	.L428
	.loc 1 1873 11 is_stmt 1 view .LVU1246
.LBB515:
.LBI515:
	.loc 1 695 1 view .LVU1247
.LBB516:
	.loc 1 697 3 view .LVU1248
	.loc 1 697 6 is_stmt 0 view .LVU1249
	cmpq	$0, ibuf(%rip)
	je	.L465
.L429:
.LBE516:
.LBE515:
	.loc 1 1874 11 is_stmt 1 view .LVU1250
	.loc 1 1874 15 is_stmt 0 view .LVU1251
	movq	ibuf(%rip), %rbp
.LVL504:
	.p2align 4,,10
	.p2align 3
.L431:
	.loc 1 1882 7 is_stmt 1 view .LVU1252
.LBB518:
	.loc 1 1884 11 view .LVU1253
	.loc 1 1884 27 is_stmt 0 view .LVU1254
	movq	iread_fnc(%rip), %rax
	movq	%r12, %r8
	testq	%r14, %r14
	je	.L466
.LVL505:
.L433:
	.loc 1 1884 27 discriminator 4 view .LVU1255
	movq	%r8, %rdx
	movq	%rbp, %rsi
	movl	%r15d, %edi
	call	*%rax
.LVL506:
	.loc 1 1885 11 is_stmt 1 discriminator 4 view .LVU1256
	.loc 1 1885 14 is_stmt 0 discriminator 4 view .LVU1257
	testq	%rax, %rax
	js	.L467
	.loc 1 1897 16 is_stmt 1 view .LVU1258
	.loc 1 1897 19 is_stmt 0 view .LVU1259
	je	.L447
	.loc 1 1899 16 is_stmt 1 view .LVU1260
	.loc 1 1899 19 is_stmt 0 view .LVU1261
	testl	%r15d, %r15d
	jne	.L437
	.loc 1 1900 13 is_stmt 1 view .LVU1262
.LVL507:
.LBB519:
.LBI519:
	.loc 1 1780 1 view .LVU1263
.LBB520:
	.loc 1 1782 3 view .LVU1264
	addq	input_offset(%rip), %rax
.LVL508:
	.loc 1 1782 16 is_stmt 0 view .LVU1265
	movq	%rax, input_offset(%rip)
	.loc 1 1783 3 is_stmt 1 view .LVU1266
	.loc 1 1783 6 is_stmt 0 view .LVU1267
	jnc	.L437
	.loc 1 1784 5 is_stmt 1 view .LVU1268
	.loc 1 1784 27 is_stmt 0 view .LVU1269
	movb	$1, input_offset_overflow(%rip)
.L437:
	.loc 1 1784 27 view .LVU1270
.LBE520:
.LBE519:
	.loc 1 1902 11 is_stmt 1 view .LVU1271
	.loc 1 1902 14 is_stmt 0 view .LVU1272
	testq	%r14, %r14
	je	.L417
	.loc 1 1903 13 is_stmt 1 view .LVU1273
.LVL509:
	.loc 1 1903 13 is_stmt 0 view .LVU1274
.LBE518:
	.loc 1 1907 13 is_stmt 1 view .LVU1275
	.loc 1 1907 7 is_stmt 0 view .LVU1276
	subq	$1, %r14
.LVL510:
	.loc 1 1907 7 view .LVU1277
	jne	.L431
	.loc 1 1907 25 discriminator 1 view .LVU1278
	movq	(%rbx), %r8
	.loc 1 1907 22 discriminator 1 view .LVU1279
	testq	%r8, %r8
	je	.L414
.LVL511:
	.loc 1 1882 7 is_stmt 1 view .LVU1280
.LBB521:
	.loc 1 1884 11 view .LVU1281
	.loc 1 1884 27 is_stmt 0 view .LVU1282
	movq	iread_fnc(%rip), %rax
.LVL512:
.L432:
	.loc 1 1884 27 view .LVU1283
	xorl	%r14d, %r14d
	jmp	.L433
.LVL513:
.L416:
	.loc 1 1884 27 view .LVU1284
.LBE521:
	.loc 1 1836 7 is_stmt 1 view .LVU1285
	.loc 1 1836 11 is_stmt 0 view .LVU1286
	movl	0(%r13), %eax
	.loc 1 1843 11 view .LVU1287
	xorl	%esi, %esi
	movl	$2, %edx
	movl	%r15d, %edi
	.loc 1 1836 11 view .LVU1288
	movl	%eax, 12(%rsp)
.LVL514:
	.loc 1 1843 7 is_stmt 1 view .LVU1289
	.loc 1 1843 11 is_stmt 0 view .LVU1290
	call	lseek@PLT
.LVL515:
	.loc 1 1843 10 view .LVU1291
	testq	%rax, %rax
	js	.L424
	.loc 1 1848 11 is_stmt 1 view .LVU1292
	.loc 1 1848 14 is_stmt 0 view .LVU1293
	cmpl	$0, 12(%rsp)
	jne	.L425
.LVL516:
.L442:
	.loc 1 1857 27 view .LVU1294
	movl	$75, 12(%rsp)
.L425:
.LVL517:
	.loc 1 1860 11 is_stmt 1 view .LVU1295
	.loc 1 1861 13 is_stmt 0 view .LVU1296
	movq	(%rsp), %rdx
	movl	$3, %esi
	xorl	%edi, %edi
	.loc 1 1860 14 view .LVU1297
	testl	%r15d, %r15d
	jne	.L426
	.loc 1 1861 13 is_stmt 1 view .LVU1298
	call	quotearg_n_style_colon@PLT
.LVL518:
	.loc 1 1861 36 is_stmt 0 view .LVU1299
	movl	$5, %edx
	leaq	.LC73(%rip), %rsi
	.loc 1 1861 13 view .LVU1300
	movq	%rax, %r12
.LVL519:
	.loc 1 1861 13 view .LVU1301
	jmp	.L462
.LVL520:
	.p2align 4,,10
	.p2align 3
.L466:
	.loc 1 1861 13 view .LVU1302
	movq	(%rbx), %r8
.LVL521:
	.loc 1 1861 13 view .LVU1303
	jmp	.L432
.LVL522:
.L447:
	.loc 1 1861 13 view .LVU1304
	movq	%r14, %r8
	jmp	.L414
.LVL523:
.L428:
	.loc 1 1878 11 is_stmt 1 view .LVU1305
	call	alloc_obuf
.LVL524:
	.loc 1 1879 11 view .LVU1306
	.loc 1 1879 15 is_stmt 0 view .LVU1307
	movq	obuf(%rip), %rbp
.LVL525:
	.loc 1 1879 15 view .LVU1308
	jmp	.L431
.LVL526:
.L463:
	.loc 1 1879 15 view .LVU1309
.LBE514:
.LBB526:
	.loc 1 1812 12 is_stmt 1 view .LVU1310
	.loc 1 1813 12 view .LVU1311
	.loc 1 1813 16 is_stmt 0 view .LVU1312
	xorl	%edi, %edi
	leaq	16(%rsp), %rsi
	call	ifstat
.LVL527:
	.loc 1 1813 15 view .LVU1313
	testl	%eax, %eax
	jne	.L468
	.loc 1 1815 12 is_stmt 1 view .LVU1314
.LBB527:
.LBI527:
	.loc 5 705 1 view .LVU1315
.LVL528:
.LBB528:
	.loc 5 707 3 view .LVU1316
	.loc 5 707 33 is_stmt 0 view .LVU1317
	movl	40(%rsp), %eax
	movq	input_offset(%rip), %rcx
.LBE528:
.LBE527:
	.loc 1 1824 22 view .LVU1318
	xorl	%r8d, %r8d
.LBB530:
.LBB529:
	.loc 5 707 33 view .LVU1319
	andl	$53248, %eax
.LBE529:
.LBE530:
	.loc 1 1815 15 view .LVU1320
	cmpl	$32768, %eax
	jne	.L419
	.loc 1 1815 42 discriminator 1 view .LVU1321
	movq	64(%rsp), %rsi
	.loc 1 1815 37 discriminator 1 view .LVU1322
	leaq	(%rcx,%rbp), %rax
	cmpq	%rax, %rsi
	jb	.L469
.LVL529:
.L419:
	.loc 1 1825 12 is_stmt 1 view .LVU1323
.LBB531:
.LBI531:
	.loc 1 1780 1 view .LVU1324
.LBB532:
	.loc 1 1782 3 view .LVU1325
	addq	%rcx, %rbp
.LVL530:
	.loc 1 1782 16 is_stmt 0 view .LVU1326
	movq	%rbp, input_offset(%rip)
	.loc 1 1783 3 is_stmt 1 view .LVU1327
	.loc 1 1783 6 is_stmt 0 view .LVU1328
	jnc	.L414
	.loc 1 1784 5 is_stmt 1 view .LVU1329
	.loc 1 1784 27 is_stmt 0 view .LVU1330
	movb	$1, input_offset_overflow(%rip)
	.loc 1 1784 27 view .LVU1331
	jmp	.L414
.LVL531:
.L465:
	.loc 1 1784 27 view .LVU1332
.LBE532:
.LBE531:
.LBE526:
.LBB534:
.LBB522:
.LBB517:
	call	alloc_ibuf.part.0
.LVL532:
	jmp	.L429
.LVL533:
.L469:
	.loc 1 1784 27 view .LVU1333
.LBE517:
.LBE522:
.LBE534:
.LBB535:
	.loc 1 1820 16 is_stmt 1 view .LVU1334
	.loc 1 1820 35 is_stmt 0 view .LVU1335
	subq	%rsi, %rbp
	.loc 1 1820 24 view .LVU1336
	xorl	%edx, %edx
	.loc 1 1821 23 view .LVU1337
	subq	%rcx, %rsi
	.loc 1 1820 24 view .LVU1338
	movq	%rbp, %rax
	.loc 1 1821 23 view .LVU1339
	movq	%rsi, %rbp
	.loc 1 1820 24 view .LVU1340
	divq	%r12
	movq	%rax, %r8
.LVL534:
	.loc 1 1821 16 is_stmt 1 view .LVU1341
	.loc 1 1821 23 is_stmt 0 view .LVU1342
	jmp	.L419
.LVL535:
.L467:
	.loc 1 1821 23 view .LVU1343
.LBE535:
.LBB536:
.LBB523:
	.loc 1 1887 15 is_stmt 1 view .LVU1344
	.loc 1 1887 18 is_stmt 0 view .LVU1345
	testl	%r15d, %r15d
	jne	.L435
	.loc 1 1889 19 is_stmt 1 view .LVU1346
	movq	(%rsp), %rsi
	movl	$4, %edi
	call	quotearg_style@PLT
.LVL536:
	.loc 1 1889 36 is_stmt 0 view .LVU1347
	xorl	%edi, %edi
	movl	$5, %edx
	leaq	.LC75(%rip), %rsi
	.loc 1 1889 19 view .LVU1348
	movq	%rax, %r12
.LVL537:
	.loc 1 1889 36 view .LVU1349
	call	dcgettext@PLT
.LVL538:
	.loc 1 1889 19 view .LVU1350
	movl	0(%r13), %esi
	xorl	%edi, %edi
	movq	%r12, %rcx
	.loc 1 1889 36 view .LVU1351
	movq	%rax, %rdx
	.loc 1 1889 19 view .LVU1352
	xorl	%eax, %eax
	call	nl_error
.LVL539:
	.loc 1 1890 19 is_stmt 1 view .LVU1353
	.loc 1 1890 22 is_stmt 0 view .LVU1354
	testb	$1, 1+conversions_mask(%rip)
	jne	.L470
.LVL540:
.L427:
	.loc 1 1890 22 view .LVU1355
.LBE523:
	.loc 1 1866 11 is_stmt 1 view .LVU1356
	call	quit.constprop.0
.LVL541:
.L435:
.LBB524:
	.loc 1 1894 17 view .LVU1357
	movq	(%rsp), %rdx
	movl	$3, %esi
	xorl	%edi, %edi
.LVL542:
.L426:
	.loc 1 1894 17 is_stmt 0 view .LVU1358
.LBE524:
	.loc 1 1863 13 is_stmt 1 view .LVU1359
	call	quotearg_n_style_colon@PLT
.LVL543:
	.loc 1 1863 36 is_stmt 0 view .LVU1360
	movl	$5, %edx
	leaq	.LC74(%rip), %rsi
	.loc 1 1863 13 view .LVU1361
	movq	%rax, %r12
.LVL544:
.L462:
	.loc 1 1863 36 view .LVU1362
	xorl	%edi, %edi
	call	dcgettext@PLT
.LVL545:
	.loc 1 1863 13 view .LVU1363
	movl	12(%rsp), %esi
	movq	%r12, %rcx
	xorl	%edi, %edi
	.loc 1 1863 36 view .LVU1364
	movq	%rax, %rdx
	.loc 1 1863 13 view .LVU1365
	xorl	%eax, %eax
	call	nl_error
.LVL546:
	jmp	.L427
.LVL547:
.L470:
.LBB525:
	.loc 1 1891 21 is_stmt 1 view .LVU1366
	call	print_stats
.LVL548:
	jmp	.L427
.LVL549:
.L468:
	.loc 1 1891 21 is_stmt 0 view .LVU1367
.LBE525:
.LBE536:
.LBB537:
.LBB533:
	.loc 1 1814 14 is_stmt 1 view .LVU1368
	movq	(%rsp), %rsi
	movl	$4, %edi
	call	quotearg_style@PLT
.LVL550:
	movl	$5, %edx
	leaq	.LC72(%rip), %rsi
	xorl	%edi, %edi
	movq	%rax, %r12
.LVL551:
	.loc 1 1814 14 is_stmt 0 view .LVU1369
	call	dcgettext@PLT
.LVL552:
	movl	0(%r13), %esi
	movq	%r12, %rcx
	movl	$1, %edi
	movq	%rax, %rdx
	xorl	%eax, %eax
	call	nl_error
.LVL553:
.L464:
	.loc 1 1814 14 view .LVU1370
.LBE533:
.LBE537:
	.loc 1 1911 1 view .LVU1371
	call	__stack_chk_fail@PLT
.LVL554:
	.cfi_endproc
.LFE179:
	.size	skip, .-skip
	.section	.rodata.str1.1
.LC76:
	.string	"if"
.LC77:
	.string	"of"
.LC78:
	.string	"conv"
.LC79:
	.string	"iflag"
.LC80:
	.string	"oflag"
.LC81:
	.string	"status"
.LC82:
	.string	"ibs"
.LC83:
	.string	"obs"
.LC84:
	.string	"bs"
.LC85:
	.string	"cbs"
.LC86:
	.string	"skip"
.LC87:
	.string	"seek"
.LC88:
	.string	"count"
.LC89:
	.string	"count_bytes"
.LC90:
	.string	"skip_bytes"
.LC91:
	.string	"POSIXLY_CORRECT"
.LC92:
	.string	"/usr/local/share/locale"
.LC93:
	.string	"Stuart Kemp"
.LC94:
	.string	"David MacKenzie"
.LC95:
	.string	"Paul Rubin"
.LC96:
	.string	"unrecognized operand %s"
.LC97:
	.string	"invalid conversion"
.LC98:
	.string	"invalid input flag"
.LC99:
	.string	"invalid output flag"
.LC100:
	.string	"invalid status level"
.LC101:
	.string	"fullblock"
.LC102:
	.string	"seek_bytes"
	.section	.rodata.str1.8
	.align 8
.LC103:
	.string	"cannot combine any two of {ascii,ebcdic,ibm}"
	.align 8
.LC104:
	.string	"cannot combine block and unblock"
	.align 8
.LC105:
	.string	"cannot combine lcase and ucase"
	.align 8
.LC106:
	.string	"cannot combine excl and nocreat"
	.align 8
.LC107:
	.string	"cannot combine direct and nocache"
	.section	.rodata.str1.1
.LC108:
	.string	"standard input"
.LC109:
	.string	"failed to open %s"
.LC110:
	.string	"standard output"
	.section	.rodata.str1.8
	.align 8
.LC111:
	.string	"offset too large: cannot truncate to a length of seek=%lu (%lu-byte) blocks"
	.align 8
.LC112:
	.string	"failed to truncate to %lu bytes in output file %s"
	.align 8
.LC113:
	.string	"%s: cannot skip to specified offset"
	.align 8
.LC114:
	.string	"offset overflow while reading file %s"
	.align 8
.LC115:
	.string	"warning: invalid file offset after failed read"
	.align 8
.LC116:
	.string	"cannot work around kernel bug after all"
	.section	.rodata.str1.1
.LC117:
	.string	"error writing %s"
	.section	.rodata.str1.8
	.align 8
.LC118:
	.string	"failed to truncate to %ld bytes in output file %s"
	.section	.rodata.str1.1
.LC119:
	.string	"fdatasync failed for %s"
.LC120:
	.string	"fsync failed for %s"
	.section	.rodata.str1.8
	.align 8
.LC121:
	.string	"failed to discard cache for: %s"
	.section	.rodata.str1.1
.LC122:
	.string	"invalid number"
	.section	.text.startup,"ax",@progbits
	.p2align 4
	.globl	main
	.type	main, @function
main:
.LVL555:
.LFB186:
	.loc 1 2403 1 is_stmt 1 view -0
	.cfi_startproc
	.loc 1 2403 1 is_stmt 0 view .LVU1373
	endbr64
	pushq	%r15
	.cfi_def_cfa_offset 16
	.cfi_offset 15, -16
	pushq	%r14
	.cfi_def_cfa_offset 24
	.cfi_offset 14, -24
	pushq	%r13
	.cfi_def_cfa_offset 32
	.cfi_offset 13, -32
	pushq	%r12
	.cfi_def_cfa_offset 40
	.cfi_offset 12, -40
	movl	%edi, %r12d
.LBB670:
.LBB671:
	.loc 1 907 49 view .LVU1374
	leaq	.LC91(%rip), %rdi
.LVL556:
	.loc 1 907 49 view .LVU1375
.LBE671:
.LBE670:
	.loc 1 2403 1 view .LVU1376
	pushq	%rbp
	.cfi_def_cfa_offset 48
	.cfi_offset 6, -48
	movq	%rsi, %rbp
	pushq	%rbx
	.cfi_def_cfa_offset 56
	.cfi_offset 3, -56
	subq	$232, %rsp
	.cfi_def_cfa_offset 288
	.loc 1 2403 1 view .LVU1377
	movq	%fs:40, %rax
	movq	%rax, 216(%rsp)
	xorl	%eax, %eax
	.loc 1 2404 3 is_stmt 1 view .LVU1378
	.loc 1 2405 3 view .LVU1379
	.loc 1 2406 3 view .LVU1380
	.loc 1 2408 3 view .LVU1381
.LBB675:
.LBI670:
	.loc 1 905 1 view .LVU1382
.LBB672:
	.loc 1 907 3 view .LVU1383
	.loc 1 907 49 is_stmt 0 view .LVU1384
	call	getenv@PLT
.LVL557:
	.loc 1 912 3 view .LVU1385
	leaq	caught_signals(%rip), %rdi
	.loc 1 907 49 view .LVU1386
	movq	%rax, %rbx
.LVL558:
	.loc 1 911 3 is_stmt 1 view .LVU1387
	.loc 1 912 3 view .LVU1388
	call	sigemptyset@PLT
.LVL559:
	.loc 1 913 3 view .LVU1389
	.loc 1 913 6 is_stmt 0 view .LVU1390
	testq	%rbx, %rbx
	je	.L880
.L472:
	.loc 1 915 3 is_stmt 1 view .LVU1391
	leaq	64(%rsp), %rax
	xorl	%esi, %esi
	movl	$2, %edi
	movq	%rax, %rdx
	movq	%rax, 32(%rsp)
	call	sigaction@PLT
.LVL560:
	.loc 1 916 3 view .LVU1392
	.loc 1 916 6 is_stmt 0 view .LVU1393
	cmpq	$1, 64(%rsp)
	je	.L473
	.loc 1 917 5 is_stmt 1 view .LVU1394
	movl	$2, %esi
	leaq	caught_signals(%rip), %rdi
	call	sigaddset@PLT
.LVL561:
.L473:
	.loc 1 918 3 view .LVU1395
	.loc 1 918 15 is_stmt 0 view .LVU1396
	movdqa	caught_signals(%rip), %xmm0
	movdqa	16+caught_signals(%rip), %xmm1
	.loc 1 920 7 view .LVU1397
	movl	$10, %esi
	leaq	caught_signals(%rip), %rdi
	.loc 1 918 15 view .LVU1398
	movdqa	32+caught_signals(%rip), %xmm2
	movdqa	48+caught_signals(%rip), %xmm3
	movdqa	64+caught_signals(%rip), %xmm4
	movdqa	80+caught_signals(%rip), %xmm5
	movups	%xmm0, 72(%rsp)
	movdqa	96+caught_signals(%rip), %xmm6
	movdqa	112+caught_signals(%rip), %xmm7
	movups	%xmm1, 88(%rsp)
	movups	%xmm2, 104(%rsp)
	movups	%xmm3, 120(%rsp)
	movups	%xmm4, 136(%rsp)
	movups	%xmm5, 152(%rsp)
	movups	%xmm6, 168(%rsp)
	movups	%xmm7, 184(%rsp)
	.loc 1 920 3 is_stmt 1 view .LVU1399
	.loc 1 920 7 is_stmt 0 view .LVU1400
	call	sigismember@PLT
.LVL562:
	.loc 1 920 6 view .LVU1401
	testl	%eax, %eax
	jne	.L881
.L474:
	.loc 1 930 3 is_stmt 1 view .LVU1402
	.loc 1 930 7 is_stmt 0 view .LVU1403
	movl	$2, %esi
	leaq	caught_signals(%rip), %rdi
	call	sigismember@PLT
.LVL563:
	.loc 1 930 6 view .LVU1404
	testl	%eax, %eax
	jne	.L882
.L475:
.LBE672:
.LBE675:
	.loc 1 2410 33 is_stmt 1 view .LVU1405
	.loc 1 2411 3 view .LVU1406
	movq	0(%rbp), %rdi
	leaq	trans_table(%rip), %rbx
.LVL564:
	.loc 1 2411 3 is_stmt 0 view .LVU1407
	call	set_program_name@PLT
.LVL565:
	.loc 1 2412 3 is_stmt 1 view .LVU1408
	leaq	.LC10(%rip), %rsi
	movl	$6, %edi
	call	setlocale@PLT
.LVL566:
	.loc 1 2413 3 view .LVU1409
	leaq	.LC92(%rip), %rsi
	leaq	.LC50(%rip), %rdi
	call	bindtextdomain@PLT
.LVL567:
	.loc 1 2414 3 view .LVU1410
	leaq	.LC50(%rip), %rdi
	call	textdomain@PLT
.LVL568:
	.loc 1 2417 3 view .LVU1411
	leaq	maybe_close_stdout(%rip), %rdi
	call	atexit@PLT
.LVL569:
	.loc 1 2419 3 view .LVU1412
	.loc 1 2419 15 is_stmt 0 view .LVU1413
	call	getpagesize@PLT
.LVL570:
	.loc 1 2421 3 view .LVU1414
	subq	$8, %rsp
	.cfi_def_cfa_offset 296
	movq	%rbp, %rsi
	movq	Version(%rip), %r8
	.loc 1 2419 15 view .LVU1415
	cltq
	.loc 1 2421 3 view .LVU1416
	pushq	$0
	.cfi_def_cfa_offset 304
	movl	$1, %r9d
	movl	%r12d, %edi
	.loc 1 2419 15 view .LVU1417
	movq	%rax, page_size(%rip)
	.loc 1 2421 3 is_stmt 1 view .LVU1418
	leaq	.LC93(%rip), %rax
	leaq	.LC50(%rip), %rcx
	pushq	%rax
	.cfi_def_cfa_offset 312
	leaq	.LC94(%rip), %rax
	leaq	.LC21(%rip), %rdx
	pushq	%rax
	.cfi_def_cfa_offset 320
	leaq	.LC95(%rip), %rax
	pushq	%rax
	.cfi_def_cfa_offset 328
	leaq	usage(%rip), %rax
	pushq	%rax
	.cfi_def_cfa_offset 336
	xorl	%eax, %eax
	call	parse_gnu_standard_options_only@PLT
.LVL571:
	.loc 1 2423 3 view .LVU1419
	.loc 1 2423 25 is_stmt 0 view .LVU1420
	movb	$0, close_stdout_required(%rip)
	.loc 1 2426 3 is_stmt 1 view .LVU1421
.LVL572:
	.loc 1 2426 15 view .LVU1422
	.loc 1 2423 25 is_stmt 0 view .LVU1423
	addq	$48, %rsp
	.cfi_def_cfa_offset 288
	xorl	%eax, %eax
.LVL573:
	.p2align 4,,10
	.p2align 3
.L476:
	.loc 1 2427 5 is_stmt 1 discriminator 3 view .LVU1424
	.loc 1 2427 20 is_stmt 0 discriminator 3 view .LVU1425
	movb	%al, (%rbx,%rax)
	.loc 1 2426 24 is_stmt 1 discriminator 3 view .LVU1426
.LVL574:
	.loc 1 2426 15 discriminator 3 view .LVU1427
	addq	$1, %rax
.LVL575:
	.loc 1 2426 3 is_stmt 0 discriminator 3 view .LVU1428
	cmpq	$256, %rax
	jne	.L476
	.loc 1 2430 3 is_stmt 1 view .LVU1429
.LVL576:
.LBB676:
.LBI676:
	.loc 1 1490 1 view .LVU1430
.LBB677:
	.loc 1 1492 3 view .LVU1431
	.loc 1 1493 3 view .LVU1432
	.loc 1 1494 3 view .LVU1433
	.loc 1 1495 3 view .LVU1434
	.loc 1 1497 3 view .LVU1435
.LBB678:
	.loc 1 1497 8 view .LVU1436
	.loc 1 1497 12 is_stmt 0 view .LVU1437
	movl	optind(%rip), %eax
.LVL577:
	.loc 1 1497 24 is_stmt 1 view .LVU1438
	.loc 1 1497 3 is_stmt 0 view .LVU1439
	cmpl	%eax, %r12d
	jle	.L679
.LBE678:
	.loc 1 1495 13 view .LVU1440
	movq	$0, 16(%rsp)
	movslq	%eax, %rdx
	notl	%eax
.LVL578:
	.loc 1 1494 13 view .LVU1441
	xorl	%r14d, %r14d
	addl	%r12d, %eax
	leaq	0(%rbp,%rdx,8), %r15
	.loc 1 1492 10 view .LVU1442
	movq	$0, 8(%rsp)
	.loc 1 1493 13 view .LVU1443
	movq	$-1, %r12
.LVL579:
	.loc 1 1493 13 view .LVU1444
	addq	%rdx, %rax
	leaq	8(%rbp,%rax,8), %rbp
.LVL580:
	.p2align 4,,10
	.p2align 3
.L522:
.LBB752:
.LBB679:
	.loc 1 1499 7 is_stmt 1 view .LVU1445
	.loc 1 1499 19 is_stmt 0 view .LVU1446
	movq	(%r15), %r13
.LVL581:
	.loc 1 1500 7 is_stmt 1 view .LVU1447
	.loc 1 1500 25 is_stmt 0 view .LVU1448
	movl	$61, %esi
	movq	%r13, %rdi
	call	strchr@PLT
.LVL582:
	.loc 1 1502 7 is_stmt 1 view .LVU1449
	.loc 1 1502 10 is_stmt 0 view .LVU1450
	testq	%rax, %rax
	je	.L518
	.loc 1 1508 7 is_stmt 1 view .LVU1451
	.loc 1 1508 10 is_stmt 0 view .LVU1452
	leaq	1(%rax), %rdi
.LVL583:
	.loc 1 1510 7 is_stmt 1 view .LVU1453
.LBB680:
.LBI680:
	.loc 1 1484 1 view .LVU1454
.LBE680:
.LBE679:
.LBE752:
.LBE677:
.LBE676:
	.loc 1 1486 3 view .LVU1455
.LBB798:
.LBB783:
.LBB753:
.LBB743:
.LBB685:
.LBB681:
.LBI681:
	.loc 1 1394 1 view .LVU1456
.LBB682:
	.loc 1 1396 3 view .LVU1457
	.loc 1 1396 9 view .LVU1458
	.loc 1 1396 10 is_stmt 0 view .LVU1459
	movl	$105, %ecx
.LBE682:
.LBE681:
.LBE685:
	.loc 1 1508 10 view .LVU1460
	movq	%r13, %rax
	leaq	.LC76(%rip), %rdx
.LVL584:
	.p2align 4,,10
	.p2align 3
.L480:
.LBB686:
.LBB684:
.LBB683:
	.loc 1 1397 5 is_stmt 1 view .LVU1461
	.loc 1 1397 13 is_stmt 0 view .LVU1462
	addq	$1, %rax
.LVL585:
	.loc 1 1397 27 view .LVU1463
	addq	$1, %rdx
.LVL586:
	.loc 1 1397 8 view .LVU1464
	cmpb	%cl, -1(%rax)
	jne	.L681
	.loc 1 1396 9 is_stmt 1 view .LVU1465
	.loc 1 1396 10 is_stmt 0 view .LVU1466
	movzbl	(%rdx), %ecx
	.loc 1 1396 9 view .LVU1467
	testb	%cl, %cl
	jne	.L480
	.loc 1 1399 3 is_stmt 1 view .LVU1468
	.loc 1 1399 11 is_stmt 0 view .LVU1469
	movzbl	(%rax), %eax
.LVL587:
	.loc 1 1399 11 view .LVU1470
.LBE683:
.LBE684:
.LBE686:
	.loc 1 1510 10 view .LVU1471
	cmpb	$61, %al
	je	.L713
	testb	%al, %al
	jne	.L681
.L713:
	.loc 1 1511 9 is_stmt 1 view .LVU1472
	.loc 1 1511 20 is_stmt 0 view .LVU1473
	movq	%rdi, input_file(%rip)
.LVL588:
.L482:
	.loc 1 1511 20 view .LVU1474
.LBE743:
	.loc 1 1497 34 is_stmt 1 view .LVU1475
	.loc 1 1497 24 view .LVU1476
	addq	$8, %r15
	.loc 1 1497 3 is_stmt 0 view .LVU1477
	cmpq	%r15, %rbp
	jne	.L522
.LBE753:
	.loc 1 1581 3 is_stmt 1 view .LVU1478
	.loc 1 1581 6 is_stmt 0 view .LVU1479
	movq	8(%rsp), %rax
	testq	%rax, %rax
	je	.L477
	.loc 1 1582 5 is_stmt 1 view .LVU1480
	.loc 1 1582 40 is_stmt 0 view .LVU1481
	movq	%rax, output_blocksize(%rip)
	.loc 1 1582 21 view .LVU1482
	movq	%rax, input_blocksize(%rip)
	.loc 1 1590 3 is_stmt 1 view .LVU1483
	.loc 1 1592 3 view .LVU1484
.LVL589:
.L523:
	.loc 1 1594 3 view .LVU1485
	.loc 1 1594 6 is_stmt 0 view .LVU1486
	cmpq	$0, conversion_blocksize(%rip)
	jne	.L525
	.loc 1 1595 5 is_stmt 1 view .LVU1487
	.loc 1 1595 22 is_stmt 0 view .LVU1488
	andl	$-25, conversions_mask(%rip)
.L525:
	.loc 1 1597 3 is_stmt 1 view .LVU1489
	.loc 1 1597 19 is_stmt 0 view .LVU1490
	movl	input_flags(%rip), %eax
	.loc 1 1597 6 view .LVU1491
	testl	$1052672, %eax
	je	.L526
	.loc 1 1598 5 is_stmt 1 view .LVU1492
	.loc 1 1598 17 is_stmt 0 view .LVU1493
	orl	$1052672, %eax
	movl	%eax, input_flags(%rip)
.L526:
	.loc 1 1600 3 is_stmt 1 view .LVU1494
	.loc 1 1600 20 is_stmt 0 view .LVU1495
	movl	output_flags(%rip), %esi
	.loc 1 1600 6 view .LVU1496
	testb	$1, %sil
	jne	.L883
	.loc 1 1606 3 is_stmt 1 view .LVU1497
	.loc 1 1606 19 is_stmt 0 view .LVU1498
	movl	input_flags(%rip), %ecx
	.loc 1 1606 6 view .LVU1499
	testb	$16, %cl
	jne	.L884
	.loc 1 1612 3 is_stmt 1 view .LVU1500
	.loc 1 1612 6 is_stmt 0 view .LVU1501
	testb	$12, %sil
	jne	.L885
	.loc 1 1620 3 is_stmt 1 view .LVU1502
	.loc 1 1620 6 is_stmt 0 view .LVU1503
	testb	$8, %cl
	je	.L531
	.loc 1 1620 34 view .LVU1504
	testq	%r14, %r14
	je	.L532
	.loc 1 1622 7 is_stmt 1 view .LVU1505
	movq	%r14, %rax
	xorl	%edx, %edx
	divq	input_blocksize(%rip)
	.loc 1 1622 20 is_stmt 0 view .LVU1506
	movq	%rax, skip_records(%rip)
	.loc 1 1623 7 is_stmt 1 view .LVU1507
	.loc 1 1623 18 is_stmt 0 view .LVU1508
	movq	%rdx, skip_bytes(%rip)
.L532:
	.loc 1 1628 3 is_stmt 1 view .LVU1509
	.loc 1 1628 6 is_stmt 0 view .LVU1510
	testb	$4, %cl
	je	.L533
	.loc 1 1628 35 view .LVU1511
	cmpq	$-1, %r12
	je	.L534
	.loc 1 1630 7 is_stmt 1 view .LVU1512
	movq	%r12, %rax
	xorl	%edx, %edx
	divq	input_blocksize(%rip)
	.loc 1 1630 19 is_stmt 0 view .LVU1513
	movq	%rax, max_records(%rip)
	.loc 1 1631 7 is_stmt 1 view .LVU1514
	.loc 1 1631 17 is_stmt 0 view .LVU1515
	movq	%rdx, max_bytes(%rip)
.L534:
	.loc 1 1636 3 is_stmt 1 view .LVU1516
	.loc 1 1636 35 is_stmt 0 view .LVU1517
	movq	16(%rsp), %rax
	.loc 1 1636 6 view .LVU1518
	testb	$16, %sil
	je	.L535
	.loc 1 1636 35 view .LVU1519
	testq	%rax, %rax
	je	.L536
	.loc 1 1638 7 is_stmt 1 view .LVU1520
	xorl	%edx, %edx
	divq	output_blocksize(%rip)
	.loc 1 1638 20 is_stmt 0 view .LVU1521
	movq	%rax, seek_records(%rip)
	.loc 1 1639 7 is_stmt 1 view .LVU1522
	.loc 1 1639 18 is_stmt 0 view .LVU1523
	movq	%rdx, seek_bytes(%rip)
.L536:
	.loc 1 1648 3 is_stmt 1 view .LVU1524
	.loc 1 1649 26 is_stmt 0 view .LVU1525
	movl	conversions_mask(%rip), %ebp
	.loc 1 1649 57 view .LVU1526
	movl	%ecx, %eax
	andl	$1, %eax
	.loc 1 1649 26 view .LVU1527
	movl	%ebp, %edx
	andl	$2048, %edx
	.loc 1 1649 39 view .LVU1528
	orl	%eax, %edx
	jne	.L537
	.loc 1 1650 6 view .LVU1529
	cmpq	$0, skip_records(%rip)
	je	.L886
.L538:
	.loc 1 1648 21 view .LVU1530
	movb	$1, warn_partial_read(%rip)
	.loc 1 1654 3 is_stmt 1 view .LVU1531
	.loc 1 1656 16 is_stmt 0 view .LVU1532
	leaq	iread(%rip), %rax
.L540:
	.loc 1 1654 13 view .LVU1533
	movq	%rax, iread_fnc(%rip)
	.loc 1 1657 3 is_stmt 1 view .LVU1534
	.loc 1 1657 15 is_stmt 0 view .LVU1535
	movl	%ecx, %eax
	andl	$-2, %eax
	movl	%eax, input_flags(%rip)
	.loc 1 1659 3 is_stmt 1 view .LVU1536
	.loc 1 1659 7 is_stmt 0 view .LVU1537
	movl	%ebp, %eax
	andl	$7, %eax
.LVL590:
.LBB754:
.LBI754:
	.loc 1 763 1 is_stmt 1 view .LVU1538
.LBB755:
	.loc 1 765 3 view .LVU1539
	.loc 1 765 10 is_stmt 0 view .LVU1540
	leal	-1(%rax), %edx
.LBE755:
.LBE754:
	.loc 1 1659 6 view .LVU1541
	testl	%eax, %edx
	jne	.L887
	.loc 1 1661 3 is_stmt 1 view .LVU1542
	.loc 1 1661 7 is_stmt 0 view .LVU1543
	movl	%ebp, %eax
	andl	$24, %eax
.LVL591:
.LBB756:
.LBI756:
	.loc 1 763 1 is_stmt 1 view .LVU1544
.LBB757:
	.loc 1 765 3 view .LVU1545
	.loc 1 765 10 is_stmt 0 view .LVU1546
	leal	-1(%rax), %edx
.LBE757:
.LBE756:
	.loc 1 1661 6 view .LVU1547
	testl	%eax, %edx
	jne	.L888
	.loc 1 1663 3 is_stmt 1 view .LVU1548
	.loc 1 1663 7 is_stmt 0 view .LVU1549
	movl	%ebp, %eax
	andl	$96, %eax
.LVL592:
.LBB758:
.LBI758:
	.loc 1 763 1 is_stmt 1 view .LVU1550
.LBB759:
	.loc 1 765 3 view .LVU1551
	.loc 1 765 10 is_stmt 0 view .LVU1552
	leal	-1(%rax), %edx
.LBE759:
.LBE758:
	.loc 1 1663 6 view .LVU1553
	testl	%eax, %edx
	jne	.L889
	.loc 1 1665 3 is_stmt 1 view .LVU1554
	.loc 1 1665 7 is_stmt 0 view .LVU1555
	movl	%ebp, %eax
	andl	$12288, %eax
.LVL593:
.LBB760:
.LBI760:
	.loc 1 763 1 is_stmt 1 view .LVU1556
.LBB761:
	.loc 1 765 3 view .LVU1557
	.loc 1 765 10 is_stmt 0 view .LVU1558
	leal	-1(%rax), %edx
.LBE761:
.LBE760:
	.loc 1 1665 6 view .LVU1559
	testl	%eax, %edx
	jne	.L890
	.loc 1 1667 3 is_stmt 1 view .LVU1560
	.loc 1 1667 7 is_stmt 0 view .LVU1561
	movl	%ecx, %eax
	.loc 1 1668 10 view .LVU1562
	movl	%esi, %edi
	.loc 1 1667 7 view .LVU1563
	andl	$16386, %eax
.LVL594:
.LBB762:
.LBI762:
	.loc 1 763 1 is_stmt 1 view .LVU1564
.LBB763:
	.loc 1 765 3 view .LVU1565
	.loc 1 765 3 is_stmt 0 view .LVU1566
.LBE763:
.LBE762:
	.loc 1 1668 10 view .LVU1567
	andl	$16386, %edi
.LVL595:
.LBB765:
.LBI765:
	.loc 1 763 1 is_stmt 1 view .LVU1568
.LBB766:
	.loc 1 765 3 view .LVU1569
	.loc 1 765 3 is_stmt 0 view .LVU1570
.LBE766:
.LBE765:
.LBB768:
.LBB764:
	.loc 1 765 10 view .LVU1571
	leal	-1(%rax), %edx
	andl	%eax, %edx
.LBE764:
.LBE768:
.LBB769:
.LBB767:
	leal	-1(%rdi), %eax
	andl	%edi, %eax
.LBE767:
.LBE769:
	.loc 1 1668 7 view .LVU1572
	orl	%eax, %edx
	movl	%edx, 44(%rsp)
	jne	.L891
	.loc 1 1671 3 is_stmt 1 view .LVU1573
	.loc 1 1671 6 is_stmt 0 view .LVU1574
	testb	$2, %cl
	je	.L546
	.loc 1 1673 7 is_stmt 1 view .LVU1575
	.loc 1 1674 41 is_stmt 0 view .LVU1576
	movq	max_records(%rip), %rax
	orq	max_bytes(%rip), %rax
	.loc 1 1673 17 view .LVU1577
	movb	$1, i_nocache(%rip)
	.loc 1 1674 7 is_stmt 1 view .LVU1578
	.loc 1 1674 21 is_stmt 0 view .LVU1579
	sete	i_nocache_eof(%rip)
	.loc 1 1675 7 is_stmt 1 view .LVU1580
	.loc 1 1675 19 is_stmt 0 view .LVU1581
	andl	$-4, %ecx
	movl	%ecx, input_flags(%rip)
.L546:
	.loc 1 1677 3 is_stmt 1 view .LVU1582
	.loc 1 1677 6 is_stmt 0 view .LVU1583
	testb	$2, %sil
	je	.L547
	.loc 1 1679 7 is_stmt 1 view .LVU1584
	.loc 1 1680 41 is_stmt 0 view .LVU1585
	movq	max_records(%rip), %rax
	orq	max_bytes(%rip), %rax
	.loc 1 1679 17 view .LVU1586
	movb	$1, o_nocache(%rip)
	.loc 1 1680 7 is_stmt 1 view .LVU1587
	.loc 1 1680 21 is_stmt 0 view .LVU1588
	sete	o_nocache_eof(%rip)
	.loc 1 1681 7 is_stmt 1 view .LVU1589
	.loc 1 1681 20 is_stmt 0 view .LVU1590
	andl	$-3, %esi
	movl	%esi, output_flags(%rip)
.L547:
.LVL596:
	.loc 1 1681 20 view .LVU1591
.LBE783:
.LBE798:
	.loc 1 2432 3 is_stmt 1 view .LVU1592
.LBB799:
.LBI799:
	.loc 1 1688 1 view .LVU1593
.LBB800:
	.loc 1 1690 3 view .LVU1594
	.loc 1 1692 3 view .LVU1595
	.loc 1 1692 6 is_stmt 0 view .LVU1596
	testb	$1, %bpl
	je	.L548
	leaq	trans_table(%rip), %rax
	leaq	ebcdic_to_ascii(%rip), %rcx
	leaq	256(%rax), %rsi
	.p2align 4,,10
	.p2align 3
.L549:
.LVL597:
.LBB801:
.LBB802:
.LBB803:
	.loc 1 756 5 is_stmt 1 view .LVU1597
	.loc 1 756 43 is_stmt 0 view .LVU1598
	movzbl	(%rax), %edx
	addq	$1, %rax
.LVL598:
	.loc 1 756 20 view .LVU1599
	movzbl	(%rcx,%rdx), %edx
	movb	%dl, -1(%rax)
	.loc 1 755 28 is_stmt 1 view .LVU1600
	.loc 1 755 19 view .LVU1601
	.loc 1 755 3 is_stmt 0 view .LVU1602
	cmpq	%rax, %rsi
	jne	.L549
.LBE803:
	.loc 1 757 3 is_stmt 1 view .LVU1603
	.loc 1 757 22 is_stmt 0 view .LVU1604
	movb	$1, translation_needed(%rip)
.L548:
.LBE802:
.LBE801:
	.loc 1 1695 3 is_stmt 1 view .LVU1605
	.loc 1 1695 6 is_stmt 0 view .LVU1606
	testb	$64, %bpl
	je	.L550
.LBB804:
	.loc 1 1698 26 view .LVU1607
	call	__ctype_toupper_loc@PLT
.LVL599:
	movq	(%rax), %rsi
	leaq	trans_table(%rip), %rax
	leaq	256(%rax), %rcx
	.p2align 4,,10
	.p2align 3
.L551:
.LVL600:
	.loc 1 1698 26 view .LVU1608
.LBE804:
	.loc 1 1698 9 is_stmt 1 view .LVU1609
.LBB805:
	.loc 1 1698 26 view .LVU1610
	.loc 1 1698 26 view .LVU1611
	.loc 1 1698 26 view .LVU1612
	.loc 1 1698 26 view .LVU1613
	movzbl	(%rax), %edx
	addq	$1, %rax
.LVL601:
	.loc 1 1698 26 is_stmt 0 view .LVU1614
.LBE805:
	.loc 1 1698 24 view .LVU1615
	movl	(%rsi,%rdx,4), %edx
	movb	%dl, -1(%rax)
.LVL602:
	.loc 1 1697 28 is_stmt 1 view .LVU1616
	.loc 1 1697 19 view .LVU1617
	.loc 1 1697 7 is_stmt 0 view .LVU1618
	cmpq	%rcx, %rax
	jne	.L551
.L554:
	.loc 1 1699 7 is_stmt 1 view .LVU1619
	.loc 1 1699 26 is_stmt 0 view .LVU1620
	movb	$1, translation_needed(%rip)
.L552:
	.loc 1 1708 3 is_stmt 1 view .LVU1621
	.loc 1 1708 6 is_stmt 0 view .LVU1622
	testb	$2, %bpl
	je	.L555
	leaq	trans_table(%rip), %rax
	leaq	ascii_to_ebcdic(%rip), %rcx
	leaq	256(%rax), %rsi
	.p2align 4,,10
	.p2align 3
.L556:
.LVL603:
.LBB806:
.LBB807:
.LBB808:
	.loc 1 756 5 is_stmt 1 view .LVU1623
	.loc 1 756 43 is_stmt 0 view .LVU1624
	movzbl	(%rax), %edx
	addq	$1, %rax
.LVL604:
	.loc 1 756 20 view .LVU1625
	movzbl	(%rcx,%rdx), %edx
	movb	%dl, -1(%rax)
	.loc 1 755 28 is_stmt 1 view .LVU1626
	.loc 1 755 19 view .LVU1627
	.loc 1 755 3 is_stmt 0 view .LVU1628
	cmpq	%rax, %rsi
	jne	.L556
.L559:
.LBE808:
	.loc 1 757 3 is_stmt 1 view .LVU1629
	.loc 1 757 22 is_stmt 0 view .LVU1630
	movb	$1, translation_needed(%rip)
.LBE807:
.LBE806:
	.loc 1 1711 7 is_stmt 1 view .LVU1631
	.loc 1 1711 25 is_stmt 0 view .LVU1632
	movb	$37, newline_character(%rip)
	.loc 1 1712 7 is_stmt 1 view .LVU1633
	.loc 1 1712 23 is_stmt 0 view .LVU1634
	movb	$64, space_character(%rip)
.L557:
.LBE800:
.LBE799:
	.loc 1 2434 3 is_stmt 1 view .LVU1635
	.loc 1 2434 18 is_stmt 0 view .LVU1636
	movq	input_file(%rip), %r12
	movl	input_flags(%rip), %r13d
	call	__errno_location@PLT
.LVL605:
	movq	%rax, 16(%rsp)
	.loc 1 2434 6 view .LVU1637
	testq	%r12, %r12
	je	.L892
	.loc 1 2441 7 is_stmt 1 view .LVU1638
	.loc 1 2441 11 is_stmt 0 view .LVU1639
	xorl	%ecx, %ecx
	xorl	%edi, %edi
	movl	%r13d, %edx
	movq	%r12, %rsi
	call	ifd_reopen
.LVL606:
	.loc 1 2441 10 view .LVU1640
	testl	%eax, %eax
	js	.L893
.L561:
	.loc 1 2446 3 is_stmt 1 view .LVU1641
	.loc 1 2446 12 is_stmt 0 view .LVU1642
	xorl	%esi, %esi
	movl	$1, %edx
	xorl	%edi, %edi
	call	lseek@PLT
.LVL607:
	.loc 1 2447 3 is_stmt 1 view .LVU1643
	.loc 1 2451 19 is_stmt 0 view .LVU1644
	movq	output_file(%rip), %rsi
	movl	output_flags(%rip), %r13d
	.loc 1 2447 23 view .LVU1645
	movq	%rax, %rdx
	notq	%rdx
	shrq	$63, %rdx
	.loc 1 2448 18 view .LVU1646
	testq	%rax, %rax
	.loc 1 2447 18 view .LVU1647
	movb	%dl, input_seekable(%rip)
	.loc 1 2448 3 is_stmt 1 view .LVU1648
	.loc 1 2448 18 is_stmt 0 view .LVU1649
	movl	$0, %edx
	cmovs	%rdx, %rax
.LVL608:
	.loc 1 2448 16 view .LVU1650
	movq	%rax, input_offset(%rip)
	.loc 1 2449 3 is_stmt 1 view .LVU1651
	.loc 1 2449 20 is_stmt 0 view .LVU1652
	movq	16(%rsp), %rax
	movl	(%rax), %eax
	movl	%eax, input_seek_errno(%rip)
	.loc 1 2451 3 is_stmt 1 view .LVU1653
	.loc 1 2451 6 is_stmt 0 view .LVU1654
	testq	%rsi, %rsi
	je	.L894
.LBB814:
	.loc 1 2458 7 is_stmt 1 view .LVU1655
.LVL609:
	.loc 1 2459 7 view .LVU1656
	.loc 1 2461 32 is_stmt 0 view .LVU1657
	movl	conversions_mask(%rip), %eax
	.loc 1 2461 48 view .LVU1658
	xorl	%edx, %edx
	.loc 1 2462 50 view .LVU1659
	movl	%eax, %r12d
	.loc 1 2461 48 view .LVU1660
	testb	$16, %ah
	sete	%dl
	.loc 1 2462 50 view .LVU1661
	sarl	$6, %r12d
	andl	$128, %r12d
	.loc 1 2461 48 view .LVU1662
	sall	$6, %edx
	.loc 1 2462 12 view .LVU1663
	orl	%r13d, %r12d
	orl	%edx, %r12d
	.loc 1 2463 66 view .LVU1664
	cmpq	$0, seek_records(%rip)
	jne	.L565
	.loc 1 2463 49 discriminator 2 view .LVU1665
	andl	$512, %eax
	.loc 1 2463 66 discriminator 2 view .LVU1666
	cmpl	$1, %eax
	sbbl	%eax, %eax
	andl	$512, %eax
	.loc 1 2459 11 discriminator 2 view .LVU1667
	orl	%eax, %r12d
.LVL610:
	.loc 1 2468 7 is_stmt 1 discriminator 2 view .LVU1668
.L675:
	.loc 1 2470 15 is_stmt 0 view .LVU1669
	movl	%r12d, %edx
	movl	$438, %ecx
	movl	$1, %edi
	orl	$1, %edx
	call	ifd_reopen
.LVL611:
	.loc 1 2470 11 view .LVU1670
	testl	%eax, %eax
	js	.L895
.L567:
	.loc 1 2475 7 is_stmt 1 view .LVU1671
	.loc 1 2475 24 is_stmt 0 view .LVU1672
	movq	seek_records(%rip), %r12
.LVL612:
	.loc 1 2475 10 view .LVU1673
	testq	%r12, %r12
	je	.L563
	.loc 1 2475 29 discriminator 1 view .LVU1674
	testb	$2, 1+conversions_mask(%rip)
	jne	.L563
.LBB815:
	.loc 1 2477 11 is_stmt 1 view .LVU1675
	.loc 1 2477 41 is_stmt 0 view .LVU1676
	movq	output_blocksize(%rip), %r15
	.loc 1 2480 25 view .LVU1677
	xorl	%edx, %edx
	.loc 1 2477 41 view .LVU1678
	movq	%r12, %r13
	.loc 1 2480 25 view .LVU1679
	movabsq	$9223372036854775807, %rax
	divq	%r15
	.loc 1 2477 41 view .LVU1680
	imulq	%r15, %r13
	.loc 1 2477 21 view .LVU1681
	addq	seek_bytes(%rip), %r13
.LVL613:
	.loc 1 2478 11 is_stmt 1 view .LVU1682
	.loc 1 2480 11 view .LVU1683
	.loc 1 2480 14 is_stmt 0 view .LVU1684
	cmpq	%rax, %r12
	ja	.L896
	.loc 1 2487 11 is_stmt 1 view .LVU1685
	.loc 1 2487 15 is_stmt 0 view .LVU1686
	movq	%r13, %rdi
	call	iftruncate.constprop.0
.LVL614:
	.loc 1 2487 14 view .LVU1687
	testl	%eax, %eax
	jne	.L897
.LVL615:
.L563:
	.loc 1 2487 14 view .LVU1688
.LBE815:
.LBE814:
	.loc 1 2510 3 is_stmt 1 view .LVU1689
	.loc 1 2510 16 is_stmt 0 view .LVU1690
	call	gethrxtime@PLT
.LVL616:
.LBB825:
.LBB826:
	.loc 1 2126 20 view .LVU1691
	movq	skip_records(%rip), %r12
	.loc 1 2126 39 view .LVU1692
	movq	skip_bytes(%rip), %r15
.LBE826:
.LBE825:
	.loc 1 2510 14 view .LVU1693
	movq	%rax, start_time(%rip)
	.loc 1 2511 3 is_stmt 1 view .LVU1694
	.loc 1 2511 26 is_stmt 0 view .LVU1695
	addq	$1000000000, %rax
	movq	%rax, next_time(%rip)
	.loc 1 2513 3 is_stmt 1 view .LVU1696
.LBB911:
.LBI825:
	.loc 1 2097 1 view .LVU1697
.LBB900:
	.loc 1 2099 3 view .LVU1698
	.loc 1 2100 3 view .LVU1699
	.loc 1 2104 3 view .LVU1700
.LVL617:
	.loc 1 2106 3 view .LVU1701
	.loc 1 2107 3 view .LVU1702
	.loc 1 2126 3 view .LVU1703
	.loc 1 2126 25 is_stmt 0 view .LVU1704
	movq	%r12, %rax
	orq	%r15, %rax
	je	.L574
.LBB827:
	.loc 1 2128 7 is_stmt 1 view .LVU1705
	.loc 1 2128 57 is_stmt 0 view .LVU1706
	movq	input_blocksize(%rip), %r13
	.loc 1 2130 29 view .LVU1707
	movq	input_file(%rip), %rsi
	xorl	%edi, %edi
	movq	%r12, %rdx
	leaq	skip_bytes(%rip), %r8
	.loc 1 2128 41 view .LVU1708
	movq	input_offset(%rip), %rbp
.LVL618:
	.loc 1 2130 7 is_stmt 1 view .LVU1709
	.loc 1 2130 29 is_stmt 0 view .LVU1710
	movq	%r13, %rcx
	call	skip
.LVL619:
	.loc 1 2132 7 is_stmt 1 view .LVU1711
	.loc 1 2140 7 view .LVU1712
	.loc 1 2140 10 is_stmt 0 view .LVU1713
	testq	%rax, %rax
	jne	.L575
	.loc 1 2128 57 view .LVU1714
	imulq	%r13, %r12
.LVL620:
	.loc 1 2128 17 view .LVU1715
	leaq	(%r15,%rbp), %rax
.LVL621:
	.loc 1 2128 17 view .LVU1716
	addq	%r12, %rax
.LVL622:
	.loc 1 2140 49 view .LVU1717
	cmpq	input_offset(%rip), %rax
	je	.L574
	cmpb	$1, input_offset_overflow(%rip)
	jne	.L575
.LVL623:
	.p2align 4,,10
	.p2align 3
.L574:
	.loc 1 2140 49 view .LVU1718
.LBE827:
	.loc 1 2148 3 is_stmt 1 view .LVU1719
	.loc 1 2148 20 is_stmt 0 view .LVU1720
	movq	seek_records(%rip), %rdx
	.loc 1 2148 39 view .LVU1721
	movq	seek_bytes(%rip), %rax
	.loc 1 2148 25 view .LVU1722
	movq	%rdx, %rdi
	orq	%rax, %rdi
	je	.L577
.LBB828:
	.loc 1 2150 7 is_stmt 1 view .LVU1723
	.loc 1 2151 33 is_stmt 0 view .LVU1724
	leaq	56(%rsp), %r8
	movl	$1, %edi
	.loc 1 2150 14 view .LVU1725
	movq	%rax, 56(%rsp)
	.loc 1 2151 7 is_stmt 1 view .LVU1726
	.loc 1 2151 33 is_stmt 0 view .LVU1727
	movq	output_blocksize(%rip), %rcx
	movq	output_file(%rip), %rsi
	call	skip
.LVL624:
	movq	%rax, %r12
.LVL625:
	.loc 1 2154 7 is_stmt 1 view .LVU1728
	.loc 1 2154 10 is_stmt 0 view .LVU1729
	testq	%rax, %rax
	je	.L898
	.loc 1 2156 11 is_stmt 1 view .LVU1730
	movq	output_blocksize(%rip), %rdx
.L579:
.LVL626:
.LBB829:
.LBI829:
	.loc 2 59 1 view .LVU1731
.LBB830:
	.loc 2 71 3 view .LVU1732
	.loc 2 71 10 is_stmt 0 view .LVU1733
	movq	obuf(%rip), %rdi
	xorl	%esi, %esi
	call	memset@PLT
.LVL627:
	.p2align 4,,10
	.p2align 3
.L584:
	.loc 2 71 10 view .LVU1734
.LBE830:
.LBE829:
	.loc 1 2158 11 is_stmt 1 view .LVU1735
.LBB831:
	.loc 1 2160 15 view .LVU1736
	movq	obuf(%rip), %rdi
	.loc 1 2160 62 is_stmt 0 view .LVU1737
	testq	%r12, %r12
	je	.L580
	.loc 1 2160 62 view .LVU1738
	movq	output_blocksize(%rip), %r13
.LVL628:
	.loc 1 2161 15 is_stmt 1 view .LVU1739
	.loc 1 2161 19 is_stmt 0 view .LVU1740
	movq	%r13, %rsi
	call	iwrite.constprop.0
.LVL629:
	.loc 1 2161 18 view .LVU1741
	cmpq	%rax, %r13
	jne	.L582
	.loc 1 2168 17 is_stmt 1 view .LVU1742
.LVL630:
	.loc 1 2168 17 is_stmt 0 view .LVU1743
.LBE831:
	.loc 1 2172 17 is_stmt 1 view .LVU1744
	.loc 1 2172 11 is_stmt 0 view .LVU1745
	subq	$1, %r12
.LVL631:
	.loc 1 2172 11 view .LVU1746
	jne	.L584
	movq	56(%rsp), %r12
.LVL632:
	.loc 1 2172 11 view .LVU1747
	movq	obuf(%rip), %rdi
	.loc 1 2172 32 view .LVU1748
	testq	%r12, %r12
	je	.L577
.LVL633:
.L585:
.LBB832:
	.loc 1 2161 15 is_stmt 1 view .LVU1749
	.loc 1 2161 19 is_stmt 0 view .LVU1750
	movq	%r12, %rsi
	call	iwrite.constprop.0
.LVL634:
	.loc 1 2161 18 view .LVU1751
	cmpq	%r12, %rax
	jne	.L582
.L577:
	.loc 1 2161 18 view .LVU1752
.LBE832:
.LBE828:
	.loc 1 2176 3 is_stmt 1 view .LVU1753
	.loc 1 2176 24 is_stmt 0 view .LVU1754
	movq	max_records(%rip), %rax
	orq	max_bytes(%rip), %rax
	je	.L707
	.loc 1 2179 3 is_stmt 1 view .LVU1755
.LBB834:
.LBI834:
	.loc 1 695 1 view .LVU1756
.LBB835:
	.loc 1 697 3 view .LVU1757
	.loc 1 697 6 is_stmt 0 view .LVU1758
	cmpq	$0, ibuf(%rip)
	je	.L899
.L587:
.LBE835:
.LBE834:
	.loc 1 2180 3 is_stmt 1 view .LVU1759
	call	alloc_obuf
.LVL635:
	.loc 1 2106 7 is_stmt 0 view .LVU1760
	movl	$0, 40(%rsp)
	.loc 1 2104 10 view .LVU1761
	movq	$0, 8(%rsp)
.LVL636:
	.p2align 4,,10
	.p2align 3
.L588:
	.loc 1 2182 3 is_stmt 1 view .LVU1762
	.loc 1 2184 7 view .LVU1763
	.loc 1 2184 10 is_stmt 0 view .LVU1764
	cmpl	$4, status_level(%rip)
	je	.L900
.L590:
	.loc 1 2194 7 is_stmt 1 view .LVU1765
	.loc 1 2194 47 is_stmt 0 view .LVU1766
	movq	max_bytes(%rip), %r14
	xorl	%eax, %eax
	.loc 1 2194 21 view .LVU1767
	movq	r_full(%rip), %rcx
	.loc 1 2194 45 view .LVU1768
	movq	max_records(%rip), %r15
	.loc 1 2194 21 view .LVU1769
	addq	r_partial(%rip), %rcx
	.loc 1 2194 47 view .LVU1770
	testq	%r14, %r14
	movl	conversions_mask(%rip), %esi
	setne	%al
	.loc 1 2194 45 view .LVU1771
	addq	%r15, %rax
	.loc 1 2194 10 view .LVU1772
	cmpq	%rax, %rcx
	jnb	.L592
	.loc 1 2200 7 is_stmt 1 view .LVU1773
	.loc 1 2200 39 is_stmt 0 view .LVU1774
	movl	%esi, %eax
	movq	ibuf(%rip), %r10
	andl	$1280, %eax
	.loc 1 2200 10 view .LVU1775
	cmpl	$1280, %eax
	jne	.L593
	.loc 1 2201 9 view .LVU1776
	andl	$24, %esi
	movl	$32, %eax
.LBB837:
.LBB838:
	.loc 2 71 10 view .LVU1777
	movq	%r10, %rdi
	movq	%rcx, 24(%rsp)
.LBE838:
.LBE837:
	.loc 1 2201 9 is_stmt 1 view .LVU1778
	cmovne	%eax, %esi
.LVL637:
.LBB840:
.LBI837:
	.loc 2 59 1 view .LVU1779
.LBB839:
	.loc 2 71 3 view .LVU1780
	.loc 2 71 10 is_stmt 0 view .LVU1781
	movq	input_blocksize(%rip), %rdx
	call	memset@PLT
.LVL638:
	.loc 2 71 10 view .LVU1782
	movq	24(%rsp), %rcx
	movq	%rax, %r10
.L593:
	.loc 2 71 10 view .LVU1783
.LBE839:
.LBE840:
	.loc 1 2205 7 is_stmt 1 view .LVU1784
	movq	iread_fnc(%rip), %rax
	.loc 1 2205 10 is_stmt 0 view .LVU1785
	cmpq	%r15, %rcx
	jb	.L595
	.loc 1 2206 9 is_stmt 1 view .LVU1786
	.loc 1 2206 17 is_stmt 0 view .LVU1787
	movq	%r10, %rsi
	movq	%r14, %rdx
	xorl	%edi, %edi
	call	*%rax
.LVL639:
	movq	%rax, %rsi
.LVL640:
	.loc 1 2210 7 is_stmt 1 view .LVU1788
	.loc 1 2210 10 is_stmt 0 view .LVU1789
	testq	%rsi, %rsi
	jle	.L597
.L908:
	.loc 1 2212 11 is_stmt 1 view .LVU1790
	movq	%rsi, %rax
.LVL641:
	.loc 1 2212 11 is_stmt 0 view .LVU1791
	addq	input_offset(%rip), %rax
	movq	%rsi, %r14
.LVL642:
.LBB841:
.LBI841:
	.loc 1 1780 1 is_stmt 1 view .LVU1792
.LBB842:
	.loc 1 1782 3 view .LVU1793
	.loc 1 1782 16 is_stmt 0 view .LVU1794
	movq	%rax, input_offset(%rip)
	.loc 1 1783 3 is_stmt 1 view .LVU1795
	.loc 1 1783 6 is_stmt 0 view .LVU1796
	jnc	.L600
.LVL643:
	.loc 1 1784 5 is_stmt 1 view .LVU1797
	.loc 1 1784 27 is_stmt 0 view .LVU1798
	movb	$1, input_offset_overflow(%rip)
.L600:
.LVL644:
	.loc 1 1784 27 view .LVU1799
.LBE842:
.LBE841:
	.loc 1 2213 11 is_stmt 1 view .LVU1800
	.loc 1 2213 14 is_stmt 0 view .LVU1801
	cmpb	$0, i_nocache(%rip)
	jne	.L901
.LVL645:
.L601:
	.loc 1 2260 7 is_stmt 1 view .LVU1802
	.loc 1 2262 7 view .LVU1803
	.loc 1 2262 24 is_stmt 0 view .LVU1804
	movq	input_blocksize(%rip), %r15
	.loc 1 2262 10 view .LVU1805
	cmpq	%r14, %r15
	jbe	.L621
.L911:
	.loc 1 2264 11 is_stmt 1 view .LVU1806
	.loc 1 2266 32 is_stmt 0 view .LVU1807
	movl	conversions_mask(%rip), %esi
	.loc 1 2264 20 view .LVU1808
	addq	$1, r_partial(%rip)
	.loc 1 2265 11 is_stmt 1 view .LVU1809
.LVL646:
	.loc 1 2266 11 view .LVU1810
	movq	%r14, 8(%rsp)
	.loc 1 2266 14 is_stmt 0 view .LVU1811
	testl	$1024, %esi
	je	.L622
	.loc 1 2268 15 is_stmt 1 view .LVU1812
	.loc 1 2268 18 is_stmt 0 view .LVU1813
	testl	$256, %esi
	jne	.L710
	.loc 1 2270 17 is_stmt 1 view .LVU1814
	movq	%r15, %rdx
	subq	%r14, %rdx
	andl	$24, %esi
	je	.L623
	movl	$32, %esi
.L623:
.LVL647:
.LBB843:
.LBI843:
	.loc 2 59 1 view .LVU1815
.LBB844:
	.loc 2 71 3 view .LVU1816
.LBE844:
.LBE843:
	.loc 1 2270 30 is_stmt 0 view .LVU1817
	movq	ibuf(%rip), %rdi
	addq	%r14, %rdi
.LVL648:
.LBB846:
.LBB845:
	.loc 2 71 10 view .LVU1818
	call	memset@PLT
.LVL649:
	.loc 2 71 10 view .LVU1819
	movq	%r14, 8(%rsp)
	movq	%r15, %r14
.LVL650:
	.p2align 4,,10
	.p2align 3
.L622:
	.loc 2 71 10 view .LVU1820
.LBE845:
.LBE846:
	.loc 1 2282 7 is_stmt 1 view .LVU1821
	.loc 1 2282 16 is_stmt 0 view .LVU1822
	movq	ibuf(%rip), %r15
	movq	obuf(%rip), %rdi
	.loc 1 2282 10 view .LVU1823
	cmpq	%rdi, %r15
	je	.L902
	.loc 1 2300 7 is_stmt 1 view .LVU1824
	.loc 1 2300 10 is_stmt 0 view .LVU1825
	cmpb	$0, translation_needed(%rip)
	jne	.L628
.L631:
	.loc 1 2303 7 is_stmt 1 view .LVU1826
	.loc 1 2303 28 is_stmt 0 view .LVU1827
	movl	conversions_mask(%rip), %esi
	.loc 1 2303 10 view .LVU1828
	testb	$-128, %sil
	jne	.L903
.L630:
.LVL651:
	.loc 1 2308 7 is_stmt 1 view .LVU1829
	.loc 1 2308 10 is_stmt 0 view .LVU1830
	testb	$8, %sil
	jne	.L904
	.loc 1 2310 12 is_stmt 1 view .LVU1831
	.loc 1 2310 15 is_stmt 0 view .LVU1832
	andl	$16, %esi
	je	.L641
	.loc 1 2311 9 is_stmt 1 view .LVU1833
	movq	%r14, %rsi
	movq	%r15, %rdi
	call	copy_with_unblock
.LVL652:
	.loc 1 2182 3 view .LVU1834
	.loc 1 2184 7 view .LVU1835
	.loc 1 2184 10 is_stmt 0 view .LVU1836
	cmpl	$4, status_level(%rip)
	jne	.L590
.LVL653:
.L900:
.LBB847:
	.loc 1 2186 11 is_stmt 1 view .LVU1837
	.loc 1 2186 35 is_stmt 0 view .LVU1838
	call	gethrxtime@PLT
.LVL654:
	.loc 1 2187 11 is_stmt 1 view .LVU1839
	.loc 1 2187 14 is_stmt 0 view .LVU1840
	cmpq	next_time(%rip), %rax
	jl	.L590
	.loc 1 2189 15 is_stmt 1 view .LVU1841
	movq	%rax, %rdi
	call	print_xfer_stats
.LVL655:
	.loc 1 2190 15 view .LVU1842
	.loc 1 2190 25 is_stmt 0 view .LVU1843
	addq	$1000000000, next_time(%rip)
	jmp	.L590
.LVL656:
	.p2align 4,,10
	.p2align 3
.L681:
	.loc 1 2190 25 view .LVU1844
.LBE847:
.LBE900:
.LBE911:
.LBB912:
.LBB784:
.LBB770:
.LBB744:
	movq	%r13, %rax
	movl	$111, %ecx
	leaq	.LC77(%rip), %rdx
.L484:
.LVL657:
.LBB687:
.LBB688:
.LBB689:
	.loc 1 1397 5 is_stmt 1 view .LVU1845
	.loc 1 1397 13 is_stmt 0 view .LVU1846
	addq	$1, %rax
.LVL658:
	.loc 1 1397 27 view .LVU1847
	addq	$1, %rdx
.LVL659:
	.loc 1 1397 8 view .LVU1848
	cmpb	%cl, -1(%rax)
	jne	.L683
	.loc 1 1396 9 is_stmt 1 view .LVU1849
	.loc 1 1396 10 is_stmt 0 view .LVU1850
	movzbl	(%rdx), %ecx
	.loc 1 1396 9 view .LVU1851
	testb	%cl, %cl
	jne	.L484
	.loc 1 1399 3 is_stmt 1 view .LVU1852
	.loc 1 1399 11 is_stmt 0 view .LVU1853
	movzbl	(%rax), %eax
.LVL660:
	.loc 1 1399 11 view .LVU1854
.LBE689:
.LBE688:
.LBE687:
	.loc 1 1512 15 view .LVU1855
	cmpb	$61, %al
	je	.L714
	testb	%al, %al
	jne	.L683
.L714:
	.loc 1 1513 9 is_stmt 1 view .LVU1856
	.loc 1 1513 21 is_stmt 0 view .LVU1857
	movq	%rdi, output_file(%rip)
	jmp	.L482
	.p2align 4,,10
	.p2align 3
.L683:
	.loc 1 1513 21 view .LVU1858
	movq	%r13, %rax
	movl	$99, %ecx
	leaq	.LC78(%rip), %rdx
.L487:
.LVL661:
.LBB690:
.LBB691:
.LBB692:
	.loc 1 1397 5 is_stmt 1 view .LVU1859
	.loc 1 1397 13 is_stmt 0 view .LVU1860
	addq	$1, %rax
.LVL662:
	.loc 1 1397 27 view .LVU1861
	addq	$1, %rdx
.LVL663:
	.loc 1 1397 8 view .LVU1862
	cmpb	%cl, -1(%rax)
	jne	.L685
	.loc 1 1396 9 is_stmt 1 view .LVU1863
	.loc 1 1396 10 is_stmt 0 view .LVU1864
	movzbl	(%rdx), %ecx
	.loc 1 1396 9 view .LVU1865
	testb	%cl, %cl
	jne	.L487
	.loc 1 1399 3 is_stmt 1 view .LVU1866
	.loc 1 1399 11 is_stmt 0 view .LVU1867
	movzbl	(%rax), %eax
.LVL664:
	.loc 1 1399 11 view .LVU1868
.LBE692:
.LBE691:
.LBE690:
	.loc 1 1514 15 view .LVU1869
	testb	%al, %al
	je	.L715
	cmpb	$61, %al
	jne	.L685
.L715:
	.loc 1 1515 9 is_stmt 1 view .LVU1870
	.loc 1 1515 29 is_stmt 0 view .LVU1871
	leaq	.LC97(%rip), %rcx
	xorl	%edx, %edx
	leaq	conversions(%rip), %rsi
	call	parse_symbols
.LVL665:
	.loc 1 1515 26 view .LVU1872
	orl	%eax, conversions_mask(%rip)
	jmp	.L482
.LVL666:
	.p2align 4,,10
	.p2align 3
.L685:
	.loc 1 1515 26 view .LVU1873
	movq	%r13, %rax
	movl	$105, %ecx
	leaq	.LC79(%rip), %rdx
	.p2align 4,,10
	.p2align 3
.L490:
.LVL667:
.LBB693:
.LBB694:
.LBB695:
	.loc 1 1397 5 is_stmt 1 view .LVU1874
	.loc 1 1397 13 is_stmt 0 view .LVU1875
	addq	$1, %rax
.LVL668:
	.loc 1 1397 27 view .LVU1876
	addq	$1, %rdx
.LVL669:
	.loc 1 1397 8 view .LVU1877
	cmpb	%cl, -1(%rax)
	jne	.L687
	.loc 1 1396 9 is_stmt 1 view .LVU1878
	.loc 1 1396 10 is_stmt 0 view .LVU1879
	movzbl	(%rdx), %ecx
	.loc 1 1396 9 view .LVU1880
	testb	%cl, %cl
	jne	.L490
	.loc 1 1399 3 is_stmt 1 view .LVU1881
	.loc 1 1399 11 is_stmt 0 view .LVU1882
	movzbl	(%rax), %eax
.LVL670:
	.loc 1 1399 11 view .LVU1883
.LBE695:
.LBE694:
.LBE693:
	.loc 1 1517 15 view .LVU1884
	cmpb	$61, %al
	jne	.L905
.L716:
	.loc 1 1518 9 is_stmt 1 view .LVU1885
	.loc 1 1518 24 is_stmt 0 view .LVU1886
	leaq	.LC98(%rip), %rcx
	xorl	%edx, %edx
	leaq	flags(%rip), %rsi
	call	parse_symbols
.LVL671:
	.loc 1 1518 21 view .LVU1887
	orl	%eax, input_flags(%rip)
	jmp	.L482
.LVL672:
.L905:
	.loc 1 1517 15 view .LVU1888
	testb	%al, %al
	je	.L716
.L687:
	movq	%r13, %rax
	movl	$111, %ecx
	leaq	.LC80(%rip), %rdx
	.p2align 4,,10
	.p2align 3
.L493:
.LVL673:
.LBB696:
.LBB697:
.LBB698:
	.loc 1 1397 5 is_stmt 1 view .LVU1889
	.loc 1 1397 13 is_stmt 0 view .LVU1890
	addq	$1, %rax
.LVL674:
	.loc 1 1397 27 view .LVU1891
	addq	$1, %rdx
.LVL675:
	.loc 1 1397 8 view .LVU1892
	cmpb	%cl, -1(%rax)
	jne	.L689
	.loc 1 1396 9 is_stmt 1 view .LVU1893
	.loc 1 1396 10 is_stmt 0 view .LVU1894
	movzbl	(%rdx), %ecx
	.loc 1 1396 9 view .LVU1895
	testb	%cl, %cl
	jne	.L493
	.loc 1 1399 3 is_stmt 1 view .LVU1896
	.loc 1 1399 11 is_stmt 0 view .LVU1897
	movzbl	(%rax), %eax
.LVL676:
	.loc 1 1399 11 view .LVU1898
.LBE698:
.LBE697:
.LBE696:
	.loc 1 1520 15 view .LVU1899
	cmpb	$61, %al
	jne	.L906
.L717:
	.loc 1 1521 9 is_stmt 1 view .LVU1900
	.loc 1 1521 25 is_stmt 0 view .LVU1901
	leaq	.LC99(%rip), %rcx
	xorl	%edx, %edx
	leaq	flags(%rip), %rsi
	call	parse_symbols
.LVL677:
	.loc 1 1521 22 view .LVU1902
	orl	%eax, output_flags(%rip)
	jmp	.L482
.LVL678:
.L679:
	.loc 1 1521 22 view .LVU1903
.LBE744:
.LBE770:
	.loc 1 1495 13 view .LVU1904
	movq	$0, 16(%rsp)
	.loc 1 1494 13 view .LVU1905
	xorl	%r14d, %r14d
	.loc 1 1493 13 view .LVU1906
	orq	$-1, %r12
.LVL679:
.L477:
	.loc 1 1587 7 is_stmt 1 view .LVU1907
	.loc 1 1587 24 is_stmt 0 view .LVU1908
	orl	$2048, conversions_mask(%rip)
	.loc 1 1590 3 is_stmt 1 view .LVU1909
	.loc 1 1590 6 is_stmt 0 view .LVU1910
	cmpq	$0, input_blocksize(%rip)
	jne	.L524
	.loc 1 1591 5 is_stmt 1 view .LVU1911
	.loc 1 1591 21 is_stmt 0 view .LVU1912
	movq	$512, input_blocksize(%rip)
.L524:
	.loc 1 1592 3 is_stmt 1 view .LVU1913
	.loc 1 1592 6 is_stmt 0 view .LVU1914
	cmpq	$0, output_blocksize(%rip)
	jne	.L523
	.loc 1 1593 5 is_stmt 1 view .LVU1915
	.loc 1 1593 22 is_stmt 0 view .LVU1916
	movq	$512, output_blocksize(%rip)
	jmp	.L523
.LVL680:
	.p2align 4,,10
	.p2align 3
.L907:
	.loc 1 1593 22 view .LVU1917
.LBE784:
.LBE912:
.LBB913:
.LBB901:
.LBB848:
.LBB849:
.LBB850:
	.loc 1 1976 9 is_stmt 1 view .LVU1918
	call	write_output
.LVL681:
.L642:
.LBE850:
	.loc 1 1978 9 view .LVU1919
	.loc 1 1978 3 is_stmt 0 view .LVU1920
	testq	%r14, %r14
	je	.L588
	.loc 1 1978 3 view .LVU1921
	movq	obuf(%rip), %rdi
.LVL682:
.L641:
	.loc 1 1966 3 is_stmt 1 view .LVU1922
.LBB855:
	.loc 1 1968 7 view .LVU1923
	.loc 1 1968 22 is_stmt 0 view .LVU1924
	movq	output_blocksize(%rip), %r13
	movq	oc(%rip), %r12
.LBB851:
.LBB852:
	.loc 2 34 10 view .LVU1925
	movq	%r15, %rsi
.LBE852:
.LBE851:
	.loc 1 1968 22 view .LVU1926
	movq	%r13, %rdx
	subq	%r12, %rdx
	.loc 1 1968 14 view .LVU1927
	cmpq	%r14, %rdx
	cmova	%r14, %rdx
	.loc 1 1970 20 view .LVU1928
	addq	%r12, %rdi
	.loc 1 1968 14 view .LVU1929
	movq	%rdx, %rbp
.LVL683:
	.loc 1 1970 7 is_stmt 1 view .LVU1930
.LBB854:
.LBI851:
	.loc 2 31 1 view .LVU1931
.LBB853:
	.loc 2 34 3 view .LVU1932
	.loc 2 34 10 is_stmt 0 view .LVU1933
	call	memcpy@PLT
.LVL684:
	.loc 2 34 10 view .LVU1934
.LBE853:
.LBE854:
	.loc 1 1972 7 is_stmt 1 view .LVU1935
	.loc 1 1974 10 is_stmt 0 view .LVU1936
	leaq	(%r12,%rbp), %rdx
	.loc 1 1972 13 view .LVU1937
	subq	%rbp, %r14
.LVL685:
	.loc 1 1973 7 is_stmt 1 view .LVU1938
	.loc 1 1973 13 is_stmt 0 view .LVU1939
	addq	%rbp, %r15
.LVL686:
	.loc 1 1974 7 is_stmt 1 view .LVU1940
	.loc 1 1974 10 is_stmt 0 view .LVU1941
	movq	%rdx, oc(%rip)
	.loc 1 1975 7 is_stmt 1 view .LVU1942
	.loc 1 1975 10 is_stmt 0 view .LVU1943
	cmpq	%rdx, %r13
	ja	.L642
	jmp	.L907
.LVL687:
.L575:
	.loc 1 1975 10 view .LVU1944
.LBE855:
.LBE849:
.LBE848:
.LBB856:
	.loc 1 2141 11 view .LVU1945
	cmpl	$1, status_level(%rip)
	je	.L574
	.loc 1 2143 11 is_stmt 1 view .LVU1946
	movq	input_file(%rip), %rdx
	xorl	%edi, %edi
	movl	$3, %esi
	call	quotearg_n_style_colon@PLT
.LVL688:
	.loc 1 2144 18 is_stmt 0 view .LVU1947
	xorl	%edi, %edi
	movl	$5, %edx
	leaq	.LC113(%rip), %rsi
	.loc 1 2143 11 view .LVU1948
	movq	%rax, %r12
	.loc 1 2144 18 view .LVU1949
	call	dcgettext@PLT
.LVL689:
	.loc 1 2143 11 view .LVU1950
	movq	%r12, %rcx
	xorl	%esi, %esi
	xorl	%edi, %edi
	.loc 1 2144 18 view .LVU1951
	movq	%rax, %rdx
	.loc 1 2143 11 view .LVU1952
	xorl	%eax, %eax
	call	nl_error
.LVL690:
	jmp	.L574
.LVL691:
	.p2align 4,,10
	.p2align 3
.L595:
	.loc 1 2143 11 view .LVU1953
.LBE856:
	.loc 1 2208 9 is_stmt 1 view .LVU1954
	.loc 1 2208 17 is_stmt 0 view .LVU1955
	movq	%r10, %rsi
	movq	input_blocksize(%rip), %rdx
	xorl	%edi, %edi
	call	*%rax
.LVL692:
	movq	%rax, %rsi
.LVL693:
	.loc 1 2210 7 is_stmt 1 view .LVU1956
	.loc 1 2210 10 is_stmt 0 view .LVU1957
	testq	%rsi, %rsi
	jg	.L908
.L597:
	.loc 1 2216 12 is_stmt 1 view .LVU1958
	movl	conversions_mask(%rip), %esi
	.loc 1 2216 15 is_stmt 0 view .LVU1959
	je	.L909
	.loc 1 2224 11 is_stmt 1 view .LVU1960
	.loc 1 2224 14 is_stmt 0 view .LVU1961
	andl	$256, %esi
	je	.L604
	.loc 1 2224 47 view .LVU1962
	cmpl	$1, status_level(%rip)
	je	.L607
.L604:
	.loc 1 2225 13 is_stmt 1 view .LVU1963
	movq	input_file(%rip), %rsi
	movl	$4, %edi
	call	quotearg_style@PLT
.LVL694:
	.loc 1 2225 30 is_stmt 0 view .LVU1964
	movl	$5, %edx
	leaq	.LC75(%rip), %rsi
	xorl	%edi, %edi
	.loc 1 2225 13 view .LVU1965
	movq	%rax, %r14
	.loc 1 2225 30 view .LVU1966
	call	dcgettext@PLT
.LVL695:
	.loc 1 2225 13 view .LVU1967
	movq	%r14, %rcx
	xorl	%edi, %edi
	.loc 1 2225 30 view .LVU1968
	movq	%rax, %rdx
	.loc 1 2225 13 view .LVU1969
	movq	16(%rsp), %rax
	movl	(%rax), %esi
	xorl	%eax, %eax
	call	nl_error
.LVL696:
	.loc 1 2227 11 is_stmt 1 view .LVU1970
	.loc 1 2227 32 is_stmt 0 view .LVU1971
	movl	conversions_mask(%rip), %esi
	.loc 1 2227 14 view .LVU1972
	testl	$256, %esi
	je	.L910
.L607:
.LBB857:
	.loc 1 2229 15 is_stmt 1 view .LVU1973
	call	print_stats
.LVL697:
	.loc 1 2230 15 view .LVU1974
	.loc 1 2230 22 is_stmt 0 view .LVU1975
	movq	input_blocksize(%rip), %r15
	.loc 1 2234 15 view .LVU1976
	xorl	%edi, %edi
	.loc 1 2230 22 view .LVU1977
	subq	8(%rsp), %r15
.LVL698:
	.loc 1 2234 15 is_stmt 1 view .LVU1978
	movq	%r15, %rsi
	call	invalidate_cache
.LVL699:
	.loc 1 2237 15 view .LVU1979
.LBB858:
.LBI858:
	.loc 1 1920 1 view .LVU1980
.LBB859:
	.loc 1 1922 3 view .LVU1981
	.loc 1 1922 6 is_stmt 0 view .LVU1982
	cmpb	$0, input_seekable(%rip)
	jne	.L605
	.loc 1 1924 7 is_stmt 1 view .LVU1983
	.loc 1 1924 28 is_stmt 0 view .LVU1984
	movl	input_seek_errno(%rip), %eax
	.loc 1 1924 10 view .LVU1985
	cmpl	$29, %eax
	je	.L608
	.loc 1 1926 7 is_stmt 1 view .LVU1986
	.loc 1 1926 13 is_stmt 0 view .LVU1987
	movq	16(%rsp), %rdi
	movl	%eax, (%rdi)
.L609:
	.loc 1 1955 3 is_stmt 1 view .LVU1988
	movq	input_file(%rip), %rdx
	movl	$3, %esi
	xorl	%edi, %edi
	call	quotearg_n_style_colon@PLT
.LVL700:
	.loc 1 1955 20 is_stmt 0 view .LVU1989
	movl	$5, %edx
	leaq	.LC74(%rip), %rsi
	xorl	%edi, %edi
	.loc 1 1955 3 view .LVU1990
	movq	%rax, %r13
	.loc 1 1955 20 view .LVU1991
	call	dcgettext@PLT
.LVL701:
	.loc 1 1955 3 view .LVU1992
	movq	%r13, %rcx
	xorl	%edi, %edi
	.loc 1 1955 20 view .LVU1993
	movq	%rax, %rdx
	.loc 1 1955 3 view .LVU1994
	movq	16(%rsp), %rax
	movl	(%rax), %esi
	xorl	%eax, %eax
	call	nl_error
.LVL702:
	.loc 1 1956 3 is_stmt 1 view .LVU1995
.L615:
	.loc 1 1956 3 is_stmt 0 view .LVU1996
.LBE859:
.LBE858:
	.loc 1 2239 19 is_stmt 1 view .LVU1997
	.loc 1 2242 19 view .LVU1998
	.loc 1 2242 34 is_stmt 0 view .LVU1999
	movb	$0, input_seekable(%rip)
	.loc 1 2243 19 is_stmt 1 view .LVU2000
	.loc 1 2243 36 is_stmt 0 view .LVU2001
	movl	$29, input_seek_errno(%rip)
	.loc 1 2239 31 view .LVU2002
	movl	$1, 40(%rsp)
.LVL703:
.L608:
	.loc 1 2245 15 is_stmt 1 view .LVU2003
	.loc 1 2245 47 is_stmt 0 view .LVU2004
	testb	$4, 1+conversions_mask(%rip)
	je	.L588
	cmpq	$0, 8(%rsp)
	jne	.L588
.LBE857:
	.loc 1 2262 24 view .LVU2005
	movq	input_blocksize(%rip), %r15
.LVL704:
.LBB873:
	.loc 1 2262 24 view .LVU2006
	xorl	%r14d, %r14d
	.loc 1 2262 24 view .LVU2007
.LBE873:
	.loc 1 2260 7 is_stmt 1 view .LVU2008
	.loc 1 2262 7 view .LVU2009
	.loc 1 2262 10 is_stmt 0 view .LVU2010
	cmpq	%r14, %r15
	ja	.L911
.L621:
	.loc 1 2278 11 is_stmt 1 view .LVU2011
	.loc 1 2278 17 is_stmt 0 view .LVU2012
	addq	$1, r_full(%rip)
	.loc 1 2279 11 is_stmt 1 view .LVU2013
.LVL705:
	.loc 1 2279 20 is_stmt 0 view .LVU2014
	movq	$0, 8(%rsp)
	jmp	.L622
.LVL706:
	.p2align 4,,10
	.p2align 3
.L904:
	.loc 1 2309 9 is_stmt 1 view .LVU2015
	movq	%r14, %rsi
	movq	%r15, %rdi
	call	copy_with_block
.LVL707:
	jmp	.L588
.LVL708:
	.p2align 4,,10
	.p2align 3
.L903:
	.loc 1 2304 9 view .LVU2016
.LBB874:
.LBI874:
	.loc 1 1746 1 view .LVU2017
.LBB875:
	.loc 1 1748 3 view .LVU2018
	.loc 1 1751 3 view .LVU2019
	.loc 1 1751 6 is_stmt 0 view .LVU2020
	cmpb	$0, char_is_saved(%rip)
	jne	.L633
	movq	%r15, %rax
	addq	$1, %r15
.LVL709:
.L634:
	.loc 1 1758 3 is_stmt 1 view .LVU2021
	.loc 1 1758 6 is_stmt 0 view .LVU2022
	testb	$1, %r14b
	jne	.L635
	.loc 1 1758 6 view .LVU2023
	addq	%r14, %rax
.LVL710:
.L636:
	.loc 1 1769 3 is_stmt 1 view .LVU2024
	.loc 1 1770 3 view .LVU2025
.LBB876:
	.loc 1 1770 8 view .LVU2026
	.loc 1 1770 15 is_stmt 0 view .LVU2027
	movq	%r14, %rdx
	shrq	%rdx
.LVL711:
	.loc 1 1770 31 is_stmt 1 view .LVU2028
	movq	%rdx, %rcx
	negq	%rcx
	leaq	(%rax,%rcx,2), %rcx
	.loc 1 1770 3 is_stmt 0 view .LVU2029
	testq	%rdx, %rdx
	je	.L630
.LVL712:
	.p2align 4,,10
	.p2align 3
.L638:
	.loc 1 1771 5 is_stmt 1 view .LVU2030
	.loc 1 1771 9 is_stmt 0 view .LVU2031
	movzbl	-2(%rax), %edx
	.loc 1 1770 42 view .LVU2032
	subq	$2, %rax
.LVL713:
	.loc 1 1771 9 view .LVU2033
	movb	%dl, 2(%rax)
	.loc 1 1770 34 is_stmt 1 view .LVU2034
.LVL714:
	.loc 1 1770 31 view .LVU2035
	.loc 1 1770 3 is_stmt 0 view .LVU2036
	cmpq	%rcx, %rax
	jne	.L638
	jmp	.L630
.LVL715:
	.p2align 4,,10
	.p2align 3
.L901:
	.loc 1 1770 3 view .LVU2037
.LBE876:
.LBE875:
.LBE874:
	.loc 1 2214 13 is_stmt 1 view .LVU2038
	xorl	%edi, %edi
	call	invalidate_cache
.LVL716:
	.loc 1 2214 13 is_stmt 0 view .LVU2039
	jmp	.L601
.LVL717:
	.p2align 4,,10
	.p2align 3
.L605:
.LBB878:
.LBB870:
.LBB867:
.LBB860:
	.loc 1 1930 7 is_stmt 1 view .LVU2040
	.loc 1 1931 7 view .LVU2041
.LBB861:
.LBI861:
	.loc 1 1780 1 view .LVU2042
.LBB862:
	.loc 1 1782 3 view .LVU2043
	movq	%r15, %r14
	addq	input_offset(%rip), %r14
	.loc 1 1782 16 is_stmt 0 view .LVU2044
	movq	%r14, input_offset(%rip)
	.loc 1 1783 3 is_stmt 1 view .LVU2045
	.loc 1 1783 6 is_stmt 0 view .LVU2046
	jnc	.L612
	.loc 1 1784 5 is_stmt 1 view .LVU2047
	.loc 1 1784 27 is_stmt 0 view .LVU2048
	movb	$1, input_offset_overflow(%rip)
.LVL718:
	.loc 1 1784 27 view .LVU2049
.LBE862:
.LBE861:
	.loc 1 1932 7 is_stmt 1 view .LVU2050
	.loc 1 1933 7 view .LVU2051
.L613:
	.loc 1 1935 11 view .LVU2052
	movq	input_file(%rip), %rsi
	movl	$4, %edi
	call	quotearg_style@PLT
.LVL719:
	.loc 1 1935 24 is_stmt 0 view .LVU2053
	xorl	%edi, %edi
	movl	$5, %edx
	leaq	.LC114(%rip), %rsi
	.loc 1 1935 11 view .LVU2054
	movq	%rax, %r13
	.loc 1 1935 24 view .LVU2055
	call	dcgettext@PLT
.LVL720:
	.loc 1 1935 11 view .LVU2056
	movq	%r13, %rcx
	xorl	%esi, %esi
	xorl	%edi, %edi
	.loc 1 1935 24 view .LVU2057
	movq	%rax, %rdx
	.loc 1 1935 11 view .LVU2058
	xorl	%eax, %eax
	call	nl_error
.LVL721:
	.loc 1 1937 11 is_stmt 1 view .LVU2059
	.loc 1 1937 11 is_stmt 0 view .LVU2060
	jmp	.L615
.LVL722:
	.p2align 4,,10
	.p2align 3
.L628:
	.loc 1 1937 11 view .LVU2061
.LBE860:
.LBE867:
.LBE870:
.LBE878:
.LBB879:
.LBB880:
	.loc 1 1730 29 is_stmt 1 view .LVU2062
	.loc 1 1730 3 is_stmt 0 view .LVU2063
	testq	%r14, %r14
	je	.L631
	leaq	(%r15,%r14), %rcx
	movq	%r15, %rax
.LVL723:
	.p2align 4,,10
	.p2align 3
.L632:
	.loc 1 1731 5 is_stmt 1 view .LVU2064
.LBB881:
.LBI881:
	.loc 5 156 29 view .LVU2065
.LBB882:
	.loc 5 156 50 view .LVU2066
	.loc 5 156 50 is_stmt 0 view .LVU2067
.LBE882:
.LBE881:
	.loc 1 1731 22 view .LVU2068
	movzbl	(%rax), %edx
	.loc 1 1730 39 view .LVU2069
	addq	$1, %rax
.LVL724:
	.loc 1 1731 9 view .LVU2070
	movzbl	(%rbx,%rdx), %edx
	movb	%dl, -1(%rax)
	.loc 1 1730 32 is_stmt 1 view .LVU2071
.LVL725:
	.loc 1 1730 29 view .LVU2072
	.loc 1 1730 3 is_stmt 0 view .LVU2073
	cmpq	%rcx, %rax
	jne	.L632
	jmp	.L631
.LVL726:
.L902:
	.loc 1 1730 3 view .LVU2074
.LBE880:
.LBE879:
.LBB883:
	.loc 1 2284 11 is_stmt 1 view .LVU2075
	.loc 1 2284 29 is_stmt 0 view .LVU2076
	movq	%r14, %rsi
	movq	%r15, %rdi
	call	iwrite.constprop.0
.LVL727:
	.loc 1 2285 11 is_stmt 1 view .LVU2077
	.loc 1 2285 19 is_stmt 0 view .LVU2078
	addq	%rax, w_bytes(%rip)
	.loc 1 2286 11 is_stmt 1 view .LVU2079
	.loc 1 2286 14 is_stmt 0 view .LVU2080
	cmpq	%r14, %rax
	jne	.L879
	.loc 1 2291 16 is_stmt 1 view .LVU2081
	.loc 1 2291 19 is_stmt 0 view .LVU2082
	cmpq	%r14, input_blocksize(%rip)
	je	.L912
	.loc 1 2294 13 is_stmt 1 view .LVU2083
	.loc 1 2294 22 is_stmt 0 view .LVU2084
	addq	$1, w_partial(%rip)
	jmp	.L588
.LVL728:
.L612:
	.loc 1 2294 22 view .LVU2085
.LBE883:
.LBB884:
.LBB871:
.LBB868:
.LBB865:
	.loc 1 1932 7 is_stmt 1 view .LVU2086
	movq	%r14, %rax
	shrq	$63, %rax
	.loc 1 1932 29 is_stmt 0 view .LVU2087
	orb	%al, input_offset_overflow(%rip)
	.loc 1 1933 7 is_stmt 1 view .LVU2088
	.loc 1 1933 10 is_stmt 0 view .LVU2089
	jne	.L613
	.loc 1 1939 7 is_stmt 1 view .LVU2090
	.loc 1 1939 16 is_stmt 0 view .LVU2091
	xorl	%esi, %esi
	xorl	%edi, %edi
	movl	$1, %edx
	call	lseek@PLT
.LVL729:
	.loc 1 1940 7 is_stmt 1 view .LVU2092
	.loc 1 1940 10 is_stmt 0 view .LVU2093
	testq	%rax, %rax
	js	.L609
.LBB863:
	.loc 1 1942 11 is_stmt 1 view .LVU2094
	.loc 1 1943 11 view .LVU2095
	.loc 1 1943 14 is_stmt 0 view .LVU2096
	cmpq	%r14, %rax
	je	.L608
	.loc 1 1945 11 is_stmt 1 view .LVU2097
.LVL730:
	.loc 1 1946 11 view .LVU2098
	.loc 1 1946 14 is_stmt 0 view .LVU2099
	subq	%rax, %r14
.LVL731:
	.loc 1 1946 14 view .LVU2100
	js	.L723
	cmpq	%r14, %r15
	jb	.L723
.LVL732:
.L617:
	.loc 1 1948 11 is_stmt 1 view .LVU2101
	.loc 1 1948 20 is_stmt 0 view .LVU2102
	xorl	%edi, %edi
	movl	$1, %edx
	movq	%r14, %rsi
	call	lseek@PLT
.LVL733:
	.loc 1 1948 14 view .LVU2103
	testq	%rax, %rax
	jns	.L608
	.loc 1 1950 11 is_stmt 1 view .LVU2104
	.loc 1 1950 14 is_stmt 0 view .LVU2105
	movq	16(%rsp), %rax
	cmpl	$0, (%rax)
	jne	.L609
	.loc 1 1951 13 is_stmt 1 view .LVU2106
	.loc 1 1951 26 is_stmt 0 view .LVU2107
	xorl	%edi, %edi
	movl	$5, %edx
	leaq	.LC116(%rip), %rsi
	call	dcgettext@PLT
.LVL734:
	.loc 1 1951 13 view .LVU2108
	xorl	%esi, %esi
	xorl	%edi, %edi
	.loc 1 1951 26 view .LVU2109
	movq	%rax, %rdx
	.loc 1 1951 13 view .LVU2110
	xorl	%eax, %eax
	call	nl_error
.LVL735:
	jmp	.L609
.LVL736:
.L537:
	.loc 1 1951 13 view .LVU2111
.LBE863:
.LBE865:
.LBE868:
.LBE871:
.LBE884:
.LBE901:
.LBE913:
.LBB914:
.LBB785:
	.loc 1 1656 16 view .LVU2112
	testl	%eax, %eax
	leaq	iread(%rip), %rdx
	leaq	iread_fullblock(%rip), %rax
	.loc 1 1648 21 view .LVU2113
	movb	$0, warn_partial_read(%rip)
	.loc 1 1654 3 is_stmt 1 view .LVU2114
	.loc 1 1656 16 is_stmt 0 view .LVU2115
	cmove	%rdx, %rax
	jmp	.L540
.LVL737:
.L635:
	.loc 1 1656 16 view .LVU2116
.LBE785:
.LBE914:
.LBB915:
.LBB902:
.LBB885:
.LBB877:
	.loc 1 1761 7 is_stmt 1 view .LVU2117
	.loc 1 1761 29 is_stmt 0 view .LVU2118
	subq	$1, %r14
.LVL738:
	.loc 1 1762 21 view .LVU2119
	movb	$1, char_is_saved(%rip)
	.loc 1 1761 28 view .LVU2120
	addq	%r14, %rax
.LVL739:
	.loc 1 1761 28 view .LVU2121
	movzbl	(%rax), %edx
	.loc 1 1761 18 view .LVU2122
	movb	%dl, saved_char(%rip)
	.loc 1 1762 7 is_stmt 1 view .LVU2123
	jmp	.L636
.LVL740:
.L633:
	.loc 1 1753 7 view .LVU2124
	.loc 1 1753 19 is_stmt 0 view .LVU2125
	movzbl	saved_char(%rip), %edx
	.loc 1 1755 21 view .LVU2126
	movb	$0, char_is_saved(%rip)
	.loc 1 1753 19 view .LVU2127
	leaq	-1(%r15), %rax
.LVL741:
	.loc 1 1754 15 view .LVU2128
	addq	$1, %r14
.LVL742:
	.loc 1 1753 19 view .LVU2129
	movb	%dl, -1(%r15)
	.loc 1 1754 7 is_stmt 1 view .LVU2130
.LVL743:
	.loc 1 1755 7 view .LVU2131
	jmp	.L634
.LVL744:
.L710:
	.loc 1 1755 7 is_stmt 0 view .LVU2132
.LBE877:
.LBE885:
	movq	%r14, 8(%rsp)
	movq	%r15, %r14
	jmp	.L622
.LVL745:
.L918:
.LBB886:
	.loc 1 2344 7 is_stmt 1 view .LVU2133
	.loc 1 2344 25 is_stmt 0 view .LVU2134
	movq	obuf(%rip), %rdi
	call	iwrite.constprop.0
.LVL746:
	.loc 1 2345 7 is_stmt 1 view .LVU2135
	.loc 1 2345 15 is_stmt 0 view .LVU2136
	addq	%rax, w_bytes(%rip)
	.loc 1 2346 7 is_stmt 1 view .LVU2137
	.loc 1 2346 10 is_stmt 0 view .LVU2138
	testq	%rax, %rax
	je	.L656
	.loc 1 2347 9 is_stmt 1 view .LVU2139
	.loc 1 2347 18 is_stmt 0 view .LVU2140
	addq	$1, w_partial(%rip)
.L656:
	.loc 1 2348 7 is_stmt 1 view .LVU2141
	.loc 1 2348 10 is_stmt 0 view .LVU2142
	cmpq	oc(%rip), %rax
	je	.L655
.LVL747:
.L879:
	.loc 1 2350 11 is_stmt 1 view .LVU2143
	movq	output_file(%rip), %rsi
	movl	$4, %edi
	call	quotearg_style@PLT
.LVL748:
	.loc 1 2350 28 is_stmt 0 view .LVU2144
	movl	$5, %edx
	leaq	.LC117(%rip), %rsi
	.loc 1 2350 11 view .LVU2145
	movq	%rax, %r12
.LVL749:
.L876:
	.loc 1 2350 11 view .LVU2146
.LBE886:
	.loc 1 2394 24 view .LVU2147
	xorl	%edi, %edi
	call	dcgettext@PLT
.LVL750:
	.loc 1 2394 7 view .LVU2148
	movq	%r12, %rcx
	xorl	%edi, %edi
	.loc 1 2394 24 view .LVU2149
	movq	%rax, %rdx
	.loc 1 2394 7 view .LVU2150
	movq	16(%rsp), %rax
	movl	(%rax), %esi
	xorl	%eax, %eax
	call	nl_error
.LVL751:
.L877:
	.loc 1 2395 7 is_stmt 1 view .LVU2151
	.loc 1 2395 14 is_stmt 0 view .LVU2152
	movl	$1, 40(%rsp)
.LVL752:
.L626:
	.loc 1 2395 14 view .LVU2153
.LBE902:
.LBE915:
	.loc 1 2515 3 is_stmt 1 view .LVU2154
	.loc 1 2515 6 is_stmt 0 view .LVU2155
	cmpq	$0, max_records(%rip)
	je	.L913
.L669:
	.loc 1 2534 7 is_stmt 1 view .LVU2156
	.loc 1 2534 10 is_stmt 0 view .LVU2157
	cmpb	$0, i_nocache(%rip)
	jne	.L672
	.loc 1 2534 21 discriminator 1 view .LVU2158
	cmpb	$0, i_nocache_eof(%rip)
	je	.L673
.L672:
	.loc 1 2535 9 is_stmt 1 view .LVU2159
	xorl	%esi, %esi
	xorl	%edi, %edi
	call	invalidate_cache
.LVL753:
.L673:
	.loc 1 2536 7 view .LVU2160
	.loc 1 2536 10 is_stmt 0 view .LVU2161
	cmpb	$0, o_nocache(%rip)
	jne	.L674
	.loc 1 2536 21 discriminator 1 view .LVU2162
	cmpb	$0, o_nocache_eof(%rip)
	je	.L671
.L674:
	.loc 1 2537 9 is_stmt 1 view .LVU2163
	xorl	%esi, %esi
	movl	$1, %edi
	call	invalidate_cache
.LVL754:
.L671:
	.loc 1 2540 3 view .LVU2164
.LBB916:
.LBI916:
	.loc 1 1024 1 view .LVU2165
.LBB917:
	.loc 1 1027 3 view .LVU2166
	call	process_signals
.LVL755:
	.loc 1 1028 3 view .LVU2167
	call	cleanup
.LVL756:
	.loc 1 1029 3 view .LVU2168
	call	print_stats
.LVL757:
.LBE917:
.LBE916:
	.loc 1 2541 3 view .LVU2169
	.loc 1 2542 1 is_stmt 0 view .LVU2170
	movq	216(%rsp), %rax
	xorq	%fs:40, %rax
	jne	.L914
	movl	40(%rsp), %eax
	addq	$232, %rsp
	.cfi_remember_state
	.cfi_def_cfa_offset 56
	popq	%rbx
	.cfi_def_cfa_offset 48
	popq	%rbp
	.cfi_def_cfa_offset 40
	popq	%r12
	.cfi_def_cfa_offset 32
	popq	%r13
	.cfi_def_cfa_offset 24
	popq	%r14
	.cfi_def_cfa_offset 16
	popq	%r15
	.cfi_def_cfa_offset 8
	ret
.LVL758:
.L535:
	.cfi_restore_state
.LBB918:
.LBB786:
	.loc 1 1641 8 is_stmt 1 view .LVU2171
	.loc 1 1641 11 is_stmt 0 view .LVU2172
	testq	%rax, %rax
	je	.L536
	.loc 1 1642 5 is_stmt 1 view .LVU2173
	.loc 1 1642 18 is_stmt 0 view .LVU2174
	movq	%rax, seek_records(%rip)
	jmp	.L536
.L533:
	.loc 1 1633 8 is_stmt 1 view .LVU2175
	.loc 1 1633 11 is_stmt 0 view .LVU2176
	cmpq	$-1, %r12
	je	.L534
	.loc 1 1634 5 is_stmt 1 view .LVU2177
	.loc 1 1634 17 is_stmt 0 view .LVU2178
	movq	%r12, max_records(%rip)
	jmp	.L534
.L531:
	.loc 1 1625 8 is_stmt 1 view .LVU2179
	.loc 1 1625 11 is_stmt 0 view .LVU2180
	testq	%r14, %r14
	je	.L532
	.loc 1 1626 5 is_stmt 1 view .LVU2181
	.loc 1 1626 18 is_stmt 0 view .LVU2182
	movq	%r14, skip_records(%rip)
	jmp	.L532
.LVL759:
.L555:
	.loc 1 1626 18 view .LVU2183
.LBE786:
.LBE918:
.LBB919:
.LBB813:
	.loc 1 1714 8 is_stmt 1 view .LVU2184
	.loc 1 1714 11 is_stmt 0 view .LVU2185
	andb	$4, %bpl
	je	.L557
	leaq	trans_table(%rip), %rax
	leaq	ascii_to_ibm(%rip), %rcx
	leaq	256(%rax), %rsi
	.p2align 4,,10
	.p2align 3
.L558:
.LVL760:
.LBB809:
.LBB810:
	.loc 1 756 5 is_stmt 1 view .LVU2186
	.loc 1 756 43 is_stmt 0 view .LVU2187
	movzbl	(%rax), %edx
	addq	$1, %rax
.LVL761:
	.loc 1 756 20 view .LVU2188
	movzbl	(%rcx,%rdx), %edx
	movb	%dl, -1(%rax)
	.loc 1 755 28 is_stmt 1 view .LVU2189
	.loc 1 755 19 view .LVU2190
	.loc 1 755 3 is_stmt 0 view .LVU2191
	cmpq	%rax, %rsi
	jne	.L558
	jmp	.L559
.L550:
.LBE810:
.LBE809:
	.loc 1 1701 8 is_stmt 1 view .LVU2192
	.loc 1 1701 11 is_stmt 0 view .LVU2193
	testb	$32, %bpl
	je	.L552
.LBB811:
	.loc 1 1704 26 view .LVU2194
	call	__ctype_tolower_loc@PLT
.LVL762:
	movq	(%rax), %rsi
	leaq	trans_table(%rip), %rax
	leaq	256(%rax), %rcx
	.p2align 4,,10
	.p2align 3
.L553:
.LVL763:
	.loc 1 1704 26 view .LVU2195
.LBE811:
	.loc 1 1704 9 is_stmt 1 view .LVU2196
.LBB812:
	.loc 1 1704 26 view .LVU2197
	.loc 1 1704 26 view .LVU2198
	.loc 1 1704 26 view .LVU2199
	.loc 1 1704 26 view .LVU2200
	movzbl	(%rax), %edx
	addq	$1, %rax
.LVL764:
	.loc 1 1704 26 is_stmt 0 view .LVU2201
.LBE812:
	.loc 1 1704 24 view .LVU2202
	movl	(%rsi,%rdx,4), %edx
	movb	%dl, -1(%rax)
.LVL765:
	.loc 1 1703 28 is_stmt 1 view .LVU2203
	.loc 1 1703 19 view .LVU2204
	.loc 1 1703 7 is_stmt 0 view .LVU2205
	cmpq	%rax, %rcx
	jne	.L553
	jmp	.L554
.LVL766:
.L565:
	.loc 1 1703 7 view .LVU2206
.LBE813:
.LBE919:
.LBB920:
	.loc 1 2468 7 is_stmt 1 view .LVU2207
	.loc 1 2469 15 is_stmt 0 view .LVU2208
	movl	%r12d, %edx
	movl	$438, %ecx
	movl	$1, %edi
	orl	$2, %edx
	call	ifd_reopen
.LVL767:
	movq	output_file(%rip), %rsi
	.loc 1 2469 12 view .LVU2209
	testl	%eax, %eax
	jns	.L567
	jmp	.L675
.LVL768:
.L580:
	.loc 1 2469 12 view .LVU2210
	movq	56(%rsp), %r12
.LVL769:
	.loc 1 2469 12 view .LVU2211
	jmp	.L585
.LVL770:
.L909:
	.loc 1 2469 12 view .LVU2212
.LBE920:
.LBB921:
.LBB903:
	.loc 1 2218 11 is_stmt 1 view .LVU2213
	.loc 1 2218 25 is_stmt 0 view .LVU2214
	movzbl	i_nocache(%rip), %eax
.LVL771:
	.loc 1 2218 25 view .LVU2215
	orb	%al, i_nocache_eof(%rip)
	.loc 1 2219 11 is_stmt 1 view .LVU2216
	.loc 1 2219 38 is_stmt 0 view .LVU2217
	cmpb	$0, o_nocache(%rip)
	.loc 1 2219 25 view .LVU2218
	movzbl	o_nocache_eof(%rip), %eax
	.loc 1 2219 38 view .LVU2219
	je	.L603
	xorl	%ebx, %ebx
	testl	$512, %esi
	sete	%bl
	movl	%ebx, 44(%rsp)
.L603:
	.loc 1 2219 25 view .LVU2220
	orl	44(%rsp), %eax
	movb	%al, o_nocache_eof(%rip)
	andb	$1, o_nocache_eof(%rip)
	.loc 1 2220 11 is_stmt 1 view .LVU2221
.LVL772:
.L592:
	.loc 1 2317 3 view .LVU2222
	.loc 1 2317 6 is_stmt 0 view .LVU2223
	cmpb	$0, char_is_saved(%rip)
	je	.L643
	.loc 1 2319 7 is_stmt 1 view .LVU2224
	.loc 1 2319 10 is_stmt 0 view .LVU2225
	testb	$8, %sil
	jne	.L915
	.loc 1 2321 12 is_stmt 1 view .LVU2226
	.loc 1 2321 15 is_stmt 0 view .LVU2227
	andb	$16, %sil
	jne	.L916
	.loc 1 2324 9 is_stmt 1 view .LVU2228
	.loc 1 2324 9 view .LVU2229
	movq	oc(%rip), %rdx
	movq	obuf(%rip), %rcx
	movzbl	saved_char(%rip), %esi
	leaq	1(%rdx), %rax
	cmpq	output_blocksize(%rip), %rax
	movq	%rax, oc(%rip)
	movb	%sil, (%rcx,%rdx)
	.loc 1 2324 9 view .LVU2230
	jnb	.L646
.L649:
	.loc 1 2335 3 view .LVU2231
	.loc 1 2335 6 is_stmt 0 view .LVU2232
	cmpq	$0, col(%rip)
	movl	conversions_mask(%rip), %esi
	je	.L651
.L647:
	.loc 1 2335 11 view .LVU2233
	andb	$16, %sil
	je	.L651
	movq	oc(%rip), %rdx
	.loc 1 2338 7 is_stmt 1 view .LVU2234
	.loc 1 2338 7 view .LVU2235
	movq	obuf(%rip), %rcx
	movzbl	newline_character(%rip), %esi
	leaq	1(%rdx), %rax
	cmpq	output_blocksize(%rip), %rax
	movq	%rax, oc(%rip)
	movb	%sil, (%rcx,%rdx)
	.loc 1 2338 7 view .LVU2236
	jnb	.L917
.L651:
	.loc 1 2338 7 view .LVU2237
	.loc 1 2342 3 view .LVU2238
	.loc 1 2342 10 is_stmt 0 view .LVU2239
	movq	oc(%rip), %rsi
	.loc 1 2342 6 view .LVU2240
	testq	%rsi, %rsi
	jne	.L918
.L655:
	.loc 1 2357 3 is_stmt 1 view .LVU2241
	.loc 1 2357 6 is_stmt 0 view .LVU2242
	cmpb	$0, final_op_was_seek(%rip)
	jne	.L919
.L657:
	.loc 1 2382 3 is_stmt 1 view .LVU2243
	.loc 1 2382 25 is_stmt 0 view .LVU2244
	movl	conversions_mask(%rip), %esi
	.loc 1 2382 6 view .LVU2245
	testl	$16384, %esi
	jne	.L663
.LVL773:
.L661:
	.loc 1 2392 3 is_stmt 1 view .LVU2246
	.loc 1 2392 6 is_stmt 0 view .LVU2247
	andl	$32768, %esi
	je	.L626
	jmp	.L667
.LVL774:
.L646:
	.loc 1 2324 9 is_stmt 1 view .LVU2248
	call	write_output
.LVL775:
	movl	conversions_mask(%rip), %esi
.L643:
	.loc 1 2324 9 view .LVU2249
	.loc 1 2327 3 view .LVU2250
	.loc 1 2327 6 is_stmt 0 view .LVU2251
	testb	$8, %sil
	je	.L649
	movq	col(%rip), %rbx
	.loc 1 2327 36 view .LVU2252
	testq	%rbx, %rbx
	je	.L651
.LVL776:
.LBB887:
	.loc 1 2331 28 is_stmt 1 view .LVU2253
	.loc 1 2331 7 is_stmt 0 view .LVU2254
	cmpq	%rbx, conversion_blocksize(%rip)
	ja	.L652
	jmp	.L647
	.p2align 4,,10
	.p2align 3
.L654:
	.loc 1 2332 9 is_stmt 1 view .LVU2255
	.loc 1 2331 54 view .LVU2256
	.loc 1 2331 55 is_stmt 0 view .LVU2257
	addq	$1, %rbx
.LVL777:
	.loc 1 2331 28 is_stmt 1 view .LVU2258
	.loc 1 2331 7 is_stmt 0 view .LVU2259
	cmpq	conversion_blocksize(%rip), %rbx
	jnb	.L649
.LVL778:
.L652:
	.loc 1 2332 9 is_stmt 1 view .LVU2260
	.loc 1 2332 9 view .LVU2261
	movq	oc(%rip), %rdx
	movq	obuf(%rip), %rcx
	movzbl	space_character(%rip), %esi
	leaq	1(%rdx), %rax
	cmpq	output_blocksize(%rip), %rax
	movq	%rax, oc(%rip)
	movb	%sil, (%rcx,%rdx)
	.loc 1 2332 9 view .LVU2262
	jb	.L654
	.loc 1 2332 9 view .LVU2263
	call	write_output
.LVL779:
	jmp	.L654
.LVL780:
.L920:
	.loc 1 2332 9 is_stmt 0 view .LVU2264
.LBE887:
.LBB888:
.LBB889:
	.loc 1 1318 18 view .LVU2265
	movq	16(%rsp), %rax
.LVL781:
	.loc 1 1318 18 view .LVU2266
	cmpl	$4, (%rax)
	jne	.L664
.L663:
	.loc 1 1311 3 is_stmt 1 view .LVU2267
	.loc 1 1313 3 view .LVU2268
	.loc 1 1315 7 view .LVU2269
	call	process_signals
.LVL782:
	.loc 1 1316 7 view .LVU2270
	.loc 1 1316 13 is_stmt 0 view .LVU2271
	movl	$1, %edi
	call	fdatasync@PLT
.LVL783:
	.loc 1 1318 9 is_stmt 1 view .LVU2272
	.loc 1 1318 3 is_stmt 0 view .LVU2273
	testl	%eax, %eax
	js	.L920
	.loc 1 1320 3 is_stmt 1 view .LVU2274
.LVL784:
	.loc 1 1320 3 is_stmt 0 view .LVU2275
	movl	conversions_mask(%rip), %esi
.LBE889:
.LBE888:
	.loc 1 2382 40 view .LVU2276
	je	.L661
.L664:
	.loc 1 2384 7 is_stmt 1 view .LVU2277
	.loc 1 2384 27 is_stmt 0 view .LVU2278
	movq	16(%rsp), %rax
	movl	(%rax), %eax
	movl	%eax, 8(%rsp)
.LVL785:
	.loc 1 2384 27 view .LVU2279
	subl	$22, %eax
	.loc 1 2384 10 view .LVU2280
	andl	$-17, %eax
	jne	.L921
.LVL786:
.L665:
	.loc 1 2389 7 is_stmt 1 view .LVU2281
	.loc 1 2389 24 is_stmt 0 view .LVU2282
	orl	$32768, conversions_mask(%rip)
	movl	conversions_mask(%rip), %esi
	jmp	.L661
.LVL787:
	.p2align 4,,10
	.p2align 3
.L922:
.LBB890:
.LBB891:
	.loc 1 1369 18 view .LVU2283
	movq	16(%rsp), %rax
.LVL788:
	.loc 1 1369 18 view .LVU2284
	cmpl	$4, (%rax)
	jne	.L668
.L667:
	.loc 1 1362 3 is_stmt 1 view .LVU2285
	.loc 1 1364 3 view .LVU2286
	.loc 1 1366 7 view .LVU2287
	call	process_signals
.LVL789:
	.loc 1 1367 7 view .LVU2288
	.loc 1 1367 13 is_stmt 0 view .LVU2289
	movl	$1, %edi
	call	fsync@PLT
.LVL790:
	.loc 1 1369 9 is_stmt 1 view .LVU2290
	.loc 1 1369 3 is_stmt 0 view .LVU2291
	testl	%eax, %eax
	js	.L922
	.loc 1 1371 3 is_stmt 1 view .LVU2292
.LVL791:
	.loc 1 1371 3 is_stmt 0 view .LVU2293
.LBE891:
.LBE890:
	.loc 1 2392 36 view .LVU2294
	je	.L626
.L668:
	.loc 1 2394 7 is_stmt 1 view .LVU2295
	movq	output_file(%rip), %rsi
	movl	$4, %edi
	call	quotearg_style@PLT
.LVL792:
	.loc 1 2394 24 is_stmt 0 view .LVU2296
	movl	$5, %edx
	leaq	.LC120(%rip), %rsi
	.loc 1 2394 7 view .LVU2297
	movq	%rax, %r12
	jmp	.L876
.LVL793:
.L898:
.LBB892:
	.loc 1 2154 39 view .LVU2298
	movq	56(%rsp), %rdx
	.loc 1 2154 30 view .LVU2299
	testq	%rdx, %rdx
	jne	.L579
	jmp	.L577
.LVL794:
.L707:
	.loc 1 2154 30 view .LVU2300
.LBE892:
	.loc 1 2177 12 view .LVU2301
	movl	$0, 40(%rsp)
.LVL795:
.L586:
	.loc 1 2177 12 view .LVU2302
.LBE903:
.LBE921:
	.loc 1 2518 7 is_stmt 1 view .LVU2303
	.loc 1 2518 10 is_stmt 0 view .LVU2304
	cmpb	$0, i_nocache(%rip)
	jne	.L923
.LVL796:
.L670:
	.loc 1 2524 7 is_stmt 1 view .LVU2305
	.loc 1 2524 10 is_stmt 0 view .LVU2306
	cmpb	$0, o_nocache(%rip)
	je	.L671
	.loc 1 2524 25 discriminator 1 view .LVU2307
	xorl	%esi, %esi
	movl	$1, %edi
	call	invalidate_cache
.LVL797:
	.loc 1 2524 21 discriminator 1 view .LVU2308
	testb	%al, %al
	jne	.L671
	.loc 1 2526 11 is_stmt 1 view .LVU2309
	movq	output_file(%rip), %rdx
	movl	$3, %esi
	xorl	%edi, %edi
	call	quotearg_n_style_colon@PLT
.LVL798:
	.loc 1 2526 28 is_stmt 0 view .LVU2310
	movl	$5, %edx
	leaq	.LC121(%rip), %rsi
	xorl	%edi, %edi
	.loc 1 2526 11 view .LVU2311
	movq	%rax, %r12
	.loc 1 2526 28 view .LVU2312
	call	dcgettext@PLT
.LVL799:
	.loc 1 2526 11 view .LVU2313
	movq	%r12, %rcx
	xorl	%edi, %edi
	.loc 1 2526 28 view .LVU2314
	movq	%rax, %rdx
	.loc 1 2526 11 view .LVU2315
	movq	16(%rsp), %rax
	movl	(%rax), %esi
	xorl	%eax, %eax
	call	nl_error
.LVL800:
	.loc 1 2528 11 is_stmt 1 view .LVU2316
	.loc 1 2528 23 is_stmt 0 view .LVU2317
	movl	$1, 40(%rsp)
	jmp	.L671
.LVL801:
.L882:
.LBB922:
.LBB673:
	.loc 1 932 7 is_stmt 1 view .LVU2318
	.loc 1 934 7 is_stmt 0 view .LVU2319
	movq	32(%rsp), %rsi
	.loc 1 932 22 view .LVU2320
	leaq	interrupt_handler(%rip), %rax
	.loc 1 934 7 view .LVU2321
	xorl	%edx, %edx
	movl	$2, %edi
	.loc 1 932 22 view .LVU2322
	movq	%rax, 64(%rsp)
	.loc 1 933 7 is_stmt 1 view .LVU2323
	.loc 1 933 20 is_stmt 0 view .LVU2324
	movl	$-1073741824, 200(%rsp)
	.loc 1 934 7 is_stmt 1 view .LVU2325
	call	sigaction@PLT
.LVL802:
	jmp	.L475
.L881:
	.loc 1 922 7 view .LVU2326
	.loc 1 927 7 is_stmt 0 view .LVU2327
	movq	32(%rsp), %rsi
	.loc 1 922 22 view .LVU2328
	leaq	siginfo_handler(%rip), %rax
	.loc 1 927 7 view .LVU2329
	xorl	%edx, %edx
	movl	$10, %edi
	.loc 1 922 22 view .LVU2330
	movq	%rax, 64(%rsp)
	.loc 1 926 7 is_stmt 1 view .LVU2331
	.loc 1 926 20 is_stmt 0 view .LVU2332
	movl	$0, 200(%rsp)
	.loc 1 927 7 is_stmt 1 view .LVU2333
	call	sigaction@PLT
.LVL803:
	jmp	.L474
.LVL804:
.L892:
	.loc 1 927 7 is_stmt 0 view .LVU2334
.LBE673:
.LBE922:
	.loc 1 2436 7 is_stmt 1 view .LVU2335
	.loc 1 2436 20 is_stmt 0 view .LVU2336
	xorl	%edi, %edi
	movl	$5, %edx
	leaq	.LC108(%rip), %rsi
	call	dcgettext@PLT
.LVL805:
	.loc 1 2437 7 view .LVU2337
	movl	%r13d, %esi
	xorl	%edi, %edi
	.loc 1 2436 20 view .LVU2338
	movq	%rax, %rdx
	.loc 1 2436 18 view .LVU2339
	movq	%rax, input_file(%rip)
	.loc 1 2437 7 is_stmt 1 view .LVU2340
	call	set_fd_flags
.LVL806:
	jmp	.L561
.LVL807:
.L913:
	.loc 1 2515 24 is_stmt 0 discriminator 1 view .LVU2341
	cmpq	$0, max_bytes(%rip)
	jne	.L669
	jmp	.L586
.LVL808:
.L899:
.LBB923:
.LBB904:
.LBB893:
.LBB836:
	.loc 1 2515 24 discriminator 1 view .LVU2342
	call	alloc_ibuf.part.0
.LVL809:
	jmp	.L587
.LVL810:
.L906:
	.loc 1 2515 24 discriminator 1 view .LVU2343
.LBE836:
.LBE893:
.LBE904:
.LBE923:
.LBB924:
.LBB787:
.LBB771:
.LBB745:
	.loc 1 1520 15 view .LVU2344
	testb	%al, %al
	je	.L717
.L689:
	movq	%r13, %rax
	movl	$115, %ecx
	leaq	.LC81(%rip), %rdx
	.p2align 4,,10
	.p2align 3
.L496:
.LVL811:
.LBB699:
.LBB700:
.LBB701:
	.loc 1 1397 5 is_stmt 1 view .LVU2345
	.loc 1 1397 13 is_stmt 0 view .LVU2346
	addq	$1, %rax
.LVL812:
	.loc 1 1397 27 view .LVU2347
	addq	$1, %rdx
.LVL813:
	.loc 1 1397 8 view .LVU2348
	cmpb	%cl, -1(%rax)
	jne	.L495
	.loc 1 1396 9 is_stmt 1 view .LVU2349
	.loc 1 1396 10 is_stmt 0 view .LVU2350
	movzbl	(%rdx), %ecx
	.loc 1 1396 9 view .LVU2351
	testb	%cl, %cl
	jne	.L496
	.loc 1 1399 3 is_stmt 1 view .LVU2352
	.loc 1 1399 11 is_stmt 0 view .LVU2353
	movzbl	(%rax), %eax
.LVL814:
	.loc 1 1399 11 view .LVU2354
.LBE701:
.LBE700:
.LBE699:
	.loc 1 1523 15 view .LVU2355
	cmpb	$61, %al
	je	.L718
	testb	%al, %al
	jne	.L495
.L718:
	.loc 1 1524 9 is_stmt 1 view .LVU2356
	.loc 1 1524 24 is_stmt 0 view .LVU2357
	leaq	.LC100(%rip), %rcx
	movl	$1, %edx
	leaq	statuses(%rip), %rsi
	call	parse_symbols
.LVL815:
	.loc 1 1524 22 view .LVU2358
	movl	%eax, status_level(%rip)
	jmp	.L482
.LVL816:
.L723:
	.loc 1 1524 22 view .LVU2359
.LBE745:
.LBE771:
.LBE787:
.LBE924:
.LBB925:
.LBB905:
.LBB894:
.LBB872:
.LBB869:
.LBB866:
.LBB864:
	.loc 1 1946 47 view .LVU2360
	cmpl	$1, status_level(%rip)
	je	.L617
	.loc 1 1947 13 is_stmt 1 view .LVU2361
	.loc 1 1947 26 is_stmt 0 view .LVU2362
	xorl	%edi, %edi
	movl	$5, %edx
	leaq	.LC115(%rip), %rsi
	call	dcgettext@PLT
.LVL817:
	.loc 1 1947 13 view .LVU2363
	xorl	%esi, %esi
	xorl	%edi, %edi
	.loc 1 1947 26 view .LVU2364
	movq	%rax, %rdx
	.loc 1 1947 13 view .LVU2365
	xorl	%eax, %eax
	call	nl_error
.LVL818:
	jmp	.L617
.LVL819:
.L886:
	.loc 1 1947 13 view .LVU2366
.LBE864:
.LBE866:
.LBE869:
.LBE872:
.LBE894:
.LBE905:
.LBE925:
.LBB926:
.LBB788:
	.loc 1 1651 30 view .LVU2367
	movq	max_records(%rip), %rax
	subq	$1, %rax
	.loc 1 1651 10 view .LVU2368
	cmpq	$-3, %rax
	jbe	.L538
	.loc 1 1652 26 view .LVU2369
	movl	%esi, %eax
	orl	%ecx, %eax
	.loc 1 1652 10 view .LVU2370
	testb	$64, %ah
	jne	.L538
	.loc 1 1648 21 view .LVU2371
	movb	$0, warn_partial_read(%rip)
	.loc 1 1654 3 is_stmt 1 view .LVU2372
	.loc 1 1656 16 is_stmt 0 view .LVU2373
	leaq	iread(%rip), %rax
	jmp	.L540
.LVL820:
.L923:
	.loc 1 1656 16 view .LVU2374
.LBE788:
.LBE926:
	.loc 1 2518 25 discriminator 1 view .LVU2375
	xorl	%esi, %esi
	xorl	%edi, %edi
	call	invalidate_cache
.LVL821:
	.loc 1 2518 21 discriminator 1 view .LVU2376
	testb	%al, %al
	jne	.L670
	.loc 1 2520 11 is_stmt 1 view .LVU2377
	movq	input_file(%rip), %rdx
	movl	$3, %esi
	xorl	%edi, %edi
	call	quotearg_n_style_colon@PLT
.LVL822:
	.loc 1 2520 28 is_stmt 0 view .LVU2378
	movl	$5, %edx
	leaq	.LC121(%rip), %rsi
	xorl	%edi, %edi
	.loc 1 2520 11 view .LVU2379
	movq	%rax, %r12
	.loc 1 2520 28 view .LVU2380
	call	dcgettext@PLT
.LVL823:
	.loc 1 2520 11 view .LVU2381
	movq	%r12, %rcx
	xorl	%edi, %edi
	.loc 1 2520 28 view .LVU2382
	movq	%rax, %rdx
	.loc 1 2520 11 view .LVU2383
	movq	16(%rsp), %rax
	movl	(%rax), %esi
	xorl	%eax, %eax
	call	nl_error
.LVL824:
	.loc 1 2522 11 is_stmt 1 view .LVU2384
	.loc 1 2522 23 is_stmt 0 view .LVU2385
	movl	$1, 40(%rsp)
	jmp	.L670
.LVL825:
.L897:
.LBB927:
.LBB821:
.LBB816:
	.loc 1 2494 15 is_stmt 1 view .LVU2386
	.loc 1 2494 19 is_stmt 0 view .LVU2387
	movq	16(%rsp), %rax
	.loc 1 2496 19 view .LVU2388
	movq	32(%rsp), %rsi
	movl	$1, %edi
	.loc 1 2494 19 view .LVU2389
	movl	(%rax), %r12d
.LVL826:
	.loc 1 2495 15 is_stmt 1 view .LVU2390
	.loc 1 2496 15 view .LVU2391
	.loc 1 2496 19 is_stmt 0 view .LVU2392
	call	ifstat
.LVL827:
	.loc 1 2496 18 view .LVU2393
	testl	%eax, %eax
	jne	.L924
	.loc 1 2499 15 is_stmt 1 view .LVU2394
	.loc 1 2499 19 is_stmt 0 view .LVU2395
	movl	88(%rsp), %eax
	andl	$61440, %eax
	.loc 1 2500 19 view .LVU2396
	subl	$16384, %eax
	.loc 1 2499 18 view .LVU2397
	testl	$-20480, %eax
	jne	.L563
.LBB817:
	.loc 1 2502 17 is_stmt 1 view .LVU2398
	movq	output_file(%rip), %rsi
	movl	$4, %edi
	call	quotearg_style@PLT
.LVL828:
	movl	$5, %edx
	leaq	.LC112(%rip), %rsi
	xorl	%edi, %edi
	movq	%rax, %rbx
	call	dcgettext@PLT
.LVL829:
	movq	%rbx, %r8
	movq	%r13, %rcx
	movl	%r12d, %esi
	movq	%rax, %rdx
	movl	$1, %edi
	xorl	%eax, %eax
	call	nl_error
.LVL830:
.L880:
	.loc 1 2502 17 is_stmt 0 view .LVU2399
.LBE817:
.LBE816:
.LBE821:
.LBE927:
.LBB928:
.LBB674:
	.loc 1 914 5 is_stmt 1 view .LVU2400
	movl	$10, %esi
	leaq	caught_signals(%rip), %rdi
	call	sigaddset@PLT
.LVL831:
	jmp	.L472
.LVL832:
.L894:
	.loc 1 914 5 is_stmt 0 view .LVU2401
.LBE674:
.LBE928:
	.loc 1 2453 7 is_stmt 1 view .LVU2402
	.loc 1 2453 21 is_stmt 0 view .LVU2403
	xorl	%edi, %edi
	movl	$5, %edx
	leaq	.LC110(%rip), %rsi
	call	dcgettext@PLT
.LVL833:
	.loc 1 2454 7 view .LVU2404
	movl	%r13d, %esi
	movl	$1, %edi
	.loc 1 2453 21 view .LVU2405
	movq	%rax, %rdx
	.loc 1 2453 19 view .LVU2406
	movq	%rax, output_file(%rip)
	.loc 1 2454 7 is_stmt 1 view .LVU2407
	call	set_fd_flags
.LVL834:
	jmp	.L563
.LVL835:
.L912:
.LBB929:
.LBB906:
.LBB895:
	.loc 1 2292 13 view .LVU2408
	.loc 1 2292 19 is_stmt 0 view .LVU2409
	addq	$1, w_full(%rip)
	jmp	.L588
.LVL836:
.L919:
	.loc 1 2292 19 view .LVU2410
.LBE895:
.LBB896:
	.loc 1 2359 7 is_stmt 1 view .LVU2411
	.loc 1 2360 7 view .LVU2412
	.loc 1 2360 11 is_stmt 0 view .LVU2413
	movq	32(%rsp), %rsi
	movl	$1, %edi
	call	ifstat
.LVL837:
	.loc 1 2360 10 view .LVU2414
	testl	%eax, %eax
	jne	.L925
	.loc 1 2365 7 is_stmt 1 view .LVU2415
	.loc 1 2365 11 is_stmt 0 view .LVU2416
	movl	88(%rsp), %eax
	andl	$61440, %eax
	.loc 1 2365 10 view .LVU2417
	cmpl	$32768, %eax
	jne	.L657
.LBB897:
	.loc 1 2367 11 is_stmt 1 view .LVU2418
	.loc 1 2367 33 is_stmt 0 view .LVU2419
	movl	$1, %edx
	xorl	%esi, %esi
	movl	$1, %edi
	call	lseek@PLT
.LVL838:
	movq	%rax, %r12
.LVL839:
	.loc 1 2368 11 is_stmt 1 view .LVU2420
	.loc 1 2368 14 is_stmt 0 view .LVU2421
	testq	%rax, %rax
	js	.L657
	.loc 1 2368 34 view .LVU2422
	cmpq	112(%rsp), %rax
	jle	.L657
	.loc 1 2370 15 is_stmt 1 view .LVU2423
	.loc 1 2370 19 is_stmt 0 view .LVU2424
	movq	%rax, %rdi
	call	iftruncate.constprop.0
.LVL840:
	.loc 1 2370 18 view .LVU2425
	testl	%eax, %eax
	je	.L657
	.loc 1 2372 19 is_stmt 1 view .LVU2426
	movq	output_file(%rip), %rsi
	movl	$4, %edi
	call	quotearg_style@PLT
.LVL841:
	.loc 1 2373 26 is_stmt 0 view .LVU2427
	xorl	%edi, %edi
	movl	$5, %edx
	leaq	.LC118(%rip), %rsi
	.loc 1 2372 19 view .LVU2428
	movq	%rax, %rbx
	.loc 1 2373 26 view .LVU2429
	call	dcgettext@PLT
.LVL842:
	.loc 1 2372 19 view .LVU2430
	movq	%rbx, %r8
	movq	%r12, %rcx
	xorl	%edi, %edi
	.loc 1 2373 26 view .LVU2431
	movq	%rax, %rdx
	.loc 1 2372 19 view .LVU2432
	movq	16(%rsp), %rax
	movl	(%rax), %esi
	xorl	%eax, %eax
	call	nl_error
.LVL843:
	.loc 1 2376 19 is_stmt 1 view .LVU2433
	.loc 1 2376 26 is_stmt 0 view .LVU2434
	jmp	.L877
.LVL844:
.L910:
	.loc 1 2376 26 view .LVU2435
.LBE897:
.LBE896:
	.loc 1 2255 27 view .LVU2436
	movl	$1, 40(%rsp)
.LVL845:
	.loc 1 2255 27 view .LVU2437
	jmp	.L592
.LVL846:
.L915:
	.loc 1 2320 9 is_stmt 1 view .LVU2438
	movl	$1, %esi
	leaq	saved_char(%rip), %rdi
	call	copy_with_block
.LVL847:
	movl	conversions_mask(%rip), %esi
	jmp	.L643
.LVL848:
.L495:
	.loc 1 2320 9 is_stmt 0 view .LVU2439
.LBE906:
.LBE929:
.LBB930:
.LBB789:
.LBB772:
.LBB746:
.LBB702:
	.loc 1 1528 11 is_stmt 1 view .LVU2440
	.loc 1 1529 25 is_stmt 0 view .LVU2441
	leaq	56(%rsp), %rsi
	movq	%rdi, 24(%rsp)
	.loc 1 1528 24 view .LVU2442
	movl	$0, 56(%rsp)
	.loc 1 1529 11 is_stmt 1 view .LVU2443
	.loc 1 1529 25 is_stmt 0 view .LVU2444
	call	parse_integer
.LVL849:
	.loc 1 1529 25 view .LVU2445
	movq	24(%rsp), %rdi
.LBB703:
.LBB704:
.LBB705:
	.loc 1 1396 10 view .LVU2446
	movl	$105, %esi
.LBE705:
.LBE704:
.LBE703:
	.loc 1 1529 25 view .LVU2447
	leaq	.LC82(%rip), %rcx
	movq	%rax, %rdx
.LVL850:
	.loc 1 1530 11 is_stmt 1 view .LVU2448
	.loc 1 1531 11 view .LVU2449
	.loc 1 1533 11 view .LVU2450
.LBB710:
.LBI703:
	.loc 1 1484 1 view .LVU2451
.LBE710:
.LBE702:
.LBE746:
.LBE772:
.LBE789:
.LBE930:
	.loc 1 1486 3 view .LVU2452
.LBB931:
.LBB790:
.LBB773:
.LBB747:
.LBB738:
.LBB711:
.LBB708:
.LBI704:
	.loc 1 1394 1 view .LVU2453
.LBB706:
	.loc 1 1396 3 view .LVU2454
	.loc 1 1396 9 view .LVU2455
.LBE706:
.LBE708:
.LBE711:
	.loc 1 1529 25 is_stmt 0 view .LVU2456
	movq	%r13, %rax
.LVL851:
.L499:
.LBB712:
.LBB709:
.LBB707:
	.loc 1 1397 5 is_stmt 1 view .LVU2457
	.loc 1 1397 13 is_stmt 0 view .LVU2458
	addq	$1, %rax
.LVL852:
	.loc 1 1397 27 view .LVU2459
	addq	$1, %rcx
.LVL853:
	.loc 1 1397 8 view .LVU2460
	cmpb	%sil, -1(%rax)
	jne	.L691
	.loc 1 1396 9 is_stmt 1 view .LVU2461
	.loc 1 1396 10 is_stmt 0 view .LVU2462
	movzbl	(%rcx), %esi
	.loc 1 1396 9 view .LVU2463
	testb	%sil, %sil
	jne	.L499
	.loc 1 1399 3 is_stmt 1 view .LVU2464
	.loc 1 1399 11 is_stmt 0 view .LVU2465
	movzbl	(%rax), %eax
.LVL854:
	.loc 1 1399 11 view .LVU2466
.LBE707:
.LBE709:
.LBE712:
	.loc 1 1533 14 view .LVU2467
	cmpb	$61, %al
	je	.L719
	testb	%al, %al
	jne	.L691
.L719:
	.loc 1 1535 15 is_stmt 1 view .LVU2468
.LVL855:
	.loc 1 1536 15 view .LVU2469
	.loc 1 1536 23 is_stmt 0 view .LVU2470
	movq	page_size(%rip), %rax
	.loc 1 1537 31 view .LVU2471
	movq	%rdx, input_blocksize(%rip)
	.loc 1 1536 21 view .LVU2472
	movabsq	$9223372036854775807, %rsi
	.loc 1 1536 23 view .LVU2473
	addq	$2, %rax
	addq	%rax, %rax
	negq	%rax
	.loc 1 1536 21 view .LVU2474
	cmpq	%rsi, %rax
	cmova	%rsi, %rax
.LVL856:
	.loc 1 1537 15 is_stmt 1 view .LVU2475
.L501:
	.loc 1 1570 11 view .LVU2476
	.loc 1 1570 14 is_stmt 0 view .LVU2477
	testq	%rdx, %rdx
	je	.L520
.LVL857:
	.loc 1 1572 16 is_stmt 1 view .LVU2478
	.loc 1 1572 19 is_stmt 0 view .LVU2479
	cmpq	%rax, %rdx
	jbe	.L511
	.loc 1 1573 13 is_stmt 1 view .LVU2480
	.loc 1 1573 21 is_stmt 0 view .LVU2481
	movl	$1, 56(%rsp)
.LVL858:
.L512:
	.loc 1 1575 11 is_stmt 1 view .LVU2482
.LBB713:
	.loc 1 1576 13 view .LVU2483
	call	quote@PLT
.LVL859:
	.loc 1 1576 13 is_stmt 0 view .LVU2484
	xorl	%edi, %edi
	movl	$5, %edx
	leaq	.LC122(%rip), %rsi
	movq	%rax, %rbx
	call	dcgettext@PLT
.LVL860:
	cmpl	$1, 56(%rsp)
	movq	%rbx, %r8
	movl	$75, %esi
	movq	%rax, %rcx
	movl	$0, %eax
	leaq	.LC64(%rip), %rdx
	movl	$1, %edi
	cmovne	%eax, %esi
	call	nl_error
.LVL861:
.L917:
	.loc 1 1576 13 view .LVU2485
.LBE713:
.LBE738:
.LBE747:
.LBE773:
.LBE790:
.LBE931:
.LBB932:
.LBB907:
	.loc 1 2338 7 is_stmt 1 view .LVU2486
	call	write_output
.LVL862:
	jmp	.L651
.LVL863:
.L698:
	.loc 1 2338 7 is_stmt 0 view .LVU2487
.LBE907:
.LBE932:
.LBB933:
.LBB791:
.LBB774:
.LBB748:
.LBB739:
.LBB714:
.LBB715:
.LBB716:
	movq	%r13, %rax
	movl	$115, %esi
	leaq	.LC87(%rip), %rcx
.L517:
.LVL864:
	.loc 1 2338 7 view .LVU2488
.LBE716:
.LBE715:
.LBE714:
.LBB719:
.LBB720:
.LBB721:
	.loc 1 1397 5 is_stmt 1 view .LVU2489
	.loc 1 1397 13 is_stmt 0 view .LVU2490
	addq	$1, %rax
.LVL865:
	.loc 1 1397 27 view .LVU2491
	addq	$1, %rcx
.LVL866:
	.loc 1 1397 8 view .LVU2492
	cmpb	%sil, -1(%rax)
	jne	.L700
	.loc 1 1396 9 is_stmt 1 view .LVU2493
	.loc 1 1396 10 is_stmt 0 view .LVU2494
	movzbl	(%rcx), %esi
	.loc 1 1396 9 view .LVU2495
	testb	%sil, %sil
	jne	.L517
	.loc 1 1399 3 is_stmt 1 view .LVU2496
	.loc 1 1399 11 is_stmt 0 view .LVU2497
	movzbl	(%rax), %eax
.LVL867:
	.loc 1 1399 11 view .LVU2498
.LBE721:
.LBE720:
.LBE719:
	.loc 1 1559 19 view .LVU2499
	testb	%al, %al
	je	.L701
	cmpb	$61, %al
	jne	.L700
.L701:
	.loc 1 1529 25 view .LVU2500
	movq	%rdx, 16(%rsp)
.LVL868:
.L511:
	.loc 1 1575 11 is_stmt 1 view .LVU2501
	.loc 1 1575 14 is_stmt 0 view .LVU2502
	cmpl	$0, 56(%rsp)
	je	.L482
	jmp	.L512
.LVL869:
.L916:
	.loc 1 1575 14 view .LVU2503
.LBE739:
.LBE748:
.LBE774:
.LBE791:
.LBE933:
.LBB934:
.LBB908:
	.loc 1 2322 9 is_stmt 1 view .LVU2504
	movl	$1, %esi
	leaq	saved_char(%rip), %rdi
	call	copy_with_unblock
.LVL870:
	movl	conversions_mask(%rip), %esi
	jmp	.L643
.LVL871:
.L695:
	.loc 1 2322 9 is_stmt 0 view .LVU2505
.LBE908:
.LBE934:
.LBB935:
.LBB792:
.LBB775:
.LBB749:
.LBB740:
	movq	%r13, %rax
	movl	$99, %esi
	leaq	.LC85(%rip), %rcx
.L509:
.LVL872:
.LBB724:
.LBB725:
.LBB726:
	.loc 1 1397 5 is_stmt 1 view .LVU2506
	.loc 1 1397 13 is_stmt 0 view .LVU2507
	addq	$1, %rax
.LVL873:
	.loc 1 1397 27 view .LVU2508
	addq	$1, %rcx
.LVL874:
	.loc 1 1397 8 view .LVU2509
	cmpb	%sil, -1(%rax)
	jne	.L697
	.loc 1 1396 9 is_stmt 1 view .LVU2510
	.loc 1 1396 10 is_stmt 0 view .LVU2511
	movzbl	(%rcx), %esi
	.loc 1 1396 9 view .LVU2512
	testb	%sil, %sil
	jne	.L509
	.loc 1 1399 3 is_stmt 1 view .LVU2513
	.loc 1 1399 11 is_stmt 0 view .LVU2514
	movzbl	(%rax), %eax
.LVL875:
	.loc 1 1399 11 view .LVU2515
.LBE726:
.LBE725:
.LBE724:
	.loc 1 1551 19 view .LVU2516
	cmpb	$61, %al
	je	.L722
	testb	%al, %al
	jne	.L697
.L722:
	.loc 1 1553 15 is_stmt 1 view .LVU2517
.LVL876:
	.loc 1 1554 15 view .LVU2518
	.loc 1 1555 15 view .LVU2519
	.loc 1 1555 36 is_stmt 0 view .LVU2520
	movq	%rdx, conversion_blocksize(%rip)
	.loc 1 1570 11 is_stmt 1 view .LVU2521
	.loc 1 1570 14 is_stmt 0 view .LVU2522
	testq	%rdx, %rdx
	jne	.L511
.LVL877:
.L520:
	.loc 1 1571 13 is_stmt 1 view .LVU2523
	.loc 1 1571 21 is_stmt 0 view .LVU2524
	movl	$4, 56(%rsp)
	jmp	.L512
.LVL878:
.L691:
	.loc 1 1571 21 view .LVU2525
	movq	%r13, %rax
	movl	$111, %esi
	leaq	.LC83(%rip), %rcx
.L503:
.LVL879:
.LBB727:
.LBB728:
.LBB729:
	.loc 1 1397 5 is_stmt 1 view .LVU2526
	.loc 1 1397 13 is_stmt 0 view .LVU2527
	addq	$1, %rax
.LVL880:
	.loc 1 1397 27 view .LVU2528
	addq	$1, %rcx
.LVL881:
	.loc 1 1397 8 view .LVU2529
	cmpb	%sil, -1(%rax)
	jne	.L693
	.loc 1 1396 9 is_stmt 1 view .LVU2530
	.loc 1 1396 10 is_stmt 0 view .LVU2531
	movzbl	(%rcx), %esi
	.loc 1 1396 9 view .LVU2532
	testb	%sil, %sil
	jne	.L503
	.loc 1 1399 3 is_stmt 1 view .LVU2533
	.loc 1 1399 11 is_stmt 0 view .LVU2534
	movzbl	(%rax), %eax
.LVL882:
	.loc 1 1399 11 view .LVU2535
.LBE729:
.LBE728:
.LBE727:
	.loc 1 1539 19 view .LVU2536
	cmpb	$61, %al
	je	.L720
	testb	%al, %al
	jne	.L693
.L720:
	.loc 1 1541 15 is_stmt 1 view .LVU2537
.LVL883:
	.loc 1 1542 15 view .LVU2538
	.loc 1 1542 23 is_stmt 0 view .LVU2539
	movq	page_size(%rip), %rax
	.loc 1 1543 32 view .LVU2540
	movq	%rdx, output_blocksize(%rip)
	.loc 1 1542 21 view .LVU2541
	movabsq	$9223372036854775807, %rsi
	.loc 1 1542 23 view .LVU2542
	negq	%rax
	.loc 1 1542 21 view .LVU2543
	cmpq	%rsi, %rax
	cmova	%rsi, %rax
.LVL884:
	.loc 1 1543 15 is_stmt 1 view .LVU2544
	jmp	.L501
.LVL885:
.L925:
	.loc 1 1543 15 is_stmt 0 view .LVU2545
.LBE740:
.LBE749:
.LBE775:
.LBE792:
.LBE935:
.LBB936:
.LBB909:
.LBB898:
	.loc 1 2362 11 is_stmt 1 view .LVU2546
	movq	output_file(%rip), %rsi
	movl	$4, %edi
	call	quotearg_style@PLT
.LVL886:
	.loc 1 2362 28 is_stmt 0 view .LVU2547
	movl	$5, %edx
	leaq	.LC72(%rip), %rsi
	.loc 1 2362 11 view .LVU2548
	movq	%rax, %r12
	jmp	.L876
.LVL887:
.L921:
	.loc 1 2362 11 view .LVU2549
.LBE898:
	.loc 1 2386 11 is_stmt 1 view .LVU2550
	movq	output_file(%rip), %rsi
	movl	$4, %edi
	call	quotearg_style@PLT
.LVL888:
	.loc 1 2386 28 is_stmt 0 view .LVU2551
	movl	$5, %edx
	leaq	.LC119(%rip), %rsi
	xorl	%edi, %edi
	.loc 1 2386 11 view .LVU2552
	movq	%rax, %r12
	.loc 1 2386 28 view .LVU2553
	call	dcgettext@PLT
.LVL889:
	.loc 1 2386 11 view .LVU2554
	movq	%r12, %rcx
	xorl	%edi, %edi
	.loc 1 2386 28 view .LVU2555
	movq	%rax, %rdx
	.loc 1 2386 11 view .LVU2556
	movq	16(%rsp), %rax
	movl	(%rax), %esi
	xorl	%eax, %eax
	call	nl_error
.LVL890:
	.loc 1 2387 11 is_stmt 1 view .LVU2557
	.loc 1 2387 23 is_stmt 0 view .LVU2558
	movl	$1, 40(%rsp)
	jmp	.L665
.LVL891:
.L693:
	.loc 1 2387 23 view .LVU2559
.LBE909:
.LBE936:
.LBB937:
.LBB793:
.LBB776:
.LBB750:
.LBB741:
	movq	%r13, %rax
	movl	$98, %esi
	leaq	.LC84(%rip), %rcx
.L506:
.LVL892:
.LBB730:
.LBB731:
.LBB732:
	.loc 1 1397 5 is_stmt 1 view .LVU2560
	.loc 1 1397 13 is_stmt 0 view .LVU2561
	addq	$1, %rax
.LVL893:
	.loc 1 1397 27 view .LVU2562
	addq	$1, %rcx
.LVL894:
	.loc 1 1397 8 view .LVU2563
	cmpb	%sil, -1(%rax)
	jne	.L695
	.loc 1 1396 9 is_stmt 1 view .LVU2564
	.loc 1 1396 10 is_stmt 0 view .LVU2565
	movzbl	(%rcx), %esi
	.loc 1 1396 9 view .LVU2566
	testb	%sil, %sil
	jne	.L506
	.loc 1 1399 3 is_stmt 1 view .LVU2567
	.loc 1 1399 11 is_stmt 0 view .LVU2568
	movzbl	(%rax), %eax
.LVL895:
	.loc 1 1399 11 view .LVU2569
.LBE732:
.LBE731:
.LBE730:
	.loc 1 1545 19 view .LVU2570
	cmpb	$61, %al
	je	.L721
	testb	%al, %al
	jne	.L695
.L721:
	.loc 1 1547 15 is_stmt 1 view .LVU2571
.LVL896:
	.loc 1 1548 15 view .LVU2572
	.loc 1 1548 23 is_stmt 0 view .LVU2573
	movq	page_size(%rip), %rax
	.loc 1 1529 25 view .LVU2574
	movq	%rdx, 8(%rsp)
.LVL897:
	.loc 1 1548 21 view .LVU2575
	movabsq	$9223372036854775807, %rsi
	.loc 1 1548 23 view .LVU2576
	addq	$2, %rax
	addq	%rax, %rax
	negq	%rax
	.loc 1 1548 21 view .LVU2577
	cmpq	%rsi, %rax
	cmova	%rsi, %rax
.LVL898:
	.loc 1 1549 15 is_stmt 1 view .LVU2578
	.loc 1 1549 15 is_stmt 0 view .LVU2579
	jmp	.L501
.LVL899:
.L518:
	.loc 1 1565 15 is_stmt 1 view .LVU2580
	movq	%r13, %rdi
	call	quote@PLT
.LVL900:
	.loc 1 1565 28 is_stmt 0 view .LVU2581
	movl	$5, %edx
	leaq	.LC96(%rip), %rsi
	xorl	%edi, %edi
	.loc 1 1565 15 view .LVU2582
	movq	%rax, %r12
.LVL901:
	.loc 1 1565 28 view .LVU2583
	call	dcgettext@PLT
.LVL902:
	.loc 1 1565 15 view .LVU2584
	xorl	%edi, %edi
	movq	%r12, %rcx
	xorl	%esi, %esi
	.loc 1 1565 28 view .LVU2585
	movq	%rax, %rdx
	.loc 1 1565 15 view .LVU2586
	xorl	%eax, %eax
	call	nl_error
.LVL903:
	.loc 1 1567 15 is_stmt 1 view .LVU2587
	movl	$1, %edi
	call	usage
.LVL904:
.L582:
	.loc 1 1567 15 is_stmt 0 view .LVU2588
.LBE741:
.LBE750:
.LBE776:
.LBE793:
.LBE937:
.LBB938:
.LBB910:
.LBB899:
.LBB833:
	.loc 1 2163 19 is_stmt 1 view .LVU2589
	movq	output_file(%rip), %rsi
	movl	$4, %edi
	call	quotearg_style@PLT
.LVL905:
	.loc 1 2163 36 is_stmt 0 view .LVU2590
	movl	$5, %edx
	leaq	.LC71(%rip), %rsi
	xorl	%edi, %edi
	.loc 1 2163 19 view .LVU2591
	movq	%rax, %r12
	.loc 1 2163 36 view .LVU2592
	call	dcgettext@PLT
.LVL906:
	.loc 1 2163 19 view .LVU2593
	movq	%r12, %rcx
	xorl	%edi, %edi
	.loc 1 2163 36 view .LVU2594
	movq	%rax, %rdx
	.loc 1 2163 19 view .LVU2595
	movq	16(%rsp), %rax
	movl	(%rax), %esi
	xorl	%eax, %eax
	call	nl_error
.LVL907:
	.loc 1 2164 19 is_stmt 1 view .LVU2596
	call	quit.constprop.0
.LVL908:
.L896:
	.loc 1 2164 19 is_stmt 0 view .LVU2597
.LBE833:
.LBE899:
.LBE910:
.LBE938:
.LBB939:
.LBB822:
.LBB819:
	.loc 1 2481 13 is_stmt 1 view .LVU2598
	movl	$5, %edx
	leaq	.LC111(%rip), %rsi
	xorl	%edi, %edi
	call	dcgettext@PLT
.LVL909:
	movq	%r15, %r8
	movq	%r12, %rcx
	xorl	%esi, %esi
	movq	%rax, %rdx
	movl	$1, %edi
	xorl	%eax, %eax
	call	nl_error
.LVL910:
.L914:
	.loc 1 2481 13 is_stmt 0 view .LVU2599
.LBE819:
.LBE822:
.LBE939:
	.loc 1 2542 1 view .LVU2600
	call	__stack_chk_fail@PLT
.LVL911:
.L891:
.LBB940:
.LBB794:
.LBB777:
	.loc 1 1669 5 is_stmt 1 view .LVU2601
	movl	$5, %edx
	leaq	.LC107(%rip), %rsi
	xorl	%edi, %edi
	call	dcgettext@PLT
.LVL912:
	xorl	%esi, %esi
	movl	$1, %edi
	movq	%rax, %rdx
	xorl	%eax, %eax
	call	nl_error
.LVL913:
.L893:
	.loc 1 1669 5 is_stmt 0 view .LVU2602
.LBE777:
.LBE794:
.LBE940:
.LBB941:
	.loc 1 2442 9 is_stmt 1 view .LVU2603
	movq	input_file(%rip), %rsi
	movl	$4, %edi
	call	quotearg_style@PLT
.LVL914:
	movl	$5, %edx
	leaq	.LC109(%rip), %rsi
	xorl	%edi, %edi
	movq	%rax, %r12
	call	dcgettext@PLT
.LVL915:
	movq	%r12, %rcx
	movl	$1, %edi
	movq	%rax, %rdx
	movq	16(%rsp), %rax
	movl	(%rax), %esi
	xorl	%eax, %eax
	call	nl_error
.LVL916:
.L884:
	.loc 1 2442 9 is_stmt 0 view .LVU2604
.LBE941:
.LBB942:
.LBB795:
	.loc 1 1608 7 is_stmt 1 view .LVU2605
	leaq	.LC102(%rip), %rdi
	call	quote@PLT
.LVL917:
	movl	$5, %edx
	leaq	.LC98(%rip), %rsi
	movq	%rax, %rbx
.L878:
	xorl	%edi, %edi
	call	dcgettext@PLT
.LVL918:
	xorl	%edi, %edi
	movq	%rbx, %r8
	xorl	%esi, %esi
	movq	%rax, %rcx
	leaq	.LC64(%rip), %rdx
	xorl	%eax, %eax
	call	nl_error
.LVL919:
	.loc 1 1609 7 view .LVU2606
	movl	$1, %edi
	call	usage
.LVL920:
.L885:
	.loc 1 1614 7 view .LVU2607
	andb	$4, %sil
	leaq	.LC90(%rip), %rax
	leaq	.LC89(%rip), %rdi
	cmove	%rax, %rdi
	call	quote@PLT
.LVL921:
	movl	$5, %edx
	leaq	.LC99(%rip), %rsi
	movq	%rax, %rbx
	jmp	.L878
.LVL922:
.L924:
	.loc 1 1614 7 is_stmt 0 view .LVU2608
.LBE795:
.LBE942:
.LBB943:
.LBB823:
.LBB820:
.LBB818:
	.loc 1 2497 17 is_stmt 1 view .LVU2609
	movq	output_file(%rip), %rsi
	movl	$4, %edi
	call	quotearg_style@PLT
.LVL923:
	movl	$5, %edx
	leaq	.LC72(%rip), %rsi
	xorl	%edi, %edi
	movq	%rax, %r12
.LVL924:
	.loc 1 2497 17 is_stmt 0 view .LVU2610
	call	dcgettext@PLT
.LVL925:
	movq	%r12, %rcx
	movl	$1, %edi
	movq	%rax, %rdx
	movq	16(%rsp), %rax
	movl	(%rax), %esi
	xorl	%eax, %eax
	call	nl_error
.LVL926:
.L883:
	.loc 1 2497 17 view .LVU2611
.LBE818:
.LBE820:
.LBE823:
.LBE943:
.LBB944:
.LBB796:
	.loc 1 1602 7 is_stmt 1 view .LVU2612
	leaq	.LC101(%rip), %rdi
	call	quote@PLT
.LVL927:
	movl	$5, %edx
	leaq	.LC99(%rip), %rsi
	movq	%rax, %rbx
	jmp	.L878
.LVL928:
.L895:
	.loc 1 1602 7 is_stmt 0 view .LVU2613
.LBE796:
.LBE944:
.LBB945:
.LBB824:
	.loc 1 2472 9 is_stmt 1 view .LVU2614
	movq	output_file(%rip), %rsi
	movl	$4, %edi
	call	quotearg_style@PLT
.LVL929:
	movl	$5, %edx
	leaq	.LC109(%rip), %rsi
	xorl	%edi, %edi
	movq	%rax, %r12
.LVL930:
	.loc 1 2472 9 is_stmt 0 view .LVU2615
	call	dcgettext@PLT
.LVL931:
	movq	%r12, %rcx
	movl	$1, %edi
	movq	%rax, %rdx
	movq	16(%rsp), %rax
	movl	(%rax), %esi
	xorl	%eax, %eax
	call	nl_error
.LVL932:
.L887:
	.loc 1 2472 9 view .LVU2616
.LBE824:
.LBE945:
.LBB946:
.LBB797:
.LBB778:
	.loc 1 1660 5 is_stmt 1 view .LVU2617
	movl	$5, %edx
	leaq	.LC103(%rip), %rsi
	xorl	%edi, %edi
	call	dcgettext@PLT
.LVL933:
	xorl	%esi, %esi
	movl	$1, %edi
	movq	%rax, %rdx
	xorl	%eax, %eax
	call	nl_error
.LVL934:
.L888:
.LBE778:
.LBB779:
	.loc 1 1662 5 view .LVU2618
	movl	$5, %edx
	leaq	.LC104(%rip), %rsi
	xorl	%edi, %edi
	call	dcgettext@PLT
.LVL935:
	xorl	%esi, %esi
	movl	$1, %edi
	movq	%rax, %rdx
	xorl	%eax, %eax
	call	nl_error
.LVL936:
.L889:
.LBE779:
.LBB780:
	.loc 1 1664 5 view .LVU2619
	movl	$5, %edx
	leaq	.LC105(%rip), %rsi
	xorl	%edi, %edi
	call	dcgettext@PLT
.LVL937:
	xorl	%esi, %esi
	movl	$1, %edi
	movq	%rax, %rdx
	xorl	%eax, %eax
	call	nl_error
.LVL938:
.L890:
.LBE780:
.LBB781:
	.loc 1 1666 5 view .LVU2620
	movl	$5, %edx
	leaq	.LC106(%rip), %rsi
	xorl	%edi, %edi
	call	dcgettext@PLT
.LVL939:
	xorl	%esi, %esi
	movl	$1, %edi
	movq	%rax, %rdx
	xorl	%eax, %eax
	call	nl_error
.LVL940:
.L697:
	.loc 1 1666 5 is_stmt 0 view .LVU2621
.LBE781:
.LBB782:
.LBB751:
.LBB742:
	movq	%r13, %rax
	movl	$115, %esi
	leaq	.LC86(%rip), %rcx
.L514:
.LVL941:
.LBB733:
.LBB718:
.LBB717:
	.loc 1 1397 5 is_stmt 1 view .LVU2622
	.loc 1 1397 13 is_stmt 0 view .LVU2623
	addq	$1, %rax
.LVL942:
	.loc 1 1397 27 view .LVU2624
	addq	$1, %rcx
.LVL943:
	.loc 1 1397 8 view .LVU2625
	cmpb	%sil, -1(%rax)
	jne	.L698
	.loc 1 1396 9 is_stmt 1 view .LVU2626
	.loc 1 1396 10 is_stmt 0 view .LVU2627
	movzbl	(%rcx), %esi
	.loc 1 1396 9 view .LVU2628
	testb	%sil, %sil
	jne	.L514
	.loc 1 1399 3 is_stmt 1 view .LVU2629
	.loc 1 1399 11 is_stmt 0 view .LVU2630
	movzbl	(%rax), %eax
.LVL944:
	.loc 1 1399 11 view .LVU2631
.LBE717:
.LBE718:
.LBE733:
	.loc 1 1557 19 view .LVU2632
	cmpb	$61, %al
	je	.L699
	testb	%al, %al
	jne	.L698
.L699:
	.loc 1 1529 25 view .LVU2633
	movq	%rdx, %r14
.LVL945:
	.loc 1 1529 25 view .LVU2634
	jmp	.L511
.LVL946:
.L700:
.LBB734:
.LBB723:
.LBB722:
	.loc 1 1529 25 view .LVU2635
	movq	%r13, %rax
	movl	$99, %esi
	leaq	.LC88(%rip), %rcx
.L519:
.LVL947:
	.loc 1 1529 25 view .LVU2636
.LBE722:
.LBE723:
.LBE734:
.LBB735:
.LBB736:
.LBB737:
	.loc 1 1397 5 is_stmt 1 view .LVU2637
	.loc 1 1397 13 is_stmt 0 view .LVU2638
	addq	$1, %rax
.LVL948:
	.loc 1 1397 27 view .LVU2639
	addq	$1, %rcx
.LVL949:
	.loc 1 1397 8 view .LVU2640
	cmpb	%sil, -1(%rax)
	jne	.L518
	.loc 1 1396 9 is_stmt 1 view .LVU2641
	.loc 1 1396 10 is_stmt 0 view .LVU2642
	movzbl	(%rcx), %esi
	.loc 1 1396 9 view .LVU2643
	testb	%sil, %sil
	jne	.L519
	.loc 1 1399 3 is_stmt 1 view .LVU2644
	.loc 1 1399 11 is_stmt 0 view .LVU2645
	movzbl	(%rax), %eax
.LVL950:
	.loc 1 1399 11 view .LVU2646
.LBE737:
.LBE736:
.LBE735:
	.loc 1 1561 19 view .LVU2647
	testb	%al, %al
	je	.L702
	cmpb	$61, %al
	jne	.L518
.L702:
	.loc 1 1529 25 view .LVU2648
	movq	%rdx, %r12
.LVL951:
	.loc 1 1572 16 is_stmt 1 view .LVU2649
	jmp	.L511
.LBE742:
.LBE751:
.LBE782:
.LBE797:
.LBE946:
	.cfi_endproc
.LFE186:
	.size	main, .-main
	.local	o_pending.7374
	.comm	o_pending.7374,8,8
	.local	i_pending.7373
	.comm	i_pending.7373,8,8
	.data
	.align 8
	.type	output_offset.7386, @object
	.size	output_offset.7386, 8
output_offset.7386:
	.quad	-2
	.local	pending_spaces.7607
	.comm	pending_spaces.7607,8,8
	.section	.rodata
	.type	slash_s.7316, @object
	.size	slash_s.7316, 3
slash_s.7316:
	.string	"/s"
	.local	prev_nread.7393
	.comm	prev_nread.7393,8,8
	.local	saved_char
	.comm	saved_char,1,1
	.local	char_is_saved
	.comm	char_is_saved,1,1
	.data
	.type	close_stdout_required, @object
	.size	close_stdout_required, 1
close_stdout_required:
	.byte	1
	.section	.rodata
	.align 32
	.type	ebcdic_to_ascii, @object
	.size	ebcdic_to_ascii, 256
ebcdic_to_ascii:
	.string	""
	.ascii	"\001\002\003\234\t\206\177\227\215\216\013\f\r\016\017\020\021"
	.ascii	"\022\023\235\205\b\207\030\031\222\217\034\035\036\037\200\201"
	.ascii	"\202\203\204\n\027\033\210\211\212\213\214\005\006\007\220\221"
	.ascii	"\026\223\224\225\226\004\230\231\232\233\024\025\236\032 \240"
	.ascii	"\241\242\243\244\245\246\247\250\325.<(+|&\251\252\253\254\255"
	.ascii	"\256\257\260\261!$*);~-/\262\263\264\265\266\267\270\271\313"
	.ascii	",%_>?\272\273\274\275\276\277\300\301\302`:#@'=\"\303abcdefg"
	.ascii	"hi\304\305\306\307\310\311\312jklmnopqr^\314\315\316\317\320"
	.ascii	"\321\345stuvwxyz\322\323\324[\326\327\330\331\332\333\334\335"
	.ascii	"\336\337\340\341\342\343\344]\346\347{ABCDEFGHI\350\351\352\353"
	.ascii	"\354\355}JKLMNOPQR\356\357\360\361\362\363\\\237STUVWXYZ\364"
	.ascii	"\365\366\367\370\3710123456789\372\373\374\375\376\377"
	.align 32
	.type	ascii_to_ibm, @object
	.size	ascii_to_ibm, 256
ascii_to_ibm:
	.string	""
	.ascii	"\001\002\0037-./\026\005%\013\f\r\016\017\020\021\022\023<=2"
	.ascii	"&\030\031?'\034\035\036\037@Z\177{[lP}M]\\Nk`Ka\360\361\362\363"
	.ascii	"\364\365\366\367\370\371z^L~no|\301\302\303\304\305\306\307\310"
	.ascii	"\311\321\322\323\324\325\326\327\330\331\342\343\344\345\346"
	.ascii	"\347\350\351\255\340\275_my\201\202\203\204\205\206\207\210\211"
	.ascii	"\221\222\223\224\225\226\227\230\231\242\243\244\245\246\247"
	.ascii	"\250\251\300O\320\241\007 !\"#$\025\006\027()*+,\t\n\03301\032"
	.ascii	"3456\b89:;\004\024>\341ABCDEFGHIQRSTUVWXYbcdefghipqrstuvwx\200"
	.ascii	"\212\213\214\215\216\217\220\232\233\234\235\236\237\240\252"
	.ascii	"\253\254\255\256\257\260\261\262\263\264\265\266\267\270\271"
	.ascii	"\272\273\274\275\276\277\312\313\314\315\316\317\332\333\334"
	.ascii	"\335\336\337\352\353\354\355\356\357\372\373\374\375\376\377"
	.align 32
	.type	ascii_to_ebcdic, @object
	.size	ascii_to_ebcdic, 256
ascii_to_ebcdic:
	.string	""
	.ascii	"\001\002\0037-./\026\005%\013\f\r\016\017\020\021\022\023<=2"
	.ascii	"&\030\031?'\034\035\036\037@Z\177{[lP}M]\\Nk`Ka\360\361\362\363"
	.ascii	"\364\365\366\367\370\371z^L~no|\301\302\303\304\305\306\307\310"
	.ascii	"\311\321\322\323\324\325\326\327\330\331\342\343\344\345\346"
	.ascii	"\347\350\351\255\340\275\232my\201\202\203\204\205\206\207\210"
	.ascii	"\211\221\222\223\224\225\226\227\230\231\242\243\244\245\246"
	.ascii	"\247\250\251\300O\320_\007 !\"#$\025\006\027()*+,\t\n\03301\032"
	.ascii	"3456\b89:;\004\024>\341ABCDEFGHIQRSTUVWXYbcdefghipqrstuvwx\200"
	.ascii	"\212\213\214\215\216\217\220j\233\234\235\236\237\240\252\253"
	.ascii	"\254J\256\257\260\261\262\263\264\265\266\267\270\271\272\273"
	.ascii	"\274\241\276\277\312\313\314\315\316\317\332\333\334\335\336"
	.ascii	"\337\352\353\354\355\356\357\372\373\374\375\376\377"
	.local	trans_table
	.comm	trans_table,256,32
	.align 32
	.type	statuses, @object
	.size	statuses, 64
statuses:
	.string	"none"
	.zero	7
	.long	1
	.string	"noxfer"
	.zero	5
	.long	2
	.string	"progress"
	.zero	3
	.long	4
	.string	""
	.zero	11
	.long	0
	.align 32
	.type	flags, @object
	.size	flags, 304
flags:
	.string	"append"
	.zero	5
	.long	1024
	.string	"binary"
	.zero	5
	.long	0
	.string	"cio"
	.zero	8
	.long	0
	.string	"direct"
	.zero	5
	.long	16384
	.string	"directory"
	.zero	2
	.long	65536
	.string	"dsync"
	.zero	6
	.long	4096
	.string	"noatime"
	.zero	4
	.long	262144
	.string	"nocache"
	.zero	4
	.long	2
	.string	"noctty"
	.zero	5
	.long	256
	.string	"nofollow"
	.zero	3
	.long	131072
	.string	"nolinks"
	.zero	4
	.long	0
	.string	"nonblock"
	.zero	3
	.long	2048
	.string	"sync"
	.zero	7
	.long	1052672
	.string	"text"
	.zero	7
	.long	0
	.string	"fullblock"
	.zero	2
	.long	1
	.string	"count_bytes"
	.long	4
	.string	"skip_bytes"
	.zero	1
	.long	8
	.string	"seek_bytes"
	.zero	1
	.long	16
	.string	""
	.zero	11
	.long	0
	.align 32
	.type	conversions, @object
	.size	conversions, 272
conversions:
	.string	"ascii"
	.zero	6
	.long	2065
	.string	"ebcdic"
	.zero	5
	.long	2058
	.string	"ibm"
	.zero	8
	.long	2060
	.string	"block"
	.zero	6
	.long	2056
	.string	"unblock"
	.zero	4
	.long	2064
	.string	"lcase"
	.zero	6
	.long	2080
	.string	"ucase"
	.zero	6
	.long	2112
	.string	"sparse"
	.zero	5
	.long	65536
	.string	"swab"
	.zero	7
	.long	2176
	.string	"noerror"
	.zero	4
	.long	256
	.string	"nocreat"
	.zero	4
	.long	4096
	.string	"excl"
	.zero	7
	.long	8192
	.string	"notrunc"
	.zero	4
	.long	512
	.string	"sync"
	.zero	7
	.long	1024
	.string	"fdatasync"
	.zero	2
	.long	16384
	.string	"fsync"
	.zero	6
	.long	32768
	.string	""
	.zero	11
	.long	0
	.local	iread_fnc
	.comm	iread_fnc,8,8
	.local	o_nocache_eof
	.comm	o_nocache_eof,1,1
	.local	i_nocache_eof
	.comm	i_nocache_eof,1,1
	.local	o_nocache
	.comm	o_nocache,1,1
	.local	i_nocache
	.comm	i_nocache,1,1
	.local	info_signal_count
	.comm	info_signal_count,4,4
	.local	interrupt_signal
	.comm	interrupt_signal,4,4
	.local	caught_signals
	.comm	caught_signals,128,32
	.local	col
	.comm	col,8,8
	.local	oc
	.comm	oc,8,8
	.local	obuf
	.comm	obuf,8,8
	.local	ibuf
	.comm	ibuf,8,8
	.local	real_obuf
	.comm	real_obuf,8,8
	.local	real_ibuf
	.comm	real_ibuf,8,8
	.data
	.type	space_character, @object
	.size	space_character, 1
space_character:
	.byte	32
	.type	newline_character, @object
	.size	newline_character, 1
newline_character:
	.byte	10
	.local	r_truncate
	.comm	r_truncate,8,8
	.local	warn_partial_read
	.comm	warn_partial_read,1,1
	.local	input_offset_overflow
	.comm	input_offset_overflow,1,1
	.local	input_offset
	.comm	input_offset,8,8
	.local	input_seek_errno
	.comm	input_seek_errno,4,4
	.local	input_seekable
	.comm	input_seekable,1,1
	.local	progress_len
	.comm	progress_len,4,4
	.local	next_time
	.comm	next_time,8,8
	.local	start_time
	.comm	start_time,8,8
	.local	w_bytes
	.comm	w_bytes,8,8
	.local	r_full
	.comm	r_full,8,8
	.local	r_partial
	.comm	r_partial,8,8
	.local	w_full
	.comm	w_full,8,8
	.local	w_partial
	.comm	w_partial,8,8
	.local	translation_needed
	.comm	translation_needed,1,1
	.align 4
	.type	status_level, @object
	.size	status_level, 4
status_level:
	.long	3
	.local	output_flags
	.comm	output_flags,4,4
	.local	input_flags
	.comm	input_flags,4,4
	.local	conversions_mask
	.comm	conversions_mask,4,4
	.local	max_bytes
	.comm	max_bytes,8,8
	.align 8
	.type	max_records, @object
	.size	max_records, 8
max_records:
	.quad	-1
	.local	final_op_was_seek
	.comm	final_op_was_seek,1,1
	.local	seek_bytes
	.comm	seek_bytes,8,8
	.local	seek_records
	.comm	seek_records,8,8
	.local	skip_bytes
	.comm	skip_bytes,8,8
	.local	skip_records
	.comm	skip_records,8,8
	.local	conversion_blocksize
	.comm	conversion_blocksize,8,8
	.local	output_blocksize
	.comm	output_blocksize,8,8
	.local	input_blocksize
	.comm	input_blocksize,8,8
	.local	page_size
	.comm	page_size,8,8
	.local	output_file
	.comm	output_file,8,8
	.local	input_file
	.comm	input_file,8,8
	.section	.rodata.cst8,"aM",@progbits,8
	.align 8
.LC3:
	.long	0
	.long	1104006501
	.text
.Letext0:
	.file 8 "/usr/include/x86_64-linux-gnu/bits/types.h"
	.file 9 "/usr/include/x86_64-linux-gnu/sys/types.h"
	.file 10 "/usr/include/x86_64-linux-gnu/bits/types/time_t.h"
	.file 11 "/usr/lib/gcc/x86_64-linux-gnu/9/include/stddef.h"
	.file 12 "/usr/include/x86_64-linux-gnu/bits/types/__sigset_t.h"
	.file 13 "/usr/include/x86_64-linux-gnu/bits/types/sigset_t.h"
	.file 14 "/usr/include/x86_64-linux-gnu/bits/types/struct_timespec.h"
	.file 15 "/usr/include/x86_64-linux-gnu/bits/types/sig_atomic_t.h"
	.file 16 "/usr/include/x86_64-linux-gnu/bits/types/__sigval_t.h"
	.file 17 "/usr/include/x86_64-linux-gnu/bits/types/siginfo_t.h"
	.file 18 "/usr/include/signal.h"
	.file 19 "/usr/include/x86_64-linux-gnu/bits/sigaction.h"
	.file 20 "./lib/sys/select.h"
	.file 21 "/usr/include/time.h"
	.file 22 "/usr/include/x86_64-linux-gnu/bits/stat.h"
	.file 23 "/usr/include/unistd.h"
	.file 24 "/usr/include/x86_64-linux-gnu/bits/getopt_core.h"
	.file 25 "/usr/include/errno.h"
	.file 26 "src/version.h"
	.file 27 "./lib/exitfail.h"
	.file 28 "/usr/include/stdint.h"
	.file 29 "./lib/timespec.h"
	.file 30 "/usr/lib/gcc/x86_64-linux-gnu/9/include/stdarg.h"
	.file 31 "<built-in>"
	.file 32 "/usr/include/x86_64-linux-gnu/bits/types/struct_FILE.h"
	.file 33 "/usr/include/x86_64-linux-gnu/bits/types/FILE.h"
	.file 34 "/usr/include/stdio.h"
	.file 35 "/usr/include/x86_64-linux-gnu/bits/sys_errlist.h"
	.file 36 "./lib/version-etc.h"
	.file 37 "./lib/progname.h"
	.file 38 "./lib/quotearg.h"
	.file 39 "./lib/error.h"
	.file 40 "./lib/xtime.h"
	.file 41 "./lib/xstrtol.h"
	.file 42 "./lib/human.h"
	.file 43 "src/ioblksize.h"
	.file 44 "./lib/quote.h"
	.file 45 "/usr/include/libintl.h"
	.file 46 "/usr/include/stdlib.h"
	.file 47 "/usr/include/string.h"
	.file 48 "/usr/include/ctype.h"
	.file 49 "./lib/gethrxtime.h"
	.file 50 "/usr/include/locale.h"
	.file 51 "./lib/long-options.h"
	.file 52 "./lib/fcntl.h"
	.file 53 "./lib/fd-reopen.h"
	.file 54 "/usr/include/fcntl.h"
	.file 55 "./lib/verror.h"
	.file 56 "./lib/close-stream.h"
	.file 57 "./lib/closeout.h"
	.section	.note.GNU-stack,"",@progbits
	.section	.note.gnu.property,"a"
	.align 8
	.long	 1f - 0f
	.long	 4f - 1f
	.long	 5
0:
	.string	 "GNU"
1:
	.align 8
	.long	 0xc0000002
	.long	 3f - 2f
2:
	.long	 0x3
3:
	.align 8
4:
