	.file	"df.c"
	.text
.Ltext0:
	.p2align 4
	.type	replace_control_chars, @function
replace_control_chars:
.LVL0:
.LFB176:
	.file 1 "src/df.c"
	.loc 1 284 1 view -0
	.cfi_startproc
	.loc 1 284 1 is_stmt 0 view .LVU1
	endbr64
	jmp	.L11
.LVL1:
	.p2align 4,,10
	.p2align 3
.L14:
.LBB172:
.LBB173:
	.file 2 "./lib/c-ctype.h"
	.loc 2 223 3 view .LVU2
	testb	%al, %al
	jg	.L4
.LVL2:
.L5:
	.loc 2 223 3 view .LVU3
.LBE173:
.LBE172:
	.loc 1 290 7 is_stmt 1 view .LVU4
	.loc 1 290 8 is_stmt 0 view .LVU5
	addq	$1, %rdi
.LVL3:
.L11:
	.loc 1 286 9 is_stmt 1 view .LVU6
	.loc 1 286 10 is_stmt 0 view .LVU7
	movzbl	(%rdi), %eax
	.loc 1 286 9 view .LVU8
	testb	%al, %al
	je	.L13
	.loc 1 288 7 is_stmt 1 view .LVU9
.LVL4:
	.file 3 "src/system.h"
	.loc 3 156 50 view .LVU10
.LBB175:
.LBI172:
	.loc 2 221 1 view .LVU11
.LBB174:
	.loc 2 223 3 view .LVU12
	cmpb	$31, %al
	jle	.L14
	cmpb	$127, %al
	jne	.L5
.L4:
.LVL5:
	.loc 2 223 3 is_stmt 0 view .LVU13
.LBE174:
.LBE175:
	.loc 1 289 9 is_stmt 1 view .LVU14
	.loc 1 289 12 is_stmt 0 view .LVU15
	movb	$63, (%rdi)
	jmp	.L5
	.p2align 4,,10
	.p2align 3
.L13:
	.loc 1 292 1 view .LVU16
	ret
	.cfi_endproc
.LFE176:
	.size	replace_control_chars, .-replace_control_chars
	.p2align 4
	.type	devlist_hash, @function
devlist_hash:
.LVL6:
.LFB187:
	.loc 1 664 1 is_stmt 1 view -0
	.cfi_startproc
	.loc 1 664 1 is_stmt 0 view .LVU18
	endbr64
	.loc 1 665 3 is_stmt 1 view .LVU19
.LVL7:
	.loc 1 666 3 view .LVU20
	.loc 1 666 33 is_stmt 0 view .LVU21
	movq	(%rdi), %rax
	xorl	%edx, %edx
	divq	%rsi
	.loc 1 667 1 view .LVU22
	movq	%rdx, %rax
	ret
	.cfi_endproc
.LFE187:
	.size	devlist_hash, .-devlist_hash
	.p2align 4
	.type	devlist_compare, @function
devlist_compare:
.LVL8:
.LFB188:
	.loc 1 671 1 is_stmt 1 view -0
	.cfi_startproc
	.loc 1 671 1 is_stmt 0 view .LVU24
	endbr64
	.loc 1 672 3 is_stmt 1 view .LVU25
.LVL9:
	.loc 1 673 3 view .LVU26
	.loc 1 674 3 view .LVU27
	.loc 1 674 21 is_stmt 0 view .LVU28
	movq	(%rsi), %rax
	cmpq	%rax, (%rdi)
	sete	%al
	.loc 1 675 1 view .LVU29
	ret
	.cfi_endproc
.LFE188:
	.size	devlist_compare, .-devlist_compare
	.p2align 4
	.type	selected_fstype, @function
selected_fstype:
.LVL10:
.LFB185:
	.loc 1 636 1 is_stmt 1 view -0
	.cfi_startproc
	.loc 1 637 3 view .LVU31
	.loc 1 639 3 view .LVU32
	.loc 1 636 1 is_stmt 0 view .LVU33
	pushq	%r12
	.cfi_def_cfa_offset 16
	.cfi_offset 12, -16
	pushq	%rbp
	.cfi_def_cfa_offset 24
	.cfi_offset 6, -24
	pushq	%rbx
	.cfi_def_cfa_offset 32
	.cfi_offset 3, -32
	.loc 1 639 22 view .LVU34
	movq	fs_select_list(%rip), %rbx
	.loc 1 639 6 view .LVU35
	testq	%rbx, %rbx
	sete	%al
	.loc 1 639 30 view .LVU36
	testq	%rdi, %rdi
	sete	%r12b
	orb	%al, %r12b
	jne	.L17
	movq	%rdi, %rbp
.LVL11:
	.p2align 4,,10
	.p2align 3
.L19:
	.loc 1 642 5 is_stmt 1 view .LVU37
	.loc 1 642 9 is_stmt 0 view .LVU38
	movq	(%rbx), %rsi
	movq	%rbp, %rdi
	call	strcmp@PLT
.LVL12:
	.loc 1 642 8 view .LVU39
	testl	%eax, %eax
	je	.L20
	.loc 1 641 35 is_stmt 1 discriminator 2 view .LVU40
	.loc 1 641 39 is_stmt 0 discriminator 2 view .LVU41
	movq	8(%rbx), %rbx
.LVL13:
	.loc 1 641 30 is_stmt 1 discriminator 2 view .LVU42
	.loc 1 641 3 is_stmt 0 discriminator 2 view .LVU43
	testq	%rbx, %rbx
	jne	.L19
.LVL14:
.L17:
	.loc 1 645 1 view .LVU44
	movl	%r12d, %eax
	popq	%rbx
	.cfi_remember_state
	.cfi_def_cfa_offset 24
	popq	%rbp
	.cfi_def_cfa_offset 16
	popq	%r12
	.cfi_def_cfa_offset 8
	ret
.LVL15:
	.p2align 4,,10
	.p2align 3
.L20:
	.cfi_restore_state
	.loc 1 640 12 view .LVU45
	movl	$1, %r12d
	.loc 1 645 1 view .LVU46
	popq	%rbx
	.cfi_def_cfa_offset 24
.LVL16:
	.loc 1 645 1 view .LVU47
	popq	%rbp
	.cfi_def_cfa_offset 16
.LVL17:
	.loc 1 645 1 view .LVU48
	movl	%r12d, %eax
	popq	%r12
	.cfi_def_cfa_offset 8
	ret
	.cfi_endproc
.LFE185:
	.size	selected_fstype, .-selected_fstype
	.p2align 4
	.type	excluded_fstype, @function
excluded_fstype:
.LVL18:
.LFB186:
	.loc 1 651 1 is_stmt 1 view -0
	.cfi_startproc
	.loc 1 652 3 view .LVU50
	.loc 1 654 3 view .LVU51
	.loc 1 651 1 is_stmt 0 view .LVU52
	pushq	%r12
	.cfi_def_cfa_offset 16
	.cfi_offset 12, -16
	pushq	%rbp
	.cfi_def_cfa_offset 24
	.cfi_offset 6, -24
	pushq	%rbx
	.cfi_def_cfa_offset 32
	.cfi_offset 3, -32
	.loc 1 654 23 view .LVU53
	movq	fs_exclude_list(%rip), %rbx
	.loc 1 654 6 view .LVU54
	testq	%rbx, %rbx
	sete	%al
	.loc 1 654 31 view .LVU55
	testq	%rdi, %rdi
	sete	%r12b
	orb	%al, %r12b
	jne	.L26
	movq	%rdi, %rbp
.LVL19:
	.p2align 4,,10
	.p2align 3
.L25:
	.loc 1 657 5 is_stmt 1 view .LVU56
	.loc 1 657 9 is_stmt 0 view .LVU57
	movq	(%rbx), %rsi
	movq	%rbp, %rdi
	call	strcmp@PLT
.LVL20:
	.loc 1 657 8 view .LVU58
	testl	%eax, %eax
	je	.L27
	.loc 1 656 36 is_stmt 1 discriminator 2 view .LVU59
	.loc 1 656 40 is_stmt 0 discriminator 2 view .LVU60
	movq	8(%rbx), %rbx
.LVL21:
	.loc 1 656 31 is_stmt 1 discriminator 2 view .LVU61
	.loc 1 656 3 is_stmt 0 discriminator 2 view .LVU62
	testq	%rbx, %rbx
	jne	.L25
	.loc 1 660 1 view .LVU63
	movl	%r12d, %eax
	popq	%rbx
	.cfi_remember_state
	.cfi_def_cfa_offset 24
.LVL22:
	.loc 1 660 1 view .LVU64
	popq	%rbp
	.cfi_def_cfa_offset 16
.LVL23:
	.loc 1 660 1 view .LVU65
	popq	%r12
	.cfi_def_cfa_offset 8
	ret
.LVL24:
	.p2align 4,,10
	.p2align 3
.L26:
	.cfi_restore_state
	.loc 1 655 12 view .LVU66
	xorl	%r12d, %r12d
	.loc 1 660 1 view .LVU67
	popq	%rbx
	.cfi_remember_state
	.cfi_def_cfa_offset 24
	popq	%rbp
	.cfi_def_cfa_offset 16
	movl	%r12d, %eax
	popq	%r12
	.cfi_def_cfa_offset 8
	ret
.LVL25:
	.p2align 4,,10
	.p2align 3
.L27:
	.cfi_restore_state
	.loc 1 658 14 view .LVU68
	movl	$1, %r12d
	.loc 1 660 1 view .LVU69
	popq	%rbx
	.cfi_def_cfa_offset 24
.LVL26:
	.loc 1 660 1 view .LVU70
	popq	%rbp
	.cfi_def_cfa_offset 16
.LVL27:
	.loc 1 660 1 view .LVU71
	movl	%r12d, %eax
	popq	%r12
	.cfi_def_cfa_offset 8
	ret
	.cfi_endproc
.LFE186:
	.size	excluded_fstype, .-excluded_fstype
	.p2align 4
	.type	devlist_free, @function
devlist_free:
.LVL28:
.LFB190:
	.loc 1 689 1 is_stmt 1 view -0
	.cfi_startproc
	.loc 1 689 1 is_stmt 0 view .LVU73
	endbr64
	.loc 1 690 3 is_stmt 1 view .LVU74
	jmp	free@PLT
.LVL29:
	.loc 1 690 3 is_stmt 0 view .LVU75
	.cfi_endproc
.LFE190:
	.size	devlist_free, .-devlist_free
	.p2align 4
	.type	alloc_table_row, @function
alloc_table_row:
.LFB179:
	.loc 1 347 1 is_stmt 1 view -0
	.cfi_startproc
	.loc 1 348 3 view .LVU77
	.loc 1 348 8 is_stmt 0 view .LVU78
	movq	nrows(%rip), %rax
	.loc 1 349 11 view .LVU79
	movq	table(%rip), %rdi
	.loc 1 347 1 view .LVU80
	pushq	%rbx
	.cfi_def_cfa_offset 16
	.cfi_offset 3, -16
	.loc 1 348 8 view .LVU81
	leaq	1(%rax), %rsi
.LBB176:
.LBB177:
	.file 4 "./lib/xalloc.h"
	.loc 4 114 7 view .LVU82
	movq	%rsi, %rax
.LBE177:
.LBE176:
	.loc 1 348 8 view .LVU83
	movq	%rsi, nrows(%rip)
	.loc 1 349 3 is_stmt 1 view .LVU84
.LVL30:
.LBB180:
.LBI176:
	.loc 4 112 1 view .LVU85
.LBB178:
	.loc 4 114 3 view .LVU86
	.loc 4 114 7 is_stmt 0 view .LVU87
	shrq	$61, %rax
.LVL31:
	.loc 4 114 7 view .LVU88
	setne	%al
	salq	$3, %rsi
.LVL32:
	.loc 4 114 7 view .LVU89
	js	.L39
	movzbl	%al, %eax
	.loc 4 114 6 view .LVU90
	testq	%rax, %rax
	jne	.L39
	.loc 4 116 3 is_stmt 1 view .LVU91
	.loc 4 116 10 is_stmt 0 view .LVU92
	call	xrealloc@PLT
.LVL33:
	.loc 4 116 10 view .LVU93
.LBE178:
.LBE180:
	.loc 1 350 22 view .LVU94
	movq	ncolumns(%rip), %rdi
	.loc 1 350 8 view .LVU95
	movq	nrows(%rip), %rdx
	.loc 1 349 9 view .LVU96
	movq	%rax, table(%rip)
	.loc 1 350 3 is_stmt 1 view .LVU97
	.loc 1 350 8 is_stmt 0 view .LVU98
	leaq	-8(%rax,%rdx,8), %rbx
.LVL34:
.LBB181:
.LBI181:
	.loc 4 99 1 is_stmt 1 view .LVU99
.LBB182:
	.loc 4 101 3 view .LVU100
	.loc 4 101 7 is_stmt 0 view .LVU101
	movq	%rdi, %rax
	shrq	$61, %rax
	setne	%al
	salq	$3, %rdi
.LVL35:
	.loc 4 101 7 view .LVU102
	movzbl	%al, %eax
	js	.L39
	.loc 4 101 6 view .LVU103
	testq	%rax, %rax
	jne	.L39
	.loc 4 103 3 is_stmt 1 view .LVU104
	.loc 4 103 10 is_stmt 0 view .LVU105
	call	xmalloc@PLT
.LVL36:
	.loc 4 103 10 view .LVU106
.LBE182:
.LBE181:
	.loc 1 350 20 view .LVU107
	movq	%rax, (%rbx)
	.loc 1 351 1 view .LVU108
	popq	%rbx
	.cfi_remember_state
	.cfi_def_cfa_offset 8
	ret
.L39:
	.cfi_restore_state
.LBB183:
.LBB179:
	.loc 4 115 5 is_stmt 1 view .LVU109
	call	xalloc_die@PLT
.LVL37:
.LBE179:
.LBE183:
	.cfi_endproc
.LFE179:
	.size	alloc_table_row, .-alloc_table_row
	.p2align 4
	.type	replace_problematic_chars, @function
replace_problematic_chars:
.LVL38:
.LFB178:
	.loc 1 333 1 view -0
	.cfi_startproc
	.loc 1 334 3 view .LVU111
	.loc 1 335 3 view .LVU112
	.loc 1 335 15 is_stmt 0 view .LVU113
	movl	tty_out.9082(%rip), %eax
	.loc 1 333 1 view .LVU114
	pushq	%rbp
	.cfi_def_cfa_offset 16
	.cfi_offset 6, -16
	.loc 1 333 1 view .LVU115
	movq	%rdi, %rbp
	.loc 1 335 6 view .LVU116
	testl	%eax, %eax
	js	.L50
.LVL39:
.L46:
	.loc 1 338 3 is_stmt 1 view .LVU117
	.loc 1 338 36 is_stmt 0 view .LVU118
	testl	%eax, %eax
	leaq	replace_control_chars(%rip), %rdx
	leaq	replace_invalid_chars(%rip), %rax
	movq	%rbp, %rdi
	cmove	%rdx, %rax
	.loc 1 339 1 view .LVU119
	popq	%rbp
	.cfi_remember_state
	.cfi_def_cfa_offset 8
.LVL40:
	.loc 1 338 36 view .LVU120
	jmp	*%rax
.LVL41:
	.p2align 4,,10
	.p2align 3
.L50:
	.cfi_restore_state
	.loc 1 336 5 is_stmt 1 view .LVU121
	.loc 1 336 15 is_stmt 0 view .LVU122
	movl	$1, %edi
.LVL42:
	.loc 1 336 15 view .LVU123
	call	isatty@PLT
.LVL43:
	.loc 1 336 13 view .LVU124
	movl	%eax, tty_out.9082(%rip)
	jmp	.L46
	.cfi_endproc
.LFE178:
	.size	replace_problematic_chars, .-replace_problematic_chars
	.section	.rodata.str1.1,"aMS",@progbits,1
.LC0:
	.string	"blocks"
.LC1:
	.string	"%s-%s"
	.text
	.p2align 4
	.type	get_header, @function
get_header:
.LFB184:
	.loc 1 555 1 is_stmt 1 view -0
	.cfi_startproc
	pushq	%r14
	.cfi_def_cfa_offset 16
	.cfi_offset 14, -16
	pushq	%r13
	.cfi_def_cfa_offset 24
	.cfi_offset 13, -24
	pushq	%r12
	.cfi_def_cfa_offset 32
	.cfi_offset 12, -32
	pushq	%rbp
	.cfi_def_cfa_offset 40
	.cfi_offset 6, -40
	pushq	%rbx
	.cfi_def_cfa_offset 48
	.cfi_offset 3, -48
	subq	$688, %rsp
	.cfi_def_cfa_offset 736
	.loc 1 555 1 is_stmt 0 view .LVU126
	movq	%fs:40, %rax
	movq	%rax, 680(%rsp)
	xorl	%eax, %eax
	.loc 1 556 3 is_stmt 1 view .LVU127
	.loc 1 558 3 view .LVU128
	call	alloc_table_row
.LVL44:
	.loc 1 560 3 view .LVU129
	.loc 1 560 17 view .LVU130
	.loc 1 560 3 is_stmt 0 view .LVU131
	cmpq	$0, ncolumns(%rip)
	movq	columns(%rip), %rdx
	je	.L51
	movabsq	$2361183241434822607, %rbp
	xorl	%ebx, %ebx
	jmp	.L66
.LVL45:
	.p2align 4,,10
	.p2align 3
.L53:
.LBB184:
	.loc 1 618 9 is_stmt 1 view .LVU132
	.loc 1 618 16 is_stmt 0 view .LVU133
	movq	%r14, %rdi
	call	strdup@PLT
.LVL46:
	.loc 1 618 14 view .LVU134
	movq	%rax, 8(%rsp)
	.loc 1 618 16 view .LVU135
	movq	%rax, %rdi
.L63:
	.loc 1 620 7 is_stmt 1 view .LVU136
	.loc 1 620 10 is_stmt 0 view .LVU137
	testq	%rdi, %rdi
	je	.L81
	.loc 1 623 7 is_stmt 1 discriminator 2 view .LVU138
	call	replace_problematic_chars
.LVL47:
	.loc 1 625 7 discriminator 2 view .LVU139
	.loc 1 625 29 is_stmt 0 discriminator 2 view .LVU140
	movq	nrows(%rip), %rdx
	movq	table(%rip), %rax
	.loc 1 627 27 discriminator 2 view .LVU141
	xorl	%esi, %esi
	.loc 1 625 29 discriminator 2 view .LVU142
	movq	8(%rsp), %rdi
	movq	-8(%rax,%rdx,8), %rax
	movq	%rdi, (%rax,%r12)
	.loc 1 627 7 is_stmt 1 discriminator 2 view .LVU143
	.loc 1 627 27 is_stmt 0 discriminator 2 view .LVU144
	call	gnu_mbswidth@PLT
.LVL48:
	.loc 1 628 7 is_stmt 1 discriminator 2 view .LVU145
	.loc 1 628 29 is_stmt 0 discriminator 2 view .LVU146
	movq	columns(%rip), %rdx
	.loc 1 627 14 discriminator 2 view .LVU147
	cltq
.LVL49:
	.loc 1 628 29 discriminator 2 view .LVU148
	movq	(%rdx,%r12), %rcx
	cmpq	%rax, 32(%rcx)
	cmovnb	32(%rcx), %rax
.LVL50:
	.loc 1 628 29 discriminator 2 view .LVU149
.LBE184:
	.loc 1 560 36 discriminator 2 view .LVU150
	addq	$1, %rbx
.LVL51:
	.loc 1 560 3 discriminator 2 view .LVU151
	cmpq	%rbx, ncolumns(%rip)
.LBB189:
	.loc 1 628 27 discriminator 2 view .LVU152
	movq	%rax, 32(%rcx)
.LBE189:
	.loc 1 560 33 is_stmt 1 discriminator 2 view .LVU153
.LVL52:
	.loc 1 560 17 discriminator 2 view .LVU154
	.loc 1 560 3 is_stmt 0 discriminator 2 view .LVU155
	jbe	.L51
.LVL53:
.L66:
.LBB190:
	.loc 1 562 7 is_stmt 1 view .LVU156
	leaq	0(,%rbx,8), %r12
	.loc 1 563 28 is_stmt 0 view .LVU157
	xorl	%edi, %edi
	.loc 1 562 13 view .LVU158
	movq	$0, 8(%rsp)
	.loc 1 563 7 is_stmt 1 view .LVU159
	.loc 1 563 28 is_stmt 0 view .LVU160
	leaq	(%rdx,%r12), %r13
	movl	$5, %edx
	movq	0(%r13), %rax
	movq	24(%rax), %rsi
	call	dcgettext@PLT
.LVL54:
	movq	%rax, %r14
.LVL55:
	.loc 1 565 7 is_stmt 1 view .LVU161
	.loc 1 565 23 is_stmt 0 view .LVU162
	movq	0(%r13), %rax
.LVL56:
	.loc 1 565 10 view .LVU163
	cmpl	$2, (%rax)
	jne	.L53
	.loc 1 566 27 view .LVU164
	movl	header_mode(%rip), %eax
	movl	human_output_opts(%rip), %r8d
	.loc 1 566 11 view .LVU165
	testl	%eax, %eax
	je	.L54
	.loc 1 567 15 view .LVU166
	cmpl	$4, %eax
	je	.L82
	.loc 1 608 12 is_stmt 1 view .LVU167
	.loc 1 608 15 is_stmt 0 view .LVU168
	cmpl	$3, %eax
	jne	.L53
.LBB185:
	.loc 1 610 11 is_stmt 1 view .LVU169
	.loc 1 611 11 view .LVU170
	.loc 1 611 23 is_stmt 0 view .LVU171
	movq	output_block_size(%rip), %rdi
	leaq	16(%rsp), %rsi
	call	umaxtostr@PLT
.LVL57:
	movq	%rax, %r13
.L80:
.LVL58:
	.loc 1 614 11 is_stmt 1 view .LVU172
	.loc 1 614 32 is_stmt 0 view .LVU173
	xorl	%edi, %edi
	movl	$5, %edx
	leaq	.LC1(%rip), %rsi
	call	dcgettext@PLT
.LVL59:
	.loc 1 614 15 view .LVU174
	leaq	8(%rsp), %rdi
	movq	%r14, %rcx
	movq	%r13, %rdx
	.loc 1 614 32 view .LVU175
	movq	%rax, %rsi
	.loc 1 614 15 view .LVU176
	xorl	%eax, %eax
	call	rpl_asprintf@PLT
.LVL60:
	.loc 1 614 14 view .LVU177
	cmpl	$-1, %eax
	jne	.L64
	.loc 1 615 13 is_stmt 1 view .LVU178
	.loc 1 615 18 is_stmt 0 view .LVU179
	movq	$0, 8(%rsp)
.L64:
	.loc 1 615 18 view .LVU180
	movq	8(%rsp), %rdi
.LBE185:
	.loc 1 609 9 view .LVU181
	jmp	.L63
.LVL61:
	.p2align 4,,10
	.p2align 3
.L82:
	.loc 1 568 42 view .LVU182
	movl	human_output_opts(%rip), %r8d
	.loc 1 568 19 view .LVU183
	testb	$16, %r8b
	jne	.L53
	.p2align 4,,10
	.p2align 3
.L54:
.LBB186:
	.loc 1 570 11 is_stmt 1 view .LVU184
	.loc 1 572 11 view .LVU185
	.loc 1 580 21 is_stmt 0 view .LVU186
	movq	output_block_size(%rip), %r9
	.loc 1 575 26 view .LVU187
	movl	%r8d, %r10d
	andl	$292, %r10d
.LVL62:
	.loc 1 580 11 is_stmt 1 view .LVU188
	.loc 1 581 11 view .LVU189
	.loc 1 581 21 is_stmt 0 view .LVU190
	movq	%r9, %rdi
	.loc 1 580 21 view .LVU191
	movq	%r9, %rsi
.LVL63:
	.p2align 4,,10
	.p2align 3
.L56:
	.loc 1 582 11 is_stmt 1 discriminator 1 view .LVU192
	.loc 1 583 11 discriminator 1 view .LVU193
	.loc 1 585 11 discriminator 1 view .LVU194
	.loc 1 587 15 discriminator 1 view .LVU195
	.loc 1 587 41 is_stmt 0 discriminator 1 view .LVU196
	movq	%rsi, %rdx
	shrq	$3, %rdx
	movq	%rdx, %rax
	mulq	%rbp
	.loc 1 588 41 discriminator 1 view .LVU197
	movq	%rdi, %rax
	.loc 1 588 61 discriminator 1 view .LVU198
	shrq	$10, %rdi
.LVL64:
	.loc 1 588 41 discriminator 1 view .LVU199
	andl	$1023, %eax
.LVL65:
	.loc 1 587 41 discriminator 1 view .LVU200
	movq	%rdx, %rcx
	shrq	$4, %rcx
	imulq	$1000, %rcx, %rcx
	subq	%rcx, %rsi
.LVL66:
	.loc 1 587 41 discriminator 1 view .LVU201
	movq	%rsi, %rcx
.LVL67:
	.loc 1 587 55 is_stmt 1 discriminator 1 view .LVU202
	.loc 1 587 61 is_stmt 0 discriminator 1 view .LVU203
	movq	%rdx, %rsi
	.loc 1 590 11 discriminator 1 view .LVU204
	movq	%rcx, %rdx
	.loc 1 587 61 discriminator 1 view .LVU205
	shrq	$4, %rsi
.LVL68:
	.loc 1 588 15 is_stmt 1 discriminator 1 view .LVU206
	.loc 1 588 55 discriminator 1 view .LVU207
	.loc 1 590 17 discriminator 1 view .LVU208
	.loc 1 590 11 is_stmt 0 discriminator 1 view .LVU209
	orq	%rax, %rdx
	je	.L56
	.loc 1 587 33 view .LVU210
	testq	%rcx, %rcx
	sete	%dl
	.loc 1 588 33 view .LVU211
	testq	%rax, %rax
	sete	%al
.LVL69:
	.loc 1 592 11 is_stmt 1 view .LVU212
	.loc 1 592 14 is_stmt 0 view .LVU213
	cmpb	%al, %dl
	jnb	.L57
	.loc 1 593 13 is_stmt 1 view .LVU214
	.loc 1 593 18 is_stmt 0 view .LVU215
	movl	%r10d, %edx
	orb	$-72, %dl
.LVL70:
	.loc 1 594 11 is_stmt 1 view .LVU216
.L58:
	.loc 1 596 11 view .LVU217
	.loc 1 596 14 is_stmt 0 view .LVU218
	testb	$32, %dl
	je	.L60
.L61:
	.loc 1 599 11 is_stmt 1 view .LVU219
	.loc 1 599 23 is_stmt 0 view .LVU220
	movq	%r9, %rdi
.LVL71:
	.loc 1 599 23 view .LVU221
	leaq	16(%rsp), %rsi
.LVL72:
	.loc 1 599 23 view .LVU222
	movl	$1, %r8d
	movl	$1, %ecx
.LVL73:
	.loc 1 599 23 view .LVU223
	call	human_readable@PLT
.LVL74:
	.loc 1 602 20 view .LVU224
	movl	$5, %edx
	leaq	.LC0(%rip), %rsi
	xorl	%edi, %edi
	.loc 1 599 23 view .LVU225
	movq	%rax, %r13
.LVL75:
	.loc 1 602 11 is_stmt 1 view .LVU226
	.loc 1 602 20 is_stmt 0 view .LVU227
	call	dcgettext@PLT
.LVL76:
	.loc 1 602 20 view .LVU228
	movq	%rax, %r14
.LVL77:
	.loc 1 605 11 is_stmt 1 view .LVU229
	jmp	.L80
.LVL78:
	.p2align 4,,10
	.p2align 3
.L51:
	.loc 1 605 11 is_stmt 0 view .LVU230
.LBE186:
.LBE190:
	.loc 1 630 1 view .LVU231
	movq	680(%rsp), %rax
	xorq	%fs:40, %rax
	jne	.L83
	addq	$688, %rsp
	.cfi_remember_state
	.cfi_def_cfa_offset 48
	popq	%rbx
	.cfi_def_cfa_offset 40
	popq	%rbp
	.cfi_def_cfa_offset 32
	popq	%r12
	.cfi_def_cfa_offset 24
	popq	%r13
	.cfi_def_cfa_offset 16
	popq	%r14
	.cfi_def_cfa_offset 8
	ret
.LVL79:
	.p2align 4,,10
	.p2align 3
.L57:
	.cfi_restore_state
.LBB191:
.LBB187:
	.loc 1 594 11 is_stmt 1 view .LVU232
	.loc 1 594 14 is_stmt 0 view .LVU233
	jbe	.L59
	.loc 1 595 13 is_stmt 1 view .LVU234
	.loc 1 595 18 is_stmt 0 view .LVU235
	movl	%r8d, %edx
	andl	$260, %edx
	orb	$-104, %dl
.LVL80:
	.loc 1 596 11 is_stmt 1 view .LVU236
.L60:
	.loc 1 597 13 view .LVU237
	.loc 1 597 18 is_stmt 0 view .LVU238
	orb	$1, %dh
.LVL81:
	.loc 1 597 18 view .LVU239
	jmp	.L61
.LVL82:
.L81:
	.loc 1 597 18 view .LVU240
.LBE187:
	.loc 1 621 9 is_stmt 1 view .LVU241
	call	xalloc_die@PLT
.LVL83:
.L59:
.LBB188:
	.loc 1 572 15 is_stmt 0 view .LVU242
	movl	%r10d, %edx
	orb	$-104, %dl
	jmp	.L58
.LVL84:
.L83:
	.loc 1 572 15 view .LVU243
.LBE188:
.LBE191:
	.loc 1 630 1 view .LVU244
	call	__stack_chk_fail@PLT
.LVL85:
	.cfi_endproc
.LFE184:
	.size	get_header, .-get_header
	.section	.rodata.str1.1
.LC2:
	.string	"src/df.c"
.LC3:
	.string	"!\"field used\""
	.text
	.p2align 4
	.type	alloc_field, @function
alloc_field:
.LVL86:
.LFB181:
	.loc 1 399 1 is_stmt 1 view -0
	.cfi_startproc
	.loc 1 399 1 is_stmt 0 view .LVU246
	pushq	%rbp
	.cfi_def_cfa_offset 16
	.cfi_offset 6, -16
	movq	%rsi, %rbp
	pushq	%rbx
	.cfi_def_cfa_offset 24
	.cfi_offset 3, -24
	movl	%edi, %ebx
	.loc 1 400 3 is_stmt 1 view .LVU247
	.loc 1 399 1 is_stmt 0 view .LVU248
	subq	$8, %rsp
	.cfi_def_cfa_offset 32
	.loc 1 400 11 view .LVU249
	movq	ncolumns(%rip), %rax
	.loc 1 401 13 view .LVU250
	movq	columns(%rip), %rdi
.LVL87:
	.loc 1 400 11 view .LVU251
	leaq	1(%rax), %rsi
.LVL88:
.LBB198:
.LBB199:
	.loc 4 114 7 view .LVU252
	movq	%rsi, %rax
.LBE199:
.LBE198:
	.loc 1 400 11 view .LVU253
	movq	%rsi, ncolumns(%rip)
	.loc 1 401 3 is_stmt 1 view .LVU254
.LVL89:
.LBB202:
.LBI198:
	.loc 4 112 1 view .LVU255
.LBB200:
	.loc 4 114 3 view .LVU256
	.loc 4 114 7 is_stmt 0 view .LVU257
	shrq	$61, %rax
.LVL90:
	.loc 4 114 7 view .LVU258
	setne	%al
	salq	$3, %rsi
.LVL91:
	.loc 4 114 7 view .LVU259
	js	.L96
	movzbl	%al, %eax
	.loc 4 114 6 view .LVU260
	testq	%rax, %rax
	jne	.L96
	.loc 4 116 3 is_stmt 1 view .LVU261
	.loc 4 116 10 is_stmt 0 view .LVU262
	call	xrealloc@PLT
.LVL92:
	.loc 4 116 10 view .LVU263
.LBE200:
.LBE202:
	.loc 1 402 27 view .LVU264
	movslq	%ebx, %rdi
	movq	ncolumns(%rip), %rsi
	leaq	field_data(%rip), %rcx
	leaq	(%rdi,%rdi,2), %rdx
	.loc 1 401 11 view .LVU265
	movq	%rax, columns(%rip)
	.loc 1 402 3 is_stmt 1 view .LVU266
	.loc 1 402 27 is_stmt 0 view .LVU267
	salq	$4, %rdx
	addq	%rcx, %rdx
	movq	%rdx, -8(%rax,%rsi,8)
	.loc 1 403 3 is_stmt 1 view .LVU268
	.loc 1 403 6 is_stmt 0 view .LVU269
	testq	%rbp, %rbp
	je	.L89
	.loc 1 404 5 is_stmt 1 view .LVU270
	.loc 1 404 36 is_stmt 0 view .LVU271
	movq	%rbp, 24(%rdx)
.L89:
	.loc 1 406 3 is_stmt 1 view .LVU272
	.loc 1 406 20 is_stmt 0 view .LVU273
	leaq	(%rdi,%rdi,2), %rax
	salq	$4, %rax
	addq	%rcx, %rax
	.loc 1 406 6 view .LVU274
	cmpb	$0, 44(%rax)
	jne	.L98
	.loc 1 410 3 is_stmt 1 view .LVU275
	.loc 1 410 22 is_stmt 0 view .LVU276
	movb	$1, 44(%rax)
	.loc 1 411 1 view .LVU277
	addq	$8, %rsp
	.cfi_remember_state
	.cfi_def_cfa_offset 24
	popq	%rbx
	.cfi_def_cfa_offset 16
.LVL93:
	.loc 1 411 1 view .LVU278
	popq	%rbp
	.cfi_def_cfa_offset 8
.LVL94:
	.loc 1 411 1 view .LVU279
	ret
.LVL95:
.L96:
	.cfi_restore_state
.LBB203:
.LBB201:
	.loc 4 115 5 is_stmt 1 view .LVU280
	call	xalloc_die@PLT
.LVL96:
.L98:
	.loc 4 115 5 is_stmt 0 view .LVU281
.LBE201:
.LBE203:
.LBB204:
.LBI204:
	.loc 1 398 1 is_stmt 1 view .LVU282
.LBB205:
	.loc 1 407 5 view .LVU283
	.loc 1 407 5 view .LVU284
	leaq	__PRETTY_FUNCTION__.9104(%rip), %rcx
	movl	$407, %edx
	leaq	.LC2(%rip), %rsi
	leaq	.LC3(%rip), %rdi
	call	__assert_fail@PLT
.LVL97:
.LBE205:
.LBE204:
	.cfi_endproc
.LFE181:
	.size	alloc_field, .-alloc_field
	.p2align 4
	.type	df_readable.part.0, @function
df_readable.part.0:
.LVL98:
.LFB211:
	.loc 1 858 1 view -0
	.cfi_startproc
.LBB206:
	.loc 1 865 7 view .LVU286
.LBE206:
	.loc 1 858 1 is_stmt 0 view .LVU287
	movl	%edi, %eax
	movq	%rsi, %rdi
.LVL99:
.LBB207:
	.loc 1 865 17 view .LVU288
	movl	human_output_opts(%rip), %r9d
	movzbl	%al, %esi
.LVL100:
	.loc 1 865 17 view .LVU289
	addq	%rdx, %rsi
	testb	%al, %al
	jne	.L102
	movl	%r9d, %edx
.LVL101:
	.loc 1 865 17 view .LVU290
	jmp	human_readable@PLT
.LVL102:
	.p2align 4,,10
	.p2align 3
.L102:
	.loc 1 865 17 view .LVU291
.LBE207:
	.loc 1 858 1 view .LVU292
	subq	$8, %rsp
	.cfi_def_cfa_offset 16
.LBB208:
	.loc 1 865 17 view .LVU293
	negq	%rdi
.LVL103:
	.loc 1 865 17 view .LVU294
	movl	%r9d, %edx
.LVL104:
	.loc 1 865 17 view .LVU295
	call	human_readable@PLT
.LVL105:
	.loc 1 867 7 is_stmt 1 view .LVU296
	.loc 1 868 9 view .LVU297
	.loc 1 868 14 is_stmt 0 view .LVU298
	leaq	-1(%rax), %r8
.LVL106:
	.loc 1 868 14 view .LVU299
	movb	$45, -1(%rax)
	.loc 1 869 7 is_stmt 1 view .LVU300
.LBE208:
	.loc 1 871 1 is_stmt 0 view .LVU301
	addq	$8, %rsp
	.cfi_def_cfa_offset 8
	movq	%r8, %rax
	ret
	.cfi_endproc
.LFE211:
	.size	df_readable.part.0, .-df_readable.part.0
	.p2align 4
	.type	replace_invalid_chars, @function
replace_invalid_chars:
.LVL107:
.LFB177:
	.loc 1 298 1 is_stmt 1 view -0
	.cfi_startproc
	.loc 1 298 1 is_stmt 0 view .LVU303
	endbr64
	pushq	%r15
	.cfi_def_cfa_offset 16
	.cfi_offset 15, -16
	pushq	%r14
	.cfi_def_cfa_offset 24
	.cfi_offset 14, -24
	pushq	%r13
	.cfi_def_cfa_offset 32
	.cfi_offset 13, -32
	pushq	%r12
	.cfi_def_cfa_offset 40
	.cfi_offset 12, -40
	pushq	%rbp
	.cfi_def_cfa_offset 48
	.cfi_offset 6, -48
	movq	%rdi, %rbp
	pushq	%rbx
	.cfi_def_cfa_offset 56
	.cfi_offset 3, -56
	subq	$56, %rsp
	.cfi_def_cfa_offset 112
	.loc 1 298 1 view .LVU304
	movq	%fs:40, %rax
	movq	%rax, 40(%rsp)
	xorl	%eax, %eax
	.loc 1 299 3 is_stmt 1 view .LVU305
	.loc 1 299 25 is_stmt 0 view .LVU306
	call	strlen@PLT
.LVL108:
	.loc 1 301 13 view .LVU307
	movq	$0, 32(%rsp)
	.loc 1 299 9 view .LVU308
	leaq	0(%rbp,%rax), %r12
.LVL109:
	.loc 1 300 3 is_stmt 1 view .LVU309
	.loc 1 301 3 view .LVU310
	.loc 1 302 3 view .LVU311
	.loc 1 304 3 view .LVU312
.LBB209:
	.loc 1 304 8 view .LVU313
	.loc 1 304 26 view .LVU314
	.loc 1 304 3 is_stmt 0 view .LVU315
	cmpq	%r12, %rbp
	je	.L106
	leaq	28(%rsp), %rax
	movq	%rbp, %r15
	leaq	32(%rsp), %r13
	movq	%rax, 8(%rsp)
	jmp	.L109
.LVL110:
	.p2align 4,,10
	.p2align 3
.L115:
.LBB210:
	.loc 1 312 9 is_stmt 1 view .LVU316
	.loc 1 312 15 is_stmt 0 view .LVU317
	movl	28(%rsp), %edi
	call	iswcntrl@PLT
.LVL111:
	.loc 1 316 7 is_stmt 1 view .LVU318
	.loc 1 316 10 is_stmt 0 view .LVU319
	testl	%eax, %eax
	jne	.L107
	.loc 1 318 11 is_stmt 1 view .LVU320
.LVL112:
.LBB211:
.LBI211:
	.file 5 "/usr/include/x86_64-linux-gnu/bits/string_fortified.h"
	.loc 5 38 1 view .LVU321
.LBB212:
	.loc 5 40 3 view .LVU322
	.loc 5 40 10 is_stmt 0 view .LVU323
	movq	%r15, %rsi
	movq	%rbp, %rdi
	movq	%rbx, %rdx
.LBE212:
.LBE211:
.LBE210:
	.loc 1 304 45 view .LVU324
	addq	%rbx, %r15
.LVL113:
.LBB219:
.LBB214:
.LBB213:
	.loc 5 40 10 view .LVU325
	call	memmove@PLT
.LVL114:
	.loc 5 40 10 view .LVU326
.LBE213:
.LBE214:
	.loc 1 319 11 is_stmt 1 view .LVU327
	.loc 1 319 15 is_stmt 0 view .LVU328
	addq	%rbx, %rbp
.LVL115:
	.loc 1 319 15 view .LVU329
.LBE219:
	.loc 1 304 41 is_stmt 1 view .LVU330
	.loc 1 304 26 view .LVU331
	.loc 1 304 3 is_stmt 0 view .LVU332
	cmpq	%r15, %r12
	je	.L106
.LVL116:
.L109:
.LBB220:
	.loc 1 306 7 is_stmt 1 view .LVU333
	.loc 1 307 7 view .LVU334
	.loc 1 307 32 is_stmt 0 view .LVU335
	movq	%r12, %r14
	.loc 1 308 11 view .LVU336
	movq	8(%rsp), %rdi
	movq	%r13, %rcx
	movq	%r15, %rsi
	.loc 1 307 32 view .LVU337
	subq	%r15, %r14
.LVL117:
	.loc 1 308 7 is_stmt 1 view .LVU338
	.loc 1 308 11 is_stmt 0 view .LVU339
	movq	%r14, %rdx
	call	rpl_mbrtowc@PLT
.LVL118:
	movq	%rax, %rbx
.LVL119:
	.loc 1 309 7 is_stmt 1 view .LVU340
	.loc 1 311 7 view .LVU341
	.loc 1 311 10 is_stmt 0 view .LVU342
	cmpq	%rax, %r14
	jnb	.L115
	.loc 1 314 11 view .LVU343
	movl	$1, %ebx
.LVL120:
.L107:
	.loc 1 323 11 is_stmt 1 view .LVU344
	.loc 1 323 11 is_stmt 0 view .LVU345
.LBE220:
	.loc 1 304 45 view .LVU346
	addq	%rbx, %r15
.LVL121:
.LBB221:
	.loc 1 323 18 view .LVU347
	movb	$63, 0(%rbp)
	.loc 1 324 11 is_stmt 1 view .LVU348
.LVL122:
.LBB215:
.LBI215:
	.loc 5 59 1 view .LVU349
.LBB216:
	.loc 5 71 3 view .LVU350
.LBE216:
.LBE215:
	.loc 1 323 15 is_stmt 0 view .LVU351
	addq	$1, %rbp
.LVL123:
	.loc 1 323 15 view .LVU352
.LBE221:
	.loc 1 304 41 is_stmt 1 view .LVU353
	.loc 1 304 26 view .LVU354
.LBB222:
.LBB218:
.LBB217:
	.loc 5 71 10 is_stmt 0 view .LVU355
	movq	$0, 0(%r13)
.LBE217:
.LBE218:
.LBE222:
	.loc 1 304 3 view .LVU356
	cmpq	%r15, %r12
	jne	.L109
.LVL124:
.L106:
	.loc 1 304 3 view .LVU357
.LBE209:
	.loc 1 328 3 is_stmt 1 view .LVU358
	.loc 1 328 8 is_stmt 0 view .LVU359
	movb	$0, 0(%rbp)
	.loc 1 329 1 view .LVU360
	movq	40(%rsp), %rax
	xorq	%fs:40, %rax
	jne	.L116
	.loc 1 329 1 view .LVU361
	addq	$56, %rsp
	.cfi_remember_state
	.cfi_def_cfa_offset 56
	popq	%rbx
	.cfi_def_cfa_offset 48
	popq	%rbp
	.cfi_def_cfa_offset 40
.LVL125:
	.loc 1 329 1 view .LVU362
	popq	%r12
	.cfi_def_cfa_offset 32
.LVL126:
	.loc 1 329 1 view .LVU363
	popq	%r13
	.cfi_def_cfa_offset 24
	popq	%r14
	.cfi_def_cfa_offset 16
	popq	%r15
	.cfi_def_cfa_offset 8
	ret
.LVL127:
.L116:
	.cfi_restore_state
	.loc 1 329 1 view .LVU364
	call	__stack_chk_fail@PLT
.LVL128:
	.cfi_endproc
.LFE177:
	.size	replace_invalid_chars, .-replace_invalid_chars
	.section	.rodata.str1.1
.LC4:
	.string	"-"
.LC5:
	.string	"%s"
.LC6:
	.string	"-0123456789abcdefABCDEF"
.LC7:
	.string	"!\"bad field_type\""
.LC12:
	.string	"%.0f%%"
.LC13:
	.string	"!\"unhandled field\""
.LC14:
	.string	"!\"empty cell\""
	.text
	.p2align 4
	.type	get_dev, @function
get_dev:
.LVL129:
.LFB199:
	.loc 1 999 1 is_stmt 1 view -0
	.cfi_startproc
	.loc 1 999 1 is_stmt 0 view .LVU366
	pushq	%r15
	.cfi_def_cfa_offset 16
	.cfi_offset 15, -16
	pushq	%r14
	.cfi_def_cfa_offset 24
	.cfi_offset 14, -24
	pushq	%r13
	.cfi_def_cfa_offset 32
	.cfi_offset 13, -32
	movq	%rdi, %r13
	pushq	%r12
	.cfi_def_cfa_offset 40
	.cfi_offset 12, -40
	movq	%rdx, %r12
	pushq	%rbp
	.cfi_def_cfa_offset 48
	.cfi_offset 6, -48
	movq	%rsi, %rbp
	pushq	%rbx
	.cfi_def_cfa_offset 56
	.cfi_offset 3, -56
	movq	%r8, %rbx
	subq	$1048, %rsp
	.cfi_def_cfa_offset 1104
	.loc 1 999 1 view .LVU367
	movl	1120(%rsp), %eax
	movq	%rcx, (%rsp)
	movl	1104(%rsp), %r15d
	movq	1112(%rsp), %r14
	movl	%eax, 8(%rsp)
	movq	%fs:40, %rax
	movq	%rax, 1032(%rsp)
	xorl	%eax, %eax
	.loc 1 1000 3 is_stmt 1 view .LVU368
	.loc 1 1000 6 is_stmt 0 view .LVU369
	testb	%r15b, %r15b
	je	.L118
	.loc 1 1000 17 discriminator 1 view .LVU370
	cmpb	$0, show_local_fs(%rip)
	jne	.L117
.L118:
	.loc 1 1003 3 is_stmt 1 view .LVU371
	.loc 1 1003 6 is_stmt 0 view .LVU372
	testb	%r9b, %r9b
	je	.L120
	.loc 1 1003 16 discriminator 1 view .LVU373
	cmpb	$0, show_all_fs(%rip)
	jne	.L120
	.loc 1 1003 32 discriminator 2 view .LVU374
	cmpb	$0, show_listed_fs(%rip)
	je	.L117
	.p2align 4,,10
	.p2align 3
.L120:
	.loc 1 1006 3 is_stmt 1 view .LVU375
	.loc 1 1006 8 is_stmt 0 view .LVU376
	movq	%rbx, %rdi
.LVL130:
	.loc 1 1006 8 view .LVU377
	call	selected_fstype
.LVL131:
	.loc 1 1006 6 view .LVU378
	testb	%al, %al
	je	.L117
	.loc 1 1006 36 discriminator 1 view .LVU379
	movq	%rbx, %rdi
	call	excluded_fstype
.LVL132:
	.loc 1 1006 33 discriminator 1 view .LVU380
	testb	%al, %al
	jne	.L117
	.loc 1 1011 3 is_stmt 1 view .LVU381
	.loc 1 1011 7 is_stmt 0 view .LVU382
	testq	%r14, %r14
	sete	15(%rsp)
	movzbl	15(%rsp), %eax
	.loc 1 1011 6 view .LVU383
	testq	%rbp, %rbp
	je	.L121
	testb	%al, %al
	je	.L121
	.loc 1 1011 33 discriminator 1 view .LVU384
	cmpb	$47, 0(%rbp)
	jne	.L117
	.loc 1 1018 3 is_stmt 1 view .LVU385
	.loc 1 1018 6 is_stmt 0 view .LVU386
	movq	(%rsp), %rax
	testq	%rax, %rax
	cmove	%rbp, %rax
	movq	%rax, (%rsp)
.LVL133:
.L124:
	.loc 1 1024 8 is_stmt 1 view .LVU387
	.loc 1 1024 12 is_stmt 0 view .LVU388
	movq	(%rsp), %rdi
	leaq	32(%rsp), %rdx
	movq	%r13, %rsi
	call	get_fs_usage@PLT
.LVL134:
	.loc 1 1024 11 view .LVU389
	testl	%eax, %eax
	jne	.L294
	.loc 1 1046 8 is_stmt 1 view .LVU390
	.loc 1 1046 11 is_stmt 0 view .LVU391
	cmpb	$0, 8(%rsp)
	je	.L132
	.loc 1 1046 24 discriminator 1 view .LVU392
	cmpb	$0, show_all_fs(%rip)
	jne	.L295
	.loc 1 1067 3 is_stmt 1 view .LVU393
	.loc 1 1067 6 is_stmt 0 view .LVU394
	cmpq	$0, 40(%rsp)
	jne	.L130
.LVL135:
.L210:
	.loc 1 1067 43 discriminator 2 view .LVU395
	cmpb	$0, show_listed_fs(%rip)
	je	.L117
	.loc 1 1070 3 is_stmt 1 view .LVU396
	.loc 1 1070 6 is_stmt 0 view .LVU397
	testq	%r14, %r14
	jne	.L126
.LVL136:
.L130:
	.loc 1 1071 5 is_stmt 1 view .LVU398
	.loc 1 1071 28 is_stmt 0 view .LVU399
	movb	$1, file_systems_processed(%rip)
.L126:
	.loc 1 1073 3 is_stmt 1 view .LVU400
	call	alloc_table_row
.LVL137:
	.loc 1 1075 3 view .LVU401
	.loc 1 1076 10 is_stmt 0 view .LVU402
	leaq	.LC4(%rip), %rax
	testq	%r13, %r13
	cmove	%rax, %r13
.LVL138:
	.loc 1 1078 3 is_stmt 1 view .LVU403
	.loc 1 1079 10 is_stmt 0 view .LVU404
	testq	%r12, %r12
	cmove	%rax, %r12
.LVL139:
	.loc 1 1081 3 is_stmt 1 view .LVU405
	.loc 1 1081 20 is_stmt 0 view .LVU406
	movq	%r13, %rdi
	call	xstrdup@PLT
.LVL140:
	.loc 1 1090 6 view .LVU407
	cmpb	$0, 8(%rsp)
	.loc 1 1081 20 view .LVU408
	movq	%rax, (%rsp)
.LVL141:
	.loc 1 1082 3 is_stmt 1 view .LVU409
	.loc 1 1090 3 view .LVU410
	.loc 1 1081 20 is_stmt 0 view .LVU411
	movq	%rax, %r15
	.loc 1 1090 6 view .LVU412
	je	.L143
.LVL142:
.LBB250:
.LBI250:
	.loc 1 912 1 is_stmt 1 view .LVU413
.LBB251:
	.loc 1 914 3 view .LVU414
	.loc 1 914 16 is_stmt 0 view .LVU415
	movq	%rax, %rdi
	call	strlen@PLT
.LVL143:
	.loc 1 915 3 is_stmt 1 view .LVU416
	.loc 1 916 11 is_stmt 0 view .LVU417
	cmpq	$36, %rax
	jbe	.L143
	.loc 1 916 14 view .LVU418
	leaq	-36(%r15,%rax), %rdi
	leaq	.LC6(%rip), %rsi
	call	strspn@PLT
.LVL144:
	.loc 1 916 11 view .LVU419
	cmpq	$36, %rax
	je	.L296
.LVL145:
	.p2align 4,,10
	.p2align 3
.L143:
	.loc 1 916 11 view .LVU420
.LBE251:
.LBE250:
	.loc 1 1098 3 is_stmt 1 view .LVU421
	.loc 1 1099 12 is_stmt 0 view .LVU422
	leaq	.LC4(%rip), %rax
	testq	%rbx, %rbx
.LBB252:
.LBB253:
	.loc 1 928 18 view .LVU423
	movq	72(%rsp), %rdi
	.loc 1 927 38 view .LVU424
	movq	$1, 168(%rsp)
.LBE253:
.LBE252:
	.loc 1 1099 12 view .LVU425
	cmove	%rax, %rbx
.LVL146:
	.loc 1 1101 3 is_stmt 1 view .LVU426
	.loc 1 1102 3 view .LVU427
	.loc 1 1103 3 view .LVU428
.LBB258:
.LBI252:
	.loc 1 922 1 view .LVU429
.LBB254:
	.loc 1 927 3 view .LVU430
	.loc 1 929 46 is_stmt 0 view .LVU431
	movq	80(%rsp), %rax
	.loc 1 927 19 view .LVU432
	movq	$1, 160(%rsp)
	.loc 1 928 3 is_stmt 1 view .LVU433
	.loc 1 928 13 is_stmt 0 view .LVU434
	movq	%rdi, 176(%rsp)
	.loc 1 929 3 is_stmt 1 view .LVU435
	.loc 1 929 41 is_stmt 0 view .LVU436
	movq	%rax, 200(%rsp)
	.loc 1 929 17 view .LVU437
	movq	%rax, 184(%rsp)
	.loc 1 930 3 is_stmt 1 view .LVU438
	.loc 1 930 24 is_stmt 0 view .LVU439
	movb	$0, 192(%rsp)
	.loc 1 932 3 is_stmt 1 view .LVU440
	.loc 1 932 12 is_stmt 0 view .LVU441
	movq	$-1, 208(%rsp)
	.loc 1 933 3 is_stmt 1 view .LVU442
	.loc 1 933 19 is_stmt 0 view .LVU443
	movb	$0, 216(%rsp)
	.loc 1 934 3 is_stmt 1 view .LVU444
.LVL147:
	.loc 1 934 3 is_stmt 0 view .LVU445
.LBE254:
.LBE258:
	.loc 1 847 3 is_stmt 1 view .LVU446
	.loc 1 847 3 view .LVU447
.LBB259:
.LBB255:
	.loc 1 934 31 is_stmt 0 view .LVU448
	cmpq	$-3, %rax
	ja	.L146
	cmpq	$-3, %rdi
	ja	.L146
	.loc 1 936 7 is_stmt 1 view .LVU449
	.loc 1 936 28 is_stmt 0 view .LVU450
	movq	%rdi, %rdx
	subq	%rax, %rdx
	.loc 1 937 36 view .LVU451
	cmpq	%rax, %rdi
	.loc 1 936 28 view .LVU452
	movq	%rdx, 208(%rsp)
	.loc 1 937 7 is_stmt 1 view .LVU453
	.loc 1 937 23 is_stmt 0 view .LVU454
	setb	216(%rsp)
.L146:
	.loc 1 941 3 is_stmt 1 view .LVU455
	.loc 1 944 22 is_stmt 0 view .LVU456
	movq	56(%rsp), %r8
	.loc 1 942 20 view .LVU457
	movq	output_block_size(%rip), %rdx
	.loc 1 949 12 view .LVU458
	movq	$-1, 144(%rsp)
	.loc 1 941 24 view .LVU459
	movq	32(%rsp), %r9
	.loc 1 943 18 view .LVU460
	movq	40(%rsp), %rcx
	.loc 1 950 19 view .LVU461
	movb	$0, 152(%rsp)
	.loc 1 947 26 view .LVU462
	cmpq	$-3, %r8
	.loc 1 945 30 view .LVU463
	movq	48(%rsp), %rsi
	.loc 1 942 20 view .LVU464
	movq	%rdx, 104(%rsp)
	.loc 1 947 26 view .LVU465
	setbe	%dl
	andb	64(%rsp), %dl
	.loc 1 941 19 view .LVU466
	movq	%r9, 96(%rsp)
	.loc 1 942 3 is_stmt 1 view .LVU467
	.loc 1 943 3 view .LVU468
	.loc 1 943 13 is_stmt 0 view .LVU469
	movq	%rcx, 112(%rsp)
	.loc 1 944 3 is_stmt 1 view .LVU470
	.loc 1 944 17 is_stmt 0 view .LVU471
	movq	%r8, 120(%rsp)
	.loc 1 945 3 is_stmt 1 view .LVU472
	.loc 1 945 25 is_stmt 0 view .LVU473
	movq	%rsi, 136(%rsp)
	.loc 1 946 3 is_stmt 1 view .LVU474
.LVL148:
	.loc 1 946 3 is_stmt 0 view .LVU475
.LBE255:
.LBE259:
	.loc 1 847 3 is_stmt 1 view .LVU476
.LBB260:
.LBB256:
	.loc 1 946 24 is_stmt 0 view .LVU477
	movb	%dl, 128(%rsp)
	.loc 1 949 3 is_stmt 1 view .LVU478
	.loc 1 950 3 view .LVU479
	.loc 1 951 3 view .LVU480
.LVL149:
	.loc 1 951 3 is_stmt 0 view .LVU481
.LBE256:
.LBE260:
	.loc 1 847 3 is_stmt 1 view .LVU482
	.loc 1 847 3 view .LVU483
.LBB261:
.LBB257:
	.loc 1 951 31 is_stmt 0 view .LVU484
	cmpq	$-3, %rcx
	ja	.L147
	cmpq	$-3, %rsi
	ja	.L147
	.loc 1 953 7 is_stmt 1 view .LVU485
	.loc 1 953 28 is_stmt 0 view .LVU486
	movq	%rcx, %r10
	subq	%rsi, %r10
	.loc 1 954 36 view .LVU487
	cmpq	%rsi, %rcx
	.loc 1 953 28 view .LVU488
	movq	%r10, 144(%rsp)
	.loc 1 954 7 is_stmt 1 view .LVU489
	.loc 1 954 23 is_stmt 0 view .LVU490
	setb	152(%rsp)
.L147:
.LVL150:
	.loc 1 954 23 view .LVU491
.LBE257:
.LBE261:
	.loc 1 1106 3 is_stmt 1 view .LVU492
	.loc 1 1106 25 is_stmt 0 view .LVU493
	cmpb	$0, print_grand_total(%rip)
	je	.L154
	cmpb	$0, 15(%rsp)
	jne	.L297
.L154:
.LVL151:
	.loc 1 1110 17 is_stmt 1 discriminator 1 view .LVU494
	.loc 1 1110 3 is_stmt 0 discriminator 1 view .LVU495
	xorl	%r13d, %r13d
.LVL152:
	.loc 1 1110 3 discriminator 1 view .LVU496
	cmpq	$0, ncolumns(%rip)
	movq	columns(%rip), %rcx
	leaq	.L162(%rip), %r15
	je	.L207
.LVL153:
	.p2align 4,,10
	.p2align 3
.L204:
.LBB262:
	.loc 1 1112 7 is_stmt 1 view .LVU497
	.loc 1 1113 7 view .LVU498
	.loc 1 1115 7 view .LVU499
	.loc 1 1116 7 view .LVU500
	.loc 1 1116 22 is_stmt 0 view .LVU501
	movq	(%rcx,%r13,8), %rdx
	leaq	0(,%r13,8), %r14
	.loc 1 1116 27 view .LVU502
	movl	16(%rdx), %eax
	.loc 1 1116 7 view .LVU503
	cmpl	$1, %eax
	je	.L213
	cmpl	$2, %eax
	jne	.L298
	.loc 1 1125 13 view .LVU504
	xorl	%ecx, %ecx
.L159:
.LVL154:
	.loc 1 1132 7 is_stmt 1 view .LVU505
	cmpl	$11, (%rdx)
	ja	.L160
	movl	(%rdx), %eax
	movslq	(%r15,%rax,4), %rax
	addq	%r15, %rax
	notrack jmp	*%rax
	.section	.rodata
	.align 4
	.align 4
.L162:
	.long	.L169-.L162
	.long	.L168-.L162
	.long	.L167-.L162
	.long	.L166-.L162
	.long	.L165-.L162
	.long	.L164-.L162
	.long	.L167-.L162
	.long	.L166-.L162
	.long	.L165-.L162
	.long	.L164-.L162
	.long	.L163-.L162
	.long	.L161-.L162
	.text
.LVL155:
	.p2align 4,,10
	.p2align 3
.L121:
	.loc 1 1132 7 is_stmt 0 view .LVU506
.LBE262:
	.loc 1 1018 3 is_stmt 1 view .LVU507
	.loc 1 1018 6 is_stmt 0 view .LVU508
	cmpq	$0, (%rsp)
	je	.L299
.LVL156:
.L123:
	.loc 1 1021 3 is_stmt 1 view .LVU509
	.loc 1 1022 3 view .LVU510
	.loc 1 1022 6 is_stmt 0 view .LVU511
	testq	%r14, %r14
	je	.L124
	.loc 1 1023 5 is_stmt 1 view .LVU512
	.loc 1 1023 9 is_stmt 0 view .LVU513
	movdqa	(%r14), %xmm6
	movdqa	16(%r14), %xmm7
	movdqa	32(%r14), %xmm4
	movq	48(%r14), %rax
	movaps	%xmm6, 32(%rsp)
	.loc 1 1067 6 view .LVU514
	cmpq	$0, 40(%rsp)
	.loc 1 1023 9 view .LVU515
	movq	%rax, 80(%rsp)
	.loc 1 1067 3 is_stmt 1 view .LVU516
	.loc 1 1023 9 is_stmt 0 view .LVU517
	movaps	%xmm7, 48(%rsp)
	movaps	%xmm4, 64(%rsp)
	.loc 1 1067 6 view .LVU518
	jne	.L126
	.loc 1 1067 27 discriminator 1 view .LVU519
	cmpb	$0, show_all_fs(%rip)
	jne	.L126
	.loc 1 1067 43 view .LVU520
	cmpb	$0, show_listed_fs(%rip)
	jne	.L126
.LVL157:
	.p2align 4,,10
	.p2align 3
.L117:
	.loc 1 1243 1 view .LVU521
	movq	1032(%rsp), %rax
	xorq	%fs:40, %rax
	jne	.L300
	addq	$1048, %rsp
	.cfi_remember_state
	.cfi_def_cfa_offset 56
	popq	%rbx
	.cfi_def_cfa_offset 48
	popq	%rbp
	.cfi_def_cfa_offset 40
.LVL158:
	.loc 1 1243 1 view .LVU522
	popq	%r12
	.cfi_def_cfa_offset 32
.LVL159:
	.loc 1 1243 1 view .LVU523
	popq	%r13
	.cfi_def_cfa_offset 24
	popq	%r14
	.cfi_def_cfa_offset 16
	popq	%r15
	.cfi_def_cfa_offset 8
	ret
.LVL160:
	.p2align 4,,10
	.p2align 3
.L164:
	.cfi_restore_state
.LBB292:
.LBB263:
	.loc 1 1163 13 is_stmt 1 view .LVU524
	.loc 1 1164 13 view .LVU525
	.loc 1 1164 19 is_stmt 0 view .LVU526
	movq	48(%rcx), %rdx
.LVL161:
	.loc 1 1164 19 view .LVU527
.LBE263:
.LBE292:
	.loc 1 847 3 is_stmt 1 view .LVU528
.LBB293:
.LBB273:
	.loc 1 1164 16 is_stmt 0 view .LVU529
	cmpq	$-3, %rdx
	jbe	.L301
.LVL162:
.L176:
	.loc 1 1205 15 is_stmt 1 view .LVU530
	.loc 1 1205 22 is_stmt 0 view .LVU531
	leaq	.LC4(%rip), %rdi
.LVL163:
	.loc 1 1205 22 view .LVU532
	call	strdup@PLT
.LVL164:
	.loc 1 1205 20 view .LVU533
	movq	%rax, 24(%rsp)
	.loc 1 1205 22 view .LVU534
	movq	%rax, %rdi
.L201:
	.loc 1 1207 13 is_stmt 1 view .LVU535
	.loc 1 1207 16 is_stmt 0 view .LVU536
	testq	%rdi, %rdi
	je	.L202
	.p2align 4,,10
	.p2align 3
.L203:
	.loc 1 1207 16 view .LVU537
.LBE273:
	.loc 1 1237 7 is_stmt 1 discriminator 2 view .LVU538
	call	replace_problematic_chars
.LVL165:
	.loc 1 1238 7 discriminator 2 view .LVU539
	.loc 1 1238 27 is_stmt 0 discriminator 2 view .LVU540
	movq	24(%rsp), %rdi
	xorl	%esi, %esi
	call	gnu_mbswidth@PLT
.LVL166:
	.loc 1 1239 7 is_stmt 1 discriminator 2 view .LVU541
	.loc 1 1239 29 is_stmt 0 discriminator 2 view .LVU542
	movq	columns(%rip), %rcx
	.loc 1 1238 14 discriminator 2 view .LVU543
	cltq
.LVL167:
	.loc 1 1239 29 discriminator 2 view .LVU544
	movq	(%rcx,%r14), %rdx
	cmpq	%rax, 32(%rdx)
	cmovnb	32(%rdx), %rax
.LVL168:
	.loc 1 1239 29 discriminator 2 view .LVU545
.LBE293:
	.loc 1 1110 36 discriminator 2 view .LVU546
	addq	$1, %r13
.LVL169:
	.loc 1 1110 3 discriminator 2 view .LVU547
	cmpq	%r13, ncolumns(%rip)
.LBB294:
	.loc 1 1239 27 discriminator 2 view .LVU548
	movq	%rax, 32(%rdx)
	.loc 1 1240 7 is_stmt 1 discriminator 2 view .LVU549
	.loc 1 1240 29 is_stmt 0 discriminator 2 view .LVU550
	movq	nrows(%rip), %rdx
	movq	table(%rip), %rax
	movq	-8(%rax,%rdx,8), %rax
	movq	24(%rsp), %rdx
	movq	%rdx, (%rax,%r14)
.LBE294:
	.loc 1 1110 33 is_stmt 1 discriminator 2 view .LVU551
.LVL170:
	.loc 1 1110 17 discriminator 2 view .LVU552
	.loc 1 1110 3 is_stmt 0 discriminator 2 view .LVU553
	ja	.L204
.LVL171:
.L207:
	.loc 1 1242 3 is_stmt 1 view .LVU554
	movq	(%rsp), %rdi
	call	free@PLT
.LVL172:
	jmp	.L117
.LVL173:
	.p2align 4,,10
	.p2align 3
.L165:
.LBB295:
	.loc 1 1156 11 view .LVU555
	.loc 1 1156 18 is_stmt 0 view .LVU556
	movq	24(%rcx), %rsi
	.loc 1 1156 41 view .LVU557
	movzbl	32(%rcx), %eax
.LVL174:
.LBB274:
.LBI274:
	.loc 1 858 1 is_stmt 1 view .LVU558
.LBB275:
	.loc 1 861 3 view .LVU559
	.loc 1 861 3 is_stmt 0 view .LVU560
.LBE275:
.LBE274:
.LBE295:
	.loc 1 847 3 is_stmt 1 view .LVU561
.LBB296:
.LBB278:
.LBB276:
	.loc 1 861 25 is_stmt 0 view .LVU562
	cmpq	$-3, %rsi
	jbe	.L224
.LVL175:
.L293:
	.loc 1 862 12 view .LVU563
	leaq	.LC4(%rip), %rdi
.LVL176:
	.loc 1 861 25 view .LVU564
	testb	%al, %al
	je	.L292
.LVL177:
.L224:
	.loc 1 861 25 view .LVU565
	movq	8(%rcx), %r8
	movq	(%rcx), %rcx
.LVL178:
	.loc 1 861 25 view .LVU566
.LBE276:
.LBE278:
	.loc 1 1156 18 view .LVU567
	movzbl	%al, %edi
.LBB279:
.LBB277:
	leaq	368(%rsp), %rdx
	call	df_readable.part.0
.LVL179:
	movq	%rax, %rdi
.L292:
	.loc 1 1156 18 view .LVU568
.LBE277:
.LBE279:
	.loc 1 1227 18 view .LVU569
	call	xstrdup@PLT
.LVL180:
	.loc 1 1227 16 view .LVU570
	movq	%rax, 24(%rsp)
	.loc 1 1228 11 is_stmt 1 view .LVU571
	.loc 1 1227 18 is_stmt 0 view .LVU572
	movq	%rax, %rdi
.L170:
	.loc 1 1234 7 is_stmt 1 view .LVU573
	.loc 1 1234 10 is_stmt 0 view .LVU574
	testq	%rdi, %rdi
	jne	.L203
	.loc 1 1235 9 is_stmt 1 discriminator 1 view .LVU575
	.loc 1 1235 9 discriminator 1 view .LVU576
	leaq	__PRETTY_FUNCTION__.9279(%rip), %rcx
	movl	$1235, %edx
	leaq	.LC2(%rip), %rsi
	leaq	.LC14(%rip), %rdi
	call	__assert_fail@PLT
.LVL181:
	.p2align 4,,10
	.p2align 3
.L166:
	.loc 1 1150 11 view .LVU577
	.loc 1 1150 18 is_stmt 0 view .LVU578
	movq	48(%rcx), %rsi
	.loc 1 1150 41 view .LVU579
	movzbl	56(%rcx), %eax
.LVL182:
.LBB280:
.LBI280:
	.loc 1 858 1 is_stmt 1 view .LVU580
.LBB281:
	.loc 1 861 3 view .LVU581
	.loc 1 861 3 is_stmt 0 view .LVU582
.LBE281:
.LBE280:
.LBE296:
	.loc 1 847 3 is_stmt 1 view .LVU583
.LBB297:
.LBB283:
.LBB282:
	.loc 1 861 25 is_stmt 0 view .LVU584
	cmpq	$-3, %rsi
	ja	.L293
	jmp	.L224
.LVL183:
	.p2align 4,,10
	.p2align 3
.L167:
	.loc 1 861 25 view .LVU585
.LBE282:
.LBE283:
	.loc 1 1144 11 is_stmt 1 view .LVU586
	.loc 1 1144 18 is_stmt 0 view .LVU587
	movq	16(%rcx), %rsi
.LVL184:
.LBB284:
.LBI284:
	.loc 1 858 1 is_stmt 1 view .LVU588
.LBB285:
	.loc 1 861 3 view .LVU589
	.loc 1 861 3 is_stmt 0 view .LVU590
.LBE285:
.LBE284:
.LBE297:
	.loc 1 847 3 is_stmt 1 view .LVU591
.LBB298:
.LBB287:
.LBB286:
	.loc 1 862 12 is_stmt 0 view .LVU592
	leaq	.LC4(%rip), %rdi
.LVL185:
	.loc 1 861 6 view .LVU593
	cmpq	$-3, %rsi
	ja	.L292
	movq	8(%rcx), %r8
	movq	(%rcx), %rcx
.LVL186:
	.loc 1 861 6 view .LVU594
	xorl	%edi, %edi
.LVL187:
	.loc 1 861 6 view .LVU595
	leaq	368(%rsp), %rdx
.LVL188:
	.loc 1 861 6 view .LVU596
	call	df_readable.part.0
.LVL189:
	.loc 1 861 6 view .LVU597
	movq	%rax, %rdi
.LVL190:
	.loc 1 861 6 view .LVU598
	jmp	.L292
.LVL191:
	.p2align 4,,10
	.p2align 3
.L168:
	.loc 1 861 6 view .LVU599
.LBE286:
.LBE287:
	.loc 1 1139 11 is_stmt 1 view .LVU600
	.loc 1 1139 18 is_stmt 0 view .LVU601
	movq	%rbx, %rdi
	call	xstrdup@PLT
.LVL192:
	.loc 1 1139 16 view .LVU602
	movq	%rax, 24(%rsp)
	.loc 1 1140 11 is_stmt 1 view .LVU603
	.loc 1 1139 18 is_stmt 0 view .LVU604
	movq	%rax, %rdi
	.loc 1 1140 11 view .LVU605
	jmp	.L170
.LVL193:
	.p2align 4,,10
	.p2align 3
.L169:
	.loc 1 1135 11 is_stmt 1 view .LVU606
	.loc 1 1135 18 is_stmt 0 view .LVU607
	movq	(%rsp), %rdi
	call	xstrdup@PLT
.LVL194:
	.loc 1 1135 16 view .LVU608
	movq	%rax, 24(%rsp)
	.loc 1 1136 11 is_stmt 1 view .LVU609
	.loc 1 1135 18 is_stmt 0 view .LVU610
	movq	%rax, %rdi
	.loc 1 1136 11 view .LVU611
	jmp	.L170
.LVL195:
	.p2align 4,,10
	.p2align 3
.L161:
	.loc 1 1214 11 is_stmt 1 view .LVU612
	.loc 1 1214 18 is_stmt 0 view .LVU613
	movq	%r12, %rdi
	jmp	.L292
	.p2align 4,,10
	.p2align 3
.L163:
	.loc 1 1227 11 is_stmt 1 view .LVU614
	.loc 1 1227 18 is_stmt 0 view .LVU615
	movq	%rbp, %rdi
	jmp	.L292
.LVL196:
	.p2align 4,,10
	.p2align 3
.L298:
	.loc 1 1116 7 view .LVU616
	testl	%eax, %eax
	je	.L215
	.loc 1 1128 11 is_stmt 1 view .LVU617
.LVL197:
	.loc 1 1129 11 view .LVU618
	.loc 1 1129 11 view .LVU619
	leaq	__PRETTY_FUNCTION__.9279(%rip), %rcx
	movl	$1129, %edx
	leaq	.LC2(%rip), %rsi
	leaq	.LC7(%rip), %rdi
	call	__assert_fail@PLT
.LVL198:
	.p2align 4,,10
	.p2align 3
.L215:
	.loc 1 1119 13 is_stmt 0 view .LVU620
	leaq	96(%rsp), %rcx
	jmp	.L159
	.p2align 4,,10
	.p2align 3
.L213:
	.loc 1 1116 7 view .LVU621
	leaq	160(%rsp), %rcx
	jmp	.L159
.LVL199:
	.p2align 4,,10
	.p2align 3
.L301:
.LBB288:
	.loc 1 1164 46 discriminator 1 view .LVU622
	movq	24(%rcx), %rsi
.LVL200:
	.loc 1 1164 46 discriminator 1 view .LVU623
.LBE288:
.LBE298:
	.loc 1 847 3 is_stmt 1 discriminator 1 view .LVU624
.LBB299:
.LBB289:
	.loc 1 1164 41 is_stmt 0 discriminator 1 view .LVU625
	cmpq	$-3, %rsi
	ja	.L176
	.loc 1 1166 18 is_stmt 1 view .LVU626
	.loc 1 1166 21 is_stmt 0 view .LVU627
	cmpb	$0, 56(%rcx)
	movzbl	32(%rcx), %edi
	jne	.L177
	.loc 1 1167 22 view .LVU628
	movabsq	$184467440737095516, %rax
	cmpq	%rax, %rdx
	ja	.L178
	movq	%rdx, %rcx
.LVL201:
	.loc 1 1167 22 view .LVU629
	xorl	%eax, %eax
	addq	%rsi, %rcx
	setc	%al
	.loc 1 1168 22 view .LVU630
	testq	%rcx, %rcx
	jne	.L302
.L178:
.LBB264:
	.loc 1 1183 17 is_stmt 1 discriminator 2 view .LVU631
	.loc 1 1183 66 is_stmt 0 discriminator 2 view .LVU632
	testq	%rdx, %rdx
	js	.L187
	pxor	%xmm0, %xmm0
	cvtsi2sdq	%rdx, %xmm0
.L186:
.LVL202:
	.loc 1 1184 17 is_stmt 1 discriminator 4 view .LVU633
	.loc 1 1185 56 is_stmt 0 discriminator 4 view .LVU634
	testb	%dil, %dil
	je	.L189
	.loc 1 1185 41 discriminator 1 view .LVU635
	negq	%rsi
	.loc 1 1185 32 discriminator 1 view .LVU636
	testq	%rsi, %rsi
	js	.L190
	pxor	%xmm1, %xmm1
	cvtsi2sdq	%rsi, %xmm1
.L191:
	.loc 1 1185 56 discriminator 1 view .LVU637
	xorpd	.LC8(%rip), %xmm1
.L192:
.LVL203:
	.loc 1 1186 17 is_stmt 1 view .LVU638
	.loc 1 1186 24 is_stmt 0 view .LVU639
	addsd	%xmm0, %xmm1
.LVL204:
	.loc 1 1187 17 is_stmt 1 view .LVU640
	.loc 1 1187 20 is_stmt 0 view .LVU641
	pxor	%xmm5, %xmm5
	pxor	%xmm2, %xmm2
	ucomisd	%xmm5, %xmm1
	jp	.L225
	je	.L176
.L225:
.LBB265:
	.loc 1 1189 21 is_stmt 1 view .LVU642
	.loc 1 1189 46 is_stmt 0 view .LVU643
	mulsd	.LC10(%rip), %xmm0
.LVL205:
	.loc 1 1194 30 view .LVU644
	movsd	.LC11(%rip), %xmm3
	.loc 1 1189 42 view .LVU645
	divsd	%xmm1, %xmm0
.LVL206:
	.loc 1 1190 21 is_stmt 1 view .LVU646
	.loc 1 1190 28 is_stmt 0 view .LVU647
	pxor	%xmm1, %xmm1
.LVL207:
	.loc 1 1189 30 view .LVU648
	cvttsd2siq	%xmm0, %rax
.LVL208:
	.loc 1 1190 28 view .LVU649
	cvtsi2sdq	%rax, %xmm1
.LVL209:
	.loc 1 1194 21 is_stmt 1 view .LVU650
	.loc 1 1194 30 is_stmt 0 view .LVU651
	movapd	%xmm1, %xmm4
	subsd	%xmm3, %xmm4
	.loc 1 1194 24 view .LVU652
	comisd	%xmm4, %xmm0
	jbe	.L183
	.loc 1 1194 55 discriminator 1 view .LVU653
	addsd	%xmm1, %xmm3
	.loc 1 1194 40 discriminator 1 view .LVU654
	comisd	%xmm0, %xmm3
	jnb	.L303
.LVL210:
.L183:
	.loc 1 1194 40 discriminator 1 view .LVU655
.LBE265:
.LBE264:
	.loc 1 1199 13 is_stmt 1 view .LVU656
	.loc 1 1199 16 is_stmt 0 view .LVU657
	comisd	%xmm2, %xmm0
	jb	.L176
	.loc 1 1201 17 is_stmt 1 view .LVU658
	.loc 1 1201 21 is_stmt 0 view .LVU659
	leaq	24(%rsp), %rdi
	leaq	.LC12(%rip), %rsi
	movl	$1, %eax
	call	rpl_asprintf@PLT
.LVL211:
	.loc 1 1201 20 view .LVU660
	cmpl	$-1, %eax
	je	.L200
	movq	24(%rsp), %rdi
	jmp	.L201
	.p2align 4,,10
	.p2align 3
.L200:
	.loc 1 1202 19 is_stmt 1 view .LVU661
	.loc 1 1202 24 is_stmt 0 view .LVU662
	movq	$0, 24(%rsp)
	.loc 1 1207 13 is_stmt 1 view .LVU663
.L202:
	.loc 1 1208 15 view .LVU664
	call	xalloc_die@PLT
.LVL212:
	.p2align 4,,10
	.p2align 3
.L189:
.LBB268:
	.loc 1 1185 56 is_stmt 0 discriminator 2 view .LVU665
	testq	%rsi, %rsi
	js	.L193
	pxor	%xmm1, %xmm1
	cvtsi2sdq	%rsi, %xmm1
	jmp	.L192
.LVL213:
	.p2align 4,,10
	.p2align 3
.L177:
	.loc 1 1183 17 is_stmt 1 discriminator 1 view .LVU666
	.loc 1 1183 56 is_stmt 0 discriminator 1 view .LVU667
	negq	%rdx
	.loc 1 1183 47 discriminator 1 view .LVU668
	testq	%rdx, %rdx
	js	.L184
	pxor	%xmm0, %xmm0
	cvtsi2sdq	%rdx, %xmm0
.L185:
	.loc 1 1183 66 discriminator 1 view .LVU669
	xorpd	.LC8(%rip), %xmm0
	jmp	.L186
.LVL214:
.L190:
	.loc 1 1185 32 discriminator 1 view .LVU670
	movq	%rsi, %rax
	andl	$1, %esi
	pxor	%xmm1, %xmm1
	shrq	%rax
	orq	%rsi, %rax
	cvtsi2sdq	%rax, %xmm1
	addsd	%xmm1, %xmm1
	jmp	.L191
.L193:
	.loc 1 1185 56 discriminator 2 view .LVU671
	movq	%rsi, %rax
	andl	$1, %esi
	pxor	%xmm1, %xmm1
	shrq	%rax
	orq	%rsi, %rax
	cvtsi2sdq	%rax, %xmm1
	addsd	%xmm1, %xmm1
	jmp	.L192
.LVL215:
.L187:
	.loc 1 1183 66 discriminator 2 view .LVU672
	movq	%rdx, %rax
	andl	$1, %edx
	pxor	%xmm0, %xmm0
	shrq	%rax
	orq	%rdx, %rax
	cvtsi2sdq	%rax, %xmm0
	addsd	%xmm0, %xmm0
	jmp	.L186
.LVL216:
.L184:
	.loc 1 1183 47 discriminator 1 view .LVU673
	movq	%rdx, %rax
	andl	$1, %edx
	pxor	%xmm0, %xmm0
	shrq	%rax
	orq	%rdx, %rax
	cvtsi2sdq	%rax, %xmm0
	addsd	%xmm0, %xmm0
	jmp	.L185
.LVL217:
.L302:
	.loc 1 1183 47 discriminator 1 view .LVU674
.LBE268:
	.loc 1 1169 22 view .LVU675
	cmpb	%al, %dil
	jne	.L178
.LBB269:
	.loc 1 1172 17 is_stmt 1 view .LVU676
.LVL218:
	.loc 1 1173 17 view .LVU677
	.loc 1 1174 17 view .LVU678
	.loc 1 1172 27 is_stmt 0 view .LVU679
	leaq	(%rdx,%rdx,4), %rax
	xorl	%edx, %edx
.LVL219:
	.loc 1 1172 27 view .LVU680
	leaq	(%rax,%rax,4), %rax
	salq	$2, %rax
	divq	%rcx
	.loc 1 1174 68 view .LVU681
	testq	%rdx, %rdx
	setne	%dl
	movzbl	%dl, %edx
	.loc 1 1174 21 view .LVU682
	addq	%rax, %rdx
	js	.L181
	pxor	%xmm0, %xmm0
	pxor	%xmm2, %xmm2
	cvtsi2sdq	%rdx, %xmm0
	jmp	.L183
.LVL220:
.L303:
	.loc 1 1174 21 view .LVU683
.LBE269:
.LBB270:
.LBB266:
	.loc 1 1195 23 is_stmt 1 view .LVU684
	.loc 1 1195 34 is_stmt 0 view .LVU685
	comisd	%xmm1, %xmm0
	ja	.L219
	pxor	%xmm0, %xmm0
.LVL221:
	.loc 1 1195 34 view .LVU686
	addsd	%xmm1, %xmm0
	jmp	.L183
.LVL222:
.L294:
	.loc 1 1195 34 view .LVU687
.LBE266:
.LBE270:
.LBE289:
.LBE299:
	.loc 1 1029 7 is_stmt 1 view .LVU688
	call	__errno_location@PLT
.LVL223:
	.loc 1 1029 10 is_stmt 0 view .LVU689
	cmpb	$0, 8(%rsp)
	movq	%rax, %rbx
.LVL224:
	.loc 1 1029 10 view .LVU690
	je	.L128
	.loc 1 1029 27 discriminator 1 view .LVU691
	movl	(%rax), %eax
	.loc 1 1029 23 discriminator 1 view .LVU692
	cmpl	$13, %eax
	je	.L221
	cmpl	$2, %eax
	je	.L221
.L128:
	.loc 1 1041 11 is_stmt 1 view .LVU693
	movq	(%rsp), %rdx
	movl	$3, %esi
	xorl	%edi, %edi
	call	quotearg_n_style_colon@PLT
.LVL225:
	movl	(%rbx), %esi
	leaq	.LC5(%rip), %rdx
	xorl	%edi, %edi
	movq	%rax, %rcx
	xorl	%eax, %eax
	call	error@PLT
.LVL226:
	.loc 1 1042 11 view .LVU694
	.loc 1 1042 23 is_stmt 0 view .LVU695
	movl	$1, exit_status(%rip)
	.loc 1 1043 11 is_stmt 1 view .LVU696
	jmp	.L117
.LVL227:
.L296:
	.loc 1 1092 26 is_stmt 0 view .LVU697
	movq	(%rsp), %rdi
	xorl	%esi, %esi
	call	canonicalize_filename_mode@PLT
.LVL228:
	movq	%rax, %r14
.LVL229:
	.loc 1 1092 7 view .LVU698
	testq	%rax, %rax
	je	.L143
	.loc 1 1094 7 is_stmt 1 view .LVU699
	movq	(%rsp), %rdi
	call	free@PLT
.LVL230:
	.loc 1 1095 7 view .LVU700
	.loc 1 1094 7 is_stmt 0 view .LVU701
	movq	%r14, (%rsp)
	jmp	.L143
.LVL231:
.L299:
	.loc 1 1019 5 is_stmt 1 view .LVU702
	.loc 1 1019 43 is_stmt 0 view .LVU703
	testq	%rbp, %rbp
	movq	%rbp, %rax
	cmove	%r13, %rax
	movq	%rax, (%rsp)
.LVL232:
	.loc 1 1019 43 view .LVU704
	jmp	.L123
.LVL233:
.L297:
	.loc 1 1107 5 is_stmt 1 view .LVU705
.LBB300:
.LBI300:
	.loc 1 960 1 view .LVU706
.LBB301:
	.loc 1 962 3 view .LVU707
	.loc 1 962 3 is_stmt 0 view .LVU708
.LBE301:
.LBE300:
	.loc 1 847 3 is_stmt 1 view .LVU709
.LBB314:
.LBB308:
	.loc 1 962 6 is_stmt 0 view .LVU710
	cmpq	$-3, %rdi
	ja	.L149
	.loc 1 963 5 is_stmt 1 view .LVU711
	.loc 1 963 25 is_stmt 0 view .LVU712
	addq	%rdi, 40+grand_fsu(%rip)
.L149:
	.loc 1 964 3 is_stmt 1 view .LVU713
.LVL234:
	.loc 1 964 3 is_stmt 0 view .LVU714
.LBE308:
.LBE314:
	.loc 1 847 3 is_stmt 1 view .LVU715
.LBB315:
.LBB309:
	.loc 1 964 6 is_stmt 0 view .LVU716
	cmpq	$-3, %rax
	ja	.L150
	.loc 1 965 5 is_stmt 1 view .LVU717
	.loc 1 965 25 is_stmt 0 view .LVU718
	addq	%rax, 48+grand_fsu(%rip)
.L150:
	.loc 1 967 3 is_stmt 1 view .LVU719
.LVL235:
	.loc 1 967 3 is_stmt 0 view .LVU720
.LBE309:
.LBE315:
	.loc 1 847 3 is_stmt 1 view .LVU721
.LBB316:
.LBB310:
	.loc 1 967 6 is_stmt 0 view .LVU722
	cmpq	$-3, %rcx
	ja	.L151
	.loc 1 968 5 is_stmt 1 view .LVU723
	.loc 1 968 45 is_stmt 0 view .LVU724
	imulq	%r9, %rcx
	.loc 1 968 26 view .LVU725
	addq	%rcx, 8+grand_fsu(%rip)
.L151:
	.loc 1 969 3 is_stmt 1 view .LVU726
.LVL236:
	.loc 1 969 3 is_stmt 0 view .LVU727
.LBE310:
.LBE316:
	.loc 1 847 3 is_stmt 1 view .LVU728
.LBB317:
.LBB311:
	.loc 1 969 6 is_stmt 0 view .LVU729
	cmpq	$-3, %rsi
	ja	.L152
	.loc 1 970 5 is_stmt 1 view .LVU730
	.loc 1 970 44 is_stmt 0 view .LVU731
	imulq	%r9, %rsi
	.loc 1 970 25 view .LVU732
	addq	%rsi, 16+grand_fsu(%rip)
.L152:
	.loc 1 971 3 is_stmt 1 view .LVU733
.LVL237:
	.loc 1 971 3 is_stmt 0 view .LVU734
.LBE311:
.LBE317:
	.loc 1 847 3 is_stmt 1 view .LVU735
.LBB318:
.LBB312:
	.loc 1 971 6 is_stmt 0 view .LVU736
	cmpq	$-3, %r8
	ja	.L154
	.loc 1 972 5 is_stmt 1 view .LVU737
.LBB302:
.LBB303:
	.loc 1 884 7 is_stmt 0 view .LVU738
	movzbl	32+grand_fsu(%rip), %ecx
.LBE303:
.LBE302:
	.loc 1 972 5 view .LVU739
	imulq	%r9, %r8
.LVL238:
.LBB306:
.LBI302:
	.loc 1 881 1 is_stmt 1 view .LVU740
.LBB304:
	.loc 1 884 3 view .LVU741
	movq	24+grand_fsu(%rip), %rax
	.loc 1 884 6 is_stmt 0 view .LVU742
	cmpb	%dl, %cl
	je	.L304
	.loc 1 890 3 is_stmt 1 view .LVU743
	.loc 1 891 13 is_stmt 0 view .LVU744
	movq	%rax, %rsi
	negq	%rsi
	testb	%cl, %cl
	cmovne	%rsi, %rax
	.loc 1 893 3 is_stmt 1 view .LVU745
	.loc 1 894 9 is_stmt 0 view .LVU746
	movq	%r8, %rsi
	negq	%rsi
	testb	%dl, %dl
	cmovne	%rsi, %r8
.LVL239:
	.loc 1 896 3 is_stmt 1 view .LVU747
	.loc 1 896 6 is_stmt 0 view .LVU748
	cmpq	%rax, %r8
	jnb	.L157
	.loc 1 897 5 is_stmt 1 view .LVU749
	.loc 1 897 11 is_stmt 0 view .LVU750
	subq	%r8, %rax
	movq	%rax, 24+grand_fsu(%rip)
.LVL240:
.L158:
	.loc 1 904 3 is_stmt 1 view .LVU751
	.loc 1 904 6 is_stmt 0 view .LVU752
	testb	%cl, %cl
	je	.L154
	.loc 1 905 5 is_stmt 1 view .LVU753
	.loc 1 905 11 is_stmt 0 view .LVU754
	negq	24+grand_fsu(%rip)
	jmp	.L154
.LVL241:
.L219:
	.loc 1 905 11 view .LVU755
.LBE304:
.LBE306:
.LBE312:
.LBE318:
.LBB319:
.LBB290:
.LBB271:
.LBB267:
	movapd	%xmm3, %xmm0
.LVL242:
	.loc 1 905 11 view .LVU756
	jmp	.L183
.LVL243:
.L295:
	.loc 1 905 11 view .LVU757
.LBE267:
.LBE271:
.LBE290:
.LBE319:
.LBB320:
	.loc 1 1052 7 is_stmt 1 view .LVU758
	.loc 1 1053 7 view .LVU759
.LBB321:
.LBI321:
	.file 6 "/usr/include/x86_64-linux-gnu/sys/stat.h"
	.loc 6 453 1 view .LVU760
.LBB322:
	.loc 6 455 3 view .LVU761
	.loc 6 455 10 is_stmt 0 view .LVU762
	movq	(%rsp), %rsi
	leaq	224(%rsp), %rdx
.LVL244:
	.loc 6 455 10 view .LVU763
	movl	$1, %edi
	call	__xstat@PLT
.LVL245:
	.loc 6 455 10 view .LVU764
.LBE322:
.LBE321:
	.loc 1 1053 10 view .LVU765
	testl	%eax, %eax
	jne	.L132
.LBB323:
	.loc 1 1055 11 is_stmt 1 view .LVU766
.LBB324:
.LBB325:
.LBB326:
.LBB327:
	.loc 1 680 21 is_stmt 0 view .LVU767
	movq	devlist_table(%rip), %rdi
.LBE327:
.LBE326:
.LBE325:
.LBE324:
	.loc 1 1055 47 view .LVU768
	movq	224(%rsp), %rax
.LVL246:
.LBB331:
.LBI324:
	.loc 1 831 1 is_stmt 1 view .LVU769
.LBB330:
	.loc 1 833 3 view .LVU770
.LBB329:
.LBI326:
	.loc 1 678 1 view .LVU771
.LBB328:
	.loc 1 680 3 view .LVU772
	.loc 1 680 6 is_stmt 0 view .LVU773
	testq	%rdi, %rdi
	je	.L132
	.loc 1 682 3 is_stmt 1 view .LVU774
	.loc 1 683 3 view .LVU775
	.loc 1 684 10 is_stmt 0 view .LVU776
	leaq	160(%rsp), %rsi
	.loc 1 683 21 view .LVU777
	movq	%rax, 160(%rsp)
	.loc 1 684 3 is_stmt 1 view .LVU778
	.loc 1 684 10 is_stmt 0 view .LVU779
	call	hash_lookup@PLT
.LVL247:
	.loc 1 684 10 view .LVU780
.LBE328:
.LBE329:
	.loc 1 834 3 is_stmt 1 view .LVU781
	.loc 1 834 6 is_stmt 0 view .LVU782
	testq	%rax, %rax
	je	.L132
	.loc 1 835 9 is_stmt 1 view .LVU783
	.loc 1 835 18 is_stmt 0 view .LVU784
	movq	8(%rax), %rdx
.LVL248:
	.loc 1 835 18 view .LVU785
.LBE330:
.LBE331:
	.loc 1 1056 11 is_stmt 1 view .LVU786
	.loc 1 1056 14 is_stmt 0 view .LVU787
	testq	%rdx, %rdx
	je	.L132
	.loc 1 1056 27 discriminator 1 view .LVU788
	movq	(%rdx), %rdi
	movq	%r13, %rsi
	movq	%rdx, (%rsp)
.LVL249:
	.loc 1 1056 27 discriminator 1 view .LVU789
	call	strcmp@PLT
.LVL250:
	.loc 1 1056 22 discriminator 1 view .LVU790
	testl	%eax, %eax
	je	.L132
	.loc 1 1057 39 view .LVU791
	movq	(%rsp), %rdx
	testb	$2, 40(%rdx)
	je	.L222
	testb	%r15b, %r15b
	jne	.L132
.L222:
	.loc 1 1059 15 is_stmt 1 view .LVU792
.LVL251:
	.loc 1 1060 15 view .LVU793
	.loc 1 1060 42 is_stmt 0 view .LVU794
	movb	$0, 64(%rsp)
	.loc 1 1061 15 is_stmt 1 view .LVU795
	.loc 1 1059 22 is_stmt 0 view .LVU796
	leaq	.LC4(%rip), %rbx
.LVL252:
	.loc 1 1062 62 view .LVU797
	movq	$-1, 80(%rsp)
	.loc 1 1062 46 view .LVU798
	movq	$-1, 72(%rsp)
	.loc 1 1062 30 view .LVU799
	movq	$-1, 56(%rsp)
	.loc 1 1061 66 view .LVU800
	movq	$-1, 48(%rsp)
	.loc 1 1061 50 view .LVU801
	movq	$-1, 40(%rsp)
	.loc 1 1061 33 view .LVU802
	movq	$-1, 32(%rsp)
.LVL253:
.L132:
	.loc 1 1061 33 view .LVU803
.LBE323:
.LBE320:
	.loc 1 1067 3 is_stmt 1 view .LVU804
	.loc 1 1067 6 is_stmt 0 view .LVU805
	cmpq	$0, 40(%rsp)
	jne	.L130
	.loc 1 1067 27 view .LVU806
	cmpb	$0, show_all_fs(%rip)
	jne	.L130
	jmp	.L210
.LVL254:
.L221:
	.loc 1 1031 11 is_stmt 1 view .LVU807
	.loc 1 1031 14 is_stmt 0 view .LVU808
	cmpb	$0, show_all_fs(%rip)
	je	.L117
	.loc 1 1034 11 is_stmt 1 view .LVU809
.LVL255:
	.loc 1 1035 11 view .LVU810
	.loc 1 1035 38 is_stmt 0 view .LVU811
	movb	$0, 64(%rsp)
	.loc 1 1036 11 is_stmt 1 view .LVU812
	.loc 1 1034 18 is_stmt 0 view .LVU813
	leaq	.LC4(%rip), %rbx
	.loc 1 1037 58 view .LVU814
	movq	$-1, 80(%rsp)
	.loc 1 1037 42 view .LVU815
	movq	$-1, 72(%rsp)
	.loc 1 1037 26 view .LVU816
	movq	$-1, 56(%rsp)
	.loc 1 1036 62 view .LVU817
	movq	$-1, 48(%rsp)
	.loc 1 1036 46 view .LVU818
	movq	$-1, 40(%rsp)
	.loc 1 1036 29 view .LVU819
	movq	$-1, 32(%rsp)
	.loc 1 1067 3 is_stmt 1 view .LVU820
	jmp	.L130
.LVL256:
.L181:
.LBB332:
.LBB291:
.LBB272:
	.loc 1 1174 21 is_stmt 0 view .LVU821
	movq	%rdx, %rax
	pxor	%xmm0, %xmm0
	pxor	%xmm2, %xmm2
	andl	$1, %edx
	shrq	%rax
	orq	%rdx, %rax
	cvtsi2sdq	%rax, %xmm0
	addsd	%xmm0, %xmm0
.LVL257:
	.loc 1 1174 21 view .LVU822
.LBE272:
	.loc 1 1171 15 view .LVU823
	jmp	.L183
.LVL258:
.L160:
	.loc 1 1171 15 view .LVU824
.LBE291:
	.loc 1 1231 11 is_stmt 1 discriminator 1 view .LVU825
	.loc 1 1231 11 discriminator 1 view .LVU826
	leaq	__PRETTY_FUNCTION__.9279(%rip), %rcx
.LVL259:
	.loc 1 1231 11 is_stmt 0 discriminator 1 view .LVU827
	movl	$1231, %edx
	leaq	.LC2(%rip), %rsi
	leaq	.LC13(%rip), %rdi
	call	__assert_fail@PLT
.LVL260:
.L157:
	.loc 1 1231 11 discriminator 1 view .LVU828
.LBE332:
.LBB333:
.LBB313:
.LBB307:
.LBB305:
	.loc 1 900 7 is_stmt 1 view .LVU829
	.loc 1 900 19 is_stmt 0 view .LVU830
	subq	%rax, %r8
.LVL261:
	.loc 1 901 17 view .LVU831
	movb	%dl, 32+grand_fsu(%rip)
	movl	%edx, %ecx
	.loc 1 900 19 view .LVU832
	movq	%r8, 24+grand_fsu(%rip)
	.loc 1 901 7 is_stmt 1 view .LVU833
	jmp	.L158
.LVL262:
.L304:
	.loc 1 886 7 view .LVU834
	.loc 1 886 13 is_stmt 0 view .LVU835
	addq	%rax, %r8
.LVL263:
	.loc 1 886 13 view .LVU836
	movq	%r8, 24+grand_fsu(%rip)
	.loc 1 887 7 is_stmt 1 view .LVU837
	jmp	.L154
.LVL264:
.L300:
	.loc 1 887 7 is_stmt 0 view .LVU838
.LBE305:
.LBE307:
.LBE313:
.LBE333:
	.loc 1 1243 1 view .LVU839
	call	__stack_chk_fail@PLT
.LVL265:
	.cfi_endproc
.LFE199:
	.size	get_dev, .-get_dev
	.section	.rodata.str1.1
.LC15:
	.string	"df"
.LC16:
	.string	" invocation"
.LC17:
	.string	""
	.section	.rodata.str1.8,"aMS",@progbits,1
	.align 8
.LC18:
	.string	"Try '%s --help' for more information.\n"
	.align 8
.LC19:
	.string	"Usage: %s [OPTION]... [FILE]...\n"
	.align 8
.LC20:
	.string	"Show information about the file system on which each FILE resides,\nor all file systems by default.\n"
	.align 8
.LC21:
	.string	"\nMandatory arguments to long options are mandatory for short options too.\n"
	.align 8
.LC22:
	.ascii	"  -a, --all             include pseudo, duplicate, inaccessi"
	.ascii	"ble file systems\n  -B, --block-size=SIZE  scale sizes by SI"
	.ascii	"ZE before printing them; e.g.,\n   "
	.string	"                        '-BM' prints sizes in units of 1,048,576 bytes;\n                           see SIZE format below\n  -h, --human-readable  print sizes in powers of 1024 (e.g., 1023M)\n  -H, --si              print sizes in powers of 1000 (e.g., 1.1G)\n"
	.align 8
.LC23:
	.string	"  -i, --inodes          list inode information instead of block usage\n  -k                    like --block-size=1K\n  -l, --local           limit listing to local file systems\n      --no-sync         do not invoke sync before getting usage info (default)\n"
	.align 8
.LC24:
	.ascii	"      --o"
	.string	"utput[=FIELD_LIST]  use the output format defined by FIELD_LIST,\n                               or print all fields if FIELD_LIST is omitted.\n  -P, --portability     use the POSIX output format\n      --sync            invoke sync before getting usage info\n"
	.align 8
.LC25:
	.string	"      --total           elide all entries insignificant to available space,\n                          and produce a grand total\n"
	.align 8
.LC26:
	.string	"  -t, --type=TYPE       limit listing to file systems of type TYPE\n  -T, --print-type      print file system type\n  -x, --exclude-type=TYPE   limit listing to file systems not of type TYPE\n  -v                    (ignored)\n"
	.align 8
.LC27:
	.string	"      --help     display this help and exit\n"
	.align 8
.LC28:
	.string	"      --version  output version information and exit\n"
	.align 8
.LC29:
	.string	"\nDisplay values are in units of the first available SIZE from --block-size,\nand the %s_BLOCK_SIZE, BLOCK_SIZE and BLOCKSIZE environment variables.\nOtherwise, units default to 1024 bytes (or 512 if POSIXLY_CORRECT is set).\n"
	.section	.rodata.str1.1
.LC30:
	.string	"DF"
	.section	.rodata.str1.8
	.align 8
.LC31:
	.string	"\nThe SIZE argument is an integer and optional unit (example: 10K is 10*1024).\nUnits are K,M,G,T,P,E,Z,Y (powers of 1024) or KB,MB,... (powers of 1000).\nBinary prefixes can be used, too: KiB=K, MiB=M, and so on.\n"
	.align 8
.LC32:
	.string	"\nFIELD_LIST is a comma-separated list of columns to be included.  Valid\nfield names are: 'source', 'fstype', 'itotal', 'iused', 'iavail', 'ipcent',\n'size', 'used', 'avail', 'pcent', 'file' and 'target' (see info page).\n"
	.section	.rodata.str1.1
.LC33:
	.string	"["
.LC34:
	.string	"test invocation"
.LC35:
	.string	"coreutils"
.LC36:
	.string	"Multi-call invocation"
.LC37:
	.string	"sha224sum"
.LC38:
	.string	"sha2 utilities"
.LC39:
	.string	"sha256sum"
.LC40:
	.string	"sha384sum"
.LC41:
	.string	"sha512sum"
.LC42:
	.string	"\n%s online help: <%s>\n"
	.section	.rodata.str1.8
	.align 8
.LC43:
	.string	"https://www.gnu.org/software/coreutils/"
	.section	.rodata.str1.1
.LC44:
	.string	"GNU coreutils"
.LC45:
	.string	"en_"
	.section	.rodata.str1.8
	.align 8
.LC46:
	.string	"Report any translation bugs to <https://translationproject.org/team/>\n"
	.section	.rodata.str1.1
.LC47:
	.string	"Full documentation <%s%s>\n"
	.section	.rodata.str1.8
	.align 8
.LC48:
	.string	"or available locally via: info '(coreutils) %s%s'\n"
	.text
	.p2align 4
	.globl	usage
	.type	usage, @function
usage:
.LVL266:
.LFB207:
	.loc 1 1506 1 is_stmt 1 view -0
	.cfi_startproc
	.loc 1 1506 1 is_stmt 0 view .LVU841
	endbr64
	pushq	%r14
	.cfi_def_cfa_offset 16
	.cfi_offset 14, -16
	.loc 1 1508 5 view .LVU842
	movl	$5, %edx
	.loc 1 1506 1 view .LVU843
	pushq	%r13
	.cfi_def_cfa_offset 24
	.cfi_offset 13, -24
	pushq	%r12
	.cfi_def_cfa_offset 32
	.cfi_offset 12, -32
	pushq	%rbp
	.cfi_def_cfa_offset 40
	.cfi_offset 6, -40
	movl	%edi, %ebp
	subq	$136, %rsp
	.cfi_def_cfa_offset 176
	movq	program_name(%rip), %r12
	.loc 1 1506 1 view .LVU844
	movq	%fs:40, %rax
	movq	%rax, 120(%rsp)
	xorl	%eax, %eax
	.loc 1 1507 3 is_stmt 1 view .LVU845
	.loc 1 1507 6 is_stmt 0 view .LVU846
	testl	%edi, %edi
	je	.L306
	.loc 1 1508 5 is_stmt 1 view .LVU847
	.loc 1 1508 5 view .LVU848
	leaq	.LC18(%rip), %rsi
	xorl	%edi, %edi
.LVL267:
	.loc 1 1508 5 is_stmt 0 view .LVU849
	call	dcgettext@PLT
.LVL268:
.LBB354:
.LBB355:
	.file 7 "/usr/include/x86_64-linux-gnu/bits/stdio2.h"
	.loc 7 100 10 view .LVU850
	movq	stderr(%rip), %rdi
	movq	%r12, %rcx
	movl	$1, %esi
.LBE355:
.LBE354:
	.loc 1 1508 5 view .LVU851
	movq	%rax, %rdx
.LVL269:
.LBB357:
.LBI354:
	.loc 7 98 1 is_stmt 1 view .LVU852
.LBB356:
	.loc 7 100 3 view .LVU853
	.loc 7 100 10 is_stmt 0 view .LVU854
	xorl	%eax, %eax
.LVL270:
	.loc 7 100 10 view .LVU855
	call	__fprintf_chk@PLT
.LVL271:
.L307:
	.loc 7 100 10 view .LVU856
.LBE356:
.LBE357:
	.loc 1 1563 3 is_stmt 1 view .LVU857
	movl	%ebp, %edi
	call	exit@PLT
.LVL272:
.L306:
	.loc 1 1511 7 view .LVU858
	.loc 1 1511 15 is_stmt 0 view .LVU859
	xorl	%edi, %edi
.LVL273:
	.loc 1 1511 15 view .LVU860
	leaq	.LC19(%rip), %rsi
	call	dcgettext@PLT
.LVL274:
.LBB358:
.LBB359:
	.loc 7 107 10 view .LVU861
	movq	%r12, %rdx
	movl	$1, %edi
.LBE359:
.LBE358:
	.loc 1 1511 15 view .LVU862
	movq	%rax, %rsi
.LVL275:
.LBB361:
.LBI358:
	.loc 7 105 1 is_stmt 1 view .LVU863
.LBB360:
	.loc 7 107 3 view .LVU864
	.loc 7 107 10 is_stmt 0 view .LVU865
	xorl	%eax, %eax
.LVL276:
	.loc 7 107 10 view .LVU866
	call	__printf_chk@PLT
.LVL277:
	.loc 7 107 10 view .LVU867
.LBE360:
.LBE361:
	.loc 1 1512 7 is_stmt 1 view .LVU868
	movq	stdout(%rip), %r12
	xorl	%edi, %edi
	movl	$5, %edx
	leaq	.LC20(%rip), %rsi
	call	dcgettext@PLT
.LVL278:
	movq	%r12, %rsi
	movq	%rax, %rdi
	call	fputs_unlocked@PLT
.LVL279:
	.loc 1 1517 7 view .LVU869
.LBB362:
.LBI362:
	.loc 3 588 1 view .LVU870
.LBB363:
	.loc 3 590 3 view .LVU871
	movq	stdout(%rip), %r12
	xorl	%edi, %edi
	movl	$5, %edx
	leaq	.LC21(%rip), %rsi
	call	dcgettext@PLT
.LVL280:
	movq	%r12, %rsi
	movq	%rax, %rdi
	call	fputs_unlocked@PLT
.LVL281:
.LBE363:
.LBE362:
	.loc 1 1521 7 view .LVU872
	movq	stdout(%rip), %r12
	xorl	%edi, %edi
	movl	$5, %edx
	leaq	.LC22(%rip), %rsi
	call	dcgettext@PLT
.LVL282:
	movq	%r12, %rsi
	movq	%rax, %rdi
	call	fputs_unlocked@PLT
.LVL283:
	.loc 1 1529 7 view .LVU873
	movq	stdout(%rip), %r12
	xorl	%edi, %edi
	movl	$5, %edx
	leaq	.LC23(%rip), %rsi
	call	dcgettext@PLT
.LVL284:
	movq	%r12, %rsi
	movq	%rax, %rdi
	call	fputs_unlocked@PLT
.LVL285:
	.loc 1 1536 7 view .LVU874
	movq	stdout(%rip), %r12
	xorl	%edi, %edi
	movl	$5, %edx
	leaq	.LC24(%rip), %rsi
	call	dcgettext@PLT
.LVL286:
	movq	%r12, %rsi
	movq	%rax, %rdi
	call	fputs_unlocked@PLT
.LVL287:
	.loc 1 1542 7 view .LVU875
	movq	stdout(%rip), %r12
	xorl	%edi, %edi
	movl	$5, %edx
	leaq	.LC25(%rip), %rsi
	call	dcgettext@PLT
.LVL288:
	movq	%r12, %rsi
	movq	%rax, %rdi
	call	fputs_unlocked@PLT
.LVL289:
	.loc 1 1546 7 view .LVU876
	movq	stdout(%rip), %r12
	xorl	%edi, %edi
	movl	$5, %edx
	leaq	.LC26(%rip), %rsi
	call	dcgettext@PLT
.LVL290:
	movq	%r12, %rsi
	movq	%rax, %rdi
	call	fputs_unlocked@PLT
.LVL291:
	.loc 1 1552 7 view .LVU877
	movq	stdout(%rip), %r12
	xorl	%edi, %edi
	movl	$5, %edx
	leaq	.LC27(%rip), %rsi
	call	dcgettext@PLT
.LVL292:
	movq	%r12, %rsi
	movq	%rax, %rdi
	call	fputs_unlocked@PLT
.LVL293:
	.loc 1 1553 7 view .LVU878
	movq	stdout(%rip), %r12
	xorl	%edi, %edi
	movl	$5, %edx
	leaq	.LC28(%rip), %rsi
	call	dcgettext@PLT
.LVL294:
	movq	%r12, %rsi
	movq	%rax, %rdi
	call	fputs_unlocked@PLT
.LVL295:
	.loc 1 1554 7 view .LVU879
.LBB364:
.LBI364:
	.loc 3 606 1 view .LVU880
.LBB365:
	.loc 3 608 3 view .LVU881
	.loc 3 608 11 is_stmt 0 view .LVU882
	movl	$5, %edx
	leaq	.LC29(%rip), %rsi
	xorl	%edi, %edi
	call	dcgettext@PLT
.LVL296:
.LBB366:
.LBB367:
	.loc 7 107 10 view .LVU883
	leaq	.LC30(%rip), %rdx
	movl	$1, %edi
.LBE367:
.LBE366:
	.loc 3 608 11 view .LVU884
	movq	%rax, %rsi
.LVL297:
.LBB369:
.LBI366:
	.loc 7 105 1 is_stmt 1 view .LVU885
.LBB368:
	.loc 7 107 3 view .LVU886
	.loc 7 107 10 is_stmt 0 view .LVU887
	xorl	%eax, %eax
.LVL298:
	.loc 7 107 10 view .LVU888
	call	__printf_chk@PLT
.LVL299:
	.loc 7 107 10 view .LVU889
.LBE368:
.LBE369:
.LBE365:
.LBE364:
	.loc 1 1555 7 is_stmt 1 view .LVU890
.LBB370:
.LBI370:
	.loc 3 596 1 view .LVU891
.LBB371:
	.loc 3 598 3 view .LVU892
	movq	stdout(%rip), %r12
	movl	$5, %edx
	xorl	%edi, %edi
	leaq	.LC31(%rip), %rsi
	call	dcgettext@PLT
.LVL300:
	movq	%r12, %rsi
	movq	%rax, %rdi
	call	fputs_unlocked@PLT
.LVL301:
.LBE371:
.LBE370:
	.loc 1 1556 7 view .LVU893
	movl	$5, %edx
	movq	stdout(%rip), %r12
	xorl	%edi, %edi
	leaq	.LC32(%rip), %rsi
	call	dcgettext@PLT
.LVL302:
	movq	%r12, %rsi
	movq	%rax, %rdi
	call	fputs_unlocked@PLT
.LVL303:
	.loc 1 1561 7 view .LVU894
.LBB372:
.LBI372:
	.loc 3 634 1 view .LVU895
.LBB373:
	.loc 3 636 3 view .LVU896
	.loc 3 636 67 is_stmt 0 view .LVU897
	leaq	.LC33(%rip), %rax
	.loc 3 647 25 view .LVU898
	movq	%rsp, %rdx
	.loc 3 636 67 view .LVU899
	leaq	.LC39(%rip), %rcx
	movq	%rax, (%rsp)
	leaq	.LC34(%rip), %rax
	.loc 3 649 33 view .LVU900
	movl	$100, %edi
	movl	$102, %esi
	.loc 3 636 67 view .LVU901
	movq	%rax, 8(%rsp)
	leaq	.LC35(%rip), %rax
	movq	%rax, 16(%rsp)
	leaq	.LC36(%rip), %rax
	movq	%rax, 24(%rsp)
	leaq	.LC37(%rip), %rax
	movq	%rcx, 48(%rsp)
	leaq	.LC40(%rip), %rcx
	movq	%rax, 32(%rsp)
	leaq	.LC38(%rip), %rax
	movq	%rcx, 64(%rsp)
	leaq	.LC41(%rip), %rcx
	movq	%rax, 40(%rsp)
	movq	%rax, 56(%rsp)
	movq	%rax, 72(%rsp)
	movq	%rcx, 80(%rsp)
	movq	%rax, 88(%rsp)
	movq	$0, 96(%rsp)
	movq	$0, 104(%rsp)
	.loc 3 646 3 is_stmt 1 view .LVU902
.LVL304:
	.loc 3 647 3 view .LVU903
	.loc 3 649 3 view .LVU904
	.loc 3 649 9 view .LVU905
	.p2align 4,,10
	.p2align 3
.L327:
	.loc 3 650 5 view .LVU906
	.loc 3 649 18 is_stmt 0 view .LVU907
	movq	16(%rdx), %rax
	.loc 3 650 13 view .LVU908
	addq	$16, %rdx
.LVL305:
	.loc 3 649 9 is_stmt 1 view .LVU909
	testq	%rax, %rax
	je	.L308
	.loc 3 649 33 is_stmt 0 view .LVU910
	movzbl	(%rax), %ecx
	cmpl	%ecx, %edi
	jne	.L327
	movzbl	1(%rax), %ecx
	cmpl	%ecx, %esi
	jne	.L327
	.loc 3 649 28 view .LVU911
	cmpb	$0, 2(%rax)
	jne	.L327
.L308:
	.loc 3 652 3 is_stmt 1 view .LVU912
	.loc 3 652 15 is_stmt 0 view .LVU913
	movq	8(%rdx), %r12
	.loc 3 655 11 view .LVU914
	leaq	.LC42(%rip), %rsi
	movl	$5, %edx
.LVL306:
	.loc 3 655 11 view .LVU915
	xorl	%edi, %edi
	.loc 3 652 6 view .LVU916
	testq	%r12, %r12
	je	.L311
	.loc 3 653 5 is_stmt 1 view .LVU917
.LVL307:
	.loc 3 655 3 view .LVU918
	.loc 3 655 11 is_stmt 0 view .LVU919
	call	dcgettext@PLT
.LVL308:
.LBB374:
.LBB375:
	.loc 7 107 10 view .LVU920
	leaq	.LC43(%rip), %rcx
	leaq	.LC44(%rip), %rdx
	movl	$1, %edi
.LBE375:
.LBE374:
	.loc 3 655 11 view .LVU921
	movq	%rax, %rsi
.LVL309:
.LBB379:
.LBI374:
	.loc 7 105 1 is_stmt 1 view .LVU922
.LBB376:
	.loc 7 107 3 view .LVU923
	.loc 7 107 10 is_stmt 0 view .LVU924
	xorl	%eax, %eax
.LVL310:
	.loc 7 107 10 view .LVU925
	leaq	.LC15(%rip), %r13
	call	__printf_chk@PLT
.LVL311:
	.loc 7 107 10 view .LVU926
.LBE376:
.LBE379:
	.loc 3 659 3 is_stmt 1 view .LVU927
	.loc 3 659 29 is_stmt 0 view .LVU928
	movl	$5, %edi
	xorl	%esi, %esi
	call	setlocale@PLT
.LVL312:
	movq	%rax, %rdi
.LVL313:
	.loc 3 660 3 is_stmt 1 view .LVU929
	.loc 3 660 6 is_stmt 0 view .LVU930
	testq	%rax, %rax
	je	.L312
	.loc 3 660 22 view .LVU931
	movl	$3, %edx
	leaq	.LC45(%rip), %rsi
	call	strncmp@PLT
.LVL314:
	.loc 3 660 19 view .LVU932
	testl	%eax, %eax
	jne	.L315
.LVL315:
.L312:
	.loc 3 669 3 is_stmt 1 view .LVU933
	.loc 3 669 11 is_stmt 0 view .LVU934
	xorl	%edi, %edi
	movl	$5, %edx
	leaq	.LC47(%rip), %rsi
	call	dcgettext@PLT
.LVL316:
.LBB380:
.LBB381:
	.loc 7 107 10 view .LVU935
	leaq	.LC15(%rip), %rcx
	movl	$1, %edi
	leaq	.LC43(%rip), %rdx
.LBE381:
.LBE380:
	.loc 3 669 11 view .LVU936
	movq	%rax, %rsi
.LVL317:
.LBB386:
.LBI380:
	.loc 7 105 1 is_stmt 1 view .LVU937
.LBB382:
	.loc 7 107 3 view .LVU938
	.loc 7 107 10 is_stmt 0 view .LVU939
	xorl	%eax, %eax
.LVL318:
	.loc 7 107 10 view .LVU940
	call	__printf_chk@PLT
.LVL319:
	.loc 7 107 10 view .LVU941
.LBE382:
.LBE386:
	.loc 3 671 3 is_stmt 1 view .LVU942
	cmpq	%r13, %r12
	leaq	.LC17(%rip), %rcx
	leaq	.LC16(%rip), %r13
	cmovne	%rcx, %r13
.L313:
	.loc 3 671 11 is_stmt 0 view .LVU943
	xorl	%edi, %edi
	leaq	.LC48(%rip), %rsi
	movl	$5, %edx
	call	dcgettext@PLT
.LVL320:
.LBB387:
.LBB388:
	.loc 7 107 10 view .LVU944
	movq	%r13, %rcx
	movq	%r12, %rdx
	movl	$1, %edi
.LBE388:
.LBE387:
	.loc 3 671 11 view .LVU945
	movq	%rax, %rsi
.LVL321:
.LBB390:
.LBI387:
	.loc 7 105 1 is_stmt 1 view .LVU946
.LBB389:
	.loc 7 107 3 view .LVU947
	.loc 7 107 10 is_stmt 0 view .LVU948
	xorl	%eax, %eax
.LVL322:
	.loc 7 107 10 view .LVU949
	call	__printf_chk@PLT
.LVL323:
	.loc 7 107 10 view .LVU950
.LBE389:
.LBE390:
	.loc 3 673 1 view .LVU951
	jmp	.L307
.LVL324:
.L311:
	.loc 3 655 3 is_stmt 1 view .LVU952
	.loc 3 655 11 is_stmt 0 view .LVU953
	call	dcgettext@PLT
.LVL325:
.LBB391:
.LBB377:
	.loc 7 107 10 view .LVU954
	leaq	.LC43(%rip), %rcx
	movl	$1, %edi
	leaq	.LC44(%rip), %rdx
.LBE377:
.LBE391:
	.loc 3 655 11 view .LVU955
	movq	%rax, %rsi
.LVL326:
.LBB392:
	.loc 7 105 1 is_stmt 1 view .LVU956
.LBB378:
	.loc 7 107 3 view .LVU957
	.loc 7 107 10 is_stmt 0 view .LVU958
	xorl	%eax, %eax
.LVL327:
	.loc 7 107 10 view .LVU959
	call	__printf_chk@PLT
.LVL328:
	.loc 7 107 10 view .LVU960
.LBE378:
.LBE392:
	.loc 3 659 3 is_stmt 1 view .LVU961
	.loc 3 659 29 is_stmt 0 view .LVU962
	movl	$5, %edi
	xorl	%esi, %esi
	call	setlocale@PLT
.LVL329:
	movq	%rax, %rdi
.LVL330:
	.loc 3 660 3 is_stmt 1 view .LVU963
	.loc 3 660 6 is_stmt 0 view .LVU964
	testq	%rax, %rax
	je	.L314
	.loc 3 660 22 view .LVU965
	movl	$3, %edx
	leaq	.LC45(%rip), %rsi
	call	strncmp@PLT
.LVL331:
	.loc 3 660 19 view .LVU966
	testl	%eax, %eax
	jne	.L333
.L314:
	.loc 3 669 3 is_stmt 1 view .LVU967
	.loc 3 669 11 is_stmt 0 view .LVU968
	movl	$5, %edx
	leaq	.LC47(%rip), %rsi
	xorl	%edi, %edi
	call	dcgettext@PLT
.LVL332:
.LBB393:
.LBB383:
	.loc 7 107 10 view .LVU969
	leaq	.LC15(%rip), %rcx
	leaq	.LC43(%rip), %rdx
	movl	$1, %edi
.LBE383:
.LBE393:
	.loc 3 669 11 view .LVU970
	movq	%rax, %rsi
.LVL333:
.LBB394:
	.loc 7 105 1 is_stmt 1 view .LVU971
.LBB384:
	.loc 7 107 3 view .LVU972
	.loc 7 107 10 is_stmt 0 view .LVU973
	xorl	%eax, %eax
.LVL334:
	.loc 7 107 10 view .LVU974
.LBE384:
.LBE394:
	.loc 3 646 15 view .LVU975
	leaq	.LC15(%rip), %r12
.LBB395:
.LBB385:
	.loc 7 107 10 view .LVU976
	call	__printf_chk@PLT
.LVL335:
	.loc 7 107 10 view .LVU977
.LBE385:
.LBE395:
	.loc 3 671 3 is_stmt 1 view .LVU978
	leaq	.LC16(%rip), %r13
	jmp	.L313
.L333:
	.loc 3 646 15 is_stmt 0 view .LVU979
	leaq	.LC15(%rip), %r13
	movq	%r13, %r12
.LVL336:
.L315:
	.loc 3 666 7 is_stmt 1 view .LVU980
	movq	stdout(%rip), %r14
	xorl	%edi, %edi
	movl	$5, %edx
	leaq	.LC46(%rip), %rsi
	call	dcgettext@PLT
.LVL337:
	movq	%rax, %rdi
	movq	%r14, %rsi
	call	fputs_unlocked@PLT
.LVL338:
	jmp	.L312
.LBE373:
.LBE372:
	.cfi_endproc
.LFE207:
	.size	usage, .-usage
	.section	.rodata.str1.8
	.align 8
.LC49:
	.string	"option --output: field %s used more than once"
	.section	.rodata.str1.1
.LC50:
	.string	"Size"
.LC51:
	.string	"Avail"
	.section	.rodata.str1.8
	.align 8
.LC52:
	.string	"option --output: field %s unknown"
	.text
	.p2align 4
	.type	decode_output_arg, @function
decode_output_arg:
.LVL339:
.LFB182:
	.loc 1 418 1 view -0
	.cfi_startproc
	.loc 1 419 3 view .LVU982
	.loc 1 418 1 is_stmt 0 view .LVU983
	pushq	%r15
	.cfi_def_cfa_offset 16
	.cfi_offset 15, -16
	pushq	%r14
	.cfi_def_cfa_offset 24
	.cfi_offset 14, -24
.LBB396:
	.loc 1 446 28 view .LVU984
	leaq	field_data(%rip), %r14
.LBE396:
	.loc 1 418 1 view .LVU985
	pushq	%r13
	.cfi_def_cfa_offset 32
	.cfi_offset 13, -32
	pushq	%r12
	.cfi_def_cfa_offset 40
	.cfi_offset 12, -40
	pushq	%rbp
	.cfi_def_cfa_offset 48
	.cfi_offset 6, -48
	pushq	%rbx
	.cfi_def_cfa_offset 56
	.cfi_offset 3, -56
	subq	$24, %rsp
	.cfi_def_cfa_offset 80
	.loc 1 419 24 view .LVU986
	call	xstrdup@PLT
.LVL340:
	.loc 1 419 24 view .LVU987
	movq	%rax, 8(%rsp)
.LVL341:
	.loc 1 420 3 is_stmt 1 view .LVU988
	.loc 1 420 9 is_stmt 0 view .LVU989
	movq	%rax, %r15
.LVL342:
	.p2align 4,,10
	.p2align 3
.L342:
	.loc 1 421 3 is_stmt 1 view .LVU990
.LBB398:
	.loc 1 424 7 view .LVU991
	.loc 1 424 21 is_stmt 0 view .LVU992
	movl	$44, %esi
	movq	%r15, %rdi
	xorl	%r13d, %r13d
	call	strchr@PLT
.LVL343:
	.loc 1 427 7 is_stmt 1 view .LVU993
	.loc 1 427 10 is_stmt 0 view .LVU994
	testq	%rax, %rax
	je	.L335
	.loc 1 428 9 is_stmt 1 view .LVU995
	.loc 1 428 18 is_stmt 0 view .LVU996
	movb	$0, (%rax)
	.loc 1 428 15 view .LVU997
	leaq	1(%rax), %r13
.LVL344:
.L335:
	.loc 1 431 7 is_stmt 1 view .LVU998
	.loc 1 432 7 view .LVU999
.LBB397:
	.loc 1 432 12 view .LVU1000
	.loc 1 432 32 view .LVU1001
	leaq	8+field_data(%rip), %rbx
	.loc 1 432 25 is_stmt 0 view .LVU1002
	xorl	%ebp, %ebp
.LVL345:
	.p2align 4,,10
	.p2align 3
.L337:
	.loc 1 434 11 is_stmt 1 view .LVU1003
	.loc 1 434 15 is_stmt 0 view .LVU1004
	movq	(%rbx), %r12
	movq	%r15, %rsi
	movq	%r12, %rdi
	call	strcmp@PLT
.LVL346:
	.loc 1 434 14 view .LVU1005
	testl	%eax, %eax
	je	.L336
	.loc 1 432 68 is_stmt 1 discriminator 2 view .LVU1006
	.loc 1 432 69 is_stmt 0 discriminator 2 view .LVU1007
	addl	$1, %ebp
.LVL347:
	.loc 1 432 32 is_stmt 1 discriminator 2 view .LVU1008
	addq	$48, %rbx
	.loc 1 432 7 is_stmt 0 discriminator 2 view .LVU1009
	cmpl	$12, %ebp
	jne	.L337
	.loc 1 432 7 discriminator 2 view .LVU1010
.LBE397:
	.loc 1 440 7 is_stmt 1 view .LVU1011
	.loc 1 442 11 view .LVU1012
	movq	%r15, %rdi
	call	quote@PLT
.LVL348:
	.loc 1 442 24 is_stmt 0 view .LVU1013
	movl	$5, %edx
	leaq	.LC52(%rip), %rsi
	.loc 1 442 11 view .LVU1014
	movq	%rax, %r12
.LVL349:
.L352:
	.loc 1 442 24 view .LVU1015
	xorl	%edi, %edi
	call	dcgettext@PLT
.LVL350:
	.loc 1 442 11 view .LVU1016
	xorl	%edi, %edi
	movq	%r12, %rcx
	xorl	%esi, %esi
	.loc 1 442 24 view .LVU1017
	movq	%rax, %rdx
	.loc 1 442 11 view .LVU1018
	xorl	%eax, %eax
	call	error@PLT
.LVL351:
	.loc 1 443 11 is_stmt 1 view .LVU1019
	movl	$1, %edi
	call	usage
.LVL352:
	.p2align 4,,10
	.p2align 3
.L336:
	.loc 1 440 7 view .LVU1020
	.loc 1 446 7 view .LVU1021
	.loc 1 446 28 is_stmt 0 view .LVU1022
	movl	%ebp, %eax
	leaq	(%rax,%rax,2), %rax
	salq	$4, %rax
	.loc 1 446 10 view .LVU1023
	cmpb	$0, 44(%r14,%rax)
	jne	.L353
	.loc 1 454 7 is_stmt 1 view .LVU1024
	cmpl	$2, %ebp
	je	.L339
	cmpl	$4, %ebp
	je	.L340
	.loc 1 466 11 view .LVU1025
	xorl	%esi, %esi
	movl	%ebp, %edi
	call	alloc_field
.LVL353:
	.loc 1 467 11 view .LVU1026
.L341:
	.loc 1 480 7 view .LVU1027
	.loc 1 480 7 is_stmt 0 view .LVU1028
.LBE398:
	.loc 1 482 9 is_stmt 1 view .LVU1029
	.loc 1 482 3 is_stmt 0 view .LVU1030
	testq	%r13, %r13
	je	.L354
.L346:
	.loc 1 482 3 view .LVU1031
	movq	%r13, %r15
	jmp	.L342
.LVL354:
	.p2align 4,,10
	.p2align 3
.L339:
.LBB399:
	.loc 1 470 11 is_stmt 1 view .LVU1032
	leaq	.LC50(%rip), %rsi
	movl	$2, %edi
	call	alloc_field
.LVL355:
	.loc 1 471 11 view .LVU1033
	.loc 1 480 7 view .LVU1034
	.loc 1 480 7 is_stmt 0 view .LVU1035
.LBE399:
	.loc 1 482 9 is_stmt 1 view .LVU1036
	.loc 1 482 3 is_stmt 0 view .LVU1037
	testq	%r13, %r13
	jne	.L346
.L354:
	.loc 1 484 3 is_stmt 1 view .LVU1038
	movq	8(%rsp), %rdi
	.loc 1 485 1 is_stmt 0 view .LVU1039
	addq	$24, %rsp
	.cfi_remember_state
	.cfi_def_cfa_offset 56
	popq	%rbx
	.cfi_def_cfa_offset 48
	popq	%rbp
	.cfi_def_cfa_offset 40
.LVL356:
	.loc 1 485 1 view .LVU1040
	popq	%r12
	.cfi_def_cfa_offset 32
	popq	%r13
	.cfi_def_cfa_offset 24
.LVL357:
	.loc 1 485 1 view .LVU1041
	popq	%r14
	.cfi_def_cfa_offset 16
	popq	%r15
	.cfi_def_cfa_offset 8
	.loc 1 484 3 view .LVU1042
	jmp	free@PLT
.LVL358:
	.p2align 4,,10
	.p2align 3
.L340:
	.cfi_restore_state
.LBB400:
	.loc 1 474 11 is_stmt 1 view .LVU1043
	leaq	.LC51(%rip), %rsi
	movl	$4, %edi
	call	alloc_field
.LVL359:
	.loc 1 475 11 view .LVU1044
	jmp	.L341
.L353:
	.loc 1 449 11 view .LVU1045
	movq	%r12, %rdi
	call	quote@PLT
.LVL360:
	.loc 1 449 24 is_stmt 0 view .LVU1046
	movl	$5, %edx
	leaq	.LC49(%rip), %rsi
	.loc 1 449 11 view .LVU1047
	movq	%rax, %r12
	jmp	.L352
.LBE400:
	.cfi_endproc
.LFE182:
	.size	decode_output_arg, .-decode_output_arg
	.section	.rodata.str1.1
.LC53:
	.string	"total"
.LC54:
	.string	"/usr/local/share/locale"
	.section	.rodata.str1.8
	.align 8
.LC55:
	.string	"options %s and %s are mutually exclusive"
	.section	.rodata.str1.1
.LC56:
	.string	"aB:iF:hHklmPTt:vx:"
.LC57:
	.string	"--output"
.LC58:
	.string	"-i"
.LC59:
	.string	"-T"
.LC60:
	.string	"-P"
.LC61:
	.string	"David MacKenzie"
.LC62:
	.string	"Torbjorn Granlund"
.LC63:
	.string	"Paul Eggert"
.LC64:
	.string	"POSIXLY_CORRECT"
.LC65:
	.string	"DF_BLOCK_SIZE"
	.section	.rodata.str1.8
	.align 8
.LC66:
	.string	"file system type %s both selected and excluded"
	.section	.rodata.str1.1
.LC67:
	.string	"Warning: "
	.section	.rodata.str1.8
	.align 8
.LC68:
	.string	"cannot read table of mounted file systems"
	.section	.rodata.str1.1
.LC69:
	.string	"%s%s"
.LC70:
	.string	"Capacity"
	.section	.rodata.str1.8
	.align 8
.LC71:
	.string	"source,fstype,itotal,iused,iavail,ipcent,size,used,avail,pcent,file,target"
	.section	.rodata.str1.1
.LC72:
	.string	"!\"invalid header_mode\""
	.section	.rodata.str1.8
	.align 8
.LC73:
	.string	"cannot access %s: over-mounted by another device"
	.section	.rodata.str1.1
.LC74:
	.string	"lofs"
.LC75:
	.string	"no file systems processed"
	.section	.text.startup,"ax",@progbits
	.p2align 4
	.globl	main
	.type	main, @function
main:
.LVL361:
.LFB208:
	.loc 1 1568 1 is_stmt 1 view -0
	.cfi_startproc
	.loc 1 1568 1 is_stmt 0 view .LVU1049
	endbr64
	pushq	%r15
	.cfi_def_cfa_offset 16
	.cfi_offset 15, -16
	pushq	%r14
	.cfi_def_cfa_offset 24
	.cfi_offset 14, -24
	pushq	%r13
	.cfi_def_cfa_offset 32
	.cfi_offset 13, -32
	leaq	.L362(%rip), %r13
	pushq	%r12
	.cfi_def_cfa_offset 40
	.cfi_offset 12, -40
	pushq	%rbp
	.cfi_def_cfa_offset 48
	.cfi_offset 6, -48
	.loc 1 1591 8 view .LVU1050
	xorl	%ebp, %ebp
	.loc 1 1568 1 view .LVU1051
	pushq	%rbx
	.cfi_def_cfa_offset 56
	.cfi_offset 3, -56
	movl	%edi, %ebx
	subq	$312, %rsp
	.cfi_def_cfa_offset 368
	.loc 1 1572 3 view .LVU1052
	movq	(%rsi), %rdi
.LVL362:
	.loc 1 1568 1 view .LVU1053
	movq	%rsi, (%rsp)
	leaq	112(%rsp), %r15
	movq	%fs:40, %rcx
	movq	%rcx, 296(%rsp)
	xorl	%ecx, %ecx
	.loc 1 1569 3 is_stmt 1 view .LVU1054
.LVL363:
	.loc 1 1571 33 view .LVU1055
	.loc 1 1572 3 view .LVU1056
	call	set_program_name@PLT
.LVL364:
	.loc 1 1573 3 view .LVU1057
	leaq	.LC17(%rip), %rsi
	movl	$6, %edi
	call	setlocale@PLT
.LVL365:
	.loc 1 1574 3 view .LVU1058
	leaq	.LC54(%rip), %rsi
	leaq	.LC35(%rip), %rdi
	call	bindtextdomain@PLT
.LVL366:
	.loc 1 1575 3 view .LVU1059
	leaq	.LC35(%rip), %rdi
	call	textdomain@PLT
.LVL367:
	.loc 1 1577 3 view .LVU1060
	movq	close_stdout@GOTPCREL(%rip), %rdi
	call	atexit@PLT
.LVL368:
	.loc 1 1579 3 view .LVU1061
	.loc 1 1593 30 is_stmt 0 view .LVU1062
	movl	$5, %edx
	xorl	%edi, %edi
	leaq	.LC55(%rip), %rsi
	.loc 1 1579 18 view .LVU1063
	movq	$0, fs_select_list(%rip)
	.loc 1 1580 3 is_stmt 1 view .LVU1064
	.loc 1 1580 19 is_stmt 0 view .LVU1065
	movq	$0, fs_exclude_list(%rip)
	.loc 1 1581 3 is_stmt 1 view .LVU1066
	.loc 1 1581 15 is_stmt 0 view .LVU1067
	movb	$0, show_all_fs(%rip)
	.loc 1 1582 3 is_stmt 1 view .LVU1068
	.loc 1 1582 18 is_stmt 0 view .LVU1069
	movb	$0, show_listed_fs(%rip)
	.loc 1 1583 3 is_stmt 1 view .LVU1070
	.loc 1 1583 21 is_stmt 0 view .LVU1071
	movl	$-1, human_output_opts(%rip)
	.loc 1 1584 3 is_stmt 1 view .LVU1072
	.loc 1 1584 14 is_stmt 0 view .LVU1073
	movb	$0, print_type(%rip)
	.loc 1 1585 3 is_stmt 1 view .LVU1074
	.loc 1 1585 26 is_stmt 0 view .LVU1075
	movb	$0, file_systems_processed(%rip)
	.loc 1 1586 3 is_stmt 1 view .LVU1076
	.loc 1 1586 15 is_stmt 0 view .LVU1077
	movl	$0, exit_status(%rip)
	.loc 1 1587 3 is_stmt 1 view .LVU1078
	.loc 1 1587 21 is_stmt 0 view .LVU1079
	movb	$0, print_grand_total(%rip)
	.loc 1 1588 3 is_stmt 1 view .LVU1080
	.loc 1 1588 27 is_stmt 0 view .LVU1081
	movq	$1, grand_fsu(%rip)
	.loc 1 1591 3 is_stmt 1 view .LVU1082
.LVL369:
	.loc 1 1593 3 view .LVU1083
	.loc 1 1593 30 is_stmt 0 view .LVU1084
	call	dcgettext@PLT
.LVL370:
	movq	%rax, %r12
.LVL371:
.L384:
	.loc 1 1595 3 is_stmt 1 view .LVU1085
.LBB465:
	.loc 1 1597 7 view .LVU1086
	.loc 1 1598 15 is_stmt 0 view .LVU1087
	movq	(%rsp), %rsi
	movq	%r15, %r8
	leaq	long_options(%rip), %rcx
	movl	%ebx, %edi
	leaq	.LC56(%rip), %rdx
	.loc 1 1597 11 view .LVU1088
	movl	$-1, 112(%rsp)
	.loc 1 1598 7 is_stmt 1 view .LVU1089
	.loc 1 1598 15 is_stmt 0 view .LVU1090
	call	getopt_long@PLT
.LVL372:
	.loc 1 1600 7 is_stmt 1 view .LVU1091
	.loc 1 1600 10 is_stmt 0 view .LVU1092
	cmpl	$-1, %eax
	je	.L356
	.loc 1 1603 7 is_stmt 1 view .LVU1093
	cmpl	$131, %eax
	jg	.L668
	cmpl	$65, %eax
	jle	.L670
	subl	$66, %eax
.LVL373:
	.loc 1 1603 7 is_stmt 0 view .LVU1094
	cmpl	$65, %eax
	ja	.L668
	movslq	0(%r13,%rax,4), %rax
	addq	%r13, %rax
	notrack jmp	*%rax
	.section	.rodata
	.align 4
	.align 4
.L362:
	.long	.L378-.L362
	.long	.L668-.L362
	.long	.L668-.L362
	.long	.L668-.L362
	.long	.L368-.L362
	.long	.L668-.L362
	.long	.L377-.L362
	.long	.L668-.L362
	.long	.L668-.L362
	.long	.L668-.L362
	.long	.L668-.L362
	.long	.L668-.L362
	.long	.L668-.L362
	.long	.L668-.L362
	.long	.L376-.L362
	.long	.L668-.L362
	.long	.L668-.L362
	.long	.L668-.L362
	.long	.L375-.L362
	.long	.L668-.L362
	.long	.L668-.L362
	.long	.L668-.L362
	.long	.L668-.L362
	.long	.L668-.L362
	.long	.L668-.L362
	.long	.L668-.L362
	.long	.L668-.L362
	.long	.L668-.L362
	.long	.L668-.L362
	.long	.L668-.L362
	.long	.L668-.L362
	.long	.L374-.L362
	.long	.L668-.L362
	.long	.L668-.L362
	.long	.L668-.L362
	.long	.L668-.L362
	.long	.L668-.L362
	.long	.L668-.L362
	.long	.L373-.L362
	.long	.L372-.L362
	.long	.L668-.L362
	.long	.L371-.L362
	.long	.L370-.L362
	.long	.L369-.L362
	.long	.L668-.L362
	.long	.L668-.L362
	.long	.L668-.L362
	.long	.L668-.L362
	.long	.L668-.L362
	.long	.L668-.L362
	.long	.L368-.L362
	.long	.L668-.L362
	.long	.L384-.L362
	.long	.L668-.L362
	.long	.L366-.L362
	.long	.L668-.L362
	.long	.L668-.L362
	.long	.L668-.L362
	.long	.L668-.L362
	.long	.L668-.L362
	.long	.L668-.L362
	.long	.L668-.L362
	.long	.L365-.L362
	.long	.L364-.L362
	.long	.L363-.L362
	.long	.L361-.L362
	.section	.text.startup
.L361:
	.loc 1 1680 11 is_stmt 1 view .LVU1095
	.loc 1 1680 27 is_stmt 0 view .LVU1096
	movl	header_mode(%rip), %eax
	.loc 1 1680 14 view .LVU1097
	cmpl	$1, %eax
	je	.L669
	.loc 1 1685 11 is_stmt 1 discriminator 1 view .LVU1098
	.loc 1 1685 28 is_stmt 0 discriminator 1 view .LVU1099
	testl	%eax, %eax
	jne	.L382
	testb	%bpl, %bpl
	jne	.L671
.L382:
	.loc 1 1690 11 is_stmt 1 view .LVU1100
	.loc 1 1690 14 is_stmt 0 view .LVU1101
	cmpb	$0, print_type(%rip)
	jne	.L667
	.loc 1 1695 11 is_stmt 1 view .LVU1102
	.loc 1 1696 15 is_stmt 0 view .LVU1103
	movq	optarg(%rip), %rdi
	.loc 1 1695 23 view .LVU1104
	movl	$4, header_mode(%rip)
	.loc 1 1696 11 is_stmt 1 view .LVU1105
	.loc 1 1696 14 is_stmt 0 view .LVU1106
	testq	%rdi, %rdi
	je	.L384
	.loc 1 1697 13 is_stmt 1 view .LVU1107
	call	decode_output_arg
.LVL374:
	jmp	.L384
.L363:
	.loc 1 1701 11 view .LVU1108
	.loc 1 1701 29 is_stmt 0 view .LVU1109
	movb	$1, print_grand_total(%rip)
	.loc 1 1702 11 is_stmt 1 view .LVU1110
	jmp	.L384
.L373:
	.loc 1 1625 11 view .LVU1111
	.loc 1 1625 29 is_stmt 0 view .LVU1112
	movl	$176, human_output_opts(%rip)
	.loc 1 1626 11 is_stmt 1 view .LVU1113
	.loc 1 1626 29 is_stmt 0 view .LVU1114
	movq	$1, output_block_size(%rip)
	.loc 1 1627 11 is_stmt 1 view .LVU1115
	jmp	.L384
.L374:
	.loc 1 1606 11 view .LVU1116
	.loc 1 1606 23 is_stmt 0 view .LVU1117
	movb	$1, show_all_fs(%rip)
	.loc 1 1607 11 is_stmt 1 view .LVU1118
	jmp	.L384
.L375:
	.loc 1 1644 11 view .LVU1119
	.loc 1 1644 14 is_stmt 0 view .LVU1120
	cmpl	$4, header_mode(%rip)
	je	.L667
	.loc 1 1649 11 is_stmt 1 view .LVU1121
	.loc 1 1649 22 is_stmt 0 view .LVU1122
	movb	$1, print_type(%rip)
	.loc 1 1650 11 is_stmt 1 view .LVU1123
	jmp	.L384
.L376:
	.loc 1 1652 11 view .LVU1124
	.loc 1 1652 14 is_stmt 0 view .LVU1125
	cmpl	$4, header_mode(%rip)
	je	.L672
	.loc 1 1657 24 view .LVU1126
	movl	$1, %ebp
.LVL375:
	.loc 1 1657 24 view .LVU1127
.LBE465:
	.loc 1 1595 9 is_stmt 1 view .LVU1128
	.loc 1 1596 5 is_stmt 0 view .LVU1129
	jmp	.L384
.L377:
.LBB475:
	.loc 1 1629 11 is_stmt 1 view .LVU1130
	.loc 1 1629 29 is_stmt 0 view .LVU1131
	movl	$144, human_output_opts(%rip)
	.loc 1 1630 11 is_stmt 1 view .LVU1132
	.loc 1 1630 29 is_stmt 0 view .LVU1133
	movq	$1, output_block_size(%rip)
	.loc 1 1631 11 is_stmt 1 view .LVU1134
	jmp	.L384
.L368:
	.loc 1 1669 11 view .LVU1135
.LBB466:
.LBB467:
	.loc 1 1485 9 is_stmt 0 view .LVU1136
	movl	$16, %edi
.LBE467:
.LBE466:
	.loc 1 1669 11 view .LVU1137
	movq	optarg(%rip), %r14
.LVL376:
.LBB469:
.LBI466:
	.loc 1 1481 1 is_stmt 1 view .LVU1138
.LBB468:
	.loc 1 1483 3 view .LVU1139
	.loc 1 1485 3 view .LVU1140
	.loc 1 1485 9 is_stmt 0 view .LVU1141
	call	xmalloc@PLT
.LVL377:
	.loc 1 1486 3 is_stmt 1 view .LVU1142
	.loc 1 1487 16 is_stmt 0 view .LVU1143
	movq	fs_select_list(%rip), %rdx
	.loc 1 1486 16 view .LVU1144
	movq	%r14, (%rax)
	.loc 1 1487 3 is_stmt 1 view .LVU1145
	.loc 1 1487 16 is_stmt 0 view .LVU1146
	movq	%rdx, 8(%rax)
	.loc 1 1488 3 is_stmt 1 view .LVU1147
	.loc 1 1488 18 is_stmt 0 view .LVU1148
	movq	%rax, fs_select_list(%rip)
	.loc 1 1489 1 view .LVU1149
	jmp	.L384
.LVL378:
.L378:
	.loc 1 1489 1 view .LVU1150
.LBE468:
.LBE469:
.LBB470:
	.loc 1 1610 13 is_stmt 1 view .LVU1151
	.loc 1 1610 35 is_stmt 0 view .LVU1152
	movq	optarg(%rip), %rdi
	leaq	output_block_size(%rip), %rdx
	leaq	human_output_opts(%rip), %rsi
	call	human_options@PLT
.LVL379:
	.loc 1 1612 13 is_stmt 1 view .LVU1153
	.loc 1 1612 16 is_stmt 0 view .LVU1154
	testl	%eax, %eax
	je	.L384
	.loc 1 1613 15 is_stmt 1 view .LVU1155
	movq	optarg(%rip), %r8
	movl	112(%rsp), %esi
	movl	$66, %edx
	movl	%eax, %edi
	leaq	long_options(%rip), %rcx
	call	xstrtol_fatal@PLT
.LVL380:
.L369:
	.loc 1 1613 15 is_stmt 0 view .LVU1156
.LBE470:
	.loc 1 1640 11 is_stmt 1 view .LVU1157
	.loc 1 1640 29 is_stmt 0 view .LVU1158
	movl	$0, human_output_opts(%rip)
	.loc 1 1641 11 is_stmt 1 view .LVU1159
	.loc 1 1641 29 is_stmt 0 view .LVU1160
	movq	$1048576, output_block_size(%rip)
	.loc 1 1642 11 is_stmt 1 view .LVU1161
	jmp	.L384
.L370:
	.loc 1 1637 11 view .LVU1162
	.loc 1 1637 25 is_stmt 0 view .LVU1163
	movb	$1, show_local_fs(%rip)
	.loc 1 1638 11 is_stmt 1 view .LVU1164
	jmp	.L384
.L371:
	.loc 1 1633 11 view .LVU1165
	.loc 1 1633 29 is_stmt 0 view .LVU1166
	movl	$0, human_output_opts(%rip)
	.loc 1 1634 11 is_stmt 1 view .LVU1167
	.loc 1 1634 29 is_stmt 0 view .LVU1168
	movq	$1024, output_block_size(%rip)
	.loc 1 1635 11 is_stmt 1 view .LVU1169
	jmp	.L384
.L372:
	.loc 1 1617 11 view .LVU1170
	.loc 1 1617 14 is_stmt 0 view .LVU1171
	cmpl	$4, header_mode(%rip)
	je	.L669
	.loc 1 1622 11 is_stmt 1 view .LVU1172
	.loc 1 1622 23 is_stmt 0 view .LVU1173
	movl	$1, header_mode(%rip)
	.loc 1 1623 11 is_stmt 1 view .LVU1174
	jmp	.L384
.L365:
	.loc 1 1663 11 view .LVU1175
	.loc 1 1663 24 is_stmt 0 view .LVU1176
	movb	$0, require_sync(%rip)
	.loc 1 1664 11 is_stmt 1 view .LVU1177
	jmp	.L384
.L366:
	.loc 1 1676 11 view .LVU1178
.LBB471:
.LBB472:
	.loc 1 1498 9 is_stmt 0 view .LVU1179
	movl	$16, %edi
.LBE472:
.LBE471:
	.loc 1 1676 11 view .LVU1180
	movq	optarg(%rip), %r14
.LVL381:
.LBB474:
.LBI471:
	.loc 1 1494 1 is_stmt 1 view .LVU1181
.LBB473:
	.loc 1 1496 3 view .LVU1182
	.loc 1 1498 3 view .LVU1183
	.loc 1 1498 9 is_stmt 0 view .LVU1184
	call	xmalloc@PLT
.LVL382:
	.loc 1 1499 3 is_stmt 1 view .LVU1185
	.loc 1 1500 16 is_stmt 0 view .LVU1186
	movq	fs_exclude_list(%rip), %rdx
	.loc 1 1499 16 view .LVU1187
	movq	%r14, (%rax)
	.loc 1 1500 3 is_stmt 1 view .LVU1188
	.loc 1 1500 16 is_stmt 0 view .LVU1189
	movq	%rdx, 8(%rax)
	.loc 1 1501 3 is_stmt 1 view .LVU1190
	.loc 1 1501 19 is_stmt 0 view .LVU1191
	movq	%rax, fs_exclude_list(%rip)
	.loc 1 1502 1 view .LVU1192
	jmp	.L384
.LVL383:
.L364:
	.loc 1 1502 1 view .LVU1193
.LBE473:
.LBE474:
	.loc 1 1660 11 is_stmt 1 view .LVU1194
	.loc 1 1660 24 is_stmt 0 view .LVU1195
	movb	$1, require_sync(%rip)
	.loc 1 1661 11 is_stmt 1 view .LVU1196
	jmp	.L384
.LVL384:
	.p2align 4,,10
	.p2align 3
.L670:
	.loc 1 1603 7 is_stmt 0 view .LVU1197
	cmpl	$-131, %eax
	jne	.L673
	.loc 1 1704 9 is_stmt 1 view .LVU1198
	.loc 1 1704 30 view .LVU1199
	.loc 1 1705 9 view .LVU1200
	leaq	.LC63(%rip), %rax
.LVL385:
	.loc 1 1705 9 is_stmt 0 view .LVU1201
	pushq	$0
	.cfi_remember_state
	.cfi_def_cfa_offset 376
.LVL386:
	.loc 1 1705 9 view .LVU1202
	movq	stdout(%rip), %rdi
	leaq	.LC61(%rip), %r9
	pushq	%rax
	.cfi_def_cfa_offset 384
	movq	Version(%rip), %rcx
	xorl	%eax, %eax
	leaq	.LC62(%rip), %r8
	leaq	.LC44(%rip), %rdx
	leaq	.LC15(%rip), %rsi
	call	version_etc@PLT
.LVL387:
	.loc 1 1705 9 is_stmt 1 view .LVU1203
	xorl	%edi, %edi
	call	exit@PLT
.LVL388:
.L673:
	.cfi_restore_state
	.loc 1 1603 7 is_stmt 0 view .LVU1204
	cmpl	$-130, %eax
	jne	.L668
	.loc 1 1704 9 is_stmt 1 view .LVU1205
	xorl	%edi, %edi
	call	usage
.LVL389:
.L356:
	.loc 1 1704 9 is_stmt 0 view .LVU1206
.LBE475:
	.loc 1 1712 3 is_stmt 1 view .LVU1207
	.loc 1 1712 6 is_stmt 0 view .LVU1208
	cmpl	$-1, human_output_opts(%rip)
	je	.L674
.LVL390:
.L385:
	.loc 1 1724 3 is_stmt 1 view .LVU1209
	.loc 1 1724 34 is_stmt 0 view .LVU1210
	movl	header_mode(%rip), %eax
	.loc 1 1724 6 view .LVU1211
	cmpl	$1, %eax
	je	.L388
	cmpl	$4, %eax
	je	.L388
	.loc 1 1726 8 is_stmt 1 view .LVU1212
	.loc 1 1726 11 is_stmt 0 view .LVU1213
	testb	$16, human_output_opts(%rip)
	je	.L389
	.loc 1 1727 5 is_stmt 1 view .LVU1214
	.loc 1 1727 17 is_stmt 0 view .LVU1215
	movl	$2, header_mode(%rip)
.L388:
.LBB476:
	.loc 1 1733 5 is_stmt 1 view .LVU1216
.LVL391:
	.loc 1 1734 5 view .LVU1217
	.loc 1 1735 5 view .LVU1218
	.loc 1 1735 18 is_stmt 0 view .LVU1219
	movq	fs_select_list(%rip), %r12
.LVL392:
	.loc 1 1735 36 is_stmt 1 view .LVU1220
	.loc 1 1733 10 is_stmt 0 view .LVU1221
	xorl	%r13d, %r13d
	.loc 1 1735 5 view .LVU1222
	testq	%r12, %r12
	je	.L397
.LVL393:
	.p2align 4,,10
	.p2align 3
.L390:
.LBB477:
	.loc 1 1737 9 is_stmt 1 view .LVU1223
	.loc 1 1738 9 view .LVU1224
	.loc 1 1738 22 is_stmt 0 view .LVU1225
	movq	fs_exclude_list(%rip), %rbp
.LVL394:
	.loc 1 1738 41 is_stmt 1 view .LVU1226
	.loc 1 1738 9 is_stmt 0 view .LVU1227
	testq	%rbp, %rbp
	je	.L393
	.loc 1 1740 17 view .LVU1228
	movq	(%r12), %r14
	jmp	.L395
	.p2align 4,,10
	.p2align 3
.L394:
	.loc 1 1738 50 is_stmt 1 discriminator 2 view .LVU1229
	.loc 1 1738 58 is_stmt 0 discriminator 2 view .LVU1230
	movq	8(%rbp), %rbp
.LVL395:
	.loc 1 1738 41 is_stmt 1 discriminator 2 view .LVU1231
	.loc 1 1738 9 is_stmt 0 discriminator 2 view .LVU1232
	testq	%rbp, %rbp
	je	.L393
.L395:
	.loc 1 1740 13 is_stmt 1 view .LVU1233
	.loc 1 1740 17 is_stmt 0 view .LVU1234
	movq	0(%rbp), %rsi
	movq	%r14, %rdi
	call	strcmp@PLT
.LVL396:
	.loc 1 1740 16 view .LVU1235
	testl	%eax, %eax
	jne	.L394
	.loc 1 1742 17 is_stmt 1 view .LVU1236
	movq	%r14, %rdi
	call	quote@PLT
.LVL397:
	.loc 1 1743 24 is_stmt 0 view .LVU1237
	movl	$5, %edx
	leaq	.LC66(%rip), %rsi
	xorl	%edi, %edi
	.loc 1 1742 17 view .LVU1238
	movq	%rax, %r13
.LVL398:
	.loc 1 1743 24 view .LVU1239
	call	dcgettext@PLT
.LVL399:
	.loc 1 1742 17 view .LVU1240
	movq	%r13, %rcx
	xorl	%esi, %esi
	xorl	%edi, %edi
	.loc 1 1743 24 view .LVU1241
	movq	%rax, %rdx
	.loc 1 1742 17 view .LVU1242
	xorl	%eax, %eax
	.loc 1 1745 23 view .LVU1243
	movl	$1, %r13d
	.loc 1 1742 17 view .LVU1244
	call	error@PLT
.LVL400:
	.loc 1 1745 17 is_stmt 1 view .LVU1245
	.loc 1 1746 17 view .LVU1246
.L393:
	.loc 1 1746 17 is_stmt 0 view .LVU1247
.LBE477:
	.loc 1 1735 45 is_stmt 1 discriminator 2 view .LVU1248
	.loc 1 1735 53 is_stmt 0 discriminator 2 view .LVU1249
	movq	8(%r12), %r12
.LVL401:
	.loc 1 1735 36 is_stmt 1 discriminator 2 view .LVU1250
	.loc 1 1735 5 is_stmt 0 discriminator 2 view .LVU1251
	testq	%r12, %r12
	jne	.L390
	.loc 1 1750 5 is_stmt 1 view .LVU1252
	.loc 1 1750 8 is_stmt 0 view .LVU1253
	testb	%r13b, %r13b
	jne	.L675
.LVL402:
.L397:
	.loc 1 1750 8 view .LVU1254
.LBE476:
	.loc 1 1754 3 is_stmt 1 view .LVU1255
	movl	optind(%rip), %eax
	.loc 1 1756 3 view .LVU1256
	.loc 1 1756 6 is_stmt 0 view .LVU1257
	cmpl	%ebx, %eax
	jl	.L391
	.loc 1 1569 16 view .LVU1258
	movq	$0, 80(%rsp)
.LVL403:
.L392:
	.loc 1 1780 3 is_stmt 1 view .LVU1259
	.loc 1 1785 29 is_stmt 0 view .LVU1260
	cmpq	$0, fs_select_list(%rip)
	movl	$1, %edi
	je	.L676
.L403:
	.loc 1 1781 5 discriminator 5 view .LVU1261
	call	read_file_system_list@PLT
.LVL404:
	.loc 1 1780 14 discriminator 5 view .LVU1262
	movq	%rax, mount_list(%rip)
	.loc 1 1787 3 is_stmt 1 discriminator 5 view .LVU1263
	.loc 1 1787 6 is_stmt 0 discriminator 5 view .LVU1264
	testq	%rax, %rax
	je	.L677
.L404:
	.loc 1 1807 3 is_stmt 1 view .LVU1265
	.loc 1 1807 6 is_stmt 0 view .LVU1266
	cmpb	$0, require_sync(%rip)
	jne	.L678
.L406:
	.loc 1 1810 3 is_stmt 1 view .LVU1267
.LBB478:
.LBI478:
	.loc 1 489 1 view .LVU1268
.LBB479:
	.loc 1 491 3 view .LVU1269
	cmpl	$4, header_mode(%rip)
	ja	.L407
	movl	header_mode(%rip), %eax
	leaq	.L409(%rip), %rdx
	movslq	(%rdx,%rax,4), %rax
	addq	%rdx, %rax
	notrack jmp	*%rax
	.section	.rodata
	.align 4
	.align 4
.L409:
	.long	.L413-.L409
	.long	.L412-.L409
	.long	.L411-.L409
	.long	.L410-.L409
	.long	.L408-.L409
	.section	.text.startup
.LVL405:
.L675:
	.loc 1 491 3 is_stmt 0 view .LVU1270
.LBE479:
.LBE478:
.LBB484:
	.loc 1 1751 14 view .LVU1271
	movl	$1, %eax
.LVL406:
.L355:
	.loc 1 1751 14 view .LVU1272
.LBE484:
	.loc 1 1847 1 view .LVU1273
	movq	296(%rsp), %rcx
	xorq	%fs:40, %rcx
	jne	.L679
	addq	$312, %rsp
	.cfi_remember_state
	.cfi_def_cfa_offset 56
	popq	%rbx
	.cfi_def_cfa_offset 48
	popq	%rbp
	.cfi_def_cfa_offset 40
	popq	%r12
	.cfi_def_cfa_offset 32
	popq	%r13
	.cfi_def_cfa_offset 24
	popq	%r14
	.cfi_def_cfa_offset 16
	popq	%r15
	.cfi_def_cfa_offset 8
	ret
.LVL407:
.L674:
	.cfi_restore_state
	.loc 1 1714 7 is_stmt 1 view .LVU1274
	.loc 1 1714 10 is_stmt 0 view .LVU1275
	testb	%bpl, %bpl
	je	.L386
	.loc 1 1716 11 is_stmt 1 view .LVU1276
	.loc 1 1717 32 is_stmt 0 view .LVU1277
	leaq	.LC64(%rip), %rdi
	.loc 1 1716 29 view .LVU1278
	movl	$0, human_output_opts(%rip)
	.loc 1 1717 11 is_stmt 1 view .LVU1279
	.loc 1 1717 32 is_stmt 0 view .LVU1280
	call	getenv@PLT
.LVL408:
	.loc 1 1717 65 view .LVU1281
	cmpq	$1, %rax
	sbbq	%rax, %rax
	andl	$512, %eax
	addq	$512, %rax
	.loc 1 1717 29 view .LVU1282
	movq	%rax, output_block_size(%rip)
	jmp	.L385
.LVL409:
.L391:
	.loc 1 1761 7 is_stmt 1 view .LVU1283
.LBB485:
.LBI485:
	.loc 4 99 1 view .LVU1284
.LBB486:
	.loc 4 101 3 view .LVU1285
	.loc 4 103 3 view .LVU1286
.LBE486:
.LBE485:
	.loc 1 1761 30 is_stmt 0 view .LVU1287
	movl	%ebx, %edi
	subl	%eax, %edi
	.loc 1 1761 15 view .LVU1288
	movslq	%edi, %rdi
.LVL410:
.LBB488:
.LBB487:
	.loc 4 103 10 view .LVU1289
	imulq	$144, %rdi, %rdi
.LVL411:
	.loc 4 103 10 view .LVU1290
	call	xmalloc@PLT
.LVL412:
	.loc 4 103 10 view .LVU1291
	movq	%rax, 80(%rsp)
.LVL413:
	.loc 4 103 10 view .LVU1292
	movq	%rax, %rcx
.LVL414:
	.loc 4 103 10 view .LVU1293
.LBE487:
.LBE488:
	.loc 1 1762 7 is_stmt 1 view .LVU1294
.LBB489:
	.loc 1 1762 12 view .LVU1295
	.loc 1 1762 16 is_stmt 0 view .LVU1296
	movl	optind(%rip), %eax
.LVL415:
	.loc 1 1762 28 is_stmt 1 view .LVU1297
	.loc 1 1762 7 is_stmt 0 view .LVU1298
	cmpl	%eax, %ebx
	jle	.L392
	movslq	%eax, %r13
	notl	%eax
.LVL416:
	.loc 1 1766 15 view .LVU1299
	movl	%ebx, 16(%rsp)
	leaq	.LC5(%rip), %r12
.LVL417:
	.loc 1 1766 15 view .LVU1300
	leaq	1(%r13), %r14
	leal	(%rax,%rbx), %ebp
	movq	%r15, 24(%rsp)
	movq	%r13, %rbx
.LVL418:
	.loc 1 1766 15 view .LVU1301
	addq	%r14, %rbp
	movq	%r14, %r15
	movq	%rcx, %r13
	movq	%rbp, %r14
	movq	(%rsp), %rbp
	jmp	.L402
.LVL419:
.L398:
	.loc 1 1770 16 is_stmt 1 view .LVU1302
	.loc 1 1770 22 is_stmt 0 view .LVU1303
	movl	%ebx, %eax
	subl	optind(%rip), %eax
	cltq
	imulq	$144, %rax, %rax
	movl	24(%r13,%rax), %eax
	andl	$61440, %eax
	.loc 1 1770 19 view .LVU1304
	cmpl	$4096, %eax
	je	.L399
.LBB490:
	.loc 1 1773 15 is_stmt 1 view .LVU1305
.LVL420:
.LBB491:
.LBI491:
	.file 8 "/usr/include/x86_64-linux-gnu/bits/fcntl2.h"
	.loc 8 41 1 view .LVU1306
.LBB492:
	.loc 8 43 3 view .LVU1307
	.loc 8 46 3 view .LVU1308
	.loc 8 48 7 view .LVU1309
	.loc 8 53 7 view .LVU1310
	.loc 8 53 14 is_stmt 0 view .LVU1311
	movq	0(%rbp,%rbx,8), %rdi
	xorl	%eax, %eax
	movl	$256, %esi
	call	open@PLT
.LVL421:
	.loc 8 53 14 view .LVU1312
.LBE492:
.LBE491:
	.loc 1 1774 15 is_stmt 1 view .LVU1313
	.loc 1 1774 18 is_stmt 0 view .LVU1314
	testl	%eax, %eax
	js	.L399
	.loc 1 1775 17 is_stmt 1 view .LVU1315
	movl	%eax, %edi
	call	close@PLT
.LVL422:
	.p2align 4,,10
	.p2align 3
.L399:
	.loc 1 1775 17 is_stmt 0 view .LVU1316
.LBE490:
	.loc 1 1762 38 is_stmt 1 discriminator 2 view .LVU1317
	.loc 1 1762 28 discriminator 2 view .LVU1318
	.loc 1 1762 28 is_stmt 0 discriminator 2 view .LVU1319
	movq	%r15, %rbx
	.loc 1 1762 7 discriminator 2 view .LVU1320
	cmpq	%r15, %r14
	je	.L661
	addq	$1, %r15
.LVL423:
.L402:
	.loc 1 1764 11 is_stmt 1 view .LVU1321
.LBB493:
.LBI493:
	.loc 6 453 1 view .LVU1322
.LBB494:
	.loc 6 455 3 view .LVU1323
.LBE494:
.LBE493:
	.loc 1 1764 39 is_stmt 0 view .LVU1324
	movl	%ebx, %eax
	subl	optind(%rip), %eax
.LBB497:
.LBB495:
	.loc 6 455 10 view .LVU1325
	movq	0(%rbp,%rbx,8), %rsi
	movl	$1, %edi
.LBE495:
.LBE497:
	.loc 1 1764 39 view .LVU1326
	cltq
	.loc 1 1764 36 view .LVU1327
	leaq	(%rax,%rax,8), %rdx
	salq	$4, %rdx
	.loc 1 1764 15 view .LVU1328
	addq	%r13, %rdx
.LBB498:
.LBB496:
	.loc 6 455 10 view .LVU1329
	call	__xstat@PLT
.LVL424:
	.loc 6 455 10 view .LVU1330
.LBE496:
.LBE498:
	.loc 1 1764 14 view .LVU1331
	testl	%eax, %eax
	je	.L398
	.loc 1 1766 15 is_stmt 1 view .LVU1332
	movq	0(%rbp,%rbx,8), %rdx
	movl	$3, %esi
	xorl	%edi, %edi
	call	quotearg_n_style_colon@PLT
.LVL425:
	movq	%rax, 8(%rsp)
	.loc 1 1766 25 is_stmt 0 view .LVU1333
	call	__errno_location@PLT
.LVL426:
	.loc 1 1766 15 view .LVU1334
	movq	8(%rsp), %rcx
	movq	%r12, %rdx
	xorl	%edi, %edi
	movl	(%rax), %esi
	xorl	%eax, %eax
	call	error@PLT
.LVL427:
	.loc 1 1767 15 is_stmt 1 view .LVU1335
	.loc 1 1767 27 is_stmt 0 view .LVU1336
	movl	$1, exit_status(%rip)
	.loc 1 1768 15 is_stmt 1 view .LVU1337
	.loc 1 1768 23 is_stmt 0 view .LVU1338
	movq	$0, 0(%rbp,%rbx,8)
	jmp	.L399
.LVL428:
.L661:
	.loc 1 1768 23 view .LVU1339
	movl	16(%rsp), %ebx
.LVL429:
	.loc 1 1768 23 view .LVU1340
	movq	24(%rsp), %r15
.LVL430:
	.loc 1 1768 23 view .LVU1341
	jmp	.L392
.LVL431:
.L389:
	.loc 1 1768 23 view .LVU1342
.LBE489:
	.loc 1 1728 8 is_stmt 1 view .LVU1343
	.loc 1 1728 11 is_stmt 0 view .LVU1344
	testb	%bpl, %bpl
	je	.L388
	.loc 1 1729 5 is_stmt 1 view .LVU1345
	.loc 1 1729 17 is_stmt 0 view .LVU1346
	movl	$3, header_mode(%rip)
	jmp	.L388
.LVL432:
.L678:
	.loc 1 1808 5 is_stmt 1 view .LVU1347
	call	sync@PLT
.LVL433:
	jmp	.L406
.L677:
.LBB499:
	.loc 1 1793 7 view .LVU1348
.LVL434:
	.loc 1 1794 7 view .LVU1349
	.loc 1 1794 10 is_stmt 0 view .LVU1350
	cmpl	%ebx, optind(%rip)
	.loc 1 1800 18 view .LVU1351
	movl	$1, %r13d
	.loc 1 1802 59 view .LVU1352
	leaq	.LC17(%rip), %r12
	.loc 1 1794 10 view .LVU1353
	jge	.L405
	.loc 1 1795 12 view .LVU1354
	cmpb	$0, show_all_fs(%rip)
	jne	.L405
	.loc 1 1796 16 view .LVU1355
	cmpb	$0, show_local_fs(%rip)
	jne	.L405
	.loc 1 1797 16 view .LVU1356
	cmpq	$0, fs_select_list(%rip)
	jne	.L405
	.loc 1 1798 16 view .LVU1357
	cmpq	$0, fs_exclude_list(%rip)
	jne	.L405
	.loc 1 1802 7 is_stmt 1 view .LVU1358
	.loc 1 1802 44 is_stmt 0 view .LVU1359
	movl	$5, %edx
	leaq	.LC67(%rip), %rsi
	xorl	%edi, %edi
	.loc 1 1793 11 view .LVU1360
	xorl	%r13d, %r13d
	.loc 1 1802 44 view .LVU1361
	call	dcgettext@PLT
.LVL435:
	movq	%rax, %r12
.L405:
.LVL436:
	.loc 1 1803 7 is_stmt 1 discriminator 4 view .LVU1362
	xorl	%edi, %edi
	movl	$5, %edx
	leaq	.LC68(%rip), %rsi
	call	dcgettext@PLT
.LVL437:
	movq	%rax, %rbp
	.loc 1 1803 22 is_stmt 0 discriminator 4 view .LVU1363
	call	__errno_location@PLT
.LVL438:
	.loc 1 1803 7 discriminator 4 view .LVU1364
	movq	%rbp, %r8
	movq	%r12, %rcx
	movl	%r13d, %edi
	movl	(%rax), %esi
	leaq	.LC69(%rip), %rdx
	xorl	%eax, %eax
	call	error@PLT
.LVL439:
	jmp	.L404
.LVL440:
.L676:
	.loc 1 1803 7 discriminator 4 view .LVU1365
.LBE499:
	.loc 1 1782 29 view .LVU1366
	cmpq	$0, fs_exclude_list(%rip)
	jne	.L403
	.loc 1 1783 29 view .LVU1367
	cmpb	$0, print_type(%rip)
	jne	.L403
	.loc 1 1784 29 view .LVU1368
	cmpb	$0, 92+field_data(%rip)
	jne	.L403
	.loc 1 1785 29 discriminator 2 view .LVU1369
	movzbl	show_local_fs(%rip), %edi
	jmp	.L403
.LVL441:
.L669:
.LBB500:
	.loc 1 1682 15 is_stmt 1 view .LVU1370
	leaq	.LC57(%rip), %r8
	leaq	.LC58(%rip), %rcx
.L666:
	.loc 1 1646 15 is_stmt 0 view .LVU1371
	movq	%r12, %rdx
	xorl	%esi, %esi
	xorl	%edi, %edi
	xorl	%eax, %eax
	call	error@PLT
.LVL442:
.L668:
	.loc 1 1647 15 is_stmt 1 view .LVU1372
	movl	$1, %edi
	call	usage
.LVL443:
.L386:
	.loc 1 1647 15 is_stmt 0 view .LVU1373
.LBE500:
	.loc 1 1720 9 is_stmt 1 view .LVU1374
	.loc 1 1720 24 is_stmt 0 view .LVU1375
	leaq	.LC65(%rip), %rdi
	call	getenv@PLT
.LVL444:
	.loc 1 1720 9 view .LVU1376
	leaq	output_block_size(%rip), %rdx
	leaq	human_output_opts(%rip), %rsi
	.loc 1 1720 24 view .LVU1377
	movq	%rax, %rdi
	.loc 1 1720 9 view .LVU1378
	call	human_options@PLT
.LVL445:
	jmp	.L385
.LVL446:
.L410:
.LBB501:
.LBB480:
	.loc 1 528 7 is_stmt 1 view .LVU1379
	xorl	%esi, %esi
	xorl	%edi, %edi
	call	alloc_field
.LVL447:
	.loc 1 529 7 view .LVU1380
	.loc 1 529 10 is_stmt 0 view .LVU1381
	cmpb	$0, print_type(%rip)
	jne	.L680
.L418:
	.loc 1 531 7 is_stmt 1 view .LVU1382
	xorl	%esi, %esi
	movl	$2, %edi
	call	alloc_field
.LVL448:
	.loc 1 532 7 view .LVU1383
	xorl	%esi, %esi
	movl	$3, %edi
	call	alloc_field
.LVL449:
	.loc 1 533 7 view .LVU1384
	xorl	%esi, %esi
	movl	$4, %edi
	call	alloc_field
.LVL450:
	.loc 1 534 7 view .LVU1385
	leaq	.LC70(%rip), %rsi
.L665:
	.loc 1 512 7 is_stmt 0 view .LVU1386
	movl	$5, %edi
	call	alloc_field
.LVL451:
	.loc 1 513 7 is_stmt 1 view .LVU1387
	xorl	%esi, %esi
	movl	$10, %edi
	call	alloc_field
.LVL452:
	.loc 1 514 7 view .LVU1388
.L415:
.LBE480:
.LBE501:
	.loc 1 1811 3 view .LVU1389
	call	get_header
.LVL453:
	.loc 1 1813 3 view .LVU1390
	.loc 1 1813 14 is_stmt 0 view .LVU1391
	movl	optind(%rip), %edx
	.loc 1 1813 6 view .LVU1392
	cmpl	%ebx, %edx
	jge	.L419
	.loc 1 1816 7 is_stmt 1 view .LVU1393
	movslq	%edx, %rax
	notl	%edx
.LBB502:
.LBB503:
.LBB504:
.LBB505:
.LBB506:
.LBB507:
	.loc 1 1368 29 is_stmt 0 view .LVU1394
	movq	%r15, 104(%rsp)
	leaq	1(%rax), %rcx
	addl	%ebx, %edx
.LBE507:
.LBE506:
.LBE505:
.LBE504:
.LBE503:
.LBE502:
	.loc 1 1816 22 view .LVU1395
	movb	$1, show_listed_fs(%rip)
	.loc 1 1818 7 is_stmt 1 view .LVU1396
.LBB590:
	.loc 1 1818 12 view .LVU1397
	.loc 1 1818 28 view .LVU1398
	addq	%rcx, %rdx
	movq	%rcx, 48(%rsp)
	movq	%rdx, 56(%rsp)
	.p2align 4,,10
	.p2align 3
.L456:
.LVL454:
	.loc 1 1819 9 view .LVU1399
	.loc 1 1819 17 is_stmt 0 view .LVU1400
	movq	(%rsp), %rcx
	movq	(%rcx,%rax,8), %rcx
	movq	%rcx, 32(%rsp)
	movq	%rcx, %rbx
	.loc 1 1819 12 view .LVU1401
	testq	%rcx, %rcx
	je	.L420
	.loc 1 1820 11 is_stmt 1 view .LVU1402
	.loc 1 1820 40 is_stmt 0 view .LVU1403
	subl	optind(%rip), %eax
	cltq
	.loc 1 1820 37 view .LVU1404
	imulq	$144, %rax, %rax
	.loc 1 1820 31 view .LVU1405
	addq	80(%rsp), %rax
	movq	%rax, 64(%rsp)
.LVL455:
.LBB582:
.LBI503:
	.loc 1 1454 1 is_stmt 1 view .LVU1406
.LBB574:
	.loc 1 1456 3 view .LVU1407
	.loc 1 1456 33 is_stmt 0 view .LVU1408
	movl	24(%rax), %eax
.LVL456:
	.loc 1 1456 33 view .LVU1409
	movl	%eax, 8(%rsp)
	andl	$45056, %eax
	.loc 1 1456 6 view .LVU1410
	cmpl	$8192, %eax
	jne	.L499
.LVL457:
.LBB531:
.LBI531:
	.loc 1 1275 1 is_stmt 1 view .LVU1411
.LBB532:
	.loc 1 1277 3 view .LVU1412
	.loc 1 1278 3 view .LVU1413
	.loc 1 1279 3 view .LVU1414
	.loc 1 1280 3 view .LVU1415
	.loc 1 1281 3 view .LVU1416
	.loc 1 1283 3 view .LVU1417
	.loc 1 1283 20 is_stmt 0 view .LVU1418
	movq	%rcx, %rdi
	call	canonicalize_file_name@PLT
.LVL458:
	.loc 1 1283 20 view .LVU1419
	movq	%rax, 96(%rsp)
.LVL459:
	.loc 1 1284 3 is_stmt 1 view .LVU1420
	.loc 1 1284 6 is_stmt 0 view .LVU1421
	testq	%rax, %rax
	je	.L515
	.loc 1 1284 16 view .LVU1422
	cmpb	$47, (%rax)
	cmovne	%rbx, %rax
.LVL460:
	.loc 1 1284 16 view .LVU1423
	movq	%rax, 8(%rsp)
.L422:
.LVL461:
	.loc 1 1287 3 is_stmt 1 view .LVU1424
	.loc 1 1288 3 view .LVU1425
	.loc 1 1288 11 is_stmt 0 view .LVU1426
	movq	mount_list(%rip), %rbx
.LVL462:
	.loc 1 1288 25 is_stmt 1 view .LVU1427
	.loc 1 1288 3 is_stmt 0 view .LVU1428
	testq	%rbx, %rbx
	je	.L423
	.loc 1 1278 29 view .LVU1429
	movq	$0, 72(%rsp)
	.loc 1 1280 8 view .LVU1430
	xorl	%r13d, %r13d
	.loc 1 1287 10 view .LVU1431
	movq	$-1, 40(%rsp)
	.loc 1 1279 8 view .LVU1432
	movb	$0, 16(%rsp)
.LVL463:
	.p2align 4,,10
	.p2align 3
.L436:
.LBB533:
	.loc 1 1291 7 is_stmt 1 view .LVU1433
	.loc 1 1291 13 is_stmt 0 view .LVU1434
	movq	(%rbx), %r12
.LVL464:
	.loc 1 1292 7 is_stmt 1 view .LVU1435
	.loc 1 1292 25 is_stmt 0 view .LVU1436
	movq	%r12, %rdi
	call	canonicalize_file_name@PLT
.LVL465:
	movq	%rax, %rbp
.LVL466:
	.loc 1 1293 7 is_stmt 1 view .LVU1437
	.loc 1 1293 10 is_stmt 0 view .LVU1438
	testq	%rax, %rax
	je	.L424
	.loc 1 1293 21 view .LVU1439
	cmpb	$47, (%rax)
	cmove	%rax, %r12
.LVL467:
.L424:
	.loc 1 1296 7 is_stmt 1 view .LVU1440
	.loc 1 1296 11 is_stmt 0 view .LVU1441
	movq	8(%rsp), %rdi
	movq	%r12, %rsi
	call	strcmp@PLT
.LVL468:
	.loc 1 1296 10 view .LVU1442
	testl	%eax, %eax
	jne	.L425
.LBB534:
	.loc 1 1298 11 is_stmt 1 view .LVU1443
.LBB535:
.LBB536:
	.loc 1 1253 11 is_stmt 0 view .LVU1444
	movq	mount_list(%rip), %r13
.LVL469:
	.loc 1 1253 11 view .LVU1445
.LBE536:
.LBE535:
	.loc 1 1298 56 view .LVU1446
	movq	8(%rbx), %r14
.LVL470:
.LBB540:
.LBI535:
	.loc 1 1248 1 is_stmt 1 view .LVU1447
.LBB538:
	.loc 1 1250 3 view .LVU1448
	.loc 1 1251 3 view .LVU1449
	.loc 1 1253 3 view .LVU1450
	.loc 1 1253 25 view .LVU1451
	.loc 1 1251 29 is_stmt 0 view .LVU1452
	xorl	%r15d, %r15d
	.loc 1 1253 3 view .LVU1453
	testq	%r13, %r13
	je	.L429
.LVL471:
	.p2align 4,,10
	.p2align 3
.L426:
	.loc 1 1255 7 is_stmt 1 view .LVU1454
	.loc 1 1255 11 is_stmt 0 view .LVU1455
	movq	8(%r13), %rdi
	movq	%r14, %rsi
	call	strcmp@PLT
.LVL472:
	.loc 1 1255 10 view .LVU1456
	testl	%eax, %eax
	cmove	%r13, %r15
.LVL473:
	.loc 1 1253 29 is_stmt 1 view .LVU1457
	.loc 1 1253 32 is_stmt 0 view .LVU1458
	movq	48(%r13), %r13
.LVL474:
	.loc 1 1253 25 is_stmt 1 view .LVU1459
	.loc 1 1253 3 is_stmt 0 view .LVU1460
	testq	%r13, %r13
	jne	.L426
	.loc 1 1259 3 is_stmt 1 view .LVU1461
	.loc 1 1259 6 is_stmt 0 view .LVU1462
	testq	%r15, %r15
	je	.L429
.LBB537:
	.loc 1 1261 7 is_stmt 1 view .LVU1463
.LVL475:
	.loc 1 1262 7 view .LVU1464
	.loc 1 1262 25 is_stmt 0 view .LVU1465
	movq	(%r15), %rdi
	call	canonicalize_file_name@PLT
.LVL476:
	.loc 1 1262 25 view .LVU1466
	movq	%rax, %r8
.LVL477:
	.loc 1 1263 7 is_stmt 1 view .LVU1467
	.loc 1 1263 10 is_stmt 0 view .LVU1468
	testq	%rax, %rax
	je	.L430
	.loc 1 1263 21 view .LVU1469
	cmpb	$47, (%rax)
	je	.L431
.L430:
	.loc 1 1265 7 is_stmt 1 view .LVU1470
	movq	%r8, %rdi
	call	free@PLT
.LVL478:
	.loc 1 1266 7 view .LVU1471
	.loc 1 1266 14 is_stmt 0 view .LVU1472
	movq	(%r15), %rdi
	call	xstrdup@PLT
.LVL479:
	movq	%rax, %r8
.LVL480:
	.loc 1 1266 14 view .LVU1473
.LBE537:
.LBE538:
.LBE540:
	.loc 1 1299 11 is_stmt 1 view .LVU1474
	.loc 1 1299 41 is_stmt 0 view .LVU1475
	testq	%rax, %rax
	je	.L681
.LVL481:
.L431:
	.loc 1 1299 46 view .LVU1476
	movq	%r8, %rdi
	movq	%r12, %rsi
	movq	%r8, 24(%rsp)
	call	strcmp@PLT
.LVL482:
	.loc 1 1299 41 view .LVU1477
	movq	24(%rsp), %r8
	testl	%eax, %eax
	jne	.L518
	movq	8(%rbx), %r14
.LVL483:
.L427:
	.loc 1 1300 24 view .LVU1478
	movq	%r14, %rdi
	movq	%r8, 24(%rsp)
.LVL484:
	.loc 1 1300 11 is_stmt 1 view .LVU1479
	.loc 1 1300 24 is_stmt 0 view .LVU1480
	call	strlen@PLT
.LVL485:
	.loc 1 1303 19 view .LVU1481
	movzbl	16(%rsp), %ecx
	.loc 1 1303 15 view .LVU1482
	movq	24(%rsp), %r8
	.loc 1 1300 24 view .LVU1483
	movq	%rax, %r12
.LVL486:
	.loc 1 1302 11 is_stmt 1 view .LVU1484
	.loc 1 1303 19 is_stmt 0 view .LVU1485
	xorl	$1, %ecx
	.loc 1 1303 50 view .LVU1486
	cmpq	%rax, 40(%rsp)
	seta	%r9b
	.loc 1 1303 15 view .LVU1487
	movl	%ecx, %r13d
	orb	%r9b, %r13b
	jne	.L682
	movb	$1, 16(%rsp)
.LVL487:
.L432:
	.loc 1 1326 11 is_stmt 1 view .LVU1488
	movq	%r8, %rdi
	call	free@PLT
.LVL488:
.L425:
	.loc 1 1326 11 is_stmt 0 view .LVU1489
.LBE534:
	.loc 1 1329 7 is_stmt 1 view .LVU1490
	movq	%rbp, %rdi
	call	free@PLT
.LVL489:
.LBE533:
	.loc 1 1288 29 view .LVU1491
	.loc 1 1288 32 is_stmt 0 view .LVU1492
	movq	48(%rbx), %rbx
.LVL490:
	.loc 1 1288 25 is_stmt 1 view .LVU1493
	.loc 1 1288 3 is_stmt 0 view .LVU1494
	testq	%rbx, %rbx
	jne	.L436
	.loc 1 1332 3 is_stmt 1 view .LVU1495
	movq	96(%rsp), %rdi
	call	free@PLT
.LVL491:
	.loc 1 1334 3 view .LVU1496
	.loc 1 1334 6 is_stmt 0 view .LVU1497
	cmpq	$0, 72(%rsp)
	jne	.L435
	.loc 1 1341 8 is_stmt 1 view .LVU1498
	.loc 1 1341 11 is_stmt 0 view .LVU1499
	testb	%r13b, %r13b
	jne	.L683
.LVL492:
.L499:
	.loc 1 1341 11 view .LVU1500
.LBE532:
.LBE531:
	.loc 1 1460 3 is_stmt 1 view .LVU1501
.LBB562:
.LBI505:
	.loc 1 1356 1 view .LVU1502
.LBB525:
	.loc 1 1358 3 view .LVU1503
	.loc 1 1359 3 view .LVU1504
	.loc 1 1360 3 view .LVU1505
	.loc 1 1365 3 view .LVU1506
	.loc 1 1365 20 is_stmt 0 view .LVU1507
	movq	32(%rsp), %rdi
	call	canonicalize_file_name@PLT
.LVL493:
	movq	mount_list(%rip), %rbx
	movq	%rax, %r13
.LVL494:
	.loc 1 1366 3 is_stmt 1 view .LVU1508
	.loc 1 1366 6 is_stmt 0 view .LVU1509
	testq	%rax, %rax
	je	.L438
	.loc 1 1366 16 view .LVU1510
	cmpb	$47, (%rax)
	je	.L684
.L438:
	.loc 1 1388 3 is_stmt 1 view .LVU1511
	movq	%r13, %rdi
	call	free@PLT
.LVL495:
	.loc 1 1389 3 view .LVU1512
	.loc 1 1395 5 view .LVU1513
	.loc 1 1395 27 view .LVU1514
	.loc 1 1395 5 is_stmt 0 view .LVU1515
	testq	%rbx, %rbx
	je	.L454
.LVL496:
.L445:
.LBB513:
.LBB508:
	.loc 1 1380 27 view .LVU1516
	movq	64(%rsp), %rbp
	xorl	%r12d, %r12d
	jmp	.L453
.LVL497:
	.p2align 4,,10
	.p2align 3
.L450:
	.loc 1 1380 27 view .LVU1517
.LBE508:
.LBE513:
	.loc 1 1395 31 is_stmt 1 view .LVU1518
	.loc 1 1395 34 is_stmt 0 view .LVU1519
	movq	48(%rbx), %rbx
.LVL498:
	.loc 1 1395 27 is_stmt 1 view .LVU1520
	.loc 1 1395 5 is_stmt 0 view .LVU1521
	testq	%rbx, %rbx
	je	.L685
.LVL499:
.L453:
	.loc 1 1397 9 is_stmt 1 view .LVU1522
	.loc 1 1397 15 is_stmt 0 view .LVU1523
	movq	32(%rbx), %rax
	.loc 1 1397 12 view .LVU1524
	cmpq	$-1, %rax
	je	.L686
.L447:
	.loc 1 1417 9 is_stmt 1 view .LVU1525
	.loc 1 1417 12 is_stmt 0 view .LVU1526
	cmpq	%rax, 0(%rbp)
	jne	.L450
	.loc 1 1418 17 view .LVU1527
	movq	24(%rbx), %rsi
	movl	$5, %ecx
	leaq	.LC74(%rip), %rdi
	repz cmpsb
	seta	%al
	sbbb	$0, %al
	.loc 1 1418 13 view .LVU1528
	testb	%al, %al
	je	.L450
	.loc 1 1419 13 view .LVU1529
	testq	%r12, %r12
	je	.L451
	.loc 1 1419 29 view .LVU1530
	testb	$1, 40(%r12)
	jne	.L451
	.loc 1 1419 53 view .LVU1531
	testb	$1, 40(%rbx)
	jne	.L450
.L451:
	.loc 1 1422 13 is_stmt 1 view .LVU1532
.LVL500:
.LBB514:
.LBI514:
	.loc 6 453 1 view .LVU1533
.LBB515:
	.loc 6 455 3 view .LVU1534
	.loc 6 455 10 is_stmt 0 view .LVU1535
	movq	8(%rbx), %rsi
	leaq	144(%rsp), %rdx
.LVL501:
	.loc 6 455 10 view .LVU1536
	movl	$1, %edi
	call	__xstat@PLT
.LVL502:
	.loc 6 455 10 view .LVU1537
.LBE515:
.LBE514:
	.loc 1 1422 16 view .LVU1538
	testl	%eax, %eax
	jne	.L452
	.loc 1 1423 17 view .LVU1539
	movq	32(%rbx), %rax
	cmpq	%rax, 144(%rsp)
	je	.L523
.L452:
	.loc 1 1424 15 is_stmt 1 view .LVU1540
	.loc 1 1424 26 is_stmt 0 view .LVU1541
	movq	$-2, 32(%rbx)
	jmp	.L450
.LVL503:
.L411:
	.loc 1 1424 26 view .LVU1542
.LBE525:
.LBE562:
.LBE574:
.LBE582:
.LBE590:
.LBB591:
.LBB481:
	.loc 1 505 7 is_stmt 1 view .LVU1543
	xorl	%esi, %esi
	xorl	%edi, %edi
	call	alloc_field
.LVL504:
	.loc 1 506 7 view .LVU1544
	.loc 1 506 10 is_stmt 0 view .LVU1545
	cmpb	$0, print_type(%rip)
	jne	.L687
.L416:
	.loc 1 509 7 is_stmt 1 view .LVU1546
	leaq	.LC50(%rip), %rsi
	movl	$2, %edi
	call	alloc_field
.LVL505:
	.loc 1 510 7 view .LVU1547
	xorl	%esi, %esi
	movl	$3, %edi
	call	alloc_field
.LVL506:
	.loc 1 511 7 view .LVU1548
	leaq	.LC51(%rip), %rsi
.L664:
	movl	$4, %edi
	call	alloc_field
.LVL507:
	.loc 1 512 7 view .LVU1549
	xorl	%esi, %esi
	jmp	.L665
.L412:
	.loc 1 517 7 view .LVU1550
	xorl	%esi, %esi
	xorl	%edi, %edi
	call	alloc_field
.LVL508:
	.loc 1 518 7 view .LVU1551
	.loc 1 518 10 is_stmt 0 view .LVU1552
	cmpb	$0, print_type(%rip)
	jne	.L688
.L417:
	.loc 1 520 7 is_stmt 1 view .LVU1553
	xorl	%esi, %esi
	movl	$6, %edi
	call	alloc_field
.LVL509:
	.loc 1 521 7 view .LVU1554
	xorl	%esi, %esi
	movl	$7, %edi
	call	alloc_field
.LVL510:
	.loc 1 522 7 view .LVU1555
	xorl	%esi, %esi
	movl	$8, %edi
	call	alloc_field
.LVL511:
	.loc 1 523 7 view .LVU1556
	xorl	%esi, %esi
	movl	$9, %edi
	call	alloc_field
.LVL512:
	.loc 1 524 7 view .LVU1557
	xorl	%esi, %esi
	movl	$10, %edi
	call	alloc_field
.LVL513:
	.loc 1 525 7 view .LVU1558
	jmp	.L415
.L408:
	.loc 1 539 7 view .LVU1559
	.loc 1 539 10 is_stmt 0 view .LVU1560
	cmpq	$0, ncolumns(%rip)
	jne	.L415
	.loc 1 542 11 is_stmt 1 view .LVU1561
	leaq	.LC71(%rip), %rdi
	call	decode_output_arg
.LVL514:
	jmp	.L415
.L413:
	.loc 1 494 7 view .LVU1562
	xorl	%esi, %esi
	xorl	%edi, %edi
	call	alloc_field
.LVL515:
	.loc 1 495 7 view .LVU1563
	.loc 1 495 10 is_stmt 0 view .LVU1564
	cmpb	$0, print_type(%rip)
	jne	.L689
.L414:
	.loc 1 497 7 is_stmt 1 view .LVU1565
	xorl	%esi, %esi
	movl	$2, %edi
	call	alloc_field
.LVL516:
	.loc 1 498 7 view .LVU1566
	xorl	%esi, %esi
	movl	$3, %edi
	call	alloc_field
.LVL517:
	.loc 1 499 7 view .LVU1567
	xorl	%esi, %esi
	jmp	.L664
.LVL518:
.L439:
	.loc 1 499 7 is_stmt 0 view .LVU1568
.LBE481:
.LBE591:
.LBB592:
.LBB583:
.LBB575:
.LBB563:
.LBB526:
	.loc 1 1388 3 is_stmt 1 view .LVU1569
	movq	%r13, %rdi
	call	free@PLT
.LVL519:
	.loc 1 1389 3 view .LVU1570
	.loc 1 1395 5 view .LVU1571
	.loc 1 1395 27 view .LVU1572
.L454:
.LBB516:
	.loc 1 1441 7 view .LVU1573
	.loc 1 1441 18 is_stmt 0 view .LVU1574
	movq	32(%rsp), %rbx
	movq	64(%rsp), %rsi
	movq	%rbx, %rdi
	call	find_mount_point@PLT
.LVL520:
	movq	%rax, %rbp
.LVL521:
	.loc 1 1442 7 is_stmt 1 view .LVU1575
	.loc 1 1442 10 is_stmt 0 view .LVU1576
	testq	%rax, %rax
	je	.L420
	.loc 1 1444 11 is_stmt 1 view .LVU1577
	pushq	%rcx
	.cfi_def_cfa_offset 376
.LVL522:
	.loc 1 1444 11 is_stmt 0 view .LVU1578
	xorl	%edi, %edi
	xorl	%r9d, %r9d
	xorl	%r8d, %r8d
	pushq	$0
	.cfi_def_cfa_offset 384
	xorl	%ecx, %ecx
	movq	%rbx, %rdx
	movq	%rax, %rsi
	pushq	$0
	.cfi_def_cfa_offset 392
	pushq	$0
	.cfi_def_cfa_offset 400
	call	get_dev
.LVL523:
	.loc 1 1445 11 is_stmt 1 view .LVU1579
	addq	$32, %rsp
	.cfi_def_cfa_offset 368
.LVL524:
	.loc 1 1445 11 is_stmt 0 view .LVU1580
	movq	%rbp, %rdi
	call	free@PLT
.LVL525:
	.p2align 4,,10
	.p2align 3
.L420:
	.loc 1 1445 11 view .LVU1581
.LBE516:
.LBE526:
.LBE563:
.LBE575:
.LBE583:
	.loc 1 1818 38 is_stmt 1 discriminator 2 view .LVU1582
	.loc 1 1818 28 discriminator 2 view .LVU1583
	.loc 1 1818 28 is_stmt 0 discriminator 2 view .LVU1584
	movq	48(%rsp), %rcx
	movq	%rcx, %rax
	.loc 1 1818 7 discriminator 2 view .LVU1585
	cmpq	%rcx, 56(%rsp)
	je	.L658
	addq	$1, %rcx
	movq	%rcx, 48(%rsp)
.LVL526:
	.loc 1 1818 7 discriminator 2 view .LVU1586
	jmp	.L456
.LVL527:
	.p2align 4,,10
	.p2align 3
.L518:
.LBB584:
.LBB576:
.LBB564:
.LBB556:
.LBB553:
.LBB550:
	.loc 1 1299 27 view .LVU1587
	movl	$1, %r13d
	jmp	.L432
.LVL528:
.L681:
	.loc 1 1299 27 view .LVU1588
	movq	8(%rbx), %r14
.LVL529:
.L429:
.LBB541:
.LBB539:
	.loc 1 1269 12 view .LVU1589
	xorl	%r8d, %r8d
	jmp	.L427
.LVL530:
.L682:
	.loc 1 1269 12 view .LVU1590
.LBE539:
.LBE541:
.LBB542:
.LBB543:
.LBB544:
	.loc 6 455 10 view .LVU1591
	leaq	144(%rsp), %rdx
	movq	%r14, %rsi
	movl	$1, %edi
	movb	%r9b, 95(%rsp)
	movb	%cl, 94(%rsp)
.LBE544:
.LBE543:
	.loc 1 1305 15 is_stmt 1 view .LVU1592
	.loc 1 1306 15 view .LVU1593
.LVL531:
	.loc 1 1308 15 view .LVU1594
.LBB546:
.LBI543:
	.loc 6 453 1 view .LVU1595
.LBB545:
	.loc 6 455 3 view .LVU1596
	.loc 6 455 10 is_stmt 0 view .LVU1597
	call	__xstat@PLT
.LVL532:
	.loc 6 455 10 view .LVU1598
.LBE545:
.LBE546:
	.loc 1 1308 18 view .LVU1599
	movq	24(%rsp), %r8
	testl	%eax, %eax
	je	.L433
	.loc 1 1311 15 is_stmt 1 view .LVU1600
	.loc 1 1312 19 is_stmt 0 view .LVU1601
	movzbl	94(%rsp), %ecx
	testb	%cl, %cl
	je	.L520
	movzbl	95(%rsp), %r9d
	testb	%r9b, %r9b
	je	.L520
	xorl	%r13d, %r13d
.L433:
.LVL533:
	.loc 1 1314 19 is_stmt 1 view .LVU1602
	.loc 1 1315 19 view .LVU1603
	.loc 1 1315 22 is_stmt 0 view .LVU1604
	cmpq	$1, %r12
	je	.L690
	movq	%r12, 40(%rsp)
.LVL534:
	.loc 1 1315 22 view .LVU1605
	movq	%rbx, 72(%rsp)
.LVL535:
.L434:
	.loc 1 1315 22 view .LVU1606
	movb	%r13b, 16(%rsp)
.LBE542:
	.loc 1 1299 27 view .LVU1607
	xorl	%r13d, %r13d
.LBB547:
	jmp	.L432
.LVL536:
.L686:
	.loc 1 1299 27 view .LVU1608
.LBE547:
.LBE550:
.LBE553:
.LBE556:
.LBE564:
.LBB565:
.LBB527:
	.loc 1 1399 13 is_stmt 1 view .LVU1609
.LBB517:
.LBI517:
	.loc 6 453 1 view .LVU1610
.LBB518:
	.loc 6 455 3 view .LVU1611
	.loc 6 455 10 is_stmt 0 view .LVU1612
	movq	8(%rbx), %rsi
	leaq	144(%rsp), %rdx
.LVL537:
	.loc 6 455 10 view .LVU1613
	movl	$1, %edi
	call	__xstat@PLT
.LVL538:
	.loc 6 455 10 view .LVU1614
.LBE518:
.LBE517:
	.loc 1 1399 16 view .LVU1615
	testl	%eax, %eax
	jne	.L448
	.loc 1 1400 15 is_stmt 1 view .LVU1616
	.loc 1 1400 38 is_stmt 0 view .LVU1617
	movq	144(%rsp), %rax
	.loc 1 1400 26 view .LVU1618
	movq	%rax, 32(%rbx)
	jmp	.L447
.L685:
	.loc 1 1430 3 is_stmt 1 view .LVU1619
	.loc 1 1430 6 is_stmt 0 view .LVU1620
	testq	%r12, %r12
	je	.L454
.LVL539:
.L446:
	.loc 1 1431 5 is_stmt 1 view .LVU1621
	.loc 1 1432 67 is_stmt 0 view .LVU1622
	movzbl	40(%r12), %r9d
	.loc 1 1431 5 view .LVU1623
	movq	24(%r12), %r8
	movq	8(%r12), %rsi
	pushq	%rdi
	.cfi_def_cfa_offset 376
.LVL540:
	.loc 1 1431 5 view .LVU1624
	movl	%r9d, %eax
	pushq	$0
	.cfi_def_cfa_offset 384
	movq	(%r12), %rdi
	andl	$1, %r9d
	shrb	%al
	pushq	$0
	.cfi_def_cfa_offset 392
	andl	$1, %eax
	pushq	%rax
	.cfi_def_cfa_offset 400
	movq	64(%rsp), %rcx
	movq	%rcx, %rdx
	call	get_dev
.LVL541:
	addq	$32, %rsp
	.cfi_def_cfa_offset 368
.LVL542:
	.loc 1 1431 5 view .LVU1625
	jmp	.L420
.LVL543:
.L448:
	.loc 1 1406 17 is_stmt 1 view .LVU1626
	.loc 1 1406 21 is_stmt 0 view .LVU1627
	call	__errno_location@PLT
.LVL544:
	.loc 1 1406 20 view .LVU1628
	cmpl	$5, (%rax)
	.loc 1 1406 21 view .LVU1629
	movq	%rax, %r13
	.loc 1 1406 20 view .LVU1630
	je	.L691
.L449:
	.loc 1 1413 17 is_stmt 1 view .LVU1631
	.loc 1 1413 28 is_stmt 0 view .LVU1632
	movq	$-2, 32(%rbx)
	movq	$-2, %rax
	jmp	.L447
.LVL545:
.L658:
	.loc 1 1413 28 view .LVU1633
.LBE527:
.LBE565:
.LBE576:
.LBE584:
.LBE592:
	.loc 1 1822 7 view .LVU1634
	movq	80(%rsp), %rdi
	movq	104(%rsp), %r15
	.loc 1 1822 7 is_stmt 1 view .LVU1635
	call	free@PLT
.LVL546:
.L457:
	.loc 1 1827 3 view .LVU1636
	.loc 1 1827 6 is_stmt 0 view .LVU1637
	cmpb	$0, file_systems_processed(%rip)
	je	.L482
	.loc 1 1829 7 is_stmt 1 view .LVU1638
	.loc 1 1829 10 is_stmt 0 view .LVU1639
	cmpb	$0, print_grand_total(%rip)
	je	.L483
	.loc 1 1830 9 is_stmt 1 view .LVU1640
	pushq	%rax
	.cfi_def_cfa_offset 376
	leaq	grand_fsu(%rip), %rax
	cmpb	$0, 44+field_data(%rip)
	leaq	.LC53(%rip), %rdi
	pushq	$0
	.cfi_def_cfa_offset 384
	leaq	.LC4(%rip), %rsi
	pushq	%rax
	.cfi_def_cfa_offset 392
	cmove	%rdi, %rsi
	xorl	%r9d, %r9d
	xorl	%r8d, %r8d
	pushq	$0
	.cfi_def_cfa_offset 400
	xorl	%ecx, %ecx
	xorl	%edx, %edx
	call	get_dev
.LVL547:
	addq	$32, %rsp
	.cfi_def_cfa_offset 368
.L483:
.LVL548:
.LBB593:
.LBB594:
	.loc 1 361 17 view .LVU1641
	.loc 1 361 3 is_stmt 0 view .LVU1642
	cmpq	$0, nrows(%rip)
	je	.L493
	xorl	%r14d, %r14d
.LVL549:
	.p2align 4,,10
	.p2align 3
.L492:
.LBB595:
	.loc 1 364 21 is_stmt 1 view .LVU1643
	.loc 1 364 25 is_stmt 0 view .LVU1644
	movq	ncolumns(%rip), %rax
	leaq	0(,%r14,8), %r13
	.loc 1 364 7 view .LVU1645
	testq	%rax, %rax
	je	.L495
.LBB596:
	.loc 1 366 11 is_stmt 1 view .LVU1646
	.loc 1 366 29 is_stmt 0 view .LVU1647
	movq	table(%rip), %rdx
.LBE596:
	.loc 1 364 16 view .LVU1648
	xorl	%ebx, %ebx
.LBB601:
	.loc 1 366 17 view .LVU1649
	movq	(%rdx,%r14,8), %rdx
	movq	(%rdx), %rbp
.LVL550:
	.loc 1 372 11 is_stmt 1 view .LVU1650
	.p2align 4,,10
	.p2align 3
.L500:
	.loc 1 376 31 is_stmt 0 view .LVU1651
	subq	$1, %rax
	.loc 1 377 19 view .LVU1652
	xorl	%ecx, %ecx
	.loc 1 380 18 view .LVU1653
	movq	%rbp, %rdi
	movq	%r15, %rsi
	.loc 1 377 19 view .LVU1654
	cmpq	%rax, %rbx
	.loc 1 379 33 view .LVU1655
	movq	columns(%rip), %rax
	leaq	0(,%rbx,8), %r12
.LVL551:
	.loc 1 375 11 is_stmt 1 view .LVU1656
	.loc 1 376 11 view .LVU1657
	.loc 1 377 19 is_stmt 0 view .LVU1658
	sete	%cl
	.loc 1 379 33 view .LVU1659
	movq	(%rax,%rbx,8), %rax
	.loc 1 377 19 view .LVU1660
	sall	$3, %ecx
.LVL552:
	.loc 1 379 11 is_stmt 1 view .LVU1661
	.loc 1 379 18 is_stmt 0 view .LVU1662
	movq	32(%rax), %rdx
	movq	%rdx, 112(%rsp)
	.loc 1 380 11 is_stmt 1 view .LVU1663
	.loc 1 380 18 is_stmt 0 view .LVU1664
	movl	40(%rax), %edx
	call	ambsalign@PLT
.LVL553:
	.loc 1 382 11 view .LVU1665
	movq	stdout(%rip), %rsi
	.loc 1 380 18 view .LVU1666
	movq	%rax, %rbp
.LVL554:
	.loc 1 382 11 is_stmt 1 view .LVU1667
	movq	%rax, %rdi
	testq	%rax, %rax
	je	.L692
.LVL555:
.L488:
	.loc 1 382 11 is_stmt 0 view .LVU1668
	call	fputs_unlocked@PLT
.LVL556:
	.loc 1 383 11 is_stmt 1 view .LVU1669
	movq	%rbp, %rdi
.LBE601:
	.loc 1 364 40 is_stmt 0 view .LVU1670
	addq	$1, %rbx
.LBB602:
	.loc 1 383 11 view .LVU1671
	call	free@PLT
.LVL557:
	.loc 1 385 11 is_stmt 1 view .LVU1672
	movq	table(%rip), %rbp
.LVL558:
	.loc 1 385 11 is_stmt 0 view .LVU1673
	addq	%r13, %rbp
	movq	0(%rbp), %rax
	movq	(%rax,%r12), %rdi
	call	free@PLT
.LVL559:
.LBE602:
	.loc 1 364 37 is_stmt 1 view .LVU1674
	.loc 1 364 21 view .LVU1675
	.loc 1 364 25 is_stmt 0 view .LVU1676
	movq	ncolumns(%rip), %rax
	.loc 1 364 7 view .LVU1677
	cmpq	%rax, %rbx
	jnb	.L495
.LBB603:
	.loc 1 366 11 is_stmt 1 view .LVU1678
	.loc 1 366 17 is_stmt 0 view .LVU1679
	movq	0(%rbp), %rdx
	movq	8(%rdx,%r12), %rbp
.LVL560:
	.loc 1 372 11 is_stmt 1 view .LVU1680
	.loc 1 372 14 is_stmt 0 view .LVU1681
	testq	%rbx, %rbx
	je	.L500
	.loc 1 373 13 is_stmt 1 view .LVU1682
.LVL561:
.LBB597:
.LBI597:
	.file 9 "/usr/include/x86_64-linux-gnu/bits/stdio.h"
	.loc 9 108 1 view .LVU1683
.LBB598:
	.loc 9 110 3 view .LVU1684
	.loc 9 110 10 is_stmt 0 view .LVU1685
	movq	stdout(%rip), %rdi
	movq	40(%rdi), %rdx
	cmpq	48(%rdi), %rdx
	jnb	.L693
	leaq	1(%rdx), %rcx
	movq	%rcx, 40(%rdi)
	movb	$32, (%rdx)
	jmp	.L500
.LVL562:
	.p2align 4,,10
	.p2align 3
.L692:
	.loc 9 110 10 view .LVU1686
.LBE598:
.LBE597:
	.loc 1 382 11 view .LVU1687
	movq	table(%rip), %rax
.LVL563:
	.loc 1 382 11 view .LVU1688
	movq	(%rax,%r13), %rax
	movq	(%rax,%rbx,8), %rdi
.LVL564:
	.loc 1 382 11 view .LVU1689
	jmp	.L488
.LVL565:
	.p2align 4,,10
	.p2align 3
.L495:
	.loc 1 382 11 view .LVU1690
.LBE603:
	.loc 1 387 7 is_stmt 1 view .LVU1691
.LBB604:
.LBI604:
	.loc 9 108 1 view .LVU1692
.LBB605:
	.loc 9 110 3 view .LVU1693
	.loc 9 110 10 is_stmt 0 view .LVU1694
	movq	stdout(%rip), %rdi
	movq	40(%rdi), %rax
	cmpq	48(%rdi), %rax
	jnb	.L694
	leaq	1(%rax), %rdx
	movq	%rdx, 40(%rdi)
	movb	$10, (%rax)
.L491:
.LVL566:
	.loc 9 110 10 view .LVU1695
.LBE605:
.LBE604:
	.loc 1 388 7 is_stmt 1 view .LVU1696
	movq	table(%rip), %rax
.LBE595:
	.loc 1 361 33 is_stmt 0 view .LVU1697
	addq	$1, %r14
.LVL567:
.LBB609:
	.loc 1 388 7 view .LVU1698
	movq	(%rax,%r13), %rdi
	call	free@PLT
.LVL568:
.LBE609:
	.loc 1 361 30 is_stmt 1 view .LVU1699
	.loc 1 361 17 view .LVU1700
	.loc 1 361 3 is_stmt 0 view .LVU1701
	cmpq	nrows(%rip), %r14
	jb	.L492
.LVL569:
.L493:
	.loc 1 391 3 is_stmt 1 view .LVU1702
	movq	table(%rip), %rdi
	call	free@PLT
.LVL570:
.L496:
.LBE594:
.LBE593:
	.loc 1 1844 3 view .LVU1703
	movq	columns(%rip), %rdi
	call	free@PLT
.LVL571:
	.loc 1 1846 3 view .LVU1704
	.loc 1 1846 10 is_stmt 0 view .LVU1705
	movl	exit_status(%rip), %eax
	jmp	.L355
.LVL572:
.L693:
.LBB614:
.LBB612:
.LBB610:
.LBB607:
.LBB600:
.LBB599:
	.loc 9 110 10 view .LVU1706
	movl	$32, %esi
	call	__overflow@PLT
.LVL573:
	movq	ncolumns(%rip), %rax
	jmp	.L500
.LVL574:
.L520:
	.loc 9 110 10 view .LVU1707
.LBE599:
.LBE600:
.LBE607:
.LBE610:
.LBE612:
.LBE614:
.LBB615:
.LBB585:
.LBB577:
.LBB566:
.LBB557:
.LBB554:
.LBB551:
.LBB548:
	movzbl	16(%rsp), %r13d
	jmp	.L434
.LVL575:
.L684:
	.loc 9 110 10 view .LVU1708
.LBE548:
.LBE551:
.LBE554:
.LBE557:
.LBE566:
.LBB567:
.LBB528:
.LBB519:
	.loc 1 1368 7 is_stmt 1 view .LVU1709
	.loc 1 1368 29 is_stmt 0 view .LVU1710
	xorl	%eax, %eax
.LVL576:
	.loc 1 1368 29 view .LVU1711
	orq	$-1, %rcx
	movq	%r13, %rdi
	repnz scasb
.LVL577:
	.loc 1 1368 29 view .LVU1712
	movq	%rcx, %rax
	notq	%rax
	leaq	-1(%rax), %r15
.LVL578:
	.loc 1 1369 7 is_stmt 1 view .LVU1713
	.loc 1 1371 7 view .LVU1714
	.loc 1 1371 29 view .LVU1715
	.loc 1 1371 7 is_stmt 0 view .LVU1716
	testq	%rbx, %rbx
	je	.L439
	.loc 1 1369 14 view .LVU1717
	xorl	%r9d, %r9d
	.loc 1 1371 7 view .LVU1718
	movq	%rbx, %rbp
.LBE519:
	.loc 1 1360 29 view .LVU1719
	xorl	%r12d, %r12d
.LBB520:
.LBB509:
	.loc 1 1376 28 view .LVU1720
	xorl	%r10d, %r10d
	movq	%r9, %r14
.LVL579:
	.p2align 4,,10
	.p2align 3
.L443:
	.loc 1 1376 28 view .LVU1721
.LBE509:
	.loc 1 1373 11 is_stmt 1 view .LVU1722
	.loc 1 1373 16 is_stmt 0 view .LVU1723
	movq	24(%rbp), %rsi
	movl	$5, %ecx
	leaq	.LC74(%rip), %rdi
	repz cmpsb
	seta	%al
	sbbb	$0, %al
	.loc 1 1373 14 view .LVU1724
	testb	%al, %al
	je	.L440
	.loc 1 1374 15 view .LVU1725
	testq	%r12, %r12
	je	.L441
	.loc 1 1374 31 view .LVU1726
	testb	$1, 40(%r12)
	jne	.L441
	.loc 1 1374 55 view .LVU1727
	testb	$1, 40(%rbp)
	jne	.L440
.L441:
.LBB510:
	.loc 1 1376 15 is_stmt 1 view .LVU1728
	.loc 1 1376 38 is_stmt 0 view .LVU1729
	movq	8(%rbp), %r8
	.loc 1 1376 28 view .LVU1730
	orq	$-1, %rcx
	movl	%r10d, %eax
	movq	%r8, %rdi
	repnz scasb
	notq	%rcx
	leaq	-1(%rcx), %rdx
.LVL580:
	.loc 1 1377 15 is_stmt 1 view .LVU1731
	.loc 1 1377 18 is_stmt 0 view .LVU1732
	cmpq	%r14, %rdx
	jb	.L440
	cmpq	%rdx, %r15
	jb	.L440
	.loc 1 1378 19 view .LVU1733
	cmpq	$1, %rdx
	je	.L522
	.loc 1 1379 23 view .LVU1734
	cmpq	%rdx, %r15
	je	.L442
	.loc 1 1379 48 view .LVU1735
	cmpb	$47, -1(%r13,%rcx)
	je	.L442
.LVL581:
	.p2align 4,,10
	.p2align 3
.L440:
	.loc 1 1379 48 view .LVU1736
.LBE510:
	.loc 1 1371 33 is_stmt 1 view .LVU1737
	.loc 1 1371 36 is_stmt 0 view .LVU1738
	movq	48(%rbp), %rbp
.LVL582:
	.loc 1 1371 29 is_stmt 1 view .LVU1739
	.loc 1 1371 7 is_stmt 0 view .LVU1740
	testq	%rbp, %rbp
	jne	.L443
	.loc 1 1371 7 view .LVU1741
.LBE520:
	.loc 1 1388 3 is_stmt 1 view .LVU1742
	movq	%r13, %rdi
	call	free@PLT
.LVL583:
	.loc 1 1389 3 view .LVU1743
	.loc 1 1389 6 is_stmt 0 view .LVU1744
	testq	%r12, %r12
	je	.L445
.LVL584:
.LBB521:
.LBI521:
	.loc 6 453 1 is_stmt 1 view .LVU1745
.LBB522:
	.loc 6 455 3 view .LVU1746
	.loc 6 455 10 is_stmt 0 view .LVU1747
	movq	8(%r12), %rsi
	leaq	144(%rsp), %rdx
.LVL585:
	.loc 6 455 10 view .LVU1748
	movl	$1, %edi
	call	__xstat@PLT
.LVL586:
	.loc 6 455 10 view .LVU1749
.LBE522:
.LBE521:
	.loc 1 1390 7 view .LVU1750
	testl	%eax, %eax
	jne	.L445
	.loc 1 1391 11 view .LVU1751
	movq	64(%rsp), %rax
	movq	(%rax), %rax
	cmpq	%rax, 144(%rsp)
	jne	.L445
	jmp	.L446
.LVL587:
.L690:
	.loc 1 1391 11 view .LVU1752
.LBE528:
.LBE567:
.LBB568:
.LBB558:
.LBB555:
.LBB552:
.LBB549:
	.loc 1 1317 23 is_stmt 1 view .LVU1753
	movq	%r8, %rdi
	call	free@PLT
.LVL588:
	.loc 1 1318 23 view .LVU1754
	movq	%rbp, %rdi
	call	free@PLT
.LVL589:
	.loc 1 1319 23 view .LVU1755
	.loc 1 1319 23 is_stmt 0 view .LVU1756
.LBE549:
.LBE552:
.LBE555:
	.loc 1 1332 3 is_stmt 1 view .LVU1757
	movq	96(%rsp), %rdi
	call	free@PLT
.LVL590:
	.loc 1 1334 3 view .LVU1758
	.loc 1 1332 3 is_stmt 0 view .LVU1759
	movq	%rbx, 72(%rsp)
.LVL591:
.L435:
	.loc 1 1336 7 is_stmt 1 view .LVU1760
	.loc 1 1338 26 is_stmt 0 view .LVU1761
	movq	72(%rsp), %rbx
.LVL592:
	.loc 1 1336 7 view .LVU1762
	xorl	%ecx, %ecx
	.loc 1 1338 26 view .LVU1763
	movzbl	40(%rbx), %r9d
	.loc 1 1336 7 view .LVU1764
	movq	24(%rbx), %r8
	movq	8(%rbx), %rsi
	pushq	%r10
	.cfi_def_cfa_offset 376
.LVL593:
	.loc 1 1336 7 view .LVU1765
	movl	%r9d, %eax
	pushq	$0
	.cfi_def_cfa_offset 384
	movq	(%rbx), %rdi
	andl	$1, %r9d
	shrb	%al
	pushq	$0
	.cfi_def_cfa_offset 392
	andl	$1, %eax
	pushq	%rax
	.cfi_def_cfa_offset 400
	movq	64(%rsp), %rdx
	call	get_dev
.LVL594:
	.loc 1 1339 7 is_stmt 1 view .LVU1766
	.loc 1 1336 7 is_stmt 0 view .LVU1767
	addq	$32, %rsp
	.cfi_def_cfa_offset 368
.LVL595:
	.loc 1 1336 7 view .LVU1768
	jmp	.L420
.LVL596:
.L482:
	.loc 1 1336 7 view .LVU1769
.LBE558:
.LBE568:
.LBE577:
.LBE585:
.LBE615:
	.loc 1 1840 7 is_stmt 1 view .LVU1770
	.loc 1 1840 10 is_stmt 0 view .LVU1771
	cmpl	$0, exit_status(%rip)
	jne	.L496
.LBB616:
	.loc 1 1841 9 is_stmt 1 view .LVU1772
	movl	$5, %edx
	leaq	.LC75(%rip), %rsi
	xorl	%edi, %edi
	call	dcgettext@PLT
.LVL597:
	xorl	%esi, %esi
	movl	$1, %edi
	movq	%rax, %rdx
	xorl	%eax, %eax
	call	error@PLT
.LVL598:
.L515:
	.loc 1 1841 9 is_stmt 0 view .LVU1773
.LBE616:
.LBB617:
.LBB586:
.LBB578:
.LBB569:
.LBB559:
	movq	32(%rsp), %rax
.LVL599:
	.loc 1 1841 9 view .LVU1774
	movq	%rax, 8(%rsp)
	jmp	.L422
.LVL600:
.L694:
	.loc 1 1841 9 view .LVU1775
.LBE559:
.LBE569:
.LBE578:
.LBE586:
.LBE617:
.LBB618:
.LBB613:
.LBB611:
.LBB608:
.LBB606:
	.loc 9 110 10 view .LVU1776
	movl	$10, %esi
	call	__overflow@PLT
.LVL601:
	jmp	.L491
.LVL602:
.L442:
	.loc 9 110 10 view .LVU1777
.LBE606:
.LBE608:
.LBE611:
.LBE613:
.LBE618:
.LBB619:
.LBB587:
.LBB579:
.LBB570:
.LBB529:
.LBB523:
.LBB511:
	.loc 1 1380 30 view .LVU1778
	movq	%r13, %rsi
	movq	%r8, %rdi
	movq	%rdx, 8(%rsp)
	call	strncmp@PLT
.LVL603:
	.loc 1 1380 27 view .LVU1779
	movq	8(%rsp), %rdx
	testl	%eax, %eax
	cmove	%rdx, %r14
.LVL604:
	.loc 1 1380 27 view .LVU1780
	cmove	%rbp, %r12
.LVL605:
	.loc 1 1380 27 view .LVU1781
	xorl	%r10d, %r10d
	jmp	.L440
.LVL606:
.L419:
	.loc 1 1380 27 view .LVU1782
.LBE511:
.LBE523:
.LBE529:
.LBE570:
.LBE579:
.LBE587:
.LBE619:
	.loc 1 1825 5 is_stmt 1 view .LVU1783
.LBB620:
.LBI620:
	.loc 1 1467 1 view .LVU1784
.LBB621:
	.loc 1 1469 3 view .LVU1785
	.loc 1 1471 3 view .LVU1786
	movzbl	show_all_fs(%rip), %r12d
.LVL607:
.LBB622:
.LBI622:
	.loc 1 701 1 view .LVU1787
.LBB623:
	.loc 1 703 3 view .LVU1788
	.loc 1 706 3 view .LVU1789
	.loc 1 707 3 view .LVU1790
	.loc 1 709 3 view .LVU1791
	.loc 1 709 11 is_stmt 0 view .LVU1792
	movq	mount_list(%rip), %rbp
.LVL608:
	.loc 1 707 7 view .LVU1793
	xorl	%eax, %eax
	.loc 1 709 3 view .LVU1794
	jmp	.L458
.LVL609:
.L459:
	.loc 1 710 5 is_stmt 1 view .LVU1795
	.loc 1 709 32 is_stmt 0 view .LVU1796
	movq	48(%rbp), %rbp
.LVL610:
	.loc 1 710 20 view .LVU1797
	addl	$1, %eax
.LVL611:
	.loc 1 709 29 is_stmt 1 view .LVU1798
.L458:
	.loc 1 709 25 view .LVU1799
	.loc 1 709 3 is_stmt 0 view .LVU1800
	testq	%rbp, %rbp
	jne	.L459
	.loc 1 712 3 is_stmt 1 view .LVU1801
	.loc 1 712 19 is_stmt 0 view .LVU1802
	movslq	%eax, %rdi
	leaq	devlist_free(%rip), %r8
	leaq	devlist_compare(%rip), %rcx
	xorl	%esi, %esi
	leaq	devlist_hash(%rip), %rdx
	call	hash_initialize@PLT
.LVL612:
	.loc 1 712 17 view .LVU1803
	movq	%rax, devlist_table(%rip)
	.loc 1 716 3 is_stmt 1 view .LVU1804
	.loc 1 716 6 is_stmt 0 view .LVU1805
	testq	%rax, %rax
	je	.L474
	.loc 1 720 3 is_stmt 1 view .LVU1806
	.loc 1 720 11 is_stmt 0 view .LVU1807
	movq	mount_list(%rip), %rbx
.LVL613:
	.loc 1 720 25 is_stmt 1 view .LVU1808
	.loc 1 720 3 is_stmt 0 view .LVU1809
	testq	%rbx, %rbx
	je	.L461
	movq	%rbx, %r14
.LBB624:
.LBB625:
.LBB626:
	.loc 6 455 10 view .LVU1810
	leaq	144(%rsp), %rax
	movq	%rbp, 24(%rsp)
.LBE626:
.LBE625:
.LBE624:
	.loc 1 706 19 view .LVU1811
	xorl	%ebx, %ebx
.LVL614:
.LBB640:
.LBB629:
.LBB627:
	.loc 6 455 10 view .LVU1812
	movq	%rax, (%rsp)
.LVL615:
	.loc 6 455 10 view .LVU1813
	movq	%r14, %rbp
	movb	%r12b, 8(%rsp)
	jmp	.L475
.LVL616:
	.p2align 4,,10
	.p2align 3
.L465:
	.loc 6 455 10 view .LVU1814
.LBE627:
.LBE629:
	.loc 1 736 11 is_stmt 1 view .LVU1815
	.loc 1 736 22 is_stmt 0 view .LVU1816
	movq	32(%rbp), %rax
	movq	%rax, 144(%rsp)
	.loc 1 788 7 is_stmt 1 view .LVU1817
.L463:
.LVL617:
.LBB630:
	.loc 1 797 11 view .LVU1818
	.loc 1 797 37 is_stmt 0 view .LVU1819
	movl	$24, %edi
	call	xmalloc@PLT
.LVL618:
	.loc 1 802 15 view .LVU1820
	movq	devlist_table(%rip), %rdi
	.loc 1 797 37 view .LVU1821
	movq	%rax, %r13
.LVL619:
	.loc 1 798 11 is_stmt 1 view .LVU1822
	.loc 1 798 23 is_stmt 0 view .LVU1823
	movq	%rbp, 8(%rax)
	.loc 1 799 11 is_stmt 1 view .LVU1824
	.loc 1 799 28 is_stmt 0 view .LVU1825
	movq	144(%rsp), %rax
.LVL620:
	.loc 1 800 25 view .LVU1826
	movq	%rbx, 16(%r13)
	.loc 1 802 15 view .LVU1827
	movq	%r13, %rsi
	.loc 1 799 28 view .LVU1828
	movq	%rax, 0(%r13)
	.loc 1 800 11 is_stmt 1 view .LVU1829
	.loc 1 801 11 view .LVU1830
.LVL621:
	.loc 1 802 11 view .LVU1831
	.loc 1 802 15 is_stmt 0 view .LVU1832
	call	hash_insert@PLT
.LVL622:
	.loc 1 802 14 view .LVU1833
	testq	%rax, %rax
	je	.L474
	.loc 1 805 11 is_stmt 1 view .LVU1834
	.loc 1 805 14 is_stmt 0 view .LVU1835
	movq	48(%rbp), %rbp
.LVL623:
	.loc 1 805 14 view .LVU1836
	movq	%r13, %rbx
.LVL624:
.L473:
	.loc 1 805 14 view .LVU1837
.LBE630:
.LBE640:
	.loc 1 720 25 is_stmt 1 view .LVU1838
	.loc 1 720 3 is_stmt 0 view .LVU1839
	testq	%rbp, %rbp
	je	.L695
.LVL625:
.L475:
.LBB641:
	.loc 1 722 7 is_stmt 1 view .LVU1840
	.loc 1 723 7 view .LVU1841
	.loc 1 728 7 view .LVU1842
	.loc 1 728 12 is_stmt 0 view .LVU1843
	movzbl	40(%rbp), %eax
	.loc 1 728 10 view .LVU1844
	testb	$2, %al
	je	.L462
	.loc 1 728 26 view .LVU1845
	cmpb	$0, show_local_fs(%rip)
	jne	.L465
.L462:
	.loc 1 729 11 view .LVU1846
	testb	$1, %al
	je	.L464
	.loc 1 729 28 view .LVU1847
	cmpb	$0, show_all_fs(%rip)
	jne	.L464
	.loc 1 729 44 view .LVU1848
	cmpb	$0, show_listed_fs(%rip)
	je	.L465
.L464:
	.loc 1 730 35 view .LVU1849
	movq	24(%rbp), %r13
	.loc 1 730 16 view .LVU1850
	movq	%r13, %rdi
	call	selected_fstype
.LVL626:
	.loc 1 730 11 view .LVU1851
	testb	%al, %al
	je	.L465
	.loc 1 730 49 view .LVU1852
	movq	%r13, %rdi
	call	excluded_fstype
.LVL627:
	movl	%eax, %r14d
	.loc 1 730 46 view .LVU1853
	testb	%al, %al
	jne	.L465
.LVL628:
.LBB631:
.LBI625:
	.loc 6 453 1 is_stmt 1 view .LVU1854
.LBB628:
	.loc 6 455 3 view .LVU1855
	.loc 6 455 10 is_stmt 0 view .LVU1856
	movq	8(%rbp), %rsi
	movq	(%rsp), %rdx
	movl	$1, %edi
	call	__xstat@PLT
.LVL629:
	.loc 6 455 10 view .LVU1857
.LBE628:
.LBE631:
	.loc 1 731 11 view .LVU1858
	addl	$1, %eax
	je	.L465
.LBB632:
	.loc 1 741 11 is_stmt 1 view .LVU1859
.LBB633:
.LBB634:
	.loc 1 680 21 is_stmt 0 view .LVU1860
	movq	devlist_table(%rip), %rdi
.LBE634:
.LBE633:
	.loc 1 741 38 view .LVU1861
	movq	144(%rsp), %rax
.LVL630:
.LBB636:
.LBI633:
	.loc 1 678 1 is_stmt 1 view .LVU1862
.LBB635:
	.loc 1 680 3 view .LVU1863
	.loc 1 680 6 is_stmt 0 view .LVU1864
	testq	%rdi, %rdi
	je	.L463
	.loc 1 682 3 is_stmt 1 view .LVU1865
	.loc 1 683 3 view .LVU1866
	.loc 1 684 10 is_stmt 0 view .LVU1867
	movq	%r15, %rsi
	.loc 1 683 21 view .LVU1868
	movq	%rax, 112(%rsp)
	.loc 1 684 3 is_stmt 1 view .LVU1869
	.loc 1 684 10 is_stmt 0 view .LVU1870
	call	hash_lookup@PLT
.LVL631:
	.loc 1 684 10 view .LVU1871
	movq	%rax, %r13
.LVL632:
	.loc 1 684 10 view .LVU1872
.LBE635:
.LBE636:
	.loc 1 743 11 is_stmt 1 view .LVU1873
	.loc 1 743 14 is_stmt 0 view .LVU1874
	testq	%rax, %rax
	je	.L463
.LBB637:
	.loc 1 745 15 is_stmt 1 view .LVU1875
	.loc 1 745 57 is_stmt 0 view .LVU1876
	movq	8(%rax), %r12
	.loc 1 748 15 is_stmt 1 view .LVU1877
	.loc 1 748 52 is_stmt 0 view .LVU1878
	movq	16(%r12), %rdi
	.loc 1 750 40 view .LVU1879
	testq	%rdi, %rdi
	je	.L525
	.loc 1 749 45 view .LVU1880
	movq	16(%rbp), %rsi
	.loc 1 749 40 view .LVU1881
	testq	%rsi, %rsi
	je	.L525
	.loc 1 750 44 view .LVU1882
	orq	$-1, %r10
	movl	%r14d, %eax
.LVL633:
	.loc 1 750 44 view .LVU1883
	movq	%r10, %rcx
	repnz scasb
	.loc 1 751 46 view .LVU1884
	movq	%rsi, %rdi
	.loc 1 750 44 view .LVU1885
	notq	%rcx
	movq	%rcx, %rdx
	.loc 1 751 46 view .LVU1886
	movq	%r10, %rcx
	repnz scasb
	.loc 1 750 44 view .LVU1887
	subq	$1, %rdx
	.loc 1 751 46 view .LVU1888
	movq	%rcx, %rax
	notq	%rax
	subq	$1, %rax
	.loc 1 750 40 view .LVU1889
	cmpq	%rax, %rdx
	setb	%al
	movzbl	%al, %eax
	movl	%eax, 16(%rsp)
.L467:
.LVL634:
	.loc 1 752 15 is_stmt 1 view .LVU1890
	.loc 1 752 18 is_stmt 0 view .LVU1891
	cmpb	$0, print_grand_total(%rip)
	movq	0(%rbp), %r14
	jne	.L468
	.loc 1 753 19 view .LVU1892
	testb	$2, 40(%rbp)
	je	.L468
	.loc 1 753 36 view .LVU1893
	testb	$2, 40(%r12)
	je	.L468
	.loc 1 754 24 view .LVU1894
	movq	(%r12), %rdi
	movq	%r14, %rsi
	call	strcmp@PLT
.LVL635:
	.loc 1 754 19 view .LVU1895
	testl	%eax, %eax
	jne	.L463
.L468:
	.loc 1 761 20 is_stmt 1 view .LVU1896
	.loc 1 761 25 is_stmt 0 view .LVU1897
	movl	$47, %esi
	movq	%r14, %rdi
	call	strchr@PLT
.LVL636:
	.loc 1 761 23 view .LVU1898
	testq	%rax, %rax
	je	.L469
	.loc 1 763 30 view .LVU1899
	movq	(%r12), %rdi
	movl	$47, %esi
	call	strchr@PLT
.LVL637:
	.loc 1 763 25 view .LVU1900
	testq	%rax, %rax
	je	.L470
.L469:
	.loc 1 745 61 view .LVU1901
	movq	8(%r12), %r8
	.loc 1 745 41 view .LVU1902
	orq	$-1, %rsi
	xorl	%eax, %eax
	.loc 1 746 53 view .LVU1903
	movq	8(%rbp), %r11
	.loc 1 745 41 view .LVU1904
	movq	%rsi, %rcx
	movq	%r8, %rdi
	repnz scasb
	.loc 1 746 43 view .LVU1905
	movq	%r11, %rdi
	.loc 1 745 41 view .LVU1906
	notq	%rcx
	leaq	-1(%rcx), %rdx
	.loc 1 746 43 view .LVU1907
	movq	%rsi, %rcx
	repnz scasb
	movq	%rcx, %rax
	notq	%rax
	subq	$1, %rax
	.loc 1 765 24 view .LVU1908
	cmpq	%rax, %rdx
	jbe	.L531
	cmpl	$0, 16(%rsp)
	jne	.L531
.LVL638:
.L470:
	.loc 1 776 19 is_stmt 1 view .LVU1909
	.loc 1 777 19 view .LVU1910
	.loc 1 777 32 is_stmt 0 view .LVU1911
	movq	%rbp, 8(%r13)
.LVL639:
.L472:
	.loc 1 777 32 view .LVU1912
.LBE637:
.LBE632:
	.loc 1 788 7 is_stmt 1 view .LVU1913
	.loc 1 790 11 view .LVU1914
	.loc 1 791 14 is_stmt 0 view .LVU1915
	cmpb	$0, 8(%rsp)
	.loc 1 790 14 view .LVU1916
	movq	48(%rbp), %rbp
.LVL640:
	.loc 1 791 11 is_stmt 1 view .LVU1917
	.loc 1 791 14 is_stmt 0 view .LVU1918
	jne	.L473
	.loc 1 792 13 is_stmt 1 view .LVU1919
	movq	%r12, %rdi
	call	free_mount_entry@PLT
.LVL641:
	jmp	.L473
.LVL642:
.L695:
	.loc 1 792 13 is_stmt 0 view .LVU1920
	movzbl	8(%rsp), %r12d
	movq	24(%rsp), %rbp
.LVL643:
.L461:
	.loc 1 792 13 view .LVU1921
.LBE641:
	.loc 1 810 3 is_stmt 1 view .LVU1922
	.loc 1 810 6 is_stmt 0 view .LVU1923
	testb	%r12b, %r12b
	jne	.L476
	.loc 1 811 5 is_stmt 1 view .LVU1924
	.loc 1 811 16 is_stmt 0 view .LVU1925
	movq	$0, mount_list(%rip)
	.loc 1 812 5 is_stmt 1 view .LVU1926
	.loc 1 812 11 is_stmt 0 view .LVU1927
	jmp	.L477
.LVL644:
.L478:
	.loc 1 815 9 is_stmt 1 view .LVU1928
	.loc 1 815 12 is_stmt 0 view .LVU1929
	movq	8(%rbx), %rax
.LVL645:
	.loc 1 816 9 is_stmt 1 view .LVU1930
	.loc 1 818 21 is_stmt 0 view .LVU1931
	movq	16(%rbx), %rbx
.LVL646:
	.loc 1 818 21 view .LVU1932
	movl	$1, %r12d
	.loc 1 816 21 view .LVU1933
	movq	%rbp, 48(%rax)
	.loc 1 817 9 is_stmt 1 view .LVU1934
	.loc 1 818 9 view .LVU1935
.LVL647:
	.loc 1 818 21 is_stmt 0 view .LVU1936
	movq	%rax, %rbp
.LVL648:
.L477:
	.loc 1 812 11 is_stmt 1 view .LVU1937
	testq	%rbx, %rbx
	jne	.L478
	testb	%r12b, %r12b
	je	.L479
	movq	%rbp, mount_list(%rip)
.L479:
	.loc 1 821 7 view .LVU1938
	movq	devlist_table(%rip), %rdi
	call	hash_free@PLT
.LVL649:
	.loc 1 822 7 view .LVU1939
	.loc 1 822 21 is_stmt 0 view .LVU1940
	movq	$0, devlist_table(%rip)
.LVL650:
.L476:
	.loc 1 822 21 view .LVU1941
.LBE623:
.LBE622:
	.loc 1 1473 3 is_stmt 1 view .LVU1942
	.loc 1 1473 11 is_stmt 0 view .LVU1943
	movq	mount_list(%rip), %rbx
.LVL651:
	.loc 1 1473 3 view .LVU1944
	jmp	.L480
.L481:
	.loc 1 1474 5 is_stmt 1 view .LVU1945
	.loc 1 1475 30 is_stmt 0 view .LVU1946
	movzbl	40(%rbx), %r9d
	.loc 1 1474 5 view .LVU1947
	movq	24(%rbx), %r8
	xorl	%ecx, %ecx
	movq	8(%rbx), %rsi
	pushq	%rdx
	.cfi_def_cfa_offset 376
	xorl	%edx, %edx
	movl	%r9d, %eax
	pushq	$1
	.cfi_def_cfa_offset 384
	movq	(%rbx), %rdi
	andl	$1, %r9d
	shrb	%al
	pushq	$0
	.cfi_def_cfa_offset 392
	andl	$1, %eax
	pushq	%rax
	.cfi_def_cfa_offset 400
	call	get_dev
.LVL652:
	.loc 1 1473 29 is_stmt 1 view .LVU1948
	.loc 1 1473 32 is_stmt 0 view .LVU1949
	movq	48(%rbx), %rbx
.LVL653:
	.loc 1 1473 32 view .LVU1950
	addq	$32, %rsp
	.cfi_def_cfa_offset 368
.L480:
	.loc 1 1473 25 is_stmt 1 view .LVU1951
	.loc 1 1473 3 is_stmt 0 view .LVU1952
	testq	%rbx, %rbx
	jne	.L481
	.loc 1 1473 3 view .LVU1953
	jmp	.L457
.LVL654:
.L522:
	.loc 1 1473 3 view .LVU1954
.LBE621:
.LBE620:
.LBB649:
.LBB588:
.LBB580:
.LBB571:
.LBB530:
.LBB524:
.LBB512:
	movl	$1, %r14d
.LVL655:
	.loc 1 1473 3 view .LVU1955
	movq	%rbp, %r12
.LVL656:
	.loc 1 1473 3 view .LVU1956
	jmp	.L440
.LVL657:
.L523:
	.loc 1 1473 3 view .LVU1957
.LBE512:
.LBE524:
	movq	%rbx, %r12
.LVL658:
	.loc 1 1473 3 view .LVU1958
	jmp	.L450
.LVL659:
.L691:
	.loc 1 1408 21 is_stmt 1 view .LVU1959
	movq	8(%rbx), %rdx
	movl	$3, %esi
	xorl	%edi, %edi
	call	quotearg_n_style_colon@PLT
.LVL660:
	movl	0(%r13), %esi
	leaq	.LC5(%rip), %rdx
	xorl	%edi, %edi
	movq	%rax, %rcx
	xorl	%eax, %eax
	call	error@PLT
.LVL661:
	.loc 1 1409 21 view .LVU1960
	.loc 1 1409 33 is_stmt 0 view .LVU1961
	movl	$1, exit_status(%rip)
	jmp	.L449
.LVL662:
.L683:
	.loc 1 1409 33 view .LVU1962
.LBE530:
.LBE571:
.LBB572:
.LBB560:
	.loc 1 1343 7 is_stmt 1 view .LVU1963
	movq	32(%rsp), %rsi
	movl	$4, %edi
	call	quotearg_style@PLT
.LVL663:
	.loc 1 1343 20 is_stmt 0 view .LVU1964
	movl	$5, %edx
	leaq	.LC73(%rip), %rsi
	xorl	%edi, %edi
	.loc 1 1343 7 view .LVU1965
	movq	%rax, %r12
	.loc 1 1343 20 view .LVU1966
	call	dcgettext@PLT
.LVL664:
	.loc 1 1343 7 view .LVU1967
	movq	%r12, %rcx
	xorl	%esi, %esi
	xorl	%edi, %edi
	.loc 1 1343 20 view .LVU1968
	movq	%rax, %rdx
	.loc 1 1343 7 view .LVU1969
	xorl	%eax, %eax
	call	error@PLT
.LVL665:
	.loc 1 1345 7 is_stmt 1 view .LVU1970
	.loc 1 1345 19 is_stmt 0 view .LVU1971
	movl	$1, exit_status(%rip)
	.loc 1 1346 7 is_stmt 1 view .LVU1972
.LVL666:
	.loc 1 1346 7 is_stmt 0 view .LVU1973
	jmp	.L420
.LVL667:
.L525:
	.loc 1 1346 7 view .LVU1974
.LBE560:
.LBE572:
.LBE580:
.LBE588:
.LBE649:
.LBB650:
.LBB647:
.LBB645:
.LBB643:
.LBB642:
.LBB639:
.LBB638:
	.loc 1 750 40 view .LVU1975
	movl	$0, 16(%rsp)
	jmp	.L467
.LVL668:
.L531:
	.loc 1 767 30 view .LVU1976
	movq	(%r12), %rdi
	movq	%r14, %rsi
	movq	%r11, 32(%rsp)
	movq	%r8, 16(%rsp)
.LVL669:
	.loc 1 767 30 view .LVU1977
	call	strcmp@PLT
.LVL670:
	.loc 1 767 24 view .LVU1978
	testl	%eax, %eax
	je	.L527
	.loc 1 772 31 view .LVU1979
	movq	16(%rsp), %r8
	movq	32(%rsp), %r11
	movq	%r8, %rsi
	movq	%r11, %rdi
	call	strcmp@PLT
.LVL671:
	.loc 1 772 28 view .LVU1980
	testl	%eax, %eax
	je	.L470
.L527:
	movq	%rbp, %r12
	jmp	.L472
.LVL672:
.L423:
	.loc 1 772 28 view .LVU1981
.LBE638:
.LBE639:
.LBE642:
.LBE643:
.LBE645:
.LBE647:
.LBE650:
.LBB651:
.LBB589:
.LBB581:
.LBB573:
.LBB561:
	.loc 1 1332 3 is_stmt 1 view .LVU1982
	movq	96(%rsp), %rdi
	call	free@PLT
.LVL673:
	.loc 1 1334 3 view .LVU1983
	jmp	.L499
.LVL674:
.L680:
	.loc 1 1334 3 is_stmt 0 view .LVU1984
.LBE561:
.LBE573:
.LBE581:
.LBE589:
.LBE651:
.LBB652:
.LBB482:
	.loc 1 530 9 is_stmt 1 view .LVU1985
	xorl	%esi, %esi
	movl	$1, %edi
	call	alloc_field
.LVL675:
	jmp	.L418
.L689:
	.loc 1 496 9 view .LVU1986
	xorl	%esi, %esi
	movl	$1, %edi
	call	alloc_field
.LVL676:
	jmp	.L414
.L687:
	.loc 1 507 9 view .LVU1987
	xorl	%esi, %esi
	movl	$1, %edi
	call	alloc_field
.LVL677:
	jmp	.L416
.L688:
	.loc 1 519 9 view .LVU1988
	xorl	%esi, %esi
	movl	$1, %edi
	call	alloc_field
.LVL678:
	jmp	.L417
.LVL679:
.L671:
	.loc 1 519 9 is_stmt 0 view .LVU1989
.LBE482:
.LBE652:
.LBB653:
	.loc 1 1687 15 is_stmt 1 view .LVU1990
	xorl	%edi, %edi
	leaq	.LC57(%rip), %r8
	movq	%r12, %rdx
	xorl	%esi, %esi
	leaq	.LC60(%rip), %rcx
	call	error@PLT
.LVL680:
	.loc 1 1688 15 view .LVU1991
	movl	$1, %edi
	call	usage
.LVL681:
.L679:
	.loc 1 1688 15 is_stmt 0 view .LVU1992
.LBE653:
	.loc 1 1847 1 view .LVU1993
	call	__stack_chk_fail@PLT
.LVL682:
.L474:
.LBB654:
.LBB648:
.LBB646:
.LBB644:
	.loc 1 717 5 is_stmt 1 view .LVU1994
	call	xalloc_die@PLT
.LVL683:
.L407:
	.loc 1 717 5 is_stmt 0 view .LVU1995
.LBE644:
.LBE646:
.LBE648:
.LBE654:
.LBB655:
.LBB483:
	.loc 1 547 7 is_stmt 1 view .LVU1996
	.loc 1 547 7 view .LVU1997
	leaq	__PRETTY_FUNCTION__.9143(%rip), %rcx
	movl	$547, %edx
	leaq	.LC2(%rip), %rsi
	leaq	.LC72(%rip), %rdi
	call	__assert_fail@PLT
.LVL684:
.L672:
	.loc 1 547 7 is_stmt 0 view .LVU1998
.LBE483:
.LBE655:
.LBB656:
	.loc 1 1654 15 is_stmt 1 view .LVU1999
	leaq	.LC57(%rip), %r8
	leaq	.LC60(%rip), %rcx
	jmp	.L666
.L667:
	.loc 1 1646 15 view .LVU2000
	leaq	.LC57(%rip), %r8
	leaq	.LC59(%rip), %rcx
	jmp	.L666
.LBE656:
	.cfi_endproc
.LFE208:
	.size	main, .-main
	.section	.rodata
	.align 8
	.type	__PRETTY_FUNCTION__.9279, @object
	.size	__PRETTY_FUNCTION__.9279, 8
__PRETTY_FUNCTION__.9279:
	.string	"get_dev"
	.data
	.align 4
	.type	tty_out.9082, @object
	.size	tty_out.9082, 4
tty_out.9082:
	.long	-1
	.section	.rodata
	.align 8
	.type	__PRETTY_FUNCTION__.9143, @object
	.size	__PRETTY_FUNCTION__.9143, 15
__PRETTY_FUNCTION__.9143:
	.string	"get_field_list"
	.align 8
	.type	__PRETTY_FUNCTION__.9104, @object
	.size	__PRETTY_FUNCTION__.9104, 12
__PRETTY_FUNCTION__.9104:
	.string	"alloc_field"
	.section	.rodata.str1.1
.LC76:
	.string	"all"
.LC77:
	.string	"block-size"
.LC78:
	.string	"inodes"
.LC79:
	.string	"human-readable"
.LC80:
	.string	"si"
.LC81:
	.string	"local"
.LC82:
	.string	"output"
.LC83:
	.string	"portability"
.LC84:
	.string	"print-type"
.LC85:
	.string	"sync"
.LC86:
	.string	"no-sync"
.LC87:
	.string	"type"
.LC88:
	.string	"exclude-type"
.LC89:
	.string	"help"
.LC90:
	.string	"version"
	.section	.data.rel.ro.local,"aw"
	.align 32
	.type	long_options, @object
	.size	long_options, 544
long_options:
	.quad	.LC76
	.long	0
	.zero	4
	.quad	0
	.long	97
	.zero	4
	.quad	.LC77
	.long	1
	.zero	4
	.quad	0
	.long	66
	.zero	4
	.quad	.LC78
	.long	0
	.zero	4
	.quad	0
	.long	105
	.zero	4
	.quad	.LC79
	.long	0
	.zero	4
	.quad	0
	.long	104
	.zero	4
	.quad	.LC80
	.long	0
	.zero	4
	.quad	0
	.long	72
	.zero	4
	.quad	.LC81
	.long	0
	.zero	4
	.quad	0
	.long	108
	.zero	4
	.quad	.LC82
	.long	2
	.zero	4
	.quad	0
	.long	131
	.zero	4
	.quad	.LC83
	.long	0
	.zero	4
	.quad	0
	.long	80
	.zero	4
	.quad	.LC84
	.long	0
	.zero	4
	.quad	0
	.long	84
	.zero	4
	.quad	.LC85
	.long	0
	.zero	4
	.quad	0
	.long	129
	.zero	4
	.quad	.LC86
	.long	0
	.zero	4
	.quad	0
	.long	128
	.zero	4
	.quad	.LC53
	.long	0
	.zero	4
	.quad	0
	.long	130
	.zero	4
	.quad	.LC87
	.long	1
	.zero	4
	.quad	0
	.long	116
	.zero	4
	.quad	.LC88
	.long	1
	.zero	4
	.quad	0
	.long	120
	.zero	4
	.quad	.LC89
	.long	0
	.zero	4
	.quad	0
	.long	-130
	.zero	4
	.quad	.LC90
	.long	0
	.zero	4
	.quad	0
	.long	-131
	.zero	4
	.quad	0
	.long	0
	.zero	4
	.quad	0
	.long	0
	.zero	4
	.local	nrows
	.comm	nrows,8,8
	.local	table
	.comm	table,8,8
	.local	ncolumns
	.comm	ncolumns,8,8
	.local	columns
	.comm	columns,8,8
	.section	.rodata.str1.1
.LC91:
	.string	"source"
.LC92:
	.string	"Filesystem"
.LC93:
	.string	"fstype"
.LC94:
	.string	"Type"
.LC95:
	.string	"size"
.LC96:
	.string	"used"
.LC97:
	.string	"Used"
.LC98:
	.string	"avail"
.LC99:
	.string	"Available"
.LC100:
	.string	"pcent"
.LC101:
	.string	"Use%"
.LC102:
	.string	"itotal"
.LC103:
	.string	"Inodes"
.LC104:
	.string	"iused"
.LC105:
	.string	"IUsed"
.LC106:
	.string	"iavail"
.LC107:
	.string	"IFree"
.LC108:
	.string	"ipcent"
.LC109:
	.string	"IUse%"
.LC110:
	.string	"target"
.LC111:
	.string	"Mounted on"
.LC112:
	.string	"file"
.LC113:
	.string	"File"
	.section	.data.rel.local,"aw"
	.align 32
	.type	field_data, @object
	.size	field_data, 576
field_data:
	.long	0
	.zero	4
	.quad	.LC91
	.long	2
	.zero	4
	.quad	.LC92
	.quad	14
	.long	0
	.byte	0
	.zero	3
	.long	1
	.zero	4
	.quad	.LC93
	.long	2
	.zero	4
	.quad	.LC94
	.quad	4
	.long	0
	.byte	0
	.zero	3
	.long	2
	.zero	4
	.quad	.LC95
	.long	0
	.zero	4
	.quad	.LC0
	.quad	5
	.long	1
	.byte	0
	.zero	3
	.long	3
	.zero	4
	.quad	.LC96
	.long	0
	.zero	4
	.quad	.LC97
	.quad	5
	.long	1
	.byte	0
	.zero	3
	.long	4
	.zero	4
	.quad	.LC98
	.long	0
	.zero	4
	.quad	.LC99
	.quad	5
	.long	1
	.byte	0
	.zero	3
	.long	5
	.zero	4
	.quad	.LC100
	.long	0
	.zero	4
	.quad	.LC101
	.quad	4
	.long	1
	.byte	0
	.zero	3
	.long	6
	.zero	4
	.quad	.LC102
	.long	1
	.zero	4
	.quad	.LC103
	.quad	5
	.long	1
	.byte	0
	.zero	3
	.long	7
	.zero	4
	.quad	.LC104
	.long	1
	.zero	4
	.quad	.LC105
	.quad	5
	.long	1
	.byte	0
	.zero	3
	.long	8
	.zero	4
	.quad	.LC106
	.long	1
	.zero	4
	.quad	.LC107
	.quad	5
	.long	1
	.byte	0
	.zero	3
	.long	9
	.zero	4
	.quad	.LC108
	.long	1
	.zero	4
	.quad	.LC109
	.quad	4
	.long	1
	.byte	0
	.zero	3
	.long	10
	.zero	4
	.quad	.LC110
	.long	2
	.zero	4
	.quad	.LC111
	.quad	0
	.long	0
	.byte	0
	.zero	3
	.long	11
	.zero	4
	.quad	.LC112
	.long	2
	.zero	4
	.quad	.LC113
	.quad	0
	.long	0
	.byte	0
	.zero	3
	.local	header_mode
	.comm	header_mode,4,4
	.local	grand_fsu
	.comm	grand_fsu,56,32
	.local	print_grand_total
	.comm	print_grand_total,1,1
	.local	print_type
	.comm	print_type,1,1
	.local	mount_list
	.comm	mount_list,8,8
	.local	fs_exclude_list
	.comm	fs_exclude_list,8,8
	.local	fs_select_list
	.comm	fs_select_list,8,8
	.local	exit_status
	.comm	exit_status,4,4
	.local	require_sync
	.comm	require_sync,1,1
	.local	file_systems_processed
	.comm	file_systems_processed,1,1
	.local	output_block_size
	.comm	output_block_size,8,8
	.local	human_output_opts
	.comm	human_output_opts,4,4
	.local	show_listed_fs
	.comm	show_listed_fs,1,1
	.local	show_local_fs
	.comm	show_local_fs,1,1
	.local	show_all_fs
	.comm	show_all_fs,1,1
	.local	devlist_table
	.comm	devlist_table,8,8
	.section	.rodata.cst16,"aM",@progbits,16
	.align 16
.LC8:
	.long	0
	.long	-2147483648
	.long	0
	.long	0
	.section	.rodata.cst8,"aM",@progbits,8
	.align 8
.LC10:
	.long	0
	.long	1079574528
	.align 8
.LC11:
	.long	0
	.long	1072693248
	.text
.Letext0:
	.file 10 "/usr/lib/gcc/x86_64-linux-gnu/9/include/stddef.h"
	.file 11 "/usr/include/x86_64-linux-gnu/bits/types.h"
	.file 12 "/usr/include/x86_64-linux-gnu/bits/types/__mbstate_t.h"
	.file 13 "/usr/include/x86_64-linux-gnu/bits/types/struct_FILE.h"
	.file 14 "/usr/include/x86_64-linux-gnu/bits/types/FILE.h"
	.file 15 "/usr/include/stdio.h"
	.file 16 "/usr/include/x86_64-linux-gnu/bits/sys_errlist.h"
	.file 17 "/usr/include/x86_64-linux-gnu/sys/types.h"
	.file 18 "/usr/include/x86_64-linux-gnu/bits/types/time_t.h"
	.file 19 "/usr/include/x86_64-linux-gnu/bits/types/struct_timespec.h"
	.file 20 "./lib/sys/select.h"
	.file 21 "/usr/include/x86_64-linux-gnu/bits/getopt_core.h"
	.file 22 "/usr/include/x86_64-linux-gnu/bits/getopt_ext.h"
	.file 23 "/usr/include/x86_64-linux-gnu/bits/types/mbstate_t.h"
	.file 24 "/usr/include/time.h"
	.file 25 "/usr/include/x86_64-linux-gnu/bits/stat.h"
	.file 26 "/usr/include/signal.h"
	.file 27 "/usr/include/unistd.h"
	.file 28 "/usr/include/errno.h"
	.file 29 "src/version.h"
	.file 30 "./lib/exitfail.h"
	.file 31 "/usr/include/stdint.h"
	.file 32 "./lib/timespec.h"
	.file 33 "./lib/xalloc-oversized.h"
	.file 34 "./lib/version-etc.h"
	.file 35 "./lib/progname.h"
	.file 36 "./lib/quotearg.h"
	.file 37 "./lib/canonicalize.h"
	.file 38 "./lib/error.h"
	.file 39 "./lib/fsusage.h"
	.file 40 "./lib/xstrtol.h"
	.file 41 "./lib/human.h"
	.file 42 "./lib/mbsalign.h"
	.file 43 "./lib/mountlist.h"
	.file 44 "./lib/quote.h"
	.file 45 "./lib/hash.h"
	.file 46 "./lib/xstrtol-error.h"
	.file 47 "/usr/include/stdlib.h"
	.file 48 "/usr/include/string.h"
	.file 49 "/usr/include/libintl.h"
	.file 50 "src/find-mount-point.h"
	.file 51 "/usr/include/assert.h"
	.file 52 "/usr/include/locale.h"
	.file 53 "./lib/stdio.h"
	.file 54 "./lib/mbswidth.h"
	.file 55 "./lib/inttostr.h"
	.file 56 "/usr/include/x86_64-linux-gnu/bits/wctype-wchar.h"
	.file 57 "./lib/wchar.h"
	.file 58 "<built-in>"
	.section	.note.GNU-stack,"",@progbits
	.section	.note.gnu.property,"a"
	.align 8
	.long	 1f - 0f
	.long	 4f - 1f
	.long	 5
0:
	.string	 "GNU"
1:
	.align 8
	.long	 0xc0000002
	.long	 3f - 2f
2:
	.long	 0x3
3:
	.align 8
4:
