	.file	"dirname.c"
	.text
.Ltext0:
	.section	.rodata.str1.1,"aMS",@progbits,1
.LC0:
	.string	"dirname"
.LC1:
	.string	" invocation"
.LC2:
	.string	""
	.section	.rodata.str1.8,"aMS",@progbits,1
	.align 8
.LC3:
	.string	"Try '%s --help' for more information.\n"
	.section	.rodata.str1.1
.LC4:
	.string	"Usage: %s [OPTION] NAME...\n"
	.section	.rodata.str1.8
	.align 8
.LC5:
	.string	"Output each NAME with its last non-slash component and trailing slashes\nremoved; if NAME contains no /'s, output '.' (meaning the current directory).\n\n"
	.align 8
.LC6:
	.string	"  -z, --zero     end each output line with NUL, not newline\n"
	.align 8
.LC7:
	.string	"      --help     display this help and exit\n"
	.align 8
.LC8:
	.string	"      --version  output version information and exit\n"
	.align 8
.LC9:
	.string	"\nExamples:\n  %s /usr/bin/          -> \"/usr\"\n  %s dir1/str dir2/str  -> \"dir1\" followed by \"dir2\"\n  %s stdio.h            -> \".\"\n"
	.section	.rodata.str1.1
.LC10:
	.string	"["
.LC11:
	.string	"test invocation"
.LC12:
	.string	"coreutils"
.LC13:
	.string	"Multi-call invocation"
.LC14:
	.string	"sha224sum"
.LC15:
	.string	"sha2 utilities"
.LC16:
	.string	"sha256sum"
.LC17:
	.string	"sha384sum"
.LC18:
	.string	"sha512sum"
.LC19:
	.string	"\n%s online help: <%s>\n"
	.section	.rodata.str1.8
	.align 8
.LC20:
	.string	"https://www.gnu.org/software/coreutils/"
	.section	.rodata.str1.1
.LC21:
	.string	"GNU coreutils"
.LC22:
	.string	"en_"
	.section	.rodata.str1.8
	.align 8
.LC23:
	.string	"Report any translation bugs to <https://translationproject.org/team/>\n"
	.section	.rodata.str1.1
.LC24:
	.string	"Full documentation <%s%s>\n"
	.section	.rodata.str1.8
	.align 8
.LC25:
	.string	"or available locally via: info '(coreutils) %s%s'\n"
	.text
	.p2align 4
	.globl	usage
	.type	usage, @function
usage:
.LVL0:
.LFB135:
	.file 1 "src/dirname.c"
	.loc 1 45 1 view -0
	.cfi_startproc
	.loc 1 45 1 is_stmt 0 view .LVU1
	endbr64
	pushq	%r13
	.cfi_def_cfa_offset 16
	.cfi_offset 13, -16
	.loc 1 47 5 view .LVU2
	movl	$5, %edx
	.loc 1 45 1 view .LVU3
	pushq	%r12
	.cfi_def_cfa_offset 24
	.cfi_offset 12, -24
	pushq	%rbp
	.cfi_def_cfa_offset 32
	.cfi_offset 6, -32
	movl	%edi, %ebp
	pushq	%rbx
	.cfi_def_cfa_offset 40
	.cfi_offset 3, -40
	subq	$136, %rsp
	.cfi_def_cfa_offset 176
	movq	program_name(%rip), %r12
	.loc 1 45 1 view .LVU4
	movq	%fs:40, %rax
	movq	%rax, 120(%rsp)
	xorl	%eax, %eax
	.loc 1 46 3 is_stmt 1 view .LVU5
	.loc 1 46 6 is_stmt 0 view .LVU6
	testl	%edi, %edi
	je	.L2
	.loc 1 47 5 is_stmt 1 view .LVU7
	.loc 1 47 5 view .LVU8
	leaq	.LC3(%rip), %rsi
	xorl	%edi, %edi
.LVL1:
	.loc 1 47 5 is_stmt 0 view .LVU9
	call	dcgettext@PLT
.LVL2:
.LBB40:
.LBB41:
	.file 2 "/usr/include/x86_64-linux-gnu/bits/stdio2.h"
	.loc 2 100 10 view .LVU10
	movq	stderr(%rip), %rdi
	movq	%r12, %rcx
	movl	$1, %esi
.LBE41:
.LBE40:
	.loc 1 47 5 view .LVU11
	movq	%rax, %rdx
.LVL3:
.LBB43:
.LBI40:
	.loc 2 98 1 is_stmt 1 view .LVU12
.LBB42:
	.loc 2 100 3 view .LVU13
	.loc 2 100 10 is_stmt 0 view .LVU14
	xorl	%eax, %eax
.LVL4:
	.loc 2 100 10 view .LVU15
	call	__fprintf_chk@PLT
.LVL5:
.L3:
	.loc 2 100 10 view .LVU16
.LBE42:
.LBE43:
	.loc 1 74 3 is_stmt 1 view .LVU17
	movl	%ebp, %edi
	call	exit@PLT
.LVL6:
.L2:
	.loc 1 50 7 view .LVU18
	.loc 1 50 15 is_stmt 0 view .LVU19
	leaq	.LC4(%rip), %rsi
	xorl	%edi, %edi
.LVL7:
.LBB44:
.LBB45:
	.file 3 "src/system.h"
	.loc 3 636 67 view .LVU20
	leaq	.LC16(%rip), %rbx
.LBE45:
.LBE44:
	.loc 1 50 15 view .LVU21
	call	dcgettext@PLT
.LVL8:
.LBB71:
.LBB72:
	.loc 2 107 10 view .LVU22
	movq	%r12, %rdx
	movl	$1, %edi
.LBE72:
.LBE71:
	.loc 1 50 15 view .LVU23
	movq	%rax, %rsi
.LVL9:
.LBB74:
.LBI71:
	.loc 2 105 1 is_stmt 1 view .LVU24
.LBB73:
	.loc 2 107 3 view .LVU25
	.loc 2 107 10 is_stmt 0 view .LVU26
	xorl	%eax, %eax
.LVL10:
	.loc 2 107 10 view .LVU27
	call	__printf_chk@PLT
.LVL11:
	.loc 2 107 10 view .LVU28
.LBE73:
.LBE74:
	.loc 1 54 7 is_stmt 1 view .LVU29
	movq	stdout(%rip), %r12
	movl	$5, %edx
	xorl	%edi, %edi
	leaq	.LC5(%rip), %rsi
	call	dcgettext@PLT
.LVL12:
	movq	%r12, %rsi
	movq	%rax, %rdi
	call	fputs_unlocked@PLT
.LVL13:
	.loc 1 59 7 view .LVU30
	movq	stdout(%rip), %r12
	movl	$5, %edx
	xorl	%edi, %edi
	leaq	.LC6(%rip), %rsi
	call	dcgettext@PLT
.LVL14:
	movq	%r12, %rsi
	movq	%rax, %rdi
	call	fputs_unlocked@PLT
.LVL15:
	.loc 1 62 7 view .LVU31
	movq	stdout(%rip), %r12
	movl	$5, %edx
	xorl	%edi, %edi
	leaq	.LC7(%rip), %rsi
	call	dcgettext@PLT
.LVL16:
	movq	%r12, %rsi
	movq	%rax, %rdi
	call	fputs_unlocked@PLT
.LVL17:
	.loc 1 63 7 view .LVU32
	movq	stdout(%rip), %r12
	movl	$5, %edx
	xorl	%edi, %edi
	leaq	.LC8(%rip), %rsi
	call	dcgettext@PLT
.LVL18:
	movq	%r12, %rsi
	movq	%rax, %rdi
	call	fputs_unlocked@PLT
.LVL19:
	.loc 1 64 7 view .LVU33
	movq	program_name(%rip), %r12
	.loc 1 64 15 is_stmt 0 view .LVU34
	movl	$5, %edx
	xorl	%edi, %edi
	leaq	.LC9(%rip), %rsi
	call	dcgettext@PLT
.LVL20:
.LBB75:
.LBB76:
	.loc 2 107 10 view .LVU35
	movq	%r12, %r8
	movq	%r12, %rcx
	movq	%r12, %rdx
.LBE76:
.LBE75:
	.loc 1 64 15 view .LVU36
	movq	%rax, %rsi
.LVL21:
.LBB78:
.LBI75:
	.loc 2 105 1 is_stmt 1 view .LVU37
.LBB77:
	.loc 2 107 3 view .LVU38
	.loc 2 107 10 is_stmt 0 view .LVU39
	movl	$1, %edi
	xorl	%eax, %eax
.LVL22:
	.loc 2 107 10 view .LVU40
	call	__printf_chk@PLT
.LVL23:
	.loc 2 107 10 view .LVU41
.LBE77:
.LBE78:
	.loc 1 72 7 is_stmt 1 view .LVU42
.LBB79:
.LBI44:
	.loc 3 634 1 view .LVU43
.LBB70:
	.loc 3 636 3 view .LVU44
	.loc 3 636 67 is_stmt 0 view .LVU45
	leaq	.LC10(%rip), %rax
	movq	%rbx, 48(%rsp)
	leaq	.LC17(%rip), %rbx
	movq	%rax, (%rsp)
	leaq	.LC11(%rip), %rax
	movq	%rax, 8(%rsp)
	leaq	.LC12(%rip), %rax
	movq	%rax, 16(%rsp)
	leaq	.LC13(%rip), %rax
	movq	%rax, 24(%rsp)
	leaq	.LC14(%rip), %rax
	movq	$0, 96(%rsp)
	movq	$0, 104(%rsp)
	.loc 3 646 3 is_stmt 1 view .LVU46
.LVL24:
	.loc 3 647 3 view .LVU47
	.loc 3 649 3 view .LVU48
	.loc 3 649 9 view .LVU49
	.loc 3 636 67 is_stmt 0 view .LVU50
	movq	%rax, 32(%rsp)
	leaq	.LC15(%rip), %rax
	movq	%rbx, 64(%rsp)
	leaq	.LC18(%rip), %rbx
	movq	%rax, 40(%rsp)
	movq	%rax, 56(%rsp)
	movq	%rax, 72(%rsp)
	movq	%rbx, 80(%rsp)
	leaq	.LC0(%rip), %rbx
	movq	%rax, 88(%rsp)
	.loc 3 647 25 view .LVU51
	movq	%rsp, %rax
.LVL25:
	.p2align 4,,10
	.p2align 3
.L5:
	.loc 3 650 5 is_stmt 1 view .LVU52
	.loc 3 649 18 is_stmt 0 view .LVU53
	movq	16(%rax), %rdi
	.loc 3 650 13 view .LVU54
	addq	$16, %rax
.LVL26:
	.loc 3 649 9 is_stmt 1 view .LVU55
	testq	%rdi, %rdi
	je	.L4
	.loc 3 649 33 is_stmt 0 view .LVU56
	movl	$8, %ecx
	movq	%rbx, %rsi
	repz cmpsb
	seta	%dl
	sbbb	$0, %dl
	.loc 3 649 28 view .LVU57
	testb	%dl, %dl
	jne	.L5
.L4:
	.loc 3 652 3 is_stmt 1 view .LVU58
	.loc 3 652 15 is_stmt 0 view .LVU59
	movq	8(%rax), %r12
	.loc 3 655 11 view .LVU60
	movl	$5, %edx
	leaq	.LC19(%rip), %rsi
	xorl	%edi, %edi
	.loc 3 652 6 view .LVU61
	testq	%r12, %r12
	je	.L6
	.loc 3 653 5 is_stmt 1 view .LVU62
.LVL27:
	.loc 3 655 3 view .LVU63
	.loc 3 655 11 is_stmt 0 view .LVU64
	call	dcgettext@PLT
.LVL28:
.LBB46:
.LBB47:
	.loc 2 107 10 view .LVU65
	leaq	.LC20(%rip), %rcx
	movl	$1, %edi
	leaq	.LC21(%rip), %rdx
.LBE47:
.LBE46:
	.loc 3 655 11 view .LVU66
	movq	%rax, %rsi
.LVL29:
.LBB51:
.LBI46:
	.loc 2 105 1 is_stmt 1 view .LVU67
.LBB48:
	.loc 2 107 3 view .LVU68
	.loc 2 107 10 is_stmt 0 view .LVU69
	xorl	%eax, %eax
.LVL30:
	.loc 2 107 10 view .LVU70
	call	__printf_chk@PLT
.LVL31:
	.loc 2 107 10 view .LVU71
.LBE48:
.LBE51:
	.loc 3 659 3 is_stmt 1 view .LVU72
	.loc 3 659 29 is_stmt 0 view .LVU73
	movl	$5, %edi
	xorl	%esi, %esi
	call	setlocale@PLT
.LVL32:
	movq	%rax, %rdi
.LVL33:
	.loc 3 660 3 is_stmt 1 view .LVU74
	.loc 3 660 6 is_stmt 0 view .LVU75
	testq	%rax, %rax
	je	.L7
	.loc 3 660 22 view .LVU76
	movl	$3, %edx
	leaq	.LC22(%rip), %rsi
	call	strncmp@PLT
.LVL34:
	.loc 3 660 19 view .LVU77
	testl	%eax, %eax
	jne	.L10
.LVL35:
.L7:
	.loc 3 669 3 is_stmt 1 view .LVU78
	.loc 3 669 11 is_stmt 0 view .LVU79
	xorl	%edi, %edi
	movl	$5, %edx
	leaq	.LC24(%rip), %rsi
	call	dcgettext@PLT
.LVL36:
.LBB52:
.LBB53:
	.loc 2 107 10 view .LVU80
	leaq	.LC0(%rip), %rcx
	leaq	.LC20(%rip), %rdx
	movl	$1, %edi
.LBE53:
.LBE52:
	.loc 3 669 11 view .LVU81
	movq	%rax, %rsi
.LVL37:
.LBB59:
.LBI52:
	.loc 2 105 1 is_stmt 1 view .LVU82
.LBB54:
	.loc 2 107 3 view .LVU83
	.loc 2 107 10 is_stmt 0 view .LVU84
	xorl	%eax, %eax
.LVL38:
	.loc 2 107 10 view .LVU85
.LBE54:
.LBE59:
	.loc 3 671 3 view .LVU86
	leaq	.LC1(%rip), %r13
.LBB60:
.LBB55:
	.loc 2 107 10 view .LVU87
	call	__printf_chk@PLT
.LVL39:
	.loc 2 107 10 view .LVU88
.LBE55:
.LBE60:
	.loc 3 671 3 is_stmt 1 view .LVU89
	cmpq	%rbx, %r12
	leaq	.LC2(%rip), %rcx
	cmovne	%rcx, %r13
.L8:
	.loc 3 671 11 is_stmt 0 view .LVU90
	xorl	%edi, %edi
	leaq	.LC25(%rip), %rsi
	movl	$5, %edx
	call	dcgettext@PLT
.LVL40:
.LBB61:
.LBB62:
	.loc 2 107 10 view .LVU91
	movq	%r13, %rcx
	movq	%r12, %rdx
	movl	$1, %edi
.LBE62:
.LBE61:
	.loc 3 671 11 view .LVU92
	movq	%rax, %rsi
.LVL41:
.LBB64:
.LBI61:
	.loc 2 105 1 is_stmt 1 view .LVU93
.LBB63:
	.loc 2 107 3 view .LVU94
	.loc 2 107 10 is_stmt 0 view .LVU95
	xorl	%eax, %eax
.LVL42:
	.loc 2 107 10 view .LVU96
	call	__printf_chk@PLT
.LVL43:
	.loc 2 107 10 view .LVU97
.LBE63:
.LBE64:
	.loc 3 673 1 view .LVU98
	jmp	.L3
.LVL44:
.L6:
	.loc 3 655 3 is_stmt 1 view .LVU99
	.loc 3 655 11 is_stmt 0 view .LVU100
	call	dcgettext@PLT
.LVL45:
.LBB65:
.LBB49:
	.loc 2 107 10 view .LVU101
	leaq	.LC20(%rip), %rcx
	movl	$1, %edi
	leaq	.LC21(%rip), %rdx
.LBE49:
.LBE65:
	.loc 3 655 11 view .LVU102
	movq	%rax, %rsi
.LVL46:
.LBB66:
	.loc 2 105 1 is_stmt 1 view .LVU103
.LBB50:
	.loc 2 107 3 view .LVU104
	.loc 2 107 10 is_stmt 0 view .LVU105
	xorl	%eax, %eax
.LVL47:
	.loc 2 107 10 view .LVU106
	call	__printf_chk@PLT
.LVL48:
	.loc 2 107 10 view .LVU107
.LBE50:
.LBE66:
	.loc 3 659 3 is_stmt 1 view .LVU108
	.loc 3 659 29 is_stmt 0 view .LVU109
	movl	$5, %edi
	xorl	%esi, %esi
	call	setlocale@PLT
.LVL49:
	movq	%rax, %rdi
.LVL50:
	.loc 3 660 3 is_stmt 1 view .LVU110
	.loc 3 660 6 is_stmt 0 view .LVU111
	testq	%rax, %rax
	je	.L9
	.loc 3 660 22 view .LVU112
	movl	$3, %edx
	leaq	.LC22(%rip), %rsi
	call	strncmp@PLT
.LVL51:
	.loc 3 660 19 view .LVU113
	testl	%eax, %eax
	jne	.L29
.L9:
	.loc 3 669 3 is_stmt 1 view .LVU114
	.loc 3 669 11 is_stmt 0 view .LVU115
	movl	$5, %edx
	leaq	.LC24(%rip), %rsi
	xorl	%edi, %edi
	call	dcgettext@PLT
.LVL52:
.LBB67:
.LBB56:
	.loc 2 107 10 view .LVU116
	leaq	.LC0(%rip), %rcx
	leaq	.LC20(%rip), %rdx
	movl	$1, %edi
.LBE56:
.LBE67:
	.loc 3 669 11 view .LVU117
	movq	%rax, %rsi
.LVL53:
.LBB68:
	.loc 2 105 1 is_stmt 1 view .LVU118
.LBB57:
	.loc 2 107 3 view .LVU119
	.loc 2 107 10 is_stmt 0 view .LVU120
	xorl	%eax, %eax
.LVL54:
	.loc 2 107 10 view .LVU121
.LBE57:
.LBE68:
	.loc 3 646 15 view .LVU122
	leaq	.LC0(%rip), %r12
.LBB69:
.LBB58:
	.loc 2 107 10 view .LVU123
	call	__printf_chk@PLT
.LVL55:
	.loc 2 107 10 view .LVU124
.LBE58:
.LBE69:
	.loc 3 671 3 is_stmt 1 view .LVU125
	leaq	.LC1(%rip), %r13
	jmp	.L8
.L29:
	.loc 3 646 15 is_stmt 0 view .LVU126
	leaq	.LC0(%rip), %r12
.LVL56:
.L10:
	.loc 3 666 7 is_stmt 1 view .LVU127
	movq	stdout(%rip), %r13
	xorl	%edi, %edi
	movl	$5, %edx
	leaq	.LC23(%rip), %rsi
	call	dcgettext@PLT
.LVL57:
	movq	%rax, %rdi
	movq	%r13, %rsi
	call	fputs_unlocked@PLT
.LVL58:
	jmp	.L7
.LBE70:
.LBE79:
	.cfi_endproc
.LFE135:
	.size	usage, .-usage
	.section	.rodata.str1.1
.LC26:
	.string	"/usr/local/share/locale"
.LC27:
	.string	"z"
.LC28:
	.string	"Jim Meyering"
.LC29:
	.string	"David MacKenzie"
.LC30:
	.string	"missing operand"
	.section	.text.startup,"ax",@progbits
	.p2align 4
	.globl	main
	.type	main, @function
main:
.LVL59:
.LFB136:
	.loc 1 79 1 view -0
	.cfi_startproc
	.loc 1 79 1 is_stmt 0 view .LVU129
	endbr64
	.loc 1 80 3 is_stmt 1 view .LVU130
	.loc 1 81 3 view .LVU131
.LVL60:
	.loc 1 82 3 view .LVU132
	.loc 1 83 3 view .LVU133
	.loc 1 85 33 view .LVU134
	.loc 1 86 3 view .LVU135
	.loc 1 79 1 is_stmt 0 view .LVU136
	pushq	%r14
	.cfi_def_cfa_offset 16
	.cfi_offset 14, -16
	pushq	%r13
	.cfi_def_cfa_offset 24
	.cfi_offset 13, -24
	pushq	%r12
	.cfi_def_cfa_offset 32
	.cfi_offset 12, -32
	.loc 1 81 8 view .LVU137
	xorl	%r12d, %r12d
	.loc 1 79 1 view .LVU138
	pushq	%rbp
	.cfi_def_cfa_offset 40
	.cfi_offset 6, -40
	movl	%edi, %ebp
	pushq	%rbx
	.cfi_def_cfa_offset 48
	.cfi_offset 3, -48
	.loc 1 86 3 view .LVU139
	movq	(%rsi), %rdi
.LVL61:
	.loc 1 79 1 view .LVU140
	movq	%rsi, %rbx
	.loc 1 86 3 view .LVU141
	call	set_program_name@PLT
.LVL62:
	.loc 1 87 3 is_stmt 1 view .LVU142
	leaq	.LC2(%rip), %rsi
	movl	$6, %edi
	call	setlocale@PLT
.LVL63:
	.loc 1 88 3 view .LVU143
	leaq	.LC26(%rip), %rsi
	leaq	.LC12(%rip), %rdi
	call	bindtextdomain@PLT
.LVL64:
	.loc 1 89 3 view .LVU144
	leaq	.LC12(%rip), %rdi
	call	textdomain@PLT
.LVL65:
	.loc 1 91 3 view .LVU145
	movq	close_stdout@GOTPCREL(%rip), %rdi
	call	atexit@PLT
.LVL66:
.L33:
	.loc 1 93 3 view .LVU146
.LBB80:
	.loc 1 95 7 view .LVU147
	.loc 1 95 15 is_stmt 0 view .LVU148
	xorl	%r8d, %r8d
	leaq	longopts(%rip), %rcx
	movq	%rbx, %rsi
	movl	%ebp, %edi
	leaq	.LC27(%rip), %rdx
	call	getopt_long@PLT
.LVL67:
	.loc 1 97 7 is_stmt 1 view .LVU149
	.loc 1 97 10 is_stmt 0 view .LVU150
	cmpl	$-1, %eax
	je	.L31
	.loc 1 100 7 is_stmt 1 view .LVU151
	cmpl	$-130, %eax
	je	.L32
	movl	$1, %r12d
.LVL68:
	.loc 1 100 7 is_stmt 0 view .LVU152
	cmpl	$122, %eax
	je	.L33
	cmpl	$-131, %eax
	je	.L53
.LVL69:
.L52:
	.loc 1 100 7 view .LVU153
.LBE80:
	.loc 1 117 7 is_stmt 1 view .LVU154
	movl	$1, %edi
	call	usage
.LVL70:
	.p2align 4,,10
	.p2align 3
.L53:
.LBB81:
	.loc 1 106 9 view .LVU155
	.loc 1 106 30 view .LVU156
	.loc 1 107 9 view .LVU157
	subq	$8, %rsp
	.cfi_remember_state
	.cfi_def_cfa_offset 56
	movq	stdout(%rip), %rdi
	xorl	%eax, %eax
.LVL71:
	.loc 1 107 9 is_stmt 0 view .LVU158
	movq	Version(%rip), %rcx
	pushq	$0
	.cfi_def_cfa_offset 64
	leaq	.LC28(%rip), %r9
	leaq	.LC29(%rip), %r8
	leaq	.LC21(%rip), %rdx
	leaq	.LC0(%rip), %rsi
	call	version_etc@PLT
.LVL72:
	.loc 1 107 9 is_stmt 1 view .LVU159
	xorl	%edi, %edi
	call	exit@PLT
.LVL73:
.L31:
	.cfi_restore_state
	.loc 1 107 9 is_stmt 0 view .LVU160
.LBE81:
	.loc 1 114 3 is_stmt 1 view .LVU161
	.loc 1 114 12 is_stmt 0 view .LVU162
	movl	optind(%rip), %eax
.LVL74:
	.loc 1 114 6 view .LVU163
	cmpl	%ebp, %eax
	jge	.L54
	.loc 1 120 10 is_stmt 1 view .LVU164
	cmpb	$1, %r12b
	sbbl	%r13d, %r13d
	andl	$10, %r13d
.LBB82:
.LBB83:
	.file 4 "/usr/include/x86_64-linux-gnu/bits/stdio.h"
	.loc 4 110 10 is_stmt 0 view .LVU165
	movl	%r13d, %r12d
.LVL75:
	.loc 4 110 10 view .LVU166
	jmp	.L42
.LVL76:
.L37:
	.loc 4 110 10 view .LVU167
.LBE83:
.LBE82:
	.loc 1 127 11 is_stmt 1 view .LVU168
	.loc 1 128 11 view .LVU169
	.loc 1 131 7 view .LVU170
.LBB86:
	.loc 1 131 7 view .LVU171
	.loc 1 131 7 view .LVU172
	.loc 1 131 7 view .LVU173
	.loc 1 131 7 view .LVU174
	.loc 1 131 7 view .LVU175
	.loc 1 131 7 view .LVU176
.LBB87:
.LBI87:
	.loc 4 101 1 view .LVU177
.LBB88:
	.loc 4 103 3 view .LVU178
	.loc 4 103 10 is_stmt 0 view .LVU179
	movq	40(%rcx), %rax
	cmpq	%rax, 48(%rcx)
	jbe	.L55
	leaq	1(%rax), %rdx
	movq	%rdx, 40(%rcx)
	movb	$46, (%rax)
.LVL77:
	.loc 4 103 10 view .LVU180
.LBE88:
.LBE87:
	.loc 1 131 7 is_stmt 1 view .LVU181
	.loc 1 131 7 view .LVU182
.L38:
	.loc 1 131 7 is_stmt 0 view .LVU183
.LBE86:
	.loc 1 132 7 is_stmt 1 view .LVU184
.LBB91:
.LBI82:
	.loc 4 108 1 view .LVU185
.LBB84:
	.loc 4 110 3 view .LVU186
	.loc 4 110 10 is_stmt 0 view .LVU187
	movq	stdout(%rip), %rdi
	movq	40(%rdi), %rax
	cmpq	48(%rdi), %rax
	jnb	.L56
	leaq	1(%rax), %rdx
	movq	%rdx, 40(%rdi)
	movb	%r12b, (%rax)
.L41:
.LVL78:
	.loc 4 110 10 view .LVU188
.LBE84:
.LBE91:
	.loc 1 120 25 is_stmt 1 view .LVU189
	.loc 1 120 31 is_stmt 0 view .LVU190
	movl	optind(%rip), %eax
	addl	$1, %eax
	movl	%eax, optind(%rip)
	.loc 1 120 10 is_stmt 1 view .LVU191
	.loc 1 120 3 is_stmt 0 view .LVU192
	cmpl	%ebp, %eax
	jge	.L57
.L42:
	.loc 1 122 7 is_stmt 1 view .LVU193
	.loc 1 122 20 is_stmt 0 view .LVU194
	cltq
	.loc 1 122 14 view .LVU195
	movq	(%rbx,%rax,8), %r14
.LVL79:
	.loc 1 123 7 is_stmt 1 view .LVU196
	.loc 1 123 13 is_stmt 0 view .LVU197
	movq	%r14, %rdi
	call	dir_len@PLT
.LVL80:
	movq	stdout(%rip), %rcx
	movq	%rax, %rdx
.LVL81:
	.loc 1 125 7 is_stmt 1 view .LVU198
	.loc 1 125 10 is_stmt 0 view .LVU199
	testq	%rax, %rax
	je	.L37
	.loc 1 131 7 is_stmt 1 view .LVU200
	movl	$1, %esi
	movq	%r14, %rdi
	call	fwrite_unlocked@PLT
.LVL82:
	.loc 1 131 7 is_stmt 0 view .LVU201
	jmp	.L38
.LVL83:
.L57:
	.loc 1 136 1 view .LVU202
	popq	%rbx
	.cfi_remember_state
	.cfi_def_cfa_offset 40
.LVL84:
	.loc 1 136 1 view .LVU203
	xorl	%eax, %eax
	popq	%rbp
	.cfi_def_cfa_offset 32
.LVL85:
	.loc 1 136 1 view .LVU204
	popq	%r12
	.cfi_def_cfa_offset 24
	popq	%r13
	.cfi_def_cfa_offset 16
	popq	%r14
	.cfi_def_cfa_offset 8
	ret
.LVL86:
.L55:
	.cfi_restore_state
.LBB92:
.LBB90:
.LBB89:
	.loc 4 103 10 view .LVU205
	movl	$46, %esi
	movq	%rcx, %rdi
	call	__overflow@PLT
.LVL87:
	.loc 4 103 10 view .LVU206
.LBE89:
.LBE90:
	jmp	.L38
.LVL88:
.L56:
	.loc 4 103 10 view .LVU207
.LBE92:
.LBB93:
.LBB85:
	.loc 4 110 10 view .LVU208
	movl	%r13d, %esi
	call	__overflow@PLT
.LVL89:
	jmp	.L41
.LVL90:
.L32:
	.loc 4 110 10 view .LVU209
.LBE85:
.LBE93:
.LBB94:
	.loc 1 106 9 is_stmt 1 view .LVU210
	xorl	%edi, %edi
	call	usage
.LVL91:
.L54:
	.loc 1 106 9 is_stmt 0 view .LVU211
.LBE94:
	.loc 1 116 7 is_stmt 1 view .LVU212
	.loc 1 116 20 is_stmt 0 view .LVU213
	xorl	%edi, %edi
	movl	$5, %edx
	leaq	.LC30(%rip), %rsi
	call	dcgettext@PLT
.LVL92:
	.loc 1 116 7 view .LVU214
	xorl	%esi, %esi
	xorl	%edi, %edi
	.loc 1 116 20 view .LVU215
	movq	%rax, %rdx
	.loc 1 116 7 view .LVU216
	xorl	%eax, %eax
	call	error@PLT
.LVL93:
	jmp	.L52
	.cfi_endproc
.LFE136:
	.size	main, .-main
	.section	.rodata.str1.1
.LC31:
	.string	"zero"
.LC32:
	.string	"help"
.LC33:
	.string	"version"
	.section	.data.rel.ro.local,"aw"
	.align 32
	.type	longopts, @object
	.size	longopts, 128
longopts:
	.quad	.LC31
	.long	0
	.zero	4
	.quad	0
	.long	122
	.zero	4
	.quad	.LC32
	.long	0
	.zero	4
	.quad	0
	.long	-130
	.zero	4
	.quad	.LC33
	.long	0
	.zero	4
	.quad	0
	.long	-131
	.zero	4
	.quad	0
	.long	0
	.zero	4
	.quad	0
	.long	0
	.zero	4
	.text
.Letext0:
	.file 5 "/usr/include/x86_64-linux-gnu/bits/getopt_core.h"
	.file 6 "/usr/include/x86_64-linux-gnu/bits/getopt_ext.h"
	.file 7 "/usr/lib/gcc/x86_64-linux-gnu/9/include/stddef.h"
	.file 8 "/usr/include/x86_64-linux-gnu/bits/types.h"
	.file 9 "/usr/include/x86_64-linux-gnu/bits/types/struct_FILE.h"
	.file 10 "/usr/include/x86_64-linux-gnu/bits/types/FILE.h"
	.file 11 "/usr/include/stdio.h"
	.file 12 "/usr/include/x86_64-linux-gnu/bits/sys_errlist.h"
	.file 13 "/usr/include/x86_64-linux-gnu/bits/types/time_t.h"
	.file 14 "./lib/sys/select.h"
	.file 15 "/usr/include/time.h"
	.file 16 "/usr/include/signal.h"
	.file 17 "/usr/include/unistd.h"
	.file 18 "/usr/include/errno.h"
	.file 19 "src/version.h"
	.file 20 "./lib/exitfail.h"
	.file 21 "./lib/timespec.h"
	.file 22 "./lib/version-etc.h"
	.file 23 "./lib/progname.h"
	.file 24 "./lib/quotearg.h"
	.file 25 "./lib/error.h"
	.file 26 "/usr/include/stdlib.h"
	.file 27 "/usr/include/locale.h"
	.file 28 "/usr/include/libintl.h"
	.file 29 "./lib/dirname.h"
	.file 30 "/usr/include/string.h"
	.section	.note.GNU-stack,"",@progbits
	.section	.note.gnu.property,"a"
	.align 8
	.long	 1f - 0f
	.long	 4f - 1f
	.long	 5
0:
	.string	 "GNU"
1:
	.align 8
	.long	 0xc0000002
	.long	 3f - 2f
2:
	.long	 0x3
3:
	.align 8
4:
