	.file	"du.c"
	.text
.Ltext0:
	.section	.rodata.str1.1,"aMS",@progbits,1
.LC0:
	.string	"Infinity"
	.text
	.p2align 4
	.type	print_only_size, @function
print_only_size:
.LVL0:
.LFB150:
	.file 1 "src/du.c"
	.loc 1 398 1 view -0
	.cfi_startproc
	.loc 1 398 1 is_stmt 0 view .LVU1
	pushq	%rbp
	.cfi_def_cfa_offset 16
	.cfi_offset 6, -16
	subq	$672, %rsp
	.cfi_def_cfa_offset 688
	.loc 1 400 3 view .LVU2
	movq	stdout(%rip), %rbp
	.loc 1 398 1 view .LVU3
	movq	%fs:40, %rax
	movq	%rax, 664(%rsp)
	xorl	%eax, %eax
	.loc 1 399 3 is_stmt 1 view .LVU4
	.loc 1 400 3 view .LVU5
	cmpq	$-1, %rdi
	je	.L7
	.loc 1 400 3 is_stmt 0 discriminator 2 view .LVU6
	movq	output_block_size(%rip), %r8
	movl	human_output_opts(%rip), %edx
	movq	%rsp, %rsi
	movl	$1, %ecx
	call	human_readable@PLT
.LVL1:
	.loc 1 400 3 discriminator 2 view .LVU7
	movq	%rax, %rdi
.L3:
	.loc 1 400 3 discriminator 4 view .LVU8
	movq	%rbp, %rsi
	call	fputs_unlocked@PLT
.LVL2:
	.loc 1 405 1 discriminator 4 view .LVU9
	movq	664(%rsp), %rax
	xorq	%fs:40, %rax
	jne	.L8
	.loc 1 405 1 view .LVU10
	addq	$672, %rsp
	.cfi_remember_state
	.cfi_def_cfa_offset 16
	popq	%rbp
	.cfi_def_cfa_offset 8
	ret
.LVL3:
	.p2align 4,,10
	.p2align 3
.L7:
	.cfi_restore_state
	.loc 1 400 3 discriminator 1 view .LVU11
	xorl	%edi, %edi
.LVL4:
	.loc 1 400 3 discriminator 1 view .LVU12
	movl	$5, %edx
	leaq	.LC0(%rip), %rsi
	call	dcgettext@PLT
.LVL5:
	movq	%rax, %rdi
	jmp	.L3
.L8:
	.loc 1 405 1 view .LVU13
	call	__stack_chk_fail@PLT
.LVL6:
	.cfi_endproc
.LFE150:
	.size	print_only_size, .-print_only_size
	.section	.rodata.str1.1
.LC1:
	.string	"time %s is out of range"
.LC2:
	.string	"\t%s%c"
	.text
	.p2align 4
	.type	print_size, @function
print_size:
.LVL7:
.LFB151:
	.loc 1 411 1 is_stmt 1 view -0
	.cfi_startproc
	.loc 1 411 1 is_stmt 0 view .LVU15
	pushq	%r14
	.cfi_def_cfa_offset 16
	.cfi_offset 14, -16
	pushq	%r13
	.cfi_def_cfa_offset 24
	.cfi_offset 13, -24
	pushq	%r12
	.cfi_def_cfa_offset 32
	.cfi_offset 12, -32
	movq	%rsi, %r12
	pushq	%rbp
	.cfi_def_cfa_offset 40
	.cfi_offset 6, -40
	pushq	%rbx
	.cfi_def_cfa_offset 48
	.cfi_offset 3, -48
	movq	%rdi, %rbx
	subq	$112, %rsp
	.cfi_def_cfa_offset 160
	.loc 1 412 3 view .LVU16
	movq	8(%rdi), %rdi
.LVL8:
	.loc 1 411 1 view .LVU17
	movq	%fs:40, %rax
	movq	%rax, 104(%rsp)
	xorl	%eax, %eax
	.loc 1 412 3 is_stmt 1 view .LVU18
	cmpb	$0, opt_inodes(%rip)
	cmove	(%rbx), %rdi
	call	print_only_size
.LVL9:
	.loc 1 416 3 view .LVU19
	.loc 1 416 6 is_stmt 0 view .LVU20
	cmpb	$0, opt_time(%rip)
	je	.L11
	.loc 1 418 7 is_stmt 1 view .LVU21
.LVL10:
.LBB103:
.LBI103:
	.file 2 "/usr/include/x86_64-linux-gnu/bits/stdio.h"
	.loc 2 108 1 view .LVU22
.LBB104:
	.loc 2 110 3 view .LVU23
	.loc 2 110 10 is_stmt 0 view .LVU24
	movq	stdout(%rip), %rdi
	movq	40(%rdi), %rax
	cmpq	48(%rdi), %rax
	jnb	.L20
	leaq	1(%rax), %rdx
	movq	%rdx, 40(%rdi)
	movb	$9, (%rax)
.L13:
.LVL11:
	.loc 2 110 10 view .LVU25
.LBE104:
.LBE103:
	.loc 1 419 7 is_stmt 1 view .LVU26
	movq	localtz(%rip), %r14
	movdqa	16(%rbx), %xmm0
.LBB106:
.LBB107:
	.loc 1 383 7 is_stmt 0 view .LVU27
	leaq	16(%rsp), %r13
	movq	%rsp, %rsi
	movq	%r13, %rdx
.LBE107:
.LBE106:
	.loc 1 419 7 view .LVU28
	movq	time_format(%rip), %rbp
.LVL12:
.LBB115:
.LBI106:
	.loc 1 380 1 is_stmt 1 view .LVU29
.LBB113:
	.loc 1 382 3 view .LVU30
	.loc 1 383 3 view .LVU31
	.loc 1 383 7 is_stmt 0 view .LVU32
	movq	%r14, %rdi
	movaps	%xmm0, (%rsp)
	call	localtime_rz@PLT
.LVL13:
	.loc 1 383 6 view .LVU33
	testq	%rax, %rax
	je	.L14
	.loc 1 384 5 is_stmt 1 view .LVU34
	movl	8(%rsp), %r8d
	movq	%r14, %rcx
	movq	%r13, %rdx
	movq	%rbp, %rsi
	movq	stdout(%rip), %rdi
	call	fprintftime@PLT
.LVL14:
.L11:
	.loc 1 384 5 is_stmt 0 view .LVU35
.LBE113:
.LBE115:
	.loc 1 421 3 is_stmt 1 view .LVU36
	cmpb	$1, opt_nul_terminate_output(%rip)
.LBB116:
.LBB117:
	.file 3 "/usr/include/x86_64-linux-gnu/bits/stdio2.h"
	.loc 3 107 10 is_stmt 0 view .LVU37
	movq	%r12, %rdx
	movl	$1, %edi
.LBE117:
.LBE116:
	.loc 1 421 3 view .LVU38
	sbbl	%ecx, %ecx
.LBB120:
.LBB118:
	.loc 3 107 10 view .LVU39
	leaq	.LC2(%rip), %rsi
	xorl	%eax, %eax
.LBE118:
.LBE120:
	.loc 1 421 3 view .LVU40
	andl	$10, %ecx
.LVL15:
.LBB121:
.LBI116:
	.loc 3 105 1 is_stmt 1 view .LVU41
.LBB119:
	.loc 3 107 3 view .LVU42
	.loc 3 107 10 is_stmt 0 view .LVU43
	call	__printf_chk@PLT
.LVL16:
	.loc 3 107 10 view .LVU44
.LBE119:
.LBE121:
	.loc 1 422 3 is_stmt 1 view .LVU45
	movq	stdout(%rip), %rdi
	call	fflush_unlocked@PLT
.LVL17:
	.loc 1 423 1 is_stmt 0 view .LVU46
	movq	104(%rsp), %rax
	xorq	%fs:40, %rax
	jne	.L21
	addq	$112, %rsp
	.cfi_remember_state
	.cfi_def_cfa_offset 48
	popq	%rbx
	.cfi_def_cfa_offset 40
.LVL18:
	.loc 1 423 1 view .LVU47
	popq	%rbp
	.cfi_def_cfa_offset 32
	popq	%r12
	.cfi_def_cfa_offset 24
.LVL19:
	.loc 1 423 1 view .LVU48
	popq	%r13
	.cfi_def_cfa_offset 16
	popq	%r14
	.cfi_def_cfa_offset 8
	ret
.LVL20:
	.p2align 4,,10
	.p2align 3
.L20:
	.cfi_restore_state
.LBB122:
.LBB105:
	.loc 2 110 10 view .LVU49
	movl	$9, %esi
	call	__overflow@PLT
.LVL21:
	jmp	.L13
.LVL22:
	.p2align 4,,10
	.p2align 3
.L14:
	.loc 2 110 10 view .LVU50
.LBE105:
.LBE122:
.LBB123:
.LBB114:
.LBB108:
	.loc 1 387 7 is_stmt 1 view .LVU51
	.loc 1 388 7 view .LVU52
.LBB109:
.LBI109:
	.file 4 "src/system.h"
	.loc 4 690 1 view .LVU53
.LBB110:
	.loc 4 692 3 view .LVU54
	.loc 4 694 11 is_stmt 0 view .LVU55
	movq	(%rsp), %rdi
	leaq	80(%rsp), %rsi
.LVL23:
	.loc 4 694 11 view .LVU56
	call	imaxtostr@PLT
.LVL24:
	.loc 4 694 11 view .LVU57
.LBE110:
.LBE109:
	.loc 1 389 7 view .LVU58
	movq	%rax, %rdi
.LBB112:
.LBB111:
	.loc 4 694 11 view .LVU59
	movq	%rax, %rbp
.LVL25:
	.loc 4 694 11 view .LVU60
.LBE111:
.LBE112:
	.loc 1 389 7 is_stmt 1 view .LVU61
	call	quote@PLT
.LVL26:
	.loc 1 389 20 is_stmt 0 view .LVU62
	xorl	%edi, %edi
	movl	$5, %edx
	leaq	.LC1(%rip), %rsi
	.loc 1 389 7 view .LVU63
	movq	%rax, %r13
	.loc 1 389 20 view .LVU64
	call	dcgettext@PLT
.LVL27:
	.loc 1 389 7 view .LVU65
	xorl	%esi, %esi
	xorl	%edi, %edi
	movq	%r13, %rcx
	.loc 1 389 20 view .LVU66
	movq	%rax, %rdx
	.loc 1 389 7 view .LVU67
	xorl	%eax, %eax
	call	error@PLT
.LVL28:
	.loc 1 390 7 is_stmt 1 view .LVU68
	movq	stdout(%rip), %rsi
	movq	%rbp, %rdi
	call	fputs_unlocked@PLT
.LVL29:
	.loc 1 390 7 is_stmt 0 view .LVU69
	jmp	.L11
.LVL30:
.L21:
	.loc 1 390 7 view .LVU70
.LBE108:
.LBE114:
.LBE123:
	.loc 1 423 1 view .LVU71
	call	__stack_chk_fail@PLT
.LVL31:
	.cfi_endproc
.LFE151:
	.size	print_size, .-print_size
	.section	.rodata.str1.1
.LC3:
	.string	"du"
.LC4:
	.string	" invocation"
.LC5:
	.string	""
	.section	.rodata.str1.8,"aMS",@progbits,1
	.align 8
.LC6:
	.string	"Try '%s --help' for more information.\n"
	.align 8
.LC7:
	.string	"Usage: %s [OPTION]... [FILE]...\n  or:  %s [OPTION]... --files0-from=F\n"
	.align 8
.LC8:
	.string	"Summarize disk usage of the set of FILEs, recursively for directories.\n"
	.align 8
.LC9:
	.string	"\nMandatory arguments to long options are mandatory for short options too.\n"
	.align 8
.LC10:
	.ascii	"  -0, --null            end each output line with NUL, not n"
	.ascii	"ewline\n  -a, --all             write counts for all files, "
	.ascii	"not just directories\n      --apparent-size   print apparent"
	.ascii	" sizes"
	.string	", rather than disk usage; although\n                          the apparent size is usually smaller, it may be\n                          larger due to holes in ('sparse') files, internal\n                          fragmentation, indirect blocks, and the like\n"
	.align 8
.LC11:
	.ascii	"  -B, --block-size=SIZE  scale sizes by SIZE before printing"
	.ascii	" them; e.g.,\n                           '-BM' prints sizes "
	.ascii	"in units of 1,048,576 bytes;\n                           see"
	.ascii	" SIZE format below\n  -b, --bytes           equivalent to '-"
	.ascii	"-apparent-size --block-size=1'\n  -c, --total           prod"
	.ascii	"uce a grand total\n  -D, --dereference-args  dereference onl"
	.ascii	"y symlinks that are listed on the\n                         "
	.ascii	" command line\n  -d, -"
	.string	"-max-depth=N     print the total for a directory (or file, with --all)\n                          only if it is N or fewer levels below the command\n                          line argument;  --max-depth=0 is the same as\n                          --summarize\n"
	.align 8
.LC12:
	.ascii	"      --files0-from=F   summarize disk usage of the\n       "
	.ascii	"                   NUL-terminated file names specified in fi"
	.ascii	"le F;\n                          if F is -"
	.string	", then read names from standard input\n  -H                    equivalent to --dereference-args (-D)\n  -h, --human-readable  print sizes in human readable format (e.g., 1K 234M 2G)\n      --inodes          list inode usage information instead of block usage\n"
	.align 8
.LC13:
	.string	"  -k                    like --block-size=1K\n  -L, --dereference     dereference all symbolic links\n  -l, --count-links     count sizes many times if hard linked\n  -m                    like --block-size=1M\n"
	.align 8
.LC14:
	.ascii	"  -P, --no-dereference  don'"
	.string	"t follow any symbolic links (this is the default)\n  -S, --separate-dirs   for directories do not include size of subdirectories\n      --si              like -h, but use powers of 1000 not 1024\n  -s, --summarize       display only a total for each argument\n"
	.align 8
.LC15:
	.ascii	"  -t, --threshold=SIZE  exclude entries smaller than SIZE if"
	.ascii	" positive,\n                          or entries greater tha"
	.ascii	"n SIZE if negative\n      --time            show time of the"
	.ascii	" last modification of any file in the\n                     "
	.ascii	"     directory, or any of its subdirectories\n      --time=W"
	.ascii	"ORD       show time as WORD instead of modification time:\n"
	.string	"                          atime, access, use, ctime or status\n      --time-style=STYLE  show times using STYLE, which can be:\n                            full-iso, long-iso, iso, or +FORMAT;\n                            FORMAT is interpreted like in 'date'\n"
	.align 8
.LC16:
	.string	"  -X, --exclude-from=FILE  exclude files that match any pattern in FILE\n      --exclude=PATTERN    exclude files that match PATTERN\n  -x, --one-file-system    skip directories on different file systems\n"
	.align 8
.LC17:
	.string	"      --help     display this help and exit\n"
	.align 8
.LC18:
	.string	"      --version  output version information and exit\n"
	.align 8
.LC19:
	.string	"\nDisplay values are in units of the first available SIZE from --block-size,\nand the %s_BLOCK_SIZE, BLOCK_SIZE and BLOCKSIZE environment variables.\nOtherwise, units default to 1024 bytes (or 512 if POSIXLY_CORRECT is set).\n"
	.section	.rodata.str1.1
.LC20:
	.string	"DU"
	.section	.rodata.str1.8
	.align 8
.LC21:
	.string	"\nThe SIZE argument is an integer and optional unit (example: 10K is 10*1024).\nUnits are K,M,G,T,P,E,Z,Y (powers of 1024) or KB,MB,... (powers of 1000).\nBinary prefixes can be used, too: KiB=K, MiB=M, and so on.\n"
	.section	.rodata.str1.1
.LC22:
	.string	"["
.LC23:
	.string	"test invocation"
.LC24:
	.string	"coreutils"
.LC25:
	.string	"Multi-call invocation"
.LC26:
	.string	"sha224sum"
.LC27:
	.string	"sha2 utilities"
.LC28:
	.string	"sha256sum"
.LC29:
	.string	"sha384sum"
.LC30:
	.string	"sha512sum"
.LC31:
	.string	"\n%s online help: <%s>\n"
	.section	.rodata.str1.8
	.align 8
.LC32:
	.string	"https://www.gnu.org/software/coreutils/"
	.section	.rodata.str1.1
.LC33:
	.string	"GNU coreutils"
.LC34:
	.string	"en_"
	.section	.rodata.str1.8
	.align 8
.LC35:
	.string	"Report any translation bugs to <https://translationproject.org/team/>\n"
	.section	.rodata.str1.1
.LC36:
	.string	"Full documentation <%s%s>\n"
	.section	.rodata.str1.8
	.align 8
.LC37:
	.string	"or available locally via: info '(coreutils) %s%s'\n"
	.text
	.p2align 4
	.globl	usage
	.type	usage, @function
usage:
.LVL32:
.LFB147:
	.loc 1 280 1 is_stmt 1 view -0
	.cfi_startproc
	.loc 1 280 1 is_stmt 0 view .LVU73
	endbr64
	pushq	%r14
	.cfi_def_cfa_offset 16
	.cfi_offset 14, -16
	.loc 1 282 5 view .LVU74
	movl	$5, %edx
	.loc 1 280 1 view .LVU75
	pushq	%r13
	.cfi_def_cfa_offset 24
	.cfi_offset 13, -24
	pushq	%r12
	.cfi_def_cfa_offset 32
	.cfi_offset 12, -32
	pushq	%rbp
	.cfi_def_cfa_offset 40
	.cfi_offset 6, -40
	movl	%edi, %ebp
	subq	$136, %rsp
	.cfi_def_cfa_offset 176
	movq	program_name(%rip), %r12
	.loc 1 280 1 view .LVU76
	movq	%fs:40, %rax
	movq	%rax, 120(%rsp)
	xorl	%eax, %eax
	.loc 1 281 3 is_stmt 1 view .LVU77
	.loc 1 281 6 is_stmt 0 view .LVU78
	testl	%edi, %edi
	je	.L23
	.loc 1 282 5 is_stmt 1 view .LVU79
	.loc 1 282 5 view .LVU80
	leaq	.LC6(%rip), %rsi
	xorl	%edi, %edi
.LVL33:
	.loc 1 282 5 is_stmt 0 view .LVU81
	call	dcgettext@PLT
.LVL34:
.LBB144:
.LBB145:
	.loc 3 100 10 view .LVU82
	movq	stderr(%rip), %rdi
	movq	%r12, %rcx
	movl	$1, %esi
.LBE145:
.LBE144:
	.loc 1 282 5 view .LVU83
	movq	%rax, %rdx
.LVL35:
.LBB147:
.LBI144:
	.loc 3 98 1 is_stmt 1 view .LVU84
.LBB146:
	.loc 3 100 3 view .LVU85
	.loc 3 100 10 is_stmt 0 view .LVU86
	xorl	%eax, %eax
.LVL36:
	.loc 3 100 10 view .LVU87
	call	__fprintf_chk@PLT
.LVL37:
.L24:
	.loc 3 100 10 view .LVU88
.LBE146:
.LBE147:
	.loc 1 360 3 is_stmt 1 view .LVU89
	movl	%ebp, %edi
	call	exit@PLT
.LVL38:
.L23:
	.loc 1 285 7 view .LVU90
	.loc 1 285 15 is_stmt 0 view .LVU91
	xorl	%edi, %edi
.LVL39:
	.loc 1 285 15 view .LVU92
	leaq	.LC7(%rip), %rsi
	call	dcgettext@PLT
.LVL40:
.LBB148:
.LBB149:
	.loc 3 107 10 view .LVU93
	movq	%r12, %rcx
	movq	%r12, %rdx
	movl	$1, %edi
.LBE149:
.LBE148:
	.loc 1 285 15 view .LVU94
	movq	%rax, %rsi
.LVL41:
.LBB151:
.LBI148:
	.loc 3 105 1 is_stmt 1 view .LVU95
.LBB150:
	.loc 3 107 3 view .LVU96
	.loc 3 107 10 is_stmt 0 view .LVU97
	xorl	%eax, %eax
.LVL42:
	.loc 3 107 10 view .LVU98
	call	__printf_chk@PLT
.LVL43:
	.loc 3 107 10 view .LVU99
.LBE150:
.LBE151:
	.loc 1 289 7 is_stmt 1 view .LVU100
	movq	stdout(%rip), %r12
	xorl	%edi, %edi
	movl	$5, %edx
	leaq	.LC8(%rip), %rsi
	call	dcgettext@PLT
.LVL44:
	movq	%r12, %rsi
	movq	%rax, %rdi
	call	fputs_unlocked@PLT
.LVL45:
	.loc 1 293 7 view .LVU101
.LBB152:
.LBI152:
	.loc 4 588 1 view .LVU102
.LBB153:
	.loc 4 590 3 view .LVU103
	movq	stdout(%rip), %r12
	xorl	%edi, %edi
	movl	$5, %edx
	leaq	.LC9(%rip), %rsi
	call	dcgettext@PLT
.LVL46:
	movq	%r12, %rsi
	movq	%rax, %rdi
	call	fputs_unlocked@PLT
.LVL47:
.LBE153:
.LBE152:
	.loc 1 295 7 view .LVU104
	movq	stdout(%rip), %r12
	xorl	%edi, %edi
	movl	$5, %edx
	leaq	.LC10(%rip), %rsi
	call	dcgettext@PLT
.LVL48:
	movq	%r12, %rsi
	movq	%rax, %rdi
	call	fputs_unlocked@PLT
.LVL49:
	.loc 1 304 7 view .LVU105
	movq	stdout(%rip), %r12
	xorl	%edi, %edi
	movl	$5, %edx
	leaq	.LC11(%rip), %rsi
	call	dcgettext@PLT
.LVL50:
	movq	%r12, %rsi
	movq	%rax, %rdi
	call	fputs_unlocked@PLT
.LVL51:
	.loc 1 317 7 view .LVU106
	movq	stdout(%rip), %r12
	xorl	%edi, %edi
	movl	$5, %edx
	leaq	.LC12(%rip), %rsi
	call	dcgettext@PLT
.LVL52:
	movq	%r12, %rsi
	movq	%rax, %rdi
	call	fputs_unlocked@PLT
.LVL53:
	.loc 1 326 7 view .LVU107
	movq	stdout(%rip), %r12
	xorl	%edi, %edi
	movl	$5, %edx
	leaq	.LC13(%rip), %rsi
	call	dcgettext@PLT
.LVL54:
	movq	%r12, %rsi
	movq	%rax, %rdi
	call	fputs_unlocked@PLT
.LVL55:
	.loc 1 332 7 view .LVU108
	movq	stdout(%rip), %r12
	xorl	%edi, %edi
	movl	$5, %edx
	leaq	.LC14(%rip), %rsi
	call	dcgettext@PLT
.LVL56:
	movq	%r12, %rsi
	movq	%rax, %rdi
	call	fputs_unlocked@PLT
.LVL57:
	.loc 1 338 7 view .LVU109
	movq	stdout(%rip), %r12
	xorl	%edi, %edi
	movl	$5, %edx
	leaq	.LC15(%rip), %rsi
	call	dcgettext@PLT
.LVL58:
	movq	%r12, %rsi
	movq	%rax, %rdi
	call	fputs_unlocked@PLT
.LVL59:
	.loc 1 349 7 view .LVU110
	movq	stdout(%rip), %r12
	xorl	%edi, %edi
	movl	$5, %edx
	leaq	.LC16(%rip), %rsi
	call	dcgettext@PLT
.LVL60:
	movq	%r12, %rsi
	movq	%rax, %rdi
	call	fputs_unlocked@PLT
.LVL61:
	.loc 1 354 7 view .LVU111
	movq	stdout(%rip), %r12
	movl	$5, %edx
	xorl	%edi, %edi
	leaq	.LC17(%rip), %rsi
	call	dcgettext@PLT
.LVL62:
	movq	%r12, %rsi
	movq	%rax, %rdi
	call	fputs_unlocked@PLT
.LVL63:
	.loc 1 355 7 view .LVU112
	movq	stdout(%rip), %r12
	movl	$5, %edx
	xorl	%edi, %edi
	leaq	.LC18(%rip), %rsi
	call	dcgettext@PLT
.LVL64:
	movq	%r12, %rsi
	movq	%rax, %rdi
	call	fputs_unlocked@PLT
.LVL65:
	.loc 1 356 7 view .LVU113
.LBB154:
.LBI154:
	.loc 4 606 1 view .LVU114
.LBB155:
	.loc 4 608 3 view .LVU115
	.loc 4 608 11 is_stmt 0 view .LVU116
	movl	$5, %edx
	leaq	.LC19(%rip), %rsi
	xorl	%edi, %edi
	call	dcgettext@PLT
.LVL66:
.LBB156:
.LBB157:
	.loc 3 107 10 view .LVU117
	leaq	.LC20(%rip), %rdx
	movl	$1, %edi
.LBE157:
.LBE156:
	.loc 4 608 11 view .LVU118
	movq	%rax, %rsi
.LVL67:
.LBB159:
.LBI156:
	.loc 3 105 1 is_stmt 1 view .LVU119
.LBB158:
	.loc 3 107 3 view .LVU120
	.loc 3 107 10 is_stmt 0 view .LVU121
	xorl	%eax, %eax
.LVL68:
	.loc 3 107 10 view .LVU122
	call	__printf_chk@PLT
.LVL69:
	.loc 3 107 10 view .LVU123
.LBE158:
.LBE159:
.LBE155:
.LBE154:
	.loc 1 357 7 is_stmt 1 view .LVU124
.LBB160:
.LBI160:
	.loc 4 596 1 view .LVU125
.LBB161:
	.loc 4 598 3 view .LVU126
	movl	$5, %edx
	movq	stdout(%rip), %r12
	xorl	%edi, %edi
	leaq	.LC21(%rip), %rsi
	call	dcgettext@PLT
.LVL70:
	movq	%r12, %rsi
	movq	%rax, %rdi
	call	fputs_unlocked@PLT
.LVL71:
.LBE161:
.LBE160:
	.loc 1 358 7 view .LVU127
.LBB162:
.LBI162:
	.loc 4 634 1 view .LVU128
.LBB163:
	.loc 4 636 3 view .LVU129
	.loc 4 636 67 is_stmt 0 view .LVU130
	leaq	.LC22(%rip), %rax
	.loc 4 647 25 view .LVU131
	movq	%rsp, %rdx
	.loc 4 636 67 view .LVU132
	leaq	.LC28(%rip), %rcx
	movq	%rax, (%rsp)
	leaq	.LC23(%rip), %rax
	.loc 4 649 33 view .LVU133
	movl	$100, %edi
	movl	$117, %esi
	.loc 4 636 67 view .LVU134
	movq	%rax, 8(%rsp)
	leaq	.LC24(%rip), %rax
	movq	%rax, 16(%rsp)
	leaq	.LC25(%rip), %rax
	movq	%rax, 24(%rsp)
	leaq	.LC26(%rip), %rax
	movq	%rcx, 48(%rsp)
	leaq	.LC29(%rip), %rcx
	movq	%rax, 32(%rsp)
	leaq	.LC27(%rip), %rax
	movq	%rcx, 64(%rsp)
	leaq	.LC30(%rip), %rcx
	movq	%rax, 40(%rsp)
	movq	%rax, 56(%rsp)
	movq	%rax, 72(%rsp)
	movq	%rcx, 80(%rsp)
	movq	%rax, 88(%rsp)
	movq	$0, 96(%rsp)
	movq	$0, 104(%rsp)
	.loc 4 646 3 is_stmt 1 view .LVU135
.LVL72:
	.loc 4 647 3 view .LVU136
	.loc 4 649 3 view .LVU137
	.loc 4 649 9 view .LVU138
	.p2align 4,,10
	.p2align 3
.L44:
	.loc 4 650 5 view .LVU139
	.loc 4 649 18 is_stmt 0 view .LVU140
	movq	16(%rdx), %rax
	.loc 4 650 13 view .LVU141
	addq	$16, %rdx
.LVL73:
	.loc 4 649 9 is_stmt 1 view .LVU142
	testq	%rax, %rax
	je	.L25
	.loc 4 649 33 is_stmt 0 view .LVU143
	movzbl	(%rax), %ecx
	cmpl	%ecx, %edi
	jne	.L44
	movzbl	1(%rax), %ecx
	cmpl	%ecx, %esi
	jne	.L44
	.loc 4 649 28 view .LVU144
	cmpb	$0, 2(%rax)
	jne	.L44
.L25:
	.loc 4 652 3 is_stmt 1 view .LVU145
	.loc 4 652 15 is_stmt 0 view .LVU146
	movq	8(%rdx), %r12
	.loc 4 655 11 view .LVU147
	leaq	.LC31(%rip), %rsi
	movl	$5, %edx
.LVL74:
	.loc 4 655 11 view .LVU148
	xorl	%edi, %edi
	.loc 4 652 6 view .LVU149
	testq	%r12, %r12
	je	.L28
	.loc 4 653 5 is_stmt 1 view .LVU150
.LVL75:
	.loc 4 655 3 view .LVU151
	.loc 4 655 11 is_stmt 0 view .LVU152
	call	dcgettext@PLT
.LVL76:
.LBB164:
.LBB165:
	.loc 3 107 10 view .LVU153
	leaq	.LC32(%rip), %rcx
	leaq	.LC33(%rip), %rdx
	movl	$1, %edi
.LBE165:
.LBE164:
	.loc 4 655 11 view .LVU154
	movq	%rax, %rsi
.LVL77:
.LBB169:
.LBI164:
	.loc 3 105 1 is_stmt 1 view .LVU155
.LBB166:
	.loc 3 107 3 view .LVU156
	.loc 3 107 10 is_stmt 0 view .LVU157
	xorl	%eax, %eax
.LVL78:
	.loc 3 107 10 view .LVU158
	leaq	.LC3(%rip), %r13
	call	__printf_chk@PLT
.LVL79:
	.loc 3 107 10 view .LVU159
.LBE166:
.LBE169:
	.loc 4 659 3 is_stmt 1 view .LVU160
	.loc 4 659 29 is_stmt 0 view .LVU161
	movl	$5, %edi
	xorl	%esi, %esi
	call	setlocale@PLT
.LVL80:
	movq	%rax, %rdi
.LVL81:
	.loc 4 660 3 is_stmt 1 view .LVU162
	.loc 4 660 6 is_stmt 0 view .LVU163
	testq	%rax, %rax
	je	.L29
	.loc 4 660 22 view .LVU164
	movl	$3, %edx
	leaq	.LC34(%rip), %rsi
	call	strncmp@PLT
.LVL82:
	.loc 4 660 19 view .LVU165
	testl	%eax, %eax
	jne	.L32
.LVL83:
.L29:
	.loc 4 669 3 is_stmt 1 view .LVU166
	.loc 4 669 11 is_stmt 0 view .LVU167
	xorl	%edi, %edi
	movl	$5, %edx
	leaq	.LC36(%rip), %rsi
	call	dcgettext@PLT
.LVL84:
.LBB170:
.LBB171:
	.loc 3 107 10 view .LVU168
	leaq	.LC3(%rip), %rcx
	movl	$1, %edi
	leaq	.LC32(%rip), %rdx
.LBE171:
.LBE170:
	.loc 4 669 11 view .LVU169
	movq	%rax, %rsi
.LVL85:
.LBB176:
.LBI170:
	.loc 3 105 1 is_stmt 1 view .LVU170
.LBB172:
	.loc 3 107 3 view .LVU171
	.loc 3 107 10 is_stmt 0 view .LVU172
	xorl	%eax, %eax
.LVL86:
	.loc 3 107 10 view .LVU173
	call	__printf_chk@PLT
.LVL87:
	.loc 3 107 10 view .LVU174
.LBE172:
.LBE176:
	.loc 4 671 3 is_stmt 1 view .LVU175
	cmpq	%r13, %r12
	leaq	.LC5(%rip), %rcx
	leaq	.LC4(%rip), %r13
	cmovne	%rcx, %r13
.L30:
	.loc 4 671 11 is_stmt 0 view .LVU176
	xorl	%edi, %edi
	leaq	.LC37(%rip), %rsi
	movl	$5, %edx
	call	dcgettext@PLT
.LVL88:
.LBB177:
.LBB178:
	.loc 3 107 10 view .LVU177
	movq	%r13, %rcx
	movq	%r12, %rdx
	movl	$1, %edi
.LBE178:
.LBE177:
	.loc 4 671 11 view .LVU178
	movq	%rax, %rsi
.LVL89:
.LBB180:
.LBI177:
	.loc 3 105 1 is_stmt 1 view .LVU179
.LBB179:
	.loc 3 107 3 view .LVU180
	.loc 3 107 10 is_stmt 0 view .LVU181
	xorl	%eax, %eax
.LVL90:
	.loc 3 107 10 view .LVU182
	call	__printf_chk@PLT
.LVL91:
	.loc 3 107 10 view .LVU183
.LBE179:
.LBE180:
	.loc 4 673 1 view .LVU184
	jmp	.L24
.LVL92:
.L28:
	.loc 4 655 3 is_stmt 1 view .LVU185
	.loc 4 655 11 is_stmt 0 view .LVU186
	call	dcgettext@PLT
.LVL93:
.LBB181:
.LBB167:
	.loc 3 107 10 view .LVU187
	leaq	.LC32(%rip), %rcx
	movl	$1, %edi
	leaq	.LC33(%rip), %rdx
.LBE167:
.LBE181:
	.loc 4 655 11 view .LVU188
	movq	%rax, %rsi
.LVL94:
.LBB182:
	.loc 3 105 1 is_stmt 1 view .LVU189
.LBB168:
	.loc 3 107 3 view .LVU190
	.loc 3 107 10 is_stmt 0 view .LVU191
	xorl	%eax, %eax
.LVL95:
	.loc 3 107 10 view .LVU192
	call	__printf_chk@PLT
.LVL96:
	.loc 3 107 10 view .LVU193
.LBE168:
.LBE182:
	.loc 4 659 3 is_stmt 1 view .LVU194
	.loc 4 659 29 is_stmt 0 view .LVU195
	movl	$5, %edi
	xorl	%esi, %esi
	call	setlocale@PLT
.LVL97:
	movq	%rax, %rdi
.LVL98:
	.loc 4 660 3 is_stmt 1 view .LVU196
	.loc 4 660 6 is_stmt 0 view .LVU197
	testq	%rax, %rax
	je	.L31
	.loc 4 660 22 view .LVU198
	movl	$3, %edx
	leaq	.LC34(%rip), %rsi
	call	strncmp@PLT
.LVL99:
	.loc 4 660 19 view .LVU199
	testl	%eax, %eax
	jne	.L50
.L31:
	.loc 4 669 3 is_stmt 1 view .LVU200
	.loc 4 669 11 is_stmt 0 view .LVU201
	movl	$5, %edx
	leaq	.LC36(%rip), %rsi
	xorl	%edi, %edi
	call	dcgettext@PLT
.LVL100:
.LBB183:
.LBB173:
	.loc 3 107 10 view .LVU202
	leaq	.LC3(%rip), %rcx
	leaq	.LC32(%rip), %rdx
	movl	$1, %edi
.LBE173:
.LBE183:
	.loc 4 669 11 view .LVU203
	movq	%rax, %rsi
.LVL101:
.LBB184:
	.loc 3 105 1 is_stmt 1 view .LVU204
.LBB174:
	.loc 3 107 3 view .LVU205
	.loc 3 107 10 is_stmt 0 view .LVU206
	xorl	%eax, %eax
.LVL102:
	.loc 3 107 10 view .LVU207
.LBE174:
.LBE184:
	.loc 4 646 15 view .LVU208
	leaq	.LC3(%rip), %r12
.LBB185:
.LBB175:
	.loc 3 107 10 view .LVU209
	call	__printf_chk@PLT
.LVL103:
	.loc 3 107 10 view .LVU210
.LBE175:
.LBE185:
	.loc 4 671 3 is_stmt 1 view .LVU211
	leaq	.LC4(%rip), %r13
	jmp	.L30
.L50:
	.loc 4 646 15 is_stmt 0 view .LVU212
	leaq	.LC3(%rip), %r13
	movq	%r13, %r12
.LVL104:
.L32:
	.loc 4 666 7 is_stmt 1 view .LVU213
	movq	stdout(%rip), %r14
	xorl	%edi, %edi
	movl	$5, %edx
	leaq	.LC35(%rip), %rsi
	call	dcgettext@PLT
.LVL105:
	movq	%rax, %rdi
	movq	%r14, %rsi
	call	fputs_unlocked@PLT
.LVL106:
	jmp	.L29
.LBE163:
.LBE162:
	.cfi_endproc
.LFE147:
	.size	usage, .-usage
	.section	.rodata.str1.1
.LC38:
	.string	"long-iso"
.LC39:
	.string	"."
.LC40:
	.string	"/usr/local/share/locale"
.LC41:
	.string	"DU_BLOCK_SIZE"
.LC42:
	.string	"0abd:chHklmst:xB:DLPSX:"
.LC43:
	.string	"invalid maximum depth %s"
.LC44:
	.string	"kKmMGTPEZY0"
	.section	.rodata.str1.8
	.align 8
.LC45:
	.string	"invalid --threshold argument '-0'"
	.section	.rodata.str1.1
.LC46:
	.string	"%s"
.LC47:
	.string	"--time"
.LC48:
	.string	"TZ"
.LC49:
	.string	"David MacKenzie"
.LC50:
	.string	"Torbjorn Granlund"
.LC51:
	.string	"Jim Meyering"
.LC52:
	.string	"Paul Eggert"
	.section	.rodata.str1.8
	.align 8
.LC53:
	.string	"cannot both summarize and show all entries"
	.align 8
.LC54:
	.string	"warning: summarizing is the same as using --max-depth=0"
	.align 8
.LC55:
	.string	"warning: summarizing conflicts with --max-depth=%lu"
	.align 8
.LC56:
	.string	"warning: options --apparent-size and -b are ineffective with --inodes"
	.section	.rodata.str1.1
.LC57:
	.string	"TIME_STYLE"
.LC58:
	.string	"locale"
.LC59:
	.string	"time style"
.LC60:
	.string	"%Y-%m-%d %H:%M:%S.%N %z"
.LC61:
	.string	"%Y-%m-%d %H:%M"
.LC62:
	.string	"%Y-%m-%d"
.LC63:
	.string	"extra operand %s"
	.section	.rodata.str1.8
	.align 8
.LC64:
	.string	"file operands cannot be combined with --files0-from"
	.section	.rodata.str1.1
.LC65:
	.string	"%s\n"
.LC66:
	.string	"-"
.LC67:
	.string	"r"
.LC68:
	.string	"cannot open %s for reading"
.LC69:
	.string	"%s: read error"
.LC70:
	.string	"src/du.c"
	.section	.rodata.str1.8
	.align 8
.LC71:
	.string	"!\"unexpected error code from argv_iter\""
	.align 8
.LC72:
	.string	"when reading file names from stdin, no file name of %s allowed"
	.section	.rodata.str1.1
.LC73:
	.string	"fts_read failed: %s"
.LC74:
	.string	"cannot read directory %s"
.LC75:
	.string	"e == ent"
.LC76:
	.string	"cannot access %s"
.LC77:
	.string	"level == prev_level - 1"
.LC78:
	.string	"fts_close failed"
.LC79:
	.string	"error reading %s"
.LC80:
	.string	"total"
.LC81:
	.string	"invalid zero-length file name"
.LC82:
	.string	"%s:%lu: %s"
	.section	.rodata.str1.8
	.align 8
.LC83:
	.string	"WARNING: Circular directory structure.\nThis almost certainly means that you have a corrupted file system.\nNOTIFY YOUR SYSTEM MANAGER.\nThe following directory is part of the cycle:\n  %s\n"
	.section	.text.startup,"ax",@progbits
	.p2align 4
	.globl	main
	.type	main, @function
main:
.LVL107:
.LFB156:
	.loc 1 724 1 view -0
	.cfi_startproc
	.loc 1 724 1 is_stmt 0 view .LVU215
	endbr64
	pushq	%r15
	.cfi_def_cfa_offset 16
	.cfi_offset 15, -16
	.loc 1 727 8 view .LVU216
	movl	$1, %r15d
	.loc 1 724 1 view .LVU217
	pushq	%r14
	.cfi_def_cfa_offset 24
	.cfi_offset 14, -24
	pushq	%r13
	.cfi_def_cfa_offset 32
	.cfi_offset 13, -32
	.loc 1 731 7 view .LVU218
	movl	$8, %r13d
	.loc 1 724 1 view .LVU219
	pushq	%r12
	.cfi_def_cfa_offset 40
	.cfi_offset 12, -40
	movl	%edi, %r12d
	pushq	%rbp
	.cfi_def_cfa_offset 48
	.cfi_offset 6, -48
	movq	%rsi, %rbp
	pushq	%rbx
	.cfi_def_cfa_offset 56
	.cfi_offset 3, -56
	leaq	.L59(%rip), %rbx
	subq	$296, %rsp
	.cfi_def_cfa_offset 352
	.loc 1 744 3 view .LVU220
	movq	(%rsi), %rdi
.LVL108:
	.loc 1 724 1 view .LVU221
	movq	%fs:40, %rax
	movq	%rax, 280(%rsp)
	xorl	%eax, %eax
	.loc 1 725 3 is_stmt 1 view .LVU222
	.loc 1 726 3 view .LVU223
.LVL109:
	.loc 1 727 3 view .LVU224
	.loc 1 728 3 view .LVU225
	.loc 1 731 3 view .LVU226
	.loc 1 735 3 view .LVU227
	.loc 1 738 3 view .LVU228
	.loc 1 740 3 view .LVU229
	.loc 4 700 3 view .LVU230
	.loc 1 740 15 is_stmt 0 view .LVU231
	leaq	.LC39(%rip), %rax
	leaq	76(%rsp), %r14
	.loc 1 741 15 view .LVU232
	movq	$0, 120(%rsp)
	.loc 1 740 15 view .LVU233
	movq	%rax, 112(%rsp)
	.loc 1 741 3 is_stmt 1 view .LVU234
	.loc 1 743 33 view .LVU235
	.loc 1 744 3 view .LVU236
	call	set_program_name@PLT
.LVL110:
	.loc 1 745 3 view .LVU237
	leaq	.LC5(%rip), %rsi
	movl	$6, %edi
	call	setlocale@PLT
.LVL111:
	.loc 1 746 3 view .LVU238
	leaq	.LC40(%rip), %rsi
	leaq	.LC24(%rip), %rdi
	call	bindtextdomain@PLT
.LVL112:
	.loc 1 747 3 view .LVU239
	leaq	.LC24(%rip), %rdi
	call	textdomain@PLT
.LVL113:
	.loc 1 749 3 view .LVU240
	movq	close_stdout@GOTPCREL(%rip), %rdi
	call	atexit@PLT
.LVL114:
	.loc 1 751 3 view .LVU241
	.loc 1 751 13 is_stmt 0 view .LVU242
	call	new_exclude@PLT
.LVL115:
	.loc 1 753 18 view .LVU243
	leaq	.LC41(%rip), %rdi
	.loc 1 751 11 view .LVU244
	movq	%rax, exclude(%rip)
	.loc 1 753 3 is_stmt 1 view .LVU245
	.loc 1 753 18 is_stmt 0 view .LVU246
	call	getenv@PLT
.LVL116:
	.loc 1 753 3 view .LVU247
	leaq	output_block_size(%rip), %rdx
	leaq	human_output_opts(%rip), %rsi
	.loc 1 753 18 view .LVU248
	movq	%rax, %rdi
	.loc 1 753 3 view .LVU249
	call	human_options@PLT
.LVL117:
	.loc 1 738 8 view .LVU250
	movb	$0, 8(%rsp)
	.loc 1 735 7 view .LVU251
	movl	$16, 24(%rsp)
	.loc 1 728 9 view .LVU252
	movq	$0, 16(%rsp)
	.loc 1 726 8 view .LVU253
	movb	$0, 32(%rsp)
.LVL118:
.L87:
	.loc 1 756 3 is_stmt 1 view .LVU254
.LBB258:
	.loc 1 758 7 view .LVU255
	.loc 1 759 15 is_stmt 0 view .LVU256
	movq	%r14, %r8
	leaq	long_options(%rip), %rcx
	movq	%rbp, %rsi
	movl	%r12d, %edi
	leaq	.LC42(%rip), %rdx
	.loc 1 758 11 view .LVU257
	movl	$-1, 76(%rsp)
	.loc 1 759 7 is_stmt 1 view .LVU258
	.loc 1 759 15 is_stmt 0 view .LVU259
	call	getopt_long@PLT
.LVL119:
	.loc 1 761 7 is_stmt 1 view .LVU260
	.loc 1 761 10 is_stmt 0 view .LVU261
	cmpl	$-1, %eax
	je	.L52
	.loc 1 764 7 is_stmt 1 view .LVU262
	cmpl	$135, %eax
	jg	.L216
	cmpl	$47, %eax
	jle	.L302
	subl	$48, %eax
.LVL120:
	.loc 1 764 7 is_stmt 0 view .LVU263
	cmpl	$87, %eax
	ja	.L216
	movslq	(%rbx,%rax,4), %rax
	addq	%rbx, %rax
	notrack jmp	*%rax
	.section	.rodata
	.align 4
	.align 4
.L59:
	.long	.L82-.L59
	.long	.L216-.L59
	.long	.L216-.L59
	.long	.L216-.L59
	.long	.L216-.L59
	.long	.L216-.L59
	.long	.L216-.L59
	.long	.L216-.L59
	.long	.L216-.L59
	.long	.L216-.L59
	.long	.L216-.L59
	.long	.L216-.L59
	.long	.L216-.L59
	.long	.L216-.L59
	.long	.L216-.L59
	.long	.L216-.L59
	.long	.L216-.L59
	.long	.L216-.L59
	.long	.L81-.L59
	.long	.L216-.L59
	.long	.L80-.L59
	.long	.L216-.L59
	.long	.L216-.L59
	.long	.L216-.L59
	.long	.L80-.L59
	.long	.L216-.L59
	.long	.L216-.L59
	.long	.L216-.L59
	.long	.L79-.L59
	.long	.L216-.L59
	.long	.L216-.L59
	.long	.L216-.L59
	.long	.L78-.L59
	.long	.L216-.L59
	.long	.L216-.L59
	.long	.L77-.L59
	.long	.L216-.L59
	.long	.L216-.L59
	.long	.L216-.L59
	.long	.L216-.L59
	.long	.L76-.L59
	.long	.L216-.L59
	.long	.L216-.L59
	.long	.L216-.L59
	.long	.L216-.L59
	.long	.L216-.L59
	.long	.L216-.L59
	.long	.L216-.L59
	.long	.L216-.L59
	.long	.L75-.L59
	.long	.L74-.L59
	.long	.L73-.L59
	.long	.L72-.L59
	.long	.L216-.L59
	.long	.L216-.L59
	.long	.L216-.L59
	.long	.L71-.L59
	.long	.L216-.L59
	.long	.L216-.L59
	.long	.L70-.L59
	.long	.L69-.L59
	.long	.L68-.L59
	.long	.L216-.L59
	.long	.L216-.L59
	.long	.L216-.L59
	.long	.L216-.L59
	.long	.L216-.L59
	.long	.L217-.L59
	.long	.L67-.L59
	.long	.L216-.L59
	.long	.L216-.L59
	.long	.L216-.L59
	.long	.L66-.L59
	.long	.L216-.L59
	.long	.L216-.L59
	.long	.L216-.L59
	.long	.L216-.L59
	.long	.L216-.L59
	.long	.L216-.L59
	.long	.L216-.L59
	.long	.L65-.L59
	.long	.L64-.L59
	.long	.L63-.L59
	.long	.L62-.L59
	.long	.L216-.L59
	.long	.L61-.L59
	.long	.L60-.L59
	.long	.L58-.L59
	.section	.text.startup
.L66:
	movl	$72, %r13d
.LVL121:
	.loc 1 764 7 view .LVU264
	jmp	.L87
.LVL122:
.L217:
	.loc 1 837 30 view .LVU265
	movb	$1, 8(%rsp)
.LVL123:
	.loc 1 837 30 view .LVU266
.LBE258:
	.loc 1 756 9 is_stmt 1 view .LVU267
	.loc 1 757 5 is_stmt 0 view .LVU268
	jmp	.L87
.LVL124:
	.p2align 4,,10
	.p2align 3
.L304:
.LBB265:
	.loc 1 764 7 view .LVU269
	cmpl	$-130, %eax
	je	.L56
.LVL125:
.L216:
	.loc 1 923 14 view .LVU270
	xorl	%r15d, %r15d
.LVL126:
	.loc 1 923 14 view .LVU271
	jmp	.L87
.LVL127:
.L68:
	.loc 1 828 11 is_stmt 1 view .LVU272
	.loc 1 828 29 is_stmt 0 view .LVU273
	movl	$0, human_output_opts(%rip)
	.loc 1 829 11 is_stmt 1 view .LVU274
	.loc 1 829 29 is_stmt 0 view .LVU275
	movq	$1048576, output_block_size(%rip)
	.loc 1 830 11 is_stmt 1 view .LVU276
	jmp	.L87
.L69:
	.loc 1 833 11 view .LVU277
	.loc 1 833 25 is_stmt 0 view .LVU278
	movb	$1, opt_count_all(%rip)
	.loc 1 834 11 is_stmt 1 view .LVU279
	jmp	.L87
.L70:
	.loc 1 805 11 view .LVU280
	.loc 1 805 29 is_stmt 0 view .LVU281
	movl	$0, human_output_opts(%rip)
	.loc 1 806 11 is_stmt 1 view .LVU282
	.loc 1 806 29 is_stmt 0 view .LVU283
	movq	$1024, output_block_size(%rip)
	.loc 1 807 11 is_stmt 1 view .LVU284
	jmp	.L87
.L71:
	.loc 1 795 11 view .LVU285
	.loc 1 795 29 is_stmt 0 view .LVU286
	movl	$176, human_output_opts(%rip)
	.loc 1 796 11 is_stmt 1 view .LVU287
	.loc 1 796 29 is_stmt 0 view .LVU288
	movq	$1, output_block_size(%rip)
	.loc 1 797 11 is_stmt 1 view .LVU289
	jmp	.L87
.L72:
.LBB259:
	.loc 1 811 13 view .LVU290
	.loc 1 812 13 view .LVU291
	.loc 1 812 17 is_stmt 0 view .LVU292
	movq	optarg(%rip), %rdi
	xorl	%edx, %edx
	xorl	%esi, %esi
	leaq	80(%rsp), %rcx
	leaq	.LC5(%rip), %r8
	call	xstrtoumax@PLT
.LVL128:
	.loc 1 812 16 view .LVU293
	testl	%eax, %eax
	jne	.L83
	.loc 1 815 17 is_stmt 1 view .LVU294
.LVL129:
	.loc 1 816 17 view .LVU295
	.loc 1 816 27 is_stmt 0 view .LVU296
	movq	80(%rsp), %rax
	.loc 1 815 37 view .LVU297
	movb	$1, 32(%rsp)
	.loc 1 816 27 view .LVU298
	movq	%rax, max_depth(%rip)
	jmp	.L87
.LVL130:
.L73:
	.loc 1 816 27 view .LVU299
.LBE259:
	.loc 1 791 11 is_stmt 1 view .LVU300
	.loc 1 791 29 is_stmt 0 view .LVU301
	movb	$1, print_grand_total(%rip)
	.loc 1 792 11 is_stmt 1 view .LVU302
	jmp	.L87
.L74:
	.loc 1 785 11 view .LVU303
	.loc 1 785 25 is_stmt 0 view .LVU304
	movb	$1, apparent_size(%rip)
	.loc 1 786 11 is_stmt 1 view .LVU305
	.loc 1 786 29 is_stmt 0 view .LVU306
	movl	$0, human_output_opts(%rip)
	.loc 1 787 11 is_stmt 1 view .LVU307
	.loc 1 787 29 is_stmt 0 view .LVU308
	movq	$1, output_block_size(%rip)
	.loc 1 788 11 is_stmt 1 view .LVU309
	jmp	.L87
.L75:
	.loc 1 777 11 view .LVU310
	.loc 1 777 19 is_stmt 0 view .LVU311
	movb	$1, opt_all(%rip)
	.loc 1 778 11 is_stmt 1 view .LVU312
	jmp	.L87
.L67:
.LBB260:
	.loc 1 842 13 view .LVU313
	.loc 1 843 13 view .LVU314
	.loc 1 843 17 is_stmt 0 view .LVU315
	movq	optarg(%rip), %rdi
	xorl	%edx, %edx
	xorl	%esi, %esi
	leaq	.LC44(%rip), %r8
	leaq	opt_threshold(%rip), %rcx
	call	xstrtoimax@PLT
.LVL131:
	.loc 1 844 13 is_stmt 1 view .LVU316
	.loc 1 844 16 is_stmt 0 view .LVU317
	testl	%eax, %eax
	jne	.L303
	.loc 1 846 13 is_stmt 1 view .LVU318
	.loc 1 846 16 is_stmt 0 view .LVU319
	cmpq	$0, opt_threshold(%rip)
	jne	.L87
	.loc 1 846 39 discriminator 1 view .LVU320
	movq	optarg(%rip), %rax
.LVL132:
	.loc 1 846 36 discriminator 1 view .LVU321
	cmpb	$45, (%rax)
	jne	.L87
.LBB261:
	.loc 1 849 17 is_stmt 1 view .LVU322
	movl	$5, %edx
	leaq	.LC45(%rip), %rsi
	xorl	%edi, %edi
	call	dcgettext@PLT
.LVL133:
	xorl	%esi, %esi
	movl	$1, %edi
	movq	%rax, %rdx
	xorl	%eax, %eax
	call	error@PLT
.LVL134:
.L58:
	.loc 1 849 17 is_stmt 0 view .LVU323
.LBE261:
.LBE260:
	.loc 1 902 11 is_stmt 1 view .LVU324
	.loc 1 902 22 is_stmt 0 view .LVU325
	movb	$1, opt_inodes(%rip)
	.loc 1 903 11 is_stmt 1 view .LVU326
	jmp	.L87
.L60:
	.loc 1 915 11 view .LVU327
	.loc 1 915 22 is_stmt 0 view .LVU328
	movq	optarg(%rip), %rax
	movq	%rax, time_style(%rip)
	.loc 1 916 11 is_stmt 1 view .LVU329
	jmp	.L87
.L61:
	.loc 1 906 11 view .LVU330
	.loc 1 909 14 is_stmt 0 view .LVU331
	movq	optarg(%rip), %rsi
	.loc 1 906 20 view .LVU332
	movb	$1, opt_time(%rip)
	.loc 1 907 11 is_stmt 1 view .LVU333
	.loc 1 910 14 is_stmt 0 view .LVU334
	xorl	%eax, %eax
	testq	%rsi, %rsi
	je	.L86
	.loc 1 909 16 discriminator 1 view .LVU335
	movq	argmatch_die(%rip), %r9
	movl	$4, %r8d
	leaq	time_types(%rip), %rcx
	leaq	time_args(%rip), %rdx
	leaq	.LC47(%rip), %rdi
	call	__xargmatch_internal@PLT
.LVL135:
	movq	%rax, %r8
	.loc 1 910 14 discriminator 1 view .LVU336
	leaq	time_types(%rip), %rax
	movl	(%rax,%r8,4), %eax
.L86:
	.loc 1 911 30 view .LVU337
	leaq	.LC48(%rip), %rdi
	.loc 1 907 21 view .LVU338
	movl	%eax, time_type(%rip)
	.loc 1 911 11 is_stmt 1 view .LVU339
	.loc 1 911 30 is_stmt 0 view .LVU340
	call	getenv@PLT
.LVL136:
	movq	%rax, %rdi
	.loc 1 911 21 view .LVU341
	call	tzalloc@PLT
.LVL137:
	.loc 1 911 19 view .LVU342
	movq	%rax, localtz(%rip)
	.loc 1 912 11 is_stmt 1 view .LVU343
	jmp	.L87
.L62:
	.loc 1 800 11 view .LVU344
	.loc 1 800 29 is_stmt 0 view .LVU345
	movl	$144, human_output_opts(%rip)
	.loc 1 801 11 is_stmt 1 view .LVU346
	.loc 1 801 29 is_stmt 0 view .LVU347
	movq	$1, output_block_size(%rip)
	.loc 1 802 11 is_stmt 1 view .LVU348
	jmp	.L87
.L64:
	.loc 1 898 11 view .LVU349
	movq	optarg(%rip), %rsi
	movq	exclude(%rip), %rdi
	movl	$268435456, %edx
	call	add_exclude@PLT
.LVL138:
	.loc 1 899 11 view .LVU350
	jmp	.L87
.L65:
	.loc 1 781 11 view .LVU351
	.loc 1 781 25 is_stmt 0 view .LVU352
	movb	$1, apparent_size(%rip)
	.loc 1 782 11 is_stmt 1 view .LVU353
	jmp	.L87
.L63:
	.loc 1 894 11 view .LVU354
	.loc 1 894 22 is_stmt 0 view .LVU355
	movq	optarg(%rip), %rax
	movq	%rax, 16(%rsp)
.LVL139:
	.loc 1 895 11 is_stmt 1 view .LVU356
	jmp	.L87
.LVL140:
.L76:
	.loc 1 885 11 view .LVU357
	.loc 1 885 15 is_stmt 0 view .LVU358
	movq	optarg(%rip), %rdx
	movq	exclude(%rip), %rsi
	movl	$268435456, %ecx
	movl	$10, %r8d
	movq	add_exclude@GOTPCREL(%rip), %rdi
	call	add_exclude_file@PLT
.LVL141:
	.loc 1 885 14 view .LVU359
	testl	%eax, %eax
	je	.L87
	.loc 1 888 15 is_stmt 1 view .LVU360
	movq	optarg(%rip), %rdx
	movl	$3, %esi
	xorl	%edi, %edi
	call	quotearg_n_style_colon@PLT
.LVL142:
	movq	%rax, %r15
.LVL143:
	.loc 1 888 25 is_stmt 0 view .LVU361
	call	__errno_location@PLT
.LVL144:
	.loc 1 888 15 view .LVU362
	movq	%r15, %rcx
	leaq	.LC46(%rip), %rdx
	xorl	%edi, %edi
	movl	(%rax), %esi
	xorl	%eax, %eax
	.loc 1 889 18 view .LVU363
	xorl	%r15d, %r15d
	.loc 1 888 15 view .LVU364
	call	error@PLT
.LVL145:
	.loc 1 889 15 is_stmt 1 view .LVU365
	.loc 1 889 15 is_stmt 0 view .LVU366
	jmp	.L87
.LVL146:
.L77:
	.loc 1 881 11 is_stmt 1 view .LVU367
	.loc 1 881 29 is_stmt 0 view .LVU368
	movb	$1, opt_separate_dirs(%rip)
	.loc 1 882 11 is_stmt 1 view .LVU369
	jmp	.L87
.L78:
	.loc 1 877 11 view .LVU370
.LVL147:
	.loc 1 878 11 view .LVU371
	.loc 1 877 30 is_stmt 0 view .LVU372
	movl	$16, 24(%rsp)
	.loc 1 878 11 view .LVU373
	jmp	.L87
.LVL148:
.L79:
	.loc 1 873 11 is_stmt 1 view .LVU374
	.loc 1 874 11 view .LVU375
	.loc 1 873 30 is_stmt 0 view .LVU376
	movl	$2, 24(%rsp)
	.loc 1 874 11 view .LVU377
	jmp	.L87
.LVL149:
.L80:
	.loc 1 869 11 is_stmt 1 view .LVU378
	.loc 1 870 11 view .LVU379
	.loc 1 869 30 is_stmt 0 view .LVU380
	movl	$17, 24(%rsp)
	.loc 1 870 11 view .LVU381
	jmp	.L87
.LVL150:
.L81:
.LBB262:
	.loc 1 860 13 is_stmt 1 view .LVU382
	.loc 1 860 35 is_stmt 0 view .LVU383
	movq	optarg(%rip), %rdi
	leaq	output_block_size(%rip), %rdx
	leaq	human_output_opts(%rip), %rsi
	call	human_options@PLT
.LVL151:
	.loc 1 862 13 is_stmt 1 view .LVU384
	.loc 1 862 16 is_stmt 0 view .LVU385
	testl	%eax, %eax
	je	.L87
	.loc 1 863 15 is_stmt 1 view .LVU386
	movq	optarg(%rip), %r8
	movl	76(%rsp), %esi
	movl	$66, %edx
	movl	%eax, %edi
	leaq	long_options(%rip), %rcx
	call	xstrtol_fatal@PLT
.LVL152:
.L82:
	.loc 1 863 15 is_stmt 0 view .LVU387
.LBE262:
	.loc 1 773 11 is_stmt 1 view .LVU388
	.loc 1 773 36 is_stmt 0 view .LVU389
	movb	$1, opt_nul_terminate_output(%rip)
	.loc 1 774 11 is_stmt 1 view .LVU390
	jmp	.L87
.LVL153:
	.p2align 4,,10
	.p2align 3
.L302:
	.loc 1 764 7 is_stmt 0 view .LVU391
	cmpl	$-131, %eax
	jne	.L304
	.loc 1 918 9 is_stmt 1 view .LVU392
	.loc 1 918 30 view .LVU393
	.loc 1 920 9 view .LVU394
.LVL154:
	.loc 1 920 9 is_stmt 0 view .LVU395
	pushq	%rax
	.cfi_def_cfa_offset 360
	leaq	.LC51(%rip), %rax
	movq	stdout(%rip), %rdi
	leaq	.LC49(%rip), %r9
	pushq	$0
	.cfi_def_cfa_offset 368
	movq	Version(%rip), %rcx
	leaq	.LC50(%rip), %r8
	leaq	.LC33(%rip), %rdx
	pushq	%rax
	.cfi_def_cfa_offset 376
	leaq	.LC52(%rip), %rax
	leaq	.LC3(%rip), %rsi
	pushq	%rax
	.cfi_def_cfa_offset 384
	xorl	%eax, %eax
	call	version_etc@PLT
.LVL155:
	.loc 1 920 9 is_stmt 1 view .LVU396
	addq	$32, %rsp
	.cfi_def_cfa_offset 352
	xorl	%edi, %edi
	call	exit@PLT
.LVL156:
.L83:
.LBB263:
	.loc 1 820 17 view .LVU397
	movq	optarg(%rip), %rdi
	call	quote@PLT
.LVL157:
	.loc 1 820 30 is_stmt 0 view .LVU398
	movl	$5, %edx
	leaq	.LC43(%rip), %rsi
	xorl	%edi, %edi
	.loc 1 820 17 view .LVU399
	movq	%rax, %r15
.LVL158:
	.loc 1 820 30 view .LVU400
	call	dcgettext@PLT
.LVL159:
	.loc 1 820 17 view .LVU401
	movq	%r15, %rcx
	xorl	%esi, %esi
	xorl	%edi, %edi
	.loc 1 820 30 view .LVU402
	movq	%rax, %rdx
	.loc 1 820 17 view .LVU403
	xorl	%eax, %eax
	.loc 1 822 20 view .LVU404
	xorl	%r15d, %r15d
	.loc 1 820 17 view .LVU405
	call	error@PLT
.LVL160:
	.loc 1 822 17 is_stmt 1 view .LVU406
	.loc 1 822 17 is_stmt 0 view .LVU407
.LBE263:
	.loc 1 825 11 is_stmt 1 view .LVU408
	jmp	.L87
.LVL161:
.L52:
	.loc 1 825 11 is_stmt 0 view .LVU409
.LBE265:
	.loc 1 927 3 is_stmt 1 view .LVU410
	.loc 1 927 6 is_stmt 0 view .LVU411
	testb	%r15b, %r15b
	je	.L301
	.loc 1 930 3 is_stmt 1 view .LVU412
	.loc 1 930 6 is_stmt 0 view .LVU413
	cmpb	$0, opt_all(%rip)
	je	.L89
	.loc 1 930 15 discriminator 1 view .LVU414
	cmpb	$0, 8(%rsp)
	jne	.L305
.LVL162:
.L90:
	.loc 1 952 3 is_stmt 1 view .LVU415
	.loc 1 952 6 is_stmt 0 view .LVU416
	cmpb	$0, opt_inodes(%rip)
	je	.L94
	.loc 1 954 7 is_stmt 1 view .LVU417
	.loc 1 954 10 is_stmt 0 view .LVU418
	cmpb	$0, apparent_size(%rip)
	jne	.L306
.L95:
	.loc 1 959 7 is_stmt 1 view .LVU419
	.loc 1 959 25 is_stmt 0 view .LVU420
	movq	$1, output_block_size(%rip)
.L94:
	.loc 1 963 3 is_stmt 1 view .LVU421
	.loc 1 963 6 is_stmt 0 view .LVU422
	cmpb	$0, opt_time(%rip)
	je	.L96
	.loc 1 965 7 is_stmt 1 view .LVU423
	.loc 1 965 10 is_stmt 0 view .LVU424
	cmpq	$0, time_style(%rip)
	je	.L97
	movq	time_style(%rip), %rcx
.LVL163:
.L98:
	.loc 1 990 7 is_stmt 1 view .LVU425
	.loc 1 990 10 is_stmt 0 view .LVU426
	cmpb	$43, (%rcx)
	.loc 1 990 11 view .LVU427
	movq	%rcx, %r10
	.loc 1 990 10 view .LVU428
	jne	.L101
.L103:
	.loc 1 991 9 is_stmt 1 view .LVU429
	.loc 1 991 34 is_stmt 0 view .LVU430
	leaq	1(%r10), %rax
	movq	%rax, time_format(%rip)
.L96:
	.loc 1 1012 3 is_stmt 1 view .LVU431
	.loc 1 1013 3 view .LVU432
	.loc 1 1013 6 is_stmt 0 view .LVU433
	cmpq	$0, 16(%rsp)
	movslq	optind(%rip), %rax
	je	.L108
	.loc 1 1017 7 is_stmt 1 view .LVU434
	.loc 1 1017 10 is_stmt 0 view .LVU435
	cmpl	%eax, %r12d
	jg	.L307
	.loc 1 1025 7 is_stmt 1 view .LVU436
	.loc 1 1025 14 is_stmt 0 view .LVU437
	movq	16(%rsp), %rbx
	leaq	.LC66(%rip), %rsi
	movq	%rbx, %rdi
	call	strcmp@PLT
.LVL164:
	.loc 1 1025 10 view .LVU438
	testl	%eax, %eax
	je	.L110
	.loc 1 1025 41 discriminator 1 view .LVU439
	movq	stdin(%rip), %rdx
	leaq	.LC67(%rip), %rsi
	movq	%rbx, %rdi
	call	freopen_safer@PLT
.LVL165:
	.loc 1 1025 11 discriminator 1 view .LVU440
	testq	%rax, %rax
	je	.L308
.L110:
	.loc 1 1029 7 is_stmt 1 view .LVU441
	.loc 1 1029 12 is_stmt 0 view .LVU442
	movq	stdin(%rip), %rdi
	call	argv_iter_init_stream@PLT
.LVL166:
	.loc 1 1033 16 view .LVU443
	movb	$1, hash_all(%rip)
	.loc 1 1029 12 view .LVU444
	movq	%rax, %rbp
.LVL167:
	.loc 1 1033 7 is_stmt 1 view .LVU445
.L111:
	.loc 1 1046 3 view .LVU446
	.loc 1 1046 6 is_stmt 0 view .LVU447
	testq	%rbp, %rbp
	je	.L118
	.loc 1 1050 3 is_stmt 1 view .LVU448
	.loc 1 1050 14 is_stmt 0 view .LVU449
	call	di_set_alloc@PLT
.LVL168:
	.loc 1 1050 12 view .LVU450
	movq	%rax, di_files(%rip)
	.loc 1 1051 3 is_stmt 1 view .LVU451
	.loc 1 1051 6 is_stmt 0 view .LVU452
	testq	%rax, %rax
	je	.L118
	.loc 1 1056 3 is_stmt 1 view .LVU453
	.loc 1 1056 6 is_stmt 0 view .LVU454
	cmpb	$0, opt_count_all(%rip)
	jne	.L115
	.loc 1 1056 21 discriminator 1 view .LVU455
	cmpb	$0, hash_all(%rip)
	jne	.L116
.L115:
	.loc 1 1057 5 is_stmt 1 view .LVU456
	.loc 1 1057 15 is_stmt 0 view .LVU457
	orl	$256, %r13d
.LVL169:
.L116:
	.loc 1 1059 3 is_stmt 1 view .LVU458
	.loc 1 1059 13 is_stmt 0 view .LVU459
	orl	24(%rsp), %r13d
.LVL170:
.LBB266:
.LBB267:
.LBB268:
.LBB269:
.LBB270:
.LBB271:
.LBB272:
.LBB273:
.LBB274:
.LBB275:
.LBB276:
.LBB277:
.LBB278:
.LBB279:
.LBB280:
.LBB281:
	.file 5 "/usr/include/x86_64-linux-gnu/sys/stat.h"
	.loc 5 455 10 view .LVU460
	leaq	128(%rsp), %rax
.LBE281:
.LBE280:
.LBE279:
.LBE278:
.LBE277:
.LBE276:
.LBE275:
.LBE274:
.LBE273:
.LBE272:
.LBE271:
.LBE270:
.LBE269:
.LBE268:
.LBE267:
.LBE266:
	.loc 1 1059 13 view .LVU461
	movb	%r15b, 42(%rsp)
	movl	%r13d, 44(%rsp)
.LVL171:
.LBB471:
.LBB454:
.LBB438:
.LBB421:
.LBB404:
.LBB388:
.LBB372:
.LBB308:
.LBB300:
.LBB297:
.LBB295:
.LBB293:
.LBB290:
.LBB288:
.LBB284:
.LBB282:
	.loc 5 455 10 view .LVU462
	movq	%rax, 56(%rsp)
	movb	%r15b, 41(%rsp)
	movq	%r14, 32(%rsp)
.LVL172:
	.loc 5 455 10 view .LVU463
	movq	%rbp, %r14
.LVL173:
	.p2align 4,,10
	.p2align 3
.L207:
	.loc 5 455 10 view .LVU464
.LBE282:
.LBE284:
.LBE288:
.LBE290:
.LBE293:
.LBE295:
.LBE297:
.LBE300:
.LBE308:
.LBE372:
.LBE388:
.LBE404:
.LBE421:
.LBE438:
.LBE454:
.LBE471:
	.loc 1 1060 3 is_stmt 1 view .LVU465
	.loc 1 1062 3 view .LVU466
.LBB472:
	.loc 1 1064 7 view .LVU467
	.loc 1 1065 7 view .LVU468
	.loc 1 1066 7 view .LVU469
	.loc 1 1066 25 is_stmt 0 view .LVU470
	movq	32(%rsp), %rsi
	movq	%r14, %rdi
	call	argv_iter@PLT
.LVL174:
	movq	%rax, %rbx
.LVL175:
	.loc 1 1067 7 is_stmt 1 view .LVU471
	.loc 1 1067 10 is_stmt 0 view .LVU472
	testq	%rax, %rax
	je	.L309
	.loc 1 1084 7 is_stmt 1 view .LVU473
	.loc 1 1084 10 is_stmt 0 view .LVU474
	cmpq	$0, 16(%rsp)
	je	.L310
	.loc 1 1084 25 discriminator 1 view .LVU475
	movq	16(%rsp), %rax
.LVL176:
	.loc 1 1084 25 discriminator 1 view .LVU476
	cmpb	$45, (%rax)
	jne	.L126
	.loc 1 1084 22 discriminator 1 view .LVU477
	cmpb	$0, 1(%rax)
	jne	.L126
	.loc 1 1084 52 discriminator 2 view .LVU478
	cmpb	$45, (%rbx)
	jne	.L126
	.loc 1 1084 49 discriminator 2 view .LVU479
	cmpb	$0, 1(%rbx)
	jne	.L126
	.loc 1 1088 11 is_stmt 1 view .LVU480
	movq	%rbx, %rsi
	movl	$4, %edi
	call	quotearg_style@PLT
.LVL177:
	.loc 1 1088 24 is_stmt 0 view .LVU481
	xorl	%edi, %edi
	movl	$5, %edx
	leaq	.LC72(%rip), %rsi
	.loc 1 1088 11 view .LVU482
	movq	%rax, %r12
	.loc 1 1088 24 view .LVU483
	call	dcgettext@PLT
.LVL178:
	.loc 1 1088 11 view .LVU484
	xorl	%esi, %esi
	xorl	%edi, %edi
	movq	%r12, %rcx
	.loc 1 1088 24 view .LVU485
	movq	%rax, %rdx
	.loc 1 1088 11 view .LVU486
	xorl	%eax, %eax
	call	error@PLT
.LVL179:
	.loc 1 1091 11 is_stmt 1 view .LVU487
	.loc 1 1098 7 view .LVU488
	.loc 1 1098 10 is_stmt 0 view .LVU489
	cmpb	$0, (%rbx)
	jne	.L299
.LVL180:
	.p2align 4,,10
	.p2align 3
.L129:
	.loc 1 1104 11 is_stmt 1 view .LVU490
.LBB455:
	.loc 1 1111 15 view .LVU491
	.loc 1 1111 47 is_stmt 0 view .LVU492
	movq	%r14, %rdi
	call	argv_iter_n_args@PLT
.LVL181:
	.loc 1 1112 15 view .LVU493
	movl	$5, %edx
	leaq	.LC81(%rip), %rsi
	xorl	%edi, %edi
	.loc 1 1111 47 view .LVU494
	movq	%rax, %rbx
.LVL182:
	.loc 1 1112 15 is_stmt 1 view .LVU495
	call	dcgettext@PLT
.LVL183:
	.loc 1 1112 15 is_stmt 0 view .LVU496
	movq	16(%rsp), %rdx
	movl	$3, %esi
	xorl	%edi, %edi
	movq	%rax, %rbp
	call	quotearg_n_style_colon@PLT
.LVL184:
	movq	%rbp, %r9
	movq	%rbx, %r8
	xorl	%esi, %esi
	movq	%rax, %rcx
	leaq	.LC82(%rip), %rdx
	xorl	%edi, %edi
	xorl	%eax, %eax
	call	error@PLT
.LVL185:
.L299:
	.loc 1 1112 15 view .LVU497
.LBE455:
	.loc 1 1119 12 view .LVU498
	movb	$0, 42(%rsp)
.LVL186:
	.loc 1 1119 12 view .LVU499
	jmp	.L207
.LVL187:
.L89:
	.loc 1 1119 12 view .LVU500
.LBE472:
	.loc 1 936 3 is_stmt 1 view .LVU501
	.loc 1 936 6 is_stmt 0 view .LVU502
	cmpb	$0, 32(%rsp)
	je	.L91
	cmpb	$0, 8(%rsp)
	je	.L90
	.loc 1 936 62 discriminator 1 view .LVU503
	movq	max_depth(%rip), %rbx
	.loc 1 936 49 discriminator 1 view .LVU504
	testq	%rbx, %rbx
	je	.L311
.LVL188:
.L92:
.LBB473:
	.loc 1 944 7 is_stmt 1 view .LVU505
	.loc 1 945 7 view .LVU506
	.loc 1 945 20 is_stmt 0 view .LVU507
	movl	$5, %edx
	leaq	.LC55(%rip), %rsi
	xorl	%edi, %edi
	call	dcgettext@PLT
.LVL189:
	.loc 1 945 7 view .LVU508
	xorl	%edi, %edi
	movq	%rbx, %rcx
	xorl	%esi, %esi
	.loc 1 945 20 view .LVU509
	movq	%rax, %rdx
	.loc 1 945 7 view .LVU510
	xorl	%eax, %eax
	call	error@PLT
.LVL190:
	.loc 1 946 7 is_stmt 1 view .LVU511
	movl	$1, %edi
	call	usage
.LVL191:
	.p2align 4,,10
	.p2align 3
.L126:
	.loc 1 946 7 is_stmt 0 view .LVU512
.LBE473:
.LBB474:
	.loc 1 1098 7 is_stmt 1 view .LVU513
	.loc 1 1098 10 is_stmt 0 view .LVU514
	cmpb	$0, (%rbx)
	je	.L129
.L124:
.LVL192:
	.loc 1 1122 11 is_stmt 1 view .LVU515
	.loc 1 1122 24 is_stmt 0 view .LVU516
	leaq	temp_argv.7601(%rip), %rax
.LBB456:
.LBB439:
.LBB422:
	.loc 1 685 18 view .LVU517
	movl	44(%rsp), %esi
	xorl	%edx, %edx
	movq	%rax, %rdi
.LBE422:
.LBE439:
.LBE456:
	.loc 1 1122 24 view .LVU518
	movq	%rbx, (%rax)
	.loc 1 1123 11 is_stmt 1 view .LVU519
.LVL193:
.LBB457:
.LBI267:
	.loc 1 679 1 view .LVU520
.LBB440:
	.loc 1 681 3 view .LVU521
	.loc 1 683 3 view .LVU522
.LBB423:
	.loc 1 685 7 view .LVU523
	.loc 1 685 18 is_stmt 0 view .LVU524
	call	xfts_open@PLT
.LVL194:
.LBB405:
.LBB389:
.LBB373:
.LBB309:
.LBB310:
.LBB311:
	.loc 1 96 18 view .LVU525
	movq	%r14, 48(%rsp)
.LBE311:
.LBE310:
.LBE309:
.LBE373:
.LBE389:
.LBE405:
	.loc 1 685 18 view .LVU526
	movq	%rax, 24(%rsp)
.LVL195:
	.loc 1 685 18 view .LVU527
.LBE423:
	.loc 1 681 8 view .LVU528
	movzbl	41(%rsp), %eax
.LVL196:
	.loc 1 681 8 view .LVU529
	movb	%al, 43(%rsp)
	jmp	.L206
.LVL197:
	.p2align 4,,10
	.p2align 3
.L316:
.LBB424:
.LBB406:
.LBB390:
.LBB374:
.LBB318:
	.loc 1 518 7 is_stmt 1 view .LVU530
	.loc 1 518 23 is_stmt 0 view .LVU531
	movq	8(%rsp), %rsi
	movq	exclude(%rip), %rdi
	call	excluded_file_name@PLT
.LVL198:
	.loc 1 519 7 is_stmt 1 view .LVU532
	.loc 1 519 10 is_stmt 0 view .LVU533
	testb	%al, %al
	jne	.L137
	.loc 1 523 11 is_stmt 1 view .LVU534
	.loc 1 523 14 is_stmt 0 view .LVU535
	cmpl	$11, %ebp
	je	.L312
.LVL199:
.L138:
	.loc 1 531 11 is_stmt 1 view .LVU536
	.loc 1 531 20 is_stmt 0 view .LVU537
	cmpl	$10, %ebp
	sete	%r15b
	.loc 1 531 38 view .LVU538
	cmpl	$13, %ebp
	sete	%al
	.loc 1 531 14 view .LVU539
	orb	%al, %r15b
	jne	.L313
	.loc 1 542 11 is_stmt 1 view .LVU540
	.loc 1 542 14 is_stmt 0 view .LVU541
	movq	24(%rsp), %rax
	testb	$64, 72(%rax)
	je	.L142
	.loc 1 543 15 view .LVU542
	cmpq	$0, 88(%r12)
	jle	.L142
	.loc 1 544 15 view .LVU543
	movq	112(%r12), %rsi
	cmpq	%rsi, 24(%rax)
	je	.L142
.L137:
.LVL200:
	.loc 1 556 11 is_stmt 1 view .LVU544
	.loc 1 556 14 is_stmt 0 view .LVU545
	subl	$1, %ebp
	je	.L145
.LVL201:
.L146:
	.loc 1 563 18 view .LVU546
	movzbl	41(%rsp), %r15d
.LVL202:
.L141:
	.loc 1 563 18 view .LVU547
	andb	%r15b, 43(%rsp)
.LVL203:
	.loc 1 563 18 view .LVU548
.LBE318:
.LBE374:
.LBE390:
.LBE406:
	.loc 1 687 13 is_stmt 1 view .LVU549
.L206:
	.loc 1 687 7 view .LVU550
.LBB407:
	.loc 1 689 11 view .LVU551
	.loc 1 691 11 view .LVU552
	.loc 1 691 17 is_stmt 0 view .LVU553
	movq	24(%rsp), %rdi
	call	rpl_fts_read@PLT
.LVL204:
	movq	%rax, %r12
.LVL205:
	.loc 1 692 11 is_stmt 1 view .LVU554
	.loc 1 692 14 is_stmt 0 view .LVU555
	testq	%rax, %rax
	je	.L314
	.loc 1 707 32 is_stmt 1 view .LVU556
	.loc 1 709 11 view .LVU557
.LVL206:
.LBB391:
.LBI271:
	.loc 1 489 1 view .LVU558
.LBB375:
	.loc 1 491 3 view .LVU559
	.loc 1 492 3 view .LVU560
	.loc 1 493 3 view .LVU561
	.loc 1 494 3 view .LVU562
	.loc 1 495 3 view .LVU563
	.loc 1 504 3 view .LVU564
	.loc 1 506 3 view .LVU565
	.loc 1 506 15 is_stmt 0 view .LVU566
	movq	56(%rax), %rax
.LVL207:
	.loc 1 508 7 view .LVU567
	movzwl	104(%r12), %ebp
	.loc 1 506 15 view .LVU568
	movq	%rax, 8(%rsp)
.LVL208:
	.loc 1 507 3 is_stmt 1 view .LVU569
	.loc 1 508 3 view .LVU570
	.loc 1 510 3 view .LVU571
	.loc 1 510 6 is_stmt 0 view .LVU572
	cmpl	$4, %ebp
	je	.L315
	.loc 1 516 8 is_stmt 1 view .LVU573
	.loc 1 491 8 is_stmt 0 view .LVU574
	movzbl	41(%rsp), %r15d
	.loc 1 516 11 view .LVU575
	cmpl	$6, %ebp
	jne	.L316
.LVL209:
.L136:
	.loc 1 589 3 is_stmt 1 view .LVU576
	.loc 1 593 26 is_stmt 0 view .LVU577
	movl	time_type(%rip), %eax
	.loc 1 589 3 view .LVU578
	testl	%eax, %eax
	jne	.L157
	.loc 1 589 3 view .LVU579
	movq	200(%r12), %r14
	movq	208(%r12), %r13
.LVL210:
	.loc 1 589 3 view .LVU580
.LBE375:
.LBE391:
.LBE407:
.LBE424:
.LBE440:
.LBE457:
.LBE474:
	.file 6 "./lib/stat-time.h"
	.loc 6 149 3 is_stmt 1 view .LVU581
.L158:
.LBB475:
.LBB458:
.LBB441:
.LBB425:
.LBB408:
.LBB392:
.LBB376:
	.loc 1 589 3 is_stmt 0 view .LVU582
	cmpb	$0, apparent_size(%rip)
	je	.L160
	.loc 1 591 18 view .LVU583
	cmpq	$0, 160(%r12)
	movl	$0, %ebx
	cmovns	160(%r12), %rbx
.L161:
.LVL211:
	.loc 1 591 18 view .LVU584
.LBE376:
.LBE392:
.LBE408:
.LBE425:
.LBE441:
.LBE458:
.LBE475:
	.loc 1 104 3 is_stmt 1 view .LVU585
	.loc 1 105 3 view .LVU586
	.loc 1 106 3 view .LVU587
.LBB476:
.LBB459:
.LBB442:
.LBB426:
.LBB409:
.LBB393:
.LBB377:
	.loc 1 597 3 view .LVU588
	.loc 1 600 15 is_stmt 0 view .LVU589
	movq	n_alloc.7509(%rip), %rdx
	.loc 1 597 9 view .LVU590
	movq	88(%r12), %r12
.LVL212:
	.loc 1 598 3 is_stmt 1 view .LVU591
	.loc 1 598 16 is_stmt 0 view .LVU592
	movq	%rbx, 80(%rsp)
	movq	$1, 88(%rsp)
	movq	%r14, 96(%rsp)
	movq	%r13, 104(%rsp)
	.loc 1 600 3 is_stmt 1 view .LVU593
	.loc 1 600 6 is_stmt 0 view .LVU594
	testq	%rdx, %rdx
	je	.L317
	.loc 1 607 7 is_stmt 1 view .LVU595
	.loc 1 607 17 is_stmt 0 view .LVU596
	movq	prev_level(%rip), %rax
	.loc 1 607 10 view .LVU597
	cmpq	%rax, %r12
	je	.L163
	.loc 1 611 12 is_stmt 1 view .LVU598
	.loc 1 611 15 is_stmt 0 view .LVU599
	jbe	.L165
	.loc 1 618 11 is_stmt 1 view .LVU600
	.loc 1 618 14 is_stmt 0 view .LVU601
	cmpq	%rdx, %r12
	jb	.L166
	.loc 1 620 15 is_stmt 1 view .LVU602
.LBB319:
.LBB320:
	.file 7 "./lib/xalloc.h"
	.loc 7 114 7 is_stmt 0 view .LVU603
	movl	$128, %edx
.LBE320:
.LBE319:
	.loc 1 620 23 view .LVU604
	movq	dulvl.7510(%rip), %rdi
.LVL213:
.LBB322:
.LBI319:
	.loc 7 112 1 is_stmt 1 view .LVU605
.LBB321:
	.loc 7 114 3 view .LVU606
	.loc 7 114 7 is_stmt 0 view .LVU607
	movq	%rdx, %rax
	mulq	%r12
	seto	%dl
	movzbl	%dl, %edx
	testq	%rax, %rax
	js	.L118
	.loc 7 114 6 view .LVU608
	testq	%rdx, %rdx
	jne	.L118
	.loc 7 116 3 is_stmt 1 view .LVU609
	.loc 7 116 10 is_stmt 0 view .LVU610
	movq	%r12, %rsi
	salq	$7, %rsi
	call	xrealloc@PLT
.LVL214:
	.loc 7 116 10 view .LVU611
.LBE321:
.LBE322:
	.loc 1 620 21 view .LVU612
	movq	%rax, dulvl.7510(%rip)
	.loc 1 621 15 is_stmt 1 view .LVU613
	.loc 1 621 31 is_stmt 0 view .LVU614
	leaq	(%r12,%r12), %rax
	.loc 1 621 23 view .LVU615
	movq	%rax, n_alloc.7509(%rip)
	movq	prev_level(%rip), %rax
.L166:
	.loc 1 624 11 is_stmt 1 view .LVU616
.LBB323:
	.loc 1 624 16 view .LVU617
	.loc 1 624 23 is_stmt 0 view .LVU618
	leaq	1(%rax), %rdx
.LVL215:
	.loc 1 624 43 is_stmt 1 view .LVU619
	.loc 1 624 11 is_stmt 0 view .LVU620
	cmpq	%rdx, %r12
	jb	.L163
	salq	$6, %rax
	addq	dulvl.7510(%rip), %rax
	.p2align 4,,10
	.p2align 3
.L171:
	.loc 1 626 15 is_stmt 1 view .LVU621
.LVL216:
.LBB314:
.LBI310:
	.loc 1 92 1 view .LVU622
.LBB312:
	.loc 1 94 3 view .LVU623
.LBE312:
.LBE314:
	.loc 1 624 56 is_stmt 0 view .LVU624
	addq	$1, %rdx
.LVL217:
.LBB315:
.LBB313:
	.loc 1 94 11 view .LVU625
	movq	$0, 64(%rax)
	.loc 1 95 3 is_stmt 1 view .LVU626
	.loc 1 96 18 is_stmt 0 view .LVU627
	movabsq	$-9223372036854775808, %rcx
	addq	$64, %rax
.LVL218:
	.loc 1 95 13 view .LVU628
	movq	$0, 8(%rax)
	.loc 1 96 3 is_stmt 1 view .LVU629
	.loc 1 96 18 is_stmt 0 view .LVU630
	movq	%rcx, 16(%rax)
	.loc 1 97 3 is_stmt 1 view .LVU631
	.loc 1 97 19 is_stmt 0 view .LVU632
	movq	$-1, 24(%rax)
.LVL219:
	.loc 1 97 19 view .LVU633
.LBE313:
.LBE315:
	.loc 1 627 15 is_stmt 1 view .LVU634
.LBB316:
.LBI316:
	.loc 1 92 1 view .LVU635
.LBB317:
	.loc 1 94 3 view .LVU636
	.loc 1 94 11 is_stmt 0 view .LVU637
	movq	$0, 32(%rax)
	.loc 1 95 3 is_stmt 1 view .LVU638
	.loc 1 95 13 is_stmt 0 view .LVU639
	movq	$0, 40(%rax)
	.loc 1 96 3 is_stmt 1 view .LVU640
	.loc 1 96 18 is_stmt 0 view .LVU641
	movq	%rcx, 48(%rax)
	.loc 1 97 3 is_stmt 1 view .LVU642
	.loc 1 97 19 is_stmt 0 view .LVU643
	movq	$-1, 56(%rax)
.LVL220:
	.loc 1 97 19 view .LVU644
.LBE317:
.LBE316:
	.loc 1 624 55 is_stmt 1 view .LVU645
	.loc 1 624 43 view .LVU646
	.loc 1 624 11 is_stmt 0 view .LVU647
	cmpq	%rdx, %r12
	jnb	.L171
.LVL221:
	.p2align 4,,10
	.p2align 3
.L163:
	.loc 1 624 11 view .LVU648
.LBE323:
	.loc 1 647 3 is_stmt 1 view .LVU649
	andl	$-3, %ebp
.LVL222:
	.loc 1 651 6 is_stmt 0 view .LVU650
	cmpb	$0, opt_separate_dirs(%rip)
	.loc 1 647 14 view .LVU651
	movq	%r12, prev_level(%rip)
	.loc 1 651 3 is_stmt 1 view .LVU652
	.loc 1 651 6 is_stmt 0 view .LVU653
	je	.L190
	.loc 1 651 7 view .LVU654
	cmpl	$4, %ebp
	je	.L191
.L190:
	.loc 1 652 5 is_stmt 1 view .LVU655
	.loc 1 652 23 is_stmt 0 view .LVU656
	movq	%r12, %rax
.LBB324:
.LBB325:
	.loc 1 114 34 view .LVU657
	movq	$-1, %rcx
	movq	%rbx, %rdx
.LBE325:
.LBE324:
	.loc 1 652 23 view .LVU658
	salq	$6, %rax
	addq	dulvl.7510(%rip), %rax
.LVL223:
.LBB331:
.LBI324:
	.loc 1 111 1 is_stmt 1 view .LVU659
.LBB330:
	.loc 1 113 3 view .LVU660
	.loc 1 114 3 view .LVU661
	.loc 1 114 34 is_stmt 0 view .LVU662
	addq	(%rax), %rdx
	movq	24(%rax), %rsi
	cmovc	%rcx, %rdx
.LBB326:
.LBB327:
	.file 8 "./lib/timespec.h"
	.loc 8 66 14 view .LVU663
	xorl	%ecx, %ecx
.LBE327:
.LBE326:
	.loc 1 115 25 view .LVU664
	addq	$1, 8(%rax)
	.loc 1 114 11 view .LVU665
	movq	%rdx, (%rax)
	.loc 1 115 3 is_stmt 1 view .LVU666
	.loc 1 116 3 view .LVU667
	movq	16(%rax), %rdx
.LVL224:
.LBB329:
.LBI326:
	.loc 8 64 1 view .LVU668
.LBB328:
	.loc 8 66 3 view .LVU669
	.loc 8 66 14 is_stmt 0 view .LVU670
	cmpq	%rdx, %r14
	setg	%dl
	setl	%cl
	movzbl	%dl, %edx
	subl	%edx, %ecx
	.loc 8 66 45 view .LVU671
	xorl	%edx, %edx
	cmpq	%rsi, %r13
	setg	%sil
	setl	%dl
	movzbl	%sil, %esi
	subl	%esi, %edx
	.loc 8 66 43 view .LVU672
	leal	(%rdx,%rcx,2), %edx
.LBE328:
.LBE329:
	.loc 1 116 6 view .LVU673
	testl	%edx, %edx
	jns	.L191
	.loc 1 117 5 is_stmt 1 view .LVU674
	.loc 1 117 13 is_stmt 0 view .LVU675
	movq	%r14, 16(%rax)
	movq	%r13, 24(%rax)
.LVL225:
.L191:
	.loc 1 117 13 view .LVU676
.LBE330:
.LBE331:
	.loc 1 656 3 is_stmt 1 view .LVU677
.LBB332:
.LBI332:
	.loc 1 111 1 view .LVU678
.LBB333:
	.loc 1 113 3 view .LVU679
	.loc 1 114 3 view .LVU680
	.loc 1 114 34 is_stmt 0 view .LVU681
	addq	tot_dui(%rip), %rbx
.LVL226:
	.loc 1 114 34 view .LVU682
	movq	$-1, %rax
	movq	24+tot_dui(%rip), %rcx
	cmovc	%rax, %rbx
	movq	16+tot_dui(%rip), %rax
.LBB334:
.LBB335:
	.loc 8 66 14 view .LVU683
	xorl	%edx, %edx
.LBE335:
.LBE334:
	.loc 1 115 13 view .LVU684
	addq	$1, 8+tot_dui(%rip)
.LBB338:
.LBB336:
	.loc 8 66 14 view .LVU685
	cmpq	%rax, %r14
.LBE336:
.LBE338:
	.loc 1 114 11 view .LVU686
	movq	%rbx, tot_dui(%rip)
	.loc 1 115 3 is_stmt 1 view .LVU687
	.loc 1 116 3 view .LVU688
.LVL227:
.LBB339:
.LBI334:
	.loc 8 64 1 view .LVU689
.LBB337:
	.loc 8 66 3 view .LVU690
	.loc 8 66 14 is_stmt 0 view .LVU691
	setg	%al
	setl	%dl
	movzbl	%al, %eax
	subl	%eax, %edx
	.loc 8 66 45 view .LVU692
	xorl	%eax, %eax
	cmpq	%rcx, %r13
	setg	%cl
	setl	%al
	movzbl	%cl, %ecx
	subl	%ecx, %eax
	.loc 8 66 43 view .LVU693
	leal	(%rax,%rdx,2), %eax
.LBE337:
.LBE339:
	.loc 1 116 6 view .LVU694
	testl	%eax, %eax
	jns	.L199
	.loc 1 117 5 is_stmt 1 view .LVU695
	.loc 1 117 13 is_stmt 0 view .LVU696
	movq	%r14, 16+tot_dui(%rip)
	movq	%r13, 24+tot_dui(%rip)
.L199:
.LVL228:
	.loc 1 117 13 view .LVU697
.LBE333:
.LBE332:
	.loc 1 658 3 is_stmt 1 view .LVU698
	.loc 1 658 6 is_stmt 0 view .LVU699
	cmpl	$4, %ebp
	je	.L200
	.loc 1 659 7 view .LVU700
	cmpb	$0, opt_all(%rip)
	jne	.L200
.L201:
	.loc 1 660 7 view .LVU701
	testq	%r12, %r12
	jne	.L141
.L202:
.LBB340:
	.loc 1 663 7 is_stmt 1 view .LVU702
	.loc 1 663 54 is_stmt 0 view .LVU703
	cmpb	$0, opt_inodes(%rip)
	movq	88(%rsp), %rax
	.loc 1 664 25 view .LVU704
	movq	opt_threshold(%rip), %rdx
	.loc 1 663 54 view .LVU705
	cmove	80(%rsp), %rax
.LVL229:
	.loc 1 664 7 is_stmt 1 view .LVU706
	.loc 1 664 11 is_stmt 0 view .LVU707
	cmpq	%rdx, %rax
	setnb	%cl
	testq	%rdx, %rdx
	jns	.L205
	.loc 1 665 18 view .LVU708
	negq	%rdx
	.loc 1 664 11 view .LVU709
	cmpq	%rax, %rdx
	setnb	%cl
.L205:
	.loc 1 664 10 view .LVU710
	testb	%cl, %cl
	je	.L141
	.loc 1 667 9 is_stmt 1 view .LVU711
	movq	8(%rsp), %rsi
	leaq	80(%rsp), %rdi
	call	print_size
.LVL230:
	.loc 1 667 9 is_stmt 0 view .LVU712
	jmp	.L141
	.p2align 4,,10
	.p2align 3
.L200:
	.loc 1 667 9 view .LVU713
.LBE340:
	.loc 1 659 7 view .LVU714
	cmpq	max_depth(%rip), %r12
	jbe	.L202
	jmp	.L201
.LVL231:
	.p2align 4,,10
	.p2align 3
.L310:
	.loc 1 659 7 view .LVU715
.LBE377:
.LBE393:
.LBE409:
.LBE426:
.LBE442:
.LBE459:
	.loc 1 1098 7 is_stmt 1 view .LVU716
	.loc 1 1098 10 is_stmt 0 view .LVU717
	cmpb	$0, (%rax)
	jne	.L124
	.loc 1 1104 11 is_stmt 1 view .LVU718
	.loc 1 1105 13 view .LVU719
	movl	$5, %edx
	leaq	.LC81(%rip), %rsi
	xorl	%edi, %edi
	call	dcgettext@PLT
.LVL232:
	.loc 1 1105 13 is_stmt 0 view .LVU720
	leaq	.LC46(%rip), %rdx
	xorl	%esi, %esi
	xorl	%edi, %edi
	movq	%rax, %rcx
	xorl	%eax, %eax
	call	error@PLT
.LVL233:
	.loc 1 1119 12 view .LVU721
	movb	$0, 42(%rsp)
.LVL234:
	.loc 1 1119 12 view .LVU722
.LBE476:
	.loc 1 1062 9 is_stmt 1 view .LVU723
	.loc 1 1063 5 is_stmt 0 view .LVU724
	jmp	.L207
.LVL235:
	.p2align 4,,10
	.p2align 3
.L160:
.LBB477:
.LBB460:
.LBB443:
.LBB427:
.LBB410:
.LBB394:
.LBB378:
	.loc 1 589 3 view .LVU725
	movq	176(%r12), %rbx
	salq	$9, %rbx
	jmp	.L161
	.p2align 4,,10
	.p2align 3
.L157:
	.loc 1 589 3 view .LVU726
	cmpl	$2, %eax
	je	.L318
	movq	216(%r12), %r14
	movq	224(%r12), %r13
.LVL236:
	.loc 1 589 3 view .LVU727
.LBE378:
.LBE394:
.LBE410:
.LBE427:
.LBE443:
.LBE460:
.LBE477:
	.loc 6 135 3 is_stmt 1 view .LVU728
	jmp	.L158
.LVL237:
.L317:
.LBB478:
.LBB461:
.LBB444:
.LBB428:
.LBB411:
.LBB395:
.LBB379:
	.loc 1 602 7 view .LVU729
	.loc 1 602 23 is_stmt 0 view .LVU730
	leaq	10(%r12), %rdi
	.loc 1 603 15 view .LVU731
	movl	$64, %esi
	.loc 1 602 15 view .LVU732
	movq	%rdi, n_alloc.7509(%rip)
	.loc 1 603 7 is_stmt 1 view .LVU733
	.loc 1 603 15 is_stmt 0 view .LVU734
	call	xcalloc@PLT
.LVL238:
	.loc 1 603 13 view .LVU735
	movq	%rax, dulvl.7510(%rip)
	jmp	.L163
.LVL239:
.L315:
	.loc 1 513 7 is_stmt 1 view .LVU736
	movq	%rax, %rsi
	movl	$4, %edi
	.loc 1 514 10 is_stmt 0 view .LVU737
	xorl	%r15d, %r15d
	.loc 1 513 7 view .LVU738
	call	quotearg_style@PLT
.LVL240:
	.loc 1 513 33 view .LVU739
	movl	$5, %edx
	leaq	.LC74(%rip), %rsi
	xorl	%edi, %edi
	.loc 1 513 7 view .LVU740
	movq	%rax, %r13
	.loc 1 513 33 view .LVU741
	call	dcgettext@PLT
.LVL241:
	.loc 1 513 7 view .LVU742
	movl	64(%r12), %esi
	movq	%r13, %rcx
	xorl	%edi, %edi
	.loc 1 513 33 view .LVU743
	movq	%rax, %rdx
	.loc 1 513 7 view .LVU744
	xorl	%eax, %eax
	call	error@PLT
.LVL242:
	.loc 1 514 7 is_stmt 1 view .LVU745
	.loc 1 514 7 is_stmt 0 view .LVU746
	jmp	.L136
.LVL243:
.L309:
	.loc 1 514 7 view .LVU747
.LBE379:
.LBE395:
.LBE411:
.LBE428:
.LBE444:
.LBE461:
	.loc 1 1069 11 view .LVU748
	movl	76(%rsp), %eax
.LVL244:
	.loc 1 1069 11 view .LVU749
	movq	%r14, %rbp
	.loc 1 1069 11 is_stmt 1 view .LVU750
	cmpl	$3, %eax
	je	.L118
	cmpl	$4, %eax
	jne	.L319
	.loc 1 1074 15 view .LVU751
	movq	16(%rsp), %rdx
	movl	$3, %esi
	xorl	%edi, %edi
	call	quotearg_n_style_colon@PLT
.LVL245:
	.loc 1 1074 32 is_stmt 0 view .LVU752
	movl	$5, %edx
	leaq	.LC69(%rip), %rsi
	xorl	%edi, %edi
	.loc 1 1074 15 view .LVU753
	movq	%rax, %r13
	.loc 1 1074 32 view .LVU754
	call	dcgettext@PLT
.LVL246:
	movq	%rax, %r12
	.loc 1 1074 25 view .LVU755
	call	__errno_location@PLT
.LVL247:
	.loc 1 1074 15 view .LVU756
	movq	%r13, %rcx
	movq	%r12, %rdx
	xorl	%edi, %edi
	movl	(%rax), %esi
	xorl	%eax, %eax
	call	error@PLT
.LVL248:
	.loc 1 1076 15 is_stmt 1 view .LVU757
	.loc 1 1077 15 view .LVU758
	.loc 1 1076 18 is_stmt 0 view .LVU759
	movb	$0, 42(%rsp)
.LVL249:
.L120:
.LDL1:
	.loc 1 1076 18 view .LVU760
.LBE478:
	.loc 1 1128 3 is_stmt 1 discriminator 1 view .LVU761
	movq	%rbp, %rdi
	call	argv_iter_free@PLT
.LVL250:
	.loc 1 1129 3 discriminator 1 view .LVU762
	movq	di_files(%rip), %rdi
	call	di_set_free@PLT
.LVL251:
	.loc 1 1130 3 discriminator 1 view .LVU763
	.loc 1 1130 7 is_stmt 0 discriminator 1 view .LVU764
	movq	di_mnt(%rip), %rdi
	.loc 1 1130 6 discriminator 1 view .LVU765
	testq	%rdi, %rdi
	je	.L208
	.loc 1 1131 5 is_stmt 1 view .LVU766
	call	di_set_free@PLT
.LVL252:
.L208:
	.loc 1 1133 3 view .LVU767
	.loc 1 1133 6 is_stmt 0 view .LVU768
	cmpq	$0, 16(%rsp)
	je	.L209
	.loc 1 1133 22 discriminator 1 view .LVU769
	movq	stdin(%rip), %rdi
.LVL253:
.LBB479:
.LBI479:
	.loc 2 135 1 is_stmt 1 discriminator 1 view .LVU770
.LBB480:
	.loc 2 137 3 discriminator 1 view .LVU771
	.loc 2 137 3 is_stmt 0 discriminator 1 view .LVU772
.LBE480:
.LBE479:
	.loc 1 1133 18 discriminator 1 view .LVU773
	testb	$32, (%rdi)
	je	.L210
.L212:
	.loc 1 1133 61 view .LVU774
	cmpb	$0, 42(%rsp)
	jne	.L320
.L209:
	.loc 1 1136 3 is_stmt 1 view .LVU775
	.loc 1 1136 6 is_stmt 0 view .LVU776
	cmpb	$0, print_grand_total(%rip)
	jne	.L321
.L213:
	.loc 1 1139 3 is_stmt 1 view .LVU777
	.loc 1 1139 28 is_stmt 0 view .LVU778
	movzbl	42(%rsp), %eax
	xorl	$1, %eax
	.loc 1 1140 1 view .LVU779
	movq	280(%rsp), %rsi
	xorq	%fs:40, %rsi
	.loc 1 1139 28 view .LVU780
	movzbl	%al, %eax
	.loc 1 1140 1 view .LVU781
	jne	.L322
	addq	$296, %rsp
	.cfi_remember_state
	.cfi_def_cfa_offset 56
	popq	%rbx
	.cfi_def_cfa_offset 48
.LVL254:
	.loc 1 1140 1 view .LVU782
	popq	%rbp
	.cfi_def_cfa_offset 40
	popq	%r12
	.cfi_def_cfa_offset 32
	popq	%r13
	.cfi_def_cfa_offset 24
	popq	%r14
	.cfi_def_cfa_offset 16
	popq	%r15
	.cfi_def_cfa_offset 8
	ret
.LVL255:
.L319:
	.cfi_restore_state
.LBB481:
	.loc 1 1069 11 view .LVU783
	cmpl	$2, %eax
	je	.L120
	.loc 1 1081 15 is_stmt 1 discriminator 1 view .LVU784
	.loc 1 1081 15 discriminator 1 view .LVU785
	leaq	__PRETTY_FUNCTION__.7610(%rip), %rcx
	movl	$1081, %edx
	leaq	.LC70(%rip), %rsi
	leaq	.LC71(%rip), %rdi
	call	__assert_fail@PLT
.LVL256:
.L142:
.LBB462:
.LBB445:
.LBB429:
.LBB412:
.LBB396:
.LBB380:
.LBB341:
	.loc 1 548 7 view .LVU786
	.loc 1 549 11 is_stmt 0 view .LVU787
	cmpb	$0, opt_count_all(%rip)
	jne	.L144
	.loc 1 550 15 view .LVU788
	cmpb	$0, hash_all(%rip)
	jne	.L143
	.loc 1 550 34 view .LVU789
	movl	136(%r12), %eax
	andl	$61440, %eax
	.loc 1 550 28 view .LVU790
	cmpl	$16384, %eax
	je	.L144
	.loc 1 550 56 view .LVU791
	cmpq	$1, 128(%r12)
	jbe	.L144
.L143:
.LVL257:
.LBB301:
.LBI301:
	.loc 1 367 1 is_stmt 1 view .LVU792
.LBB302:
	.loc 1 369 3 view .LVU793
	.loc 1 369 18 is_stmt 0 view .LVU794
	movq	120(%r12), %rdx
	movq	112(%r12), %rsi
	movq	di_files(%rip), %rdi
	call	di_set_insert@PLT
.LVL258:
	.loc 1 370 3 is_stmt 1 view .LVU795
	.loc 1 370 6 is_stmt 0 view .LVU796
	testl	%eax, %eax
	js	.L118
	.loc 1 372 3 is_stmt 1 view .LVU797
.LVL259:
	.loc 1 372 3 is_stmt 0 view .LVU798
.LBE302:
.LBE301:
	.loc 1 551 15 view .LVU799
	je	.L137
.L144:
	.loc 1 566 7 is_stmt 1 view .LVU800
	cmpl	$2, %ebp
	je	.L147
	cmpl	$7, %ebp
	je	.L148
	movzbl	41(%rsp), %r15d
	cmpl	$1, %ebp
	jne	.L136
	jmp	.L141
.LVL260:
.L165:
	.loc 1 566 7 is_stmt 0 view .LVU801
.LBE341:
	.loc 1 638 11 is_stmt 1 view .LVU802
	leaq	-1(%rax), %rdx
	cmpq	%rdx, %r12
	jne	.L323
	.loc 1 639 11 view .LVU803
	.loc 1 639 44 is_stmt 0 view .LVU804
	movq	dulvl.7510(%rip), %rdx
	salq	$6, %rax
.LBB342:
.LBB343:
	.loc 1 114 34 view .LVU805
	movq	%rbx, %rsi
	movq	$-1, %rcx
.LBE343:
.LBE342:
	.loc 1 639 44 view .LVU806
	addq	%rdx, %rax
.LVL261:
.LBB349:
.LBI342:
	.loc 1 111 1 is_stmt 1 view .LVU807
.LBB348:
	.loc 1 113 3 view .LVU808
	.loc 1 114 3 view .LVU809
	.loc 1 114 34 is_stmt 0 view .LVU810
	addq	(%rax), %rsi
	cmovnc	%rsi, %rcx
	.loc 1 115 25 view .LVU811
	movq	8(%rax), %rsi
.LBB344:
.LBB345:
	.loc 8 66 14 view .LVU812
	xorl	%r8d, %r8d
.LBE345:
.LBE344:
	.loc 1 115 25 view .LVU813
	addq	$1, %rsi
	.loc 1 114 11 view .LVU814
	movq	%rcx, 80(%rsp)
	.loc 1 115 3 is_stmt 1 view .LVU815
	.loc 1 115 13 is_stmt 0 view .LVU816
	movq	%rsi, 88(%rsp)
	.loc 1 116 3 is_stmt 1 view .LVU817
.LVL262:
	.loc 1 116 3 is_stmt 0 view .LVU818
	movq	16(%rax), %rdi
.LVL263:
	.loc 1 116 3 view .LVU819
	movq	24(%rax), %r9
.LVL264:
.LBB347:
.LBI344:
	.loc 8 64 1 is_stmt 1 view .LVU820
.LBB346:
	.loc 8 66 3 view .LVU821
	.loc 8 66 14 is_stmt 0 view .LVU822
	cmpq	%rdi, %r14
	setl	%dil
	setg	%r8b
	movzbl	%dil, %edi
	subl	%edi, %r8d
	.loc 8 66 45 view .LVU823
	xorl	%edi, %edi
	cmpq	%r9, %r13
	setl	%r9b
	setg	%dil
	movzbl	%r9b, %r9d
	subl	%r9d, %edi
	.loc 8 66 43 view .LVU824
	leal	(%rdi,%r8,2), %edi
.LBE346:
.LBE347:
	.loc 1 116 6 view .LVU825
	testl	%edi, %edi
	jns	.L176
	.loc 1 117 5 is_stmt 1 view .LVU826
	.loc 1 117 13 is_stmt 0 view .LVU827
	movdqu	16(%rax), %xmm0
	movaps	%xmm0, 96(%rsp)
.L176:
.LVL265:
	.loc 1 117 13 view .LVU828
.LBE348:
.LBE349:
	.loc 1 640 11 is_stmt 1 view .LVU829
	.loc 1 640 14 is_stmt 0 view .LVU830
	cmpb	$0, opt_separate_dirs(%rip)
	je	.L324
.L178:
	.loc 1 642 11 is_stmt 1 view .LVU831
	.loc 1 642 29 is_stmt 0 view .LVU832
	movq	%r12, %rcx
.LBB350:
.LBB351:
	.loc 1 114 34 view .LVU833
	movq	$-1, %rsi
.LBE351:
.LBE350:
	.loc 1 642 29 view .LVU834
	salq	$6, %rcx
	addq	%rcx, %rdx
.LVL266:
.LBB357:
.LBI350:
	.loc 1 111 1 is_stmt 1 view .LVU835
.LBB356:
	.loc 1 113 3 view .LVU836
	movq	(%rax), %rcx
.LVL267:
	.loc 1 114 3 view .LVU837
	.loc 1 114 34 is_stmt 0 view .LVU838
	addq	32(%rdx), %rcx
	movq	48(%rdx), %rdi
	cmovc	%rsi, %rcx
	.loc 1 115 25 view .LVU839
	movq	8(%rax), %rsi
	addq	40(%rdx), %rsi
.LBB352:
.LBB353:
	.loc 8 66 14 view .LVU840
	xorl	%r10d, %r10d
.LBE353:
.LBE352:
	.loc 1 115 13 view .LVU841
	movq	%rsi, 40(%rdx)
	movq	56(%rdx), %r8
	.loc 1 114 11 view .LVU842
	movq	%rcx, 32(%rdx)
	.loc 1 115 3 is_stmt 1 view .LVU843
	.loc 1 116 3 view .LVU844
.LVL268:
	.loc 1 116 3 is_stmt 0 view .LVU845
	movq	16(%rax), %r9
.LVL269:
	.loc 1 116 3 view .LVU846
	movq	24(%rax), %r11
.LVL270:
.LBB355:
.LBI352:
	.loc 8 64 1 is_stmt 1 view .LVU847
.LBB354:
	.loc 8 66 3 view .LVU848
	.loc 8 66 14 is_stmt 0 view .LVU849
	cmpq	%r9, %rdi
	setl	%r9b
	setg	%r10b
	movzbl	%r9b, %r9d
	subl	%r9d, %r10d
	.loc 8 66 45 view .LVU850
	xorl	%r9d, %r9d
	cmpq	%r11, %r8
	setl	%r11b
	setg	%r9b
	movzbl	%r11b, %r11d
	subl	%r11d, %r9d
	.loc 8 66 43 view .LVU851
	leal	(%r9,%r10,2), %r9d
.LBE354:
.LBE355:
	.loc 1 116 6 view .LVU852
	testl	%r9d, %r9d
	jns	.L186
	.loc 1 117 5 is_stmt 1 view .LVU853
	.loc 1 117 13 is_stmt 0 view .LVU854
	movdqu	16(%rax), %xmm1
	movq	16(%rax), %rdi
	movups	%xmm1, 48(%rdx)
	movq	56(%rdx), %r8
.L186:
.LVL271:
	.loc 1 117 13 view .LVU855
.LBE356:
.LBE357:
	.loc 1 643 11 is_stmt 1 view .LVU856
.LBB358:
.LBI358:
	.loc 1 111 1 view .LVU857
.LBB359:
	.loc 1 113 3 view .LVU858
	.loc 1 114 3 view .LVU859
	.loc 1 114 34 is_stmt 0 view .LVU860
	addq	32(%rax), %rcx
	movq	$-1, %r9
	cmovc	%r9, %rcx
	.loc 1 115 25 view .LVU861
	addq	40(%rax), %rsi
	.loc 1 115 13 view .LVU862
	movq	%rsi, 40(%rdx)
	.loc 1 114 11 view .LVU863
	movq	%rcx, 32(%rdx)
	.loc 1 115 3 is_stmt 1 view .LVU864
	.loc 1 116 3 view .LVU865
.LVL272:
	.loc 1 116 3 is_stmt 0 view .LVU866
	movq	48(%rax), %r9
.LVL273:
.LBB360:
.LBB361:
	.loc 8 66 14 view .LVU867
	xorl	%ecx, %ecx
	movq	56(%rax), %rsi
.LVL274:
	.loc 8 66 14 view .LVU868
.LBE361:
.LBI360:
	.loc 8 64 1 is_stmt 1 view .LVU869
.LBB362:
	.loc 8 66 3 view .LVU870
	.loc 8 66 14 is_stmt 0 view .LVU871
	cmpq	%r9, %rdi
	setl	%dil
	setg	%cl
	movzbl	%dil, %edi
	subl	%edi, %ecx
	.loc 8 66 45 view .LVU872
	xorl	%edi, %edi
	cmpq	%rsi, %r8
	setl	%sil
	setg	%dil
	movzbl	%sil, %esi
	subl	%esi, %edi
	.loc 8 66 43 view .LVU873
	leal	(%rdi,%rcx,2), %ecx
.LBE362:
.LBE360:
	.loc 1 116 6 view .LVU874
	testl	%ecx, %ecx
	jns	.L163
	.loc 1 117 5 is_stmt 1 view .LVU875
	.loc 1 117 13 is_stmt 0 view .LVU876
	movdqu	48(%rax), %xmm2
	movups	%xmm2, 48(%rdx)
	jmp	.L163
.LVL275:
.L314:
	.loc 1 117 13 view .LVU877
.LBE359:
.LBE358:
.LBE380:
.LBE396:
	.loc 1 694 19 view .LVU878
	call	__errno_location@PLT
.LVL276:
	.loc 1 694 19 view .LVU879
	movq	48(%rsp), %r14
	.loc 1 694 15 is_stmt 1 view .LVU880
	.loc 1 694 18 is_stmt 0 view .LVU881
	cmpl	$0, (%rax)
	.loc 1 694 19 view .LVU882
	movq	%rax, %rbx
	.loc 1 694 18 view .LVU883
	jne	.L325
.LVL277:
.L132:
	.loc 1 704 15 is_stmt 1 view .LVU884
	.loc 1 704 26 is_stmt 0 view .LVU885
	movq	$0, prev_level(%rip)
	.loc 1 705 15 is_stmt 1 view .LVU886
.LBE412:
	.loc 1 712 7 view .LVU887
	.loc 1 712 11 is_stmt 0 view .LVU888
	movq	24(%rsp), %rdi
	call	rpl_fts_close@PLT
.LVL278:
	.loc 1 712 10 view .LVU889
	testl	%eax, %eax
	jne	.L326
.LVL279:
.L134:
	.loc 1 712 10 view .LVU890
.LBE429:
	.loc 1 719 3 is_stmt 1 view .LVU891
	.loc 1 719 3 is_stmt 0 view .LVU892
	movzbl	43(%rsp), %esi
	andb	%sil, 42(%rsp)
.LVL280:
	.loc 1 719 3 view .LVU893
	jmp	.L207
.LVL281:
.L318:
	.loc 1 719 3 view .LVU894
	movq	184(%r12), %r14
	movq	192(%r12), %r13
.LVL282:
	.loc 1 719 3 view .LVU895
.LBE445:
.LBE462:
.LBE481:
	.loc 6 121 3 is_stmt 1 view .LVU896
.LBB482:
.LBB463:
.LBB446:
.LBB430:
.LBB413:
.LBB397:
.LBB381:
	jmp	.L158
.LVL283:
.L311:
	.loc 6 121 3 is_stmt 0 view .LVU897
.LBE381:
.LBE397:
.LBE413:
.LBE430:
.LBE446:
.LBE463:
.LBE482:
	.loc 1 938 7 is_stmt 1 view .LVU898
	.loc 1 939 14 is_stmt 0 view .LVU899
	movl	$5, %edx
	leaq	.LC54(%rip), %rsi
	xorl	%edi, %edi
	call	dcgettext@PLT
.LVL284:
	.loc 1 938 7 view .LVU900
	xorl	%esi, %esi
	xorl	%edi, %edi
	.loc 1 939 14 view .LVU901
	movq	%rax, %rdx
	.loc 1 938 7 view .LVU902
	xorl	%eax, %eax
	call	error@PLT
.LVL285:
	.loc 1 942 3 is_stmt 1 view .LVU903
	.loc 1 942 62 is_stmt 0 view .LVU904
	movq	max_depth(%rip), %rbx
	.loc 1 942 49 view .LVU905
	testq	%rbx, %rbx
	jne	.L92
.L93:
	.loc 1 950 5 is_stmt 1 view .LVU906
	.loc 1 950 15 is_stmt 0 view .LVU907
	movq	$0, max_depth(%rip)
	jmp	.L90
.LVL286:
.L145:
.LBB483:
.LBB464:
.LBB447:
.LBB431:
.LBB414:
.LBB398:
.LBB382:
.LBB363:
.LBB303:
	.loc 1 558 15 is_stmt 1 view .LVU908
	movq	24(%rsp), %rbx
	movl	$4, %edx
	movq	%r12, %rsi
	movq	%rbx, %rdi
	call	rpl_fts_set@PLT
.LVL287:
	.loc 1 559 15 view .LVU909
	.loc 1 559 33 is_stmt 0 view .LVU910
	movq	%rbx, %rdi
	call	rpl_fts_read@PLT
.LVL288:
	.loc 1 560 15 is_stmt 1 view .LVU911
	cmpq	%rax, %r12
	je	.L146
	.loc 1 560 15 view .LVU912
	leaq	__PRETTY_FUNCTION__.7516(%rip), %rcx
	movl	$560, %edx
	leaq	.LC70(%rip), %rsi
	leaq	.LC75(%rip), %rdi
	call	__assert_fail@PLT
.LVL289:
.L321:
	.loc 1 560 15 is_stmt 0 view .LVU913
.LBE303:
.LBE363:
.LBE382:
.LBE398:
.LBE414:
.LBE431:
.LBE447:
.LBE464:
.LBE483:
	.loc 1 1137 5 is_stmt 1 view .LVU914
	.loc 1 1137 27 is_stmt 0 view .LVU915
	xorl	%edi, %edi
	movl	$5, %edx
	leaq	.LC80(%rip), %rsi
	call	dcgettext@PLT
.LVL290:
	.loc 1 1137 5 view .LVU916
	leaq	tot_dui(%rip), %rdi
	.loc 1 1137 27 view .LVU917
	movq	%rax, %rsi
	.loc 1 1137 5 view .LVU918
	call	print_size
.LVL291:
	jmp	.L213
.LVL292:
.L108:
.LBB484:
	.loc 1 1037 7 is_stmt 1 view .LVU919
	.loc 1 1037 53 is_stmt 0 view .LVU920
	leaq	112(%rsp), %rdi
	cmpl	%eax, %r12d
	jle	.L112
	.loc 1 1037 53 discriminator 1 view .LVU921
	leaq	0(%rbp,%rax,8), %rdi
.L112:
.LVL293:
	.loc 1 1038 7 is_stmt 1 discriminator 4 view .LVU922
	.loc 1 1038 12 is_stmt 0 discriminator 4 view .LVU923
	call	argv_iter_init_argv@PLT
.LVL294:
	.loc 1 1038 12 discriminator 4 view .LVU924
	movq	%rax, %rbp
.LVL295:
	.loc 1 1043 7 is_stmt 1 discriminator 4 view .LVU925
	.loc 1 1043 26 is_stmt 0 discriminator 4 view .LVU926
	movl	optind(%rip), %eax
.LVL296:
	.loc 1 1043 26 discriminator 4 view .LVU927
	addl	$1, %eax
	.loc 1 1043 37 discriminator 4 view .LVU928
	cmpl	%r12d, %eax
	setl	%al
	cmpl	$2, 24(%rsp)
	sete	%dl
	.loc 1 1043 16 discriminator 4 view .LVU929
	orl	%edx, %eax
	movb	%al, hash_all(%rip)
	jmp	.L111
.LVL297:
.L324:
	.loc 1 1043 16 discriminator 4 view .LVU930
.LBE484:
.LBB485:
.LBB465:
.LBB448:
.LBB432:
.LBB415:
.LBB399:
.LBB383:
	.loc 1 641 13 is_stmt 1 view .LVU931
.LBB364:
.LBI364:
	.loc 1 111 1 view .LVU932
.LBB365:
	.loc 1 113 3 view .LVU933
	.loc 1 114 3 view .LVU934
	.loc 1 114 34 is_stmt 0 view .LVU935
	addq	32(%rax), %rcx
	movq	$-1, %rdi
	movq	96(%rsp), %r8
	cmovc	%rdi, %rcx
	.loc 1 115 25 view .LVU936
	addq	40(%rax), %rsi
	movq	104(%rsp), %r9
	.loc 1 115 13 view .LVU937
	movq	%rsi, 88(%rsp)
	.loc 1 114 11 view .LVU938
	movq	%rcx, 80(%rsp)
	.loc 1 115 3 is_stmt 1 view .LVU939
	.loc 1 116 3 view .LVU940
.LVL298:
	.loc 1 116 3 is_stmt 0 view .LVU941
	movq	48(%rax), %rdi
.LVL299:
.LBB366:
.LBB367:
	.loc 8 66 14 view .LVU942
	xorl	%ecx, %ecx
	movq	56(%rax), %rsi
.LVL300:
	.loc 8 66 14 view .LVU943
.LBE367:
.LBI366:
	.loc 8 64 1 is_stmt 1 view .LVU944
.LBB368:
	.loc 8 66 3 view .LVU945
	.loc 8 66 14 is_stmt 0 view .LVU946
	cmpq	%rdi, %r8
	setl	%dil
	setg	%cl
	movzbl	%dil, %edi
	subl	%edi, %ecx
	.loc 8 66 45 view .LVU947
	xorl	%edi, %edi
	cmpq	%rsi, %r9
	setl	%sil
	setg	%dil
	movzbl	%sil, %esi
	subl	%esi, %edi
	.loc 8 66 43 view .LVU948
	leal	(%rdi,%rcx,2), %ecx
.LBE368:
.LBE366:
	.loc 1 116 6 view .LVU949
	testl	%ecx, %ecx
	jns	.L178
	.loc 1 117 5 is_stmt 1 view .LVU950
	.loc 1 117 13 is_stmt 0 view .LVU951
	movdqu	48(%rax), %xmm3
	movaps	%xmm3, 96(%rsp)
	jmp	.L178
.LVL301:
.L99:
	.loc 1 117 13 view .LVU952
.LBE365:
.LBE364:
.LBE383:
.LBE399:
.LBE415:
.LBE432:
.LBE448:
.LBE465:
.LBE485:
	.loc 1 971 13 is_stmt 1 view .LVU953
	.loc 1 971 24 is_stmt 0 view .LVU954
	leaq	.LC38(%rip), %rax
	movq	%rax, time_style(%rip)
	.loc 1 990 7 is_stmt 1 view .LVU955
	.loc 1 990 11 is_stmt 0 view .LVU956
	movq	%rax, %r10
.LVL302:
.L101:
	.loc 1 994 11 is_stmt 1 view .LVU957
	.loc 1 994 19 is_stmt 0 view .LVU958
	movq	argmatch_die(%rip), %r9
	movl	$4, %r8d
	movq	%r10, %rsi
	leaq	time_style_types(%rip), %rcx
	leaq	time_style_args(%rip), %rdx
	leaq	.LC59(%rip), %rdi
	call	__xargmatch_internal@PLT
.LVL303:
	movq	%rax, %r8
	leaq	time_style_types(%rip), %rax
	movl	(%rax,%r8,4), %eax
	.loc 1 994 11 view .LVU959
	cmpl	$1, %eax
	je	.L106
	cmpl	$2, %eax
	je	.L107
	testl	%eax, %eax
	jne	.L96
	.loc 1 998 15 is_stmt 1 view .LVU960
	.loc 1 998 27 is_stmt 0 view .LVU961
	leaq	.LC60(%rip), %rax
	movq	%rax, time_format(%rip)
	.loc 1 999 15 is_stmt 1 view .LVU962
	jmp	.L96
.LVL304:
.L326:
.LBB486:
.LBB466:
.LBB449:
.LBB433:
	.loc 1 714 11 view .LVU963
	.loc 1 714 28 is_stmt 0 view .LVU964
	movl	$5, %edx
	leaq	.LC78(%rip), %rsi
	xorl	%edi, %edi
	call	dcgettext@PLT
.LVL305:
	.loc 1 714 11 view .LVU965
	movl	(%rbx), %esi
	xorl	%edi, %edi
	.loc 1 714 28 view .LVU966
	movq	%rax, %rdx
	.loc 1 714 11 view .LVU967
	xorl	%eax, %eax
	call	error@PLT
.LVL306:
	.loc 1 715 11 is_stmt 1 view .LVU968
	.loc 1 715 14 is_stmt 0 view .LVU969
	movb	$0, 43(%rsp)
	jmp	.L134
.LVL307:
.L325:
.LBB416:
	.loc 1 696 19 is_stmt 1 view .LVU970
	movq	24(%rsp), %rax
	movl	$3, %esi
	xorl	%edi, %edi
	movq	32(%rax), %rdx
	call	quotearg_n_style_colon@PLT
.LVL308:
	.loc 1 696 36 is_stmt 0 view .LVU971
	movl	$5, %edx
	leaq	.LC73(%rip), %rsi
	xorl	%edi, %edi
	.loc 1 696 19 view .LVU972
	movq	%rax, %r12
.LVL309:
	.loc 1 696 36 view .LVU973
	call	dcgettext@PLT
.LVL310:
	.loc 1 696 19 view .LVU974
	movl	(%rbx), %esi
	movq	%r12, %rcx
	xorl	%edi, %edi
	.loc 1 696 36 view .LVU975
	movq	%rax, %rdx
	.loc 1 696 19 view .LVU976
	xorl	%eax, %eax
	call	error@PLT
.LVL311:
	.loc 1 698 19 is_stmt 1 view .LVU977
	.loc 1 698 22 is_stmt 0 view .LVU978
	movb	$0, 43(%rsp)
	jmp	.L132
.LVL312:
.L210:
	.loc 1 698 22 view .LVU979
.LBE416:
.LBE433:
.LBE449:
.LBE466:
.LBE486:
	.loc 1 1133 40 discriminator 3 view .LVU980
	call	rpl_fclose@PLT
.LVL313:
	.loc 1 1133 37 discriminator 3 view .LVU981
	testl	%eax, %eax
	jne	.L212
	jmp	.L209
.LVL314:
.L313:
.LBB487:
.LBB467:
.LBB450:
.LBB434:
.LBB417:
.LBB400:
.LBB384:
.LBB369:
	.loc 1 533 15 is_stmt 1 view .LVU982
	movq	8(%rsp), %rsi
	movl	$4, %edi
	.loc 1 534 22 is_stmt 0 view .LVU983
	xorl	%r15d, %r15d
	.loc 1 533 15 view .LVU984
	call	quotearg_style@PLT
.LVL315:
	.loc 1 533 41 view .LVU985
	movl	$5, %edx
	leaq	.LC76(%rip), %rsi
	xorl	%edi, %edi
	.loc 1 533 15 view .LVU986
	movq	%rax, %r13
	.loc 1 533 41 view .LVU987
	call	dcgettext@PLT
.LVL316:
	.loc 1 533 15 view .LVU988
	movl	64(%r12), %esi
	movq	%r13, %rcx
	xorl	%edi, %edi
	.loc 1 533 41 view .LVU989
	movq	%rax, %rdx
	.loc 1 533 15 view .LVU990
	xorl	%eax, %eax
	call	error@PLT
.LVL317:
	.loc 1 534 15 is_stmt 1 view .LVU991
	.loc 1 534 22 is_stmt 0 view .LVU992
	jmp	.L141
.LVL318:
.L312:
.LBB304:
	.loc 1 525 15 is_stmt 1 view .LVU993
	movq	24(%rsp), %rbx
	movl	$1, %edx
	movq	%r12, %rsi
	movq	%rbx, %rdi
	call	rpl_fts_set@PLT
.LVL319:
	.loc 1 526 15 view .LVU994
	.loc 1 526 33 is_stmt 0 view .LVU995
	movq	%rbx, %rdi
	call	rpl_fts_read@PLT
.LVL320:
	.loc 1 527 15 is_stmt 1 view .LVU996
	cmpq	%rax, %r12
	jne	.L327
	.loc 1 528 15 view .LVU997
	.loc 1 528 20 is_stmt 0 view .LVU998
	movzwl	104(%r12), %ebp
.LVL321:
	.loc 1 528 20 view .LVU999
	jmp	.L138
.LVL322:
.L148:
	.loc 1 528 20 view .LVU1000
.LBE304:
	.loc 1 573 11 is_stmt 1 view .LVU1001
	movq	8(%rsp), %rdx
	xorl	%edi, %edi
	movl	$3, %esi
	call	quotearg_n_style_colon@PLT
.LVL323:
	movl	64(%r12), %esi
	leaq	.LC46(%rip), %rdx
	xorl	%edi, %edi
	movq	%rax, %rcx
	xorl	%eax, %eax
	call	error@PLT
.LVL324:
	.loc 1 574 11 view .LVU1002
	.loc 1 575 11 view .LVU1003
	jmp	.L136
.LVL325:
.L147:
	.loc 1 579 11 view .LVU1004
	.loc 1 579 15 is_stmt 0 view .LVU1005
	movq	24(%rsp), %rdi
	movq	%r12, %rsi
	call	cycle_warning_required@PLT
.LVL326:
	.loc 1 579 14 view .LVU1006
	testb	%al, %al
	je	.L146
.LVL327:
.LBB305:
.LBI274:
	.loc 1 456 1 is_stmt 1 view .LVU1007
.LBB298:
	.loc 1 458 3 view .LVU1008
	.loc 1 460 6 is_stmt 0 view .LVU1009
	cmpq	$0, di_mnt(%rip)
	.loc 1 458 17 view .LVU1010
	movq	(%r12), %rbp
.LVL328:
	.loc 1 460 3 is_stmt 1 view .LVU1011
	.loc 1 460 6 is_stmt 0 view .LVU1012
	jne	.L154
	jmp	.L328
.LVL329:
.L155:
	.loc 1 472 7 is_stmt 1 view .LVU1013
	.loc 1 472 11 is_stmt 0 view .LVU1014
	movq	120(%r12), %rdx
	movq	112(%r12), %rsi
	movq	di_mnt(%rip), %rdi
	call	di_set_lookup@PLT
.LVL330:
	.loc 1 472 10 view .LVU1015
	testl	%eax, %eax
	jg	.L146
	.loc 1 477 7 is_stmt 1 view .LVU1016
	.loc 1 477 11 is_stmt 0 view .LVU1017
	movq	8(%r12), %r12
.LVL331:
.L154:
	.loc 1 470 9 is_stmt 1 view .LVU1018
	.loc 1 470 10 is_stmt 0 view .LVU1019
	testq	%r12, %r12
	setne	%al
	.loc 1 470 21 view .LVU1020
	cmpq	%r12, %rbp
	setne	%dl
	.loc 1 470 9 view .LVU1021
	andb	%dl, %al
	jne	.L155
	.loc 1 470 9 view .LVU1022
.LBE298:
.LBE305:
	.loc 1 582 15 view .LVU1023
	movq	8(%rsp), %rdx
	xorl	%edi, %edi
	movl	$3, %esi
	movl	%eax, %r15d
.LVL332:
	.loc 1 582 15 is_stmt 1 view .LVU1024
	.loc 1 582 15 view .LVU1025
	call	quotearg_n_style_colon@PLT
.LVL333:
	xorl	%edi, %edi
	movl	$5, %edx
	leaq	.LC83(%rip), %rsi
	movq	%rax, %r12
	call	dcgettext@PLT
.LVL334:
	movq	%r12, %rcx
	xorl	%esi, %esi
	xorl	%edi, %edi
	movq	%rax, %rdx
	xorl	%eax, %eax
	call	error@PLT
.LVL335:
	.loc 1 582 15 view .LVU1026
	.loc 1 583 15 view .LVU1027
	.loc 1 583 22 is_stmt 0 view .LVU1028
	jmp	.L141
.LVL336:
.L306:
	.loc 1 583 22 view .LVU1029
.LBE369:
.LBE384:
.LBE400:
.LBE417:
.LBE434:
.LBE450:
.LBE467:
.LBE487:
	.loc 1 956 11 is_stmt 1 view .LVU1030
	.loc 1 956 24 is_stmt 0 view .LVU1031
	xorl	%edi, %edi
	movl	$5, %edx
	leaq	.LC56(%rip), %rsi
	call	dcgettext@PLT
.LVL337:
	.loc 1 956 11 view .LVU1032
	xorl	%esi, %esi
	xorl	%edi, %edi
	.loc 1 956 24 view .LVU1033
	movq	%rax, %rdx
	.loc 1 956 11 view .LVU1034
	xorl	%eax, %eax
	call	error@PLT
.LVL338:
	jmp	.L95
.LVL339:
.L56:
.LBB488:
	.loc 1 918 9 is_stmt 1 view .LVU1035
	xorl	%edi, %edi
	call	usage
.LVL340:
.L97:
	.loc 1 918 9 is_stmt 0 view .LVU1036
.LBE488:
	.loc 1 967 11 is_stmt 1 view .LVU1037
	.loc 1 967 24 is_stmt 0 view .LVU1038
	leaq	.LC57(%rip), %rdi
	call	getenv@PLT
.LVL341:
	.loc 1 967 22 view .LVU1039
	movq	%rax, time_style(%rip)
	.loc 1 970 11 is_stmt 1 view .LVU1040
	.loc 1 970 14 is_stmt 0 view .LVU1041
	testq	%rax, %rax
	je	.L99
	.loc 1 970 31 discriminator 1 view .LVU1042
	leaq	.LC58(%rip), %rsi
	movq	%rax, %rdi
	movq	%rax, 8(%rsp)
.LVL342:
	.loc 1 970 31 discriminator 1 view .LVU1043
	call	strcmp@PLT
.LVL343:
	.loc 1 970 28 discriminator 1 view .LVU1044
	movq	8(%rsp), %r10
	testl	%eax, %eax
	je	.L99
	.loc 1 972 16 is_stmt 1 view .LVU1045
	.loc 1 972 19 is_stmt 0 view .LVU1046
	cmpb	$43, (%r10)
.LBB489:
	.loc 1 985 22 view .LVU1047
	leaq	posix_prefix.7588(%rip), %rbx
.LBE489:
	.loc 1 972 19 view .LVU1048
	je	.L329
	movq	%rbp, 8(%rsp)
	jmp	.L102
.LVL344:
.L104:
.LBB490:
	.loc 1 986 17 is_stmt 1 view .LVU1049
	.loc 1 986 28 is_stmt 0 view .LVU1050
	leaq	6(%rbp), %rcx
	movq	%rcx, time_style(%rip)
.L102:
	.loc 1 985 21 is_stmt 1 view .LVU1051
	.loc 1 985 22 is_stmt 0 view .LVU1052
	movq	time_style(%rip), %rbp
	movl	$6, %edx
	movq	%rbx, %rsi
	movq	%rbp, %rdi
	call	strncmp@PLT
.LVL345:
	.loc 1 985 21 view .LVU1053
	testl	%eax, %eax
	je	.L104
	movq	%rbp, %rcx
	movq	8(%rsp), %rbp
	jmp	.L98
.LVL346:
.L107:
	.loc 1 985 21 view .LVU1054
.LBE490:
	.loc 1 1006 15 is_stmt 1 view .LVU1055
	.loc 1 1006 27 is_stmt 0 view .LVU1056
	leaq	.LC62(%rip), %rax
	movq	%rax, time_format(%rip)
	.loc 1 1007 15 is_stmt 1 view .LVU1057
	jmp	.L96
.L106:
	.loc 1 1002 15 view .LVU1058
	.loc 1 1002 27 is_stmt 0 view .LVU1059
	leaq	.LC61(%rip), %rax
	movq	%rax, time_format(%rip)
	.loc 1 1003 15 is_stmt 1 view .LVU1060
	jmp	.L96
.LVL347:
.L328:
.LBB491:
.LBB468:
.LBB451:
.LBB435:
.LBB418:
.LBB401:
.LBB385:
.LBB370:
.LBB306:
.LBB299:
	.loc 1 463 7 view .LVU1061
	.loc 1 463 16 is_stmt 0 view .LVU1062
	call	di_set_alloc@PLT
.LVL348:
	.loc 1 463 14 view .LVU1063
	movq	%rax, di_mnt(%rip)
	.loc 1 464 7 is_stmt 1 view .LVU1064
	.loc 1 464 10 is_stmt 0 view .LVU1065
	testq	%rax, %rax
	je	.L118
	.loc 1 467 7 is_stmt 1 view .LVU1066
.LBB296:
.LBI276:
	.loc 1 428 1 view .LVU1067
.LBB294:
	.loc 1 430 3 view .LVU1068
	.loc 1 430 33 is_stmt 0 view .LVU1069
	xorl	%edi, %edi
	call	read_file_system_list@PLT
.LVL349:
	movq	%rax, %r13
.LVL350:
	.loc 1 431 3 is_stmt 1 view .LVU1070
	.loc 1 431 9 is_stmt 0 view .LVU1071
	jmp	.L150
.LVL351:
.L151:
.LBB291:
	.loc 1 446 7 is_stmt 1 view .LVU1072
	.loc 1 447 7 view .LVU1073
	.loc 1 447 15 is_stmt 0 view .LVU1074
	movq	48(%r13), %rbx
.LVL352:
	.loc 1 448 7 is_stmt 1 view .LVU1075
	movq	%r13, %rdi
	call	free_mount_entry@PLT
.LVL353:
	.loc 1 447 15 is_stmt 0 view .LVU1076
	movq	%rbx, %r13
.LVL354:
.L150:
	.loc 1 447 15 view .LVU1077
.LBE291:
	.loc 1 431 9 is_stmt 1 view .LVU1078
	testq	%r13, %r13
	je	.L154
.LBB292:
	.loc 1 433 7 view .LVU1079
	.loc 1 434 7 view .LVU1080
	.loc 1 434 10 is_stmt 0 view .LVU1081
	testb	$3, 40(%r13)
	jne	.L151
.LBB289:
	.loc 1 436 11 is_stmt 1 view .LVU1082
	.loc 1 437 11 view .LVU1083
.LVL355:
.LBB285:
.LBI280:
	.loc 5 453 1 view .LVU1084
.LBB283:
	.loc 5 455 3 view .LVU1085
	.loc 5 455 10 is_stmt 0 view .LVU1086
	movq	8(%r13), %rsi
	movq	56(%rsp), %rdx
	movl	$1, %edi
	call	__xstat@PLT
.LVL356:
	.loc 5 455 10 view .LVU1087
.LBE283:
.LBE285:
	.loc 1 437 14 view .LVU1088
	testl	%eax, %eax
	jne	.L151
	.loc 1 438 13 is_stmt 1 view .LVU1089
.LVL357:
.LBB286:
.LBI286:
	.loc 1 367 1 view .LVU1090
.LBB287:
	.loc 1 369 3 view .LVU1091
	.loc 1 369 18 is_stmt 0 view .LVU1092
	movq	136(%rsp), %rdx
	movq	128(%rsp), %rsi
	movq	di_mnt(%rip), %rdi
	call	di_set_insert@PLT
.LVL358:
	.loc 1 370 3 is_stmt 1 view .LVU1093
	.loc 1 370 6 is_stmt 0 view .LVU1094
	testl	%eax, %eax
	jns	.L151
.LVL359:
.L118:
	.loc 1 370 6 view .LVU1095
.LBE287:
.LBE286:
.LBE289:
.LBE292:
.LBE294:
.LBE296:
.LBE299:
.LBE306:
.LBE370:
.LBE385:
.LBE401:
.LBE418:
.LBE435:
.LBE451:
.LBE468:
	.loc 1 1079 15 is_stmt 1 view .LVU1096
	call	xalloc_die@PLT
.LVL360:
.L329:
	.loc 1 1079 15 is_stmt 0 view .LVU1097
.LBE491:
.LBB492:
	.loc 1 976 15 is_stmt 1 view .LVU1098
	.loc 1 976 25 is_stmt 0 view .LVU1099
	movq	%r10, %rdi
	movl	$10, %esi
	movq	%r10, 8(%rsp)
	call	strchr@PLT
.LVL361:
	.loc 1 977 15 is_stmt 1 view .LVU1100
	.loc 1 977 18 is_stmt 0 view .LVU1101
	movq	8(%rsp), %r10
	testq	%rax, %rax
	je	.L103
	.loc 1 978 17 is_stmt 1 view .LVU1102
	.loc 1 978 20 is_stmt 0 view .LVU1103
	movb	$0, (%rax)
	movq	%r10, %rcx
	jmp	.L98
.LVL362:
.L308:
	.loc 1 978 20 view .LVU1104
.LBE492:
.LBB493:
	.loc 1 1026 9 is_stmt 1 view .LVU1105
	movq	16(%rsp), %rsi
	movl	$4, %edi
	call	quotearg_style@PLT
.LVL363:
	movl	$5, %edx
	leaq	.LC68(%rip), %rsi
	xorl	%edi, %edi
	movq	%rax, %r13
.LVL364:
	.loc 1 1026 9 is_stmt 0 view .LVU1106
	call	dcgettext@PLT
.LVL365:
	movq	%rax, %r12
.LVL366:
	.loc 1 1026 9 view .LVU1107
	call	__errno_location@PLT
.LVL367:
	movq	%r13, %rcx
	movq	%r12, %rdx
	movl	$1, %edi
	movl	(%rax), %esi
	xorl	%eax, %eax
	call	error@PLT
.LVL368:
.L327:
	.loc 1 1026 9 view .LVU1108
.LBE493:
.LBB494:
.LBB469:
.LBB452:
.LBB436:
.LBB419:
.LBB402:
.LBB386:
.LBB371:
.LBB307:
	.loc 1 527 15 is_stmt 1 view .LVU1109
	leaq	__PRETTY_FUNCTION__.7516(%rip), %rcx
	movl	$527, %edx
	leaq	.LC70(%rip), %rsi
	leaq	.LC75(%rip), %rdi
	call	__assert_fail@PLT
.LVL369:
.L307:
	.loc 1 527 15 is_stmt 0 view .LVU1110
.LBE307:
.LBE371:
.LBE386:
.LBE402:
.LBE419:
.LBE436:
.LBE452:
.LBE469:
.LBE494:
	.loc 1 1019 11 is_stmt 1 view .LVU1111
	movq	0(%rbp,%rax,8), %rdi
	call	quote@PLT
.LVL370:
	.loc 1 1019 24 is_stmt 0 view .LVU1112
	movl	$5, %edx
	leaq	.LC63(%rip), %rsi
	xorl	%edi, %edi
	.loc 1 1019 11 view .LVU1113
	movq	%rax, %r12
.LVL371:
	.loc 1 1019 24 view .LVU1114
	call	dcgettext@PLT
.LVL372:
	.loc 1 1019 11 view .LVU1115
	movq	%r12, %rcx
	xorl	%esi, %esi
	xorl	%edi, %edi
	.loc 1 1019 24 view .LVU1116
	movq	%rax, %rdx
	.loc 1 1019 11 view .LVU1117
	xorl	%eax, %eax
	call	error@PLT
.LVL373:
	.loc 1 1020 11 is_stmt 1 view .LVU1118
	movl	$5, %edx
	leaq	.LC64(%rip), %rsi
	xorl	%edi, %edi
	call	dcgettext@PLT
.LVL374:
.LBB495:
.LBB496:
	.loc 3 100 10 is_stmt 0 view .LVU1119
	movq	stderr(%rip), %rdi
	movl	$1, %esi
	leaq	.LC65(%rip), %rdx
.LBE496:
.LBE495:
	.loc 1 1020 11 view .LVU1120
	movq	%rax, %rcx
.LVL375:
.LBB498:
.LBI495:
	.loc 3 98 1 is_stmt 1 view .LVU1121
.LBB497:
	.loc 3 100 3 view .LVU1122
	.loc 3 100 10 is_stmt 0 view .LVU1123
	xorl	%eax, %eax
	call	__fprintf_chk@PLT
.LVL376:
	.loc 3 100 10 view .LVU1124
.LBE497:
.LBE498:
	.loc 1 1022 11 is_stmt 1 view .LVU1125
	movl	$1, %edi
	call	usage
.LVL377:
.L305:
	.loc 1 932 7 view .LVU1126
	.loc 1 932 20 is_stmt 0 view .LVU1127
	movl	$5, %edx
	leaq	.LC53(%rip), %rsi
	xorl	%edi, %edi
	call	dcgettext@PLT
.LVL378:
	.loc 1 932 7 view .LVU1128
	xorl	%esi, %esi
	xorl	%edi, %edi
	.loc 1 932 20 view .LVU1129
	movq	%rax, %rdx
	.loc 1 932 7 view .LVU1130
	xorl	%eax, %eax
	call	error@PLT
.LVL379:
.L301:
	.loc 1 933 7 is_stmt 1 view .LVU1131
	movl	$1, %edi
	call	usage
.LVL380:
.L303:
.LBB499:
.LBB264:
	.loc 1 845 15 view .LVU1132
	movq	optarg(%rip), %r8
	movl	76(%rsp), %esi
	movl	$116, %edx
	movl	%eax, %edi
	leaq	long_options(%rip), %rcx
	call	xstrtol_fatal@PLT
.LVL381:
.L323:
	.loc 1 845 15 is_stmt 0 view .LVU1133
.LBE264:
.LBE499:
.LBB500:
.LBB470:
.LBB453:
.LBB437:
.LBB420:
.LBB403:
.LBB387:
	.loc 1 638 11 is_stmt 1 view .LVU1134
	leaq	__PRETTY_FUNCTION__.7516(%rip), %rcx
	movl	$638, %edx
	leaq	.LC70(%rip), %rsi
	leaq	.LC77(%rip), %rdi
	call	__assert_fail@PLT
.LVL382:
.L322:
	.loc 1 638 11 is_stmt 0 view .LVU1135
.LBE387:
.LBE403:
.LBE420:
.LBE437:
.LBE453:
.LBE470:
.LBE500:
	.loc 1 1140 1 view .LVU1136
	call	__stack_chk_fail@PLT
.LVL383:
.L320:
.LBB501:
	.loc 1 1134 5 is_stmt 1 view .LVU1137
	movq	16(%rsp), %rsi
	movl	$4, %edi
	call	quotearg_style@PLT
.LVL384:
	movl	$5, %edx
	leaq	.LC79(%rip), %rsi
	xorl	%edi, %edi
	movq	%rax, %r12
	call	dcgettext@PLT
.LVL385:
	movq	%r12, %rcx
	xorl	%esi, %esi
	movl	$1, %edi
	movq	%rax, %rdx
	xorl	%eax, %eax
	call	error@PLT
.LVL386:
.L91:
	.loc 1 1134 5 is_stmt 0 view .LVU1138
.LBE501:
	.loc 1 942 3 is_stmt 1 view .LVU1139
	.loc 1 949 3 view .LVU1140
	.loc 1 949 6 is_stmt 0 view .LVU1141
	cmpb	$0, 8(%rsp)
	jne	.L93
	jmp	.L90
	.cfi_endproc
.LFE156:
	.size	main, .-main
	.local	dulvl.7510
	.comm	dulvl.7510,8,8
	.local	n_alloc.7509
	.comm	n_alloc.7509,8,8
	.section	.rodata
	.align 8
	.type	__PRETTY_FUNCTION__.7516, @object
	.size	__PRETTY_FUNCTION__.7516, 13
__PRETTY_FUNCTION__.7516:
	.string	"process_file"
	.local	temp_argv.7601
	.comm	temp_argv.7601,16,16
	.type	__PRETTY_FUNCTION__.7610, @object
	.size	__PRETTY_FUNCTION__.7610, 5
__PRETTY_FUNCTION__.7610:
	.string	"main"
	.type	posix_prefix.7588, @object
	.size	posix_prefix.7588, 7
posix_prefix.7588:
	.string	"posix-"
	.align 8
	.type	time_style_types, @object
	.size	time_style_types, 12
time_style_types:
	.long	0
	.long	1
	.long	2
	.section	.rodata.str1.1
.LC84:
	.string	"full-iso"
.LC85:
	.string	"iso"
	.section	.data.rel.ro.local,"aw"
	.align 32
	.type	time_style_args, @object
	.size	time_style_args, 32
time_style_args:
	.quad	.LC84
	.quad	.LC38
	.quad	.LC85
	.quad	0
	.section	.rodata
	.align 16
	.type	time_types, @object
	.size	time_types, 20
time_types:
	.long	2
	.long	2
	.long	2
	.long	1
	.long	1
	.section	.rodata.str1.1
.LC86:
	.string	"atime"
.LC87:
	.string	"access"
.LC88:
	.string	"use"
.LC89:
	.string	"ctime"
.LC90:
	.string	"status"
	.section	.data.rel.ro.local
	.align 32
	.type	time_args, @object
	.size	time_args, 48
time_args:
	.quad	.LC86
	.quad	.LC87
	.quad	.LC88
	.quad	.LC89
	.quad	.LC90
	.quad	0
	.section	.rodata.str1.1
.LC91:
	.string	"all"
.LC92:
	.string	"apparent-size"
.LC93:
	.string	"block-size"
.LC94:
	.string	"bytes"
.LC95:
	.string	"count-links"
.LC96:
	.string	"dereference"
.LC97:
	.string	"dereference-args"
.LC98:
	.string	"exclude"
.LC99:
	.string	"exclude-from"
.LC100:
	.string	"files0-from"
.LC101:
	.string	"human-readable"
.LC102:
	.string	"inodes"
.LC103:
	.string	"si"
.LC104:
	.string	"max-depth"
.LC105:
	.string	"null"
.LC106:
	.string	"no-dereference"
.LC107:
	.string	"one-file-system"
.LC108:
	.string	"separate-dirs"
.LC109:
	.string	"summarize"
.LC110:
	.string	"threshold"
.LC111:
	.string	"time"
.LC112:
	.string	"time-style"
.LC113:
	.string	"help"
.LC114:
	.string	"version"
	.section	.data.rel.ro.local
	.align 32
	.type	long_options, @object
	.size	long_options, 832
long_options:
	.quad	.LC91
	.long	0
	.zero	4
	.quad	0
	.long	97
	.zero	4
	.quad	.LC92
	.long	0
	.zero	4
	.quad	0
	.long	128
	.zero	4
	.quad	.LC93
	.long	1
	.zero	4
	.quad	0
	.long	66
	.zero	4
	.quad	.LC94
	.long	0
	.zero	4
	.quad	0
	.long	98
	.zero	4
	.quad	.LC95
	.long	0
	.zero	4
	.quad	0
	.long	108
	.zero	4
	.quad	.LC96
	.long	0
	.zero	4
	.quad	0
	.long	76
	.zero	4
	.quad	.LC97
	.long	0
	.zero	4
	.quad	0
	.long	68
	.zero	4
	.quad	.LC98
	.long	1
	.zero	4
	.quad	0
	.long	129
	.zero	4
	.quad	.LC99
	.long	1
	.zero	4
	.quad	0
	.long	88
	.zero	4
	.quad	.LC100
	.long	1
	.zero	4
	.quad	0
	.long	130
	.zero	4
	.quad	.LC101
	.long	0
	.zero	4
	.quad	0
	.long	104
	.zero	4
	.quad	.LC102
	.long	0
	.zero	4
	.quad	0
	.long	135
	.zero	4
	.quad	.LC103
	.long	0
	.zero	4
	.quad	0
	.long	131
	.zero	4
	.quad	.LC104
	.long	1
	.zero	4
	.quad	0
	.long	100
	.zero	4
	.quad	.LC105
	.long	0
	.zero	4
	.quad	0
	.long	48
	.zero	4
	.quad	.LC106
	.long	0
	.zero	4
	.quad	0
	.long	80
	.zero	4
	.quad	.LC107
	.long	0
	.zero	4
	.quad	0
	.long	120
	.zero	4
	.quad	.LC108
	.long	0
	.zero	4
	.quad	0
	.long	83
	.zero	4
	.quad	.LC109
	.long	0
	.zero	4
	.quad	0
	.long	115
	.zero	4
	.quad	.LC80
	.long	0
	.zero	4
	.quad	0
	.long	99
	.zero	4
	.quad	.LC110
	.long	1
	.zero	4
	.quad	0
	.long	116
	.zero	4
	.quad	.LC111
	.long	2
	.zero	4
	.quad	0
	.long	133
	.zero	4
	.quad	.LC112
	.long	1
	.zero	4
	.quad	0
	.long	134
	.zero	4
	.quad	.LC113
	.long	0
	.zero	4
	.quad	0
	.long	-130
	.zero	4
	.quad	.LC114
	.long	0
	.zero	4
	.quad	0
	.long	-131
	.zero	4
	.quad	0
	.long	0
	.zero	4
	.quad	0
	.long	0
	.zero	4
	.local	tot_dui
	.comm	tot_dui,32,32
	.local	exclude
	.comm	exclude,8,8
	.local	output_block_size
	.comm	output_block_size,8,8
	.local	localtz
	.comm	localtz,8,8
	.local	time_format
	.comm	time_format,8,8
	.local	time_style
	.comm	time_style,8,8
	.local	time_type
	.comm	time_type,4,4
	.local	opt_time
	.comm	opt_time,1,1
	.local	opt_inodes
	.comm	opt_inodes,1,1
	.local	human_output_opts
	.comm	human_output_opts,4,4
	.local	opt_threshold
	.comm	opt_threshold,8,8
	.data
	.align 8
	.type	max_depth, @object
	.size	max_depth, 8
max_depth:
	.quad	-1
	.local	opt_separate_dirs
	.comm	opt_separate_dirs,1,1
	.local	print_grand_total
	.comm	print_grand_total,1,1
	.local	opt_nul_terminate_output
	.comm	opt_nul_terminate_output,1,1
	.local	hash_all
	.comm	hash_all,1,1
	.local	opt_count_all
	.comm	opt_count_all,1,1
	.local	apparent_size
	.comm	apparent_size,1,1
	.local	opt_all
	.comm	opt_all,1,1
	.local	prev_level
	.comm	prev_level,8,8
	.local	di_mnt
	.comm	di_mnt,8,8
	.local	di_files
	.comm	di_files,8,8
	.text
.Letext0:
	.file 9 "/usr/include/x86_64-linux-gnu/bits/getopt_core.h"
	.file 10 "/usr/include/x86_64-linux-gnu/bits/getopt_ext.h"
	.file 11 "/usr/include/x86_64-linux-gnu/bits/types.h"
	.file 12 "/usr/include/x86_64-linux-gnu/sys/types.h"
	.file 13 "/usr/include/x86_64-linux-gnu/bits/types/time_t.h"
	.file 14 "/usr/lib/gcc/x86_64-linux-gnu/9/include/stddef.h"
	.file 15 "/usr/include/x86_64-linux-gnu/bits/types/struct_timespec.h"
	.file 16 "./lib/sys/select.h"
	.file 17 "/usr/include/x86_64-linux-gnu/bits/types/struct_tm.h"
	.file 18 "/usr/include/time.h"
	.file 19 "./lib/time.h"
	.file 20 "/usr/include/x86_64-linux-gnu/bits/stat.h"
	.file 21 "/usr/include/signal.h"
	.file 22 "/usr/include/unistd.h"
	.file 23 "/usr/include/errno.h"
	.file 24 "src/version.h"
	.file 25 "./lib/exitfail.h"
	.file 26 "/usr/include/stdint.h"
	.file 27 "./lib/xalloc-oversized.h"
	.file 28 "/usr/include/x86_64-linux-gnu/bits/types/struct_FILE.h"
	.file 29 "/usr/include/x86_64-linux-gnu/bits/types/FILE.h"
	.file 30 "/usr/include/stdio.h"
	.file 31 "/usr/include/x86_64-linux-gnu/bits/sys_errlist.h"
	.file 32 "./lib/version-etc.h"
	.file 33 "./lib/progname.h"
	.file 34 "./lib/quotearg.h"
	.file 35 "./lib/quote.h"
	.file 36 "./lib/argmatch.h"
	.file 37 "./lib/argv-iter.h"
	.file 38 "./lib/error.h"
	.file 39 "./lib/xstrtol.h"
	.file 40 "./lib/human.h"
	.file 41 "./lib/mountlist.h"
	.file 42 "./lib/i-ring.h"
	.file 43 "./lib/fts_.h"
	.file 44 "/usr/include/dirent.h"
	.file 45 "/usr/include/libintl.h"
	.file 46 "./lib/xstrtol-error.h"
	.file 47 "/usr/include/stdlib.h"
	.file 48 "./lib/exclude.h"
	.file 49 "/usr/include/string.h"
	.file 50 "./lib/di-set.h"
	.file 51 "/usr/include/assert.h"
	.file 52 "./lib/xfts.h"
	.file 53 "/usr/include/locale.h"
	.file 54 "./lib/stdio-safer.h"
	.file 55 "./lib/stdio.h"
	.file 56 "./lib/inttostr.h"
	.file 57 "./lib/fprintftime.h"
	.section	.note.GNU-stack,"",@progbits
	.section	.note.gnu.property,"a"
	.align 8
	.long	 1f - 0f
	.long	 4f - 1f
	.long	 5
0:
	.string	 "GNU"
1:
	.align 8
	.long	 0xc0000002
	.long	 3f - 2f
2:
	.long	 0x3
3:
	.align 8
4:
