	.file	"echo.c"
	.text
.Ltext0:
	.p2align 4
	.type	hextobin, @function
hextobin:
.LVL0:
.LFB136:
	.file 1 "src/echo.c"
	.loc 1 90 1 view -0
	.cfi_startproc
	.loc 1 91 3 view .LVU1
	leal	-65(%rdi), %eax
	cmpb	$37, %al
	ja	.L2
	leaq	.L4(%rip), %rdx
	movzbl	%al, %eax
	movslq	(%rdx,%rax,4), %rax
	addq	%rdx, %rax
	notrack jmp	*%rax
	.section	.rodata
	.align 4
	.align 4
.L4:
	.long	.L10-.L4
	.long	.L8-.L4
	.long	.L7-.L4
	.long	.L6-.L4
	.long	.L5-.L4
	.long	.L3-.L4
	.long	.L2-.L4
	.long	.L2-.L4
	.long	.L2-.L4
	.long	.L2-.L4
	.long	.L2-.L4
	.long	.L2-.L4
	.long	.L2-.L4
	.long	.L2-.L4
	.long	.L2-.L4
	.long	.L2-.L4
	.long	.L2-.L4
	.long	.L2-.L4
	.long	.L2-.L4
	.long	.L2-.L4
	.long	.L2-.L4
	.long	.L2-.L4
	.long	.L2-.L4
	.long	.L2-.L4
	.long	.L2-.L4
	.long	.L2-.L4
	.long	.L2-.L4
	.long	.L2-.L4
	.long	.L2-.L4
	.long	.L2-.L4
	.long	.L2-.L4
	.long	.L2-.L4
	.long	.L10-.L4
	.long	.L8-.L4
	.long	.L7-.L4
	.long	.L6-.L4
	.long	.L5-.L4
	.long	.L3-.L4
	.text
	.p2align 4,,10
	.p2align 3
.L2:
	.loc 1 93 14 view .LVU2
	.loc 1 91 3 is_stmt 0 view .LVU3
	movzbl	%dil, %edi
	.loc 1 93 23 view .LVU4
	leal	-48(%rdi), %eax
	ret
	.p2align 4,,10
	.p2align 3
.L7:
	.loc 1 96 25 is_stmt 1 view .LVU5
	.loc 1 96 32 is_stmt 0 view .LVU6
	movl	$12, %eax
	ret
	.p2align 4,,10
	.p2align 3
.L6:
	.loc 1 97 25 is_stmt 1 view .LVU7
	.loc 1 97 32 is_stmt 0 view .LVU8
	movl	$13, %eax
	ret
	.p2align 4,,10
	.p2align 3
.L5:
	.loc 1 98 25 is_stmt 1 view .LVU9
	.loc 1 98 32 is_stmt 0 view .LVU10
	movl	$14, %eax
	ret
	.p2align 4,,10
	.p2align 3
.L3:
	.loc 1 99 25 is_stmt 1 view .LVU11
	.loc 1 99 32 is_stmt 0 view .LVU12
	movl	$15, %eax
	ret
	.p2align 4,,10
	.p2align 3
.L10:
	.loc 1 94 32 view .LVU13
	movl	$10, %eax
	.loc 1 101 1 view .LVU14
	ret
	.p2align 4,,10
	.p2align 3
.L8:
	.loc 1 98 32 view .LVU15
	movl	$11, %eax
	ret
	.cfi_endproc
.LFE136:
	.size	hextobin, .-hextobin
	.section	.rodata.str1.1,"aMS",@progbits,1
.LC0:
	.string	"echo"
.LC1:
	.string	" invocation"
.LC2:
	.string	""
.LC3:
	.string	"src/echo.c"
.LC4:
	.string	"status == EXIT_SUCCESS"
	.section	.rodata.str1.8,"aMS",@progbits,1
	.align 8
.LC5:
	.string	"Usage: %s [SHORT-OPTION]... [STRING]...\n  or:  %s LONG-OPTION\n"
	.align 8
.LC6:
	.string	"Echo the STRING(s) to standard output.\n\n  -n             do not output the trailing newline\n"
	.align 8
.LC7:
	.string	"  -e             enable interpretation of backslash escapes\n  -E             disable interpretation of backslash escapes (default)\n"
	.align 8
.LC8:
	.string	"      --help     display this help and exit\n"
	.align 8
.LC9:
	.string	"      --version  output version information and exit\n"
	.align 8
.LC10:
	.string	"\nIf -e is in effect, the following sequences are recognized:\n\n"
	.align 8
.LC11:
	.string	"  \\\\      backslash\n  \\a      alert (BEL)\n  \\b      backspace\n  \\c      produce no further output\n  \\e      escape\n  \\f      form feed\n  \\n      new line\n  \\r      carriage return\n  \\t      horizontal tab\n  \\v      vertical tab\n"
	.align 8
.LC12:
	.string	"  \\0NNN   byte with octal value NNN (1 to 3 digits)\n  \\xHH    byte with hexadecimal value HH (1 to 2 digits)\n"
	.align 8
.LC13:
	.string	"\nNOTE: your shell may have its own version of %s, which usually supersedes\nthe version described here.  Please refer to your shell's documentation\nfor details about the options it supports.\n"
	.section	.rodata.str1.1
.LC14:
	.string	"["
.LC15:
	.string	"test invocation"
.LC16:
	.string	"coreutils"
.LC17:
	.string	"Multi-call invocation"
.LC18:
	.string	"sha224sum"
.LC19:
	.string	"sha2 utilities"
.LC20:
	.string	"sha256sum"
.LC21:
	.string	"sha384sum"
.LC22:
	.string	"sha512sum"
.LC23:
	.string	"\n%s online help: <%s>\n"
	.section	.rodata.str1.8
	.align 8
.LC24:
	.string	"https://www.gnu.org/software/coreutils/"
	.section	.rodata.str1.1
.LC25:
	.string	"GNU coreutils"
.LC26:
	.string	"en_"
	.section	.rodata.str1.8
	.align 8
.LC27:
	.string	"Report any translation bugs to <https://translationproject.org/team/>\n"
	.section	.rodata.str1.1
.LC28:
	.string	"Full documentation <%s%s>\n"
	.section	.rodata.str1.8
	.align 8
.LC29:
	.string	"or available locally via: info '(coreutils) %s%s'\n"
	.text
	.p2align 4
	.globl	usage
	.type	usage, @function
usage:
.LVL1:
.LFB135:
	.loc 1 37 1 is_stmt 1 view -0
	.cfi_startproc
	.loc 1 37 1 is_stmt 0 view .LVU17
	endbr64
	pushq	%r13
	.cfi_def_cfa_offset 16
	.cfi_offset 13, -16
	pushq	%r12
	.cfi_def_cfa_offset 24
	.cfi_offset 12, -24
	pushq	%rbx
	.cfi_def_cfa_offset 32
	.cfi_offset 3, -32
	addq	$-128, %rsp
	.cfi_def_cfa_offset 160
	.loc 1 37 1 view .LVU18
	movq	%fs:40, %rax
	movq	%rax, 120(%rsp)
	xorl	%eax, %eax
	.loc 1 40 3 is_stmt 1 view .LVU19
	testl	%edi, %edi
	je	.L13
	.loc 1 40 3 discriminator 1 view .LVU20
	leaq	__PRETTY_FUNCTION__.7040(%rip), %rcx
	movl	$40, %edx
	leaq	.LC3(%rip), %rsi
	leaq	.LC4(%rip), %rdi
.LVL2:
	.loc 1 40 3 is_stmt 0 discriminator 1 view .LVU21
	call	__assert_fail@PLT
.LVL3:
.L13:
	.loc 1 42 3 is_stmt 1 view .LVU22
	movq	program_name(%rip), %r12
	.loc 1 42 11 is_stmt 0 view .LVU23
	movl	$5, %edx
	leaq	.LC5(%rip), %rsi
	xorl	%edi, %edi
.LVL4:
	.loc 1 42 11 view .LVU24
	call	dcgettext@PLT
.LVL5:
.LBB43:
.LBB44:
	.file 2 "/usr/include/x86_64-linux-gnu/bits/stdio2.h"
	.loc 2 107 10 view .LVU25
	movl	$1, %edi
.LBE44:
.LBE43:
.LBB47:
.LBB48:
	.file 3 "src/system.h"
	.loc 3 636 67 view .LVU26
	leaq	.LC20(%rip), %rbx
.LBE48:
.LBE47:
.LBB75:
.LBB45:
	.loc 2 107 10 view .LVU27
	movq	%r12, %rcx
.LBE45:
.LBE75:
	.loc 1 42 11 view .LVU28
	movq	%rax, %rsi
.LVL6:
.LBB76:
.LBI43:
	.loc 2 105 1 is_stmt 1 view .LVU29
.LBB46:
	.loc 2 107 3 view .LVU30
	.loc 2 107 10 is_stmt 0 view .LVU31
	movq	%r12, %rdx
	xorl	%eax, %eax
.LVL7:
	.loc 2 107 10 view .LVU32
	call	__printf_chk@PLT
.LVL8:
	.loc 2 107 10 view .LVU33
.LBE46:
.LBE76:
	.loc 1 46 3 is_stmt 1 view .LVU34
	movq	stdout(%rip), %r12
	movl	$5, %edx
	xorl	%edi, %edi
	leaq	.LC6(%rip), %rsi
	call	dcgettext@PLT
.LVL9:
	movq	%r12, %rsi
	movq	%rax, %rdi
	call	fputs_unlocked@PLT
.LVL10:
	.loc 1 51 3 view .LVU35
	movq	stdout(%rip), %r12
	movl	$5, %edx
	xorl	%edi, %edi
	leaq	.LC7(%rip), %rsi
	call	dcgettext@PLT
.LVL11:
	movq	%r12, %rsi
	movq	%rax, %rdi
	call	fputs_unlocked@PLT
.LVL12:
	.loc 1 59 3 view .LVU36
	movq	stdout(%rip), %r12
	movl	$5, %edx
	xorl	%edi, %edi
	leaq	.LC8(%rip), %rsi
	call	dcgettext@PLT
.LVL13:
	movq	%r12, %rsi
	movq	%rax, %rdi
	call	fputs_unlocked@PLT
.LVL14:
	.loc 1 60 3 view .LVU37
	movq	stdout(%rip), %r12
	movl	$5, %edx
	xorl	%edi, %edi
	leaq	.LC9(%rip), %rsi
	call	dcgettext@PLT
.LVL15:
	movq	%r12, %rsi
	movq	%rax, %rdi
	call	fputs_unlocked@PLT
.LVL16:
	.loc 1 61 3 view .LVU38
	movq	stdout(%rip), %r12
	movl	$5, %edx
	xorl	%edi, %edi
	leaq	.LC10(%rip), %rsi
	call	dcgettext@PLT
.LVL17:
	movq	%r12, %rsi
	movq	%rax, %rdi
	call	fputs_unlocked@PLT
.LVL18:
	.loc 1 66 3 view .LVU39
	movq	stdout(%rip), %r12
	movl	$5, %edx
	xorl	%edi, %edi
	leaq	.LC11(%rip), %rsi
	call	dcgettext@PLT
.LVL19:
	movq	%r12, %rsi
	movq	%rax, %rdi
	call	fputs_unlocked@PLT
.LVL20:
	.loc 1 78 3 view .LVU40
	movl	$5, %edx
	movq	stdout(%rip), %r12
	xorl	%edi, %edi
	leaq	.LC12(%rip), %rsi
	call	dcgettext@PLT
.LVL21:
	movq	%r12, %rsi
	movq	%rax, %rdi
	call	fputs_unlocked@PLT
.LVL22:
	.loc 1 82 3 view .LVU41
	.loc 1 82 11 is_stmt 0 view .LVU42
	movl	$5, %edx
	leaq	.LC13(%rip), %rsi
	xorl	%edi, %edi
	call	dcgettext@PLT
.LVL23:
.LBB77:
.LBB78:
	.loc 2 107 10 view .LVU43
	leaq	.LC0(%rip), %rdx
	movl	$1, %edi
.LBE78:
.LBE77:
	.loc 1 82 11 view .LVU44
	movq	%rax, %rsi
.LVL24:
.LBB80:
.LBI77:
	.loc 2 105 1 is_stmt 1 view .LVU45
.LBB79:
	.loc 2 107 3 view .LVU46
	.loc 2 107 10 is_stmt 0 view .LVU47
	xorl	%eax, %eax
.LVL25:
	.loc 2 107 10 view .LVU48
	call	__printf_chk@PLT
.LVL26:
	.loc 2 107 10 view .LVU49
.LBE79:
.LBE80:
	.loc 1 83 3 is_stmt 1 view .LVU50
.LBB81:
.LBI47:
	.loc 3 634 1 view .LVU51
.LBB73:
	.loc 3 636 3 view .LVU52
	.loc 3 636 67 is_stmt 0 view .LVU53
	leaq	.LC14(%rip), %rax
	movq	%rbx, 48(%rsp)
	leaq	.LC21(%rip), %rbx
	movq	%rax, (%rsp)
	leaq	.LC15(%rip), %rax
	movq	%rax, 8(%rsp)
	leaq	.LC16(%rip), %rax
	movq	%rax, 16(%rsp)
	leaq	.LC17(%rip), %rax
	movq	%rax, 24(%rsp)
	leaq	.LC18(%rip), %rax
	movq	$0, 96(%rsp)
	movq	$0, 104(%rsp)
	.loc 3 646 3 is_stmt 1 view .LVU54
.LVL27:
	.loc 3 647 3 view .LVU55
	.loc 3 649 3 view .LVU56
	.loc 3 649 9 view .LVU57
	.loc 3 636 67 is_stmt 0 view .LVU58
	movq	%rax, 32(%rsp)
	leaq	.LC19(%rip), %rax
	movq	%rbx, 64(%rsp)
	leaq	.LC22(%rip), %rbx
	movq	%rax, 40(%rsp)
	movq	%rax, 56(%rsp)
	movq	%rax, 72(%rsp)
	movq	%rbx, 80(%rsp)
	leaq	.LC0(%rip), %rbx
	movq	%rax, 88(%rsp)
	.loc 3 647 25 view .LVU59
	movq	%rsp, %rax
.LVL28:
	.p2align 4,,10
	.p2align 3
.L15:
	.loc 3 650 5 is_stmt 1 view .LVU60
	.loc 3 649 18 is_stmt 0 view .LVU61
	movq	16(%rax), %rdi
	.loc 3 650 13 view .LVU62
	addq	$16, %rax
.LVL29:
	.loc 3 649 9 is_stmt 1 view .LVU63
	testq	%rdi, %rdi
	je	.L14
	.loc 3 649 33 is_stmt 0 view .LVU64
	movl	$5, %ecx
	movq	%rbx, %rsi
	repz cmpsb
	seta	%dl
	sbbb	$0, %dl
	.loc 3 649 28 view .LVU65
	testb	%dl, %dl
	jne	.L15
.L14:
	.loc 3 652 3 is_stmt 1 view .LVU66
	.loc 3 652 15 is_stmt 0 view .LVU67
	movq	8(%rax), %r12
	.loc 3 655 11 view .LVU68
	movl	$5, %edx
	leaq	.LC23(%rip), %rsi
	xorl	%edi, %edi
	.loc 3 652 6 view .LVU69
	testq	%r12, %r12
	je	.L16
	.loc 3 653 5 is_stmt 1 view .LVU70
.LVL30:
	.loc 3 655 3 view .LVU71
	.loc 3 655 11 is_stmt 0 view .LVU72
	call	dcgettext@PLT
.LVL31:
.LBB49:
.LBB50:
	.loc 2 107 10 view .LVU73
	leaq	.LC24(%rip), %rcx
	movl	$1, %edi
	leaq	.LC25(%rip), %rdx
.LBE50:
.LBE49:
	.loc 3 655 11 view .LVU74
	movq	%rax, %rsi
.LVL32:
.LBB54:
.LBI49:
	.loc 2 105 1 is_stmt 1 view .LVU75
.LBB51:
	.loc 2 107 3 view .LVU76
	.loc 2 107 10 is_stmt 0 view .LVU77
	xorl	%eax, %eax
.LVL33:
	.loc 2 107 10 view .LVU78
	call	__printf_chk@PLT
.LVL34:
	.loc 2 107 10 view .LVU79
.LBE51:
.LBE54:
	.loc 3 659 3 is_stmt 1 view .LVU80
	.loc 3 659 29 is_stmt 0 view .LVU81
	movl	$5, %edi
	xorl	%esi, %esi
	call	setlocale@PLT
.LVL35:
	movq	%rax, %rdi
.LVL36:
	.loc 3 660 3 is_stmt 1 view .LVU82
	.loc 3 660 6 is_stmt 0 view .LVU83
	testq	%rax, %rax
	je	.L17
	.loc 3 660 22 view .LVU84
	movl	$3, %edx
	leaq	.LC26(%rip), %rsi
	call	strncmp@PLT
.LVL37:
	.loc 3 660 19 view .LVU85
	testl	%eax, %eax
	jne	.L20
.LVL38:
.L17:
	.loc 3 669 3 is_stmt 1 view .LVU86
	.loc 3 669 11 is_stmt 0 view .LVU87
	xorl	%edi, %edi
	movl	$5, %edx
	leaq	.LC28(%rip), %rsi
	call	dcgettext@PLT
.LVL39:
.LBB55:
.LBB56:
	.loc 2 107 10 view .LVU88
	leaq	.LC0(%rip), %rcx
	leaq	.LC24(%rip), %rdx
	movl	$1, %edi
.LBE56:
.LBE55:
	.loc 3 669 11 view .LVU89
	movq	%rax, %rsi
.LVL40:
.LBB62:
.LBI55:
	.loc 2 105 1 is_stmt 1 view .LVU90
.LBB57:
	.loc 2 107 3 view .LVU91
	.loc 2 107 10 is_stmt 0 view .LVU92
	xorl	%eax, %eax
.LVL41:
	.loc 2 107 10 view .LVU93
.LBE57:
.LBE62:
	.loc 3 671 3 view .LVU94
	leaq	.LC1(%rip), %r13
.LBB63:
.LBB58:
	.loc 2 107 10 view .LVU95
	call	__printf_chk@PLT
.LVL42:
	.loc 2 107 10 view .LVU96
.LBE58:
.LBE63:
	.loc 3 671 3 is_stmt 1 view .LVU97
	cmpq	%rbx, %r12
	leaq	.LC2(%rip), %rcx
	cmovne	%rcx, %r13
.L18:
	.loc 3 671 11 is_stmt 0 view .LVU98
	movl	$5, %edx
	leaq	.LC29(%rip), %rsi
	xorl	%edi, %edi
	call	dcgettext@PLT
.LVL43:
.LBB64:
.LBB65:
	.loc 2 107 10 view .LVU99
	movl	$1, %edi
	movq	%r13, %rcx
	movq	%r12, %rdx
.LBE65:
.LBE64:
	.loc 3 671 11 view .LVU100
	movq	%rax, %rsi
.LVL44:
.LBB67:
.LBI64:
	.loc 2 105 1 is_stmt 1 view .LVU101
.LBB66:
	.loc 2 107 3 view .LVU102
	.loc 2 107 10 is_stmt 0 view .LVU103
	xorl	%eax, %eax
.LVL45:
	.loc 2 107 10 view .LVU104
	call	__printf_chk@PLT
.LVL46:
	.loc 2 107 10 view .LVU105
.LBE66:
.LBE67:
.LBE73:
.LBE81:
	.loc 1 84 3 is_stmt 1 view .LVU106
	xorl	%edi, %edi
	call	exit@PLT
.LVL47:
.L16:
.LBB82:
.LBB74:
	.loc 3 655 3 view .LVU107
	.loc 3 655 11 is_stmt 0 view .LVU108
	call	dcgettext@PLT
.LVL48:
.LBB68:
.LBB52:
	.loc 2 107 10 view .LVU109
	leaq	.LC24(%rip), %rcx
	movl	$1, %edi
	leaq	.LC25(%rip), %rdx
.LBE52:
.LBE68:
	.loc 3 655 11 view .LVU110
	movq	%rax, %rsi
.LVL49:
.LBB69:
	.loc 2 105 1 is_stmt 1 view .LVU111
.LBB53:
	.loc 2 107 3 view .LVU112
	.loc 2 107 10 is_stmt 0 view .LVU113
	xorl	%eax, %eax
.LVL50:
	.loc 2 107 10 view .LVU114
	call	__printf_chk@PLT
.LVL51:
	.loc 2 107 10 view .LVU115
.LBE53:
.LBE69:
	.loc 3 659 3 is_stmt 1 view .LVU116
	.loc 3 659 29 is_stmt 0 view .LVU117
	movl	$5, %edi
	xorl	%esi, %esi
	call	setlocale@PLT
.LVL52:
	movq	%rax, %rdi
.LVL53:
	.loc 3 660 3 is_stmt 1 view .LVU118
	.loc 3 660 6 is_stmt 0 view .LVU119
	testq	%rax, %rax
	je	.L19
	.loc 3 660 22 view .LVU120
	movl	$3, %edx
	leaq	.LC26(%rip), %rsi
	call	strncmp@PLT
.LVL54:
	.loc 3 660 19 view .LVU121
	testl	%eax, %eax
	jne	.L38
.L19:
	.loc 3 669 3 is_stmt 1 view .LVU122
	.loc 3 669 11 is_stmt 0 view .LVU123
	movl	$5, %edx
	leaq	.LC28(%rip), %rsi
	xorl	%edi, %edi
	call	dcgettext@PLT
.LVL55:
.LBB70:
.LBB59:
	.loc 2 107 10 view .LVU124
	leaq	.LC0(%rip), %rcx
	leaq	.LC24(%rip), %rdx
	movl	$1, %edi
.LBE59:
.LBE70:
	.loc 3 669 11 view .LVU125
	movq	%rax, %rsi
.LVL56:
.LBB71:
	.loc 2 105 1 is_stmt 1 view .LVU126
.LBB60:
	.loc 2 107 3 view .LVU127
	.loc 2 107 10 is_stmt 0 view .LVU128
	xorl	%eax, %eax
.LVL57:
	.loc 2 107 10 view .LVU129
.LBE60:
.LBE71:
	.loc 3 646 15 view .LVU130
	leaq	.LC0(%rip), %r12
.LBB72:
.LBB61:
	.loc 2 107 10 view .LVU131
	call	__printf_chk@PLT
.LVL58:
	.loc 2 107 10 view .LVU132
.LBE61:
.LBE72:
	.loc 3 671 3 is_stmt 1 view .LVU133
	leaq	.LC1(%rip), %r13
	jmp	.L18
.L38:
	.loc 3 646 15 is_stmt 0 view .LVU134
	leaq	.LC0(%rip), %r12
.LVL59:
.L20:
	.loc 3 666 7 is_stmt 1 view .LVU135
	movq	stdout(%rip), %r13
	xorl	%edi, %edi
	movl	$5, %edx
	leaq	.LC27(%rip), %rsi
	call	dcgettext@PLT
.LVL60:
	movq	%rax, %rdi
	movq	%r13, %rsi
	call	fputs_unlocked@PLT
.LVL61:
	jmp	.L17
.LBE74:
.LBE82:
	.cfi_endproc
.LFE135:
	.size	usage, .-usage
	.section	.rodata.str1.1
.LC30:
	.string	"POSIXLY_CORRECT"
.LC31:
	.string	"-n"
.LC32:
	.string	"/usr/local/share/locale"
.LC33:
	.string	"--help"
.LC34:
	.string	"--version"
.LC35:
	.string	"Chet Ramey"
.LC36:
	.string	"Brian Fox"
	.section	.text.startup,"ax",@progbits
	.p2align 4
	.globl	main
	.type	main, @function
main:
.LVL62:
.LFB137:
	.loc 1 109 1 view -0
	.cfi_startproc
	.loc 1 109 1 is_stmt 0 view .LVU137
	endbr64
	.loc 1 110 3 is_stmt 1 view .LVU138
.LVL63:
	.loc 1 111 3 view .LVU139
	.loc 1 109 1 is_stmt 0 view .LVU140
	pushq	%r15
	.cfi_def_cfa_offset 16
	.cfi_offset 15, -16
	pushq	%r14
	.cfi_def_cfa_offset 24
	.cfi_offset 14, -24
	movq	%rsi, %r14
	pushq	%r13
	.cfi_def_cfa_offset 32
	.cfi_offset 13, -32
	pushq	%r12
	.cfi_def_cfa_offset 40
	.cfi_offset 12, -40
	movl	%edi, %r12d
	.loc 1 111 28 view .LVU141
	leaq	.LC30(%rip), %rdi
.LVL64:
	.loc 1 109 1 view .LVU142
	pushq	%rbp
	.cfi_def_cfa_offset 48
	.cfi_offset 6, -48
	pushq	%rbx
	.cfi_def_cfa_offset 56
	.cfi_offset 3, -56
	subq	$24, %rsp
	.cfi_def_cfa_offset 80
	.loc 1 111 28 view .LVU143
	call	getenv@PLT
.LVL65:
	.loc 1 111 8 view .LVU144
	testq	%rax, %rax
	setne	%bl
.LVL66:
	.loc 1 112 3 is_stmt 1 view .LVU145
	.loc 1 114 6 is_stmt 0 view .LVU146
	je	.L40
	movq	%rax, %rbp
	.loc 1 114 6 discriminator 2 view .LVU147
	cmpl	$1, %r12d
	jle	.L41
	.loc 1 114 47 discriminator 3 view .LVU148
	movq	8(%r14), %rdi
	leaq	.LC31(%rip), %rsi
	call	strcmp@PLT
.LVL67:
	.loc 1 114 44 discriminator 3 view .LVU149
	testl	%eax, %eax
	jne	.L41
.LVL68:
	.loc 1 119 3 is_stmt 1 view .LVU150
	.loc 1 121 33 view .LVU151
	.loc 1 122 3 view .LVU152
	movq	(%r14), %rdi
	call	set_program_name@PLT
.LVL69:
	.loc 1 123 3 view .LVU153
	leaq	.LC2(%rip), %rsi
	movl	$6, %edi
	call	setlocale@PLT
.LVL70:
	.loc 1 124 3 view .LVU154
	leaq	.LC32(%rip), %rsi
	leaq	.LC16(%rip), %rdi
	call	bindtextdomain@PLT
.LVL71:
	.loc 1 125 3 view .LVU155
	leaq	.LC16(%rip), %rdi
	call	textdomain@PLT
.LVL72:
	.loc 1 127 3 view .LVU156
	movq	close_stdout@GOTPCREL(%rip), %rdi
	call	atexit@PLT
.LVL73:
	.loc 1 131 3 view .LVU157
	.loc 1 131 6 is_stmt 0 view .LVU158
	cmpl	$2, %r12d
	jne	.L126
.L91:
	.loc 1 133 7 is_stmt 1 view .LVU159
	.loc 1 133 11 is_stmt 0 view .LVU160
	movq	8(%r14), %rbp
	leaq	.LC33(%rip), %rsi
	movq	%rbp, %rdi
	call	strcmp@PLT
.LVL74:
	.loc 1 133 10 view .LVU161
	testl	%eax, %eax
	je	.L127
	.loc 1 136 7 is_stmt 1 view .LVU162
	.loc 1 136 11 is_stmt 0 view .LVU163
	leaq	.LC34(%rip), %rsi
	movq	%rbp, %rdi
	call	strcmp@PLT
.LVL75:
	.loc 1 136 10 view .LVU164
	testl	%eax, %eax
	je	.L128
	.loc 1 144 3 is_stmt 1 view .LVU165
.LVL76:
	.loc 1 145 3 view .LVU166
	addq	$8, %r14
.LVL77:
	.loc 1 147 3 view .LVU167
	.loc 1 148 11 view .LVU168
	.loc 1 144 3 is_stmt 0 view .LVU169
	movl	$1, %edx
.LVL78:
.L87:
	.loc 1 144 3 discriminator 1 view .LVU170
	xorl	%esi, %esi
	movl	$1, %ebp
	movl	$1, %r8d
.LBB83:
	.loc 1 183 30 discriminator 1 view .LVU171
	xorl	%r12d, %r12d
	movabsq	$2203318222849, %rdi
.LVL79:
.L52:
	.loc 1 183 30 discriminator 1 view .LVU172
.LBE83:
	.loc 1 148 29 discriminator 1 view .LVU173
	movq	(%r14), %r9
	.loc 1 148 21 discriminator 1 view .LVU174
	cmpb	$45, (%r9)
	jne	.L47
.LBB84:
	.loc 1 150 9 is_stmt 1 view .LVU175
	.loc 1 157 25 is_stmt 0 view .LVU176
	movzbl	1(%r9), %r10d
	.loc 1 150 21 view .LVU177
	leaq	1(%r9), %r11
.LVL80:
	.loc 1 151 9 is_stmt 1 view .LVU178
	.loc 1 157 9 view .LVU179
	.loc 1 157 21 view .LVU180
	.loc 1 157 9 is_stmt 0 view .LVU181
	testb	%r10b, %r10b
	je	.L47
	addq	$2, %r9
	movl	%r10d, %ecx
.LVL81:
	.p2align 4,,10
	.p2align 3
.L49:
	.loc 1 158 11 is_stmt 1 view .LVU182
	subl	$69, %ecx
	cmpb	$41, %cl
	ja	.L48
	movq	%r8, %rax
	salq	%cl, %rax
	testq	%rdi, %rax
	jne	.L129
.L48:
	.loc 1 158 11 is_stmt 0 view .LVU183
.LBE84:
	.loc 1 193 3 is_stmt 1 view .LVU184
	.loc 1 193 6 is_stmt 0 view .LVU185
	testb	%bl, %bl
	jne	.L93
	testb	%sil, %sil
	jne	.L93
.LVL82:
.L89:
	.loc 1 260 13 is_stmt 1 view .LVU186
	testl	%edx, %edx
	jle	.L53
.L94:
	.loc 1 260 13 is_stmt 0 view .LVU187
	leal	-1(%rdx), %eax
	leaq	(%r14,%rax,8), %rbx
.LVL83:
	.p2align 4,,10
	.p2align 3
.L56:
	.loc 1 262 11 is_stmt 1 view .LVU188
	movq	stdout(%rip), %rsi
	movq	(%r14), %rdi
	call	fputs_unlocked@PLT
.LVL84:
	.loc 1 263 11 view .LVU189
	.loc 1 264 11 view .LVU190
	.loc 1 265 11 view .LVU191
	.loc 1 265 14 is_stmt 0 view .LVU192
	cmpq	%r14, %rbx
	je	.L53
	.loc 1 266 13 is_stmt 1 view .LVU193
.LVL85:
.LBB85:
.LBI85:
	.file 4 "/usr/include/x86_64-linux-gnu/bits/stdio.h"
	.loc 4 108 1 view .LVU194
.LBB86:
	.loc 4 110 3 view .LVU195
	.loc 4 110 10 is_stmt 0 view .LVU196
	movq	stdout(%rip), %rdi
	movq	40(%rdi), %rax
	cmpq	48(%rdi), %rax
	jnb	.L130
	leaq	1(%rax), %rdx
	movq	%rdx, 40(%rdi)
	movb	$32, (%rax)
.L85:
.LBE86:
.LBE85:
	.loc 1 264 15 view .LVU197
	addq	$8, %r14
.LVL86:
	.loc 1 260 13 is_stmt 1 view .LVU198
	.loc 1 260 13 is_stmt 0 view .LVU199
	jmp	.L56
.LVL87:
.L41:
	.loc 1 119 3 is_stmt 1 view .LVU200
	.loc 1 121 33 view .LVU201
	.loc 1 122 3 view .LVU202
	movq	(%r14), %rdi
	.loc 1 145 3 is_stmt 0 view .LVU203
	addq	$8, %r14
.LVL88:
	.loc 1 122 3 view .LVU204
	call	set_program_name@PLT
.LVL89:
	.loc 1 123 3 is_stmt 1 view .LVU205
	leaq	.LC2(%rip), %rsi
	movl	$6, %edi
	call	setlocale@PLT
.LVL90:
	.loc 1 124 3 view .LVU206
	leaq	.LC32(%rip), %rsi
	leaq	.LC16(%rip), %rdi
	call	bindtextdomain@PLT
.LVL91:
	.loc 1 125 3 view .LVU207
	leaq	.LC16(%rip), %rdi
	call	textdomain@PLT
.LVL92:
	.loc 1 127 3 view .LVU208
	movq	close_stdout@GOTPCREL(%rip), %rdi
	call	atexit@PLT
.LVL93:
	.loc 1 131 3 view .LVU209
	.loc 1 144 3 view .LVU210
	.loc 1 193 6 is_stmt 0 view .LVU211
	testq	%rbp, %rbp
	.loc 1 144 3 view .LVU212
	leal	-1(%r12), %edx
.LVL94:
	.loc 1 145 3 is_stmt 1 view .LVU213
	.loc 1 147 3 view .LVU214
.LDL1:
	.loc 1 193 3 view .LVU215
	.loc 1 110 8 is_stmt 0 view .LVU216
	movl	$1, %ebp
	.loc 1 193 6 view .LVU217
	je	.L89
.LVL95:
.L88:
	.loc 1 195 13 is_stmt 1 view .LVU218
	testl	%edx, %edx
	jle	.L53
.L93:
	.loc 1 195 13 is_stmt 0 view .LVU219
	leal	-1(%rdx), %eax
	leaq	.L63(%rip), %rbx
.LVL96:
	.loc 1 195 13 view .LVU220
	leaq	(%r14,%rax,8), %r12
.LVL97:
.L55:
.LBB88:
	.loc 1 197 11 is_stmt 1 view .LVU221
	.loc 1 197 23 is_stmt 0 view .LVU222
	movq	(%r14), %r13
	jmp	.L125
.LVL98:
	.p2align 4,,10
	.p2align 3
.L133:
	.loc 1 197 23 view .LVU223
	movzbl	%al, %r15d
	.loc 1 202 18 view .LVU224
	movq	%rdx, %r13
.LVL99:
.L60:
	.loc 1 250 15 is_stmt 1 view .LVU225
.LBB89:
.LBI89:
	.loc 4 108 1 view .LVU226
.LBB90:
	.loc 4 110 3 view .LVU227
	.loc 4 110 10 is_stmt 0 view .LVU228
	movq	stdout(%rip), %rdi
	movq	40(%rdi), %rdx
	cmpq	48(%rdi), %rdx
	jnb	.L131
	leaq	1(%rdx), %rcx
	movq	%rcx, 40(%rdi)
	movb	%al, (%rdx)
.LVL100:
	.loc 4 110 10 view .LVU229
.LBE90:
.LBE89:
	.loc 1 200 17 is_stmt 1 view .LVU230
.L125:
	.loc 1 198 11 view .LVU231
	.loc 1 200 11 view .LVU232
	.loc 1 200 17 view .LVU233
	.loc 1 200 21 is_stmt 0 view .LVU234
	movzbl	0(%r13), %eax
	.loc 1 200 25 view .LVU235
	leaq	1(%r13), %rdx
.LVL101:
	.loc 1 200 17 view .LVU236
	testb	%al, %al
	je	.L132
.L57:
	.loc 1 202 15 is_stmt 1 view .LVU237
	.loc 1 202 18 is_stmt 0 view .LVU238
	cmpb	$92, %al
	jne	.L133
	.loc 1 202 32 discriminator 1 view .LVU239
	movzbl	1(%r13), %ecx
	.loc 1 202 29 discriminator 1 view .LVU240
	testb	%cl, %cl
	je	.L97
	.loc 1 204 19 is_stmt 1 view .LVU241
	leal	-48(%rcx), %edx
.LVL102:
	.loc 1 204 33 is_stmt 0 view .LVU242
	leaq	2(%r13), %r8
.LVL103:
	.loc 1 204 29 view .LVU243
	movl	%ecx, %esi
.LVL104:
	.loc 1 204 29 view .LVU244
	cmpb	$72, %dl
	ja	.L61
	movzbl	%dl, %edx
	movslq	(%rbx,%rdx,4), %rdx
	addq	%rbx, %rdx
	notrack jmp	*%rdx
	.section	.rodata
	.align 4
	.align 4
.L63:
	.long	.L73-.L63
	.long	.L72-.L63
	.long	.L72-.L63
	.long	.L72-.L63
	.long	.L72-.L63
	.long	.L72-.L63
	.long	.L72-.L63
	.long	.L72-.L63
	.long	.L61-.L63
	.long	.L61-.L63
	.long	.L61-.L63
	.long	.L61-.L63
	.long	.L61-.L63
	.long	.L61-.L63
	.long	.L61-.L63
	.long	.L61-.L63
	.long	.L61-.L63
	.long	.L61-.L63
	.long	.L61-.L63
	.long	.L61-.L63
	.long	.L61-.L63
	.long	.L61-.L63
	.long	.L61-.L63
	.long	.L61-.L63
	.long	.L61-.L63
	.long	.L61-.L63
	.long	.L61-.L63
	.long	.L61-.L63
	.long	.L61-.L63
	.long	.L61-.L63
	.long	.L61-.L63
	.long	.L61-.L63
	.long	.L61-.L63
	.long	.L61-.L63
	.long	.L61-.L63
	.long	.L61-.L63
	.long	.L61-.L63
	.long	.L61-.L63
	.long	.L61-.L63
	.long	.L61-.L63
	.long	.L61-.L63
	.long	.L61-.L63
	.long	.L61-.L63
	.long	.L61-.L63
	.long	.L98-.L63
	.long	.L61-.L63
	.long	.L61-.L63
	.long	.L61-.L63
	.long	.L61-.L63
	.long	.L71-.L63
	.long	.L70-.L63
	.long	.L106-.L63
	.long	.L61-.L63
	.long	.L69-.L63
	.long	.L68-.L63
	.long	.L61-.L63
	.long	.L61-.L63
	.long	.L61-.L63
	.long	.L61-.L63
	.long	.L61-.L63
	.long	.L61-.L63
	.long	.L61-.L63
	.long	.L67-.L63
	.long	.L61-.L63
	.long	.L61-.L63
	.long	.L61-.L63
	.long	.L66-.L63
	.long	.L61-.L63
	.long	.L65-.L63
	.long	.L61-.L63
	.long	.L64-.L63
	.long	.L61-.L63
	.long	.L62-.L63
	.section	.text.startup
.L61:
	.loc 1 247 31 is_stmt 1 view .LVU245
.LVL105:
.LBB92:
.LBI92:
	.loc 4 108 1 view .LVU246
.LBB93:
	.loc 4 110 3 view .LVU247
	.loc 4 110 10 is_stmt 0 view .LVU248
	movq	stdout(%rip), %rdi
	movzbl	%cl, %r15d
	movq	40(%rdi), %rax
	cmpq	%rax, 48(%rdi)
	jbe	.L134
	leaq	1(%rax), %rdx
.LBE93:
.LBE92:
	.loc 1 204 33 view .LVU249
	movq	%r8, %r13
.LBB97:
.LBB94:
	.loc 4 110 10 view .LVU250
	movq	%rdx, 40(%rdi)
	movb	$92, (%rax)
.LBE94:
.LBE97:
	.loc 1 204 29 view .LVU251
	movl	%ecx, %eax
	jmp	.L60
.LVL106:
.L72:
	.loc 1 204 33 view .LVU252
	movzbl	2(%r13), %edx
.LVL107:
.L74:
	.loc 1 235 23 is_stmt 1 view .LVU253
	.loc 1 238 23 view .LVU254
	.loc 1 239 37 is_stmt 0 view .LVU255
	subl	$48, %edx
	.loc 1 238 25 view .LVU256
	leal	-48(%rsi), %eax
.LVL108:
	.loc 1 239 23 is_stmt 1 view .LVU257
	.loc 1 239 26 is_stmt 0 view .LVU258
	cmpb	$7, %dl
	ja	.L76
.LVL109:
	.loc 1 239 26 view .LVU259
	addq	$1, %r8
.LVL110:
	.loc 1 240 25 is_stmt 1 view .LVU260
	.loc 1 240 27 is_stmt 0 view .LVU261
	leal	(%rdx,%rax,8), %eax
.LVL111:
.L76:
	.loc 1 241 23 is_stmt 1 view .LVU262
	.loc 1 241 37 is_stmt 0 view .LVU263
	movzbl	(%r8), %edx
	leal	-48(%rdx), %ecx
	.loc 1 241 26 view .LVU264
	cmpb	$7, %cl
	jbe	.L77
	.loc 1 241 26 view .LVU265
	movzbl	%al, %r15d
	movq	%r8, %r13
	jmp	.L60
.LVL112:
.L138:
	.loc 1 241 26 view .LVU266
.LBE88:
.LBB107:
	.loc 1 187 9 is_stmt 1 view .LVU267
	.loc 1 188 9 view .LVU268
	.loc 1 188 13 is_stmt 0 view .LVU269
	addq	$8, %r14
.LVL113:
	.loc 1 188 13 view .LVU270
.LBE107:
	.loc 1 148 11 is_stmt 1 view .LVU271
	subl	$1, %edx
.LVL114:
	.loc 1 148 11 is_stmt 0 view .LVU272
	jne	.L52
.LVL115:
.L53:
	.loc 1 270 3 is_stmt 1 view .LVU273
	.loc 1 270 6 is_stmt 0 view .LVU274
	testb	%bpl, %bpl
	je	.L106
.L90:
	.loc 1 271 5 is_stmt 1 view .LVU275
.LVL116:
.LBB108:
.LBI108:
	.loc 4 108 1 view .LVU276
.LBB109:
	.loc 4 110 3 view .LVU277
	.loc 4 110 10 is_stmt 0 view .LVU278
	movq	stdout(%rip), %rdi
	movq	40(%rdi), %rax
	cmpq	48(%rdi), %rax
	jnb	.L135
	leaq	1(%rax), %rdx
	movq	%rdx, 40(%rdi)
	movb	$10, (%rax)
.LVL117:
.L106:
	.loc 4 110 10 view .LVU279
.LBE109:
.LBE108:
	.loc 1 273 1 view .LVU280
	addq	$24, %rsp
	.cfi_remember_state
	.cfi_def_cfa_offset 56
	xorl	%eax, %eax
	popq	%rbx
	.cfi_def_cfa_offset 48
	popq	%rbp
	.cfi_def_cfa_offset 40
	popq	%r12
	.cfi_def_cfa_offset 32
	popq	%r13
	.cfi_def_cfa_offset 24
	popq	%r14
	.cfi_def_cfa_offset 16
	popq	%r15
	.cfi_def_cfa_offset 8
	ret
.LVL118:
.L62:
	.cfi_restore_state
	.loc 1 273 1 view .LVU281
	movq	%r8, 8(%rsp)
.LBB111:
.LBB98:
	.loc 1 217 39 view .LVU282
	movzbl	2(%r13), %r15d
	movb	%cl, 7(%rsp)
	.loc 1 217 25 is_stmt 1 view .LVU283
.LVL119:
	.loc 1 218 25 view .LVU284
	.loc 1 218 31 is_stmt 0 view .LVU285
	call	__ctype_b_loc@PLT
.LVL120:
	.loc 1 218 28 view .LVU286
	movzbl	7(%rsp), %ecx
	movq	8(%rsp), %r8
	.loc 1 218 31 view .LVU287
	movq	(%rax), %rsi
	movzbl	%r15b, %eax
	.loc 1 218 28 view .LVU288
	testb	$16, 1(%rsi,%rax,2)
	je	.L61
.LVL121:
	.loc 1 220 25 is_stmt 1 view .LVU289
	.loc 1 221 25 view .LVU290
	.loc 1 221 29 is_stmt 0 view .LVU291
	movzbl	%r15b, %edi
	call	hextobin
.LVL122:
	.loc 1 222 28 view .LVU292
	movzbl	3(%r13), %ecx
.LVL123:
	.loc 1 221 29 view .LVU293
	movl	%eax, %r15d
.LVL124:
	.loc 1 222 25 is_stmt 1 view .LVU294
	.loc 1 223 25 view .LVU295
	.loc 1 223 28 is_stmt 0 view .LVU296
	testb	$16, 1(%rsi,%rcx,2)
	je	.L136
	.loc 1 225 29 is_stmt 1 view .LVU297
	.loc 1 226 42 is_stmt 0 view .LVU298
	movzbl	%cl, %edi
	.loc 1 226 40 view .LVU299
	sall	$4, %r15d
	.loc 1 225 30 view .LVU300
	addq	$4, %r13
.LVL125:
	.loc 1 226 29 is_stmt 1 view .LVU301
	.loc 1 226 42 is_stmt 0 view .LVU302
	call	hextobin
.LVL126:
	.loc 1 226 31 view .LVU303
	addl	%r15d, %eax
.LVL127:
	.loc 1 226 31 view .LVU304
	movzbl	%al, %r15d
	jmp	.L60
.LVL128:
.L64:
	.loc 1 226 31 view .LVU305
.LBE98:
	.loc 1 214 31 is_stmt 1 view .LVU306
	.loc 1 214 41 view .LVU307
	.loc 1 204 33 is_stmt 0 view .LVU308
	movq	%r8, %r13
	.loc 1 214 21 view .LVU309
	movl	$11, %r15d
	.loc 1 214 33 view .LVU310
	movl	$11, %eax
	.loc 1 214 21 view .LVU311
	jmp	.L60
.LVL129:
.L65:
	.loc 1 213 31 is_stmt 1 view .LVU312
	.loc 1 213 41 view .LVU313
	.loc 1 204 33 is_stmt 0 view .LVU314
	movq	%r8, %r13
	.loc 1 213 21 view .LVU315
	movl	$9, %r15d
	.loc 1 213 33 view .LVU316
	movl	$9, %eax
	.loc 1 213 21 view .LVU317
	jmp	.L60
.LVL130:
.L66:
	.loc 1 212 31 is_stmt 1 view .LVU318
	.loc 1 212 41 view .LVU319
	.loc 1 204 33 is_stmt 0 view .LVU320
	movq	%r8, %r13
	.loc 1 212 21 view .LVU321
	movl	$13, %r15d
	.loc 1 212 33 view .LVU322
	movl	$13, %eax
	.loc 1 212 21 view .LVU323
	jmp	.L60
.LVL131:
.L67:
	.loc 1 211 31 is_stmt 1 view .LVU324
	.loc 1 211 41 view .LVU325
	.loc 1 204 33 is_stmt 0 view .LVU326
	movq	%r8, %r13
	.loc 1 211 21 view .LVU327
	movl	$10, %r15d
	.loc 1 211 33 view .LVU328
	movl	$10, %eax
	.loc 1 211 21 view .LVU329
	jmp	.L60
.LVL132:
.L68:
	.loc 1 210 31 is_stmt 1 view .LVU330
	.loc 1 210 41 view .LVU331
	.loc 1 204 33 is_stmt 0 view .LVU332
	movq	%r8, %r13
	.loc 1 210 21 view .LVU333
	movl	$12, %r15d
	.loc 1 210 33 view .LVU334
	movl	$12, %eax
	.loc 1 210 21 view .LVU335
	jmp	.L60
.LVL133:
.L69:
	.loc 1 209 31 is_stmt 1 view .LVU336
	.loc 1 209 43 view .LVU337
	.loc 1 204 33 is_stmt 0 view .LVU338
	movq	%r8, %r13
	.loc 1 209 21 view .LVU339
	movl	$27, %r15d
	.loc 1 209 33 view .LVU340
	movl	$27, %eax
	.loc 1 209 21 view .LVU341
	jmp	.L60
.LVL134:
.L73:
	.loc 1 231 23 is_stmt 1 view .LVU342
	.loc 1 232 23 view .LVU343
	.loc 1 232 27 is_stmt 0 view .LVU344
	movzbl	2(%r13), %esi
	leal	-48(%rsi), %eax
	.loc 1 232 26 view .LVU345
	cmpb	$7, %al
	jbe	.L137
	.loc 1 204 33 view .LVU346
	movq	%r8, %r13
	.loc 1 249 17 view .LVU347
	xorl	%r15d, %r15d
	.loc 1 231 25 view .LVU348
	xorl	%eax, %eax
	jmp	.L60
.LVL135:
.L70:
	.loc 1 207 31 is_stmt 1 view .LVU349
	.loc 1 207 41 view .LVU350
	.loc 1 204 33 is_stmt 0 view .LVU351
	movq	%r8, %r13
	.loc 1 207 21 view .LVU352
	movl	$8, %r15d
	.loc 1 207 33 view .LVU353
	movl	$8, %eax
	.loc 1 207 21 view .LVU354
	jmp	.L60
.LVL136:
.L129:
	.loc 1 207 21 view .LVU355
.LBE111:
.LBB112:
	.loc 1 161 15 is_stmt 1 discriminator 2 view .LVU356
	.loc 1 157 30 discriminator 2 view .LVU357
	.loc 1 157 21 discriminator 2 view .LVU358
	.loc 1 157 25 is_stmt 0 discriminator 2 view .LVU359
	movzbl	(%r9), %ecx
	addq	$1, %r9
.LVL137:
	.loc 1 157 9 discriminator 2 view .LVU360
	testb	%cl, %cl
	jne	.L49
	jmp	.L51
	.p2align 4,,10
	.p2align 3
.L139:
	.loc 1 179 21 view .LVU361
	cmpb	$69, %r10b
	cmove	%r12d, %esi
.LVL138:
.L50:
	.loc 1 171 15 is_stmt 1 view .LVU362
	.loc 1 171 16 is_stmt 0 view .LVU363
	movzbl	(%r11), %r10d
	.loc 1 171 15 view .LVU364
	testb	%r10b, %r10b
	je	.L138
.L51:
	.loc 1 172 11 is_stmt 1 view .LVU365
	.loc 1 172 24 is_stmt 0 view .LVU366
	addq	$1, %r11
.LVL139:
	.loc 1 172 11 view .LVU367
	cmpb	$101, %r10b
	je	.L95
	.loc 1 172 11 view .LVU368
	cmpb	$110, %r10b
	jne	.L139
	.loc 1 183 30 view .LVU369
	xorl	%ebp, %ebp
.LVL140:
	.loc 1 183 30 view .LVU370
	jmp	.L50
.LVL141:
	.p2align 4,,10
	.p2align 3
.L97:
	.loc 1 183 30 view .LVU371
.LBE112:
.LBB113:
	.loc 1 249 17 view .LVU372
	movq	%rdx, %r13
	movl	$92, %r15d
	jmp	.L60
.LVL142:
	.p2align 4,,10
	.p2align 3
.L131:
.LBB99:
.LBB91:
	.loc 4 110 10 view .LVU373
	movl	%r15d, %esi
	call	__overflow@PLT
.LVL143:
	.loc 4 110 10 view .LVU374
.LBE91:
.LBE99:
	.loc 1 198 11 is_stmt 1 view .LVU375
	.loc 1 200 11 view .LVU376
	.loc 1 200 17 view .LVU377
	.loc 1 200 21 is_stmt 0 view .LVU378
	movzbl	0(%r13), %eax
	.loc 1 200 25 view .LVU379
	leaq	1(%r13), %rdx
.LVL144:
	.loc 1 200 17 view .LVU380
	testb	%al, %al
	jne	.L57
	.p2align 4,,10
	.p2align 3
.L132:
	.loc 1 252 11 is_stmt 1 view .LVU381
	.loc 1 253 11 view .LVU382
.LVL145:
	.loc 1 254 11 view .LVU383
	.loc 1 254 14 is_stmt 0 view .LVU384
	cmpq	%r14, %r12
	je	.L53
	.loc 1 255 13 is_stmt 1 view .LVU385
.LVL146:
.LBB100:
.LBI100:
	.loc 4 108 1 view .LVU386
.LBB101:
	.loc 4 110 3 view .LVU387
	.loc 4 110 10 is_stmt 0 view .LVU388
	movq	stdout(%rip), %rdi
	movq	40(%rdi), %rax
.LVL147:
	.loc 4 110 10 view .LVU389
	cmpq	48(%rdi), %rax
	jnb	.L140
	leaq	1(%rax), %rdx
.LVL148:
	.loc 4 110 10 view .LVU390
	movq	%rdx, 40(%rdi)
	movb	$32, (%rax)
.L83:
.LBE101:
.LBE100:
	.loc 1 253 15 view .LVU391
	addq	$8, %r14
.LVL149:
	.loc 1 253 15 view .LVU392
.LBE113:
	.loc 1 195 13 is_stmt 1 view .LVU393
	.loc 1 195 13 is_stmt 0 view .LVU394
	jmp	.L55
.LVL150:
	.p2align 4,,10
	.p2align 3
.L95:
.LBB114:
	.loc 1 172 11 view .LVU395
	movl	$1, %esi
.LVL151:
	.loc 1 172 11 view .LVU396
	jmp	.L50
.LVL152:
.L40:
	.loc 1 172 11 view .LVU397
.LBE114:
	.loc 1 119 3 is_stmt 1 view .LVU398
	.loc 1 121 33 view .LVU399
	.loc 1 122 3 view .LVU400
	movq	(%r14), %rdi
	call	set_program_name@PLT
.LVL153:
	.loc 1 123 3 view .LVU401
	leaq	.LC2(%rip), %rsi
	movl	$6, %edi
	call	setlocale@PLT
.LVL154:
	.loc 1 124 3 view .LVU402
	leaq	.LC32(%rip), %rsi
	leaq	.LC16(%rip), %rdi
	call	bindtextdomain@PLT
.LVL155:
	.loc 1 125 3 view .LVU403
	leaq	.LC16(%rip), %rdi
	call	textdomain@PLT
.LVL156:
	.loc 1 127 3 view .LVU404
	movq	close_stdout@GOTPCREL(%rip), %rdi
	call	atexit@PLT
.LVL157:
	.loc 1 131 3 view .LVU405
	.loc 1 131 6 is_stmt 0 view .LVU406
	cmpl	$2, %r12d
	je	.L91
	.loc 1 144 3 is_stmt 1 view .LVU407
	leal	-1(%r12), %edx
.LVL158:
	.loc 1 145 3 view .LVU408
	addq	$8, %r14
.LVL159:
	.loc 1 147 3 view .LVU409
	.loc 1 148 11 view .LVU410
	testl	%edx, %edx
	jg	.L87
	jmp	.L90
.LVL160:
.L130:
.LBB115:
.LBB87:
	.loc 4 110 10 is_stmt 0 view .LVU411
	movl	$32, %esi
	call	__overflow@PLT
.LVL161:
	jmp	.L85
.LVL162:
.L77:
	.loc 4 110 10 view .LVU412
.LBE87:
.LBE115:
.LBB116:
	.loc 1 242 27 view .LVU413
	leal	-48(%rdx,%rax,8), %eax
.LVL163:
	.loc 1 242 27 view .LVU414
	leaq	1(%r8), %r13
	.loc 1 242 25 is_stmt 1 view .LVU415
.LVL164:
	.loc 1 242 25 is_stmt 0 view .LVU416
	movzbl	%al, %r15d
	jmp	.L60
.LVL165:
.L137:
	.loc 1 234 23 is_stmt 1 view .LVU417
	.loc 1 234 29 is_stmt 0 view .LVU418
	movzbl	3(%r13), %edx
	leaq	3(%r13), %r8
.LVL166:
	.loc 1 234 29 view .LVU419
	jmp	.L74
.LVL167:
.L136:
.LBB103:
	.loc 1 220 26 view .LVU420
	addq	$3, %r13
.LVL168:
	.loc 1 220 26 view .LVU421
	movzbl	%al, %r15d
	jmp	.L60
.LVL169:
.L98:
	.loc 1 220 26 view .LVU422
.LBE103:
	.loc 1 204 29 view .LVU423
	movq	%r8, %r13
	movl	$92, %r15d
	jmp	.L60
.L71:
	.loc 1 204 33 view .LVU424
	movq	%r8, %r13
	.loc 1 204 29 view .LVU425
	movl	$7, %r15d
	.loc 1 206 33 view .LVU426
	movl	$7, %eax
	jmp	.L60
.LVL170:
.L140:
.LBB104:
.LBB102:
	.loc 4 110 10 view .LVU427
	movl	$32, %esi
	call	__overflow@PLT
.LVL171:
	.loc 4 110 10 view .LVU428
	jmp	.L83
.LVL172:
.L128:
	.loc 4 110 10 view .LVU429
.LBE102:
.LBE104:
.LBE116:
	.loc 1 138 11 is_stmt 1 view .LVU430
	pushq	%rdx
	.cfi_def_cfa_offset 88
	movq	Version(%rip), %rcx
	leaq	.LC0(%rip), %rsi
	leaq	.LC35(%rip), %r9
	pushq	$0
	.cfi_def_cfa_offset 96
	movq	stdout(%rip), %rdi
	leaq	.LC36(%rip), %r8
	leaq	.LC25(%rip), %rdx
	call	version_etc@PLT
.LVL173:
	.loc 1 140 11 view .LVU431
	.loc 1 140 18 is_stmt 0 view .LVU432
	popq	%rcx
	.cfi_def_cfa_offset 88
	popq	%rsi
	.cfi_def_cfa_offset 80
	jmp	.L106
.LVL174:
.L47:
	.loc 1 193 3 is_stmt 1 view .LVU433
	.loc 1 193 6 is_stmt 0 view .LVU434
	testb	%bl, %bl
	jne	.L88
	testb	%sil, %sil
	je	.L94
	jmp	.L88
.LVL175:
.L134:
.LBB117:
.LBB105:
.LBB95:
	.loc 4 110 10 view .LVU435
	movl	$92, %esi
	movq	%r8, 8(%rsp)
	movb	%cl, 7(%rsp)
	call	__overflow@PLT
.LVL176:
	.loc 4 110 10 view .LVU436
.LBE95:
.LBE105:
	.loc 1 204 29 view .LVU437
	movzbl	7(%rsp), %ecx
	.loc 1 204 33 view .LVU438
	movq	8(%rsp), %r8
	.loc 1 204 29 view .LVU439
	movl	%ecx, %eax
	.loc 1 204 33 view .LVU440
	movq	%r8, %r13
.LBB106:
.LBB96:
	jmp	.L60
.LVL177:
.L135:
	.loc 1 204 33 view .LVU441
.LBE96:
.LBE106:
.LBE117:
.LBB118:
.LBB110:
	.loc 4 110 10 view .LVU442
	movl	$10, %esi
	call	__overflow@PLT
.LVL178:
	jmp	.L106
.LVL179:
.L126:
	.loc 4 110 10 view .LVU443
.LBE110:
.LBE118:
	.loc 1 144 3 is_stmt 1 view .LVU444
	leal	-1(%r12), %edx
.LVL180:
	.loc 1 145 3 view .LVU445
	addq	$8, %r14
.LVL181:
	.loc 1 147 3 view .LVU446
	.loc 1 148 11 view .LVU447
	jmp	.L87
.LVL182:
.L127:
	.loc 1 134 9 view .LVU448
	xorl	%edi, %edi
	call	usage
.LVL183:
	.cfi_endproc
.LFE137:
	.size	main, .-main
	.section	.rodata
	.type	__PRETTY_FUNCTION__.7040, @object
	.size	__PRETTY_FUNCTION__.7040, 6
__PRETTY_FUNCTION__.7040:
	.string	"usage"
	.text
.Letext0:
	.file 5 "/usr/lib/gcc/x86_64-linux-gnu/9/include/stddef.h"
	.file 6 "/usr/include/x86_64-linux-gnu/bits/types.h"
	.file 7 "/usr/include/x86_64-linux-gnu/bits/types/struct_FILE.h"
	.file 8 "/usr/include/x86_64-linux-gnu/bits/types/FILE.h"
	.file 9 "/usr/include/stdio.h"
	.file 10 "/usr/include/x86_64-linux-gnu/bits/sys_errlist.h"
	.file 11 "./lib/sys/select.h"
	.file 12 "/usr/include/time.h"
	.file 13 "/usr/include/signal.h"
	.file 14 "/usr/include/unistd.h"
	.file 15 "/usr/include/x86_64-linux-gnu/bits/getopt_core.h"
	.file 16 "/usr/include/errno.h"
	.file 17 "src/version.h"
	.file 18 "./lib/exitfail.h"
	.file 19 "./lib/version-etc.h"
	.file 20 "./lib/progname.h"
	.file 21 "./lib/quotearg.h"
	.file 22 "/usr/include/ctype.h"
	.file 23 "/usr/include/stdlib.h"
	.file 24 "/usr/include/string.h"
	.file 25 "/usr/include/locale.h"
	.file 26 "/usr/include/libintl.h"
	.file 27 "/usr/include/assert.h"
	.section	.note.GNU-stack,"",@progbits
	.section	.note.gnu.property,"a"
	.align 8
	.long	 1f - 0f
	.long	 4f - 1f
	.long	 5
0:
	.string	 "GNU"
1:
	.align 8
	.long	 0xc0000002
	.long	 3f - 2f
2:
	.long	 0x3
3:
	.align 8
4:
