	.file	"env.c"
	.text
.Ltext0:
	.section	.rodata.str1.1,"aMS",@progbits,1
.LC0:
	.string	"src/env.c"
.LC1:
	.string	"str && *str == '$'"
	.text
	.p2align 4
	.type	extract_varname, @function
extract_varname:
.LVL0:
.LFB156:
	.file 1 "src/env.c"
	.loc 1 241 1 view -0
	.cfi_startproc
	.loc 1 242 3 view .LVU1
	.loc 1 243 3 view .LVU2
	.loc 1 245 3 view .LVU3
.LBB117:
.LBI117:
	.loc 1 219 1 view .LVU4
.LBB118:
	.loc 1 221 3 view .LVU5
.LBE118:
.LBE117:
	.loc 1 241 1 is_stmt 0 view .LVU6
	pushq	%r12
	.cfi_def_cfa_offset 16
	.cfi_offset 12, -16
	pushq	%rbp
	.cfi_def_cfa_offset 24
	.cfi_offset 6, -24
	pushq	%rbx
	.cfi_def_cfa_offset 32
	.cfi_offset 3, -32
.LBB137:
.LBB132:
	.loc 1 221 3 view .LVU7
	testq	%rdi, %rdi
	je	.L2
	cmpb	$36, (%rdi)
	movq	%rdi, %rbx
	jne	.L2
	.loc 1 222 3 is_stmt 1 view .LVU8
.LBE132:
.LBE137:
	.loc 1 247 12 is_stmt 0 view .LVU9
	xorl	%r8d, %r8d
.LBB138:
.LBB133:
	.loc 1 222 6 view .LVU10
	cmpb	$123, 1(%rdi)
	jne	.L1
	.loc 1 222 39 view .LVU11
	movzbl	2(%rdi), %eax
.LVL1:
.LBB119:
.LBI119:
	.file 2 "./lib/c-ctype.h"
	.loc 2 183 1 is_stmt 1 view .LVU12
.LBB120:
	.loc 2 185 3 view .LVU13
	cmpb	$90, %al
	jg	.L5
	cmpb	$64, %al
	jg	.L6
.LVL2:
.L1:
	.loc 2 185 3 is_stmt 0 view .LVU14
.LBE120:
.LBE119:
.LBE133:
.LBE138:
	.loc 1 262 1 view .LVU15
	popq	%rbx
	.cfi_remember_state
	.cfi_def_cfa_offset 24
.LVL3:
	.loc 1 262 1 view .LVU16
	movq	%r8, %rax
	popq	%rbp
	.cfi_def_cfa_offset 16
	popq	%r12
	.cfi_def_cfa_offset 8
	ret
.LVL4:
	.p2align 4,,10
	.p2align 3
.L5:
	.cfi_restore_state
.LBB139:
.LBB134:
.LBB123:
.LBB121:
	.loc 2 185 3 view .LVU17
	leal	-97(%rax), %edx
	cmpb	$25, %dl
	ja	.L23
.LVL5:
.L6:
	.loc 2 185 3 view .LVU18
.LBE121:
.LBE123:
.LBB124:
	.loc 1 224 7 is_stmt 1 view .LVU19
	.loc 1 224 19 is_stmt 0 view .LVU20
	leaq	3(%rbx), %rdx
.LVL6:
	.loc 1 225 7 is_stmt 1 view .LVU21
	.p2align 4,,10
	.p2align 3
.L7:
	.loc 1 225 13 view .LVU22
	.loc 1 225 25 is_stmt 0 view .LVU23
	movzbl	(%rdx), %eax
.LVL7:
.LBB125:
.LBI125:
	.loc 2 169 1 is_stmt 1 view .LVU24
.LBB126:
	.loc 2 171 3 view .LVU25
	cmpb	$90, %al
	jg	.L8
	.loc 2 171 3 is_stmt 0 view .LVU26
	cmpb	$64, %al
	jg	.L9
	subl	$48, %eax
.LVL8:
	.loc 2 171 3 view .LVU27
	cmpb	$9, %al
	jbe	.L9
.LVL9:
.L14:
	.loc 2 171 3 view .LVU28
.LBE126:
.LBE125:
.LBE124:
.LBE134:
.LBE139:
	.loc 1 247 12 view .LVU29
	xorl	%r8d, %r8d
.LVL10:
	.loc 1 262 1 view .LVU30
	popq	%rbx
	.cfi_remember_state
	.cfi_def_cfa_offset 24
.LVL11:
	.loc 1 262 1 view .LVU31
	popq	%rbp
	.cfi_def_cfa_offset 16
	movq	%r8, %rax
	popq	%r12
	.cfi_def_cfa_offset 8
	ret
.LVL12:
	.p2align 4,,10
	.p2align 3
.L8:
	.cfi_restore_state
.LBB140:
.LBB135:
.LBB129:
.LBB128:
.LBB127:
	.loc 2 171 3 view .LVU32
	leal	-97(%rax), %ecx
	cmpb	$25, %cl
	jbe	.L9
	.loc 2 178 7 is_stmt 1 view .LVU33
.LVL13:
	.loc 2 178 7 is_stmt 0 view .LVU34
.LBE127:
.LBE128:
	.loc 1 225 31 view .LVU35
	cmpb	$95, %al
	jne	.L24
.L9:
	.loc 1 226 9 is_stmt 1 view .LVU36
	addq	$1, %rdx
.LVL14:
	.loc 1 226 9 is_stmt 0 view .LVU37
	jmp	.L7
.LVL15:
	.p2align 4,,10
	.p2align 3
.L23:
	.loc 1 226 9 view .LVU38
.LBE129:
.LBB130:
.LBB122:
	.loc 2 191 7 is_stmt 1 view .LVU39
	.loc 2 191 7 is_stmt 0 view .LVU40
.LBE122:
.LBE130:
	.loc 1 222 49 view .LVU41
	cmpb	$95, %al
	je	.L6
.LBB131:
	jmp	.L1
.LVL16:
	.p2align 4,,10
	.p2align 3
.L24:
	.loc 1 227 7 is_stmt 1 view .LVU42
	.loc 1 227 10 is_stmt 0 view .LVU43
	cmpb	$125, %al
	jne	.L14
	.loc 1 228 9 is_stmt 1 view .LVU44
.LVL17:
	.loc 1 228 9 is_stmt 0 view .LVU45
.LBE131:
.LBE135:
.LBE140:
	.loc 1 246 3 is_stmt 1 view .LVU46
	.loc 1 250 3 view .LVU47
	.loc 1 250 9 is_stmt 0 view .LVU48
	subq	%rbx, %rdx
.LVL18:
	.loc 1 250 9 view .LVU49
	movq	varname(%rip), %r8
	.loc 1 250 5 view .LVU50
	leaq	-2(%rdx), %r12
	.loc 1 252 6 view .LVU51
	cmpq	vnlen(%rip), %r12
	.loc 1 250 9 view .LVU52
	movq	%rdx, %rbp
.LVL19:
	.loc 1 252 3 is_stmt 1 view .LVU53
	.loc 1 252 6 is_stmt 0 view .LVU54
	jnb	.L25
.L10:
	.loc 1 258 3 is_stmt 1 view .LVU55
.LVL20:
.LBB141:
.LBI141:
	.file 3 "/usr/include/x86_64-linux-gnu/bits/string_fortified.h"
	.loc 3 31 1 view .LVU56
.LBB142:
	.loc 3 34 3 view .LVU57
	.loc 3 34 10 is_stmt 0 view .LVU58
	movq	%r8, %rdi
.LBE142:
.LBE141:
	.loc 1 258 23 view .LVU59
	leaq	2(%rbx), %rsi
.LVL21:
.LBB145:
.LBB143:
	.loc 3 34 10 view .LVU60
	movq	%r12, %rdx
	call	memcpy@PLT
.LVL22:
	.loc 3 34 10 view .LVU61
.LBE143:
.LBE145:
	.loc 1 259 13 view .LVU62
	movb	$0, -2(%rax,%rbp)
.LBB146:
.LBB144:
	.loc 3 34 10 view .LVU63
	movq	%rax, %r8
.LVL23:
	.loc 3 34 10 view .LVU64
.LBE144:
.LBE146:
	.loc 1 259 3 is_stmt 1 view .LVU65
	.loc 1 261 3 view .LVU66
	.loc 1 261 10 is_stmt 0 view .LVU67
	jmp	.L1
	.p2align 4,,10
	.p2align 3
.L25:
	.loc 1 254 7 is_stmt 1 view .LVU68
	.loc 1 254 17 is_stmt 0 view .LVU69
	leaq	-1(%rdx), %rsi
	.loc 1 255 17 view .LVU70
	movq	%r8, %rdi
	.loc 1 254 13 view .LVU71
	movq	%rsi, vnlen(%rip)
	.loc 1 255 7 is_stmt 1 view .LVU72
	.loc 1 255 17 is_stmt 0 view .LVU73
	call	xrealloc@PLT
.LVL24:
	.loc 1 255 15 view .LVU74
	movq	%rax, varname(%rip)
	.loc 1 255 17 view .LVU75
	movq	%rax, %r8
	jmp	.L10
.LVL25:
.L2:
.LBB147:
.LBB136:
	.loc 1 221 3 is_stmt 1 view .LVU76
	leaq	__PRETTY_FUNCTION__.7840(%rip), %rcx
	movl	$221, %edx
	leaq	.LC0(%rip), %rsi
	leaq	.LC1(%rip), %rdi
.LVL26:
	.loc 1 221 3 is_stmt 0 view .LVU77
	call	__assert_fail@PLT
.LVL27:
.LBE136:
.LBE147:
	.cfi_endproc
.LFE156:
	.size	extract_varname, .-extract_varname
	.section	.rodata.str1.1
.LC2:
	.string	""
.LC3:
	.string	"BLOCK"
.LC4:
	.string	"IGNORE"
.LC5:
	.string	","
	.section	.rodata.str1.8,"aMS",@progbits,1
	.align 8
.LC6:
	.string	"failed to get signal process mask"
	.section	.rodata.str1.1
.LC7:
	.string	"%-10s (%2d): %s%s%s\n"
	.text
	.p2align 4
	.type	list_signal_handling, @function
list_signal_handling:
.LFB164:
	.loc 1 759 1 is_stmt 1 view -0
	.cfi_startproc
	pushq	%r15
	.cfi_def_cfa_offset 16
	.cfi_offset 15, -16
	pushq	%r14
	.cfi_def_cfa_offset 24
	.cfi_offset 14, -24
	pushq	%r13
	.cfi_def_cfa_offset 32
	.cfi_offset 13, -32
	pushq	%r12
	.cfi_def_cfa_offset 40
	.cfi_offset 12, -40
	pushq	%rbp
	.cfi_def_cfa_offset 48
	.cfi_offset 6, -48
	pushq	%rbx
	.cfi_def_cfa_offset 56
	.cfi_offset 3, -56
	subq	$344, %rsp
	.cfi_def_cfa_offset 400
	.loc 1 759 1 is_stmt 0 view .LVU79
	movq	%fs:40, %rax
	movq	%rax, 328(%rsp)
	xorl	%eax, %eax
	.loc 1 760 3 is_stmt 1 view .LVU80
	.loc 1 761 3 view .LVU81
	.loc 1 763 3 view .LVU82
	leaq	16(%rsp), %r12
	movq	%r12, %rdi
	call	sigemptyset@PLT
.LVL28:
	.loc 1 764 3 view .LVU83
	.loc 1 764 7 is_stmt 0 view .LVU84
	xorl	%esi, %esi
	xorl	%edi, %edi
	movq	%r12, %rdx
	call	sigprocmask@PLT
.LVL29:
	.loc 1 764 6 view .LVU85
	testl	%eax, %eax
	jne	.L41
.LBB148:
	.loc 1 767 12 view .LVU86
	movl	$1, %r13d
	leaq	144(%rsp), %rbp
.LBB149:
	.loc 1 780 7 view .LVU87
	leaq	304(%rsp), %rbx
	jmp	.L27
.LVL30:
	.p2align 4,,10
	.p2align 3
.L43:
	.loc 1 774 7 is_stmt 1 discriminator 4 view .LVU88
	.loc 1 774 29 is_stmt 0 discriminator 4 view .LVU89
	call	sigismember@PLT
.LVL31:
	.loc 1 774 61 discriminator 4 view .LVU90
	testl	%eax, %eax
	je	.L30
	.loc 1 773 66 view .LVU91
	leaq	.LC2(%rip), %rdx
	.loc 1 774 61 view .LVU92
	leaq	.LC3(%rip), %r14
	movq	%rdx, %r15
.LVL32:
.L31:
	.loc 1 780 7 view .LVU93
	movq	%rbx, %rsi
	movl	%r13d, %edi
	movq	%rdx, 8(%rsp)
	.loc 1 780 7 is_stmt 1 view .LVU94
	call	sig2str@PLT
.LVL33:
	.loc 1 781 7 view .LVU95
.LBB150:
.LBI150:
	.file 4 "/usr/include/x86_64-linux-gnu/bits/stdio2.h"
	.loc 4 98 1 view .LVU96
.LBB151:
	.loc 4 100 3 view .LVU97
	.loc 4 100 10 is_stmt 0 view .LVU98
	movq	8(%rsp), %rdx
	movq	%r14, %r9
	movl	%r13d, %r8d
	movq	stderr(%rip), %rdi
	movq	%rbx, %rcx
	movl	$1, %esi
	xorl	%eax, %eax
	pushq	%rdx
	.cfi_def_cfa_offset 408
	leaq	.LC7(%rip), %rdx
	pushq	%r15
	.cfi_def_cfa_offset 416
	call	__fprintf_chk@PLT
.LVL34:
	.loc 4 100 10 view .LVU99
.LBE151:
.LBE150:
	popq	%rax
	.cfi_def_cfa_offset 408
	popq	%rdx
	.cfi_def_cfa_offset 400
.L30:
	.loc 4 100 10 view .LVU100
.LBE149:
	.loc 1 767 38 is_stmt 1 discriminator 2 view .LVU101
	.loc 1 767 39 is_stmt 0 discriminator 2 view .LVU102
	addl	$1, %r13d
.LVL35:
	.loc 1 767 19 is_stmt 1 discriminator 2 view .LVU103
	.loc 1 767 3 is_stmt 0 discriminator 2 view .LVU104
	cmpl	$65, %r13d
	je	.L42
.LVL36:
.L27:
.LBB152:
	.loc 1 769 7 is_stmt 1 view .LVU105
	.loc 1 770 7 view .LVU106
	.loc 1 770 11 is_stmt 0 view .LVU107
	xorl	%esi, %esi
	movq	%rbp, %rdx
	movl	%r13d, %edi
	call	sigaction@PLT
.LVL37:
	.loc 1 770 10 view .LVU108
	testl	%eax, %eax
	jne	.L30
	.loc 1 773 7 is_stmt 1 view .LVU109
	.loc 1 773 66 is_stmt 0 view .LVU110
	cmpq	$1, 144(%rsp)
	.loc 1 774 29 view .LVU111
	movl	%r13d, %esi
	movq	%r12, %rdi
	.loc 1 773 66 view .LVU112
	jne	.L43
.LVL38:
	.loc 1 774 7 is_stmt 1 view .LVU113
	.loc 1 774 29 is_stmt 0 view .LVU114
	call	sigismember@PLT
.LVL39:
	.loc 1 774 61 view .LVU115
	leaq	.LC2(%rip), %r15
	.loc 1 773 66 view .LVU116
	leaq	.LC4(%rip), %rdx
	.loc 1 774 61 view .LVU117
	testl	%eax, %eax
	movq	%r15, %r14
	leaq	.LC5(%rip), %rcx
	leaq	.LC3(%rip), %rax
	cmove	%rdx, %rdx
	cmovne	%rcx, %r15
	cmovne	%rax, %r14
	jmp	.L31
.LVL40:
	.p2align 4,,10
	.p2align 3
.L42:
	.loc 1 774 61 view .LVU118
.LBE152:
.LBE148:
	.loc 1 784 1 view .LVU119
	movq	328(%rsp), %rax
	xorq	%fs:40, %rax
	jne	.L44
	addq	$344, %rsp
	.cfi_remember_state
	.cfi_def_cfa_offset 56
	popq	%rbx
	.cfi_def_cfa_offset 48
	popq	%rbp
	.cfi_def_cfa_offset 40
	popq	%r12
	.cfi_def_cfa_offset 32
	popq	%r13
	.cfi_def_cfa_offset 24
.LVL41:
	.loc 1 784 1 view .LVU120
	popq	%r14
	.cfi_def_cfa_offset 16
	popq	%r15
	.cfi_def_cfa_offset 8
	ret
.L41:
	.cfi_restore_state
.LBB153:
	.loc 1 765 5 is_stmt 1 view .LVU121
	movl	$5, %edx
	leaq	.LC6(%rip), %rsi
	xorl	%edi, %edi
	call	dcgettext@PLT
.LVL42:
	movq	%rax, %r12
	call	__errno_location@PLT
.LVL43:
	movq	%r12, %rdx
	movl	$125, %edi
	movl	(%rax), %esi
	xorl	%eax, %eax
	call	error@PLT
.LVL44:
.L44:
	.loc 1 765 5 is_stmt 0 view .LVU122
.LBE153:
	.loc 1 784 1 view .LVU123
	call	__stack_chk_fail@PLT
.LVL45:
	.cfi_endproc
.LFE164:
	.size	list_signal_handling, .-list_signal_handling
	.section	.rodata.str1.1
.LC8:
	.string	"env"
.LC9:
	.string	" invocation"
	.section	.rodata.str1.8
	.align 8
.LC10:
	.string	"Try '%s --help' for more information.\n"
	.align 8
.LC11:
	.string	"Usage: %s [OPTION]... [-] [NAME=VALUE]... [COMMAND [ARG]...]\n"
	.align 8
.LC12:
	.string	"Set each NAME to VALUE in the environment and run COMMAND.\n"
	.align 8
.LC13:
	.string	"\nMandatory arguments to long options are mandatory for short options too.\n"
	.align 8
.LC14:
	.string	"  -i, --ignore-environment  start with an empty environment\n  -0, --null           end each output line with NUL, not newline\n  -u, --unset=NAME     remove variable from the environment\n"
	.align 8
.LC15:
	.string	"  -C, --chdir=DIR      change working directory to DIR\n"
	.align 8
.LC16:
	.string	"  -S, --split-string=S  process and split S into separate arguments;\n                        used to pass multiple arguments on shebang lines\n"
	.align 8
.LC17:
	.string	"      --block-signal[=SIG]    block delivery of SIG signal(s) to COMMAND\n"
	.align 8
.LC18:
	.string	"      --default-signal[=SIG]  reset handling of SIG signal(s) to the default\n"
	.align 8
.LC19:
	.string	"      --ignore-signal[=SIG]   set handling of SIG signals(s) to do nothing\n"
	.align 8
.LC20:
	.string	"      --list-signal-handling  list non default signal handling to stderr\n"
	.align 8
.LC21:
	.string	"  -v, --debug          print verbose information for each processing step\n"
	.align 8
.LC22:
	.string	"      --help     display this help and exit\n"
	.align 8
.LC23:
	.string	"      --version  output version information and exit\n"
	.align 8
.LC24:
	.string	"\nA mere - implies -i.  If no COMMAND, print the resulting environment.\n"
	.align 8
.LC25:
	.string	"\nSIG may be a signal name like 'PIPE', or a signal number like '13'.\nWithout SIG, all known signals are included.  Multiple signals can be\ncomma-separated.\n"
	.section	.rodata.str1.1
.LC26:
	.string	"["
.LC27:
	.string	"test invocation"
.LC28:
	.string	"coreutils"
.LC29:
	.string	"Multi-call invocation"
.LC30:
	.string	"sha224sum"
.LC31:
	.string	"sha2 utilities"
.LC32:
	.string	"sha256sum"
.LC33:
	.string	"sha384sum"
.LC34:
	.string	"sha512sum"
.LC35:
	.string	"\n%s online help: <%s>\n"
	.section	.rodata.str1.8
	.align 8
.LC36:
	.string	"https://www.gnu.org/software/coreutils/"
	.section	.rodata.str1.1
.LC37:
	.string	"GNU coreutils"
.LC38:
	.string	"en_"
	.section	.rodata.str1.8
	.align 8
.LC39:
	.string	"Report any translation bugs to <https://translationproject.org/team/>\n"
	.section	.rodata.str1.1
.LC40:
	.string	"Full documentation <%s%s>\n"
	.section	.rodata.str1.8
	.align 8
.LC41:
	.string	"or available locally via: info '(coreutils) %s%s'\n"
	.text
	.p2align 4
	.globl	usage
	.type	usage, @function
usage:
.LVL46:
.LFB150:
	.loc 1 107 1 is_stmt 1 view -0
	.cfi_startproc
	.loc 1 107 1 is_stmt 0 view .LVU125
	endbr64
	pushq	%r13
	.cfi_def_cfa_offset 16
	.cfi_offset 13, -16
	.loc 1 109 5 view .LVU126
	movl	$5, %edx
	.loc 1 107 1 view .LVU127
	pushq	%r12
	.cfi_def_cfa_offset 24
	.cfi_offset 12, -24
	pushq	%rbp
	.cfi_def_cfa_offset 32
	.cfi_offset 6, -32
	movl	%edi, %ebp
	pushq	%rbx
	.cfi_def_cfa_offset 40
	.cfi_offset 3, -40
	subq	$136, %rsp
	.cfi_def_cfa_offset 176
	movq	program_name(%rip), %r12
	.loc 1 107 1 view .LVU128
	movq	%fs:40, %rax
	movq	%rax, 120(%rsp)
	xorl	%eax, %eax
	.loc 1 108 3 is_stmt 1 view .LVU129
	.loc 1 108 6 is_stmt 0 view .LVU130
	testl	%edi, %edi
	je	.L46
	.loc 1 109 5 is_stmt 1 view .LVU131
	.loc 1 109 5 view .LVU132
	leaq	.LC10(%rip), %rsi
	xorl	%edi, %edi
.LVL47:
	.loc 1 109 5 is_stmt 0 view .LVU133
	call	dcgettext@PLT
.LVL48:
.LBB168:
.LBB169:
	.loc 4 100 10 view .LVU134
	movq	stderr(%rip), %rdi
	movq	%r12, %rcx
	movl	$1, %esi
.LBE169:
.LBE168:
	.loc 1 109 5 view .LVU135
	movq	%rax, %rdx
.LVL49:
.LBB171:
.LBI168:
	.loc 4 98 1 is_stmt 1 view .LVU136
.LBB170:
	.loc 4 100 3 view .LVU137
	.loc 4 100 10 is_stmt 0 view .LVU138
	xorl	%eax, %eax
.LVL50:
	.loc 4 100 10 view .LVU139
	call	__fprintf_chk@PLT
.LVL51:
.L47:
	.loc 4 100 10 view .LVU140
.LBE170:
.LBE171:
	.loc 1 162 3 is_stmt 1 view .LVU141
	movl	%ebp, %edi
	call	exit@PLT
.LVL52:
.L46:
	.loc 1 112 7 view .LVU142
	.loc 1 112 15 is_stmt 0 view .LVU143
	xorl	%edi, %edi
.LVL53:
	.loc 1 112 15 view .LVU144
	leaq	.LC11(%rip), %rsi
.LBB172:
.LBB173:
	.file 5 "src/system.h"
	.loc 5 636 67 view .LVU145
	leaq	.LC32(%rip), %rbx
.LBE173:
.LBE172:
	.loc 1 112 15 view .LVU146
	call	dcgettext@PLT
.LVL54:
.LBB199:
.LBB200:
	.loc 4 107 10 view .LVU147
	movq	%r12, %rdx
	movl	$1, %edi
.LBE200:
.LBE199:
	.loc 1 112 15 view .LVU148
	movq	%rax, %rsi
.LVL55:
.LBB202:
.LBI199:
	.loc 4 105 1 is_stmt 1 view .LVU149
.LBB201:
	.loc 4 107 3 view .LVU150
	.loc 4 107 10 is_stmt 0 view .LVU151
	xorl	%eax, %eax
.LVL56:
	.loc 4 107 10 view .LVU152
	call	__printf_chk@PLT
.LVL57:
	.loc 4 107 10 view .LVU153
.LBE201:
.LBE202:
	.loc 1 115 7 is_stmt 1 view .LVU154
	movq	stdout(%rip), %r12
	xorl	%edi, %edi
	movl	$5, %edx
	leaq	.LC12(%rip), %rsi
	call	dcgettext@PLT
.LVL58:
	movq	%r12, %rsi
	movq	%rax, %rdi
	call	fputs_unlocked@PLT
.LVL59:
	.loc 1 119 7 view .LVU155
.LBB203:
.LBI203:
	.loc 5 588 1 view .LVU156
.LBB204:
	.loc 5 590 3 view .LVU157
	movq	stdout(%rip), %r12
	xorl	%edi, %edi
	movl	$5, %edx
	leaq	.LC13(%rip), %rsi
	call	dcgettext@PLT
.LVL60:
	movq	%r12, %rsi
	movq	%rax, %rdi
	call	fputs_unlocked@PLT
.LVL61:
.LBE204:
.LBE203:
	.loc 1 121 7 view .LVU158
	movq	stdout(%rip), %r12
	xorl	%edi, %edi
	movl	$5, %edx
	leaq	.LC14(%rip), %rsi
	call	dcgettext@PLT
.LVL62:
	movq	%r12, %rsi
	movq	%rax, %rdi
	call	fputs_unlocked@PLT
.LVL63:
	.loc 1 126 7 view .LVU159
	movq	stdout(%rip), %r12
	xorl	%edi, %edi
	movl	$5, %edx
	leaq	.LC15(%rip), %rsi
	call	dcgettext@PLT
.LVL64:
	movq	%r12, %rsi
	movq	%rax, %rdi
	call	fputs_unlocked@PLT
.LVL65:
	.loc 1 129 7 view .LVU160
	movq	stdout(%rip), %r12
	xorl	%edi, %edi
	movl	$5, %edx
	leaq	.LC16(%rip), %rsi
	call	dcgettext@PLT
.LVL66:
	movq	%r12, %rsi
	movq	%rax, %rdi
	call	fputs_unlocked@PLT
.LVL67:
	.loc 1 133 7 view .LVU161
	movq	stdout(%rip), %r12
	xorl	%edi, %edi
	movl	$5, %edx
	leaq	.LC17(%rip), %rsi
	call	dcgettext@PLT
.LVL68:
	movq	%r12, %rsi
	movq	%rax, %rdi
	call	fputs_unlocked@PLT
.LVL69:
	.loc 1 136 7 view .LVU162
	movq	stdout(%rip), %r12
	xorl	%edi, %edi
	movl	$5, %edx
	leaq	.LC18(%rip), %rsi
	call	dcgettext@PLT
.LVL70:
	movq	%r12, %rsi
	movq	%rax, %rdi
	call	fputs_unlocked@PLT
.LVL71:
	.loc 1 139 7 view .LVU163
	movq	stdout(%rip), %r12
	xorl	%edi, %edi
	movl	$5, %edx
	leaq	.LC19(%rip), %rsi
	call	dcgettext@PLT
.LVL72:
	movq	%r12, %rsi
	movq	%rax, %rdi
	call	fputs_unlocked@PLT
.LVL73:
	.loc 1 142 7 view .LVU164
	movq	stdout(%rip), %r12
	xorl	%edi, %edi
	movl	$5, %edx
	leaq	.LC20(%rip), %rsi
	call	dcgettext@PLT
.LVL74:
	movq	%r12, %rsi
	movq	%rax, %rdi
	call	fputs_unlocked@PLT
.LVL75:
	.loc 1 145 7 view .LVU165
	movq	stdout(%rip), %r12
	movl	$5, %edx
	xorl	%edi, %edi
	leaq	.LC21(%rip), %rsi
	call	dcgettext@PLT
.LVL76:
	movq	%r12, %rsi
	movq	%rax, %rdi
	call	fputs_unlocked@PLT
.LVL77:
	.loc 1 148 7 view .LVU166
	movq	stdout(%rip), %r12
	movl	$5, %edx
	xorl	%edi, %edi
	leaq	.LC22(%rip), %rsi
	call	dcgettext@PLT
.LVL78:
	movq	%r12, %rsi
	movq	%rax, %rdi
	call	fputs_unlocked@PLT
.LVL79:
	.loc 1 149 7 view .LVU167
	movq	stdout(%rip), %r12
	movl	$5, %edx
	xorl	%edi, %edi
	leaq	.LC23(%rip), %rsi
	call	dcgettext@PLT
.LVL80:
	movq	%r12, %rsi
	movq	%rax, %rdi
	call	fputs_unlocked@PLT
.LVL81:
	.loc 1 150 7 view .LVU168
	movq	stdout(%rip), %r12
	movl	$5, %edx
	xorl	%edi, %edi
	leaq	.LC24(%rip), %rsi
	call	dcgettext@PLT
.LVL82:
	movq	%r12, %rsi
	movq	%rax, %rdi
	call	fputs_unlocked@PLT
.LVL83:
	.loc 1 154 7 view .LVU169
	movq	stdout(%rip), %r12
	movl	$5, %edx
	xorl	%edi, %edi
	leaq	.LC25(%rip), %rsi
	call	dcgettext@PLT
.LVL84:
	movq	%r12, %rsi
	movq	%rax, %rdi
	call	fputs_unlocked@PLT
.LVL85:
	.loc 1 160 7 view .LVU170
.LBB205:
.LBI172:
	.loc 5 634 1 view .LVU171
.LBB198:
	.loc 5 636 3 view .LVU172
	.loc 5 636 67 is_stmt 0 view .LVU173
	leaq	.LC26(%rip), %rax
	movq	%rbx, 48(%rsp)
	leaq	.LC33(%rip), %rbx
	movq	%rax, (%rsp)
	leaq	.LC27(%rip), %rax
	movq	%rax, 8(%rsp)
	leaq	.LC28(%rip), %rax
	movq	%rax, 16(%rsp)
	leaq	.LC29(%rip), %rax
	movq	%rax, 24(%rsp)
	leaq	.LC30(%rip), %rax
	movq	$0, 96(%rsp)
	movq	$0, 104(%rsp)
	.loc 5 646 3 is_stmt 1 view .LVU174
.LVL86:
	.loc 5 647 3 view .LVU175
	.loc 5 649 3 view .LVU176
	.loc 5 649 9 view .LVU177
	.loc 5 636 67 is_stmt 0 view .LVU178
	movq	%rax, 32(%rsp)
	leaq	.LC31(%rip), %rax
	movq	%rbx, 64(%rsp)
	leaq	.LC34(%rip), %rbx
	movq	%rax, 40(%rsp)
	movq	%rax, 56(%rsp)
	movq	%rax, 72(%rsp)
	movq	%rbx, 80(%rsp)
	leaq	.LC8(%rip), %rbx
	movq	%rax, 88(%rsp)
	.loc 5 647 25 view .LVU179
	movq	%rsp, %rax
.LVL87:
	.p2align 4,,10
	.p2align 3
.L49:
	.loc 5 650 5 is_stmt 1 view .LVU180
	.loc 5 649 18 is_stmt 0 view .LVU181
	movq	16(%rax), %rdi
	.loc 5 650 13 view .LVU182
	addq	$16, %rax
.LVL88:
	.loc 5 649 9 is_stmt 1 view .LVU183
	testq	%rdi, %rdi
	je	.L48
	.loc 5 649 33 is_stmt 0 view .LVU184
	movl	$4, %ecx
	movq	%rbx, %rsi
	repz cmpsb
	seta	%dl
	sbbb	$0, %dl
	.loc 5 649 28 view .LVU185
	testb	%dl, %dl
	jne	.L49
.L48:
	.loc 5 652 3 is_stmt 1 view .LVU186
	.loc 5 652 15 is_stmt 0 view .LVU187
	movq	8(%rax), %r12
	.loc 5 655 11 view .LVU188
	movl	$5, %edx
	leaq	.LC35(%rip), %rsi
	xorl	%edi, %edi
	.loc 5 652 6 view .LVU189
	testq	%r12, %r12
	je	.L50
	.loc 5 653 5 is_stmt 1 view .LVU190
.LVL89:
	.loc 5 655 3 view .LVU191
	.loc 5 655 11 is_stmt 0 view .LVU192
	call	dcgettext@PLT
.LVL90:
.LBB174:
.LBB175:
	.loc 4 107 10 view .LVU193
	leaq	.LC36(%rip), %rcx
	movl	$1, %edi
	leaq	.LC37(%rip), %rdx
.LBE175:
.LBE174:
	.loc 5 655 11 view .LVU194
	movq	%rax, %rsi
.LVL91:
.LBB179:
.LBI174:
	.loc 4 105 1 is_stmt 1 view .LVU195
.LBB176:
	.loc 4 107 3 view .LVU196
	.loc 4 107 10 is_stmt 0 view .LVU197
	xorl	%eax, %eax
.LVL92:
	.loc 4 107 10 view .LVU198
	call	__printf_chk@PLT
.LVL93:
	.loc 4 107 10 view .LVU199
.LBE176:
.LBE179:
	.loc 5 659 3 is_stmt 1 view .LVU200
	.loc 5 659 29 is_stmt 0 view .LVU201
	movl	$5, %edi
	xorl	%esi, %esi
	call	setlocale@PLT
.LVL94:
	movq	%rax, %rdi
.LVL95:
	.loc 5 660 3 is_stmt 1 view .LVU202
	.loc 5 660 6 is_stmt 0 view .LVU203
	testq	%rax, %rax
	je	.L51
	.loc 5 660 22 view .LVU204
	movl	$3, %edx
	leaq	.LC38(%rip), %rsi
	call	strncmp@PLT
.LVL96:
	.loc 5 660 19 view .LVU205
	testl	%eax, %eax
	jne	.L54
.LVL97:
.L51:
	.loc 5 669 3 is_stmt 1 view .LVU206
	.loc 5 669 11 is_stmt 0 view .LVU207
	xorl	%edi, %edi
	movl	$5, %edx
	leaq	.LC40(%rip), %rsi
	call	dcgettext@PLT
.LVL98:
.LBB180:
.LBB181:
	.loc 4 107 10 view .LVU208
	leaq	.LC8(%rip), %rcx
	leaq	.LC36(%rip), %rdx
	movl	$1, %edi
.LBE181:
.LBE180:
	.loc 5 669 11 view .LVU209
	movq	%rax, %rsi
.LVL99:
.LBB187:
.LBI180:
	.loc 4 105 1 is_stmt 1 view .LVU210
.LBB182:
	.loc 4 107 3 view .LVU211
	.loc 4 107 10 is_stmt 0 view .LVU212
	xorl	%eax, %eax
.LVL100:
	.loc 4 107 10 view .LVU213
.LBE182:
.LBE187:
	.loc 5 671 3 view .LVU214
	leaq	.LC9(%rip), %r13
.LBB188:
.LBB183:
	.loc 4 107 10 view .LVU215
	call	__printf_chk@PLT
.LVL101:
	.loc 4 107 10 view .LVU216
.LBE183:
.LBE188:
	.loc 5 671 3 is_stmt 1 view .LVU217
	cmpq	%rbx, %r12
	leaq	.LC2(%rip), %rcx
	cmovne	%rcx, %r13
.L52:
	.loc 5 671 11 is_stmt 0 view .LVU218
	xorl	%edi, %edi
	leaq	.LC41(%rip), %rsi
	movl	$5, %edx
	call	dcgettext@PLT
.LVL102:
.LBB189:
.LBB190:
	.loc 4 107 10 view .LVU219
	movq	%r13, %rcx
	movq	%r12, %rdx
	movl	$1, %edi
.LBE190:
.LBE189:
	.loc 5 671 11 view .LVU220
	movq	%rax, %rsi
.LVL103:
.LBB192:
.LBI189:
	.loc 4 105 1 is_stmt 1 view .LVU221
.LBB191:
	.loc 4 107 3 view .LVU222
	.loc 4 107 10 is_stmt 0 view .LVU223
	xorl	%eax, %eax
.LVL104:
	.loc 4 107 10 view .LVU224
	call	__printf_chk@PLT
.LVL105:
	.loc 4 107 10 view .LVU225
.LBE191:
.LBE192:
	.loc 5 673 1 view .LVU226
	jmp	.L47
.LVL106:
.L50:
	.loc 5 655 3 is_stmt 1 view .LVU227
	.loc 5 655 11 is_stmt 0 view .LVU228
	call	dcgettext@PLT
.LVL107:
.LBB193:
.LBB177:
	.loc 4 107 10 view .LVU229
	leaq	.LC36(%rip), %rcx
	movl	$1, %edi
	leaq	.LC37(%rip), %rdx
.LBE177:
.LBE193:
	.loc 5 655 11 view .LVU230
	movq	%rax, %rsi
.LVL108:
.LBB194:
	.loc 4 105 1 is_stmt 1 view .LVU231
.LBB178:
	.loc 4 107 3 view .LVU232
	.loc 4 107 10 is_stmt 0 view .LVU233
	xorl	%eax, %eax
.LVL109:
	.loc 4 107 10 view .LVU234
	call	__printf_chk@PLT
.LVL110:
	.loc 4 107 10 view .LVU235
.LBE178:
.LBE194:
	.loc 5 659 3 is_stmt 1 view .LVU236
	.loc 5 659 29 is_stmt 0 view .LVU237
	movl	$5, %edi
	xorl	%esi, %esi
	call	setlocale@PLT
.LVL111:
	movq	%rax, %rdi
.LVL112:
	.loc 5 660 3 is_stmt 1 view .LVU238
	.loc 5 660 6 is_stmt 0 view .LVU239
	testq	%rax, %rax
	je	.L53
	.loc 5 660 22 view .LVU240
	movl	$3, %edx
	leaq	.LC38(%rip), %rsi
	call	strncmp@PLT
.LVL113:
	.loc 5 660 19 view .LVU241
	testl	%eax, %eax
	jne	.L72
.L53:
	.loc 5 669 3 is_stmt 1 view .LVU242
	.loc 5 669 11 is_stmt 0 view .LVU243
	movl	$5, %edx
	leaq	.LC40(%rip), %rsi
	xorl	%edi, %edi
	call	dcgettext@PLT
.LVL114:
.LBB195:
.LBB184:
	.loc 4 107 10 view .LVU244
	leaq	.LC8(%rip), %rcx
	leaq	.LC36(%rip), %rdx
	movl	$1, %edi
.LBE184:
.LBE195:
	.loc 5 669 11 view .LVU245
	movq	%rax, %rsi
.LVL115:
.LBB196:
	.loc 4 105 1 is_stmt 1 view .LVU246
.LBB185:
	.loc 4 107 3 view .LVU247
	.loc 4 107 10 is_stmt 0 view .LVU248
	xorl	%eax, %eax
.LVL116:
	.loc 4 107 10 view .LVU249
.LBE185:
.LBE196:
	.loc 5 646 15 view .LVU250
	leaq	.LC8(%rip), %r12
.LBB197:
.LBB186:
	.loc 4 107 10 view .LVU251
	call	__printf_chk@PLT
.LVL117:
	.loc 4 107 10 view .LVU252
.LBE186:
.LBE197:
	.loc 5 671 3 is_stmt 1 view .LVU253
	leaq	.LC9(%rip), %r13
	jmp	.L52
.L72:
	.loc 5 646 15 is_stmt 0 view .LVU254
	leaq	.LC8(%rip), %r12
.LVL118:
.L54:
	.loc 5 666 7 is_stmt 1 view .LVU255
	movq	stdout(%rip), %r13
	xorl	%edi, %edi
	movl	$5, %edx
	leaq	.LC39(%rip), %rsi
	call	dcgettext@PLT
.LVL119:
	movq	%rax, %rdi
	movq	%r13, %rsi
	call	fputs_unlocked@PLT
.LVL120:
	jmp	.L51
.LBE198:
.LBE205:
	.cfi_endproc
.LFE150:
	.size	usage, .-usage
	.section	.rodata.str1.1
.LC42:
	.string	"%s: invalid signal"
	.text
	.p2align 4
	.type	parse_signal_action_params, @function
parse_signal_action_params:
.LVL121:
.LFB160:
	.loc 1 589 1 view -0
	.cfi_startproc
	.loc 1 589 1 is_stmt 0 view .LVU257
	pushq	%r14
	.cfi_def_cfa_offset 16
	.cfi_offset 14, -16
	pushq	%r13
	.cfi_def_cfa_offset 24
	.cfi_offset 13, -24
	pushq	%r12
	.cfi_def_cfa_offset 32
	.cfi_offset 12, -32
	pushq	%rbp
	.cfi_def_cfa_offset 40
	.cfi_offset 6, -40
	pushq	%rbx
	.cfi_def_cfa_offset 48
	.cfi_offset 3, -48
	movl	%esi, %ebx
	subq	$32, %rsp
	.cfi_def_cfa_offset 80
	.loc 1 589 1 view .LVU258
	movq	%fs:40, %rax
	movq	%rax, 24(%rsp)
	xorl	%eax, %eax
	.loc 1 590 3 is_stmt 1 view .LVU259
	.loc 1 591 3 view .LVU260
	.loc 1 592 3 view .LVU261
	.loc 1 594 3 view .LVU262
	.loc 1 594 6 is_stmt 0 view .LVU263
	testq	%rdi, %rdi
	je	.L94
.LVL122:
.LBB211:
.LBI211:
	.loc 1 588 1 is_stmt 1 view .LVU264
.LBB212:
	.loc 1 605 3 view .LVU265
	.loc 1 605 21 is_stmt 0 view .LVU266
	call	xstrdup@PLT
.LVL123:
	.loc 1 607 13 view .LVU267
	leaq	.LC5(%rip), %rsi
	movq	%rax, %rdi
	.loc 1 605 21 view .LVU268
	movq	%rax, %r13
.LVL124:
	.loc 1 607 3 is_stmt 1 view .LVU269
	.loc 1 607 13 is_stmt 0 view .LVU270
	call	strtok@PLT
.LVL125:
	.loc 1 607 13 view .LVU271
	movq	%rax, %r14
.LVL126:
	.loc 1 608 3 is_stmt 1 view .LVU272
	.loc 1 608 9 view .LVU273
	testq	%rax, %rax
	je	.L78
	cmpb	$1, %bl
	movq	%rsp, %rbp
.LBB213:
	.loc 1 619 17 is_stmt 0 view .LVU274
	leaq	.LC5(%rip), %r12
	sbbl	%ebx, %ebx
.LVL127:
	.loc 1 619 17 view .LVU275
	andl	$2, %ebx
	addl	$1, %ebx
	jmp	.L82
.LVL128:
	.p2align 4,,10
	.p2align 3
.L79:
	.loc 1 614 7 is_stmt 1 view .LVU276
	.loc 1 614 10 is_stmt 0 view .LVU277
	jle	.L80
	.loc 1 617 7 is_stmt 1 view .LVU278
	.loc 1 617 23 is_stmt 0 view .LVU279
	movq	signals(%rip), %rdx
	.loc 1 617 14 view .LVU280
	cltq
	.loc 1 619 17 view .LVU281
	movq	%r12, %rsi
	xorl	%edi, %edi
	.loc 1 617 23 view .LVU282
	movl	%ebx, (%rdx,%rax,4)
	.loc 1 619 7 is_stmt 1 view .LVU283
	.loc 1 619 17 is_stmt 0 view .LVU284
	call	strtok@PLT
.LVL129:
	.loc 1 619 17 view .LVU285
	movq	%rax, %r14
.LVL130:
	.loc 1 619 17 view .LVU286
.LBE213:
	.loc 1 608 9 is_stmt 1 view .LVU287
	testq	%rax, %rax
	je	.L78
.L82:
.LBB214:
	.loc 1 610 7 view .LVU288
	.loc 1 610 20 is_stmt 0 view .LVU289
	movq	%rbp, %rsi
	movq	%r14, %rdi
	call	operand2sig@PLT
.LVL131:
	.loc 1 612 7 is_stmt 1 view .LVU290
	.loc 1 612 10 is_stmt 0 view .LVU291
	testl	%eax, %eax
	jne	.L79
	.loc 1 613 9 is_stmt 1 view .LVU292
	movq	%r14, %rdi
	call	quote@PLT
.LVL132:
	.loc 1 613 22 is_stmt 0 view .LVU293
	movl	$5, %edx
	leaq	.LC42(%rip), %rsi
	xorl	%edi, %edi
	.loc 1 613 9 view .LVU294
	movq	%rax, %r12
	.loc 1 613 22 view .LVU295
	call	dcgettext@PLT
.LVL133:
	.loc 1 613 9 view .LVU296
	movq	%r12, %rcx
	xorl	%esi, %esi
	xorl	%edi, %edi
	.loc 1 613 22 view .LVU297
	movq	%rax, %rdx
	.loc 1 613 9 view .LVU298
	xorl	%eax, %eax
	call	error@PLT
.LVL134:
	.loc 1 614 7 is_stmt 1 view .LVU299
.L80:
	.loc 1 615 9 view .LVU300
	movl	exit_failure(%rip), %edi
	call	usage
.LVL135:
	.p2align 4,,10
	.p2align 3
.L78:
	.loc 1 615 9 is_stmt 0 view .LVU301
.LBE214:
	.loc 1 622 3 is_stmt 1 view .LVU302
	movq	24(%rsp), %rax
	xorq	%fs:40, %rax
.LVL136:
	.loc 1 622 3 is_stmt 0 view .LVU303
	jne	.L93
.LBE212:
.LBE211:
	.loc 1 623 1 view .LVU304
	addq	$32, %rsp
	.cfi_remember_state
	.cfi_def_cfa_offset 48
.LBB217:
.LBB215:
	.loc 1 622 3 view .LVU305
	movq	%r13, %rdi
.LBE215:
.LBE217:
	.loc 1 623 1 view .LVU306
	popq	%rbx
	.cfi_def_cfa_offset 40
	popq	%rbp
	.cfi_def_cfa_offset 32
	popq	%r12
	.cfi_def_cfa_offset 24
	popq	%r13
	.cfi_def_cfa_offset 16
.LVL137:
	.loc 1 623 1 view .LVU307
	popq	%r14
	.cfi_def_cfa_offset 8
.LVL138:
.LBB218:
.LBB216:
	.loc 1 622 3 view .LVU308
	jmp	free@PLT
.LVL139:
	.p2align 4,,10
	.p2align 3
.L94:
	.cfi_restore_state
	.loc 1 622 3 view .LVU309
	cmpb	$1, %sil
	movq	%rsp, %rbp
	sbbl	%r12d, %r12d
.LBE216:
.LBE218:
	.loc 1 594 6 view .LVU310
	xorl	%ebx, %ebx
	andl	$2, %r12d
	addl	$2, %r12d
.LVL140:
	.p2align 4,,10
	.p2align 3
.L76:
.LBB219:
	.loc 1 600 9 is_stmt 1 view .LVU311
	.loc 1 600 13 is_stmt 0 view .LVU312
	leal	1(%rbx), %edi
	movq	%rbp, %rsi
	addq	$1, %rbx
	call	sig2str@PLT
.LVL141:
	.loc 1 600 12 view .LVU313
	testl	%eax, %eax
	jne	.L75
	.loc 1 601 11 is_stmt 1 discriminator 4 view .LVU314
	.loc 1 601 22 is_stmt 0 discriminator 4 view .LVU315
	movq	signals(%rip), %rax
	movl	%r12d, (%rax,%rbx,4)
.L75:
	.loc 1 599 43 is_stmt 1 discriminator 2 view .LVU316
	.loc 1 599 24 discriminator 2 view .LVU317
.LVL142:
	.loc 1 599 7 is_stmt 0 discriminator 2 view .LVU318
	cmpq	$64, %rbx
	jne	.L76
.LBE219:
	.loc 1 623 1 view .LVU319
	movq	24(%rsp), %rax
	xorq	%fs:40, %rax
	jne	.L93
	addq	$32, %rsp
	.cfi_remember_state
	.cfi_def_cfa_offset 48
	popq	%rbx
	.cfi_def_cfa_offset 40
.LVL143:
	.loc 1 623 1 view .LVU320
	popq	%rbp
	.cfi_def_cfa_offset 32
	popq	%r12
	.cfi_def_cfa_offset 24
	popq	%r13
	.cfi_def_cfa_offset 16
	popq	%r14
	.cfi_def_cfa_offset 8
	ret
.L93:
	.cfi_restore_state
	.loc 1 623 1 view .LVU321
	call	__stack_chk_fail@PLT
.LVL144:
	.cfi_endproc
.LFE160:
	.size	parse_signal_action_params, .-parse_signal_action_params
	.p2align 4
	.type	parse_block_signal_params, @function
parse_block_signal_params:
.LVL145:
.LFB162:
	.loc 1 671 1 is_stmt 1 view -0
	.cfi_startproc
	.loc 1 671 1 is_stmt 0 view .LVU323
	pushq	%r15
	.cfi_def_cfa_offset 16
	.cfi_offset 15, -16
	pushq	%r14
	.cfi_def_cfa_offset 24
	.cfi_offset 14, -24
	pushq	%r13
	.cfi_def_cfa_offset 32
	.cfi_offset 13, -32
	pushq	%r12
	.cfi_def_cfa_offset 40
	.cfi_offset 12, -40
	pushq	%rbp
	.cfi_def_cfa_offset 48
	.cfi_offset 6, -48
	pushq	%rbx
	.cfi_def_cfa_offset 56
	.cfi_offset 3, -56
	movl	%esi, %ebx
	subq	$56, %rsp
	.cfi_def_cfa_offset 112
	.loc 1 671 1 view .LVU324
	movq	%fs:40, %rax
	movq	%rax, 40(%rsp)
	xorl	%eax, %eax
	.loc 1 672 3 is_stmt 1 view .LVU325
	.loc 1 673 3 view .LVU326
	.loc 1 674 3 view .LVU327
	.loc 1 676 3 view .LVU328
	.loc 1 676 6 is_stmt 0 view .LVU329
	testq	%rdi, %rdi
	je	.L118
	.loc 1 682 11 view .LVU330
	cmpb	$0, sig_mask_changed(%rip)
	movq	%rdi, %rbp
	movl	%esi, %r12d
	.loc 1 682 8 is_stmt 1 view .LVU331
	.loc 1 682 11 is_stmt 0 view .LVU332
	je	.L119
.LVL146:
.L100:
	.loc 1 689 3 is_stmt 1 view .LVU333
.LBB223:
.LBB224:
	.loc 1 694 21 is_stmt 0 view .LVU334
	movq	%rbp, %rdi
.LBE224:
.LBE223:
	.loc 1 689 20 view .LVU335
	movb	$1, sig_mask_changed(%rip)
	.loc 1 691 3 is_stmt 1 view .LVU336
.LVL147:
.LBB229:
.LBI223:
	.loc 1 670 1 view .LVU337
.LBB227:
	.loc 1 694 3 view .LVU338
	.loc 1 694 21 is_stmt 0 view .LVU339
	call	xstrdup@PLT
.LVL148:
	.loc 1 696 13 view .LVU340
	leaq	.LC5(%rip), %rsi
	movq	%rax, %rdi
	.loc 1 694 21 view .LVU341
	movq	%rax, 8(%rsp)
.LVL149:
	.loc 1 696 3 is_stmt 1 view .LVU342
	.loc 1 696 13 is_stmt 0 view .LVU343
	call	strtok@PLT
.LVL150:
	.loc 1 696 13 view .LVU344
	movq	%rax, %r15
.LVL151:
	.loc 1 697 3 is_stmt 1 view .LVU345
	.loc 1 697 9 view .LVU346
	testq	%rax, %rax
	je	.L110
	testb	%bl, %bl
	leaq	unblock_signals(%rip), %r14
	leaq	block_signals(%rip), %rbx
.LVL152:
	.loc 1 697 9 is_stmt 0 view .LVU347
	cmovne	%r14, %rbx
	leaq	16(%rsp), %r13
	jmp	.L106
.LVL153:
	.p2align 4,,10
	.p2align 3
.L104:
.LBB225:
	.loc 1 706 7 view .LVU348
	movl	%eax, %esi
	leaq	block_signals(%rip), %rdi
	call	sigaddset@PLT
.LVL154:
	.loc 1 707 7 is_stmt 1 view .LVU349
.L108:
	.loc 1 707 7 is_stmt 0 view .LVU350
	movl	%ebp, %esi
	movq	%rbx, %rdi
	call	sigdelset@PLT
.LVL155:
	.loc 1 709 7 is_stmt 1 view .LVU351
	.loc 1 709 17 is_stmt 0 view .LVU352
	leaq	.LC5(%rip), %rsi
	xorl	%edi, %edi
	call	strtok@PLT
.LVL156:
	movq	%rax, %r15
.LVL157:
	.loc 1 709 17 view .LVU353
.LBE225:
	.loc 1 697 9 is_stmt 1 view .LVU354
	testq	%rax, %rax
	je	.L110
.LVL158:
.L106:
.LBB226:
	.loc 1 699 7 view .LVU355
	.loc 1 699 20 is_stmt 0 view .LVU356
	movq	%r13, %rsi
	movq	%r15, %rdi
	call	operand2sig@PLT
.LVL159:
	.loc 1 699 20 view .LVU357
	movl	%eax, %ebp
.LVL160:
	.loc 1 701 7 is_stmt 1 view .LVU358
	.loc 1 701 10 is_stmt 0 view .LVU359
	testl	%eax, %eax
	je	.L120
	.loc 1 703 7 is_stmt 1 view .LVU360
	.loc 1 703 10 is_stmt 0 view .LVU361
	jle	.L102
	.loc 1 706 7 is_stmt 1 view .LVU362
	testb	%r12b, %r12b
	jne	.L104
	movl	%eax, %esi
	movq	%r14, %rdi
	call	sigaddset@PLT
.LVL161:
	.loc 1 707 7 view .LVU363
	jmp	.L108
.LVL162:
	.p2align 4,,10
	.p2align 3
.L120:
	.loc 1 702 9 view .LVU364
	movq	%r15, %rdi
	call	quote@PLT
.LVL163:
	.loc 1 702 22 is_stmt 0 view .LVU365
	movl	$5, %edx
	leaq	.LC42(%rip), %rsi
	xorl	%edi, %edi
	.loc 1 702 9 view .LVU366
	movq	%rax, %r12
.LVL164:
	.loc 1 702 22 view .LVU367
	call	dcgettext@PLT
.LVL165:
	.loc 1 702 9 view .LVU368
	movq	%r12, %rcx
	xorl	%esi, %esi
	xorl	%edi, %edi
	.loc 1 702 22 view .LVU369
	movq	%rax, %rdx
	.loc 1 702 9 view .LVU370
	xorl	%eax, %eax
	call	error@PLT
.LVL166:
	.loc 1 703 7 is_stmt 1 view .LVU371
.L102:
	.loc 1 704 9 view .LVU372
	movl	exit_failure(%rip), %edi
	call	usage
.LVL167:
	.p2align 4,,10
	.p2align 3
.L110:
	.loc 1 704 9 is_stmt 0 view .LVU373
.LBE226:
	.loc 1 712 3 is_stmt 1 view .LVU374
	movq	40(%rsp), %rax
	xorq	%fs:40, %rax
.LVL168:
	.loc 1 712 3 is_stmt 0 view .LVU375
	jne	.L115
	movq	8(%rsp), %rdi
.LBE227:
.LBE229:
	.loc 1 713 1 view .LVU376
	addq	$56, %rsp
	.cfi_remember_state
	.cfi_def_cfa_offset 56
	popq	%rbx
	.cfi_def_cfa_offset 48
	popq	%rbp
	.cfi_def_cfa_offset 40
	popq	%r12
	.cfi_def_cfa_offset 32
.LVL169:
	.loc 1 713 1 view .LVU377
	popq	%r13
	.cfi_def_cfa_offset 24
	popq	%r14
	.cfi_def_cfa_offset 16
	popq	%r15
	.cfi_def_cfa_offset 8
.LVL170:
.LBB230:
.LBB228:
	.loc 1 712 3 view .LVU378
	jmp	free@PLT
.LVL171:
	.p2align 4,,10
	.p2align 3
.L119:
	.cfi_restore_state
	.loc 1 712 3 view .LVU379
.LBE228:
.LBE230:
	.loc 1 685 7 is_stmt 1 view .LVU380
	leaq	block_signals(%rip), %rdi
.LVL172:
	.loc 1 685 7 is_stmt 0 view .LVU381
	call	sigemptyset@PLT
.LVL173:
	.loc 1 686 7 is_stmt 1 view .LVU382
	leaq	unblock_signals(%rip), %rdi
	call	sigemptyset@PLT
.LVL174:
	jmp	.L100
.LVL175:
	.p2align 4,,10
	.p2align 3
.L118:
	.loc 1 679 7 view .LVU383
	testb	%sil, %sil
	jne	.L97
	leaq	unblock_signals(%rip), %rdi
.LVL176:
	.loc 1 679 7 is_stmt 0 view .LVU384
	call	sigfillset@PLT
.LVL177:
	.loc 1 680 7 is_stmt 1 view .LVU385
	leaq	block_signals(%rip), %rdi
.L111:
	.loc 1 680 7 is_stmt 0 discriminator 4 view .LVU386
	call	sigemptyset@PLT
.LVL178:
	.loc 1 689 3 is_stmt 1 discriminator 4 view .LVU387
	.loc 1 689 20 is_stmt 0 discriminator 4 view .LVU388
	movb	$1, sig_mask_changed(%rip)
	.loc 1 691 3 is_stmt 1 discriminator 4 view .LVU389
	.loc 1 713 1 is_stmt 0 discriminator 4 view .LVU390
	movq	40(%rsp), %rax
	xorq	%fs:40, %rax
	jne	.L115
	.loc 1 713 1 view .LVU391
	addq	$56, %rsp
	.cfi_remember_state
	.cfi_def_cfa_offset 56
	popq	%rbx
	.cfi_def_cfa_offset 48
	popq	%rbp
	.cfi_def_cfa_offset 40
	popq	%r12
	.cfi_def_cfa_offset 32
	popq	%r13
	.cfi_def_cfa_offset 24
	popq	%r14
	.cfi_def_cfa_offset 16
	popq	%r15
	.cfi_def_cfa_offset 8
	ret
.LVL179:
	.p2align 4,,10
	.p2align 3
.L97:
	.cfi_restore_state
	.loc 1 679 7 view .LVU392
	leaq	block_signals(%rip), %rdi
.LVL180:
	.loc 1 679 7 view .LVU393
	call	sigfillset@PLT
.LVL181:
	.loc 1 680 7 is_stmt 1 view .LVU394
	leaq	unblock_signals(%rip), %rdi
	jmp	.L111
.L115:
	.loc 1 713 1 is_stmt 0 view .LVU395
	call	__stack_chk_fail@PLT
.LVL182:
	.cfi_endproc
.LFE162:
	.size	parse_block_signal_params, .-parse_block_signal_params
	.section	.rodata.str1.1
.LC43:
	.string	" (failure ignored)"
.LC44:
	.string	"DEFAULT"
.LC45:
	.string	"UNBLOCK"
.LC46:
	.string	"/usr/local/share/locale"
.LC47:
	.string	"!(sq && dq)"
	.section	.rodata.str1.8
	.align 8
.LC48:
	.string	"'\\c' must not appear in double-quoted -S string"
	.align 8
.LC49:
	.string	"invalid backslash at end of string in -S"
	.align 8
.LC50:
	.string	"only ${VARNAME} expansion is supported, error at: %s"
	.align 8
.LC51:
	.string	"no terminating quote in -S string"
	.section	.rodata.str1.1
.LC52:
	.string	" \t"
.LC53:
	.string	"0"
.LC54:
	.string	"n"
.LC55:
	.string	"expanding ${%s} into %s\n"
	.section	.rodata.str1.8
	.align 8
.LC56:
	.string	"replacing ${%s} with null string\n"
	.section	.rodata.str1.1
.LC57:
	.string	"split -S:  %s\n"
.LC58:
	.string	" into:    %s\n"
.LC59:
	.string	"     &    %s\n"
.LC60:
	.string	"invalid option -- '%c'"
	.section	.rodata.str1.8
	.align 8
.LC61:
	.string	"use -[v]S to pass options in shebang lines"
	.section	.rodata.str1.1
.LC62:
	.string	"David MacKenzie"
.LC63:
	.string	"Richard Mlynarik"
.LC64:
	.string	"Assaf Gordon"
.LC65:
	.string	"-"
.LC66:
	.string	"cleaning environ\n"
.LC67:
	.string	"unset:    %s\n"
.LC68:
	.string	"cannot unset %s"
.LC69:
	.string	"setenv:   %s\n"
.LC70:
	.string	"cannot set %s"
	.section	.rodata.str1.8
	.align 8
.LC71:
	.string	"cannot specify --null (-0) with command"
	.align 8
.LC72:
	.string	"must specify command with --chdir (-C)"
	.section	.rodata.str1.1
.LC73:
	.string	"%s%c"
	.section	.rodata.str1.8
	.align 8
.LC74:
	.string	"failed to get signal action for signal %d"
	.align 8
.LC75:
	.string	"failed to set signal action for signal %d"
	.section	.rodata.str1.1
.LC76:
	.string	"Reset signal %s (%d) to %s%s\n"
	.section	.rodata.str1.8
	.align 8
.LC77:
	.string	"signal %s (%d) mask set to %s\n"
	.align 8
.LC78:
	.string	"failed to set signal process mask"
	.section	.rodata.str1.1
.LC79:
	.string	"chdir:    %s\n"
.LC80:
	.string	"cannot change directory to %s"
.LC81:
	.string	"executing: %s\n"
.LC82:
	.string	"   arg[%d]= %s\n"
.LC83:
	.string	"invalid sequence '\\%c' in -S"
.LC84:
	.string	"%s"
	.section	.text.startup,"ax",@progbits
	.p2align 4
	.globl	main
	.type	main, @function
main:
.LVL183:
.LFB166:
	.loc 1 799 1 is_stmt 1 view -0
	.cfi_startproc
	.loc 1 799 1 is_stmt 0 view .LVU397
	endbr64
	pushq	%r15
	.cfi_def_cfa_offset 16
	.cfi_offset 15, -16
	pushq	%r14
	.cfi_def_cfa_offset 24
	.cfi_offset 14, -24
	pushq	%r13
	.cfi_def_cfa_offset 32
	.cfi_offset 13, -32
	pushq	%r12
	.cfi_def_cfa_offset 40
	.cfi_offset 12, -40
	pushq	%rbp
	.cfi_def_cfa_offset 48
	.cfi_offset 6, -48
	pushq	%rbx
	.cfi_def_cfa_offset 56
	.cfi_offset 3, -56
	subq	$280, %rsp
	.cfi_def_cfa_offset 336
	.loc 1 799 1 view .LVU398
	movl	%edi, 56(%rsp)
	.loc 1 806 3 view .LVU399
	movq	(%rsi), %rdi
.LVL184:
	.loc 1 799 1 view .LVU400
	movq	%rsi, 8(%rsp)
	movq	%fs:40, %rbx
	movq	%rbx, 264(%rsp)
	xorl	%ebx, %ebx
	.loc 1 800 3 is_stmt 1 view .LVU401
	.loc 1 801 3 view .LVU402
.LVL185:
	.loc 1 802 3 view .LVU403
	.loc 1 803 3 view .LVU404
	.loc 1 805 33 view .LVU405
	.loc 1 806 3 view .LVU406
	call	set_program_name@PLT
.LVL186:
	.loc 1 807 3 view .LVU407
	leaq	.LC2(%rip), %rsi
	movl	$6, %edi
	call	setlocale@PLT
.LVL187:
	.loc 1 808 3 view .LVU408
	leaq	.LC46(%rip), %rsi
	leaq	.LC28(%rip), %rdi
	call	bindtextdomain@PLT
.LVL188:
	.loc 1 809 3 view .LVU409
	leaq	.LC28(%rip), %rdi
	call	textdomain@PLT
.LVL189:
	.loc 1 811 3 view .LVU410
.LBB313:
.LBI313:
	.loc 5 99 1 view .LVU411
.LBB314:
	.loc 5 101 3 view .LVU412
	.loc 5 102 5 view .LVU413
.LBE314:
.LBE313:
	.loc 1 812 3 is_stmt 0 view .LVU414
	movq	close_stdout@GOTPCREL(%rip), %rdi
.LBB316:
.LBB315:
	.loc 5 102 18 view .LVU415
	movl	$125, exit_failure(%rip)
.LVL190:
	.loc 5 102 18 view .LVU416
.LBE315:
.LBE316:
	.loc 1 812 3 is_stmt 1 view .LVU417
	call	atexit@PLT
.LVL191:
	.loc 1 814 3 view .LVU418
.LBB317:
.LBI317:
	.loc 1 787 1 view .LVU419
.LBB318:
	.loc 1 789 3 view .LVU420
	.loc 1 789 13 is_stmt 0 view .LVU421
	movl	$260, %edi
	call	xmalloc@PLT
.LVL192:
	.loc 1 789 11 view .LVU422
	movq	%rax, signals(%rip)
	.loc 1 791 3 is_stmt 1 view .LVU423
.LBB319:
	.loc 1 791 8 view .LVU424
.LVL193:
	.loc 1 791 20 view .LVU425
	leaq	260(%rax), %rdx
.LVL194:
	.p2align 4,,10
	.p2align 3
.L122:
	.loc 1 792 5 view .LVU426
	.loc 1 792 16 is_stmt 0 view .LVU427
	movl	$0, (%rax)
	.loc 1 791 39 is_stmt 1 view .LVU428
	.loc 1 791 20 view .LVU429
	addq	$4, %rax
	.loc 1 791 3 is_stmt 0 view .LVU430
	cmpq	%rax, %rdx
	jne	.L122
.LBE319:
.LBE318:
.LBE317:
	.loc 1 803 15 view .LVU431
	movq	$0, 24(%rsp)
	.loc 1 802 8 view .LVU432
	movb	$0, 62(%rsp)
	.loc 1 801 8 view .LVU433
	movb	$0, 16(%rsp)
.LVL195:
.L123:
	.loc 1 816 9 is_stmt 1 view .LVU434
	.loc 1 816 18 is_stmt 0 view .LVU435
	movq	8(%rsp), %rsi
	movl	56(%rsp), %edi
	xorl	%r8d, %r8d
	leaq	longopts(%rip), %rcx
	leaq	shortopts(%rip), %rdx
	call	getopt_long@PLT
.LVL196:
	movl	%eax, %ecx
.LVL197:
	.loc 1 816 9 view .LVU436
	cmpl	$-1, %eax
	je	.L413
	.loc 1 818 7 is_stmt 1 view .LVU437
	cmpl	$131, %ecx
	jg	.L411
	cmpl	$66, %ecx
	jle	.L414
	subl	$67, %ecx
	cmpl	$64, %ecx
	ja	.L411
	leaq	.L131(%rip), %rsi
	movslq	(%rsi,%rcx,4), %rax
.LVL198:
	.loc 1 818 7 is_stmt 0 view .LVU438
	addq	%rsi, %rax
	notrack jmp	*%rax
	.section	.rodata
	.align 4
	.align 4
.L131:
	.long	.L139-.L131
	.long	.L411-.L131
	.long	.L411-.L131
	.long	.L411-.L131
	.long	.L411-.L131
	.long	.L411-.L131
	.long	.L411-.L131
	.long	.L411-.L131
	.long	.L411-.L131
	.long	.L411-.L131
	.long	.L411-.L131
	.long	.L411-.L131
	.long	.L411-.L131
	.long	.L411-.L131
	.long	.L411-.L131
	.long	.L411-.L131
	.long	.L138-.L131
	.long	.L411-.L131
	.long	.L411-.L131
	.long	.L411-.L131
	.long	.L411-.L131
	.long	.L411-.L131
	.long	.L411-.L131
	.long	.L411-.L131
	.long	.L411-.L131
	.long	.L411-.L131
	.long	.L411-.L131
	.long	.L411-.L131
	.long	.L411-.L131
	.long	.L411-.L131
	.long	.L411-.L131
	.long	.L411-.L131
	.long	.L411-.L131
	.long	.L411-.L131
	.long	.L411-.L131
	.long	.L411-.L131
	.long	.L411-.L131
	.long	.L411-.L131
	.long	.L277-.L131
	.long	.L411-.L131
	.long	.L411-.L131
	.long	.L411-.L131
	.long	.L411-.L131
	.long	.L411-.L131
	.long	.L411-.L131
	.long	.L411-.L131
	.long	.L411-.L131
	.long	.L411-.L131
	.long	.L411-.L131
	.long	.L411-.L131
	.long	.L136-.L131
	.long	.L135-.L131
	.long	.L411-.L131
	.long	.L411-.L131
	.long	.L411-.L131
	.long	.L411-.L131
	.long	.L411-.L131
	.long	.L411-.L131
	.long	.L411-.L131
	.long	.L411-.L131
	.long	.L411-.L131
	.long	.L134-.L131
	.long	.L133-.L131
	.long	.L132-.L131
	.long	.L130-.L131
	.section	.text.startup
.L277:
	.loc 1 821 30 view .LVU439
	movb	$1, 16(%rsp)
.LVL199:
	.loc 1 821 30 view .LVU440
	jmp	.L123
.LVL200:
.L138:
	.loc 1 849 11 is_stmt 1 view .LVU441
.LBB320:
.LBB321:
	.loc 1 543 10 is_stmt 0 view .LVU442
	call	__ctype_b_loc@PLT
.LVL201:
.LBE321:
.LBE320:
	.loc 1 849 11 view .LVU443
	movq	optarg(%rip), %r13
.LVL202:
.LBB440:
.LBI320:
	.loc 1 536 1 is_stmt 1 view .LVU444
.LBB430:
	.loc 1 543 10 is_stmt 0 view .LVU445
	movq	(%rax), %r8
	movq	%rax, %r9
	jmp	.L147
	.p2align 4,,10
	.p2align 3
.L148:
	.loc 1 544 5 is_stmt 1 view .LVU446
	.loc 1 544 8 is_stmt 0 view .LVU447
	addq	$1, %r13
.LVL203:
.L147:
	.loc 1 543 9 is_stmt 1 view .LVU448
	.loc 1 543 10 is_stmt 0 view .LVU449
	movsbq	0(%r13), %rsi
	movq	%rsi, %rdx
	.loc 1 543 9 view .LVU450
	testb	$32, 1(%r8,%rsi,2)
	jne	.L148
	.loc 1 545 3 is_stmt 1 view .LVU451
	.loc 1 545 6 is_stmt 0 view .LVU452
	testb	%sil, %sil
	je	.L123
	.loc 1 548 3 is_stmt 1 view .LVU453
	.loc 1 548 13 is_stmt 0 view .LVU454
	movl	56(%rsp), %eax
	subl	optind(%rip), %eax
.LBB322:
.LBB323:
.LBB324:
.LBB325:
	.loc 1 283 12 view .LVU455
	orq	$-1, %rcx
	.loc 1 282 16 view .LVU456
	xorl	%ebx, %ebx
.LBE325:
.LBE324:
.LBE323:
.LBE322:
	.loc 1 548 13 view .LVU457
	movl	%eax, 40(%rsp)
.LVL204:
.LBB404:
.LBI322:
	.loc 1 373 1 is_stmt 1 view .LVU458
.LBB392:
	.loc 1 375 3 view .LVU459
	.loc 1 376 3 view .LVU460
	.loc 1 378 3 view .LVU461
	.loc 1 379 3 view .LVU462
	.loc 1 380 3 view .LVU463
	.loc 1 395 3 view .LVU464
	.loc 1 397 3 view .LVU465
.LBB349:
.LBI324:
	.loc 1 272 1 view .LVU466
.LBB343:
	.loc 1 275 3 view .LVU467
	.loc 1 276 3 view .LVU468
	.loc 1 277 3 view .LVU469
	.loc 1 278 3 view .LVU470
	.loc 1 280 3 view .LVU471
	.loc 1 282 3 view .LVU472
	.loc 1 283 3 view .LVU473
	.loc 1 283 12 is_stmt 0 view .LVU474
	movq	%r13, %rdi
	xorl	%eax, %eax
.LVL205:
	.loc 1 283 10 view .LVU475
	movq	%r13, %r12
	.loc 1 278 7 view .LVU476
	movl	$1, %ebp
	.loc 1 282 6 view .LVU477
	xorl	%r15d, %r15d
	movq	%r9, %r14
	.loc 1 283 12 view .LVU478
	repnz scasb
.LVL206:
	.loc 1 283 12 view .LVU479
	notq	%rcx
	movq	%rcx, 32(%rsp)
.LVL207:
	.loc 1 285 3 is_stmt 1 view .LVU480
	.loc 1 285 9 view .LVU481
	jmp	.L170
.LVL208:
	.p2align 4,,10
	.p2align 3
.L416:
.LBB326:
	.loc 1 289 33 is_stmt 0 view .LVU482
	movl	%eax, %ecx
	orb	%r15b, %cl
	jne	.L149
.LVL209:
	.loc 1 300 7 is_stmt 1 view .LVU483
	cmpb	$39, %dl
	je	.L289
	.loc 1 300 7 is_stmt 0 view .LVU484
	jg	.L260
	cmpb	$34, %dl
	je	.L290
	cmpb	$36, %dl
	jne	.L409
	movl	$1, %ebx
.LVL210:
.L262:
	.loc 1 335 11 is_stmt 1 view .LVU485
	.loc 1 335 23 is_stmt 0 view .LVU486
	movq	%r12, %rdi
.LVL211:
	.loc 1 335 23 view .LVU487
	call	extract_varname
.LVL212:
	.loc 1 335 23 view .LVU488
	movq	%rax, %rdi
.LVL213:
	.loc 1 335 14 view .LVU489
	testq	%rax, %rax
	je	.L415
	.loc 1 339 11 is_stmt 1 view .LVU490
	.loc 1 339 22 is_stmt 0 view .LVU491
	call	getenv@PLT
.LVL214:
	.loc 1 339 22 view .LVU492
	movq	%rax, %rdi
.LVL215:
	.loc 1 339 14 view .LVU493
	testq	%rax, %rax
	je	.L407
	.loc 1 340 13 is_stmt 1 view .LVU494
	.loc 1 340 23 is_stmt 0 view .LVU495
	call	strlen@PLT
.LVL216:
	.loc 1 340 20 view .LVU496
	addq	%rax, 32(%rsp)
.LVL217:
.L407:
	.loc 1 340 20 view .LVU497
	movzbl	1(%r12), %edi
	xorl	%eax, %eax
.LVL218:
	.p2align 4,,10
	.p2align 3
.L156:
	.loc 1 343 7 is_stmt 1 view .LVU498
	addq	$1, %r12
.LVL219:
	.loc 1 343 7 is_stmt 0 view .LVU499
.LBE326:
	.loc 1 285 9 is_stmt 1 view .LVU500
	testb	%dil, %dil
	je	.L169
.L422:
	.loc 1 285 9 is_stmt 0 view .LVU501
	movq	(%r14), %r8
.LVL220:
.L271:
	.loc 1 282 6 view .LVU502
	movsbq	%dil, %rsi
	movq	%rsi, %rdx
.LVL221:
.L170:
.LBB336:
	.loc 1 287 7 is_stmt 1 view .LVU503
	.loc 1 287 18 is_stmt 0 view .LVU504
	movzbl	1(%r12), %edi
.LVL222:
	.loc 1 289 7 is_stmt 1 view .LVU505
	.loc 1 289 10 is_stmt 0 view .LVU506
	testb	$32, 1(%r8,%rsi,2)
	jne	.L416
.L149:
	.loc 1 295 11 is_stmt 1 view .LVU507
	.loc 1 296 13 is_stmt 0 view .LVU508
	cmpb	$1, %bl
	sbbl	$-1, %ebp
.LVL223:
	.loc 1 300 7 is_stmt 1 view .LVU509
	cmpb	$39, %dl
	je	.L152
	jg	.L153
	cmpb	$34, %dl
	je	.L154
	cmpb	$36, %dl
	jne	.L408
	.loc 1 332 11 view .LVU510
	.loc 1 332 14 is_stmt 0 view .LVU511
	testb	%al, %al
	je	.L417
.LVL224:
	.loc 1 343 7 is_stmt 1 view .LVU512
	addq	$1, %r12
.LVL225:
	.loc 1 343 7 is_stmt 0 view .LVU513
.LBE336:
	.loc 1 285 9 is_stmt 1 view .LVU514
	testb	%dil, %dil
	je	.L272
	xorl	%ebx, %ebx
	jmp	.L271
.LVL226:
.L139:
	.loc 1 285 9 is_stmt 0 view .LVU515
.LBE343:
.LBE349:
.LBE392:
.LBE404:
.LBE430:
.LBE440:
	.loc 1 846 11 is_stmt 1 view .LVU516
	.loc 1 846 18 is_stmt 0 view .LVU517
	movq	optarg(%rip), %rax
	movq	%rax, 24(%rsp)
.LVL227:
	.loc 1 847 11 is_stmt 1 view .LVU518
	jmp	.L123
.LVL228:
.L133:
	.loc 1 837 11 view .LVU519
	movq	optarg(%rip), %rdi
	xorl	%esi, %esi
	call	parse_signal_action_params
.LVL229:
	.loc 1 838 11 view .LVU520
	jmp	.L123
.L134:
	.loc 1 833 11 view .LVU521
	movq	optarg(%rip), %rdi
	movl	$1, %esi
	call	parse_signal_action_params
.LVL230:
	.loc 1 834 11 view .LVU522
	movq	optarg(%rip), %rdi
	xorl	%esi, %esi
	call	parse_block_signal_params
.LVL231:
	.loc 1 835 11 view .LVU523
	jmp	.L123
.L135:
	.loc 1 827 11 view .LVU524
	.loc 1 827 21 is_stmt 0 view .LVU525
	movb	$1, dev_debug(%rip)
	.loc 1 828 11 is_stmt 1 view .LVU526
	jmp	.L123
.L136:
	.loc 1 824 11 view .LVU527
.LBB441:
.LBB442:
	.loc 1 168 19 is_stmt 0 view .LVU528
	movq	usvars_alloc(%rip), %rsi
	.loc 1 168 6 view .LVU529
	cmpq	%rsi, usvars_used(%rip)
.LBE442:
.LBE441:
	.loc 1 824 11 view .LVU530
	movq	optarg(%rip), %rbx
.LVL232:
.LBB454:
.LBI441:
	.loc 1 166 1 is_stmt 1 view .LVU531
.LBB450:
	.loc 1 168 3 view .LVU532
	.loc 1 168 6 is_stmt 0 view .LVU533
	je	.L418
.L140:
	.loc 1 170 3 is_stmt 1 view .LVU534
	.loc 1 170 21 is_stmt 0 view .LVU535
	movq	usvars_used(%rip), %rax
	leaq	1(%rax), %rdx
	movq	%rdx, usvars_used(%rip)
	.loc 1 170 25 view .LVU536
	movq	usvars(%rip), %rdx
	movq	%rbx, (%rdx,%rax,8)
	.loc 1 171 1 view .LVU537
	jmp	.L123
.LVL233:
.L130:
	.loc 1 171 1 view .LVU538
.LBE450:
.LBE454:
	.loc 1 843 11 is_stmt 1 view .LVU539
	.loc 1 843 34 is_stmt 0 view .LVU540
	movb	$1, report_signal_handling(%rip)
	.loc 1 844 11 is_stmt 1 view .LVU541
	jmp	.L123
.L132:
	.loc 1 840 11 view .LVU542
	movq	optarg(%rip), %rdi
	movl	$1, %esi
	call	parse_block_signal_params
.LVL234:
	.loc 1 841 11 view .LVU543
	jmp	.L123
.LVL235:
	.p2align 4,,10
	.p2align 3
.L414:
	.loc 1 818 7 is_stmt 0 view .LVU544
	cmpl	$9, %ecx
	je	.L126
	jg	.L127
	cmpl	$-131, %ecx
	jne	.L419
	.loc 1 861 9 is_stmt 1 view .LVU545
	.loc 1 861 30 view .LVU546
	.loc 1 862 9 view .LVU547
	leaq	.LC64(%rip), %rax
.LVL236:
	.loc 1 862 9 is_stmt 0 view .LVU548
	pushq	$0
	.cfi_remember_state
	.cfi_def_cfa_offset 344
	movq	stdout(%rip), %rdi
	leaq	.LC62(%rip), %r9
	pushq	%rax
	.cfi_def_cfa_offset 352
	movq	Version(%rip), %rcx
.LVL237:
	.loc 1 862 9 view .LVU549
	xorl	%eax, %eax
	leaq	.LC63(%rip), %r8
	leaq	.LC37(%rip), %rdx
	leaq	.LC8(%rip), %rsi
	call	version_etc@PLT
.LVL238:
	.loc 1 862 9 is_stmt 1 view .LVU550
	xorl	%edi, %edi
	call	exit@PLT
.LVL239:
	.p2align 4,,10
	.p2align 3
.L127:
	.cfi_restore_state
	.loc 1 818 7 is_stmt 0 view .LVU551
	cmpl	$32, %ecx
	je	.L126
	cmpl	$48, %ecx
	jne	.L411
	movb	$1, 62(%rsp)
.LVL240:
	.loc 1 818 7 view .LVU552
	jmp	.L123
.LVL241:
.L419:
	.loc 1 818 7 view .LVU553
	cmpl	$-130, %ecx
	jne	.L411
	.loc 1 861 9 is_stmt 1 view .LVU554
	xorl	%edi, %edi
	call	usage
.LVL242:
	.p2align 4,,10
	.p2align 3
.L153:
.LBB455:
.LBB431:
.LBB405:
.LBB393:
.LBB350:
.LBB344:
.LBB337:
	.loc 1 300 7 is_stmt 0 view .LVU555
	cmpb	$92, %dl
	jne	.L408
	.loc 1 313 11 is_stmt 1 view .LVU556
	.loc 1 313 26 is_stmt 0 view .LVU557
	cmpb	$99, %dil
	sete	%dl
	.loc 1 313 14 view .LVU558
	movl	%edx, %ebx
	andb	%r15b, %bl
	jne	.L420
.LVL243:
	.p2align 4,,10
	.p2align 3
.L160:
	.loc 1 317 11 is_stmt 1 view .LVU559
	.loc 1 317 14 is_stmt 0 view .LVU560
	testb	%dil, %dil
	je	.L421
	.loc 1 321 11 is_stmt 1 view .LVU561
.LVL244:
.LBB327:
.LBI327:
	.loc 1 192 1 view .LVU562
.LBB328:
	.loc 1 194 3 view .LVU563
	.loc 1 196 11 is_stmt 0 view .LVU564
	testb	%dl, %dl
	jne	.L162
	.loc 1 195 40 view .LVU565
	leal	-95(%rdi), %edx
	cmpb	$23, %dl
	ja	.L163
	.loc 1 195 47 view .LVU566
	movl	$11042945, %ecx
	btq	%rdx, %rcx
	jnc	.L399
.L165:
.LVL245:
	.loc 1 195 47 view .LVU567
.LBE328:
.LBE327:
	.loc 1 324 11 is_stmt 1 view .LVU568
	.loc 1 325 13 is_stmt 0 view .LVU569
	xorl	%edx, %edx
	cmpb	$95, %dil
	sete	%dl
	addl	%edx, %ebp
.LVL246:
.L162:
	.loc 1 327 11 is_stmt 1 view .LVU570
	.loc 1 328 11 view .LVU571
	movzbl	2(%r12), %edi
.LVL247:
	.loc 1 327 11 is_stmt 0 view .LVU572
	addq	$1, %r12
.LVL248:
	.loc 1 343 7 is_stmt 1 view .LVU573
	addq	$1, %r12
.LVL249:
	.loc 1 343 7 is_stmt 0 view .LVU574
.LBE337:
	.loc 1 285 9 is_stmt 1 view .LVU575
	testb	%dil, %dil
	jne	.L422
.LVL250:
.L169:
	.loc 1 346 3 view .LVU576
	.loc 1 346 6 is_stmt 0 view .LVU577
	orb	%al, %r15b
.LVL251:
	.loc 1 346 6 view .LVU578
	jne	.L272
	.loc 1 349 3 is_stmt 1 view .LVU579
.LVL252:
	.loc 1 350 3 view .LVU580
	.loc 1 350 3 is_stmt 0 view .LVU581
.LBE344:
.LBE350:
	.loc 1 400 3 is_stmt 1 view .LVU582
	.loc 1 400 10 is_stmt 0 view .LVU583
	movq	32(%rsp), %rdi
	addq	$7, %rdi
	call	xmalloc@PLT
.LVL253:
	movq	%rax, %r12
.LVL254:
	.loc 1 404 3 is_stmt 1 view .LVU584
	.loc 1 404 55 is_stmt 0 view .LVU585
	movl	40(%rsp), %eax
.LVL255:
	.loc 1 404 55 view .LVU586
	leal	2(%rax,%rbp), %edi
	movslq	%edi, %rdi
	.loc 1 404 24 view .LVU587
	salq	$3, %rdi
	call	xmalloc@PLT
.LVL256:
.LBB351:
.LBB352:
	.loc 3 90 10 view .LVU588
	movl	$1296913732, (%r12)
	movw	$89, 4(%r12)
.LBE352:
.LBE351:
	.loc 1 408 12 view .LVU589
	leaq	8(%rax), %r9
	.loc 1 408 15 view .LVU590
	movq	%r12, (%rax)
	.loc 1 409 8 view .LVU591
	addq	$6, %r12
.LVL257:
	.loc 1 404 24 view .LVU592
	movq	%rax, 32(%rsp)
.LVL258:
	.loc 1 407 3 is_stmt 1 view .LVU593
.LBB354:
.LBI351:
	.loc 3 88 1 view .LVU594
.LBB353:
	.loc 3 90 3 view .LVU595
	.loc 3 90 3 is_stmt 0 view .LVU596
.LBE353:
.LBE354:
	.loc 1 408 3 is_stmt 1 view .LVU597
	.loc 1 409 3 view .LVU598
	.loc 1 414 3 view .LVU599
	.loc 1 414 9 view .LVU600
	.loc 1 414 10 is_stmt 0 view .LVU601
	movzbl	0(%r13), %eax
.LVL259:
	.loc 1 414 9 view .LVU602
	testb	%al, %al
	je	.L280
	.loc 1 414 9 view .LVU603
	movq	%r9, 72(%rsp)
	.loc 1 375 8 view .LVU604
	xorl	%edi, %edi
	.loc 1 414 9 view .LVU605
	movq	%r13, %rbp
.LVL260:
	.loc 1 408 12 view .LVU606
	movq	%r9, %r15
	movq	%r13, 64(%rsp)
	.loc 1 375 20 view .LVU607
	xorl	%r10d, %r10d
	.loc 1 375 32 view .LVU608
	movl	$1, %r8d
	leaq	.L192(%rip), %r14
	leaq	.L176(%rip), %rbx
	movl	%edi, %r13d
.LVL261:
	.p2align 4,,10
	.p2align 3
.L201:
.LBB355:
	.loc 1 416 7 is_stmt 1 view .LVU609
	.loc 1 418 7 view .LVU610
	cmpb	$39, %al
	jg	.L173
	.loc 1 418 7 is_stmt 0 view .LVU611
	cmpb	$8, %al
	jle	.L323
	leal	-9(%rax), %edx
	cmpb	$30, %dl
	ja	.L323
	movzbl	%dl, %edx
	movslq	(%rbx,%rdx,4), %rdx
	addq	%rbx, %rdx
	notrack jmp	*%rdx
	.section	.rodata
	.align 4
	.align 4
.L176:
	.long	.L180-.L176
	.long	.L323-.L176
	.long	.L323-.L176
	.long	.L323-.L176
	.long	.L323-.L176
	.long	.L323-.L176
	.long	.L323-.L176
	.long	.L323-.L176
	.long	.L323-.L176
	.long	.L323-.L176
	.long	.L323-.L176
	.long	.L323-.L176
	.long	.L323-.L176
	.long	.L323-.L176
	.long	.L323-.L176
	.long	.L323-.L176
	.long	.L323-.L176
	.long	.L323-.L176
	.long	.L323-.L176
	.long	.L323-.L176
	.long	.L323-.L176
	.long	.L323-.L176
	.long	.L323-.L176
	.long	.L180-.L176
	.long	.L323-.L176
	.long	.L179-.L176
	.long	.L178-.L176
	.long	.L177-.L176
	.long	.L323-.L176
	.long	.L323-.L176
	.long	.L175-.L176
	.section	.text.startup
.LVL262:
	.p2align 4,,10
	.p2align 3
.L408:
	.loc 1 418 7 view .LVU612
.LBE355:
.LBB381:
.LBB345:
.LBB338:
	.loc 1 300 7 view .LVU613
	xorl	%ebx, %ebx
	jmp	.L156
.LVL263:
	.p2align 4,,10
	.p2align 3
.L260:
	.loc 1 300 7 view .LVU614
	cmpb	$92, %dl
	jne	.L409
	.loc 1 313 11 is_stmt 1 view .LVU615
	.loc 1 313 26 is_stmt 0 view .LVU616
	cmpb	$99, %dil
	movl	$1, %ebx
	sete	%dl
	jmp	.L160
.LVL264:
	.p2align 4,,10
	.p2align 3
.L152:
	.loc 1 303 11 is_stmt 1 view .LVU617
	movl	%eax, %ebx
	andb	%r15b, %bl
	jne	.L423
.LVL265:
.L158:
	.loc 1 304 11 view .LVU618
	.loc 1 304 20 is_stmt 0 view .LVU619
	orl	%r15d, %eax
.LVL266:
	.loc 1 304 20 view .LVU620
	xorl	$1, %eax
.LVL267:
	.loc 1 305 11 is_stmt 1 view .LVU621
	jmp	.L156
.LVL268:
	.p2align 4,,10
	.p2align 3
.L154:
	.loc 1 308 11 view .LVU622
	movl	%eax, %ebx
	andb	%r15b, %bl
	jne	.L424
	movl	%r15d, %ecx
	orl	%eax, %ecx
.LVL269:
.L261:
	.loc 1 309 11 view .LVU623
	.loc 1 309 20 is_stmt 0 view .LVU624
	xorl	$1, %ecx
	movl	%ecx, %r15d
.LVL270:
	.loc 1 310 11 is_stmt 1 view .LVU625
	jmp	.L156
.LVL271:
	.p2align 4,,10
	.p2align 3
.L290:
	.loc 1 300 7 is_stmt 0 view .LVU626
	movl	$1, %ebx
	jmp	.L261
	.p2align 4,,10
	.p2align 3
.L409:
	.loc 1 300 7 view .LVU627
	xorl	%eax, %eax
.LVL272:
	.loc 1 300 7 view .LVU628
	xorl	%r15d, %r15d
.LVL273:
	.loc 1 300 7 view .LVU629
	movl	$1, %ebx
	jmp	.L156
.LVL274:
	.p2align 4,,10
	.p2align 3
.L289:
	.loc 1 300 7 view .LVU630
	movl	$1, %ebx
	jmp	.L158
.LVL275:
.L323:
	.loc 1 300 7 view .LVU631
	leaq	1(%rbp), %rdx
.LVL276:
.L174:
	.loc 1 300 7 view .LVU632
.LBE338:
.LBE345:
.LBE381:
.LBB382:
	.loc 1 504 7 is_stmt 1 view .LVU633
	.loc 1 504 7 view .LVU634
	leaq	1(%r12), %rcx
	testb	%r8b, %r8b
	je	.L283
	.loc 1 504 7 view .LVU635
.LVL277:
	.loc 1 504 7 is_stmt 0 view .LVU636
	movb	$0, (%r12)
	.loc 1 504 7 is_stmt 1 view .LVU637
.LVL278:
	.loc 1 504 7 is_stmt 0 view .LVU638
	addq	$8, %r15
.LVL279:
	.loc 1 504 7 view .LVU639
	addq	$2, %r12
	movq	%rcx, -8(%r15)
	.loc 1 504 7 is_stmt 1 view .LVU640
.LVL280:
.L185:
	.loc 1 504 7 view .LVU641
	.loc 1 505 7 view .LVU642
	.loc 1 505 15 is_stmt 0 view .LVU643
	movb	%al, (%rcx)
	.loc 1 506 7 is_stmt 1 view .LVU644
	movq	%rdx, %rbp
.LVL281:
	.loc 1 506 7 is_stmt 0 view .LVU645
	xorl	%r8d, %r8d
.LVL282:
.L183:
	.loc 1 506 7 view .LVU646
.LBE382:
	.loc 1 414 9 is_stmt 1 view .LVU647
	.loc 1 414 10 is_stmt 0 view .LVU648
	movzbl	0(%rbp), %eax
	.loc 1 414 9 view .LVU649
	testb	%al, %al
	jne	.L201
.LVL283:
.L401:
	.loc 1 414 9 view .LVU650
	movq	64(%rsp), %r13
.LVL284:
	.loc 1 414 9 view .LVU651
	movq	72(%rsp), %r9
.LVL285:
.L172:
	.loc 1 510 3 is_stmt 1 view .LVU652
.LBE393:
.LBE405:
	.loc 1 551 26 is_stmt 0 view .LVU653
	movq	8(%rsp), %rax
.LBB406:
.LBB394:
	.loc 1 511 13 view .LVU654
	movq	$0, (%r15)
.LBE394:
.LBE406:
	.loc 1 551 12 view .LVU655
	movq	32(%rsp), %rbx
	.loc 1 557 6 view .LVU656
	cmpb	$0, dev_debug(%rip)
.LBB407:
.LBB395:
	.loc 1 510 9 view .LVU657
	movb	$0, (%r12)
	.loc 1 511 3 is_stmt 1 view .LVU658
	.loc 1 513 3 view .LVU659
.LVL286:
	.loc 1 513 3 is_stmt 0 view .LVU660
.LBE395:
.LBE407:
	.loc 1 551 3 is_stmt 1 view .LVU661
	.loc 1 551 26 is_stmt 0 view .LVU662
	movq	(%rax), %rax
	.loc 1 551 12 view .LVU663
	movq	%rax, (%rbx)
	.loc 1 554 3 is_stmt 1 view .LVU664
.LVL287:
	.loc 1 557 3 view .LVU665
	.loc 1 557 6 is_stmt 0 view .LVU666
	je	.L202
	.loc 1 557 17 view .LVU667
	cmpq	$0, 8(%rbx)
	je	.L203
	.loc 1 559 7 view .LVU668
	movq	%r13, %rdi
	movq	%r9, 40(%rsp)
	.loc 1 559 7 is_stmt 1 view .LVU669
	.loc 1 559 7 view .LVU670
	.loc 1 559 7 view .LVU671
	call	quote@PLT
.LVL288:
.LBB408:
.LBB409:
	.loc 4 100 10 is_stmt 0 view .LVU672
	movq	stderr(%rip), %rdi
	movl	$1, %esi
	leaq	.LC57(%rip), %rdx
.LBE409:
.LBE408:
	.loc 1 559 7 view .LVU673
	movq	%rax, %rcx
.LVL289:
.LBB411:
.LBI408:
	.loc 4 98 1 is_stmt 1 view .LVU674
.LBB410:
	.loc 4 100 3 view .LVU675
	.loc 4 100 10 is_stmt 0 view .LVU676
	xorl	%eax, %eax
	call	__fprintf_chk@PLT
.LVL290:
	.loc 4 100 10 view .LVU677
.LBE410:
.LBE411:
	.loc 1 559 7 is_stmt 1 view .LVU678
	.loc 1 560 7 view .LVU679
	.loc 1 560 7 view .LVU680
	cmpb	$0, dev_debug(%rip)
	movq	40(%rsp), %r9
	jne	.L425
	movq	%r9, %rbx
.LVL291:
.L206:
	.loc 1 561 14 is_stmt 0 view .LVU681
	movq	(%rbx), %rdi
	.loc 1 562 9 view .LVU682
	movzbl	dev_debug(%rip), %eax
	jmp	.L205
.LVL292:
	.p2align 4,,10
	.p2align 3
.L207:
	.loc 1 562 9 is_stmt 1 view .LVU683
	.loc 1 562 9 view .LVU684
	testb	%al, %al
	jne	.L426
.LVL293:
.L205:
	.loc 1 562 9 view .LVU685
	.loc 1 561 13 view .LVU686
	testq	%rdi, %rdi
	jne	.L207
	movq	%rbx, %r9
.LVL294:
.L203:
	.loc 1 572 3 view .LVU687
	.loc 1 572 10 is_stmt 0 view .LVU688
	movl	optind(%rip), %esi
.LVL295:
	.loc 1 572 26 is_stmt 1 view .LVU689
	.loc 1 572 3 is_stmt 0 view .LVU690
	movl	56(%rsp), %edi
	cmpl	%edi, %esi
	jge	.L209
	.loc 1 572 3 view .LVU691
	movslq	%esi, %rax
	movq	8(%rsp), %r8
	imulq	$-8, %rax, %rcx
	addq	%r9, %rcx
.LVL296:
	.p2align 4,,10
	.p2align 3
.L210:
	.loc 1 573 5 is_stmt 1 view .LVU692
	.loc 1 573 31 is_stmt 0 view .LVU693
	movq	(%r8,%rax,8), %rdx
	.loc 1 573 17 view .LVU694
	movq	%rdx, (%rcx,%rax,8)
	.loc 1 572 42 is_stmt 1 view .LVU695
.LVL297:
	.loc 1 572 26 view .LVU696
	addq	$1, %rax
.LVL298:
	.loc 1 572 3 is_stmt 0 view .LVU697
	cmpl	%eax, %edi
	jg	.L210
	movl	56(%rsp), %eax
.LVL299:
	.loc 1 572 3 view .LVU698
	notl	%esi
	addl	%esi, %eax
	leaq	8(%r9,%rax,8), %r9
.L209:
	.loc 1 574 3 is_stmt 1 view .LVU699
	.loc 1 578 3 is_stmt 0 view .LVU700
	movq	32(%rsp), %rax
	.loc 1 574 13 view .LVU701
	movq	$0, (%r9)
	.loc 1 577 3 is_stmt 1 view .LVU702
.LVL300:
	.loc 1 578 3 view .LVU703
	.loc 1 578 28 view .LVU704
	.loc 1 578 3 is_stmt 0 view .LVU705
	cmpq	$0, (%rax)
	je	.L284
	.loc 1 577 11 view .LVU706
	xorl	%edx, %edx
.LVL301:
	.p2align 4,,10
	.p2align 3
.L212:
	.loc 1 579 5 is_stmt 1 view .LVU707
	.loc 1 578 39 is_stmt 0 view .LVU708
	addq	$8, %rax
.LVL302:
	.loc 1 579 5 view .LVU709
	addl	$1, %edx
.LVL303:
	.loc 1 578 39 is_stmt 1 view .LVU710
	.loc 1 578 28 view .LVU711
	.loc 1 578 3 is_stmt 0 view .LVU712
	cmpq	$0, (%rax)
	jne	.L212
	movl	%edx, 56(%rsp)
.LVL304:
.L211:
	.loc 1 582 3 is_stmt 1 view .LVU713
	.loc 1 583 3 view .LVU714
	.loc 1 584 3 view .LVU715
	.loc 1 584 16 is_stmt 0 view .LVU716
	movl	$0, optind(%rip)
	movq	32(%rsp), %rax
.LVL305:
	.loc 1 584 16 view .LVU717
	movq	%rax, 8(%rsp)
	jmp	.L123
.LVL306:
.L175:
.LBB412:
.LBB396:
.LBB383:
	.loc 1 421 11 is_stmt 1 view .LVU718
	leaq	1(%rbp), %rdx
	.loc 1 421 14 is_stmt 0 view .LVU719
	testb	%r13b, %r13b
	jne	.L174
	.loc 1 423 11 is_stmt 1 view .LVU720
	xorl	$1, %r10d
.LVL307:
	.loc 1 424 11 view .LVU721
	.loc 1 424 11 view .LVU722
	testb	%r8b, %r8b
	je	.L184
.L412:
	.loc 1 432 11 view .LVU723
	leaq	1(%r12), %rax
.LVL308:
	.loc 1 432 11 is_stmt 0 view .LVU724
	movb	$0, (%r12)
	.loc 1 432 11 is_stmt 1 view .LVU725
.LVL309:
	.loc 1 432 11 is_stmt 0 view .LVU726
	addq	$8, %r15
.LVL310:
	.loc 1 432 11 view .LVU727
	movq	%rax, -8(%r15)
	.loc 1 432 11 is_stmt 1 view .LVU728
.LVL311:
	.loc 1 432 11 is_stmt 0 view .LVU729
	movq	%rax, %r12
.LVL312:
.L184:
	.loc 1 432 11 is_stmt 1 view .LVU730
	.loc 1 433 11 view .LVU731
	.loc 1 433 11 is_stmt 0 view .LVU732
	addq	$1, %rbp
.LVL313:
	.loc 1 434 11 is_stmt 1 view .LVU733
	xorl	%r8d, %r8d
	jmp	.L183
.LVL314:
.L177:
	.loc 1 481 11 view .LVU734
	leaq	1(%rbp), %rdx
	.loc 1 481 14 is_stmt 0 view .LVU735
	testb	%r10b, %r10b
	jne	.L174
.LBB356:
	.loc 1 486 23 view .LVU736
	movq	%rbp, %rdi
	movb	%r8b, 48(%rsp)
	movb	%r10b, 40(%rsp)
	.loc 1 486 13 is_stmt 1 view .LVU737
	.loc 1 486 23 is_stmt 0 view .LVU738
	call	extract_varname
.LVL315:
	.loc 1 487 13 is_stmt 1 view .LVU739
	movzbl	40(%rsp), %r10d
	movzbl	48(%rsp), %r8d
	testq	%rax, %rax
	je	.L427
	.loc 1 488 23 is_stmt 0 view .LVU740
	movq	%rax, %rdi
	movb	%r8b, 63(%rsp)
	movb	%r10b, 48(%rsp)
.LVL316:
	.loc 1 488 13 is_stmt 1 view .LVU741
	.loc 1 488 23 is_stmt 0 view .LVU742
	movq	%rax, 40(%rsp)
.LVL317:
	.loc 1 488 23 view .LVU743
	call	getenv@PLT
.LVL318:
	.loc 1 489 16 view .LVU744
	movq	40(%rsp), %rcx
	movzbl	48(%rsp), %r10d
	.loc 1 488 23 view .LVU745
	movq	%rax, %r11
.LVL319:
	.loc 1 489 13 is_stmt 1 view .LVU746
	.loc 1 489 16 is_stmt 0 view .LVU747
	movzbl	63(%rsp), %r8d
	movzbl	dev_debug(%rip), %eax
.LVL320:
	.loc 1 489 16 view .LVU748
	testq	%r11, %r11
	je	.L197
	.loc 1 491 17 is_stmt 1 view .LVU749
	.loc 1 491 17 view .LVU750
	testb	%r8b, %r8b
	jne	.L428
.L198:
.LVL321:
	.loc 1 491 17 view .LVU751
	.loc 1 492 17 view .LVU752
	.loc 1 492 17 view .LVU753
	testb	%al, %al
	jne	.L429
.LVL322:
.L199:
.LBB357:
.LBB358:
	.loc 3 97 10 is_stmt 0 view .LVU754
	movq	%r12, %rdi
	movq	%r11, %rsi
	movb	%r10b, 40(%rsp)
.LBE358:
.LBE357:
	.loc 1 492 17 is_stmt 1 view .LVU755
	.loc 1 493 17 view .LVU756
.LVL323:
.LBB361:
.LBI357:
	.loc 3 95 1 view .LVU757
.LBB359:
	.loc 3 97 3 view .LVU758
	.loc 3 97 10 is_stmt 0 view .LVU759
	call	stpcpy@PLT
.LVL324:
	.loc 3 97 10 view .LVU760
.LBE359:
.LBE361:
	movzbl	40(%rsp), %r10d
	xorl	%r8d, %r8d
.LBB362:
.LBB360:
	movq	%rax, %r12
.LVL325:
.L200:
	.loc 3 97 10 view .LVU761
.LBE360:
.LBE362:
	.loc 1 498 19 view .LVU762
	movq	%rbp, %rdi
	movl	$125, %esi
	movb	%r8b, 48(%rsp)
	movb	%r10b, 40(%rsp)
.LVL326:
	.loc 1 496 15 is_stmt 1 view .LVU763
	.loc 1 498 13 view .LVU764
	.loc 1 498 19 is_stmt 0 view .LVU765
	call	strchr@PLT
.LVL327:
	.loc 1 499 13 view .LVU766
	movzbl	40(%rsp), %r10d
	movzbl	48(%rsp), %r8d
	.loc 1 498 17 view .LVU767
	leaq	1(%rax), %rbp
.LVL328:
	.loc 1 499 13 is_stmt 1 view .LVU768
	jmp	.L183
.LVL329:
.L178:
	.loc 1 499 13 is_stmt 0 view .LVU769
.LBE356:
	.loc 1 446 11 is_stmt 1 view .LVU770
	.loc 1 446 14 is_stmt 0 view .LVU771
	testb	%r8b, %r8b
	jne	.L401
	movq	%r12, %rcx
	leaq	1(%rbp), %rdx
	addq	$1, %r12
.LVL330:
	.loc 1 446 14 view .LVU772
	jmp	.L185
.LVL331:
.L179:
	.loc 1 429 11 is_stmt 1 view .LVU773
	leaq	1(%rbp), %rdx
	.loc 1 429 14 is_stmt 0 view .LVU774
	testb	%r10b, %r10b
	jne	.L174
	.loc 1 431 11 is_stmt 1 view .LVU775
	xorl	$1, %r13d
.LVL332:
	.loc 1 432 11 view .LVU776
	.loc 1 432 11 view .LVU777
	testb	%r8b, %r8b
	je	.L184
	jmp	.L412
.L180:
	.loc 1 439 11 view .LVU778
	.loc 1 439 14 is_stmt 0 view .LVU779
	movl	%r13d, %edi
	leaq	1(%rbp), %rdx
	orb	%r10b, %dil
	jne	.L174
	.loc 1 441 11 is_stmt 1 view .LVU780
.LVL333:
	.loc 1 442 11 view .LVU781
	.loc 1 442 18 is_stmt 0 view .LVU782
	movq	%rbp, %rdi
	leaq	.LC52(%rip), %rsi
	.loc 1 443 11 view .LVU783
	xorl	%r13d, %r13d
.LVL334:
	.loc 1 442 18 view .LVU784
	call	strspn@PLT
.LVL335:
	.loc 1 443 11 view .LVU785
	xorl	%r10d, %r10d
	.loc 1 441 15 view .LVU786
	movl	$1, %r8d
	.loc 1 442 15 view .LVU787
	addq	%rax, %rbp
.LVL336:
	.loc 1 443 11 is_stmt 1 view .LVU788
	jmp	.L183
.LVL337:
.L202:
	.loc 1 443 11 is_stmt 0 view .LVU789
.LBE383:
.LBE396:
.LBE412:
	.loc 1 567 13 is_stmt 1 view .LVU790
	movq	32(%rsp), %rax
	cmpq	$0, 8(%rax)
	je	.L203
	.p2align 4,,10
	.p2align 3
.L208:
	.loc 1 568 9 view .LVU791
	addq	$8, %r9
.LVL338:
	.loc 1 567 13 view .LVU792
	cmpq	$0, (%r9)
	jne	.L208
	jmp	.L203
.LVL339:
	.p2align 4,,10
	.p2align 3
.L173:
	.loc 1 567 13 is_stmt 0 view .LVU793
	leaq	1(%rbp), %rdx
.LBB413:
.LBB397:
.LBB384:
	.loc 1 418 7 view .LVU794
	cmpb	$92, %al
	jne	.L174
	.loc 1 452 11 is_stmt 1 view .LVU795
	movzbl	1(%rbp), %ecx
	.loc 1 452 14 is_stmt 0 view .LVU796
	testb	%r10b, %r10b
	je	.L186
	.loc 1 452 38 view .LVU797
	cmpb	$39, %cl
	je	.L188
	cmpb	$92, %cl
	jne	.L174
.LVL340:
.L292:
	.loc 1 457 14 view .LVU798
	movl	%ecx, %eax
	addq	$1, %rdx
	jmp	.L174
.LVL341:
	.p2align 4,,10
	.p2align 3
.L283:
	.loc 1 457 14 view .LVU799
	movq	%rcx, %rsi
	movq	%r12, %rcx
	movq	%rsi, %r12
.LVL342:
	.loc 1 457 14 view .LVU800
	jmp	.L185
.LVL343:
	.p2align 4,,10
	.p2align 3
.L186:
	.loc 1 456 11 is_stmt 1 view .LVU801
	.loc 1 457 11 view .LVU802
	.loc 1 458 23 is_stmt 0 view .LVU803
	leal	-34(%rcx), %eax
	cmpb	$58, %al
	ja	.L264
	movabsq	$288230376151711783, %rdi
	btq	%rax, %rdi
	jnc	.L189
	movl	%ecx, %eax
.LVL344:
	.loc 1 458 23 view .LVU804
	leaq	2(%rbp), %rdx
	jmp	.L174
.LVL345:
.L188:
	.loc 1 456 11 is_stmt 1 view .LVU805
	.loc 1 457 11 view .LVU806
	.loc 1 457 14 is_stmt 0 view .LVU807
	cmpb	$92, %cl
	je	.L292
	cmpb	$39, %cl
	je	.L292
.LVL346:
.L264:
	.loc 1 462 16 is_stmt 1 view .LVU808
	.loc 1 462 19 is_stmt 0 view .LVU809
	cmpb	$95, %cl
	je	.L430
	.loc 1 473 16 is_stmt 1 view .LVU810
	.loc 1 473 19 is_stmt 0 view .LVU811
	cmpb	$99, %cl
	je	.L401
	.loc 1 476 15 is_stmt 1 view .LVU812
.LVL347:
.LBB371:
.LBI371:
	.loc 1 200 1 view .LVU813
.LBB372:
	.loc 1 202 3 view .LVU814
	leal	-102(%rcx), %eax
	cmpb	$16, %al
	ja	.L189
	movzbl	%al, %eax
	movslq	(%r14,%rax,4), %rax
	addq	%r14, %rax
	notrack jmp	*%rax
	.section	.rodata
	.align 4
	.align 4
.L192:
	.long	.L282-.L192
	.long	.L189-.L192
	.long	.L189-.L192
	.long	.L189-.L192
	.long	.L189-.L192
	.long	.L189-.L192
	.long	.L189-.L192
	.long	.L189-.L192
	.long	.L195-.L192
	.long	.L189-.L192
	.long	.L189-.L192
	.long	.L189-.L192
	.long	.L194-.L192
	.long	.L189-.L192
	.long	.L193-.L192
	.long	.L189-.L192
	.long	.L191-.L192
	.section	.text.startup
.L195:
.LVL348:
	.loc 1 206 22 is_stmt 0 view .LVU815
	movl	$10, %eax
	addq	$1, %rdx
.LVL349:
	.loc 1 206 22 view .LVU816
	jmp	.L174
.LVL350:
.L282:
	.loc 1 206 22 view .LVU817
.LBE372:
.LBE371:
	.loc 1 473 19 view .LVU818
	movl	$12, %eax
	addq	$1, %rdx
.LVL351:
	.loc 1 473 19 view .LVU819
	jmp	.L174
.LVL352:
.L191:
.LBB375:
.LBB373:
	.loc 1 209 15 is_stmt 1 view .LVU820
	.loc 1 209 22 is_stmt 0 view .LVU821
	movl	$11, %eax
	addq	$1, %rdx
.LVL353:
	.loc 1 209 22 view .LVU822
	jmp	.L174
.LVL354:
.L193:
	.loc 1 208 15 is_stmt 1 view .LVU823
	.loc 1 208 22 is_stmt 0 view .LVU824
	movl	$9, %eax
	addq	$1, %rdx
.LVL355:
	.loc 1 208 22 view .LVU825
	jmp	.L174
.LVL356:
.L194:
	.loc 1 207 15 is_stmt 1 view .LVU826
	.loc 1 207 22 is_stmt 0 view .LVU827
	movl	$13, %eax
	addq	$1, %rdx
.LVL357:
	.loc 1 207 22 view .LVU828
	jmp	.L174
.LVL358:
.L428:
	.loc 1 207 22 view .LVU829
.LBE373:
.LBE375:
.LBB376:
	.loc 1 491 17 is_stmt 1 view .LVU830
	leaq	1(%r12), %rdx
.LVL359:
	.loc 1 491 17 is_stmt 0 view .LVU831
	movb	$0, (%r12)
	.loc 1 491 17 is_stmt 1 view .LVU832
.LVL360:
	.loc 1 491 17 is_stmt 0 view .LVU833
	addq	$8, %r15
.LVL361:
	.loc 1 491 17 view .LVU834
	movq	%rdx, -8(%r15)
	.loc 1 491 17 is_stmt 1 view .LVU835
.LVL362:
	.loc 1 491 17 is_stmt 0 view .LVU836
	movq	%rdx, %r12
	jmp	.L198
.LVL363:
.L163:
	.loc 1 491 17 view .LVU837
.LBE376:
.LBE384:
.LBB385:
.LBB346:
.LBB339:
.LBB330:
.LBB329:
	.loc 1 195 52 view .LVU838
	leal	-34(%rdi), %edx
	.loc 1 195 47 view .LVU839
	cmpb	$2, %dl
	jbe	.L165
	.loc 1 196 11 view .LVU840
	cmpb	$39, %dil
	je	.L162
	cmpb	$92, %dil
	je	.L162
.L399:
	.loc 1 196 11 view .LVU841
	movl	%edi, %r14d
.LVL364:
	.loc 1 196 11 view .LVU842
.LBE329:
.LBE330:
.LBB331:
	.loc 1 322 13 is_stmt 1 view .LVU843
	movl	$5, %edx
	leaq	.LC83(%rip), %rsi
	xorl	%edi, %edi
.LVL365:
	.loc 1 322 13 is_stmt 0 view .LVU844
	call	dcgettext@PLT
.LVL366:
	.loc 1 322 13 view .LVU845
.LBE331:
	.loc 1 321 16 view .LVU846
	movsbl	%r14b, %ecx
.LBB332:
	.loc 1 322 13 view .LVU847
	xorl	%esi, %esi
	movl	$125, %edi
	movq	%rax, %rdx
	xorl	%eax, %eax
	call	error@PLT
.LVL367:
.L413:
	.loc 1 322 13 view .LVU848
.LBE332:
.LBE339:
.LBE346:
.LBE385:
.LBE397:
.LBE413:
.LBE431:
.LBE455:
	.loc 1 868 3 is_stmt 1 view .LVU849
	.loc 1 868 14 is_stmt 0 view .LVU850
	movl	optind(%rip), %ebx
	.loc 1 868 6 view .LVU851
	cmpl	56(%rsp), %ebx
	jge	.L214
	.loc 1 868 24 discriminator 1 view .LVU852
	movq	8(%rsp), %rdi
	movslq	%ebx, %rax
.LVL368:
	.loc 1 868 24 discriminator 1 view .LVU853
	leaq	.LC65(%rip), %rsi
	movq	(%rdi,%rax,8), %rdi
	call	strcmp@PLT
.LVL369:
	.loc 1 868 21 discriminator 1 view .LVU854
	testl	%eax, %eax
	je	.L431
.L214:
	.loc 1 874 3 is_stmt 1 view .LVU855
	.loc 1 874 6 is_stmt 0 view .LVU856
	cmpb	$0, 16(%rsp)
	je	.L432
.LVL370:
.L215:
.LBB456:
	.loc 1 876 7 is_stmt 1 view .LVU857
	.loc 1 876 7 view .LVU858
	cmpb	$0, dev_debug(%rip)
	jne	.L433
.L218:
	.loc 1 876 7 discriminator 3 view .LVU859
	.loc 1 877 7 discriminator 3 view .LVU860
	.loc 1 878 7 discriminator 3 view .LVU861
	.loc 1 878 15 is_stmt 0 discriminator 3 view .LVU862
	leaq	dummy_environ.8041(%rip), %rax
	movq	%rax, environ(%rip)
.L217:
.LBE456:
	.loc 1 884 9 is_stmt 1 view .LVU863
	.loc 1 884 17 is_stmt 0 view .LVU864
	movl	optind(%rip), %r12d
	.loc 1 884 9 view .LVU865
	movl	56(%rsp), %r15d
	cmpl	%r12d, %r15d
	jle	.L225
.LBB459:
.LBB460:
	.loc 4 100 10 view .LVU866
	movq	8(%rsp), %r14
	leaq	.LC69(%rip), %rbp
	jmp	.L224
.LVL371:
	.p2align 4,,10
	.p2align 3
.L222:
	.loc 4 100 10 view .LVU867
.LBE460:
.LBE459:
	.loc 1 886 7 is_stmt 1 discriminator 3 view .LVU868
	.loc 1 888 7 discriminator 3 view .LVU869
	.loc 1 888 23 is_stmt 0 discriminator 3 view .LVU870
	movslq	optind(%rip), %rax
	.loc 1 888 11 discriminator 3 view .LVU871
	movq	(%r14,%rax,8), %rdi
	call	putenv@PLT
.LVL372:
	.loc 1 888 10 discriminator 3 view .LVU872
	testl	%eax, %eax
	jne	.L434
	.loc 1 894 7 is_stmt 1 view .LVU873
	.loc 1 894 13 is_stmt 0 view .LVU874
	movl	optind(%rip), %eax
	leal	1(%rax), %r12d
	movl	%r12d, optind(%rip)
	.loc 1 884 9 is_stmt 1 view .LVU875
	cmpl	%r15d, %r12d
	jge	.L394
.LVL373:
.L224:
	.loc 1 884 45 is_stmt 0 discriminator 1 view .LVU876
	movslq	%r12d, %rax
	.loc 1 884 33 discriminator 1 view .LVU877
	movl	$61, %esi
	movq	(%r14,%rax,8), %r13
	movq	%r13, %rdi
	call	strchr@PLT
.LVL374:
	movq	%rax, %rbx
.LVL375:
	.loc 1 884 24 discriminator 1 view .LVU878
	testq	%rax, %rax
	je	.L435
	.loc 1 886 7 is_stmt 1 view .LVU879
	.loc 1 886 7 view .LVU880
	cmpb	$0, dev_debug(%rip)
	je	.L222
	.loc 1 886 7 discriminator 1 view .LVU881
.LVL376:
.LBB462:
.LBI459:
	.loc 4 98 1 discriminator 1 view .LVU882
.LBB461:
	.loc 4 100 3 discriminator 1 view .LVU883
	.loc 4 100 10 is_stmt 0 discriminator 1 view .LVU884
	movq	stderr(%rip), %rdi
	movq	%r13, %rcx
	movq	%rbp, %rdx
	xorl	%eax, %eax
.LVL377:
	.loc 4 100 10 discriminator 1 view .LVU885
	movl	$1, %esi
	call	__fprintf_chk@PLT
.LVL378:
	.loc 4 100 10 discriminator 1 view .LVU886
	jmp	.L222
.LVL379:
.L430:
	.loc 4 100 10 discriminator 1 view .LVU887
.LBE461:
.LBE462:
.LBB463:
.LBB432:
.LBB414:
.LBB398:
.LBB386:
	.loc 1 464 15 is_stmt 1 view .LVU888
	.loc 1 464 18 is_stmt 0 view .LVU889
	testb	%r13b, %r13b
	je	.L436
	.loc 1 471 24 view .LVU890
	movl	$32, %eax
	addq	$1, %rdx
	jmp	.L174
.LVL380:
.L197:
.LBB377:
	.loc 1 496 15 is_stmt 1 view .LVU891
	.loc 1 496 15 view .LVU892
	testb	%al, %al
	je	.L200
.LBB363:
.LBB364:
	.loc 4 100 10 is_stmt 0 view .LVU893
	movq	stderr(%rip), %rdi
	leaq	.LC56(%rip), %rdx
	movl	$1, %esi
	xorl	%eax, %eax
	movb	%r8b, 48(%rsp)
	movb	%r10b, 40(%rsp)
.LVL381:
	.loc 4 100 10 view .LVU894
.LBE364:
.LBE363:
	.loc 1 496 15 is_stmt 1 view .LVU895
.LBB366:
.LBI363:
	.loc 4 98 1 view .LVU896
.LBB365:
	.loc 4 100 3 view .LVU897
	.loc 4 100 10 is_stmt 0 view .LVU898
	call	__fprintf_chk@PLT
.LVL382:
	.loc 4 100 10 view .LVU899
	movzbl	48(%rsp), %r8d
	movzbl	40(%rsp), %r10d
	jmp	.L200
.LVL383:
.L418:
	.loc 4 100 10 view .LVU900
	movq	usvars(%rip), %rdi
.LBE365:
.LBE366:
.LBE377:
.LBE386:
.LBE398:
.LBE414:
.LBE432:
.LBE463:
.LBB464:
.LBB451:
	.loc 1 169 5 is_stmt 1 view .LVU901
.LVL384:
.LBB443:
.LBI443:
	.file 6 "./lib/xalloc.h"
	.loc 6 174 1 view .LVU902
.LBB444:
	.loc 6 176 3 view .LVU903
	.loc 6 178 3 view .LVU904
	.loc 6 178 6 is_stmt 0 view .LVU905
	testq	%rdi, %rdi
	je	.L437
	.loc 6 200 7 is_stmt 1 view .LVU906
	.loc 6 200 10 is_stmt 0 view .LVU907
	movabsq	$768614336404564649, %rax
	cmpq	%rax, %rsi
	ja	.L146
	.loc 6 203 7 is_stmt 1 view .LVU908
	.loc 6 203 14 is_stmt 0 view .LVU909
	movq	%rsi, %rax
	shrq	%rax
	.loc 6 203 9 view .LVU910
	leaq	1(%rsi,%rax), %rsi
.LVL385:
.L142:
	.loc 6 206 3 is_stmt 1 view .LVU911
	.loc 6 206 7 is_stmt 0 view .LVU912
	movq	%rsi, usvars_alloc(%rip)
	.loc 6 207 3 is_stmt 1 view .LVU913
	.loc 6 207 10 is_stmt 0 view .LVU914
	salq	$3, %rsi
.LVL386:
	.loc 6 207 10 view .LVU915
	call	xrealloc@PLT
.LVL387:
	.loc 6 207 10 view .LVU916
.LBE444:
.LBE443:
	.loc 1 169 12 view .LVU917
	movq	%rax, usvars(%rip)
	jmp	.L140
.LVL388:
.L429:
	.loc 1 169 12 view .LVU918
.LBE451:
.LBE464:
.LBB465:
.LBB433:
.LBB415:
.LBB399:
.LBB387:
.LBB378:
	.loc 1 492 17 view .LVU919
	movq	%r11, %rdi
	movb	%r10b, 63(%rsp)
	movq	%r11, 40(%rsp)
.LVL389:
	.loc 1 492 17 view .LVU920
	movq	%rcx, 48(%rsp)
	.loc 1 492 17 is_stmt 1 view .LVU921
	call	quote@PLT
.LVL390:
.LBB367:
.LBI367:
	.loc 4 98 1 view .LVU922
.LBB368:
	.loc 4 100 3 view .LVU923
	.loc 4 100 10 is_stmt 0 view .LVU924
	movq	48(%rsp), %rcx
	movl	$1, %esi
	movq	stderr(%rip), %rdi
.LBE368:
.LBE367:
	.loc 1 492 17 view .LVU925
	movq	%rax, %r8
.LBB370:
.LBB369:
	.loc 4 100 10 view .LVU926
	leaq	.LC55(%rip), %rdx
	xorl	%eax, %eax
	call	__fprintf_chk@PLT
.LVL391:
	.loc 4 100 10 view .LVU927
	movzbl	63(%rsp), %r10d
	movq	40(%rsp), %r11
	jmp	.L199
.LVL392:
.L435:
	.loc 4 100 10 view .LVU928
.LBE369:
.LBE370:
.LBE378:
.LBE387:
.LBE399:
.LBE415:
.LBE433:
.LBE465:
	.loc 1 897 3 is_stmt 1 view .LVU929
	.loc 1 899 3 view .LVU930
	.loc 1 899 6 is_stmt 0 view .LVU931
	cmpl	56(%rsp), %r12d
	jge	.L294
	cmpb	$0, 62(%rsp)
	je	.L294
	.loc 1 901 7 is_stmt 1 view .LVU932
	.loc 1 901 20 is_stmt 0 view .LVU933
	movl	$5, %edx
	leaq	.LC71(%rip), %rsi
.LVL393:
.L410:
	.loc 1 901 20 view .LVU934
	xorl	%edi, %edi
	call	dcgettext@PLT
.LVL394:
	.loc 1 901 7 view .LVU935
	xorl	%esi, %esi
	xorl	%edi, %edi
	.loc 1 901 20 view .LVU936
	movq	%rax, %rdx
	.loc 1 901 7 view .LVU937
	xorl	%eax, %eax
	call	error@PLT
.LVL395:
.L411:
	.loc 1 902 7 is_stmt 1 view .LVU938
	movl	$125, %edi
	call	usage
.LVL396:
.L294:
	.loc 1 899 6 is_stmt 0 view .LVU939
	movl	$4, %r12d
.LVL397:
	.loc 1 899 6 view .LVU940
	movl	$1, %r13d
	jmp	.L233
.LVL398:
	.p2align 4,,10
	.p2align 3
.L441:
.LBB466:
.LBB467:
.LBB468:
	.loc 1 643 10 view .LVU941
	testl	%r14d, %r14d
	jne	.L438
	.loc 1 647 7 is_stmt 1 view .LVU942
	.loc 1 647 10 is_stmt 0 view .LVU943
	testl	%eax, %eax
	je	.L391
.L236:
	.loc 1 656 7 is_stmt 1 view .LVU944
	.loc 1 656 10 is_stmt 0 view .LVU945
	cmpb	$0, dev_debug(%rip)
	jne	.L439
.LVL399:
.L237:
	.loc 1 633 9 is_stmt 1 view .LVU946
.LBE468:
	.loc 1 628 38 view .LVU947
	.loc 1 628 39 is_stmt 0 view .LVU948
	addl	$1, %r13d
.LVL400:
	.loc 1 628 19 is_stmt 1 view .LVU949
	addq	$4, %r12
	.loc 1 628 3 is_stmt 0 view .LVU950
	cmpl	$65, %r13d
	je	.L440
.LVL401:
.L233:
.LBB482:
	.loc 1 630 7 is_stmt 1 view .LVU951
	.loc 1 632 7 view .LVU952
	.loc 1 632 18 is_stmt 0 view .LVU953
	movq	signals(%rip), %rax
	movl	(%rax,%r12), %ebx
	.loc 1 632 10 view .LVU954
	testl	%ebx, %ebx
	je	.L237
	.loc 1 635 7 is_stmt 1 view .LVU955
	.loc 1 641 21 is_stmt 0 view .LVU956
	leaq	80(%rsp), %r15
	xorl	%esi, %esi
	.loc 1 636 29 view .LVU957
	leal	-2(%rbx), %r14d
	.loc 1 641 21 view .LVU958
	movl	%r13d, %edi
	movq	%r15, %rdx
	.loc 1 636 29 view .LVU959
	andl	$-3, %r14d
.LVL402:
	.loc 1 638 7 is_stmt 1 view .LVU960
	.loc 1 639 30 is_stmt 0 view .LVU961
	subl	$1, %ebx
.LVL403:
	.loc 1 641 7 is_stmt 1 view .LVU962
	.loc 1 641 21 is_stmt 0 view .LVU963
	call	sigaction@PLT
.LVL404:
	movl	%eax, %ebp
.LVL405:
	.loc 1 643 7 is_stmt 1 view .LVU964
	.loc 1 643 10 is_stmt 0 view .LVU965
	testl	%eax, %eax
	jne	.L441
.L391:
	.loc 1 649 11 is_stmt 1 view .LVU966
	.loc 1 649 53 is_stmt 0 view .LVU967
	xorl	%eax, %eax
.LVL406:
	.loc 1 649 53 view .LVU968
	cmpl	$1, %ebx
	.loc 1 651 26 view .LVU969
	movq	%r15, %rsi
	movl	%r13d, %edi
	.loc 1 649 53 view .LVU970
	seta	%al
	.loc 1 651 26 view .LVU971
	xorl	%edx, %edx
	.loc 1 649 26 view .LVU972
	movq	%rax, 80(%rsp)
	.loc 1 651 11 is_stmt 1 view .LVU973
	.loc 1 651 26 is_stmt 0 view .LVU974
	call	sigaction@PLT
.LVL407:
	movl	%eax, %ebp
.LVL408:
	.loc 1 651 14 view .LVU975
	testl	%eax, %eax
	je	.L236
	.loc 1 651 53 view .LVU976
	testl	%r14d, %r14d
	je	.L236
.LBB469:
	.loc 1 652 13 is_stmt 1 view .LVU977
	movl	$5, %edx
	leaq	.LC75(%rip), %rsi
	xorl	%edi, %edi
	call	dcgettext@PLT
.LVL409:
	.loc 1 652 13 is_stmt 0 view .LVU978
	movq	%rax, %r12
	call	__errno_location@PLT
.LVL410:
	movl	%r13d, %ecx
	movq	%r12, %rdx
	movl	$125, %edi
	movl	(%rax), %esi
	xorl	%eax, %eax
	call	error@PLT
.LVL411:
	.p2align 4,,10
	.p2align 3
.L439:
	.loc 1 652 13 view .LVU979
.LBE469:
.LBB470:
	.loc 1 658 11 is_stmt 1 view .LVU980
	.loc 1 659 11 view .LVU981
	leaq	240(%rsp), %r14
.LVL412:
	.loc 1 659 11 is_stmt 0 view .LVU982
	movl	%r13d, %edi
	movq	%r14, %rsi
	call	sig2str@PLT
.LVL413:
	.loc 1 660 11 is_stmt 1 view .LVU983
	.loc 1 660 11 view .LVU984
	cmpb	$0, dev_debug(%rip)
	je	.L237
	.loc 1 660 11 view .LVU985
	testl	%ebp, %ebp
	leaq	.LC43(%rip), %rdi
.LBB471:
.LBB472:
	.loc 4 100 10 is_stmt 0 view .LVU986
	movq	%r14, %rcx
	pushq	%rdx
	.cfi_def_cfa_offset 344
.LBE472:
.LBE471:
	.loc 1 660 11 view .LVU987
	leaq	.LC2(%rip), %rax
	leaq	.LC4(%rip), %r9
.LBB477:
.LBB473:
	.loc 4 100 10 view .LVU988
	movl	$1, %esi
	movl	%r13d, %r8d
.LBE473:
.LBE477:
	.loc 1 660 11 view .LVU989
	cmovne	%rdi, %rax
	cmpl	$2, %ebx
	leaq	.LC44(%rip), %rbx
.LVL414:
.LBB478:
.LBB474:
	.loc 4 100 10 view .LVU990
	movq	stderr(%rip), %rdi
.LBE474:
.LBE478:
	.loc 1 660 11 view .LVU991
	cmovb	%rbx, %r9
.LVL415:
.LBB479:
.LBI471:
	.loc 4 98 1 is_stmt 1 view .LVU992
.LBB475:
	.loc 4 100 3 view .LVU993
	.loc 4 100 10 is_stmt 0 view .LVU994
	leaq	.LC76(%rip), %rdx
	pushq	%rax
	.cfi_def_cfa_offset 352
	xorl	%eax, %eax
	call	__fprintf_chk@PLT
.LVL416:
	.loc 4 100 10 view .LVU995
	popq	%rcx
	.cfi_def_cfa_offset 344
	popq	%rsi
	.cfi_def_cfa_offset 336
.LVL417:
	.loc 4 100 10 view .LVU996
.LBE475:
.LBE479:
	.loc 1 660 11 is_stmt 1 view .LVU997
.LBB480:
.LBB476:
	.loc 4 100 10 is_stmt 0 view .LVU998
	jmp	.L237
.LVL418:
.L426:
	.loc 4 100 10 view .LVU999
.LBE476:
.LBE480:
.LBE470:
.LBE482:
.LBE467:
.LBE466:
.LBB485:
.LBB434:
	.loc 1 562 9 is_stmt 1 view .LVU1000
	call	quote@PLT
.LVL419:
.LBB416:
.LBB417:
	.loc 4 100 10 is_stmt 0 view .LVU1001
	movq	stderr(%rip), %rdi
	leaq	.LC59(%rip), %rdx
	movl	$1, %esi
.LBE417:
.LBE416:
	.loc 1 562 9 view .LVU1002
	movq	%rax, %rcx
.LBB420:
.LBB418:
	.loc 4 100 10 view .LVU1003
	xorl	%eax, %eax
.LBE418:
.LBE420:
	.loc 1 562 9 view .LVU1004
	addq	$8, %rbx
.LVL420:
.LBB421:
.LBI416:
	.loc 4 98 1 is_stmt 1 view .LVU1005
.LBB419:
	.loc 4 100 3 view .LVU1006
	.loc 4 100 10 is_stmt 0 view .LVU1007
	call	__fprintf_chk@PLT
.LVL421:
	.loc 4 100 10 view .LVU1008
	jmp	.L206
.LVL422:
.L440:
	.loc 4 100 10 view .LVU1009
.LBE419:
.LBE421:
.LBE434:
.LBE485:
	.loc 1 921 3 is_stmt 1 view .LVU1010
	call	__errno_location@PLT
.LVL423:
	.loc 1 921 6 is_stmt 0 view .LVU1011
	cmpb	$0, sig_mask_changed(%rip)
	movq	%rax, 16(%rsp)
	jne	.L442
.L241:
	.loc 1 924 3 is_stmt 1 view .LVU1012
	.loc 1 924 6 is_stmt 0 view .LVU1013
	cmpb	$0, report_signal_handling(%rip)
	jne	.L443
.L249:
	.loc 1 927 3 is_stmt 1 view .LVU1014
	.loc 1 927 6 is_stmt 0 view .LVU1015
	cmpq	$0, 24(%rsp)
	je	.L250
	.loc 1 929 7 is_stmt 1 view .LVU1016
	.loc 1 929 7 view .LVU1017
	cmpb	$0, dev_debug(%rip)
	jne	.L444
.L251:
	.loc 1 929 7 discriminator 3 view .LVU1018
	.loc 1 931 7 discriminator 3 view .LVU1019
	.loc 1 931 11 is_stmt 0 discriminator 3 view .LVU1020
	movq	24(%rsp), %rdi
	call	chdir@PLT
.LVL424:
	.loc 1 931 10 discriminator 3 view .LVU1021
	testl	%eax, %eax
	jne	.L445
.L250:
	.loc 1 936 3 is_stmt 1 view .LVU1022
	.loc 1 936 6 is_stmt 0 view .LVU1023
	cmpb	$0, dev_debug(%rip)
	jne	.L252
.L258:
	.loc 1 943 3 is_stmt 1 view .LVU1024
	.loc 1 943 30 is_stmt 0 view .LVU1025
	movslq	optind(%rip), %rax
	.loc 1 943 25 view .LVU1026
	movq	8(%rsp), %rbx
	leaq	(%rbx,%rax,8), %rax
	.loc 1 943 3 view .LVU1027
	movq	(%rax), %rdi
	movq	%rax, %rsi
	call	execvp@PLT
.LVL425:
	.loc 1 945 3 is_stmt 1 view .LVU1028
	.loc 1 945 51 is_stmt 0 view .LVU1029
	movq	16(%rsp), %rax
	cmpl	$2, (%rax)
	je	.L446
.LVL426:
	.loc 1 946 3 is_stmt 1 view .LVU1030
	.loc 1 946 37 is_stmt 0 view .LVU1031
	movslq	optind(%rip), %rax
	.loc 1 946 3 view .LVU1032
	movq	8(%rsp), %rbx
	movq	(%rbx,%rax,8), %rdi
	call	quote@PLT
.LVL427:
	leaq	.LC84(%rip), %rdx
	xorl	%edi, %edi
	movq	%rax, %rcx
	movq	16(%rsp), %rax
	movl	(%rax), %esi
	xorl	%eax, %eax
	call	error@PLT
.LVL428:
	.loc 1 948 3 is_stmt 1 view .LVU1033
	.loc 1 946 3 is_stmt 0 view .LVU1034
	movl	$126, %eax
.LVL429:
.L121:
	.loc 1 952 1 view .LVU1035
	movq	264(%rsp), %rbx
	xorq	%fs:40, %rbx
	jne	.L447
	addq	$280, %rsp
	.cfi_remember_state
	.cfi_def_cfa_offset 56
	popq	%rbx
	.cfi_def_cfa_offset 48
	popq	%rbp
	.cfi_def_cfa_offset 40
	popq	%r12
	.cfi_def_cfa_offset 32
	popq	%r13
	.cfi_def_cfa_offset 24
	popq	%r14
	.cfi_def_cfa_offset 16
	popq	%r15
	.cfi_def_cfa_offset 8
	ret
.LVL430:
.L436:
	.cfi_restore_state
.LBB486:
.LBB435:
.LBB422:
.LBB400:
.LBB388:
	.loc 1 466 19 is_stmt 1 view .LVU1036
	addq	$2, %rbp
.LVL431:
	.loc 1 467 19 view .LVU1037
	.loc 1 468 19 view .LVU1038
	.loc 1 467 23 is_stmt 0 view .LVU1039
	movl	$1, %r8d
	.loc 1 468 19 view .LVU1040
	jmp	.L183
.LVL432:
.L189:
.LBB379:
.LBB374:
	.loc 1 210 15 is_stmt 1 view .LVU1041
	.loc 1 210 15 view .LVU1042
	leaq	__PRETTY_FUNCTION__.7836(%rip), %rcx
	movl	$210, %edx
	leaq	.LC0(%rip), %rsi
	leaq	.LC53(%rip), %rdi
	call	__assert_fail@PLT
.LVL433:
.L431:
	.loc 1 210 15 is_stmt 0 view .LVU1043
.LBE374:
.LBE379:
.LBE388:
.LBE400:
.LBE422:
.LBE435:
.LBE486:
	.loc 1 870 7 is_stmt 1 view .LVU1044
	.loc 1 871 7 view .LVU1045
	addl	$1, %ebx
	movl	%ebx, optind(%rip)
	.loc 1 874 3 view .LVU1046
	jmp	.L215
.LVL434:
.L444:
	.loc 1 929 7 discriminator 1 view .LVU1047
	movq	24(%rsp), %rsi
	movl	$4, %edi
	call	quotearg_style@PLT
.LVL435:
.LBB487:
.LBB488:
	.loc 4 100 10 is_stmt 0 discriminator 1 view .LVU1048
	movq	stderr(%rip), %rdi
	movl	$1, %esi
	leaq	.LC79(%rip), %rdx
.LBE488:
.LBE487:
	.loc 1 929 7 discriminator 1 view .LVU1049
	movq	%rax, %rcx
.LVL436:
.LBB490:
.LBI487:
	.loc 4 98 1 is_stmt 1 discriminator 1 view .LVU1050
.LBB489:
	.loc 4 100 3 discriminator 1 view .LVU1051
	.loc 4 100 10 is_stmt 0 discriminator 1 view .LVU1052
	xorl	%eax, %eax
	call	__fprintf_chk@PLT
.LVL437:
	.loc 4 100 10 discriminator 1 view .LVU1053
	jmp	.L251
.LVL438:
.L225:
	.loc 4 100 10 discriminator 1 view .LVU1054
.LBE489:
.LBE490:
	.loc 1 897 3 is_stmt 1 view .LVU1055
	.loc 1 899 3 view .LVU1056
	.loc 1 905 3 view .LVU1057
	.loc 1 905 6 is_stmt 0 view .LVU1058
	cmpl	56(%rsp), %r12d
	jl	.L275
.LVL439:
.L394:
	.loc 1 905 6 view .LVU1059
	cmpq	$0, 24(%rsp)
	jne	.L448
.L275:
.LBB491:
	.loc 1 914 7 is_stmt 1 view .LVU1060
	.loc 1 914 20 is_stmt 0 view .LVU1061
	movq	environ(%rip), %rbx
.LVL440:
	.loc 1 915 7 is_stmt 1 view .LVU1062
	.loc 1 915 13 view .LVU1063
	.loc 1 915 14 is_stmt 0 view .LVU1064
	movq	(%rbx), %rdx
	.loc 1 915 13 view .LVU1065
	testq	%rdx, %rdx
	je	.L231
	cmpb	$1, 62(%rsp)
.LBB492:
.LBB493:
	.loc 4 107 10 view .LVU1066
	leaq	.LC73(%rip), %r12
	sbbl	%ebp, %ebp
	andl	$10, %ebp
	.p2align 4,,10
	.p2align 3
.L230:
	.loc 4 107 10 view .LVU1067
.LBE493:
.LBE492:
	.loc 1 916 9 is_stmt 1 view .LVU1068
	.loc 1 916 27 is_stmt 0 view .LVU1069
	addq	$8, %rbx
.LVL441:
.LBB495:
.LBI492:
	.loc 4 105 1 is_stmt 1 view .LVU1070
.LBB494:
	.loc 4 107 3 view .LVU1071
	.loc 4 107 10 is_stmt 0 view .LVU1072
	movl	%ebp, %ecx
	movq	%r12, %rsi
	movl	$1, %edi
	xorl	%eax, %eax
	call	__printf_chk@PLT
.LVL442:
	.loc 4 107 10 view .LVU1073
.LBE494:
.LBE495:
	.loc 1 915 13 is_stmt 1 view .LVU1074
	.loc 1 915 14 is_stmt 0 view .LVU1075
	movq	(%rbx), %rdx
	.loc 1 915 13 view .LVU1076
	testq	%rdx, %rdx
	jne	.L230
.L231:
	.loc 1 917 14 view .LVU1077
	xorl	%eax, %eax
	jmp	.L121
.LVL443:
.L432:
	.loc 1 917 14 view .LVU1078
.LBE491:
.LBB496:
.LBB497:
.LBB498:
	.loc 1 176 22 is_stmt 1 view .LVU1079
	movq	usvars(%rip), %r13
	.loc 1 176 15 is_stmt 0 view .LVU1080
	xorl	%r12d, %r12d
	.loc 1 176 3 view .LVU1081
	cmpq	$0, usvars_used(%rip)
.LBB499:
.LBB500:
	.loc 4 100 10 view .LVU1082
	leaq	.LC67(%rip), %rbp
	movq	%r13, %rdi
.LBE500:
.LBE499:
	.loc 1 176 3 view .LVU1083
	jne	.L216
	jmp	.L221
.LVL444:
	.p2align 4,,10
	.p2align 3
.L219:
	.loc 1 178 7 is_stmt 1 view .LVU1084
	.loc 1 180 7 view .LVU1085
	.loc 1 180 27 is_stmt 0 view .LVU1086
	movq	usvars(%rip), %r13
	addq	%r13, %rbx
	.loc 1 180 11 view .LVU1087
	movq	(%rbx), %rdi
	call	unsetenv@PLT
.LVL445:
	.loc 1 180 10 view .LVU1088
	testl	%eax, %eax
	jne	.L449
	.loc 1 176 39 is_stmt 1 view .LVU1089
	addq	$1, %r12
.LVL446:
	.loc 1 176 22 view .LVU1090
	.loc 1 176 3 is_stmt 0 view .LVU1091
	cmpq	usvars_used(%rip), %r12
	jnb	.L450
.LVL447:
.L216:
	.loc 1 178 7 is_stmt 1 view .LVU1092
	.loc 1 178 7 view .LVU1093
	cmpb	$0, dev_debug(%rip)
	leaq	0(,%r12,8), %rbx
	je	.L219
	.loc 1 178 7 view .LVU1094
.LVL448:
.LBB502:
.LBI499:
	.loc 4 98 1 view .LVU1095
.LBB501:
	.loc 4 100 3 view .LVU1096
	.loc 4 100 10 is_stmt 0 view .LVU1097
	movq	0(%r13,%r12,8), %rcx
	movq	%rbp, %rdx
	movl	$1, %esi
	xorl	%eax, %eax
	movq	stderr(%rip), %rdi
	call	__fprintf_chk@PLT
.LVL449:
	.loc 4 100 10 view .LVU1098
	jmp	.L219
.LVL450:
.L450:
	.loc 4 100 10 view .LVU1099
	movq	usvars(%rip), %rdi
.LVL451:
.L221:
	.loc 4 100 10 view .LVU1100
.LBE501:
.LBE502:
.LBE498:
	.loc 1 185 3 is_stmt 1 view .LVU1101
	call	free@PLT
.LVL452:
	.loc 1 186 3 view .LVU1102
	movq	$0, usvars(%rip)
	.loc 1 187 3 view .LVU1103
	movq	$0, usvars_used(%rip)
	.loc 1 188 3 view .LVU1104
	movq	$0, usvars_alloc(%rip)
	.loc 1 189 1 is_stmt 0 view .LVU1105
	jmp	.L217
.LVL453:
.L437:
	.loc 1 189 1 view .LVU1106
.LBE497:
.LBE496:
.LBB506:
.LBB452:
.LBB448:
.LBB446:
	.loc 6 180 7 is_stmt 1 view .LVU1107
	.loc 6 180 10 is_stmt 0 view .LVU1108
	testq	%rsi, %rsi
	je	.L279
	.loc 6 191 7 is_stmt 1 view .LVU1109
	.loc 6 191 11 is_stmt 0 view .LVU1110
	movl	$8, %edx
	movq	%rdx, %rax
	mulq	%rsi
	seto	%dl
	movzbl	%dl, %edx
	testq	%rax, %rax
	js	.L146
	.loc 6 191 10 view .LVU1111
	testq	%rdx, %rdx
	je	.L142
.L146:
	.loc 6 192 9 is_stmt 1 view .LVU1112
	call	xalloc_die@PLT
.LVL454:
.L433:
	.loc 6 192 9 is_stmt 0 view .LVU1113
.LBE446:
.LBE448:
.LBE452:
.LBE506:
.LBB507:
	.loc 1 876 7 is_stmt 1 discriminator 1 view .LVU1114
.LBB457:
.LBI457:
	.loc 4 98 1 discriminator 1 view .LVU1115
.LBB458:
	.loc 4 100 3 discriminator 1 view .LVU1116
	.loc 4 100 10 is_stmt 0 discriminator 1 view .LVU1117
	movq	stderr(%rip), %rcx
	movl	$17, %edx
	movl	$1, %esi
	leaq	.LC66(%rip), %rdi
	call	fwrite@PLT
.LVL455:
	.loc 4 100 10 discriminator 1 view .LVU1118
	jmp	.L218
.LVL456:
.L284:
	.loc 4 100 10 discriminator 1 view .LVU1119
.LBE458:
.LBE457:
.LBE507:
.LBB508:
.LBB436:
	.loc 1 577 11 view .LVU1120
	movl	$0, 56(%rsp)
.LVL457:
	.loc 1 577 11 view .LVU1121
	jmp	.L211
.LVL458:
.L425:
	.loc 1 560 7 is_stmt 1 view .LVU1122
	movq	32(%rsp), %rax
	movq	8(%rax), %rdi
	leaq	16(%rax), %r9
	movq	%r9, 40(%rsp)
.LVL459:
	.loc 1 560 7 is_stmt 0 view .LVU1123
	call	quote@PLT
.LVL460:
.LBB423:
.LBB424:
	.loc 4 100 10 view .LVU1124
	movq	stderr(%rip), %rdi
	movl	$1, %esi
	leaq	.LC58(%rip), %rdx
.LBE424:
.LBE423:
	.loc 1 560 7 view .LVU1125
	movq	%rax, %rcx
.LVL461:
.LBB426:
.LBI423:
	.loc 4 98 1 is_stmt 1 view .LVU1126
.LBB425:
	.loc 4 100 3 view .LVU1127
	.loc 4 100 10 is_stmt 0 view .LVU1128
	xorl	%eax, %eax
	call	__fprintf_chk@PLT
.LVL462:
	.loc 4 100 10 view .LVU1129
	movq	40(%rsp), %r9
	movq	%r9, %rbx
.LVL463:
	.loc 4 100 10 view .LVU1130
	jmp	.L206
.LVL464:
.L446:
	.loc 4 100 10 view .LVU1131
.LBE425:
.LBE426:
.LBE436:
.LBE508:
	.loc 1 946 3 is_stmt 1 view .LVU1132
	movq	8(%rsp), %rbx
	.loc 1 946 37 is_stmt 0 view .LVU1133
	movslq	optind(%rip), %rax
	.loc 1 946 3 view .LVU1134
	movq	(%rbx,%rax,8), %rdi
	call	quote@PLT
.LVL465:
	xorl	%edi, %edi
	leaq	.LC84(%rip), %rdx
	movq	%rax, %rcx
	movq	16(%rsp), %rax
	movl	(%rax), %esi
	xorl	%eax, %eax
	call	error@PLT
.LVL466:
	.loc 1 948 3 is_stmt 1 view .LVU1135
	.loc 1 948 49 is_stmt 0 view .LVU1136
	movslq	optind(%rip), %rax
	.loc 1 948 37 view .LVU1137
	movl	$32, %esi
	movq	(%rbx,%rax,8), %rdi
	call	strchr@PLT
.LVL467:
	.loc 1 948 34 view .LVU1138
	testq	%rax, %rax
	je	.L451
	.loc 1 949 5 is_stmt 1 view .LVU1139
	.loc 1 949 18 is_stmt 0 view .LVU1140
	movl	$5, %edx
	leaq	.LC61(%rip), %rsi
	xorl	%edi, %edi
	call	dcgettext@PLT
.LVL468:
	.loc 1 949 5 view .LVU1141
	xorl	%esi, %esi
	xorl	%edi, %edi
	.loc 1 949 18 view .LVU1142
	movq	%rax, %rdx
	.loc 1 949 5 view .LVU1143
	xorl	%eax, %eax
	call	error@PLT
.LVL469:
	movl	$127, %eax
.LVL470:
	.loc 1 949 5 view .LVU1144
	jmp	.L121
.L252:
	.loc 1 938 7 is_stmt 1 discriminator 1 view .LVU1145
	.loc 1 938 7 discriminator 1 view .LVU1146
	.loc 1 938 7 discriminator 1 view .LVU1147
.LVL471:
.LBB509:
.LBI509:
	.loc 4 98 1 discriminator 1 view .LVU1148
.LBB510:
	.loc 4 100 3 discriminator 1 view .LVU1149
	.loc 4 100 10 is_stmt 0 discriminator 1 view .LVU1150
	movslq	optind(%rip), %rax
	movq	8(%rsp), %r14
	leaq	.LC81(%rip), %rdx
	movl	$1, %esi
	movq	stderr(%rip), %rdi
.LBE510:
.LBE509:
.LBB512:
.LBB513:
.LBB514:
	leaq	.LC82(%rip), %r12
.LBE514:
.LBE513:
.LBE512:
.LBB523:
.LBB511:
	movq	(%r14,%rax,8), %rcx
	xorl	%eax, %eax
	call	__fprintf_chk@PLT
.LVL472:
	.loc 4 100 10 discriminator 1 view .LVU1151
.LBE511:
.LBE523:
	.loc 1 938 7 is_stmt 1 discriminator 1 view .LVU1152
	.loc 1 939 7 discriminator 1 view .LVU1153
.LBB524:
	.loc 1 939 12 discriminator 1 view .LVU1154
	.loc 1 939 12 is_stmt 0 discriminator 1 view .LVU1155
	movslq	optind(%rip), %rbx
	movl	56(%rsp), %r13d
	.loc 1 939 7 discriminator 1 view .LVU1156
	jmp	.L255
.LVL473:
.L256:
	.loc 1 940 9 is_stmt 1 discriminator 3 view .LVU1157
	.loc 1 939 34 discriminator 3 view .LVU1158
	.loc 1 939 34 is_stmt 0 discriminator 3 view .LVU1159
	addq	$1, %rbx
.LVL474:
.L255:
	.loc 1 939 34 discriminator 3 view .LVU1160
	movl	%ebx, %ebp
.LVL475:
	.loc 1 939 26 is_stmt 1 discriminator 2 view .LVU1161
	.loc 1 939 7 is_stmt 0 discriminator 2 view .LVU1162
	cmpl	%ebx, %r13d
	jle	.L258
	.loc 1 940 9 is_stmt 1 view .LVU1163
	.loc 1 940 9 view .LVU1164
	cmpb	$0, dev_debug(%rip)
	je	.L256
	.loc 1 940 9 discriminator 1 view .LVU1165
	movq	(%r14,%rbx,8), %rdi
	call	quote@PLT
.LVL476:
.LBB519:
.LBI513:
	.loc 4 98 1 discriminator 1 view .LVU1166
.LBB515:
	.loc 4 100 3 discriminator 1 view .LVU1167
.LBE515:
.LBE519:
	.loc 1 940 9 is_stmt 0 discriminator 1 view .LVU1168
	movl	%ebp, %ecx
.LBB520:
.LBB516:
	.loc 4 100 10 discriminator 1 view .LVU1169
	movq	%r12, %rdx
.LBE516:
.LBE520:
	.loc 1 940 9 discriminator 1 view .LVU1170
	subl	optind(%rip), %ecx
.LBB521:
.LBB517:
	.loc 4 100 10 discriminator 1 view .LVU1171
	movq	stderr(%rip), %rdi
.LBE517:
.LBE521:
	.loc 1 940 9 discriminator 1 view .LVU1172
	movq	%rax, %r8
.LBB522:
.LBB518:
	.loc 4 100 10 discriminator 1 view .LVU1173
	movl	$1, %esi
	xorl	%eax, %eax
	call	__fprintf_chk@PLT
.LVL477:
	.loc 4 100 10 discriminator 1 view .LVU1174
	jmp	.L256
.LVL478:
.L443:
	.loc 4 100 10 discriminator 1 view .LVU1175
.LBE518:
.LBE522:
.LBE524:
	.loc 1 925 5 is_stmt 1 view .LVU1176
	call	list_signal_handling
.LVL479:
	jmp	.L249
.L442:
	.loc 1 922 5 view .LVU1177
.LBB525:
.LBI525:
	.loc 1 716 1 view .LVU1178
.LBB526:
	.loc 1 719 3 view .LVU1179
	.loc 1 720 3 view .LVU1180
	.loc 1 722 3 view .LVU1181
	leaq	80(%rsp), %rbp
.LBB527:
	.loc 1 727 12 is_stmt 0 view .LVU1182
	movl	$1, %r15d
.LBB528:
	.loc 1 747 11 view .LVU1183
	leaq	240(%rsp), %r12
.LBE528:
.LBE527:
	.loc 1 722 3 view .LVU1184
	movq	%rbp, %rdi
.LBB534:
	.loc 1 737 21 view .LVU1185
	leaq	.LC45(%rip), %r14
	.loc 1 732 21 view .LVU1186
	leaq	.LC3(%rip), %rbx
.LBE534:
	.loc 1 722 3 view .LVU1187
	call	sigemptyset@PLT
.LVL480:
	.loc 1 724 3 is_stmt 1 view .LVU1188
	.loc 1 724 7 is_stmt 0 view .LVU1189
	movq	%rbp, %rdx
	xorl	%esi, %esi
	xorl	%edi, %edi
	call	sigprocmask@PLT
.LVL481:
	.loc 1 724 6 view .LVU1190
	testl	%eax, %eax
	je	.L242
	jmp	.L452
.LVL482:
	.p2align 4,,10
	.p2align 3
.L455:
.LBB535:
	.loc 1 731 11 is_stmt 1 view .LVU1191
	movq	%rbp, %rdi
	.loc 1 732 21 is_stmt 0 view .LVU1192
	movq	%rbx, %r13
	.loc 1 731 11 view .LVU1193
	call	sigaddset@PLT
.LVL483:
	.loc 1 732 11 is_stmt 1 view .LVU1194
.L244:
	.loc 1 744 7 view .LVU1195
	.loc 1 744 10 is_stmt 0 view .LVU1196
	cmpb	$0, dev_debug(%rip)
	jne	.L453
.LVL484:
.L246:
	.loc 1 727 38 is_stmt 1 view .LVU1197
	.loc 1 727 39 is_stmt 0 view .LVU1198
	addl	$1, %r15d
.LVL485:
	.loc 1 727 19 is_stmt 1 view .LVU1199
	.loc 1 727 3 is_stmt 0 view .LVU1200
	cmpl	$65, %r15d
	je	.L454
.LVL486:
.L242:
	.loc 1 729 7 is_stmt 1 view .LVU1201
	.loc 1 729 11 is_stmt 0 view .LVU1202
	movl	%r15d, %esi
	leaq	block_signals(%rip), %rdi
	call	sigismember@PLT
.LVL487:
	.loc 1 731 11 view .LVU1203
	movl	%r15d, %esi
	.loc 1 729 10 view .LVU1204
	testl	%eax, %eax
	jne	.L455
	.loc 1 734 12 is_stmt 1 view .LVU1205
	.loc 1 734 16 is_stmt 0 view .LVU1206
	leaq	unblock_signals(%rip), %rdi
	call	sigismember@PLT
.LVL488:
	.loc 1 734 15 view .LVU1207
	testl	%eax, %eax
	je	.L246
	.loc 1 736 11 is_stmt 1 view .LVU1208
	movl	%r15d, %esi
	movq	%rbp, %rdi
	.loc 1 737 21 is_stmt 0 view .LVU1209
	movq	%r14, %r13
	.loc 1 736 11 view .LVU1210
	call	sigdelset@PLT
.LVL489:
	.loc 1 737 11 is_stmt 1 view .LVU1211
	.loc 1 737 11 is_stmt 0 view .LVU1212
	jmp	.L244
.LVL490:
.L453:
.LBB533:
	.loc 1 746 11 is_stmt 1 view .LVU1213
	.loc 1 747 11 view .LVU1214
	movq	%r12, %rsi
	movl	%r15d, %edi
	call	sig2str@PLT
.LVL491:
	.loc 1 748 11 view .LVU1215
	.loc 1 748 11 view .LVU1216
	cmpb	$0, dev_debug(%rip)
	je	.L246
	.loc 1 748 11 view .LVU1217
.LVL492:
.LBB529:
.LBI529:
	.loc 4 98 1 view .LVU1218
.LBB530:
	.loc 4 100 3 view .LVU1219
	.loc 4 100 10 is_stmt 0 view .LVU1220
	movq	stderr(%rip), %rdi
	movq	%r13, %r9
	movl	%r15d, %r8d
	movq	%r12, %rcx
	leaq	.LC77(%rip), %rdx
	movl	$1, %esi
	xorl	%eax, %eax
	call	__fprintf_chk@PLT
.LVL493:
	.loc 4 100 10 view .LVU1221
.LBE530:
.LBE529:
	.loc 1 748 11 is_stmt 1 view .LVU1222
.LBB532:
.LBB531:
	.loc 4 100 10 is_stmt 0 view .LVU1223
	jmp	.L246
.LVL494:
.L454:
	.loc 4 100 10 view .LVU1224
.LBE531:
.LBE532:
.LBE533:
.LBE535:
	.loc 1 753 3 is_stmt 1 view .LVU1225
	.loc 1 753 7 is_stmt 0 view .LVU1226
	xorl	%edx, %edx
	movq	%rbp, %rsi
	movl	$2, %edi
	call	sigprocmask@PLT
.LVL495:
	.loc 1 753 6 view .LVU1227
	testl	%eax, %eax
	je	.L241
.LBB536:
	.loc 1 754 5 is_stmt 1 view .LVU1228
	movl	$5, %edx
	leaq	.LC78(%rip), %rsi
	xorl	%edi, %edi
	call	dcgettext@PLT
.LVL496:
	movl	$125, %edi
	movq	%rax, %rdx
	movq	16(%rsp), %rax
	movl	(%rax), %esi
	xorl	%eax, %eax
	call	error@PLT
.LVL497:
.L279:
	.loc 1 754 5 is_stmt 0 view .LVU1229
.LBE536:
.LBE526:
.LBE525:
.LBB539:
.LBB453:
.LBB449:
.LBB447:
.LBB445:
	.loc 6 189 13 view .LVU1230
	movl	$16, %esi
.LVL498:
	.loc 6 189 13 view .LVU1231
	jmp	.L142
.LVL499:
.L451:
	.loc 6 189 13 view .LVU1232
.LBE445:
.LBE447:
.LBE449:
.LBE453:
.LBE539:
	movl	$127, %eax
	jmp	.L121
.LVL500:
.L280:
.LBB540:
.LBB437:
.LBB427:
.LBB401:
	.loc 1 408 12 view .LVU1233
	movq	%r9, %r15
	jmp	.L172
.LVL501:
.L126:
	.loc 1 408 12 view .LVU1234
.LBE401:
.LBE427:
.LBE437:
.LBE540:
	.loc 1 857 24 view .LVU1235
	movl	$5, %edx
	leaq	.LC60(%rip), %rsi
	xorl	%edi, %edi
	movl	%ecx, 56(%rsp)
.LVL502:
	.loc 1 857 11 is_stmt 1 view .LVU1236
	.loc 1 857 24 is_stmt 0 view .LVU1237
	call	dcgettext@PLT
.LVL503:
	.loc 1 857 11 view .LVU1238
	movl	56(%rsp), %ecx
	xorl	%esi, %esi
	xorl	%edi, %edi
	.loc 1 857 24 view .LVU1239
	movq	%rax, %rdx
	.loc 1 857 11 view .LVU1240
	xorl	%eax, %eax
	call	error@PLT
.LVL504:
	.loc 1 858 11 is_stmt 1 view .LVU1241
	.loc 1 858 24 is_stmt 0 view .LVU1242
	movl	$5, %edx
	leaq	.LC61(%rip), %rsi
	jmp	.L410
.LVL505:
.L420:
.LBB541:
.LBB438:
.LBB428:
.LBB402:
.LBB389:
.LBB347:
.LBB340:
.LBB333:
	.loc 1 314 13 is_stmt 1 view .LVU1243
	movl	$5, %edx
	leaq	.LC48(%rip), %rsi
	xorl	%edi, %edi
.LVL506:
	.loc 1 314 13 is_stmt 0 view .LVU1244
	call	dcgettext@PLT
.LVL507:
	.loc 1 314 13 view .LVU1245
	xorl	%esi, %esi
	movl	$125, %edi
	movq	%rax, %rdx
	xorl	%eax, %eax
	call	error@PLT
.LVL508:
.L421:
	.loc 1 314 13 view .LVU1246
.LBE333:
.LBB334:
	.loc 1 318 13 is_stmt 1 view .LVU1247
	movl	$5, %edx
	leaq	.LC49(%rip), %rsi
	xorl	%edi, %edi
.LVL509:
	.loc 1 318 13 is_stmt 0 view .LVU1248
	call	dcgettext@PLT
.LVL510:
	.loc 1 318 13 view .LVU1249
	xorl	%esi, %esi
	movl	$125, %edi
	movq	%rax, %rdx
	xorl	%eax, %eax
	call	error@PLT
.LVL511:
.L423:
	.loc 1 318 13 view .LVU1250
.LBE334:
	.loc 1 303 11 is_stmt 1 view .LVU1251
	leaq	__PRETTY_FUNCTION__.7861(%rip), %rcx
	movl	$303, %edx
	leaq	.LC0(%rip), %rsi
	leaq	.LC47(%rip), %rdi
.LVL512:
	.loc 1 303 11 is_stmt 0 view .LVU1252
	call	__assert_fail@PLT
.LVL513:
.L424:
	.loc 1 308 11 is_stmt 1 view .LVU1253
	leaq	__PRETTY_FUNCTION__.7861(%rip), %rcx
	movl	$308, %edx
	leaq	.LC0(%rip), %rsi
	leaq	.LC47(%rip), %rdi
.LVL514:
	.loc 1 308 11 is_stmt 0 view .LVU1254
	call	__assert_fail@PLT
.LVL515:
.L415:
.LBB335:
	.loc 1 336 13 is_stmt 1 view .LVU1255
	movl	$5, %edx
	leaq	.LC50(%rip), %rsi
	call	dcgettext@PLT
.LVL516:
	.loc 1 336 13 is_stmt 0 view .LVU1256
	movq	%r12, %rcx
	xorl	%esi, %esi
	movl	$125, %edi
	movq	%rax, %rdx
	xorl	%eax, %eax
	call	error@PLT
.LVL517:
.L438:
	.loc 1 336 13 view .LVU1257
.LBE335:
.LBE340:
.LBE347:
.LBE389:
.LBE402:
.LBE428:
.LBE438:
.LBE541:
.LBB542:
.LBB484:
.LBB483:
.LBB481:
	.loc 1 644 9 is_stmt 1 view .LVU1258
	movl	$5, %edx
	leaq	.LC74(%rip), %rsi
	xorl	%edi, %edi
	call	dcgettext@PLT
.LVL518:
	.loc 1 644 9 is_stmt 0 view .LVU1259
	movq	%rax, %r12
	call	__errno_location@PLT
.LVL519:
	movl	%r13d, %ecx
	movq	%r12, %rdx
	movl	$125, %edi
	movl	(%rax), %esi
	xorl	%eax, %eax
	call	error@PLT
.LVL520:
.L434:
	.loc 1 644 9 view .LVU1260
.LBE481:
.LBE483:
.LBE484:
.LBE542:
.LBB543:
	.loc 1 890 11 is_stmt 1 view .LVU1261
	.loc 1 890 15 is_stmt 0 view .LVU1262
	movb	$0, (%rbx)
	.loc 1 891 11 is_stmt 1 view .LVU1263
	movq	8(%rsp), %rbx
.LVL521:
	.loc 1 891 11 is_stmt 0 view .LVU1264
	movslq	optind(%rip), %rax
	movq	(%rbx,%rax,8), %rdi
	call	quote@PLT
.LVL522:
	movl	$5, %edx
	leaq	.LC70(%rip), %rsi
	xorl	%edi, %edi
	movq	%rax, %r13
	call	dcgettext@PLT
.LVL523:
	movq	%rax, %r12
	call	__errno_location@PLT
.LVL524:
	movq	%r13, %rcx
	movq	%r12, %rdx
	movl	$125, %edi
	movl	(%rax), %esi
	xorl	%eax, %eax
	call	error@PLT
.LVL525:
.L445:
	.loc 1 891 11 view .LVU1265
.LBE543:
.LBB544:
	.loc 1 932 9 is_stmt 1 view .LVU1266
	movq	24(%rsp), %rsi
	movl	$4, %edi
	call	quotearg_style@PLT
.LVL526:
	movl	$5, %edx
	leaq	.LC80(%rip), %rsi
	xorl	%edi, %edi
	movq	%rax, %r12
	call	dcgettext@PLT
.LVL527:
	movq	%r12, %rcx
	movl	$125, %edi
	movq	%rax, %rdx
	movq	16(%rsp), %rax
	movl	(%rax), %esi
	xorl	%eax, %eax
	call	error@PLT
.LVL528:
.L417:
	.loc 1 932 9 is_stmt 0 view .LVU1267
.LBE544:
.LBB545:
.LBB439:
.LBB429:
.LBB403:
.LBB390:
.LBB348:
.LBB341:
	xorl	%ebx, %ebx
	jmp	.L262
.LVL529:
.L272:
	.loc 1 932 9 view .LVU1268
.LBE341:
.LBB342:
	.loc 1 347 5 is_stmt 1 view .LVU1269
	movl	$5, %edx
	leaq	.LC51(%rip), %rsi
	xorl	%edi, %edi
	call	dcgettext@PLT
.LVL530:
	xorl	%esi, %esi
	movl	$125, %edi
	movq	%rax, %rdx
	xorl	%eax, %eax
	call	error@PLT
.LVL531:
.L427:
	.loc 1 347 5 is_stmt 0 view .LVU1270
.LBE342:
.LBE348:
.LBE390:
.LBB391:
.LBB380:
	.loc 1 487 13 is_stmt 1 view .LVU1271
	leaq	__PRETTY_FUNCTION__.7893(%rip), %rcx
	movl	$487, %edx
	leaq	.LC0(%rip), %rsi
	leaq	.LC54(%rip), %rdi
	call	__assert_fail@PLT
.LVL532:
.L452:
	.loc 1 487 13 is_stmt 0 view .LVU1272
.LBE380:
.LBE391:
.LBE403:
.LBE429:
.LBE439:
.LBE545:
.LBB546:
.LBB538:
.LBB537:
	.loc 1 725 5 is_stmt 1 view .LVU1273
	movl	$5, %edx
	leaq	.LC6(%rip), %rsi
	xorl	%edi, %edi
	call	dcgettext@PLT
.LVL533:
	movl	$125, %edi
	movq	%rax, %rdx
	movq	16(%rsp), %rax
	movl	(%rax), %esi
	xorl	%eax, %eax
	call	error@PLT
.LVL534:
.L448:
	.loc 1 725 5 is_stmt 0 view .LVU1274
.LBE537:
.LBE538:
.LBE546:
	.loc 1 907 7 is_stmt 1 view .LVU1275
	.loc 1 907 20 is_stmt 0 view .LVU1276
	movl	$5, %edx
	leaq	.LC72(%rip), %rsi
	jmp	.L410
.LVL535:
.L449:
.LBB547:
.LBB505:
.LBB504:
.LBB503:
	.loc 1 181 9 is_stmt 1 view .LVU1277
	movq	(%rbx), %rdi
	call	quote@PLT
.LVL536:
	movl	$5, %edx
	leaq	.LC68(%rip), %rsi
	xorl	%edi, %edi
	movq	%rax, %r13
	call	dcgettext@PLT
.LVL537:
	movq	%rax, %r12
.LVL538:
	.loc 1 181 9 is_stmt 0 view .LVU1278
	call	__errno_location@PLT
.LVL539:
	movq	%r13, %rcx
	movq	%r12, %rdx
	movl	$125, %edi
	movl	(%rax), %esi
	xorl	%eax, %eax
	call	error@PLT
.LVL540:
.L447:
	.loc 1 181 9 view .LVU1279
.LBE503:
.LBE504:
.LBE505:
.LBE547:
	.loc 1 952 1 view .LVU1280
	call	__stack_chk_fail@PLT
.LVL541:
	.cfi_endproc
.LFE166:
	.size	main, .-main
	.section	.rodata
	.align 8
	.type	__PRETTY_FUNCTION__.7840, @object
	.size	__PRETTY_FUNCTION__.7840, 13
__PRETTY_FUNCTION__.7840:
	.string	"scan_varname"
	.align 8
	.type	__PRETTY_FUNCTION__.7836, @object
	.size	__PRETTY_FUNCTION__.7836, 12
__PRETTY_FUNCTION__.7836:
	.string	"escape_char"
	.align 16
	.type	__PRETTY_FUNCTION__.7861, @object
	.size	__PRETTY_FUNCTION__.7861, 19
__PRETTY_FUNCTION__.7861:
	.string	"validate_split_str"
	.align 8
	.type	__PRETTY_FUNCTION__.7893, @object
	.size	__PRETTY_FUNCTION__.7893, 11
__PRETTY_FUNCTION__.7893:
	.string	"build_argv"
	.local	dummy_environ.8041
	.comm	dummy_environ.8041,8,8
	.section	.rodata.str1.1
.LC85:
	.string	"ignore-environment"
.LC86:
	.string	"null"
.LC87:
	.string	"unset"
.LC88:
	.string	"chdir"
.LC89:
	.string	"default-signal"
.LC90:
	.string	"ignore-signal"
.LC91:
	.string	"block-signal"
.LC92:
	.string	"list-signal-handling"
.LC93:
	.string	"debug"
.LC94:
	.string	"split-string"
.LC95:
	.string	"help"
.LC96:
	.string	"version"
	.section	.data.rel.ro.local,"aw"
	.align 32
	.type	longopts, @object
	.size	longopts, 416
longopts:
	.quad	.LC85
	.long	0
	.zero	4
	.quad	0
	.long	105
	.zero	4
	.quad	.LC86
	.long	0
	.zero	4
	.quad	0
	.long	48
	.zero	4
	.quad	.LC87
	.long	1
	.zero	4
	.quad	0
	.long	117
	.zero	4
	.quad	.LC88
	.long	1
	.zero	4
	.quad	0
	.long	67
	.zero	4
	.quad	.LC89
	.long	2
	.zero	4
	.quad	0
	.long	128
	.zero	4
	.quad	.LC90
	.long	2
	.zero	4
	.quad	0
	.long	129
	.zero	4
	.quad	.LC91
	.long	2
	.zero	4
	.quad	0
	.long	130
	.zero	4
	.quad	.LC92
	.long	0
	.zero	4
	.quad	0
	.long	131
	.zero	4
	.quad	.LC93
	.long	0
	.zero	4
	.quad	0
	.long	118
	.zero	4
	.quad	.LC94
	.long	1
	.zero	4
	.quad	0
	.long	83
	.zero	4
	.quad	.LC95
	.long	0
	.zero	4
	.quad	0
	.long	-130
	.zero	4
	.quad	.LC96
	.long	0
	.zero	4
	.quad	0
	.long	-131
	.zero	4
	.quad	0
	.long	0
	.zero	4
	.quad	0
	.long	0
	.zero	4
	.section	.rodata
	.align 8
	.type	shortopts, @object
	.size	shortopts, 13
shortopts:
	.string	"+C:iS:u:v0 \t"
	.local	report_signal_handling
	.comm	report_signal_handling,1,1
	.local	sig_mask_changed
	.comm	sig_mask_changed,1,1
	.local	unblock_signals
	.comm	unblock_signals,128,32
	.local	block_signals
	.comm	block_signals,128,32
	.local	signals
	.comm	signals,8,8
	.local	vnlen
	.comm	vnlen,8,8
	.local	varname
	.comm	varname,8,8
	.local	dev_debug
	.comm	dev_debug,1,1
	.local	usvars_used
	.comm	usvars_used,8,8
	.local	usvars_alloc
	.comm	usvars_alloc,8,8
	.local	usvars
	.comm	usvars,8,8
	.text
.Letext0:
	.file 7 "/usr/lib/gcc/x86_64-linux-gnu/9/include/stddef.h"
	.file 8 "/usr/include/x86_64-linux-gnu/bits/types.h"
	.file 9 "/usr/include/x86_64-linux-gnu/bits/types/struct_FILE.h"
	.file 10 "/usr/include/x86_64-linux-gnu/bits/types/FILE.h"
	.file 11 "/usr/include/stdio.h"
	.file 12 "/usr/include/x86_64-linux-gnu/bits/sys_errlist.h"
	.file 13 "/usr/include/x86_64-linux-gnu/bits/types/time_t.h"
	.file 14 "/usr/include/x86_64-linux-gnu/bits/types/__sigset_t.h"
	.file 15 "/usr/include/x86_64-linux-gnu/bits/types/sigset_t.h"
	.file 16 "./lib/sys/select.h"
	.file 17 "/usr/include/x86_64-linux-gnu/bits/getopt_core.h"
	.file 18 "/usr/include/x86_64-linux-gnu/bits/getopt_ext.h"
	.file 19 "/usr/include/x86_64-linux-gnu/bits/types/__sigval_t.h"
	.file 20 "/usr/include/x86_64-linux-gnu/bits/types/siginfo_t.h"
	.file 21 "/usr/include/signal.h"
	.file 22 "/usr/include/x86_64-linux-gnu/bits/sigaction.h"
	.file 23 "/usr/include/time.h"
	.file 24 "/usr/include/unistd.h"
	.file 25 "/usr/include/errno.h"
	.file 26 "src/version.h"
	.file 27 "./lib/exitfail.h"
	.file 28 "./lib/timespec.h"
	.file 29 "/usr/include/ctype.h"
	.file 30 "./lib/xalloc-oversized.h"
	.file 31 "./lib/version-etc.h"
	.file 32 "./lib/progname.h"
	.file 33 "./lib/quotearg.h"
	.file 34 "./lib/error.h"
	.file 35 "./lib/quote.h"
	.file 36 "/usr/include/libintl.h"
	.file 37 "/usr/include/stdlib.h"
	.file 38 "/usr/include/string.h"
	.file 39 "/usr/include/assert.h"
	.file 40 "<built-in>"
	.file 41 "./lib/sig2str.h"
	.file 42 "/usr/include/locale.h"
	.file 43 "src/operand2sig.h"
	.section	.note.GNU-stack,"",@progbits
	.section	.note.gnu.property,"a"
	.align 8
	.long	 1f - 0f
	.long	 4f - 1f
	.long	 5
0:
	.string	 "GNU"
1:
	.align 8
	.long	 0xc0000002
	.long	 3f - 2f
2:
	.long	 0x3
3:
	.align 8
4:
