	.file	"expand-common.c"
	.text
.Ltext0:
	.section	.rodata.str1.8,"aMS",@progbits,1
	.align 8
.LC0:
	.string	"'/' specifier only allowed with the last value"
	.text
	.p2align 4
	.type	set_extend_size, @function
set_extend_size:
.LVL0:
.LFB136:
	.file 1 "src/expand-common.c"
	.loc 1 97 1 view -0
	.cfi_startproc
	.loc 1 98 3 view .LVU1
	.loc 1 100 3 view .LVU2
	.loc 1 100 6 is_stmt 0 view .LVU3
	cmpq	$0, extend_size(%rip)
	.loc 1 97 1 view .LVU4
	pushq	%rbx
	.cfi_def_cfa_offset 16
	.cfi_offset 3, -16
	movl	$1, %eax
	.loc 1 97 1 view .LVU5
	movq	%rdi, %rbx
	.loc 1 100 6 view .LVU6
	jne	.L7
.LVL1:
	.loc 1 107 3 is_stmt 1 view .LVU7
	.loc 1 107 15 is_stmt 0 view .LVU8
	movq	%rbx, extend_size(%rip)
	.loc 1 109 3 is_stmt 1 view .LVU9
	.loc 1 110 1 is_stmt 0 view .LVU10
	popq	%rbx
	.cfi_remember_state
	.cfi_def_cfa_offset 8
	ret
.LVL2:
	.p2align 4,,10
	.p2align 3
.L7:
	.cfi_restore_state
	.loc 1 102 7 is_stmt 1 view .LVU11
	.loc 1 103 14 is_stmt 0 view .LVU12
	movl	$5, %edx
	leaq	.LC0(%rip), %rsi
	xorl	%edi, %edi
	call	dcgettext@PLT
.LVL3:
	.loc 1 102 7 view .LVU13
	xorl	%esi, %esi
	xorl	%edi, %edi
	.loc 1 103 14 view .LVU14
	movq	%rax, %rdx
	.loc 1 102 7 view .LVU15
	xorl	%eax, %eax
	call	error@PLT
.LVL4:
	.loc 1 105 7 is_stmt 1 view .LVU16
	.loc 1 107 15 is_stmt 0 view .LVU17
	movq	%rbx, extend_size(%rip)
	.loc 1 105 10 view .LVU18
	xorl	%eax, %eax
.LVL5:
	.loc 1 107 3 is_stmt 1 view .LVU19
	.loc 1 109 3 view .LVU20
	.loc 1 110 1 is_stmt 0 view .LVU21
	popq	%rbx
	.cfi_def_cfa_offset 8
.LVL6:
	.loc 1 110 1 view .LVU22
	ret
	.cfi_endproc
.LFE136:
	.size	set_extend_size, .-set_extend_size
	.section	.rodata.str1.8
	.align 8
.LC1:
	.string	"'+' specifier only allowed with the last value"
	.text
	.p2align 4
	.type	set_increment_size, @function
set_increment_size:
.LVL7:
.LFB137:
	.loc 1 114 1 is_stmt 1 view -0
	.cfi_startproc
	.loc 1 115 3 view .LVU24
	.loc 1 117 3 view .LVU25
	.loc 1 117 6 is_stmt 0 view .LVU26
	cmpq	$0, increment_size(%rip)
	.loc 1 114 1 view .LVU27
	pushq	%rbx
	.cfi_def_cfa_offset 16
	.cfi_offset 3, -16
	movl	$1, %eax
	.loc 1 114 1 view .LVU28
	movq	%rdi, %rbx
	.loc 1 117 6 view .LVU29
	jne	.L13
.LVL8:
	.loc 1 124 3 is_stmt 1 view .LVU30
	.loc 1 124 18 is_stmt 0 view .LVU31
	movq	%rbx, increment_size(%rip)
	.loc 1 126 3 is_stmt 1 view .LVU32
	.loc 1 127 1 is_stmt 0 view .LVU33
	popq	%rbx
	.cfi_remember_state
	.cfi_def_cfa_offset 8
	ret
.LVL9:
	.p2align 4,,10
	.p2align 3
.L13:
	.cfi_restore_state
	.loc 1 119 7 is_stmt 1 view .LVU34
	.loc 1 120 14 is_stmt 0 view .LVU35
	movl	$5, %edx
	leaq	.LC1(%rip), %rsi
	xorl	%edi, %edi
	call	dcgettext@PLT
.LVL10:
	.loc 1 119 7 view .LVU36
	xorl	%esi, %esi
	xorl	%edi, %edi
	.loc 1 120 14 view .LVU37
	movq	%rax, %rdx
	.loc 1 119 7 view .LVU38
	xorl	%eax, %eax
	call	error@PLT
.LVL11:
	.loc 1 122 7 is_stmt 1 view .LVU39
	.loc 1 124 18 is_stmt 0 view .LVU40
	movq	%rbx, increment_size(%rip)
	.loc 1 122 10 view .LVU41
	xorl	%eax, %eax
.LVL12:
	.loc 1 124 3 is_stmt 1 view .LVU42
	.loc 1 126 3 view .LVU43
	.loc 1 127 1 is_stmt 0 view .LVU44
	popq	%rbx
	.cfi_def_cfa_offset 8
.LVL13:
	.loc 1 127 1 view .LVU45
	ret
	.cfi_endproc
.LFE137:
	.size	set_increment_size, .-set_increment_size
	.p2align 4
	.globl	add_tab_stop
	.type	add_tab_stop, @function
add_tab_stop:
.LVL14:
.LFB135:
	.loc 1 79 1 is_stmt 1 view -0
	.cfi_startproc
	.loc 1 79 1 is_stmt 0 view .LVU47
	endbr64
	.loc 1 80 3 is_stmt 1 view .LVU48
	.loc 1 79 1 is_stmt 0 view .LVU49
	pushq	%rbp
	.cfi_def_cfa_offset 16
	.cfi_offset 6, -16
	pushq	%rbx
	.cfi_def_cfa_offset 24
	.cfi_offset 3, -24
	movq	%rdi, %rbx
	subq	$8, %rsp
	.cfi_def_cfa_offset 32
	.loc 1 80 42 view .LVU50
	movq	first_free_tab(%rip), %rdx
	movq	tab_list(%rip), %rdi
.LVL15:
	.loc 1 80 42 view .LVU51
	movq	n_tabs_allocated(%rip), %rax
	.loc 1 80 73 view .LVU52
	testq	%rdx, %rdx
	je	.L27
	.loc 1 80 52 discriminator 1 view .LVU53
	leaq	0(,%rdx,8), %rcx
	.loc 1 80 73 discriminator 1 view .LVU54
	movq	-8(%rdi,%rcx), %rsi
.LVL16:
	.loc 1 81 3 is_stmt 1 discriminator 1 view .LVU55
	.loc 1 81 73 is_stmt 0 discriminator 1 view .LVU56
	cmpq	%rbx, %rsi
	jbe	.L34
.LVL17:
	.loc 1 83 3 is_stmt 1 view .LVU57
	.loc 1 83 6 is_stmt 0 view .LVU58
	cmpq	%rax, %rdx
	je	.L35
	.loc 1 85 3 is_stmt 1 view .LVU59
	.loc 1 85 26 is_stmt 0 view .LVU60
	addq	$1, %rdx
	.loc 1 85 30 view .LVU61
	movq	%rbx, (%rdi,%rcx)
	.loc 1 87 3 is_stmt 1 view .LVU62
	.loc 1 85 26 is_stmt 0 view .LVU63
	movq	%rdx, first_free_tab(%rip)
.LVL18:
.L14:
	.loc 1 93 1 view .LVU64
	addq	$8, %rsp
	.cfi_remember_state
	.cfi_def_cfa_offset 24
	popq	%rbx
	.cfi_def_cfa_offset 16
.LVL19:
	.loc 1 93 1 view .LVU65
	popq	%rbp
	.cfi_def_cfa_offset 8
	ret
.LVL20:
	.p2align 4,,10
	.p2align 3
.L27:
	.cfi_restore_state
	.loc 1 93 1 view .LVU66
	movq	%rbx, %rbp
.L15:
	.loc 1 83 3 is_stmt 1 discriminator 1 view .LVU67
	.loc 1 83 6 is_stmt 0 discriminator 1 view .LVU68
	cmpq	%rax, %rdx
	je	.L25
.L17:
	.loc 1 85 3 is_stmt 1 view .LVU69
	.loc 1 85 30 is_stmt 0 view .LVU70
	movq	%rbx, (%rdi,%rdx,8)
	.loc 1 87 3 is_stmt 1 view .LVU71
	.loc 1 85 26 is_stmt 0 view .LVU72
	leaq	1(%rdx), %rax
	.loc 1 87 6 view .LVU73
	cmpq	%rbp, max_column_width(%rip)
	.loc 1 85 26 view .LVU74
	movq	%rax, first_free_tab(%rip)
	.loc 1 87 6 view .LVU75
	jnb	.L14
	.loc 1 89 7 is_stmt 1 view .LVU76
	.loc 1 91 7 view .LVU77
	.loc 1 91 24 is_stmt 0 view .LVU78
	movq	%rbp, max_column_width(%rip)
	.loc 1 93 1 view .LVU79
	addq	$8, %rsp
	.cfi_remember_state
	.cfi_def_cfa_offset 24
	popq	%rbx
	.cfi_def_cfa_offset 16
.LVL21:
	.loc 1 93 1 view .LVU80
	popq	%rbp
	.cfi_def_cfa_offset 8
	ret
.LVL22:
	.p2align 4,,10
	.p2align 3
.L35:
	.cfi_restore_state
	.loc 1 81 73 view .LVU81
	xorl	%ebp, %ebp
.LVL23:
.L25:
.LBB13:
	.loc 1 84 5 is_stmt 1 view .LVU82
.LBB14:
.LBI14:
	.file 2 "./lib/xalloc.h"
	.loc 2 174 1 view .LVU83
.LBB15:
	.loc 2 176 3 view .LVU84
	.loc 2 178 3 view .LVU85
	.loc 2 178 6 is_stmt 0 view .LVU86
	testq	%rdi, %rdi
	je	.L36
	.loc 2 200 7 is_stmt 1 view .LVU87
	.loc 2 200 10 is_stmt 0 view .LVU88
	movabsq	$768614336404564649, %rdx
	cmpq	%rdx, %rax
	ja	.L23
	.loc 2 203 7 is_stmt 1 view .LVU89
	.loc 2 203 14 is_stmt 0 view .LVU90
	movq	%rax, %rdx
	shrq	%rdx
	.loc 2 203 9 view .LVU91
	leaq	1(%rax,%rdx), %rax
.LVL24:
	.loc 2 203 9 view .LVU92
	leaq	0(,%rax,8), %rsi
.LVL25:
.L19:
	.loc 2 206 3 is_stmt 1 view .LVU93
	.loc 2 206 7 is_stmt 0 view .LVU94
	movq	%rax, n_tabs_allocated(%rip)
	.loc 2 207 3 is_stmt 1 view .LVU95
	.loc 2 207 10 is_stmt 0 view .LVU96
	call	xrealloc@PLT
.LVL26:
	.loc 2 207 10 view .LVU97
	movq	first_free_tab(%rip), %rdx
.LBE15:
.LBE14:
	.loc 1 84 14 view .LVU98
	movq	%rax, tab_list(%rip)
.LBB18:
.LBB17:
	.loc 2 207 10 view .LVU99
	movq	%rax, %rdi
.LVL27:
	.loc 2 207 10 view .LVU100
	jmp	.L17
.LVL28:
	.p2align 4,,10
	.p2align 3
.L36:
	.loc 2 180 7 is_stmt 1 view .LVU101
	.loc 2 180 10 is_stmt 0 view .LVU102
	testq	%rax, %rax
	je	.L28
	.loc 2 191 7 is_stmt 1 view .LVU103
	.loc 2 191 11 is_stmt 0 view .LVU104
	movq	%rax, %rcx
	xorl	%edx, %edx
	movq	%rax, %rsi
	shrq	$61, %rcx
	setne	%dl
	salq	$3, %rsi
	js	.L23
	.loc 2 191 10 view .LVU105
	testq	%rdx, %rdx
	je	.L19
.L23:
	.loc 2 192 9 is_stmt 1 view .LVU106
	call	xalloc_die@PLT
.LVL29:
	.p2align 4,,10
	.p2align 3
.L28:
	.loc 2 192 9 is_stmt 0 view .LVU107
	movl	$128, %esi
.LBB16:
	.loc 2 189 13 view .LVU108
	movl	$16, %eax
.LVL30:
	.loc 2 189 13 view .LVU109
	jmp	.L19
.LVL31:
.L34:
	.loc 2 189 13 view .LVU110
	movq	%rbx, %rbp
	subq	%rsi, %rbp
	jmp	.L15
.LBE16:
.LBE17:
.LBE18:
.LBE13:
	.cfi_endproc
.LFE135:
	.size	add_tab_stop, .-add_tab_stop
	.section	.rodata.str1.8
	.align 8
.LC2:
	.string	"'/' specifier not at start of number: %s"
	.align 8
.LC3:
	.string	"'+' specifier not at start of number: %s"
	.section	.rodata.str1.1,"aMS",@progbits,1
.LC4:
	.string	"0123456789"
.LC5:
	.string	"tab stop is too large %s"
	.section	.rodata.str1.8
	.align 8
.LC6:
	.string	"tab size contains invalid character(s): %s"
	.text
	.p2align 4
	.globl	parse_tab_stops
	.type	parse_tab_stops, @function
parse_tab_stops:
.LVL32:
.LFB138:
	.loc 1 133 1 is_stmt 1 view -0
	.cfi_startproc
	.loc 1 133 1 is_stmt 0 view .LVU112
	endbr64
	.loc 1 134 3 is_stmt 1 view .LVU113
.LVL33:
	.loc 1 135 3 view .LVU114
	.loc 1 136 3 view .LVU115
	.loc 1 137 3 view .LVU116
	.loc 1 138 3 view .LVU117
	.loc 1 139 3 view .LVU118
	.loc 1 141 3 view .LVU119
	.loc 1 141 10 view .LVU120
	.loc 1 133 1 is_stmt 0 view .LVU121
	pushq	%r15
	.cfi_def_cfa_offset 16
	.cfi_offset 15, -16
	pushq	%r14
	.cfi_def_cfa_offset 24
	.cfi_offset 14, -24
	pushq	%r13
	.cfi_def_cfa_offset 32
	.cfi_offset 13, -32
	pushq	%r12
	.cfi_def_cfa_offset 40
	.cfi_offset 12, -40
	pushq	%rbp
	.cfi_def_cfa_offset 48
	.cfi_offset 6, -48
	pushq	%rbx
	.cfi_def_cfa_offset 56
	.cfi_offset 3, -56
	subq	$24, %rsp
	.cfi_def_cfa_offset 80
	.loc 1 141 10 view .LVU122
	movzbl	(%rdi), %r15d
	.loc 1 141 3 view .LVU123
	testb	%r15b, %r15b
	je	.L37
	.loc 1 139 8 view .LVU124
	movb	$1, 8(%rsp)
	movq	%rdi, %rbp
	.loc 1 135 13 view .LVU125
	xorl	%r14d, %r14d
	.loc 1 137 8 view .LVU126
	xorl	%r13d, %r13d
	.loc 1 138 15 view .LVU127
	movq	$0, (%rsp)
	.loc 1 136 8 view .LVU128
	xorl	%r12d, %r12d
	.loc 1 134 8 view .LVU129
	xorl	%ebx, %ebx
	jmp	.L51
.LVL34:
	.p2align 4,,10
	.p2align 3
.L82:
	.loc 1 143 28 discriminator 1 view .LVU130
	call	__ctype_b_loc@PLT
.LVL35:
.LBB19:
.LBI19:
	.file 3 "src/system.h"
	.loc 3 156 29 is_stmt 1 discriminator 1 view .LVU131
.LBB20:
	.loc 3 156 50 discriminator 1 view .LVU132
	.loc 3 156 50 is_stmt 0 discriminator 1 view .LVU133
.LBE20:
.LBE19:
	.loc 1 143 28 discriminator 1 view .LVU134
	movq	%rax, %r8
	movzbl	%r15b, %eax
	movq	(%r8), %rcx
	.loc 1 143 25 discriminator 1 view .LVU135
	testb	$1, (%rcx,%rax,2)
	jne	.L39
	.loc 1 168 12 is_stmt 1 view .LVU136
	.loc 1 168 15 is_stmt 0 view .LVU137
	cmpb	$47, %r15b
	je	.L79
	.loc 1 179 12 is_stmt 1 view .LVU138
	.loc 1 179 15 is_stmt 0 view .LVU139
	cmpb	$43, %r15b
	je	.L80
	.loc 1 190 12 is_stmt 1 view .LVU140
	.loc 1 190 16 is_stmt 0 view .LVU141
	movsbl	%r15b, %edx
	subl	$48, %edx
	.loc 1 190 15 view .LVU142
	cmpl	$9, %edx
	ja	.L47
	.loc 1 192 11 is_stmt 1 view .LVU143
	.loc 1 192 14 is_stmt 0 view .LVU144
	testb	%bl, %bl
	jne	.L48
	.loc 1 194 15 is_stmt 1 view .LVU145
.LVL36:
	.loc 1 195 15 view .LVU146
	.loc 1 196 15 view .LVU147
	.loc 1 200 11 view .LVU148
.LBB21:
	.loc 1 200 16 is_stmt 0 view .LVU149
	movq	%rbp, (%rsp)
	movslq	%edx, %r14
	movq	%rbp, %rax
	movl	$1, %ebx
.LVL37:
	.p2align 4,,10
	.p2align 3
.L41:
	.loc 1 200 16 view .LVU150
.LBE21:
	.loc 1 141 18 is_stmt 1 view .LVU151
	.loc 1 141 10 is_stmt 0 view .LVU152
	movzbl	1(%rax), %r15d
	.loc 1 141 23 view .LVU153
	leaq	1(%rax), %rbp
.LVL38:
	.loc 1 141 10 is_stmt 1 view .LVU154
	.loc 1 141 3 is_stmt 0 view .LVU155
	testb	%r15b, %r15b
	je	.L81
.LVL39:
.L51:
	.loc 1 143 7 is_stmt 1 view .LVU156
	.loc 1 143 10 is_stmt 0 view .LVU157
	cmpb	$44, %r15b
	jne	.L82
.L39:
	.loc 1 145 11 is_stmt 1 view .LVU158
	.loc 1 145 14 is_stmt 0 view .LVU159
	testb	%bl, %bl
	je	.L78
	.loc 1 147 15 is_stmt 1 view .LVU160
	.loc 1 149 25 is_stmt 0 view .LVU161
	movq	%r14, %rdi
	.loc 1 147 18 view .LVU162
	testb	%r12b, %r12b
	jne	.L83
.LVL40:
	.loc 1 155 20 is_stmt 1 view .LVU163
	.loc 1 155 23 is_stmt 0 view .LVU164
	testb	%r13b, %r13b
	je	.L44
	.loc 1 157 19 is_stmt 1 view .LVU165
	.loc 1 157 25 is_stmt 0 view .LVU166
	call	set_increment_size
.LVL41:
	.loc 1 157 25 view .LVU167
	movl	%eax, %r13d
.LVL42:
	.loc 1 157 22 view .LVU168
	testb	%al, %al
	je	.L50
	movq	%rbp, %rax
.LVL43:
	.loc 1 166 23 view .LVU169
	xorl	%ebx, %ebx
.LVL44:
	.loc 1 141 18 is_stmt 1 view .LVU170
	.loc 1 141 10 is_stmt 0 view .LVU171
	movzbl	1(%rax), %r15d
	.loc 1 141 23 view .LVU172
	leaq	1(%rax), %rbp
.LVL45:
	.loc 1 141 10 is_stmt 1 view .LVU173
	.loc 1 141 3 is_stmt 0 view .LVU174
	testb	%r15b, %r15b
	jne	.L51
	.p2align 4,,10
	.p2align 3
.L81:
	.loc 1 219 3 is_stmt 1 view .LVU175
	.loc 1 219 6 is_stmt 0 view .LVU176
	testb	%bl, %bl
	je	.L54
	.loc 1 219 6 view .LVU177
	cmpb	$0, 8(%rsp)
	je	.L50
	.loc 1 221 7 is_stmt 1 view .LVU178
	.loc 1 222 15 is_stmt 0 view .LVU179
	movq	%r14, %rdi
	.loc 1 221 10 view .LVU180
	testb	%r12b, %r12b
	jne	.L84
.LVL46:
	.loc 1 223 12 is_stmt 1 view .LVU181
	.loc 1 223 15 is_stmt 0 view .LVU182
	testb	%r13b, %r13b
	je	.L56
	.loc 1 224 9 is_stmt 1 view .LVU183
	.loc 1 224 15 is_stmt 0 view .LVU184
	call	set_increment_size
.LVL47:
	.loc 1 224 15 view .LVU185
	movb	%al, 8(%rsp)
.LVL48:
.L54:
	.loc 1 229 3 is_stmt 1 view .LVU186
	.loc 1 229 6 is_stmt 0 view .LVU187
	cmpb	$0, 8(%rsp)
	je	.L50
.LVL49:
.L37:
	.loc 1 231 1 view .LVU188
	addq	$24, %rsp
	.cfi_remember_state
	.cfi_def_cfa_offset 56
	popq	%rbx
	.cfi_def_cfa_offset 48
	popq	%rbp
	.cfi_def_cfa_offset 40
	popq	%r12
	.cfi_def_cfa_offset 32
	popq	%r13
	.cfi_def_cfa_offset 24
	popq	%r14
	.cfi_def_cfa_offset 16
	popq	%r15
	.cfi_def_cfa_offset 8
	ret
.LVL50:
	.p2align 4,,10
	.p2align 3
.L87:
	.cfi_restore_state
.LBB23:
	.loc 1 200 16 discriminator 1 view .LVU189
	leaq	(%r14,%r14,4), %rax
	movslq	%edx, %rdx
	leaq	(%rdx,%rax,2), %rax
	cmpq	%r14, %rax
	jb	.L49
	movq	%rax, %r14
.LVL51:
	.p2align 4,,10
	.p2align 3
.L78:
	.loc 1 200 16 discriminator 1 view .LVU190
	movq	%rbp, %rax
	jmp	.L41
.LVL52:
	.p2align 4,,10
	.p2align 3
.L44:
	.loc 1 200 16 discriminator 1 view .LVU191
.LBE23:
	.loc 1 164 17 is_stmt 1 view .LVU192
	call	add_tab_stop
.LVL53:
	.loc 1 164 17 is_stmt 0 view .LVU193
	movl	%r13d, %r12d
.LVL54:
	.loc 1 166 23 view .LVU194
	xorl	%ebx, %ebx
.LVL55:
	.loc 1 164 17 view .LVU195
	movq	%rbp, %rax
	jmp	.L41
.LVL56:
	.p2align 4,,10
	.p2align 3
.L79:
	.loc 1 170 11 is_stmt 1 view .LVU196
	.loc 1 170 14 is_stmt 0 view .LVU197
	testb	%bl, %bl
	jne	.L85
	.loc 1 177 28 view .LVU198
	xorl	%r13d, %r13d
.LVL57:
	.loc 1 177 28 view .LVU199
	movq	%rbp, %rax
	.loc 1 176 25 view .LVU200
	movl	$1, %r12d
.LVL58:
	.loc 1 176 25 view .LVU201
	jmp	.L41
.LVL59:
	.p2align 4,,10
	.p2align 3
.L83:
	.loc 1 149 19 is_stmt 1 view .LVU202
	.loc 1 149 25 is_stmt 0 view .LVU203
	call	set_extend_size
.LVL60:
	.loc 1 149 25 view .LVU204
	movl	%eax, %r12d
.LVL61:
	.loc 1 149 22 view .LVU205
	testb	%al, %al
	je	.L50
	movq	%rbp, %rax
	.loc 1 166 23 view .LVU206
	xorl	%ebx, %ebx
.LVL62:
	.loc 1 166 23 view .LVU207
	jmp	.L41
.LVL63:
	.p2align 4,,10
	.p2align 3
.L80:
	.loc 1 181 11 is_stmt 1 view .LVU208
	.loc 1 181 14 is_stmt 0 view .LVU209
	testb	%bl, %bl
	jne	.L86
	.loc 1 188 25 view .LVU210
	xorl	%r12d, %r12d
.LVL64:
	.loc 1 188 25 view .LVU211
	movq	%rbp, %rax
	.loc 1 187 28 view .LVU212
	movl	$1, %r13d
.LVL65:
	.loc 1 187 28 view .LVU213
	jmp	.L41
.LVL66:
	.p2align 4,,10
	.p2align 3
.L48:
	.loc 1 200 11 is_stmt 1 view .LVU214
.LBB24:
	.loc 1 200 15 is_stmt 0 view .LVU215
	movabsq	$1844674407370955161, %rax
	cmpq	%rax, %r14
	jbe	.L87
.L49:
.LVL67:
.LBB22:
	.loc 1 202 15 is_stmt 1 view .LVU216
	.loc 1 202 28 is_stmt 0 view .LVU217
	movq	(%rsp), %r15
	leaq	.LC4(%rip), %rsi
	movq	%r15, %rdi
	call	strspn@PLT
.LVL68:
	.loc 1 203 31 view .LVU218
	movq	%r15, %rdi
	movq	%r15, (%rsp)
.LVL69:
	.loc 1 203 31 view .LVU219
	movq	%rax, %rsi
	.loc 1 202 28 view .LVU220
	movq	%rax, %rbp
.LVL70:
	.loc 1 203 15 is_stmt 1 view .LVU221
	.loc 1 203 31 is_stmt 0 view .LVU222
	call	xstrndup@PLT
.LVL71:
	.loc 1 204 15 view .LVU223
	movq	%rax, %rdi
	.loc 1 203 31 view .LVU224
	movq	%rax, %r15
.LVL72:
	.loc 1 204 15 is_stmt 1 view .LVU225
	call	quote@PLT
.LVL73:
	.loc 1 204 28 is_stmt 0 view .LVU226
	movl	$5, %edx
	leaq	.LC5(%rip), %rsi
	xorl	%edi, %edi
	.loc 1 204 15 view .LVU227
	movq	%rax, 8(%rsp)
.LVL74:
	.loc 1 204 28 view .LVU228
	call	dcgettext@PLT
.LVL75:
	.loc 1 204 15 view .LVU229
	movq	8(%rsp), %rcx
	xorl	%esi, %esi
	xorl	%edi, %edi
	.loc 1 204 28 view .LVU230
	movq	%rax, %rdx
	.loc 1 204 15 view .LVU231
	xorl	%eax, %eax
	call	error@PLT
.LVL76:
	.loc 1 205 15 is_stmt 1 view .LVU232
	movq	%r15, %rdi
	call	free@PLT
.LVL77:
	.loc 1 206 15 view .LVU233
	.loc 1 207 15 view .LVU234
	.loc 1 207 21 is_stmt 0 view .LVU235
	movq	(%rsp), %r15
.LVL78:
	.loc 1 206 18 view .LVU236
	movb	$0, 8(%rsp)
	.loc 1 207 21 view .LVU237
	leaq	-1(%r15,%rbp), %rax
.LVL79:
	.loc 1 207 21 view .LVU238
	jmp	.L41
.LVL80:
	.p2align 4,,10
	.p2align 3
.L85:
	.loc 1 207 21 view .LVU239
.LBE22:
.LBE24:
	.loc 1 172 15 is_stmt 1 view .LVU240
	movq	%rbp, %rdi
	.loc 1 177 28 is_stmt 0 view .LVU241
	xorl	%r13d, %r13d
.LVL81:
	.loc 1 172 15 view .LVU242
	call	quote@PLT
.LVL82:
	.loc 1 172 28 view .LVU243
	movl	$5, %edx
	leaq	.LC2(%rip), %rsi
	xorl	%edi, %edi
	.loc 1 172 15 view .LVU244
	movq	%rax, %r12
.LVL83:
	.loc 1 172 28 view .LVU245
	call	dcgettext@PLT
.LVL84:
	.loc 1 172 15 view .LVU246
	movq	%r12, %rcx
	xorl	%esi, %esi
	xorl	%edi, %edi
	.loc 1 172 28 view .LVU247
	movq	%rax, %rdx
	.loc 1 172 15 view .LVU248
	xorl	%eax, %eax
	.loc 1 176 25 view .LVU249
	movl	%ebx, %r12d
	.loc 1 172 15 view .LVU250
	call	error@PLT
.LVL85:
	.loc 1 174 15 is_stmt 1 view .LVU251
	.loc 1 174 18 is_stmt 0 view .LVU252
	movb	$0, 8(%rsp)
	.loc 1 172 15 view .LVU253
	movq	%rbp, %rax
	jmp	.L41
.LVL86:
	.p2align 4,,10
	.p2align 3
.L86:
	.loc 1 183 15 is_stmt 1 view .LVU254
	movq	%rbp, %rdi
	.loc 1 187 28 is_stmt 0 view .LVU255
	movl	%ebx, %r13d
.LVL87:
	.loc 1 183 15 view .LVU256
	call	quote@PLT
.LVL88:
	.loc 1 183 28 view .LVU257
	movl	$5, %edx
	leaq	.LC3(%rip), %rsi
	xorl	%edi, %edi
	.loc 1 183 15 view .LVU258
	movq	%rax, %r12
.LVL89:
	.loc 1 183 28 view .LVU259
	call	dcgettext@PLT
.LVL90:
	.loc 1 183 15 view .LVU260
	movq	%r12, %rcx
	xorl	%esi, %esi
	xorl	%edi, %edi
	.loc 1 183 28 view .LVU261
	movq	%rax, %rdx
	.loc 1 183 15 view .LVU262
	xorl	%eax, %eax
	.loc 1 188 25 view .LVU263
	xorl	%r12d, %r12d
	.loc 1 183 15 view .LVU264
	call	error@PLT
.LVL91:
	.loc 1 185 15 is_stmt 1 view .LVU265
	.loc 1 185 18 is_stmt 0 view .LVU266
	movb	$0, 8(%rsp)
	.loc 1 183 15 view .LVU267
	movq	%rbp, %rax
	jmp	.L41
.LVL92:
.L56:
	.loc 1 226 9 is_stmt 1 view .LVU268
	.loc 1 231 1 is_stmt 0 view .LVU269
	addq	$24, %rsp
	.cfi_remember_state
	.cfi_def_cfa_offset 56
.LVL93:
	.loc 1 231 1 view .LVU270
	popq	%rbx
	.cfi_def_cfa_offset 48
.LVL94:
	.loc 1 231 1 view .LVU271
	popq	%rbp
	.cfi_def_cfa_offset 40
.LVL95:
	.loc 1 231 1 view .LVU272
	popq	%r12
	.cfi_def_cfa_offset 32
.LVL96:
	.loc 1 231 1 view .LVU273
	popq	%r13
	.cfi_def_cfa_offset 24
.LVL97:
	.loc 1 231 1 view .LVU274
	popq	%r14
	.cfi_def_cfa_offset 16
	popq	%r15
	.cfi_def_cfa_offset 8
	.loc 1 226 9 view .LVU275
	jmp	add_tab_stop
.LVL98:
.L84:
	.cfi_restore_state
	.loc 1 222 9 is_stmt 1 view .LVU276
	.loc 1 222 15 is_stmt 0 view .LVU277
	call	set_extend_size
.LVL99:
	.loc 1 222 15 view .LVU278
	movb	%al, 8(%rsp)
.LVL100:
	.loc 1 229 3 is_stmt 1 view .LVU279
	.loc 1 229 6 is_stmt 0 view .LVU280
	cmpb	$0, 8(%rsp)
	jne	.L37
	jmp	.L50
.LVL101:
	.p2align 4,,10
	.p2align 3
.L47:
	.loc 1 212 11 is_stmt 1 view .LVU281
	movq	%rbp, %rdi
	call	quote@PLT
.LVL102:
	.loc 1 212 24 is_stmt 0 view .LVU282
	movl	$5, %edx
	leaq	.LC6(%rip), %rsi
	xorl	%edi, %edi
	.loc 1 212 11 view .LVU283
	movq	%rax, %r12
.LVL103:
	.loc 1 212 24 view .LVU284
	call	dcgettext@PLT
.LVL104:
	.loc 1 212 11 view .LVU285
	movq	%r12, %rcx
	xorl	%esi, %esi
	xorl	%edi, %edi
	.loc 1 212 24 view .LVU286
	movq	%rax, %rdx
	.loc 1 212 11 view .LVU287
	xorl	%eax, %eax
	call	error@PLT
.LVL105:
	.loc 1 214 11 is_stmt 1 view .LVU288
	.loc 1 215 11 view .LVU289
	.loc 1 219 3 view .LVU290
	.loc 1 229 3 view .LVU291
.L50:
	.loc 1 230 5 view .LVU292
	movl	$1, %edi
	call	exit@PLT
.LVL106:
	.cfi_endproc
.LFE138:
	.size	parse_tab_stops, .-parse_tab_stops
	.section	.rodata.str1.1
.LC7:
	.string	"tab size cannot be 0"
.LC8:
	.string	"tab sizes must be ascending"
	.section	.rodata.str1.8
	.align 8
.LC9:
	.string	"'/' specifier is mutually exclusive with '+'"
	.text
	.p2align 4
	.globl	finalize_tab_stops
	.type	finalize_tab_stops, @function
finalize_tab_stops:
.LFB140:
	.loc 1 264 1 view -0
	.cfi_startproc
	endbr64
	.loc 1 265 3 view .LVU294
	.loc 1 264 1 is_stmt 0 view .LVU295
	subq	$8, %rsp
	.cfi_def_cfa_offset 16
	.loc 1 265 3 view .LVU296
	movq	first_free_tab(%rip), %rcx
	movq	tab_list(%rip), %rsi
.LVL107:
.LBB31:
.LBI31:
	.loc 1 237 1 is_stmt 1 view .LVU297
.LBB32:
	.loc 1 239 3 view .LVU298
	.loc 1 241 3 view .LVU299
.LBB33:
	.loc 1 241 8 view .LVU300
	.loc 1 241 22 view .LVU301
	.loc 1 241 3 is_stmt 0 view .LVU302
	testq	%rcx, %rcx
	je	.L89
.LBE33:
	.loc 1 239 13 view .LVU303
	xorl	%edx, %edx
.LBB36:
	.loc 1 241 15 view .LVU304
	xorl	%eax, %eax
.LVL108:
	.p2align 4,,10
	.p2align 3
.L92:
	.loc 1 243 7 is_stmt 1 view .LVU305
	movq	%rdx, %rdi
	.loc 1 243 15 is_stmt 0 view .LVU306
	movq	(%rsi,%rax,8), %rdx
.LVL109:
	.loc 1 243 10 view .LVU307
	testq	%rdx, %rdx
	je	.L105
	.loc 1 245 7 is_stmt 1 view .LVU308
	.loc 1 245 10 is_stmt 0 view .LVU309
	cmpq	%rdx, %rdi
	jnb	.L106
	.loc 1 247 7 is_stmt 1 view .LVU310
.LVL110:
	.loc 1 241 35 view .LVU311
	.loc 1 241 36 is_stmt 0 view .LVU312
	addq	$1, %rax
.LVL111:
	.loc 1 241 22 is_stmt 1 view .LVU313
	.loc 1 241 3 is_stmt 0 view .LVU314
	cmpq	%rax, %rcx
	jne	.L92
.LBE36:
	.loc 1 250 3 is_stmt 1 view .LVU315
	.loc 1 250 7 is_stmt 0 view .LVU316
	movq	increment_size(%rip), %rax
.LVL112:
	.loc 1 250 6 view .LVU317
	testq	%rax, %rax
	je	.L98
	.loc 1 250 22 view .LVU318
	cmpq	$0, extend_size(%rip)
	jne	.L100
.L98:
.LVL113:
	.loc 1 250 22 view .LVU319
.LBE32:
.LBE31:
	.loc 1 271 8 is_stmt 1 view .LVU320
	.loc 1 271 11 is_stmt 0 view .LVU321
	cmpq	$1, %rcx
	je	.L107
.L96:
	.loc 1 274 5 is_stmt 1 view .LVU322
	.loc 1 274 14 is_stmt 0 view .LVU323
	movq	$0, tab_size(%rip)
.L88:
	.loc 1 275 1 view .LVU324
	addq	$8, %rsp
	.cfi_remember_state
	.cfi_def_cfa_offset 8
	ret
	.p2align 4,,10
	.p2align 3
.L107:
	.cfi_restore_state
	.loc 1 271 49 discriminator 1 view .LVU325
	orq	extend_size(%rip), %rax
	jne	.L96
	.loc 1 272 5 is_stmt 1 view .LVU326
	.loc 1 272 14 is_stmt 0 view .LVU327
	movq	(%rsi), %rax
	movq	%rax, tab_size(%rip)
	jmp	.L88
.LVL114:
.L100:
.LBB41:
.LBB39:
.LBB37:
	.loc 1 251 5 is_stmt 1 view .LVU328
	movl	$5, %edx
	leaq	.LC9(%rip), %rsi
.LVL115:
	.loc 1 251 5 is_stmt 0 view .LVU329
	xorl	%edi, %edi
	call	dcgettext@PLT
.LVL116:
	.loc 1 251 5 view .LVU330
	xorl	%esi, %esi
	movl	$1, %edi
	movq	%rax, %rdx
	xorl	%eax, %eax
	call	error@PLT
.LVL117:
	.p2align 4,,10
	.p2align 3
.L89:
	.loc 1 251 5 view .LVU331
.LBE37:
	.loc 1 250 3 is_stmt 1 view .LVU332
	.loc 1 250 7 is_stmt 0 view .LVU333
	movq	increment_size(%rip), %rdx
	movq	extend_size(%rip), %rax
	.loc 1 250 6 view .LVU334
	testq	%rdx, %rdx
	jne	.L108
.LVL118:
	.loc 1 250 6 view .LVU335
.LBE39:
.LBE41:
	.loc 1 268 5 is_stmt 1 view .LVU336
	.loc 1 270 68 is_stmt 0 view .LVU337
	testq	%rax, %rax
	movl	$8, %edx
	cmove	%rdx, %rax
.L94:
	.loc 1 268 33 view .LVU338
	movq	%rax, max_column_width(%rip)
	.loc 1 268 14 view .LVU339
	movq	%rax, tab_size(%rip)
	.loc 1 275 1 view .LVU340
	addq	$8, %rsp
	.cfi_remember_state
	.cfi_def_cfa_offset 8
	ret
.LVL119:
	.p2align 4,,10
	.p2align 3
.L106:
	.cfi_restore_state
.LBB42:
.LBB40:
.LBB38:
.LBB34:
	.loc 1 246 9 is_stmt 1 view .LVU341
	movl	$5, %edx
	leaq	.LC8(%rip), %rsi
.LVL120:
	.loc 1 246 9 is_stmt 0 view .LVU342
	xorl	%edi, %edi
.LVL121:
	.loc 1 246 9 view .LVU343
	call	dcgettext@PLT
.LVL122:
	.loc 1 246 9 view .LVU344
	xorl	%esi, %esi
	movl	$1, %edi
	movq	%rax, %rdx
	xorl	%eax, %eax
	call	error@PLT
.LVL123:
	.p2align 4,,10
	.p2align 3
.L105:
	.loc 1 246 9 view .LVU345
.LBE34:
.LBB35:
	.loc 1 244 9 is_stmt 1 view .LVU346
	movl	$5, %edx
	leaq	.LC7(%rip), %rsi
.LVL124:
	.loc 1 244 9 is_stmt 0 view .LVU347
	xorl	%edi, %edi
.LVL125:
	.loc 1 244 9 view .LVU348
	call	dcgettext@PLT
.LVL126:
	.loc 1 244 9 view .LVU349
	xorl	%esi, %esi
	movl	$1, %edi
	movq	%rax, %rdx
	xorl	%eax, %eax
	call	error@PLT
.LVL127:
.L108:
	.loc 1 244 9 view .LVU350
.LBE35:
.LBE38:
	.loc 1 250 22 view .LVU351
	testq	%rax, %rax
	jne	.L100
	.loc 1 250 7 view .LVU352
	movq	%rdx, %rax
	jmp	.L94
.LBE40:
.LBE42:
	.cfi_endproc
.LFE140:
	.size	finalize_tab_stops, .-finalize_tab_stops
	.p2align 4
	.globl	get_next_tab_column
	.type	get_next_tab_column, @function
get_next_tab_column:
.LVL128:
.LFB141:
	.loc 1 281 1 is_stmt 1 view -0
	.cfi_startproc
	.loc 1 281 1 is_stmt 0 view .LVU354
	endbr64
	.loc 1 282 3 is_stmt 1 view .LVU355
	.loc 1 285 7 is_stmt 0 view .LVU356
	movq	tab_size(%rip), %rcx
	.loc 1 282 13 view .LVU357
	movb	$0, (%rdx)
	.loc 1 285 3 is_stmt 1 view .LVU358
	.loc 1 281 1 is_stmt 0 view .LVU359
	movq	%rdi, %rax
	.loc 1 285 6 view .LVU360
	testq	%rcx, %rcx
	jne	.L119
	.loc 1 290 11 is_stmt 1 view .LVU361
	movq	(%rsi), %rcx
	.loc 1 290 22 is_stmt 0 view .LVU362
	movq	first_free_tab(%rip), %rdi
.LVL129:
.LBB43:
	.loc 1 292 33 view .LVU363
	movq	tab_list(%rip), %r9
.LBE43:
	.loc 1 290 3 view .LVU364
	cmpq	%rcx, %rdi
	ja	.L114
	jmp	.L112
.LVL130:
	.p2align 4,,10
	.p2align 3
.L120:
	.loc 1 290 41 is_stmt 1 view .LVU365
	.loc 1 290 53 is_stmt 0 view .LVU366
	addq	$1, %rcx
	movq	%rcx, (%rsi)
	.loc 1 290 11 is_stmt 1 view .LVU367
	.loc 1 290 3 is_stmt 0 view .LVU368
	cmpq	%rdi, %rcx
	je	.L112
.LVL131:
.L114:
.LBB44:
	.loc 1 292 9 is_stmt 1 view .LVU369
	.loc 1 292 19 is_stmt 0 view .LVU370
	movq	(%r9,%rcx,8), %r8
.LVL132:
	.loc 1 293 9 is_stmt 1 view .LVU371
	.loc 1 293 12 is_stmt 0 view .LVU372
	cmpq	%r8, %rax
	jnb	.L120
.LVL133:
.L109:
	.loc 1 293 12 view .LVU373
.LBE44:
	.loc 1 311 1 view .LVU374
	movq	%r8, %rax
	ret
.LVL134:
	.p2align 4,,10
	.p2align 3
.L119:
	.loc 1 299 5 is_stmt 1 view .LVU375
	.loc 1 299 43 is_stmt 0 view .LVU376
	xorl	%edx, %edx
.LVL135:
	.loc 1 299 19 view .LVU377
	leaq	(%rcx,%rax), %r8
	.loc 1 299 43 view .LVU378
	divq	%rcx
.LVL136:
	.loc 1 299 19 view .LVU379
	subq	%rdx, %r8
	.loc 1 311 1 view .LVU380
	movq	%r8, %rax
	ret
.LVL137:
	.p2align 4,,10
	.p2align 3
.L112:
	.loc 1 298 3 is_stmt 1 view .LVU381
	.loc 1 298 7 is_stmt 0 view .LVU382
	movq	extend_size(%rip), %rcx
	.loc 1 298 6 view .LVU383
	testq	%rcx, %rcx
	jne	.L119
	.loc 1 302 3 is_stmt 1 view .LVU384
	.loc 1 302 7 is_stmt 0 view .LVU385
	movq	increment_size(%rip), %r8
	.loc 1 302 6 view .LVU386
	testq	%r8, %r8
	jne	.L121
	.loc 1 309 3 is_stmt 1 view .LVU387
	.loc 1 309 13 is_stmt 0 view .LVU388
	movb	$1, (%rdx)
	.loc 1 310 3 is_stmt 1 view .LVU389
	.loc 1 311 1 is_stmt 0 view .LVU390
	movq	%r8, %rax
.LVL138:
	.loc 1 311 1 view .LVU391
	ret
.LVL139:
	.p2align 4,,10
	.p2align 3
.L121:
.LBB45:
	.loc 1 304 7 is_stmt 1 view .LVU392
	.loc 1 306 7 view .LVU393
	.loc 1 304 17 is_stmt 0 view .LVU394
	movq	tab_list(%rip), %rdx
.LVL140:
	.loc 1 306 21 view .LVU395
	leaq	(%r8,%rax), %rcx
	.loc 1 306 50 view .LVU396
	subq	-8(%rdx,%rdi,8), %rax
.LVL141:
	.loc 1 306 61 view .LVU397
	xorl	%edx, %edx
	divq	%r8
	.loc 1 306 21 view .LVU398
	subq	%rdx, %rcx
	movq	%rcx, %r8
	jmp	.L109
.LBE45:
	.cfi_endproc
.LFE141:
	.size	get_next_tab_column, .-get_next_tab_column
	.p2align 4
	.globl	set_file_list
	.type	set_file_list, @function
set_file_list:
.LVL142:
.LFB142:
	.loc 1 319 1 is_stmt 1 view -0
	.cfi_startproc
	.loc 1 319 1 is_stmt 0 view .LVU400
	endbr64
	.loc 1 320 3 is_stmt 1 view .LVU401
	.loc 1 323 15 is_stmt 0 view .LVU402
	testq	%rdi, %rdi
	leaq	stdin_argv(%rip), %rax
	.loc 1 320 19 view .LVU403
	movb	$0, have_read_stdin(%rip)
	.loc 1 322 3 is_stmt 1 view .LVU404
	.loc 1 323 15 is_stmt 0 view .LVU405
	cmove	%rax, %rdi
.LVL143:
	.loc 1 323 15 view .LVU406
	movq	%rdi, file_list(%rip)
	.loc 1 326 1 view .LVU407
	ret
	.cfi_endproc
.LFE142:
	.size	set_file_list, .-set_file_list
	.section	.rodata.str1.1
.LC10:
	.string	"src/expand-common.c"
.LC11:
	.string	"prev_file"
.LC12:
	.string	"%s"
.LC13:
	.string	"r"
	.text
	.p2align 4
	.globl	next_file
	.type	next_file, @function
next_file:
.LVL144:
.LFB143:
	.loc 1 335 1 is_stmt 1 view -0
	.cfi_startproc
	.loc 1 335 1 is_stmt 0 view .LVU409
	endbr64
	.loc 1 336 3 is_stmt 1 view .LVU410
	.loc 1 337 3 view .LVU411
	.loc 1 339 3 view .LVU412
	.loc 1 335 1 is_stmt 0 view .LVU413
	pushq	%r13
	.cfi_def_cfa_offset 16
	.cfi_offset 13, -16
	pushq	%r12
	.cfi_def_cfa_offset 24
	.cfi_offset 12, -24
	pushq	%rbx
	.cfi_def_cfa_offset 32
	.cfi_offset 3, -32
	subq	$16, %rsp
	.cfi_def_cfa_offset 48
	.loc 1 339 6 view .LVU414
	testq	%rdi, %rdi
	je	.L126
	.loc 1 341 7 is_stmt 1 view .LVU415
	movq	prev_file.7181(%rip), %rdx
	testq	%rdx, %rdx
	je	.L148
	movq	%rdi, %r12
	.loc 1 342 7 view .LVU416
.LVL145:
.LBB46:
.LBI46:
	.file 4 "/usr/include/x86_64-linux-gnu/bits/stdio.h"
	.loc 4 135 1 view .LVU417
.LBB47:
	.loc 4 137 3 view .LVU418
	.loc 4 137 3 is_stmt 0 view .LVU419
.LBE47:
.LBE46:
	.loc 1 342 10 view .LVU420
	testb	$32, (%rdi)
	jne	.L149
	.loc 1 347 7 is_stmt 1 view .LVU421
	.loc 1 347 11 is_stmt 0 view .LVU422
	cmpb	$45, (%rdx)
	.loc 1 348 9 view .LVU423
	movq	%r12, %rdi
	.loc 1 347 11 view .LVU424
	jne	.L130
.L151:
	.loc 1 347 10 view .LVU425
	cmpb	$0, 1(%rdx)
	jne	.L130
	.loc 1 348 9 is_stmt 1 view .LVU426
	call	clearerr_unlocked@PLT
.LVL146:
.L126:
	.loc 1 356 9 view .LVU427
	.loc 1 356 28 is_stmt 0 view .LVU428
	movq	file_list(%rip), %rax
	.loc 1 364 14 view .LVU429
	leaq	.LC13(%rip), %rbx
	.loc 1 356 16 view .LVU430
	movq	(%rax), %r12
.LVL147:
	.loc 1 356 28 view .LVU431
	leaq	8(%rax), %rdx
	movq	%rdx, file_list(%rip)
	.loc 1 356 9 view .LVU432
	testq	%r12, %r12
	jne	.L132
	jmp	.L138
.LVL148:
	.p2align 4,,10
	.p2align 3
.L135:
	.loc 1 364 9 is_stmt 1 view .LVU433
	.loc 1 364 14 is_stmt 0 view .LVU434
	movq	%rbx, %rsi
	movq	%r12, %rdi
	call	fopen@PLT
.LVL149:
	.loc 1 365 7 is_stmt 1 view .LVU435
	.loc 1 365 10 is_stmt 0 view .LVU436
	testq	%rax, %rax
	jne	.L150
.L137:
	.loc 1 371 7 is_stmt 1 view .LVU437
	movq	%r12, %rdx
	movl	$3, %esi
	xorl	%edi, %edi
	call	quotearg_n_style_colon@PLT
.LVL150:
	.loc 1 371 7 is_stmt 0 view .LVU438
	movq	%rax, %r12
.LVL151:
	.loc 1 371 17 view .LVU439
	call	__errno_location@PLT
.LVL152:
	.loc 1 371 7 view .LVU440
	movq	%r12, %rcx
	leaq	.LC12(%rip), %rdx
	xorl	%edi, %edi
	movl	(%rax), %esi
	xorl	%eax, %eax
	call	error@PLT
.LVL153:
	.loc 1 372 7 is_stmt 1 view .LVU441
	.loc 1 356 28 is_stmt 0 view .LVU442
	movq	file_list(%rip), %rax
	.loc 1 372 19 view .LVU443
	movl	$1, exit_status(%rip)
	.loc 1 356 9 is_stmt 1 view .LVU444
	.loc 1 356 16 is_stmt 0 view .LVU445
	movq	(%rax), %r12
.LVL154:
	.loc 1 356 28 view .LVU446
	leaq	8(%rax), %rdx
	movq	%rdx, file_list(%rip)
	.loc 1 356 9 view .LVU447
	testq	%r12, %r12
	je	.L138
.L132:
	.loc 1 358 7 is_stmt 1 view .LVU448
	.loc 1 358 11 is_stmt 0 view .LVU449
	cmpb	$45, (%r12)
	jne	.L135
	.loc 1 358 10 view .LVU450
	cmpb	$0, 1(%r12)
	jne	.L135
	.loc 1 360 11 is_stmt 1 view .LVU451
	.loc 1 361 14 is_stmt 0 view .LVU452
	movq	stdin(%rip), %rax
	.loc 1 360 27 view .LVU453
	movb	$1, have_read_stdin(%rip)
	.loc 1 361 11 is_stmt 1 view .LVU454
.LVL155:
	.loc 1 365 7 view .LVU455
	.loc 1 365 10 is_stmt 0 view .LVU456
	testq	%rax, %rax
	je	.L137
.L150:
	.loc 1 367 11 is_stmt 1 view .LVU457
	.loc 1 368 11 is_stmt 0 view .LVU458
	movq	%rax, %rdi
	movl	$2, %esi
	movq	%rax, 8(%rsp)
	.loc 1 367 21 view .LVU459
	movq	%r12, prev_file.7181(%rip)
	.loc 1 368 11 is_stmt 1 view .LVU460
	call	fadvise@PLT
.LVL156:
	.loc 1 369 11 view .LVU461
	.loc 1 369 18 is_stmt 0 view .LVU462
	movq	8(%rsp), %rax
	.loc 1 375 1 view .LVU463
	addq	$16, %rsp
	.cfi_remember_state
	.cfi_def_cfa_offset 32
	popq	%rbx
	.cfi_def_cfa_offset 24
	popq	%r12
	.cfi_def_cfa_offset 16
.LVL157:
	.loc 1 375 1 view .LVU464
	popq	%r13
	.cfi_def_cfa_offset 8
	ret
.LVL158:
	.p2align 4,,10
	.p2align 3
.L138:
	.cfi_restore_state
	.loc 1 375 1 view .LVU465
	addq	$16, %rsp
	.cfi_remember_state
	.cfi_def_cfa_offset 32
	.loc 1 374 10 view .LVU466
	xorl	%eax, %eax
	.loc 1 375 1 view .LVU467
	popq	%rbx
	.cfi_def_cfa_offset 24
	popq	%r12
	.cfi_def_cfa_offset 16
.LVL159:
	.loc 1 375 1 view .LVU468
	popq	%r13
	.cfi_def_cfa_offset 8
	ret
.LVL160:
	.p2align 4,,10
	.p2align 3
.L130:
	.cfi_restore_state
	.loc 1 349 12 is_stmt 1 view .LVU469
	.loc 1 349 16 is_stmt 0 view .LVU470
	call	rpl_fclose@PLT
.LVL161:
	.loc 1 349 15 view .LVU471
	testl	%eax, %eax
	je	.L126
	.loc 1 351 11 is_stmt 1 view .LVU472
	movq	prev_file.7181(%rip), %rdx
	movl	$3, %esi
	xorl	%edi, %edi
	call	quotearg_n_style_colon@PLT
.LVL162:
	movq	%rax, %r12
.LVL163:
	.loc 1 351 21 is_stmt 0 view .LVU473
	call	__errno_location@PLT
.LVL164:
	.loc 1 351 11 view .LVU474
	movq	%r12, %rcx
	leaq	.LC12(%rip), %rdx
	xorl	%edi, %edi
	movl	(%rax), %esi
	xorl	%eax, %eax
	call	error@PLT
.LVL165:
	.loc 1 352 11 is_stmt 1 view .LVU475
	.loc 1 352 23 is_stmt 0 view .LVU476
	movl	$1, exit_status(%rip)
	jmp	.L126
.LVL166:
	.p2align 4,,10
	.p2align 3
.L149:
	.loc 1 344 11 is_stmt 1 view .LVU477
	xorl	%edi, %edi
.LVL167:
	.loc 1 344 11 is_stmt 0 view .LVU478
	movl	$3, %esi
	call	quotearg_n_style_colon@PLT
.LVL168:
	movq	%rax, %r13
	.loc 1 344 21 view .LVU479
	call	__errno_location@PLT
.LVL169:
	.loc 1 344 11 view .LVU480
	xorl	%edi, %edi
	leaq	.LC12(%rip), %rdx
	movq	%r13, %rcx
	movl	(%rax), %esi
	xorl	%eax, %eax
	call	error@PLT
.LVL170:
	.loc 1 345 11 is_stmt 1 view .LVU481
	movq	prev_file.7181(%rip), %rdx
	.loc 1 347 7 view .LVU482
	.loc 1 348 9 is_stmt 0 view .LVU483
	movq	%r12, %rdi
	.loc 1 345 23 view .LVU484
	movl	$1, exit_status(%rip)
	.loc 1 347 11 view .LVU485
	cmpb	$45, (%rdx)
	jne	.L130
.LVL171:
	.loc 1 347 11 view .LVU486
	jmp	.L151
.L148:
	.loc 1 341 7 is_stmt 1 discriminator 1 view .LVU487
	leaq	__PRETTY_FUNCTION__.7183(%rip), %rcx
	movl	$341, %edx
	leaq	.LC10(%rip), %rsi
	leaq	.LC11(%rip), %rdi
.LVL172:
	.loc 1 341 7 is_stmt 0 discriminator 1 view .LVU488
	call	__assert_fail@PLT
.LVL173:
	.cfi_endproc
.LFE143:
	.size	next_file, .-next_file
	.section	.rodata.str1.1
.LC14:
	.string	"-"
	.text
	.p2align 4
	.globl	cleanup_file_list_stdin
	.type	cleanup_file_list_stdin, @function
cleanup_file_list_stdin:
.LFB144:
	.loc 1 380 1 is_stmt 1 view -0
	.cfi_startproc
	endbr64
	.loc 1 381 5 view .LVU490
	.loc 1 381 8 is_stmt 0 view .LVU491
	cmpb	$0, have_read_stdin(%rip)
	jne	.L161
	ret
	.p2align 4,,10
	.p2align 3
.L161:
	.loc 1 380 1 discriminator 1 view .LVU492
	subq	$8, %rsp
	.cfi_def_cfa_offset 16
	.loc 1 381 28 discriminator 1 view .LVU493
	movq	stdin(%rip), %rdi
	call	rpl_fclose@PLT
.LVL174:
	.loc 1 381 25 discriminator 1 view .LVU494
	testl	%eax, %eax
	jne	.L162
	.loc 1 383 1 view .LVU495
	addq	$8, %rsp
	.cfi_remember_state
	.cfi_def_cfa_offset 8
	ret
.L162:
	.cfi_restore_state
.LBB48:
	.loc 1 382 7 is_stmt 1 view .LVU496
	call	__errno_location@PLT
.LVL175:
	leaq	.LC14(%rip), %rdx
	movl	$1, %edi
	movl	(%rax), %esi
	xorl	%eax, %eax
	call	error@PLT
.LVL176:
.LBE48:
	.cfi_endproc
.LFE144:
	.size	cleanup_file_list_stdin, .-cleanup_file_list_stdin
	.section	.rodata.str1.8
	.align 8
.LC15:
	.string	"  -t, --tabs=LIST  use comma separated list of tab positions.\n"
	.align 8
.LC16:
	.ascii	"                     The last specified position can be pref"
	.ascii	"ixed with '/'\n                     to specify a "
	.string	"tab size to use after the last\n                     explicitly specified tab stop.  Also a prefix of '+'\n                     can be used to align remaining tab stops relative to\n                     the last specified tab stop instead of the first column\n"
	.text
	.p2align 4
	.globl	emit_tab_list_info
	.type	emit_tab_list_info, @function
emit_tab_list_info:
.LFB145:
	.loc 1 388 1 view -0
	.cfi_startproc
	endbr64
	.loc 1 390 3 view .LVU498
	.loc 1 388 1 is_stmt 0 view .LVU499
	pushq	%rbp
	.cfi_def_cfa_offset 16
	.cfi_offset 6, -16
	.loc 1 390 3 view .LVU500
	movl	$5, %edx
	movq	stdout(%rip), %rbp
	xorl	%edi, %edi
	leaq	.LC15(%rip), %rsi
	call	dcgettext@PLT
.LVL177:
	movq	%rbp, %rsi
	movq	%rax, %rdi
	call	fputs_unlocked@PLT
.LVL178:
	.loc 1 393 3 is_stmt 1 view .LVU501
	movq	stdout(%rip), %rbp
	xorl	%edi, %edi
	leaq	.LC16(%rip), %rsi
	movl	$5, %edx
	call	dcgettext@PLT
.LVL179:
	movq	%rbp, %rsi
	.loc 1 400 1 is_stmt 0 view .LVU502
	popq	%rbp
	.cfi_def_cfa_offset 8
	.loc 1 393 3 view .LVU503
	movq	%rax, %rdi
	jmp	fputs_unlocked@PLT
.LVL180:
	.cfi_endproc
.LFE145:
	.size	emit_tab_list_info, .-emit_tab_list_info
	.section	.rodata
	.align 8
	.type	__PRETTY_FUNCTION__.7183, @object
	.size	__PRETTY_FUNCTION__.7183, 10
__PRETTY_FUNCTION__.7183:
	.string	"next_file"
	.local	prev_file.7181
	.comm	prev_file.7181,8,8
	.globl	exit_status
	.bss
	.align 4
	.type	exit_status, @object
	.size	exit_status, 4
exit_status:
	.zero	4
	.local	have_read_stdin
	.comm	have_read_stdin,1,1
	.section	.data.rel.local,"aw"
	.align 16
	.type	stdin_argv, @object
	.size	stdin_argv, 16
stdin_argv:
	.quad	.LC14
	.quad	0
	.local	file_list
	.comm	file_list,8,8
	.local	first_free_tab
	.comm	first_free_tab,8,8
	.local	n_tabs_allocated
	.comm	n_tabs_allocated,8,8
	.local	tab_list
	.comm	tab_list,8,8
	.globl	max_column_width
	.bss
	.align 8
	.type	max_column_width, @object
	.size	max_column_width, 8
max_column_width:
	.zero	8
	.local	increment_size
	.comm	increment_size,8,8
	.local	extend_size
	.comm	extend_size,8,8
	.local	tab_size
	.comm	tab_size,8,8
	.globl	convert_entire_line
	.type	convert_entire_line, @object
	.size	convert_entire_line, 1
convert_entire_line:
	.zero	1
	.text
.Letext0:
	.file 5 "/usr/lib/gcc/x86_64-linux-gnu/9/include/stddef.h"
	.file 6 "/usr/include/x86_64-linux-gnu/bits/types.h"
	.file 7 "/usr/include/x86_64-linux-gnu/bits/types/struct_FILE.h"
	.file 8 "/usr/include/x86_64-linux-gnu/bits/types/FILE.h"
	.file 9 "/usr/include/stdio.h"
	.file 10 "/usr/include/x86_64-linux-gnu/bits/sys_errlist.h"
	.file 11 "/usr/include/x86_64-linux-gnu/bits/types/time_t.h"
	.file 12 "./lib/sys/select.h"
	.file 13 "/usr/include/time.h"
	.file 14 "/usr/include/signal.h"
	.file 15 "/usr/include/unistd.h"
	.file 16 "/usr/include/x86_64-linux-gnu/bits/getopt_core.h"
	.file 17 "/usr/include/errno.h"
	.file 18 "src/version.h"
	.file 19 "./lib/exitfail.h"
	.file 20 "/usr/include/stdint.h"
	.file 21 "./lib/timespec.h"
	.file 22 "/usr/include/ctype.h"
	.file 23 "./lib/xalloc-oversized.h"
	.file 24 "./lib/version-etc.h"
	.file 25 "./lib/progname.h"
	.file 26 "./lib/quotearg.h"
	.file 27 "./lib/error.h"
	.file 28 "./lib/fadvise.h"
	.file 29 "./lib/quote.h"
	.file 30 "src/expand-common.h"
	.file 31 "/usr/include/libintl.h"
	.file 32 "./lib/stdio.h"
	.file 33 "/usr/include/assert.h"
	.file 34 "/usr/include/string.h"
	.file 35 "./lib/xstrndup.h"
	.file 36 "/usr/include/stdlib.h"
	.section	.note.GNU-stack,"",@progbits
	.section	.note.gnu.property,"a"
	.align 8
	.long	 1f - 0f
	.long	 4f - 1f
	.long	 5
0:
	.string	 "GNU"
1:
	.align 8
	.long	 0xc0000002
	.long	 3f - 2f
2:
	.long	 0x3
3:
	.align 8
4:
