	.file	"factor.c"
	.text
.Ltext0:
	.p2align 4
	.type	gcd_odd, @function
gcd_odd:
.LVL0:
.LFB136:
	.file 1 "src/factor.c"
	.loc 1 435 1 view -0
	.cfi_startproc
	.loc 1 436 3 view .LVU1
	movq	%rsi, %rax
	.loc 1 436 6 is_stmt 0 view .LVU2
	testb	$1, %sil
	jne	.L2
.LBB176:
	.loc 1 439 9 view .LVU3
	movq	%rdi, %rax
.LBE176:
	.loc 1 436 6 view .LVU4
	movq	%rsi, %rdi
.LVL1:
.L2:
	.loc 1 442 3 is_stmt 1 view .LVU5
	.loc 1 442 6 is_stmt 0 view .LVU6
	testq	%rdi, %rdi
	je	.L1
	.loc 1 446 3 is_stmt 1 view .LVU7
	.loc 1 446 5 is_stmt 0 view .LVU8
	shrq	%rax
.LVL2:
	.loc 1 446 5 view .LVU9
	jmp	.L4
.LVL3:
	.p2align 4,,10
	.p2align 3
.L6:
.LBB177:
	.loc 1 461 7 is_stmt 1 view .LVU10
	.loc 1 461 14 is_stmt 0 view .LVU11
	movq	%rdx, %rcx
	.loc 1 464 18 view .LVU12
	movq	%rdx, %rsi
	.loc 1 461 14 view .LVU13
	sarq	$63, %rcx
.LVL4:
	.loc 1 464 7 is_stmt 1 view .LVU14
	.loc 1 464 18 is_stmt 0 view .LVU15
	andq	%rcx, %rsi
	.loc 1 467 14 view .LVU16
	xorq	%rcx, %rdx
.LVL5:
	.loc 1 464 9 view .LVU17
	addq	%rsi, %rax
.LVL6:
	.loc 1 467 7 is_stmt 1 view .LVU18
	.loc 1 467 9 is_stmt 0 view .LVU19
	subq	%rcx, %rdx
.LVL7:
	.loc 1 467 9 view .LVU20
.LBE177:
	.loc 1 448 9 is_stmt 1 view .LVU21
.L5:
	.loc 1 436 6 is_stmt 0 view .LVU22
	movq	%rdx, %rdi
.L4:
.LVL8:
.LBB178:
	.loc 1 453 13 is_stmt 1 view .LVU23
	movq	%rdi, %rdx
	shrq	%rdx
	testb	$1, %dil
	je	.L5
	.loc 1 455 7 view .LVU24
.LVL9:
	.loc 1 457 7 view .LVU25
	.loc 1 458 7 view .LVU26
	.loc 1 458 10 is_stmt 0 view .LVU27
	subq	%rax, %rdx
.LVL10:
	.loc 1 458 10 view .LVU28
	jne	.L6
	.loc 1 459 9 is_stmt 1 view .LVU29
	.loc 1 459 25 is_stmt 0 view .LVU30
	movq	%rdi, %rax
.LVL11:
	.loc 1 459 25 view .LVU31
	orq	$1, %rax
	ret
.LVL12:
	.p2align 4,,10
	.p2align 3
.L1:
	.loc 1 459 25 view .LVU32
.LBE178:
	.loc 1 469 1 view .LVU33
	ret
	.cfi_endproc
.LFE136:
	.size	gcd_odd, .-gcd_odd
	.p2align 4
	.type	factor_insert_multiplicity, @function
factor_insert_multiplicity:
.LVL13:
.LFB138:
	.loc 1 518 1 is_stmt 1 view -0
	.cfi_startproc
	.loc 1 519 3 view .LVU35
	.loc 1 519 34 is_stmt 0 view .LVU36
	movzbl	250(%rdi), %eax
	.loc 1 518 1 view .LVU37
	pushq	%rbx
	.cfi_def_cfa_offset 16
	.cfi_offset 3, -16
	.loc 1 520 14 view .LVU38
	leaq	16(%rdi), %r11
	.loc 1 521 18 view .LVU39
	leaq	224(%rdi), %r10
	.loc 1 519 34 view .LVU40
	movl	%eax, %r9d
.LVL14:
	.loc 1 520 3 is_stmt 1 view .LVU41
	.loc 1 521 3 view .LVU42
	.loc 1 524 3 view .LVU43
	.loc 1 525 3 view .LVU44
	.loc 1 525 26 view .LVU45
	.loc 1 525 3 is_stmt 0 view .LVU46
	testl	%eax, %eax
	je	.L16
	leal	-1(%rax), %ebx
.LVL15:
	.loc 1 525 3 view .LVU47
	movslq	%ebx, %rcx
	movq	%rcx, %rax
.LVL16:
	.loc 1 525 3 view .LVU48
	jmp	.L18
.LVL17:
	.p2align 4,,10
	.p2align 3
.L31:
	.loc 1 525 34 is_stmt 1 discriminator 2 view .LVU49
	.loc 1 525 26 discriminator 2 view .LVU50
	subq	$1, %rax
.LVL18:
	.loc 1 525 26 is_stmt 0 discriminator 2 view .LVU51
	movl	%eax, %r8d
.LVL19:
	.loc 1 525 3 discriminator 2 view .LVU52
	cmpl	$-1, %eax
	je	.L20
.L18:
	.loc 1 525 3 discriminator 2 view .LVU53
	movl	%eax, %r8d
.LVL20:
	.loc 1 527 7 is_stmt 1 view .LVU54
	.loc 1 527 10 is_stmt 0 view .LVU55
	cmpq	%rsi, 16(%rdi,%rax,8)
	ja	.L31
	.loc 1 531 3 is_stmt 1 view .LVU56
	.loc 1 531 13 is_stmt 0 view .LVU57
	je	.L32
.LVL21:
.LBB179:
	.loc 1 533 34 is_stmt 1 discriminator 1 view .LVU58
	addq	$1, %rax
.LVL22:
	.loc 1 533 34 is_stmt 0 discriminator 1 view .LVU59
	leaq	(%r11,%rax,8), %r11
.LVL23:
	.loc 1 533 34 discriminator 1 view .LVU60
	addq	%rax, %r10
.LVL24:
	.loc 1 533 7 discriminator 1 view .LVU61
	cmpl	%ebx, %r8d
	jge	.L16
.LVL25:
	.p2align 4,,10
	.p2align 3
.L20:
	.loc 1 535 11 is_stmt 1 discriminator 3 view .LVU62
	.loc 1 535 20 is_stmt 0 discriminator 3 view .LVU63
	movq	16(%rdi,%rcx,8), %rax
	movq	%rax, 24(%rdi,%rcx,8)
	.loc 1 536 11 is_stmt 1 discriminator 3 view .LVU64
	.loc 1 536 20 is_stmt 0 discriminator 3 view .LVU65
	movzbl	224(%rdi,%rcx), %eax
	movb	%al, 225(%rdi,%rcx)
	.loc 1 533 41 is_stmt 1 discriminator 3 view .LVU66
.LVL26:
	.loc 1 533 34 discriminator 3 view .LVU67
	subq	$1, %rcx
.LVL27:
	.loc 1 533 7 is_stmt 0 discriminator 3 view .LVU68
	cmpl	%ecx, %r8d
	jl	.L20
.L16:
	.loc 1 533 7 discriminator 3 view .LVU69
.LBE179:
	.loc 1 538 7 is_stmt 1 view .LVU70
	.loc 1 540 36 is_stmt 0 view .LVU71
	addl	$1, %r9d
.LVL28:
	.loc 1 538 16 view .LVU72
	movq	%rsi, (%r11)
	.loc 1 539 7 is_stmt 1 view .LVU73
	.loc 1 539 16 is_stmt 0 view .LVU74
	movb	%dl, (%r10)
	.loc 1 540 7 is_stmt 1 view .LVU75
	.loc 1 546 1 is_stmt 0 view .LVU76
	popq	%rbx
	.cfi_remember_state
	.cfi_def_cfa_offset 8
	.loc 1 540 36 view .LVU77
	movb	%r9b, 250(%rdi)
	.loc 1 546 1 view .LVU78
	ret
.LVL29:
	.p2align 4,,10
	.p2align 3
.L32:
	.cfi_restore_state
	.loc 1 544 7 is_stmt 1 view .LVU79
	.loc 1 544 12 is_stmt 0 view .LVU80
	addb	%dl, (%r10,%rax)
	.loc 1 546 1 view .LVU81
	popq	%rbx
	.cfi_def_cfa_offset 8
	ret
	.cfi_endproc
.LFE138:
	.size	factor_insert_multiplicity, .-factor_insert_multiplicity
	.p2align 4
	.type	powm, @function
powm:
.LVL30:
.LFB150:
	.loc 1 1050 1 is_stmt 1 view -0
	.cfi_startproc
	.loc 1 1051 3 view .LVU83
	.loc 1 1053 3 view .LVU84
	.loc 1 1050 1 is_stmt 0 view .LVU85
	movq	%rdx, %r9
	.loc 1 1053 6 view .LVU86
	testb	$1, %sil
	je	.L37
	.loc 1 1054 7 view .LVU87
	movq	%rdi, %r8
.LVL31:
	.p2align 4,,10
	.p2align 3
.L39:
	.loc 1 1058 7 is_stmt 1 view .LVU88
.LBB180:
.LBI180:
	.loc 1 963 1 view .LVU89
.LBB181:
	.loc 1 965 3 view .LVU90
	.loc 1 967 3 view .LVU91
	movq	%rdi, %rax
#APP
# 967 "src/factor.c" 1
	mulq	%rdi
# 0 "" 2
#NO_APP
	movq	%rdx, %r10
.LVL32:
	.loc 1 968 3 view .LVU92
	.loc 1 969 3 view .LVU93
	.loc 1 968 5 is_stmt 0 view .LVU94
	imulq	%rcx, %rax
.LVL33:
	.loc 1 970 6 view .LVU95
	movq	%r10, %rdi
.LVL34:
	.loc 1 969 3 view .LVU96
#APP
# 969 "src/factor.c" 1
	mulq	%r9
# 0 "" 2
.LVL35:
	.loc 1 970 3 is_stmt 1 view .LVU97
	.loc 1 970 6 is_stmt 0 view .LVU98
#NO_APP
	subq	%rdx, %rdi
.LVL36:
	.loc 1 971 3 is_stmt 1 view .LVU99
	.loc 1 972 8 is_stmt 0 view .LVU100
	cmpq	%rdx, %r10
	leaq	(%rdi,%r9), %rax
	cmovb	%rax, %rdi
.LVL37:
	.loc 1 974 3 is_stmt 1 view .LVU101
	.loc 1 974 3 is_stmt 0 view .LVU102
.LBE181:
.LBE180:
	.loc 1 1059 7 is_stmt 1 view .LVU103
	.loc 1 1059 9 is_stmt 0 view .LVU104
	shrq	%rsi
.LVL38:
	.loc 1 1061 7 is_stmt 1 view .LVU105
	.loc 1 1061 10 is_stmt 0 view .LVU106
	testb	$1, %sil
	je	.L37
	.loc 1 1062 9 is_stmt 1 view .LVU107
.LVL39:
.LBB182:
.LBI182:
	.loc 1 963 1 view .LVU108
.LBB183:
	.loc 1 965 3 view .LVU109
	.loc 1 967 3 view .LVU110
	movq	%r8, %rax
#APP
# 967 "src/factor.c" 1
	mulq	%rdi
# 0 "" 2
#NO_APP
	movq	%rdx, %r10
.LVL40:
	.loc 1 968 3 view .LVU111
	.loc 1 969 3 view .LVU112
	.loc 1 968 5 is_stmt 0 view .LVU113
	imulq	%rcx, %rax
.LVL41:
	.loc 1 970 6 view .LVU114
	movq	%r10, %r8
.LVL42:
	.loc 1 969 3 view .LVU115
#APP
# 969 "src/factor.c" 1
	mulq	%r9
# 0 "" 2
.LVL43:
	.loc 1 970 3 is_stmt 1 view .LVU116
	.loc 1 970 6 is_stmt 0 view .LVU117
#NO_APP
	subq	%rdx, %r8
.LVL44:
	.loc 1 971 3 is_stmt 1 view .LVU118
	.loc 1 972 8 is_stmt 0 view .LVU119
	cmpq	%rdx, %r10
	leaq	(%r8,%r9), %rax
	cmovb	%rax, %r8
.LVL45:
	.loc 1 972 8 view .LVU120
	jmp	.L39
.LVL46:
	.p2align 4,,10
	.p2align 3
.L37:
	.loc 1 972 8 view .LVU121
.LBE183:
.LBE182:
	.loc 1 1056 9 is_stmt 1 view .LVU122
	testq	%rsi, %rsi
	jne	.L39
	.loc 1 1066 1 is_stmt 0 view .LVU123
	movq	%r8, %rax
	ret
	.cfi_endproc
.LFE150:
	.size	powm, .-powm
	.p2align 4
	.type	millerrabin, @function
millerrabin:
.LVL47:
.LFB152:
	.loc 1 1112 1 is_stmt 1 view -0
	.cfi_startproc
	.loc 1 1113 3 view .LVU125
	.loc 1 1112 1 is_stmt 0 view .LVU126
	pushq	%r12
	.cfi_def_cfa_offset 16
	.cfi_offset 12, -16
	movq	%rdi, %r11
	movq	%rdx, %rdi
.LVL48:
	.loc 1 1112 1 view .LVU127
	movq	%r9, %r12
	pushq	%rbp
	.cfi_def_cfa_offset 24
	.cfi_offset 6, -24
	.loc 1 1113 17 view .LVU128
	movq	%r11, %rdx
.LVL49:
	.loc 1 1112 1 view .LVU129
	movl	%r8d, %ebp
	.loc 1 1113 17 view .LVU130
	movq	%r9, %r8
.LVL50:
	.loc 1 1112 1 view .LVU131
	pushq	%rbx
	.cfi_def_cfa_offset 32
	.cfi_offset 3, -32
	.loc 1 1112 1 view .LVU132
	movq	%rsi, %rbx
	movq	%rcx, %rsi
.LVL51:
	.loc 1 1113 17 view .LVU133
	movq	%rbx, %rcx
.LVL52:
	.loc 1 1113 17 view .LVU134
	call	powm
.LVL53:
	.loc 1 1115 3 is_stmt 1 view .LVU135
	.loc 1 1115 13 is_stmt 0 view .LVU136
	movq	%r11, %rdi
	subq	%r12, %rdi
.LVL54:
	.loc 1 1117 3 is_stmt 1 view .LVU137
	.loc 1 1117 9 is_stmt 0 view .LVU138
	cmpq	%rax, %r12
	sete	%r8b
	.loc 1 1117 21 view .LVU139
	cmpq	%rdi, %rax
	sete	%dl
	.loc 1 1117 6 view .LVU140
	orb	%dl, %r8b
	jne	.L47
.LVL55:
.LBB184:
	.loc 1 1120 28 is_stmt 1 view .LVU141
	.loc 1 1120 3 is_stmt 0 view .LVU142
	cmpl	$1, %ebp
	jbe	.L47
	.loc 1 1120 21 view .LVU143
	movl	$1, %esi
	jmp	.L50
.LVL56:
	.p2align 4,,10
	.p2align 3
.L54:
	.loc 1 1126 7 is_stmt 1 view .LVU144
	.loc 1 1126 10 is_stmt 0 view .LVU145
	cmpq	%rax, %r12
	je	.L47
	.loc 1 1120 35 is_stmt 1 discriminator 2 view .LVU146
	.loc 1 1120 36 is_stmt 0 discriminator 2 view .LVU147
	addl	$1, %esi
.LVL57:
	.loc 1 1120 28 is_stmt 1 discriminator 2 view .LVU148
	.loc 1 1120 3 is_stmt 0 discriminator 2 view .LVU149
	cmpl	%esi, %ebp
	je	.L47
.LVL58:
.L50:
	.loc 1 1122 7 is_stmt 1 view .LVU150
.LBB185:
.LBI185:
	.loc 1 963 1 view .LVU151
.LBB186:
	.loc 1 965 3 view .LVU152
	.loc 1 967 3 view .LVU153
#APP
# 967 "src/factor.c" 1
	mulq	%rax
# 0 "" 2
.LVL59:
	.loc 1 967 3 is_stmt 0 view .LVU154
#NO_APP
	movq	%rdx, %rcx
.LVL60:
	.loc 1 968 3 is_stmt 1 view .LVU155
	.loc 1 969 3 view .LVU156
	.loc 1 968 5 is_stmt 0 view .LVU157
	imulq	%rbx, %rax
.LVL61:
	.loc 1 969 3 view .LVU158
#APP
# 969 "src/factor.c" 1
	mulq	%r11
# 0 "" 2
.LVL62:
	.loc 1 970 3 is_stmt 1 view .LVU159
	.loc 1 970 6 is_stmt 0 view .LVU160
#NO_APP
	movq	%rcx, %rax
	subq	%rdx, %rax
.LVL63:
	.loc 1 971 3 is_stmt 1 view .LVU161
	.loc 1 972 8 is_stmt 0 view .LVU162
	cmpq	%rdx, %rcx
	leaq	(%rax,%r11), %r9
	cmovb	%r9, %rax
.LVL64:
	.loc 1 974 3 is_stmt 1 view .LVU163
	.loc 1 974 3 is_stmt 0 view .LVU164
.LBE186:
.LBE185:
	.loc 1 1124 7 is_stmt 1 view .LVU165
	.loc 1 1124 10 is_stmt 0 view .LVU166
	cmpq	%rax, %rdi
	jne	.L54
.LBE184:
	.loc 1 1118 12 view .LVU167
	movl	$1, %r8d
.LVL65:
.L47:
	.loc 1 1130 1 view .LVU168
	popq	%rbx
	.cfi_def_cfa_offset 24
.LVL66:
	.loc 1 1130 1 view .LVU169
	movl	%r8d, %eax
.LVL67:
	.loc 1 1130 1 view .LVU170
	popq	%rbp
	.cfi_def_cfa_offset 16
.LVL68:
	.loc 1 1130 1 view .LVU171
	popq	%r12
	.cfi_def_cfa_offset 8
.LVL69:
	.loc 1 1130 1 view .LVU172
	ret
	.cfi_endproc
.LFE152:
	.size	millerrabin, .-millerrabin
	.p2align 4
	.type	mp_factor_clear, @function
mp_factor_clear:
.LVL70:
.LFB142:
	.loc 1 598 1 is_stmt 1 view -0
	.cfi_startproc
	.loc 1 599 3 view .LVU174
.LBB187:
	.loc 1 599 8 view .LVU175
	.loc 1 599 28 view .LVU176
.LBE187:
	.loc 1 598 1 is_stmt 0 view .LVU177
	pushq	%rbp
	.cfi_def_cfa_offset 16
	.cfi_offset 6, -16
	movq	%rdi, %rbp
	pushq	%rbx
	.cfi_def_cfa_offset 24
	.cfi_offset 3, -24
	subq	$8, %rsp
	.cfi_def_cfa_offset 32
.LBB188:
	.loc 1 599 3 view .LVU178
	cmpq	$0, 16(%rdi)
	je	.L56
	.loc 1 599 21 view .LVU179
	xorl	%ebx, %ebx
	.loc 1 599 30 view .LVU180
	xorl	%edi, %edi
.LVL71:
	.p2align 4,,10
	.p2align 3
.L57:
	.loc 1 600 5 is_stmt 1 discriminator 3 view .LVU181
	.loc 1 600 26 is_stmt 0 discriminator 3 view .LVU182
	salq	$4, %rdi
	addq	0(%rbp), %rdi
	.loc 1 600 5 discriminator 3 view .LVU183
	call	mpz_clear@PLT
.LVL72:
	.loc 1 599 51 is_stmt 1 discriminator 3 view .LVU184
	.loc 1 599 52 is_stmt 0 discriminator 3 view .LVU185
	leal	1(%rbx), %edi
	movq	%rdi, %rbx
.LVL73:
	.loc 1 599 28 is_stmt 1 discriminator 3 view .LVU186
	.loc 1 599 3 is_stmt 0 discriminator 3 view .LVU187
	cmpq	16(%rbp), %rdi
	jb	.L57
.LVL74:
.L56:
	.loc 1 599 3 discriminator 3 view .LVU188
.LBE188:
	.loc 1 602 3 is_stmt 1 view .LVU189
	movq	0(%rbp), %rdi
	call	free@PLT
.LVL75:
	.loc 1 603 3 view .LVU190
	movq	8(%rbp), %rdi
	.loc 1 604 1 is_stmt 0 view .LVU191
	addq	$8, %rsp
	.cfi_def_cfa_offset 24
	popq	%rbx
	.cfi_def_cfa_offset 16
	popq	%rbp
	.cfi_def_cfa_offset 8
.LVL76:
	.loc 1 603 3 view .LVU192
	jmp	free@PLT
.LVL77:
	.cfi_endproc
.LFE142:
	.size	mp_factor_clear, .-mp_factor_clear
	.section	.rodata.str1.1,"aMS",@progbits,1
.LC0:
	.string	"src/factor.c"
	.section	.rodata.str1.8,"aMS",@progbits,1
	.align 8
.LC1:
	.string	"(a1 >> (W_TYPE_SIZE - 1)) == 0"
	.align 8
.LC2:
	.string	"(b1 >> (W_TYPE_SIZE - 1)) == 0"
	.align 8
.LC3:
	.string	"(m1 >> (W_TYPE_SIZE - 1)) == 0"
	.text
	.p2align 4
	.type	mulredc2, @function
mulredc2:
.LVL78:
.LFB149:
	.loc 1 984 1 is_stmt 1 view -0
	.cfi_startproc
	.loc 1 985 3 view .LVU194
	.loc 1 986 3 view .LVU195
	.loc 1 984 1 is_stmt 0 view .LVU196
	pushq	%r15
	.cfi_def_cfa_offset 16
	.cfi_offset 15, -16
	pushq	%r14
	.cfi_def_cfa_offset 24
	.cfi_offset 14, -24
	pushq	%r13
	.cfi_def_cfa_offset 32
	.cfi_offset 13, -32
	pushq	%r12
	.cfi_def_cfa_offset 40
	.cfi_offset 12, -40
	pushq	%rbp
	.cfi_def_cfa_offset 48
	.cfi_offset 6, -48
	pushq	%rbx
	.cfi_def_cfa_offset 56
	.cfi_offset 3, -56
	subq	$8, %rsp
	.cfi_def_cfa_offset 64
	.loc 1 986 6 view .LVU197
	movq	72(%rsp), %rbp
	.loc 1 984 1 view .LVU198
	movq	64(%rsp), %r10
	.loc 1 986 6 view .LVU199
	negq	%rbp
.LVL79:
	.loc 1 987 3 is_stmt 1 view .LVU200
	testq	%rsi, %rsi
	js	.L73
	.loc 1 988 3 view .LVU201
	testq	%rcx, %rcx
	js	.L74
	.loc 1 989 3 view .LVU202
	testq	%r9, %r9
	js	.L75
	movq	%rdx, %rbx
	.loc 1 1004 3 view .LVU203
	.loc 1 1006 5 is_stmt 0 view .LVU204
	movq	%rbp, %r15
	.loc 1 1004 3 view .LVU205
	movq	%rdx, %rax
#APP
# 1004 "src/factor.c" 1
	mulq	%r8
# 0 "" 2
.LVL80:
	.loc 1 1004 3 view .LVU206
#NO_APP
	movq	%rax, %r12
	movq	%rdx, %r13
.LVL81:
	.loc 1 1005 3 is_stmt 1 view .LVU207
	movq	%rbx, %rax
.LVL82:
	.loc 1 1006 5 is_stmt 0 view .LVU208
	imulq	%r12, %r15
	.loc 1 1005 3 view .LVU209
#APP
# 1005 "src/factor.c" 1
	mulq	%rcx
# 0 "" 2
.LVL83:
	.loc 1 1005 3 view .LVU210
#NO_APP
	movq	%rdx, %r11
	movq	%rax, %rbx
.LVL84:
	.loc 1 1006 3 is_stmt 1 view .LVU211
	.loc 1 1007 3 view .LVU212
	movq	%r15, %rax
.LVL85:
	.loc 1 1007 3 is_stmt 0 view .LVU213
#APP
# 1007 "src/factor.c" 1
	mulq	%r10
# 0 "" 2
.LVL86:
	.loc 1 1008 3 view .LVU214
#NO_APP
	movq	%r15, %rax
	.loc 1 1007 3 view .LVU215
	movq	%rdx, %r14
.LVL87:
	.loc 1 1008 3 is_stmt 1 view .LVU216
#APP
# 1008 "src/factor.c" 1
	mulq	%r9
# 0 "" 2
.LVL88:
	.loc 1 1009 3 view .LVU217
	.loc 1 1009 13 is_stmt 0 view .LVU218
#NO_APP
	testq	%r12, %r12
	setne	%r12b
.LVL89:
	.loc 1 1009 13 view .LVU219
	movzbl	%r12b, %r12d
	.loc 1 1009 6 view .LVU220
	addq	%r12, %rbx
.LVL90:
	.loc 1 1010 3 is_stmt 1 view .LVU221
#APP
# 1010 "src/factor.c" 1
	addq %r14,%rbx
	adcq $0,%r11
# 0 "" 2
.LVL91:
	.loc 1 1011 3 view .LVU222
# 1011 "src/factor.c" 1
	addq %r13,%rbx
	adcq $0,%r11
# 0 "" 2
.LVL92:
	.loc 1 1012 3 view .LVU223
# 1012 "src/factor.c" 1
	addq %rax,%rbx
	adcq %rdx,%r11
# 0 "" 2
.LVL93:
	.loc 1 1029 3 view .LVU224
#NO_APP
	movq	%rsi, %rax
.LVL94:
	.loc 1 1029 3 is_stmt 0 view .LVU225
#APP
# 1029 "src/factor.c" 1
	mulq	%r8
# 0 "" 2
.LVL95:
	.loc 1 1029 3 view .LVU226
#NO_APP
	movq	%rdx, %r8
.LVL96:
	.loc 1 1029 3 view .LVU227
	movq	%rax, %r12
.LVL97:
	.loc 1 1030 3 is_stmt 1 view .LVU228
	movq	%rsi, %rax
.LVL98:
	.loc 1 1036 13 is_stmt 0 view .LVU229
	xorl	%esi, %esi
.LVL99:
	.loc 1 1031 3 view .LVU230
#APP
# 1031 "src/factor.c" 1
	addq %rbx,%r12
	adcq $0,%r8
# 0 "" 2
.LVL100:
	.loc 1 1032 5 view .LVU231
#NO_APP
	imulq	%r12, %rbp
.LVL101:
	.loc 1 1030 3 view .LVU232
#APP
# 1030 "src/factor.c" 1
	mulq	%rcx
# 0 "" 2
.LVL102:
	.loc 1 1030 3 view .LVU233
#NO_APP
	movq	%rdx, %rcx
.LVL103:
	.loc 1 1031 3 is_stmt 1 view .LVU234
	.loc 1 1032 3 view .LVU235
	.loc 1 1033 3 view .LVU236
	movq	%rax, %rbx
.LVL104:
	.loc 1 1034 3 is_stmt 0 view .LVU237
	movq	%rbp, %rax
.LVL105:
	.loc 1 1033 3 view .LVU238
#APP
# 1033 "src/factor.c" 1
	addq %r11,%rbx
	adcq $0,%rcx
# 0 "" 2
.LVL106:
	.loc 1 1034 3 is_stmt 1 view .LVU239
# 1034 "src/factor.c" 1
	mulq	%r10
# 0 "" 2
.LVL107:
	.loc 1 1035 3 is_stmt 0 view .LVU240
#NO_APP
	movq	%rbp, %rax
	.loc 1 1034 3 view .LVU241
	movq	%rdx, %r11
.LVL108:
	.loc 1 1035 3 is_stmt 1 view .LVU242
#APP
# 1035 "src/factor.c" 1
	mulq	%r9
# 0 "" 2
.LVL109:
	.loc 1 1036 3 view .LVU243
	.loc 1 1036 13 is_stmt 0 view .LVU244
#NO_APP
	testq	%r12, %r12
	setne	%sil
	.loc 1 1036 6 view .LVU245
	addq	%rbx, %rsi
.LVL110:
	.loc 1 1037 3 is_stmt 1 view .LVU246
#APP
# 1037 "src/factor.c" 1
	addq %r11,%rsi
	adcq $0,%rcx
# 0 "" 2
.LVL111:
	.loc 1 1038 3 view .LVU247
# 1038 "src/factor.c" 1
	addq %r8,%rsi
	adcq $0,%rcx
# 0 "" 2
.LVL112:
	.loc 1 1039 3 view .LVU248
# 1039 "src/factor.c" 1
	addq %rax,%rsi
	adcq %rdx,%rcx
# 0 "" 2
.LVL113:
	.loc 1 1039 3 is_stmt 0 view .LVU249
#NO_APP
	movq	%rcx, %rdx
.LVL114:
	.loc 1 1039 3 view .LVU250
	movq	%rsi, %rax
.LVL115:
	.loc 1 1041 3 is_stmt 1 view .LVU251
	.loc 1 1041 6 is_stmt 0 view .LVU252
	cmpq	%rcx, %r9
	jnb	.L76
.L64:
	.loc 1 1042 5 is_stmt 1 view .LVU253
#APP
# 1042 "src/factor.c" 1
	subq %r10,%rsi
	sbbq %r9,%rcx
# 0 "" 2
#NO_APP
	movq	%rcx, %rdx
.LVL116:
	.loc 1 1042 5 is_stmt 0 view .LVU254
	movq	%rsi, %rax
.LVL117:
.L65:
	.loc 1 1044 3 is_stmt 1 view .LVU255
	.loc 1 1044 8 is_stmt 0 view .LVU256
	movq	%rdx, (%rdi)
	.loc 1 1045 3 is_stmt 1 view .LVU257
	.loc 1 1046 1 is_stmt 0 view .LVU258
	addq	$8, %rsp
	.cfi_remember_state
	.cfi_def_cfa_offset 56
	popq	%rbx
	.cfi_def_cfa_offset 48
	popq	%rbp
	.cfi_def_cfa_offset 40
.LVL118:
	.loc 1 1046 1 view .LVU259
	popq	%r12
	.cfi_def_cfa_offset 32
.LVL119:
	.loc 1 1046 1 view .LVU260
	popq	%r13
	.cfi_def_cfa_offset 24
	popq	%r14
	.cfi_def_cfa_offset 16
	popq	%r15
	.cfi_def_cfa_offset 8
	ret
.LVL120:
	.p2align 4,,10
	.p2align 3
.L76:
	.cfi_restore_state
	.loc 1 1041 7 discriminator 1 view .LVU261
	jne	.L65
	cmpq	%rsi, %r10
	jbe	.L64
	jmp	.L65
.LVL121:
.L75:
	.loc 1 989 3 is_stmt 1 discriminator 1 view .LVU262
	leaq	__PRETTY_FUNCTION__.8003(%rip), %rcx
.LVL122:
	.loc 1 989 3 is_stmt 0 discriminator 1 view .LVU263
	movl	$989, %edx
.LVL123:
	.loc 1 989 3 discriminator 1 view .LVU264
	leaq	.LC0(%rip), %rsi
.LVL124:
	.loc 1 989 3 discriminator 1 view .LVU265
	leaq	.LC3(%rip), %rdi
.LVL125:
	.loc 1 989 3 discriminator 1 view .LVU266
	call	__assert_fail@PLT
.LVL126:
.L74:
	.loc 1 988 3 is_stmt 1 discriminator 1 view .LVU267
	leaq	__PRETTY_FUNCTION__.8003(%rip), %rcx
.LVL127:
	.loc 1 988 3 is_stmt 0 discriminator 1 view .LVU268
	movl	$988, %edx
.LVL128:
	.loc 1 988 3 discriminator 1 view .LVU269
	leaq	.LC0(%rip), %rsi
.LVL129:
	.loc 1 988 3 discriminator 1 view .LVU270
	leaq	.LC2(%rip), %rdi
.LVL130:
	.loc 1 988 3 discriminator 1 view .LVU271
	call	__assert_fail@PLT
.LVL131:
.L73:
	.loc 1 987 3 is_stmt 1 discriminator 1 view .LVU272
	leaq	__PRETTY_FUNCTION__.8003(%rip), %rcx
.LVL132:
	.loc 1 987 3 is_stmt 0 discriminator 1 view .LVU273
	movl	$987, %edx
.LVL133:
	.loc 1 987 3 discriminator 1 view .LVU274
	leaq	.LC0(%rip), %rsi
.LVL134:
	.loc 1 987 3 discriminator 1 view .LVU275
	leaq	.LC1(%rip), %rdi
.LVL135:
	.loc 1 987 3 discriminator 1 view .LVU276
	call	__assert_fail@PLT
.LVL136:
	.loc 1 987 3 discriminator 1 view .LVU277
	.cfi_endproc
.LFE149:
	.size	mulredc2, .-mulredc2
	.p2align 4
	.type	powm2, @function
powm2:
.LVL137:
.LFB151:
	.loc 1 1072 1 is_stmt 1 view -0
	.cfi_startproc
	.loc 1 1073 3 view .LVU279
	.loc 1 1074 3 view .LVU280
	.loc 1 1075 3 view .LVU281
	.loc 1 1077 3 view .LVU282
	.loc 1 1072 1 is_stmt 0 view .LVU283
	pushq	%r15
	.cfi_def_cfa_offset 16
	.cfi_offset 15, -16
	movq	%rdi, %r15
	pushq	%r14
	.cfi_def_cfa_offset 24
	.cfi_offset 14, -24
	pushq	%r13
	.cfi_def_cfa_offset 32
	.cfi_offset 13, -32
	pushq	%r12
	.cfi_def_cfa_offset 40
	.cfi_offset 12, -40
	movq	%r8, %r12
	pushq	%rbp
	.cfi_def_cfa_offset 48
	.cfi_offset 6, -48
	pushq	%rbx
	.cfi_def_cfa_offset 56
	.cfi_offset 3, -56
	subq	$56, %rsp
	.cfi_def_cfa_offset 112
	.loc 1 1082 6 view .LVU284
	movq	(%r9), %rbx
	.loc 1 1083 6 view .LVU285
	movq	8(%r9), %rax
	.loc 1 1077 6 view .LVU286
	movq	(%rsi), %r8
.LVL138:
	.loc 1 1078 3 is_stmt 1 view .LVU287
	.loc 1 1078 6 is_stmt 0 view .LVU288
	movq	8(%rsi), %r10
.LVL139:
	.loc 1 1079 3 is_stmt 1 view .LVU289
	.loc 1 1072 1 is_stmt 0 view .LVU290
	movq	%rdx, 40(%rsp)
	.loc 1 1079 6 view .LVU291
	movq	(%rcx), %r14
.LVL140:
	.loc 1 1080 3 is_stmt 1 view .LVU292
	.loc 1 1080 6 is_stmt 0 view .LVU293
	movq	8(%rcx), %r13
.LVL141:
	.loc 1 1082 3 is_stmt 1 view .LVU294
	.loc 1 1082 6 is_stmt 0 view .LVU295
	movq	%rbx, 16(%rsp)
.LVL142:
	.loc 1 1083 3 is_stmt 1 view .LVU296
	.loc 1 1085 10 is_stmt 0 view .LVU297
	movl	$64, %ebx
.LVL143:
	.loc 1 1083 6 view .LVU298
	movq	%rax, 8(%rsp)
.LVL144:
	.loc 1 1085 3 is_stmt 1 view .LVU299
	.loc 1 1085 10 is_stmt 0 view .LVU300
	movq	(%rdx), %rbp
.LVL145:
	.loc 1 1085 36 is_stmt 1 view .LVU301
	jmp	.L79
.LVL146:
	.p2align 4,,10
	.p2align 3
.L78:
	.loc 1 1092 7 discriminator 2 view .LVU302
	.loc 1 1092 12 is_stmt 0 discriminator 2 view .LVU303
	pushq	%r12
	.cfi_def_cfa_offset 120
	movq	%r13, %r9
	movq	%r10, %rcx
	movq	%r8, %rdx
	pushq	%r14
	.cfi_def_cfa_offset 128
	movq	%r10, %rsi
	movq	%r15, %rdi
	.loc 1 1085 50 discriminator 2 view .LVU304
	shrq	%rbp
.LVL147:
	.loc 1 1092 12 discriminator 2 view .LVU305
	call	mulredc2
.LVL148:
	.loc 1 1085 3 discriminator 2 view .LVU306
	popq	%rdi
	.cfi_def_cfa_offset 120
	.loc 1 1093 10 discriminator 2 view .LVU307
	movq	(%r15), %r10
	.loc 1 1092 12 discriminator 2 view .LVU308
	movq	%rax, %r8
.LVL149:
	.loc 1 1093 7 is_stmt 1 discriminator 2 view .LVU309
	.loc 1 1085 43 discriminator 2 view .LVU310
	.loc 1 1085 36 discriminator 2 view .LVU311
	.loc 1 1085 3 is_stmt 0 discriminator 2 view .LVU312
	popq	%r9
	.cfi_def_cfa_offset 112
	subl	$1, %ebx
.LVL150:
	.loc 1 1085 3 discriminator 2 view .LVU313
	je	.L95
.LVL151:
.L79:
	.loc 1 1087 7 is_stmt 1 view .LVU314
	.loc 1 1087 10 is_stmt 0 view .LVU315
	testb	$1, %bpl
	je	.L78
	.loc 1 1089 11 is_stmt 1 view .LVU316
	.loc 1 1089 16 is_stmt 0 view .LVU317
	pushq	%r12
	.cfi_def_cfa_offset 120
	movq	%r10, %rcx
	movq	%r13, %r9
	movq	%r15, %rdi
	pushq	%r14
	.cfi_def_cfa_offset 128
	movq	32(%rsp), %rdx
	movq	24(%rsp), %rsi
	movq	%r8, 48(%rsp)
	movq	%r10, 40(%rsp)
	call	mulredc2
.LVL152:
	.loc 1 1089 16 view .LVU318
	movq	%rax, 32(%rsp)
.LVL153:
	.loc 1 1090 11 is_stmt 1 view .LVU319
	.loc 1 1090 14 is_stmt 0 view .LVU320
	movq	(%r15), %rax
.LVL154:
	.loc 1 1090 14 view .LVU321
	movq	%rax, 24(%rsp)
.LVL155:
	.loc 1 1090 14 view .LVU322
	popq	%r10
	.cfi_def_cfa_offset 120
	popq	%r11
	.cfi_def_cfa_offset 112
	movq	32(%rsp), %r8
	movq	24(%rsp), %r10
	jmp	.L78
.LVL156:
	.p2align 4,,10
	.p2align 3
.L95:
	.loc 1 1095 3 is_stmt 1 view .LVU323
	.loc 1 1095 10 is_stmt 0 view .LVU324
	movq	40(%rsp), %rax
.LVL157:
	.loc 1 1095 10 view .LVU325
	movq	8(%rax), %rbx
.LVL158:
	.loc 1 1095 19 is_stmt 1 view .LVU326
	.loc 1 1095 3 is_stmt 0 view .LVU327
	testq	%rbx, %rbx
	jne	.L82
	jmp	.L80
.LVL159:
	.p2align 4,,10
	.p2align 3
.L81:
	.loc 1 1102 7 is_stmt 1 discriminator 2 view .LVU328
	.loc 1 1102 12 is_stmt 0 discriminator 2 view .LVU329
	pushq	%r12
	.cfi_def_cfa_offset 120
	movq	%r8, %rdx
	movq	%r10, %rcx
	movq	%r10, %rsi
	pushq	%r14
	.cfi_def_cfa_offset 128
	movq	%r13, %r9
	movq	%r15, %rdi
	call	mulredc2
.LVL160:
	.loc 1 1095 3 discriminator 2 view .LVU330
	shrq	%rbx
.LVL161:
	.loc 1 1103 10 discriminator 2 view .LVU331
	movq	(%r15), %r10
	.loc 1 1102 12 discriminator 2 view .LVU332
	movq	%rax, %r8
.LVL162:
	.loc 1 1103 7 is_stmt 1 discriminator 2 view .LVU333
	.loc 1 1095 26 discriminator 2 view .LVU334
	.loc 1 1095 19 discriminator 2 view .LVU335
	.loc 1 1095 3 is_stmt 0 discriminator 2 view .LVU336
	popq	%rax
	.cfi_def_cfa_offset 120
.LVL163:
	.loc 1 1095 3 discriminator 2 view .LVU337
	popq	%rdx
	.cfi_def_cfa_offset 112
	je	.L80
.L82:
.LVL164:
	.loc 1 1097 7 is_stmt 1 view .LVU338
	.loc 1 1097 10 is_stmt 0 view .LVU339
	testb	$1, %bl
	je	.L81
	.loc 1 1099 11 is_stmt 1 view .LVU340
	.loc 1 1099 16 is_stmt 0 view .LVU341
	pushq	%r12
	.cfi_def_cfa_offset 120
	movq	%r10, %rcx
	movq	%r13, %r9
	movq	%r15, %rdi
	pushq	%r14
	.cfi_def_cfa_offset 128
	movq	32(%rsp), %rdx
	movq	24(%rsp), %rsi
	movq	%r8, 48(%rsp)
	movq	%r10, 40(%rsp)
	call	mulredc2
.LVL165:
	.loc 1 1099 16 view .LVU342
	movq	%rax, 32(%rsp)
.LVL166:
	.loc 1 1100 11 is_stmt 1 view .LVU343
	.loc 1 1100 14 is_stmt 0 view .LVU344
	movq	(%r15), %rax
.LVL167:
	.loc 1 1100 14 view .LVU345
	movq	%rax, 24(%rsp)
.LVL168:
	.loc 1 1100 14 view .LVU346
	popq	%rcx
	.cfi_def_cfa_offset 120
	popq	%rsi
	.cfi_def_cfa_offset 112
	movq	32(%rsp), %r8
	movq	24(%rsp), %r10
	jmp	.L81
.LVL169:
	.p2align 4,,10
	.p2align 3
.L80:
	.loc 1 1105 3 is_stmt 1 view .LVU347
	.loc 1 1105 8 is_stmt 0 view .LVU348
	movq	8(%rsp), %rax
	movq	%rax, (%r15)
	.loc 1 1106 3 is_stmt 1 view .LVU349
	.loc 1 1107 1 is_stmt 0 view .LVU350
	movq	16(%rsp), %rax
	addq	$56, %rsp
	.cfi_def_cfa_offset 56
	popq	%rbx
	.cfi_def_cfa_offset 48
	popq	%rbp
	.cfi_def_cfa_offset 40
	popq	%r12
	.cfi_def_cfa_offset 32
.LVL170:
	.loc 1 1107 1 view .LVU351
	popq	%r13
	.cfi_def_cfa_offset 24
.LVL171:
	.loc 1 1107 1 view .LVU352
	popq	%r14
	.cfi_def_cfa_offset 16
.LVL172:
	.loc 1 1107 1 view .LVU353
	popq	%r15
	.cfi_def_cfa_offset 8
.LVL173:
	.loc 1 1107 1 view .LVU354
	ret
	.cfi_endproc
.LFE151:
	.size	powm2, .-powm2
	.p2align 4
	.type	millerrabin2, @function
millerrabin2:
.LVL174:
.LFB153:
	.loc 1 1135 1 is_stmt 1 view -0
	.cfi_startproc
	.loc 1 1135 1 is_stmt 0 view .LVU356
	pushq	%r15
	.cfi_def_cfa_offset 16
	.cfi_offset 15, -16
	pushq	%r14
	.cfi_def_cfa_offset 24
	.cfi_offset 14, -24
	pushq	%r13
	.cfi_def_cfa_offset 32
	.cfi_offset 13, -32
	movq	%rdi, %r13
	pushq	%r12
	.cfi_def_cfa_offset 40
	.cfi_offset 12, -40
	movq	%rsi, %r12
	movq	%rdx, %rsi
.LVL175:
	.loc 1 1135 1 view .LVU357
	movq	%rcx, %rdx
.LVL176:
	.loc 1 1135 1 view .LVU358
	pushq	%rbp
	.cfi_def_cfa_offset 48
	.cfi_offset 6, -48
	.loc 1 1138 8 view .LVU359
	movq	%rdi, %rcx
.LVL177:
	.loc 1 1135 1 view .LVU360
	pushq	%rbx
	.cfi_def_cfa_offset 56
	.cfi_offset 3, -56
	movq	%r9, %rbx
	subq	$40, %rsp
	.cfi_def_cfa_offset 96
	.loc 1 1135 1 view .LVU361
	movl	%r8d, 8(%rsp)
	.loc 1 1138 8 view .LVU362
	leaq	16(%rsp), %r14
	movq	%r12, %r8
.LVL178:
	.loc 1 1138 8 view .LVU363
	movq	%r14, %rdi
.LVL179:
	.loc 1 1135 1 view .LVU364
	movq	%fs:40, %rax
	movq	%rax, 24(%rsp)
	xorl	%eax, %eax
	.loc 1 1136 3 is_stmt 1 view .LVU365
	.loc 1 1138 3 view .LVU366
	.loc 1 1138 8 is_stmt 0 view .LVU367
	call	powm2
.LVL180:
	.loc 1 1141 16 view .LVU368
	movq	(%rbx), %rcx
	.loc 1 1139 6 view .LVU369
	movq	16(%rsp), %rsi
	.loc 1 1141 32 view .LVU370
	movq	8(%rbx), %rdi
	.loc 1 1138 8 view .LVU371
	movq	%rax, %rdx
.LVL181:
	.loc 1 1139 3 is_stmt 1 view .LVU372
	.loc 1 1141 3 view .LVU373
	.loc 1 1141 6 is_stmt 0 view .LVU374
	cmpq	%rax, %rcx
	je	.L97
.L98:
	.loc 1 1144 3 is_stmt 1 view .LVU375
	movq	8(%r13), %r9
	movq	0(%r13), %rax
.LVL182:
	.loc 1 1144 3 is_stmt 0 view .LVU376
	movq	%r9, %r10
	movq	%rax, %rbp
#APP
# 1144 "src/factor.c" 1
	subq %rcx,%rbp
	sbbq %rdi,%r10
# 0 "" 2
	.loc 1 1146 10 view .LVU377
#NO_APP
	cmpq	%rbp, %rdx
	.loc 1 1144 3 view .LVU378
	movq	%r10, (%rsp)
.LVL183:
	.loc 1 1146 3 is_stmt 1 view .LVU379
	.loc 1 1146 10 is_stmt 0 view .LVU380
	sete	%dil
	.loc 1 1146 25 view .LVU381
	cmpq	%r10, %rsi
	sete	%cl
	.loc 1 1146 6 view .LVU382
	andb	%cl, %dil
	movb	%dil, 15(%rsp)
	jne	.L99
.LVL184:
.LBB189:
	.loc 1 1149 28 is_stmt 1 view .LVU383
	.loc 1 1149 3 is_stmt 0 view .LVU384
	cmpl	$1, 8(%rsp)
	.loc 1 1149 21 view .LVU385
	movl	$1, %r15d
	.loc 1 1149 3 view .LVU386
	ja	.L100
	jmp	.L96
.LVL185:
	.p2align 4,,10
	.p2align 3
.L103:
	.loc 1 1149 35 is_stmt 1 discriminator 2 view .LVU387
	.loc 1 1149 36 is_stmt 0 discriminator 2 view .LVU388
	addl	$1, %r15d
.LVL186:
	.loc 1 1149 28 is_stmt 1 discriminator 2 view .LVU389
	.loc 1 1149 3 is_stmt 0 discriminator 2 view .LVU390
	cmpl	%r15d, 8(%rsp)
	je	.L96
	.loc 1 1149 3 discriminator 2 view .LVU391
	movq	0(%r13), %rax
	movq	8(%r13), %r9
.LVL187:
.L100:
	.loc 1 1151 7 is_stmt 1 view .LVU392
	.loc 1 1151 12 is_stmt 0 view .LVU393
	pushq	%r12
	.cfi_def_cfa_offset 104
.LVL188:
	.loc 1 1151 12 view .LVU394
	movq	%rsi, %rcx
	movq	%rdx, %r8
	movq	%r14, %rdi
	pushq	%rax
	.cfi_def_cfa_offset 112
	call	mulredc2
.LVL189:
	.loc 1 1152 10 view .LVU395
	movq	32(%rsp), %rsi
	.loc 1 1151 12 view .LVU396
	movq	%rax, %rdx
.LVL190:
	.loc 1 1152 7 is_stmt 1 view .LVU397
	.loc 1 1154 7 view .LVU398
	.loc 1 1154 14 is_stmt 0 view .LVU399
	popq	%rax
	.cfi_def_cfa_offset 104
.LVL191:
	.loc 1 1154 14 view .LVU400
	popq	%rcx
	.cfi_def_cfa_offset 96
.LVL192:
	.loc 1 1154 10 view .LVU401
	cmpq	%rdx, %rbp
	jne	.L107
	cmpq	%rsi, (%rsp)
	je	.L99
.L107:
	.loc 1 1156 7 is_stmt 1 view .LVU402
	.loc 1 1156 10 is_stmt 0 view .LVU403
	cmpq	%rdx, (%rbx)
	jne	.L103
	.loc 1 1156 24 discriminator 1 view .LVU404
	cmpq	%rsi, 8(%rbx)
	jne	.L103
.LVL193:
	.p2align 4,,10
	.p2align 3
.L96:
	.loc 1 1156 24 discriminator 1 view .LVU405
.LBE189:
	.loc 1 1160 1 view .LVU406
	movq	24(%rsp), %rax
	xorq	%fs:40, %rax
	jne	.L113
	movzbl	15(%rsp), %eax
	addq	$40, %rsp
	.cfi_remember_state
	.cfi_def_cfa_offset 56
	popq	%rbx
	.cfi_def_cfa_offset 48
.LVL194:
	.loc 1 1160 1 view .LVU407
	popq	%rbp
	.cfi_def_cfa_offset 40
	popq	%r12
	.cfi_def_cfa_offset 32
.LVL195:
	.loc 1 1160 1 view .LVU408
	popq	%r13
	.cfi_def_cfa_offset 24
.LVL196:
	.loc 1 1160 1 view .LVU409
	popq	%r14
	.cfi_def_cfa_offset 16
	popq	%r15
	.cfi_def_cfa_offset 8
	ret
.LVL197:
	.p2align 4,,10
	.p2align 3
.L97:
	.cfi_restore_state
	.loc 1 1141 20 discriminator 1 view .LVU410
	cmpq	%rsi, %rdi
	jne	.L98
.LVL198:
	.p2align 4,,10
	.p2align 3
.L99:
	.loc 1 1142 12 view .LVU411
	movb	$1, 15(%rsp)
	jmp	.L96
.L113:
	.loc 1 1160 1 view .LVU412
	call	__stack_chk_fail@PLT
.LVL199:
	.loc 1 1160 1 view .LVU413
	.cfi_endproc
.LFE153:
	.size	millerrabin2, .-millerrabin2
	.p2align 4
	.type	lbuf_putint, @function
lbuf_putint:
.LVL200:
.LFB167:
	.loc 1 2399 1 is_stmt 1 view -0
	.cfi_startproc
	.loc 1 2399 1 is_stmt 0 view .LVU415
	pushq	%rbp
	.cfi_def_cfa_offset 16
	.cfi_offset 6, -16
	movq	%rsi, %rbp
	pushq	%rbx
	.cfi_def_cfa_offset 24
	.cfi_offset 3, -24
	subq	$40, %rsp
	.cfi_def_cfa_offset 64
	.loc 1 2399 1 view .LVU416
	movq	%fs:40, %rax
	movq	%rax, 24(%rsp)
	xorl	%eax, %eax
	.loc 1 2400 3 is_stmt 1 view .LVU417
	.loc 1 2401 3 view .LVU418
	.loc 1 2401 25 is_stmt 0 view .LVU419
	movq	%rsp, %rbx
	movq	%rbx, %rsi
.LVL201:
	.loc 1 2401 25 view .LVU420
	call	umaxtostr@PLT
.LVL202:
	.loc 1 2402 10 view .LVU421
	movl	$20, %edi
	.loc 1 2402 42 view .LVU422
	movq	%rax, %rcx
	.loc 1 2401 25 view .LVU423
	movq	%rax, %rsi
.LVL203:
	.loc 1 2402 3 is_stmt 1 view .LVU424
	.loc 1 2402 42 is_stmt 0 view .LVU425
	subq	%rbx, %rcx
	.loc 1 2402 10 view .LVU426
	movq	%rdi, %rbx
	movq	8+lbuf(%rip), %rdi
	subq	%rcx, %rbx
.LVL204:
	.loc 1 2403 3 is_stmt 1 view .LVU427
	.loc 1 2405 3 view .LVU428
	.loc 1 2405 10 view .LVU429
	.loc 1 2405 3 is_stmt 0 view .LVU430
	cmpq	%rbp, %rbx
	jnb	.L116
	leaq	-20(%rcx), %r8
	leaq	0(%rbp,%rdi), %rcx
	movq	%rdi, %rdx
	addq	%r8, %rcx
.LVL205:
	.p2align 4,,10
	.p2align 3
.L117:
	.loc 1 2406 5 is_stmt 1 discriminator 2 view .LVU431
	.loc 1 2406 17 is_stmt 0 discriminator 2 view .LVU432
	movb	$48, (%rdx)
	.loc 1 2405 25 is_stmt 1 discriminator 2 view .LVU433
.LVL206:
	.loc 1 2405 10 discriminator 2 view .LVU434
	addq	$1, %rdx
.LVL207:
	.loc 1 2405 3 is_stmt 0 discriminator 2 view .LVU435
	cmpq	%rcx, %rdx
	jne	.L117
	leaq	(%r8,%rbp), %rcx
	addq	%rcx, %rdi
.LVL208:
.L116:
	.loc 1 2408 3 is_stmt 1 view .LVU436
.LBB190:
.LBI190:
	.file 2 "/usr/include/x86_64-linux-gnu/bits/string_fortified.h"
	.loc 2 31 1 view .LVU437
.LBB191:
	.loc 2 34 3 view .LVU438
	.loc 2 34 10 is_stmt 0 view .LVU439
	movq	%rbx, %rdx
	call	memcpy@PLT
.LVL209:
	.loc 2 34 10 view .LVU440
	movq	%rax, %rdi
.LVL210:
	.loc 2 34 10 view .LVU441
.LBE191:
.LBE190:
	.loc 1 2409 3 is_stmt 1 view .LVU442
	.loc 1 2409 12 is_stmt 0 view .LVU443
	addq	%rbx, %rdi
	movq	%rdi, 8+lbuf(%rip)
	.loc 1 2410 1 view .LVU444
	movq	24(%rsp), %rax
	xorq	%fs:40, %rax
	jne	.L121
	addq	$40, %rsp
	.cfi_remember_state
	.cfi_def_cfa_offset 24
	popq	%rbx
	.cfi_def_cfa_offset 16
.LVL211:
	.loc 1 2410 1 view .LVU445
	popq	%rbp
	.cfi_def_cfa_offset 8
.LVL212:
	.loc 1 2410 1 view .LVU446
	ret
.LVL213:
.L121:
	.cfi_restore_state
	.loc 1 2410 1 view .LVU447
	call	__stack_chk_fail@PLT
.LVL214:
	.cfi_endproc
.LFE167:
	.size	lbuf_putint, .-lbuf_putint
	.p2align 4
	.type	mpz_va_init, @function
mpz_va_init:
.LVL215:
.LFB140:
	.loc 1 573 1 is_stmt 1 view -0
	.cfi_startproc
	.loc 1 573 1 is_stmt 0 view .LVU449
	pushq	%rbx
	.cfi_def_cfa_offset 16
	.cfi_offset 3, -16
	movq	%rdi, %rbx
	subq	$80, %rsp
	.cfi_def_cfa_offset 96
	.loc 1 573 1 view .LVU450
	movq	%rsi, 40(%rsp)
	movq	%rdx, 48(%rsp)
	movq	%rcx, 56(%rsp)
	movq	%r8, 64(%rsp)
	movq	%r9, 72(%rsp)
	movq	%fs:40, %rax
	movq	%rax, 24(%rsp)
	xorl	%eax, %eax
	.loc 1 574 3 is_stmt 1 view .LVU451
	.loc 1 576 3 view .LVU452
	leaq	96(%rsp), %rax
	movl	$8, (%rsp)
	movq	%rax, 8(%rsp)
	leaq	32(%rsp), %rax
	movq	%rax, 16(%rsp)
	.loc 1 578 3 view .LVU453
	.loc 1 579 3 view .LVU454
	.loc 1 579 9 is_stmt 0 view .LVU455
	jmp	.L123
.LVL216:
	.p2align 4,,10
	.p2align 3
.L130:
	.loc 1 579 15 view .LVU456
	movl	%eax, %edx
	addq	16(%rsp), %rdx
	addl	$8, %eax
	movq	(%rdx), %rdi
	movl	%eax, (%rsp)
	.loc 1 579 9 view .LVU457
	testq	%rdi, %rdi
	je	.L129
.L126:
	.loc 1 580 5 is_stmt 1 view .LVU458
	call	*%rbx
.LVL217:
.L123:
	.loc 1 579 9 view .LVU459
	.loc 1 579 15 is_stmt 0 view .LVU460
	movl	(%rsp), %eax
	cmpl	$47, %eax
	jbe	.L130
	movq	8(%rsp), %rdx
	movq	(%rdx), %rdi
	leaq	8(%rdx), %rax
	movq	%rax, 8(%rsp)
	.loc 1 579 9 view .LVU461
	testq	%rdi, %rdi
	jne	.L126
.L129:
	.loc 1 582 3 is_stmt 1 view .LVU462
	.loc 1 583 1 is_stmt 0 view .LVU463
	movq	24(%rsp), %rax
	xorq	%fs:40, %rax
	jne	.L131
	addq	$80, %rsp
	.cfi_remember_state
	.cfi_def_cfa_offset 16
	popq	%rbx
	.cfi_def_cfa_offset 8
.LVL218:
	.loc 1 583 1 view .LVU464
	ret
.LVL219:
.L131:
	.cfi_restore_state
	.loc 1 583 1 view .LVU465
	call	__stack_chk_fail@PLT
.LVL220:
	.cfi_endproc
.LFE140:
	.size	mpz_va_init, .-mpz_va_init
	.p2align 4
	.type	mp_factor_insert, @function
mp_factor_insert:
.LVL221:
.LFB143:
	.loc 1 608 1 is_stmt 1 view -0
	.cfi_startproc
	.loc 1 609 3 view .LVU467
	.loc 1 608 1 is_stmt 0 view .LVU468
	pushq	%r15
	.cfi_def_cfa_offset 16
	.cfi_offset 15, -16
	pushq	%r14
	.cfi_def_cfa_offset 24
	.cfi_offset 14, -24
	pushq	%r13
	.cfi_def_cfa_offset 32
	.cfi_offset 13, -32
	pushq	%r12
	.cfi_def_cfa_offset 40
	.cfi_offset 12, -40
	movq	%rdi, %r12
	pushq	%rbp
	.cfi_def_cfa_offset 48
	.cfi_offset 6, -48
	movq	%rsi, %rbp
	pushq	%rbx
	.cfi_def_cfa_offset 56
	.cfi_offset 3, -56
	subq	$56, %rsp
	.cfi_def_cfa_offset 112
	.loc 1 609 21 view .LVU469
	movq	16(%rdi), %rax
	.loc 1 610 18 view .LVU470
	movq	(%rdi), %rdx
	.loc 1 611 22 view .LVU471
	movq	8(%rdi), %rcx
	.loc 1 615 21 view .LVU472
	leaq	-1(%rax), %r13
	.loc 1 609 21 view .LVU473
	movq	%rax, 8(%rsp)
.LVL222:
	.loc 1 610 3 is_stmt 1 view .LVU474
	.loc 1 610 18 is_stmt 0 view .LVU475
	movq	%rdx, 16(%rsp)
.LVL223:
	.loc 1 611 3 is_stmt 1 view .LVU476
	.loc 1 611 22 is_stmt 0 view .LVU477
	movq	%rcx, 24(%rsp)
.LVL224:
	.loc 1 612 3 is_stmt 1 view .LVU478
	.loc 1 615 3 view .LVU479
	.loc 1 615 26 view .LVU480
	.loc 1 615 3 is_stmt 0 view .LVU481
	testq	%r13, %r13
	js	.L133
	movq	%r13, %rdi
.LVL225:
	.loc 1 615 3 view .LVU482
	movq	%r13, %r14
	movq	%r13, %rbx
	salq	$4, %rdi
	leaq	(%rdx,%rdi), %r15
	jmp	.L135
.LVL226:
	.p2align 4,,10
	.p2align 3
.L148:
	.loc 1 615 34 is_stmt 1 discriminator 2 view .LVU483
	.loc 1 615 35 is_stmt 0 discriminator 2 view .LVU484
	subq	$1, %rbx
.LVL227:
	.loc 1 615 26 is_stmt 1 discriminator 2 view .LVU485
	subq	$16, %r15
	.loc 1 615 3 is_stmt 0 discriminator 2 view .LVU486
	cmpq	$-1, %rbx
	je	.L147
.LVL228:
.L135:
	.loc 1 617 7 is_stmt 1 view .LVU487
	.loc 1 617 11 is_stmt 0 view .LVU488
	movq	%rbp, %rsi
	movq	%r15, %rdi
	call	mpz_cmp@PLT
.LVL229:
	.loc 1 617 10 view .LVU489
	testl	%eax, %eax
	jg	.L148
	.loc 1 621 3 is_stmt 1 view .LVU490
	.loc 1 621 16 is_stmt 0 view .LVU491
	movq	%rbp, %rsi
	movq	%r15, %rdi
	call	mpz_cmp@PLT
.LVL230:
	.loc 1 621 13 view .LVU492
	testl	%eax, %eax
	jne	.L141
	.loc 1 641 7 is_stmt 1 view .LVU493
	.loc 1 641 12 is_stmt 0 view .LVU494
	movq	24(%rsp), %rax
	addq	$1, (%rax,%rbx,8)
	.loc 1 643 1 view .LVU495
	addq	$56, %rsp
	.cfi_remember_state
	.cfi_def_cfa_offset 56
	popq	%rbx
	.cfi_def_cfa_offset 48
.LVL231:
	.loc 1 643 1 view .LVU496
	popq	%rbp
	.cfi_def_cfa_offset 40
.LVL232:
	.loc 1 643 1 view .LVU497
	popq	%r12
	.cfi_def_cfa_offset 32
.LVL233:
	.loc 1 643 1 view .LVU498
	popq	%r13
	.cfi_def_cfa_offset 24
	popq	%r14
	.cfi_def_cfa_offset 16
	popq	%r15
	.cfi_def_cfa_offset 8
	ret
.LVL234:
	.p2align 4,,10
	.p2align 3
.L147:
	.cfi_restore_state
	.loc 1 623 7 is_stmt 1 view .LVU499
	.loc 1 623 34 is_stmt 0 view .LVU500
	movq	8(%rsp), %r15
	.loc 1 623 11 view .LVU501
	movq	16(%rsp), %rdi
	.loc 1 623 34 view .LVU502
	addq	$1, %r15
	.loc 1 623 11 view .LVU503
	movq	%r15, %r13
	.loc 1 623 34 view .LVU504
	movq	%r15, 32(%rsp)
	.loc 1 623 11 view .LVU505
	salq	$4, %r13
	movq	%r13, %rsi
	call	xrealloc@PLT
.LVL235:
	.loc 1 624 7 is_stmt 1 view .LVU506
	.loc 1 624 11 is_stmt 0 view .LVU507
	movq	24(%rsp), %rdi
	leaq	0(,%r15,8), %rsi
	.loc 1 623 11 view .LVU508
	movq	%rax, 16(%rsp)
.LVL236:
	.loc 1 624 11 view .LVU509
	call	xrealloc@PLT
.LVL237:
	movq	%rax, %r15
.LVL238:
	.loc 1 626 7 is_stmt 1 view .LVU510
	.loc 1 626 18 is_stmt 0 view .LVU511
	movq	16(%rsp), %rax
.LVL239:
	.loc 1 626 18 view .LVU512
	leaq	-16(%rax,%r13), %rdi
	.loc 1 626 7 view .LVU513
	movq	%rdi, 40(%rsp)
	call	mpz_init@PLT
.LVL240:
	.loc 1 627 7 is_stmt 1 view .LVU514
.LBB192:
	.loc 1 627 12 view .LVU515
	.loc 1 627 35 view .LVU516
	movq	40(%rsp), %rdi
.LBE192:
	.loc 1 626 7 is_stmt 0 view .LVU517
	movq	$0, 24(%rsp)
	movq	$0, 8(%rsp)
.LVL241:
	.p2align 4,,10
	.p2align 3
.L138:
.LBB193:
	.loc 1 629 11 is_stmt 1 discriminator 3 view .LVU518
	leaq	-16(%rdi), %r13
	movq	%r13, %rsi
	call	mpz_set@PLT
.LVL242:
	.loc 1 630 11 discriminator 3 view .LVU519
	.loc 1 630 20 is_stmt 0 discriminator 3 view .LVU520
	movq	(%r15,%r14,8), %rcx
	movq	%r13, %rdi
	movq	%rcx, 8(%r15,%r14,8)
	.loc 1 627 42 is_stmt 1 discriminator 3 view .LVU521
.LVL243:
	.loc 1 627 43 is_stmt 0 discriminator 3 view .LVU522
	subq	$1, %r14
.LVL244:
	.loc 1 627 35 is_stmt 1 discriminator 3 view .LVU523
	.loc 1 627 7 is_stmt 0 discriminator 3 view .LVU524
	cmpq	%rbx, %r14
	jg	.L138
.L137:
	.loc 1 627 7 discriminator 3 view .LVU525
	movq	24(%rsp), %rdi
	addq	16(%rsp), %rdi
.LVL245:
.L139:
	.loc 1 627 7 discriminator 3 view .LVU526
.LBE193:
	.loc 1 632 7 is_stmt 1 view .LVU527
	movq	%rbp, %rsi
	call	mpz_set@PLT
.LVL246:
	.loc 1 633 7 view .LVU528
	.loc 1 633 16 is_stmt 0 view .LVU529
	movq	8(%rsp), %rax
	movq	$1, (%r15,%rax,8)
	.loc 1 635 7 is_stmt 1 view .LVU530
	.loc 1 635 18 is_stmt 0 view .LVU531
	movq	16(%rsp), %rax
	.loc 1 636 18 view .LVU532
	movq	%r15, 8(%r12)
	.loc 1 635 18 view .LVU533
	movq	%rax, (%r12)
	.loc 1 636 7 is_stmt 1 view .LVU534
	.loc 1 637 7 view .LVU535
	.loc 1 637 25 is_stmt 0 view .LVU536
	movq	32(%rsp), %rax
	movq	%rax, 16(%r12)
	.loc 1 643 1 view .LVU537
	addq	$56, %rsp
	.cfi_remember_state
	.cfi_def_cfa_offset 56
	popq	%rbx
	.cfi_def_cfa_offset 48
	popq	%rbp
	.cfi_def_cfa_offset 40
.LVL247:
	.loc 1 643 1 view .LVU538
	popq	%r12
	.cfi_def_cfa_offset 32
.LVL248:
	.loc 1 643 1 view .LVU539
	popq	%r13
	.cfi_def_cfa_offset 24
	popq	%r14
	.cfi_def_cfa_offset 16
	popq	%r15
	.cfi_def_cfa_offset 8
.LVL249:
	.loc 1 643 1 view .LVU540
	ret
.LVL250:
	.p2align 4,,10
	.p2align 3
.L141:
	.cfi_restore_state
	.loc 1 623 7 is_stmt 1 view .LVU541
	.loc 1 623 34 is_stmt 0 view .LVU542
	movq	8(%rsp), %r15
	.loc 1 623 11 view .LVU543
	movq	16(%rsp), %rdi
	.loc 1 623 34 view .LVU544
	addq	$1, %r15
	.loc 1 623 11 view .LVU545
	movq	%r15, %rdx
	.loc 1 623 34 view .LVU546
	movq	%r15, 32(%rsp)
	.loc 1 623 11 view .LVU547
	salq	$4, %rdx
	movq	%rdx, %rsi
	movq	%rdx, 8(%rsp)
.LVL251:
	.loc 1 623 11 view .LVU548
	call	xrealloc@PLT
.LVL252:
	.loc 1 624 7 is_stmt 1 view .LVU549
	.loc 1 624 11 is_stmt 0 view .LVU550
	movq	24(%rsp), %rdi
	leaq	0(,%r15,8), %rsi
	.loc 1 623 11 view .LVU551
	movq	%rax, 16(%rsp)
.LVL253:
	.loc 1 624 11 view .LVU552
	call	xrealloc@PLT
.LVL254:
	.loc 1 626 18 view .LVU553
	movq	8(%rsp), %rdx
	.loc 1 624 11 view .LVU554
	movq	%rax, %r15
.LVL255:
	.loc 1 626 7 is_stmt 1 view .LVU555
	.loc 1 626 18 is_stmt 0 view .LVU556
	movq	16(%rsp), %rax
.LVL256:
	.loc 1 626 18 view .LVU557
	leaq	-16(%rax,%rdx), %rdi
	.loc 1 626 7 view .LVU558
	movq	%rdi, 40(%rsp)
	call	mpz_init@PLT
.LVL257:
	.loc 1 627 7 is_stmt 1 view .LVU559
.LBB194:
	.loc 1 627 12 view .LVU560
	.loc 1 627 35 view .LVU561
	leaq	1(%rbx), %rax
	.loc 1 627 7 is_stmt 0 view .LVU562
	movq	40(%rsp), %rdi
	movq	%rax, 8(%rsp)
	salq	$4, %rax
	cmpq	%rbx, %r13
	movq	%rax, 24(%rsp)
	jg	.L138
	jmp	.L137
.LVL258:
.L133:
	.loc 1 627 7 view .LVU563
.LBE194:
	.loc 1 623 7 is_stmt 1 view .LVU564
	.loc 1 623 34 is_stmt 0 view .LVU565
	movq	8(%rsp), %rax
.LVL259:
	.loc 1 623 11 view .LVU566
	movq	16(%rsp), %rdi
.LVL260:
	.loc 1 623 34 view .LVU567
	leaq	1(%rax), %r14
	.loc 1 623 11 view .LVU568
	movq	%r14, %rbx
	.loc 1 623 34 view .LVU569
	movq	%r14, 32(%rsp)
	.loc 1 623 11 view .LVU570
	salq	$4, %rbx
	movq	%rbx, %rsi
.LVL261:
	.loc 1 623 11 view .LVU571
	call	xrealloc@PLT
.LVL262:
	.loc 1 624 11 view .LVU572
	movq	24(%rsp), %rdi
	leaq	0(,%r14,8), %rsi
	.loc 1 623 11 view .LVU573
	movq	%rax, %r13
.LVL263:
	.loc 1 623 11 view .LVU574
	movq	%rax, 16(%rsp)
.LVL264:
	.loc 1 624 7 is_stmt 1 view .LVU575
	.loc 1 624 11 is_stmt 0 view .LVU576
	call	xrealloc@PLT
.LVL265:
	.loc 1 626 18 view .LVU577
	leaq	-16(%r13,%rbx), %rdi
	.loc 1 626 7 view .LVU578
	movq	%rdi, 24(%rsp)
.LVL266:
	.loc 1 624 11 view .LVU579
	movq	%rax, %r15
.LVL267:
	.loc 1 626 7 is_stmt 1 view .LVU580
	call	mpz_init@PLT
.LVL268:
	.loc 1 627 7 view .LVU581
.LBB195:
	.loc 1 627 12 view .LVU582
	.loc 1 627 35 view .LVU583
	movq	24(%rsp), %rdi
	jmp	.L139
.LBE195:
	.cfi_endproc
.LFE143:
	.size	mp_factor_insert, .-mp_factor_insert
	.section	.rodata.str1.1
.LC4:
	.string	"write error"
.LC5:
	.string	"%s"
	.text
	.p2align 4
	.type	lbuf_flush, @function
lbuf_flush:
.LFB165:
	.loc 1 2349 1 view -0
	.cfi_startproc
	endbr64
	.loc 1 2350 3 view .LVU585
	.loc 1 2349 1 is_stmt 0 view .LVU586
	pushq	%r12
	.cfi_def_cfa_offset 16
	.cfi_offset 12, -16
	.loc 1 2351 7 view .LVU587
	movl	$1, %edi
	.loc 1 2349 1 view .LVU588
	pushq	%rbx
	.cfi_def_cfa_offset 24
	.cfi_offset 3, -24
	subq	$8, %rsp
	.cfi_def_cfa_offset 32
	.loc 1 2350 32 view .LVU589
	movq	lbuf(%rip), %rsi
	.loc 1 2350 26 view .LVU590
	movq	8+lbuf(%rip), %rbx
	subq	%rsi, %rbx
.LVL269:
	.loc 1 2351 3 is_stmt 1 view .LVU591
	.loc 1 2351 7 is_stmt 0 view .LVU592
	movq	%rbx, %rdx
	call	full_write@PLT
.LVL270:
	.loc 1 2351 6 view .LVU593
	cmpq	%rbx, %rax
	jne	.L152
	.loc 1 2353 3 is_stmt 1 view .LVU594
	.loc 1 2353 12 is_stmt 0 view .LVU595
	movq	lbuf(%rip), %rax
	movq	%rax, 8+lbuf(%rip)
	.loc 1 2354 1 view .LVU596
	addq	$8, %rsp
	.cfi_remember_state
	.cfi_def_cfa_offset 24
	popq	%rbx
	.cfi_def_cfa_offset 16
.LVL271:
	.loc 1 2354 1 view .LVU597
	popq	%r12
	.cfi_def_cfa_offset 8
	ret
.LVL272:
.L152:
	.cfi_restore_state
.LBB200:
.LBI200:
	.loc 1 2348 1 is_stmt 1 view .LVU598
.LBB201:
.LBB202:
	.loc 1 2352 5 view .LVU599
	movl	$5, %edx
	leaq	.LC4(%rip), %rsi
	xorl	%edi, %edi
	call	dcgettext@PLT
.LVL273:
	movq	%rax, %r12
	call	__errno_location@PLT
.LVL274:
	movq	%r12, %rcx
	movl	$1, %edi
	leaq	.LC5(%rip), %rdx
	movl	(%rax), %esi
	xorl	%eax, %eax
	call	error@PLT
.LVL275:
.LBE202:
.LBE201:
.LBE200:
	.cfi_endproc
.LFE165:
	.size	lbuf_flush, .-lbuf_flush
	.section	.rodata.str1.1
.LC6:
	.string	"factors->plarge[1] == 0"
	.text
	.p2align 4
	.type	factor_insert_large, @function
factor_insert_large:
.LVL276:
.LFB139:
	.loc 1 553 1 view -0
	.cfi_startproc
	.loc 1 554 3 view .LVU601
	.loc 1 553 1 is_stmt 0 view .LVU602
	movq	%rdx, %r8
	.loc 1 554 6 view .LVU603
	testq	%rsi, %rsi
	je	.L154
	.loc 1 556 7 is_stmt 1 view .LVU604
	cmpq	$0, 8(%rdi)
	jne	.L161
	.loc 1 557 7 view .LVU605
	.loc 1 557 26 is_stmt 0 view .LVU606
	movq	%rdx, (%rdi)
	.loc 1 558 7 is_stmt 1 view .LVU607
	.loc 1 558 26 is_stmt 0 view .LVU608
	movq	%rsi, 8(%rdi)
	ret
	.p2align 4,,10
	.p2align 3
.L154:
	.loc 1 561 5 is_stmt 1 view .LVU609
	movl	$1, %edx
.LVL277:
	.loc 1 561 5 is_stmt 0 view .LVU610
	movq	%r8, %rsi
.LVL278:
	.loc 1 561 5 view .LVU611
	jmp	factor_insert_multiplicity
.LVL279:
.L161:
.LBB205:
.LBI205:
	.loc 1 551 1 is_stmt 1 view .LVU612
.LBB206:
	.loc 1 556 7 view .LVU613
.LBE206:
.LBE205:
	.loc 1 553 1 is_stmt 0 view .LVU614
	pushq	%rax
	.cfi_def_cfa_offset 16
.LBB208:
.LBB207:
	.loc 1 556 7 view .LVU615
	leaq	__PRETTY_FUNCTION__.7856(%rip), %rcx
	movl	$556, %edx
.LVL280:
	.loc 1 556 7 view .LVU616
	leaq	.LC0(%rip), %rsi
.LVL281:
	.loc 1 556 7 view .LVU617
	leaq	.LC6(%rip), %rdi
.LVL282:
	.loc 1 556 7 view .LVU618
	call	__assert_fail@PLT
.LVL283:
	.loc 1 556 7 view .LVU619
.LBE207:
.LBE208:
	.cfi_endproc
.LFE139:
	.size	factor_insert_large, .-factor_insert_large
	.section	.rodata.str1.1
.LC7:
	.string	"b0 & 1"
	.text
	.p2align 4
	.type	gcd2_odd, @function
gcd2_odd:
.LVL284:
.LFB137:
	.loc 1 473 1 is_stmt 1 view -0
	.cfi_startproc
	.loc 1 474 3 view .LVU621
	testb	$1, %r8b
	je	.L205
	movq	%rsi, %r10
	.loc 1 476 6 is_stmt 0 view .LVU622
	movq	%rdx, %rax
	movq	%rdi, %r9
	movq	%rdx, %rsi
.LVL285:
	.loc 1 476 6 view .LVU623
	orq	%r10, %rax
	movq	%r8, %rdi
.LVL286:
	.loc 1 476 3 is_stmt 1 view .LVU624
	.loc 1 476 6 is_stmt 0 view .LVU625
	je	.L164
.LVL287:
.LBB211:
.LBB212:
	.loc 1 483 5 is_stmt 1 view .LVU626
	.loc 1 482 9 view .LVU627
	testb	$1, %dl
	jne	.L166
.LVL288:
	.p2align 4,,10
	.p2align 3
.L165:
	.loc 1 483 5 view .LVU628
	.loc 1 483 5 view .LVU629
	shrq	%rsi
.LVL289:
	.loc 1 483 5 is_stmt 0 view .LVU630
	movq	%rsi, %r8
	movq	%r10, %rsi
	shrq	%r10
.LVL290:
	.loc 1 483 5 view .LVU631
	salq	$63, %rsi
.LVL291:
	.loc 1 483 5 view .LVU632
	orq	%r8, %rsi
.LVL292:
	.loc 1 483 5 is_stmt 1 view .LVU633
	.loc 1 483 5 view .LVU634
	.loc 1 482 9 view .LVU635
	andl	$1, %r8d
	je	.L165
.L166:
.LVL293:
	.loc 1 485 3 view .LVU636
	.loc 1 487 7 view .LVU637
	.loc 1 487 10 is_stmt 0 view .LVU638
	movq	%rcx, %rax
	orq	%r10, %rax
	je	.L168
.LVL294:
	.p2align 4,,10
	.p2align 3
.L169:
	.loc 1 493 7 is_stmt 1 view .LVU639
	.loc 1 493 10 is_stmt 0 view .LVU640
	cmpq	%rcx, %r10
	ja	.L170
	.loc 1 493 11 view .LVU641
	sete	%al
	cmpq	%rdi, %rsi
	jbe	.L171
	testb	%al, %al
	jne	.L170
.L171:
	.loc 1 500 12 is_stmt 1 view .LVU642
	.loc 1 500 15 is_stmt 0 view .LVU643
	cmpq	%rcx, %r10
	jb	.L174
	.loc 1 500 16 view .LVU644
	cmpq	%rdi, %rsi
	jnb	.L175
	testb	%al, %al
	je	.L175
.L174:
	.loc 1 502 11 is_stmt 1 view .LVU645
#APP
# 502 "src/factor.c" 1
	subq %rsi,%rdi
	sbbq %r10,%rcx
# 0 "" 2
.LVL295:
	.p2align 4,,10
	.p2align 3
#NO_APP
.L176:
	.loc 1 503 11 view .LVU646
	.loc 1 504 13 view .LVU647
	.loc 1 504 13 view .LVU648
	movq	%rdi, %rax
	movq	%rcx, %rdi
.LVL296:
	.loc 1 504 13 is_stmt 0 view .LVU649
	shrq	%rcx
.LVL297:
	.loc 1 504 13 view .LVU650
	shrq	%rax
.LVL298:
	.loc 1 504 13 view .LVU651
	salq	$63, %rdi
.LVL299:
	.loc 1 504 13 view .LVU652
	orq	%rax, %rdi
.LVL300:
	.loc 1 504 13 is_stmt 1 view .LVU653
	.loc 1 504 13 view .LVU654
	.loc 1 505 17 view .LVU655
	.loc 1 505 11 is_stmt 0 view .LVU656
	testb	$1, %al
	je	.L176
	.loc 1 485 3 is_stmt 1 view .LVU657
	.loc 1 487 7 view .LVU658
	.loc 1 487 10 is_stmt 0 view .LVU659
	movq	%r10, %rax
	orq	%rcx, %rax
	jne	.L169
.L168:
	.loc 1 489 11 is_stmt 1 view .LVU660
	.loc 1 489 15 is_stmt 0 view .LVU661
	movq	$0, (%r9)
	.loc 1 490 11 is_stmt 1 view .LVU662
	.loc 1 490 18 is_stmt 0 view .LVU663
	jmp	gcd_odd
.LVL301:
	.p2align 4,,10
	.p2align 3
.L170:
	.loc 1 495 11 is_stmt 1 view .LVU664
#APP
# 495 "src/factor.c" 1
	subq %rdi,%rsi
	sbbq %rcx,%r10
# 0 "" 2
.LVL302:
	.p2align 4,,10
	.p2align 3
#NO_APP
.L172:
	.loc 1 496 11 view .LVU665
	.loc 1 497 13 view .LVU666
	.loc 1 497 13 view .LVU667
	shrq	%rsi
.LVL303:
	.loc 1 497 13 is_stmt 0 view .LVU668
	movq	%rsi, %r8
	movq	%r10, %rsi
	shrq	%r10
.LVL304:
	.loc 1 497 13 view .LVU669
	salq	$63, %rsi
.LVL305:
	.loc 1 497 13 view .LVU670
	orq	%r8, %rsi
.LVL306:
	.loc 1 497 13 is_stmt 1 view .LVU671
	.loc 1 497 13 view .LVU672
	.loc 1 498 17 view .LVU673
	.loc 1 498 11 is_stmt 0 view .LVU674
	andl	$1, %r8d
	je	.L172
	.loc 1 485 3 is_stmt 1 view .LVU675
	.loc 1 487 7 view .LVU676
	.loc 1 487 10 is_stmt 0 view .LVU677
	movq	%r10, %rax
	orq	%rcx, %rax
	jne	.L169
	jmp	.L168
.LVL307:
.L164:
	.loc 1 487 10 view .LVU678
.LBE212:
.LBE211:
	.loc 1 478 7 is_stmt 1 view .LVU679
	.loc 1 478 11 is_stmt 0 view .LVU680
	movq	%rcx, (%r9)
	.loc 1 479 7 is_stmt 1 view .LVU681
	.loc 1 479 14 is_stmt 0 view .LVU682
	movq	%r8, %rax
	ret
.LVL308:
.L175:
.LBB214:
.LBB213:
	.loc 1 511 3 is_stmt 1 view .LVU683
	.loc 1 511 7 is_stmt 0 view .LVU684
	movq	%r10, (%r9)
	.loc 1 512 3 is_stmt 1 view .LVU685
	.loc 1 512 10 is_stmt 0 view .LVU686
	movq	%rsi, %rax
.LVL309:
	.loc 1 512 10 view .LVU687
.LBE213:
.LBE214:
	.loc 1 513 1 view .LVU688
	ret
.LVL310:
.L205:
	.loc 1 474 3 is_stmt 1 discriminator 1 view .LVU689
	.loc 1 473 1 is_stmt 0 discriminator 1 view .LVU690
	pushq	%rax
	.cfi_def_cfa_offset 16
	.loc 1 474 3 discriminator 1 view .LVU691
	leaq	__PRETTY_FUNCTION__.7825(%rip), %rcx
.LVL311:
	.loc 1 474 3 discriminator 1 view .LVU692
	movl	$474, %edx
.LVL312:
	.loc 1 474 3 discriminator 1 view .LVU693
	leaq	.LC0(%rip), %rsi
.LVL313:
	.loc 1 474 3 discriminator 1 view .LVU694
	leaq	.LC7(%rip), %rdi
.LVL314:
	.loc 1 474 3 discriminator 1 view .LVU695
	call	__assert_fail@PLT
.LVL315:
	.loc 1 474 3 discriminator 1 view .LVU696
	.cfi_endproc
.LFE137:
	.size	gcd2_odd, .-gcd2_odd
	.section	.rodata.str1.1
.LC8:
	.string	"d1 != 0"
	.text
	.p2align 4
	.type	mod2, @function
mod2:
.LVL316:
.LFB135:
	.loc 1 407 1 is_stmt 1 view -0
	.cfi_startproc
	.loc 1 408 3 view .LVU698
	.loc 1 410 3 view .LVU699
	testq	%rcx, %rcx
	je	.L224
	movq	%rdx, %rax
	.loc 1 412 3 view .LVU700
	.loc 1 412 6 is_stmt 0 view .LVU701
	testq	%rsi, %rsi
	je	.L225
	.loc 1 418 3 is_stmt 1 view .LVU702
.LBB223:
	.loc 1 418 3 view .LVU703
	.loc 1 418 3 view .LVU704
	.loc 1 418 3 view .LVU705
#APP
# 418 "src/factor.c" 1
	bsr	%rcx,%r10
# 0 "" 2
.LVL317:
	.loc 1 418 3 view .LVU706
	.loc 1 418 3 is_stmt 0 view .LVU707
#NO_APP
.LBE223:
	.loc 1 418 3 is_stmt 1 view .LVU708
	.loc 1 419 3 view .LVU709
.LBB224:
	.loc 1 419 3 view .LVU710
	.loc 1 419 3 view .LVU711
	.loc 1 419 3 view .LVU712
#APP
# 419 "src/factor.c" 1
	bsr	%rsi,%rdx
# 0 "" 2
.LVL318:
	.loc 1 419 3 view .LVU713
	.loc 1 419 3 is_stmt 0 view .LVU714
#NO_APP
.LBE224:
	.loc 1 419 3 is_stmt 1 view .LVU715
	.loc 1 420 3 view .LVU716
.LBB225:
	.loc 1 418 3 is_stmt 0 view .LVU717
	xorl	$63, %r10d
.LVL319:
	.loc 1 418 3 view .LVU718
.LBE225:
.LBB226:
	.loc 1 419 3 view .LVU719
	xorl	$63, %edx
.LVL320:
	.loc 1 419 3 view .LVU720
.LBE226:
	.loc 1 421 3 view .LVU721
	movq	%r8, %r9
	.loc 1 420 7 view .LVU722
	subl	%edx, %r10d
.LVL321:
	.loc 1 421 3 is_stmt 1 view .LVU723
	.loc 1 421 3 view .LVU724
	movq	%rcx, %rdx
.LVL322:
	.loc 1 421 3 is_stmt 0 view .LVU725
	movl	%r10d, %ecx
.LVL323:
	.loc 1 421 3 view .LVU726
	salq	%cl, %rdx
.LVL324:
	.loc 1 421 3 view .LVU727
	movl	$64, %ecx
	subl	%r10d, %ecx
	shrq	%cl, %r9
	movl	%r10d, %ecx
	orq	%rdx, %r9
.LVL325:
	.loc 1 421 3 is_stmt 1 view .LVU728
	salq	%cl, %r8
.LVL326:
	.loc 1 421 3 view .LVU729
	.loc 1 422 3 view .LVU730
.LBB227:
	.loc 1 422 8 view .LVU731
	.loc 1 422 19 view .LVU732
	.loc 1 422 3 is_stmt 0 view .LVU733
	testl	%r10d, %r10d
	jle	.L210
	.loc 1 422 12 view .LVU734
	xorl	%edx, %edx
.LVL327:
	.p2align 4,,10
	.p2align 3
.L213:
	.loc 1 424 7 is_stmt 1 view .LVU735
	.loc 1 424 10 is_stmt 0 view .LVU736
	cmpq	%rsi, %r9
	jb	.L211
	.loc 1 424 11 discriminator 1 view .LVU737
	jne	.L212
	cmpq	%r8, %rax
	jb	.L212
.L211:
	.loc 1 425 9 is_stmt 1 view .LVU738
#APP
# 425 "src/factor.c" 1
	subq %r8,%rax
	sbbq %r9,%rsi
# 0 "" 2
.LVL328:
#NO_APP
.L212:
	.loc 1 426 7 discriminator 2 view .LVU739
	.loc 1 426 7 discriminator 2 view .LVU740
	movq	%r9, %rcx
	shrq	%r8
.LVL329:
	.loc 1 422 29 is_stmt 0 discriminator 2 view .LVU741
	addl	$1, %edx
.LVL330:
	.loc 1 426 7 discriminator 2 view .LVU742
	salq	$63, %rcx
	shrq	%r9
.LVL331:
	.loc 1 426 7 discriminator 2 view .LVU743
	orq	%rcx, %r8
.LVL332:
	.loc 1 426 7 is_stmt 1 discriminator 2 view .LVU744
	.loc 1 426 7 discriminator 2 view .LVU745
	.loc 1 422 28 discriminator 2 view .LVU746
	.loc 1 422 19 discriminator 2 view .LVU747
	.loc 1 422 3 is_stmt 0 discriminator 2 view .LVU748
	cmpl	%edx, %r10d
	jne	.L213
.LVL333:
.L210:
	.loc 1 422 3 discriminator 2 view .LVU749
.LBE227:
	.loc 1 429 3 is_stmt 1 view .LVU750
	.loc 1 429 7 is_stmt 0 view .LVU751
	movq	%rsi, (%rdi)
	.loc 1 430 3 is_stmt 1 view .LVU752
	.loc 1 431 1 is_stmt 0 view .LVU753
	ret
.LVL334:
	.p2align 4,,10
	.p2align 3
.L225:
	.loc 1 414 7 is_stmt 1 view .LVU754
	.loc 1 414 11 is_stmt 0 view .LVU755
	movq	$0, (%rdi)
	.loc 1 415 7 is_stmt 1 view .LVU756
	.loc 1 415 14 is_stmt 0 view .LVU757
	ret
.LVL335:
.L224:
.LBB228:
.LBI228:
	.loc 1 406 1 is_stmt 1 view .LVU758
.LBB229:
	.loc 1 410 3 view .LVU759
.LBE229:
.LBE228:
	.loc 1 407 1 is_stmt 0 view .LVU760
	pushq	%rax
	.cfi_def_cfa_offset 16
.LBB231:
.LBB230:
	.loc 1 410 3 view .LVU761
	leaq	__PRETTY_FUNCTION__.7799(%rip), %rcx
.LVL336:
	.loc 1 410 3 view .LVU762
	movl	$410, %edx
.LVL337:
	.loc 1 410 3 view .LVU763
	leaq	.LC0(%rip), %rsi
.LVL338:
	.loc 1 410 3 view .LVU764
	leaq	.LC8(%rip), %rdi
.LVL339:
	.loc 1 410 3 view .LVU765
	call	__assert_fail@PLT
.LVL340:
	.loc 1 410 3 view .LVU766
.LBE230:
.LBE231:
	.cfi_endproc
.LFE135:
	.size	mod2, .-mod2
	.p2align 4
	.type	print_uintmaxes, @function
print_uintmaxes:
.LVL341:
.LFB168:
	.loc 1 2414 1 is_stmt 1 view -0
	.cfi_startproc
	.loc 1 2415 3 view .LVU768
	.loc 1 2417 3 view .LVU769
	.loc 1 2414 1 is_stmt 0 view .LVU770
	pushq	%rbp
	.cfi_def_cfa_offset 16
	.cfi_offset 6, -16
	.loc 1 2414 1 view .LVU771
	movq	%rsi, %rbp
	.loc 1 2417 6 view .LVU772
	testq	%rdi, %rdi
	je	.L239
.LVL342:
.LBB236:
.LBI236:
	.loc 1 2413 1 is_stmt 1 view .LVU773
.LBB237:
	.loc 1 2423 7 view .LVU774
	.loc 1 2423 9 is_stmt 0 view .LVU775
	movq	%rdi, %rdx
	.loc 1 2424 9 view .LVU776
	movl	$64, %r9d
.LBB238:
	.loc 1 2425 7 view .LVU777
	xorl	%r8d, %r8d
	movl	$1000000000, %ecx
.LBE238:
	.loc 1 2423 9 view .LVU778
	movabsq	$19342813113834067, %r10
	shrq	$9, %rdx
	movq	%rdx, %rax
	mulq	%r10
	shrq	$11, %rdx
	.loc 1 2424 9 view .LVU779
	imulq	$1000000000, %rdx, %rax
	.loc 1 2423 9 view .LVU780
	movq	%rdx, %r10
.LVL343:
	.loc 1 2424 7 is_stmt 1 view .LVU781
	.loc 1 2424 9 is_stmt 0 view .LVU782
	subq	%rax, %rdi
.LVL344:
	.loc 1 2425 7 is_stmt 1 view .LVU783
.LBB241:
	.loc 1 2425 7 view .LVU784
	.loc 1 2425 7 view .LVU785
.LBB239:
	.loc 1 2425 7 view .LVU786
.LBE239:
	xorl	%eax, %eax
.LVL345:
	.p2align 4,,10
	.p2align 3
.L230:
.LBB240:
	.loc 1 2425 7 view .LVU787
	.loc 1 2425 7 view .LVU788
	movq	%rcx, %rsi
	shrq	%rax
.LVL346:
	.loc 1 2425 7 is_stmt 0 view .LVU789
	addq	%r8, %r8
.LVL347:
	.loc 1 2425 7 view .LVU790
	salq	$63, %rsi
	shrq	%rcx
.LVL348:
	.loc 1 2425 7 view .LVU791
	orq	%rsi, %rax
.LVL349:
	.loc 1 2425 7 is_stmt 1 view .LVU792
	.loc 1 2425 7 view .LVU793
	.loc 1 2425 7 view .LVU794
	.loc 1 2425 7 view .LVU795
	cmpq	%rdi, %rcx
	jb	.L228
	.loc 1 2425 7 is_stmt 0 view .LVU796
	jne	.L229
	cmpq	%rbp, %rax
	ja	.L229
.L228:
	.loc 1 2425 7 is_stmt 1 view .LVU797
	movq	%rbp, %rsi
	addq	$1, %r8
.LVL350:
	.loc 1 2425 7 view .LVU798
#APP
# 2425 "src/factor.c" 1
	subq %rax,%rsi
	sbbq %rcx,%rdi
# 0 "" 2
.LVL351:
	.loc 1 2425 7 is_stmt 0 view .LVU799
#NO_APP
	movq	%rsi, %rbp
.LVL352:
.L229:
	.loc 1 2425 7 is_stmt 1 view .LVU800
	.loc 1 2425 7 view .LVU801
	subl	$1, %r9d
.LVL353:
	.loc 1 2425 7 is_stmt 0 view .LVU802
	jne	.L230
	.loc 1 2425 7 view .LVU803
.LBE240:
	.loc 1 2425 7 is_stmt 1 view .LVU804
.LVL354:
	.loc 1 2425 7 view .LVU805
	.loc 1 2425 7 is_stmt 0 view .LVU806
.LBE241:
	.loc 1 2425 7 is_stmt 1 view .LVU807
	.loc 1 2426 7 view .LVU808
	movq	%r8, %rsi
	movq	%r10, %rdi
.LVL355:
	.loc 1 2426 7 is_stmt 0 view .LVU809
	call	print_uintmaxes
.LVL356:
	.loc 1 2427 7 is_stmt 1 view .LVU810
	movq	%rbp, %rdi
	movl	$9, %esi
.LBE237:
.LBE236:
	.loc 1 2429 1 is_stmt 0 view .LVU811
	popq	%rbp
	.cfi_remember_state
	.cfi_def_cfa_offset 8
.LVL357:
.LBB243:
.LBB242:
	.loc 1 2427 7 view .LVU812
	jmp	lbuf_putint
.LVL358:
.L239:
	.cfi_restore_state
	.loc 1 2427 7 view .LVU813
.LBE242:
.LBE243:
	.loc 1 2418 5 is_stmt 1 view .LVU814
	movq	%rbp, %rdi
.LVL359:
	.loc 1 2418 5 is_stmt 0 view .LVU815
	xorl	%esi, %esi
.LVL360:
	.loc 1 2429 1 view .LVU816
	popq	%rbp
	.cfi_def_cfa_offset 8
.LVL361:
	.loc 1 2418 5 view .LVU817
	jmp	lbuf_putint
.LVL362:
	.loc 1 2418 5 view .LVU818
	.cfi_endproc
.LFE168:
	.size	print_uintmaxes, .-print_uintmaxes
	.p2align 4
	.type	lbuf_putc, @function
lbuf_putc:
.LVL363:
.LFB166:
	.loc 1 2361 1 is_stmt 1 view -0
	.cfi_startproc
	.loc 1 2362 3 view .LVU820
	.loc 1 2362 8 is_stmt 0 view .LVU821
	movq	8+lbuf(%rip), %rax
	.loc 1 2361 1 view .LVU822
	pushq	%r12
	.cfi_def_cfa_offset 16
	.cfi_offset 12, -16
	pushq	%rbp
	.cfi_def_cfa_offset 24
	.cfi_offset 6, -24
	.loc 1 2362 12 view .LVU823
	leaq	1(%rax), %rbp
	.loc 1 2361 1 view .LVU824
	pushq	%rbx
	.cfi_def_cfa_offset 32
	.cfi_offset 3, -32
	.loc 1 2362 12 view .LVU825
	movq	%rbp, 8+lbuf(%rip)
	.loc 1 2362 15 view .LVU826
	movb	%dil, (%rax)
	.loc 1 2364 3 is_stmt 1 view .LVU827
	.loc 1 2364 6 is_stmt 0 view .LVU828
	cmpb	$10, %dil
	je	.L251
.LVL364:
.L240:
	.loc 1 2394 1 view .LVU829
	popq	%rbx
	.cfi_remember_state
	.cfi_def_cfa_offset 24
	popq	%rbp
	.cfi_def_cfa_offset 16
	popq	%r12
	.cfi_def_cfa_offset 8
	ret
.LVL365:
	.p2align 4,,10
	.p2align 3
.L251:
	.cfi_restore_state
.LBB251:
	.loc 1 2366 7 is_stmt 1 view .LVU830
	.loc 1 2370 25 is_stmt 0 view .LVU831
	movl	line_buffered.8386(%rip), %eax
	.loc 1 2366 40 view .LVU832
	movq	lbuf(%rip), %rbx
.LVL366:
	.loc 1 2369 7 is_stmt 1 view .LVU833
	.loc 1 2370 7 view .LVU834
	.loc 1 2370 10 is_stmt 0 view .LVU835
	cmpl	$-1, %eax
	je	.L252
.LVL367:
.L243:
	.loc 1 2372 7 is_stmt 1 view .LVU836
	.loc 1 2372 10 is_stmt 0 view .LVU837
	testl	%eax, %eax
	jne	.L245
	.loc 1 2374 12 is_stmt 1 view .LVU838
	.loc 1 2366 34 is_stmt 0 view .LVU839
	movq	%rbp, %rax
	subq	%rbx, %rax
	.loc 1 2374 15 view .LVU840
	cmpq	$511, %rax
	jbe	.L240
.LBE251:
.LBB252:
.LBI252:
	.loc 1 2360 1 is_stmt 1 view .LVU841
.LVL368:
.LBB253:
.LBB254:
.LBB255:
	.loc 1 2378 11 view .LVU842
	.loc 1 2382 11 view .LVU843
	.loc 1 2382 17 is_stmt 0 view .LVU844
	leaq	512(%rbx), %rax
.LVL369:
	.loc 1 2383 11 is_stmt 1 view .LVU845
	.p2align 4,,10
	.p2align 3
.L248:
	.loc 1 2383 35 view .LVU846
	.loc 1 2383 17 view .LVU847
	movq	%rax, %r12
	subq	$1, %rax
.LVL370:
	.loc 1 2383 17 is_stmt 0 view .LVU848
	cmpb	$10, (%rax)
	jne	.L248
	.loc 1 2384 11 is_stmt 1 view .LVU849
.LVL371:
	.loc 1 2386 11 view .LVU850
	.loc 1 2386 20 is_stmt 0 view .LVU851
	movq	%r12, 8+lbuf(%rip)
	.loc 1 2387 11 is_stmt 1 view .LVU852
	.loc 1 2390 41 is_stmt 0 view .LVU853
	subq	%r12, %rbp
.LVL372:
	.loc 1 2387 11 view .LVU854
	call	lbuf_flush
.LVL373:
	.loc 1 2390 11 is_stmt 1 view .LVU855
	.loc 1 2390 23 is_stmt 0 view .LVU856
	movq	lbuf(%rip), %rcx
.LVL374:
.LBB256:
.LBI256:
	.loc 2 31 1 is_stmt 1 view .LVU857
.LBB257:
	.loc 2 34 3 view .LVU858
	.loc 2 34 10 is_stmt 0 view .LVU859
	movq	%rbp, %rdx
	movq	%r12, %rsi
	movq	%rcx, %rdi
	call	memcpy@PLT
.LVL375:
	.loc 2 34 10 view .LVU860
.LBE257:
.LBE256:
	.loc 1 2391 11 is_stmt 1 view .LVU861
.LBE255:
.LBE254:
.LBE253:
.LBE252:
	.loc 1 2394 1 is_stmt 0 view .LVU862
	popq	%rbx
	.cfi_remember_state
	.cfi_def_cfa_offset 24
.LBB261:
.LBB260:
.LBB259:
.LBB258:
	.loc 1 2391 31 view .LVU863
	addq	%rax, %rbp
	movq	%rbp, 8+lbuf(%rip)
.LVL376:
	.loc 1 2391 31 view .LVU864
.LBE258:
.LBE259:
.LBE260:
.LBE261:
	.loc 1 2394 1 view .LVU865
	popq	%rbp
	.cfi_def_cfa_offset 16
	popq	%r12
	.cfi_def_cfa_offset 8
	ret
.LVL377:
	.p2align 4,,10
	.p2align 3
.L252:
	.cfi_restore_state
.LBB262:
	.loc 1 2371 9 is_stmt 1 view .LVU866
	.loc 1 2371 25 is_stmt 0 view .LVU867
	xorl	%edi, %edi
.LVL378:
	.loc 1 2371 25 view .LVU868
	call	isatty@PLT
.LVL379:
	.loc 1 2371 47 view .LVU869
	testl	%eax, %eax
	je	.L244
	.loc 1 2371 23 view .LVU870
	movl	$1, line_buffered.8386(%rip)
	.loc 1 2372 7 is_stmt 1 view .LVU871
.L245:
	.loc 1 2373 9 view .LVU872
.LBE262:
	.loc 1 2394 1 is_stmt 0 view .LVU873
	popq	%rbx
	.cfi_remember_state
	.cfi_def_cfa_offset 24
.LVL380:
	.loc 1 2394 1 view .LVU874
	popq	%rbp
	.cfi_def_cfa_offset 16
	.loc 1 2394 1 view .LVU875
	popq	%r12
	.cfi_def_cfa_offset 8
.LBB263:
	.loc 1 2373 9 view .LVU876
	jmp	lbuf_flush
.LVL381:
	.p2align 4,,10
	.p2align 3
.L244:
	.cfi_restore_state
	.loc 1 2371 50 discriminator 2 view .LVU877
	movl	$1, %edi
	call	isatty@PLT
.LVL382:
	.loc 1 2371 47 discriminator 2 view .LVU878
	testl	%eax, %eax
	setne	%al
	movzbl	%al, %eax
	.loc 1 2371 23 discriminator 2 view .LVU879
	movl	%eax, line_buffered.8386(%rip)
	jmp	.L243
.LBE263:
	.cfi_endproc
.LFE166:
	.size	lbuf_putc, .-lbuf_putc
	.p2align 4
	.type	mp_millerrabin, @function
mp_millerrabin:
.LVL383:
.LFB154:
	.loc 1 1165 1 is_stmt 1 view -0
	.cfi_startproc
	.loc 1 1166 3 view .LVU881
	.loc 1 1165 1 is_stmt 0 view .LVU882
	pushq	%r14
	.cfi_def_cfa_offset 16
	.cfi_offset 14, -16
	movq	%r9, %r14
	pushq	%r13
	.cfi_def_cfa_offset 24
	.cfi_offset 13, -24
	movq	%rsi, %r13
	movq	%rdx, %rsi
.LVL384:
	.loc 1 1165 1 view .LVU883
	movq	%r8, %rdx
.LVL385:
	.loc 1 1165 1 view .LVU884
	pushq	%r12
	.cfi_def_cfa_offset 32
	.cfi_offset 12, -32
	movq	%rdi, %r12
	pushq	%rbp
	.cfi_def_cfa_offset 40
	.cfi_offset 6, -40
	pushq	%rbx
	.cfi_def_cfa_offset 48
	.cfi_offset 3, -48
	.loc 1 1165 1 view .LVU885
	movq	%rcx, %rbx
	.loc 1 1166 3 view .LVU886
	movq	%rdi, %rcx
.LVL386:
	.loc 1 1166 3 view .LVU887
	movq	%rbx, %rdi
.LVL387:
	.loc 1 1166 3 view .LVU888
	call	mpz_powm@PLT
.LVL388:
	.loc 1 1168 3 is_stmt 1 view .LVU889
	.loc 1 1168 7 is_stmt 0 view .LVU890
	movl	$1, %esi
	movq	%rbx, %rdi
	call	mpz_cmp_ui@PLT
.LVL389:
	.loc 1 1168 6 view .LVU891
	testl	%eax, %eax
	jne	.L274
.L254:
	.loc 1 1180 1 view .LVU892
	popq	%rbx
	.cfi_remember_state
	.cfi_def_cfa_offset 40
.LVL390:
	.loc 1 1169 12 view .LVU893
	movl	$1, %eax
	.loc 1 1180 1 view .LVU894
	popq	%rbp
	.cfi_def_cfa_offset 32
	popq	%r12
	.cfi_def_cfa_offset 24
.LVL391:
	.loc 1 1180 1 view .LVU895
	popq	%r13
	.cfi_def_cfa_offset 16
.LVL392:
	.loc 1 1180 1 view .LVU896
	popq	%r14
	.cfi_def_cfa_offset 8
.LVL393:
	.loc 1 1180 1 view .LVU897
	ret
.LVL394:
	.p2align 4,,10
	.p2align 3
.L274:
	.cfi_restore_state
	.loc 1 1168 33 discriminator 1 view .LVU898
	movq	%r13, %rsi
	movq	%rbx, %rdi
	call	mpz_cmp@PLT
.LVL395:
	.loc 1 1168 30 discriminator 1 view .LVU899
	testl	%eax, %eax
	je	.L254
.LVL396:
.LBB268:
.LBB269:
.LBB270:
	.loc 1 1171 33 is_stmt 1 view .LVU900
	.loc 1 1171 26 is_stmt 0 view .LVU901
	movl	$1, %ebp
	.loc 1 1171 3 view .LVU902
	cmpq	$1, %r14
	ja	.L255
	jmp	.L257
.LVL397:
	.p2align 4,,10
	.p2align 3
.L275:
	.loc 1 1171 40 is_stmt 1 view .LVU903
	.loc 1 1171 41 is_stmt 0 view .LVU904
	addq	$1, %rbp
.LVL398:
	.loc 1 1171 33 is_stmt 1 view .LVU905
	.loc 1 1171 3 is_stmt 0 view .LVU906
	cmpq	%rbp, %r14
	je	.L257
.LVL399:
.L255:
	.loc 1 1173 7 is_stmt 1 view .LVU907
	movq	%rbx, %rsi
	movq	%rbx, %rdi
	movq	%r12, %rcx
	movl	$2, %edx
	call	mpz_powm_ui@PLT
.LVL400:
	.loc 1 1174 7 view .LVU908
	.loc 1 1174 11 is_stmt 0 view .LVU909
	movq	%r13, %rsi
	movq	%rbx, %rdi
	call	mpz_cmp@PLT
.LVL401:
	.loc 1 1174 10 view .LVU910
	testl	%eax, %eax
	je	.L254
	.loc 1 1176 7 is_stmt 1 view .LVU911
	.loc 1 1176 11 is_stmt 0 view .LVU912
	movl	$1, %esi
	movq	%rbx, %rdi
	call	mpz_cmp_ui@PLT
.LVL402:
	.loc 1 1176 10 view .LVU913
	testl	%eax, %eax
	jne	.L275
.LVL403:
.L257:
	.loc 1 1176 10 view .LVU914
.LBE270:
.LBE269:
.LBE268:
	.loc 1 1180 1 view .LVU915
	popq	%rbx
	.cfi_def_cfa_offset 40
.LVL404:
.LBB272:
.LBB271:
	.loc 1 1179 10 view .LVU916
	xorl	%eax, %eax
.LBE271:
.LBE272:
	.loc 1 1180 1 view .LVU917
	popq	%rbp
	.cfi_def_cfa_offset 32
	popq	%r12
	.cfi_def_cfa_offset 24
.LVL405:
	.loc 1 1180 1 view .LVU918
	popq	%r13
	.cfi_def_cfa_offset 16
.LVL406:
	.loc 1 1180 1 view .LVU919
	popq	%r14
	.cfi_def_cfa_offset 8
.LVL407:
	.loc 1 1180 1 view .LVU920
	ret
	.cfi_endproc
.LFE154:
	.size	mp_millerrabin, .-mp_millerrabin
	.section	.rodata.str1.1
.LC9:
	.string	"[trial division] "
.LC10:
	.string	"[is number prime?] "
	.text
	.p2align 4
	.type	mp_factor, @function
mp_factor:
.LVL408:
.LFB162:
	.loc 1 2240 1 is_stmt 1 view -0
	.cfi_startproc
	.loc 1 2240 1 is_stmt 0 view .LVU922
	pushq	%r15
	.cfi_def_cfa_offset 16
	.cfi_offset 15, -16
	pushq	%r14
	.cfi_def_cfa_offset 24
	.cfi_offset 14, -24
	pushq	%r13
	.cfi_def_cfa_offset 32
	.cfi_offset 13, -32
	pushq	%r12
	.cfi_def_cfa_offset 40
	.cfi_offset 12, -40
	movq	%rsi, %r12
	pushq	%rbp
	.cfi_def_cfa_offset 48
	.cfi_offset 6, -48
	movq	%rdi, %rbp
	pushq	%rbx
	.cfi_def_cfa_offset 56
	.cfi_offset 3, -56
	subq	$56, %rsp
	.cfi_def_cfa_offset 112
	.loc 1 2240 1 view .LVU923
	movq	%fs:40, %rax
	movq	%rax, 40(%rsp)
	xorl	%eax, %eax
	.loc 1 2241 3 is_stmt 1 view .LVU924
.LVL409:
.LBB290:
.LBI290:
	.loc 1 589 1 view .LVU925
.LBB291:
	.loc 1 591 3 view .LVU926
	.loc 1 591 14 is_stmt 0 view .LVU927
	movq	$0, (%rsi)
	.loc 1 592 3 is_stmt 1 view .LVU928
	.loc 1 592 14 is_stmt 0 view .LVU929
	movq	$0, 8(%rsi)
	.loc 1 593 3 is_stmt 1 view .LVU930
	.loc 1 593 21 is_stmt 0 view .LVU931
	movq	$0, 16(%rsi)
.LVL410:
	.loc 1 593 21 view .LVU932
.LBE291:
.LBE290:
	.loc 1 2243 3 is_stmt 1 view .LVU933
	.loc 1 2243 7 is_stmt 0 view .LVU934
	call	mpz_sgn@PLT
.LVL411:
	.loc 1 2243 6 view .LVU935
	testl	%eax, %eax
	jne	.L299
.L276:
	.loc 1 2256 1 view .LVU936
	movq	40(%rsp), %rax
	xorq	%fs:40, %rax
	jne	.L300
	addq	$56, %rsp
	.cfi_remember_state
	.cfi_def_cfa_offset 56
	popq	%rbx
	.cfi_def_cfa_offset 48
	popq	%rbp
	.cfi_def_cfa_offset 40
.LVL412:
	.loc 1 2256 1 view .LVU937
	popq	%r12
	.cfi_def_cfa_offset 32
.LVL413:
	.loc 1 2256 1 view .LVU938
	popq	%r13
	.cfi_def_cfa_offset 24
	popq	%r14
	.cfi_def_cfa_offset 16
	popq	%r15
	.cfi_def_cfa_offset 8
	ret
.LVL414:
	.p2align 4,,10
	.p2align 3
.L299:
	.cfi_restore_state
	.loc 1 2245 7 is_stmt 1 view .LVU939
.LBB292:
.LBI292:
	.loc 1 829 1 view .LVU940
.LBB293:
	.loc 1 831 3 view .LVU941
	.loc 1 832 3 view .LVU942
	.loc 1 834 3 view .LVU943
	.loc 1 834 3 view .LVU944
	cmpb	$0, dev_debug(%rip)
	jne	.L301
.L279:
	.loc 1 834 3 view .LVU945
	.loc 1 836 3 view .LVU946
	movq	%rsp, %r15
	movq	%r15, %rdi
	call	mpz_init@PLT
.LVL415:
	.loc 1 838 3 view .LVU947
	.loc 1 838 7 is_stmt 0 view .LVU948
	xorl	%esi, %esi
	movq	%rbp, %rdi
	call	mpz_scan1@PLT
.LVL416:
	.loc 1 839 3 view .LVU949
	movq	%rbp, %rsi
	movq	%rbp, %rdi
	.loc 1 838 7 view .LVU950
	movq	%rax, %rbx
.LVL417:
	.loc 1 839 3 is_stmt 1 view .LVU951
	movq	%rax, %rdx
	call	mpz_fdiv_q_2exp@PLT
.LVL418:
	.loc 1 840 3 view .LVU952
	.loc 1 840 9 view .LVU953
	testq	%rbx, %rbx
	je	.L280
	leaq	16(%rsp), %r13
	.p2align 4,,10
	.p2align 3
.L281:
	.loc 1 842 7 view .LVU954
.LVL419:
.LBB294:
.LBI294:
	.loc 1 646 1 view .LVU955
.LBB295:
	.loc 1 648 3 view .LVU956
	.loc 1 650 3 view .LVU957
	movl	$2, %esi
	movq	%r13, %rdi
	call	mpz_init_set_ui@PLT
.LVL420:
	.loc 1 651 3 view .LVU958
	movq	%r12, %rdi
	movq	%r13, %rsi
	call	mp_factor_insert
.LVL421:
	.loc 1 652 3 view .LVU959
	movq	%r13, %rdi
	call	mpz_clear@PLT
.LVL422:
	.loc 1 652 3 is_stmt 0 view .LVU960
.LBE295:
.LBE294:
	.loc 1 843 7 is_stmt 1 view .LVU961
	.loc 1 840 9 view .LVU962
	subq	$1, %rbx
.LVL423:
	.loc 1 840 9 is_stmt 0 view .LVU963
	jne	.L281
.L280:
.LBB296:
	.loc 1 847 21 view .LVU964
	movl	$1, %ebx
.LVL424:
	.loc 1 847 21 view .LVU965
.LBE296:
	.loc 1 846 5 view .LVU966
	movl	$3, %r14d
	jmp	.L285
.LVL425:
	.p2align 4,,10
	.p2align 3
.L302:
.LBB301:
	.loc 1 851 11 is_stmt 1 view .LVU967
	.loc 1 851 27 is_stmt 0 view .LVU968
	leaq	primes_diff(%rip), %rax
	.loc 1 852 15 view .LVU969
	movq	%rbp, %rdi
	.loc 1 851 29 view .LVU970
	leal	1(%rbx), %r13d
.LVL426:
	.loc 1 851 27 view .LVU971
	movzbl	(%rax,%rbx), %eax
	.loc 1 851 13 view .LVU972
	addq	%rax, %r14
.LVL427:
	.loc 1 852 11 is_stmt 1 view .LVU973
	.loc 1 852 15 is_stmt 0 view .LVU974
	movq	%r14, %rsi
	imulq	%r14, %rsi
	call	mpz_cmp_ui@PLT
.LVL428:
	.loc 1 852 14 view .LVU975
	testl	%eax, %eax
	js	.L283
	.loc 1 851 29 view .LVU976
	movl	%r13d, %ebx
.LVL429:
	.loc 1 847 28 is_stmt 1 view .LVU977
	.loc 1 847 3 is_stmt 0 view .LVU978
	cmpl	$669, %ebx
	je	.L283
.LVL430:
.L285:
	.loc 1 849 7 is_stmt 1 view .LVU979
	.loc 1 849 13 is_stmt 0 view .LVU980
	movq	%r14, %rsi
	movq	%rbp, %rdi
	call	mpz_divisible_ui_p@PLT
.LVL431:
	.loc 1 849 10 view .LVU981
	testl	%eax, %eax
	je	.L302
	.loc 1 857 11 is_stmt 1 view .LVU982
	movq	%r14, %rdx
.LBB297:
.LBB298:
	.loc 1 650 3 is_stmt 0 view .LVU983
	leaq	16(%rsp), %r13
.LBE298:
.LBE297:
	.loc 1 857 11 view .LVU984
	movq	%rbp, %rsi
	movq	%rbp, %rdi
	call	mpz_tdiv_q_ui@PLT
.LVL432:
	.loc 1 858 11 is_stmt 1 view .LVU985
.LBB300:
.LBI297:
	.loc 1 646 1 view .LVU986
.LBB299:
	.loc 1 648 3 view .LVU987
	.loc 1 650 3 view .LVU988
	movq	%r14, %rsi
	movq	%r13, %rdi
	call	mpz_init_set_ui@PLT
.LVL433:
	.loc 1 651 3 view .LVU989
	movq	%r12, %rdi
	movq	%r13, %rsi
	call	mp_factor_insert
.LVL434:
	.loc 1 652 3 view .LVU990
	movq	%r13, %rdi
	call	mpz_clear@PLT
.LVL435:
	.loc 1 652 3 is_stmt 0 view .LVU991
.LBE299:
.LBE300:
	.loc 1 847 28 is_stmt 1 view .LVU992
	.loc 1 847 3 is_stmt 0 view .LVU993
	cmpl	$669, %ebx
	jne	.L285
.LVL436:
.L283:
	.loc 1 847 3 view .LVU994
.LBE301:
	.loc 1 862 3 is_stmt 1 view .LVU995
	movq	%r15, %rdi
	call	mpz_clear@PLT
.LVL437:
	.loc 1 862 3 is_stmt 0 view .LVU996
.LBE293:
.LBE292:
	.loc 1 2247 7 is_stmt 1 view .LVU997
	.loc 1 2247 11 is_stmt 0 view .LVU998
	movl	$1, %esi
	movq	%rbp, %rdi
	call	mpz_cmp_ui@PLT
.LVL438:
	.loc 1 2247 10 view .LVU999
	testl	%eax, %eax
	je	.L276
.LVL439:
.LBB305:
.LBI305:
	.loc 1 2239 1 is_stmt 1 view .LVU1000
.LBB306:
	.loc 1 2249 11 view .LVU1001
	.loc 1 2249 11 view .LVU1002
	cmpb	$0, dev_debug(%rip)
	jne	.L303
.L287:
	.loc 1 2249 11 view .LVU1003
	.loc 1 2250 11 view .LVU1004
	.loc 1 2250 15 is_stmt 0 view .LVU1005
	movq	%rbp, %rdi
	call	mp_prime_p
.LVL440:
	.loc 1 2250 14 view .LVU1006
	testb	%al, %al
	je	.L288
	.loc 1 2251 13 is_stmt 1 view .LVU1007
	movq	%rbp, %rsi
	movq	%r12, %rdi
	call	mp_factor_insert
.LVL441:
	jmp	.L276
.LVL442:
	.p2align 4,,10
	.p2align 3
.L301:
	.loc 1 2251 13 is_stmt 0 view .LVU1008
.LBE306:
.LBE305:
.LBB311:
.LBB304:
	.loc 1 834 3 is_stmt 1 view .LVU1009
.LBB302:
.LBI302:
	.file 3 "/usr/include/x86_64-linux-gnu/bits/stdio2.h"
	.loc 3 98 1 view .LVU1010
.LBB303:
	.loc 3 100 3 view .LVU1011
	.loc 3 100 10 is_stmt 0 view .LVU1012
	movq	stderr(%rip), %rcx
	movl	$17, %edx
	movl	$1, %esi
	leaq	.LC9(%rip), %rdi
	call	fwrite@PLT
.LVL443:
	.loc 3 100 10 view .LVU1013
	jmp	.L279
.LVL444:
	.p2align 4,,10
	.p2align 3
.L288:
	.loc 3 100 10 view .LVU1014
.LBE303:
.LBE302:
.LBE304:
.LBE311:
.LBB312:
.LBB309:
	.loc 1 2253 13 is_stmt 1 view .LVU1015
	movq	%r12, %rdx
	movl	$1, %esi
	movq	%rbp, %rdi
	call	mp_factor_using_pollard_rho
.LVL445:
	.loc 1 2253 13 is_stmt 0 view .LVU1016
.LBE309:
.LBE312:
	.loc 1 2256 1 view .LVU1017
	jmp	.L276
.LVL446:
	.p2align 4,,10
	.p2align 3
.L303:
.LBB313:
.LBB310:
	.loc 1 2249 11 is_stmt 1 view .LVU1018
.LBB307:
.LBI307:
	.loc 3 98 1 view .LVU1019
.LBB308:
	.loc 3 100 3 view .LVU1020
	.loc 3 100 10 is_stmt 0 view .LVU1021
	movq	stderr(%rip), %rcx
	movl	$19, %edx
	movl	$1, %esi
	leaq	.LC10(%rip), %rdi
	call	fwrite@PLT
.LVL447:
	.loc 3 100 10 view .LVU1022
	jmp	.L287
.LVL448:
.L300:
	.loc 3 100 10 view .LVU1023
.LBE308:
.LBE307:
.LBE310:
.LBE313:
	.loc 1 2256 1 view .LVU1024
	call	__stack_chk_fail@PLT
.LVL449:
	.cfi_endproc
.LFE162:
	.size	mp_factor, .-mp_factor
	.section	.rodata.str1.8
	.align 8
.LC11:
	.string	"Lucas prime test failure.  This should not happen"
	.text
	.p2align 4
	.type	mp_prime_p, @function
mp_prime_p:
.LVL450:
.LFB157:
	.loc 1 1368 1 is_stmt 1 view -0
	.cfi_startproc
	.loc 1 1368 1 is_stmt 0 view .LVU1026
	pushq	%r15
	.cfi_def_cfa_offset 16
	.cfi_offset 15, -16
	.loc 1 1373 7 view .LVU1027
	movl	$1, %esi
	.loc 1 1368 1 view .LVU1028
	pushq	%r14
	.cfi_def_cfa_offset 24
	.cfi_offset 14, -24
	pushq	%r13
	.cfi_def_cfa_offset 32
	.cfi_offset 13, -32
	pushq	%r12
	.cfi_def_cfa_offset 40
	.cfi_offset 12, -40
	pushq	%rbp
	.cfi_def_cfa_offset 48
	.cfi_offset 6, -48
	pushq	%rbx
	.cfi_def_cfa_offset 56
	.cfi_offset 3, -56
	movq	%rdi, %rbx
	subq	$152, %rsp
	.cfi_def_cfa_offset 208
	.loc 1 1368 1 view .LVU1029
	movq	%fs:40, %rax
	movq	%rax, 136(%rsp)
	xorl	%eax, %eax
	.loc 1 1369 3 is_stmt 1 view .LVU1030
	.loc 1 1370 3 view .LVU1031
	.loc 1 1371 3 view .LVU1032
	.loc 1 1373 3 view .LVU1033
	.loc 1 1373 7 is_stmt 0 view .LVU1034
	call	mpz_cmp_ui@PLT
.LVL451:
	.loc 1 1373 6 view .LVU1035
	testl	%eax, %eax
	jle	.L315
	.loc 1 1377 3 is_stmt 1 view .LVU1036
	.loc 1 1377 7 is_stmt 0 view .LVU1037
	movl	$25030009, %esi
	movq	%rbx, %rdi
	call	mpz_cmp_ui@PLT
.LVL452:
	.loc 1 1377 6 view .LVU1038
	testl	%eax, %eax
	js	.L316
.LVL453:
.LBB318:
.LBI318:
	.loc 1 1367 1 is_stmt 1 view .LVU1039
.LBB319:
	.loc 1 1380 3 view .LVU1040
	leaq	96(%rsp), %r13
	leaq	64(%rsp), %r15
	xorl	%r9d, %r9d
	xorl	%eax, %eax
	leaq	80(%rsp), %r12
	leaq	112(%rsp), %r14
	movq	%r13, %rcx
	movq	%r15, %rsi
	movq	mpz_init@GOTPCREL(%rip), %rdi
	movq	%r14, %r8
	movq	%r12, %rdx
	movq	%r15, (%rsp)
	call	mpz_va_init
.LVL454:
	.loc 1 1383 3 view .LVU1041
	movl	$1, %edx
	movq	%rbx, %rsi
	movq	%r13, %rdi
	call	mpz_sub_ui@PLT
.LVL455:
	.loc 1 1386 3 view .LVU1042
	.loc 1 1386 25 is_stmt 0 view .LVU1043
	xorl	%esi, %esi
	movq	%r13, %rdi
	call	mpz_scan1@PLT
.LVL456:
	.loc 1 1387 3 view .LVU1044
	movq	%r13, %rsi
	movq	%r15, %rdi
	movq	%rax, %rdx
	.loc 1 1386 25 view .LVU1045
	movq	%rax, %rbp
	movq	%rax, 8(%rsp)
.LVL457:
	.loc 1 1387 3 is_stmt 1 view .LVU1046
	call	mpz_tdiv_q_2exp@PLT
.LVL458:
	.loc 1 1389 3 view .LVU1047
	movl	$2, %esi
	movq	%r12, %rdi
	call	mpz_set_ui@PLT
.LVL459:
	.loc 1 1392 3 view .LVU1048
	.loc 1 1392 8 is_stmt 0 view .LVU1049
	movq	%rbp, %r9
	movq	%r15, %r8
	movq	%r14, %rcx
	movq	%r12, %rdx
	movq	%r13, %rsi
	movq	%rbx, %rdi
	call	mp_millerrabin
.LVL460:
	movb	%al, 23(%rsp)
	.loc 1 1392 6 view .LVU1050
	testb	%al, %al
	je	.L306
	.loc 1 1398 3 is_stmt 1 view .LVU1051
	.loc 1 1401 7 view .LVU1052
	movq	%r13, %rsi
	movq	%r14, %rdi
	leaq	primes_diff(%rip), %rbp
.LVL461:
	.loc 1 1401 7 is_stmt 0 view .LVU1053
	call	mpz_set@PLT
.LVL462:
	.loc 1 1402 7 is_stmt 1 view .LVU1054
	leaq	32(%rsp), %rsi
	movq	%r14, %rdi
	movq	%rsi, 24(%rsp)
	call	mp_factor
.LVL463:
.LBB320:
	.loc 1 1407 28 view .LVU1055
	.p2align 4,,10
	.p2align 3
.L307:
.LBB321:
	.loc 1 1412 41 view .LVU1056
	.loc 1 1412 11 is_stmt 0 view .LVU1057
	cmpq	$0, 48(%rsp)
	je	.L311
	.loc 1 1412 34 view .LVU1058
	xorl	%r15d, %r15d
.LVL464:
.L309:
	.loc 1 1414 15 is_stmt 1 view .LVU1059
	.loc 1 1414 48 is_stmt 0 view .LVU1060
	movq	%r15, %rdx
	.loc 1 1414 15 view .LVU1061
	movq	%r13, %rsi
	movq	%r14, %rdi
	.loc 1 1412 76 view .LVU1062
	addq	$1, %r15
.LVL465:
	.loc 1 1414 48 view .LVU1063
	salq	$4, %rdx
.LVL466:
	.loc 1 1414 48 view .LVU1064
	addq	32(%rsp), %rdx
	.loc 1 1414 15 view .LVU1065
	call	mpz_divexact@PLT
.LVL467:
	.loc 1 1415 15 is_stmt 1 view .LVU1066
	movq	%rbx, %rcx
	movq	%r14, %rdx
	movq	%r12, %rsi
	movq	%r14, %rdi
	call	mpz_powm@PLT
.LVL468:
	.loc 1 1416 15 view .LVU1067
	.loc 1 1416 26 is_stmt 0 view .LVU1068
	movl	$1, %esi
	movq	%r14, %rdi
	call	mpz_cmp_ui@PLT
.LVL469:
	.loc 1 1412 75 is_stmt 1 view .LVU1069
	.loc 1 1412 41 view .LVU1070
	.loc 1 1412 11 is_stmt 0 view .LVU1071
	cmpq	48(%rsp), %r15
	jnb	.L308
	.loc 1 1412 62 view .LVU1072
	testl	%eax, %eax
	jne	.L309
	.p2align 4,,10
	.p2align 3
.L310:
.LVL470:
	.loc 1 1412 62 view .LVU1073
.LBE321:
	.loc 1 1428 7 is_stmt 1 view .LVU1074
	movzbl	0(%rbp), %edx
	movq	%r12, %rsi
	movq	%r12, %rdi
	call	mpz_add_ui@PLT
.LVL471:
	.loc 1 1430 7 view .LVU1075
	.loc 1 1430 12 is_stmt 0 view .LVU1076
	movq	8(%rsp), %r9
	movq	%r14, %rcx
	movq	%r12, %rdx
	movq	(%rsp), %r8
	movq	%r13, %rsi
	movq	%rbx, %rdi
	call	mp_millerrabin
.LVL472:
	.loc 1 1430 10 view .LVU1077
	testb	%al, %al
	je	.L317
	.loc 1 1407 53 is_stmt 1 view .LVU1078
.LVL473:
	.loc 1 1407 28 view .LVU1079
	addq	$1, %rbp
.LVL474:
	.loc 1 1407 3 is_stmt 0 view .LVU1080
	leaq	668+primes_diff(%rip), %rax
	cmpq	%rax, %rbp
	jne	.L307
.LBE320:
	.loc 1 1437 3 is_stmt 1 view .LVU1081
	.loc 1 1437 16 is_stmt 0 view .LVU1082
	movl	$5, %edx
	leaq	.LC11(%rip), %rsi
	xorl	%edi, %edi
	call	dcgettext@PLT
.LVL475:
	.loc 1 1437 3 view .LVU1083
	xorl	%esi, %esi
	xorl	%edi, %edi
	.loc 1 1437 16 view .LVU1084
	movq	%rax, %rdx
	.loc 1 1437 3 view .LVU1085
	xorl	%eax, %eax
	call	error@PLT
.LVL476:
	.loc 1 1438 3 is_stmt 1 view .LVU1086
	call	abort@PLT
.LVL477:
	.p2align 4,,10
	.p2align 3
.L316:
	.loc 1 1438 3 is_stmt 0 view .LVU1087
.LBE319:
.LBE318:
	.loc 1 1378 12 view .LVU1088
	movb	$1, 23(%rsp)
.L304:
	.loc 1 1447 1 view .LVU1089
	movq	136(%rsp), %rax
	xorq	%fs:40, %rax
	jne	.L325
	movzbl	23(%rsp), %eax
	addq	$152, %rsp
	.cfi_remember_state
	.cfi_def_cfa_offset 56
	popq	%rbx
	.cfi_def_cfa_offset 48
.LVL478:
	.loc 1 1447 1 view .LVU1090
	popq	%rbp
	.cfi_def_cfa_offset 40
	popq	%r12
	.cfi_def_cfa_offset 32
	popq	%r13
	.cfi_def_cfa_offset 24
	popq	%r14
	.cfi_def_cfa_offset 16
	popq	%r15
	.cfi_def_cfa_offset 8
	ret
.LVL479:
	.p2align 4,,10
	.p2align 3
.L308:
	.cfi_restore_state
.LBB326:
.LBB324:
.LBB322:
	.loc 1 1425 7 is_stmt 1 view .LVU1091
	.loc 1 1425 10 is_stmt 0 view .LVU1092
	testl	%eax, %eax
	je	.L310
.LVL480:
	.p2align 4,,10
	.p2align 3
.L311:
	.loc 1 1425 10 view .LVU1093
.LBE322:
	.loc 1 1441 3 is_stmt 1 view .LVU1094
	.loc 1 1442 5 view .LVU1095
	movq	24(%rsp), %rdi
	call	mp_factor_clear
.LVL481:
.L306:
	.loc 1 1444 3 view .LVU1096
	movq	(%rsp), %rsi
	movq	mpz_clear@GOTPCREL(%rip), %rdi
	xorl	%r9d, %r9d
	xorl	%eax, %eax
	movq	%r14, %r8
	movq	%r13, %rcx
	movq	%r12, %rdx
	call	mpz_va_init
.LVL482:
	.loc 1 1446 3 view .LVU1097
	.loc 1 1446 3 is_stmt 0 view .LVU1098
	jmp	.L304
	.p2align 4,,10
	.p2align 3
.L315:
.LBE324:
.LBE326:
	.loc 1 1374 12 view .LVU1099
	movb	$0, 23(%rsp)
	jmp	.L304
.LVL483:
	.p2align 4,,10
	.p2align 3
.L317:
.LBB327:
.LBB325:
.LBB323:
	.loc 1 1432 20 view .LVU1100
	movb	$0, 23(%rsp)
	jmp	.L311
.LVL484:
.L325:
	.loc 1 1432 20 view .LVU1101
.LBE323:
.LBE325:
.LBE327:
	.loc 1 1447 1 view .LVU1102
	call	__stack_chk_fail@PLT
.LVL485:
	.cfi_endproc
.LFE157:
	.size	mp_prime_p, .-mp_prime_p
	.section	.rodata.str1.1
.LC12:
	.string	"[pollard-rho (%lu)] "
	.section	.rodata.str1.8
	.align 8
.LC13:
	.string	"[composite factor--restarting pollard-rho] "
	.text
	.p2align 4
	.type	mp_factor_using_pollard_rho, @function
mp_factor_using_pollard_rho:
.LVL486:
.LFB160:
	.loc 1 1659 1 is_stmt 1 view -0
	.cfi_startproc
	.loc 1 1659 1 is_stmt 0 view .LVU1104
	pushq	%r15
	.cfi_def_cfa_offset 16
	.cfi_offset 15, -16
	pushq	%r14
	.cfi_def_cfa_offset 24
	.cfi_offset 14, -24
	pushq	%r13
	.cfi_def_cfa_offset 32
	.cfi_offset 13, -32
	pushq	%r12
	.cfi_def_cfa_offset 40
	.cfi_offset 12, -40
	pushq	%rbp
	.cfi_def_cfa_offset 48
	.cfi_offset 6, -48
	movq	%rdi, %rbp
	pushq	%rbx
	.cfi_def_cfa_offset 56
	.cfi_offset 3, -56
	subq	$200, %rsp
	.cfi_def_cfa_offset 256
	.loc 1 1659 1 view .LVU1105
	movq	%rsi, 16(%rsp)
	movq	%rdx, 64(%rsp)
	movq	%fs:40, %rax
	movq	%rax, 184(%rsp)
	xorl	%eax, %eax
	.loc 1 1660 3 is_stmt 1 view .LVU1106
	.loc 1 1661 3 view .LVU1107
	.loc 1 1663 3 view .LVU1108
	.loc 1 1663 3 view .LVU1109
	cmpb	$0, dev_debug(%rip)
	jne	.L353
.LVL487:
.L327:
	.loc 1 1663 3 discriminator 3 view .LVU1110
	.loc 1 1665 3 discriminator 3 view .LVU1111
	movq	mpz_init@GOTPCREL(%rip), %rdi
	xorl	%ecx, %ecx
	xorl	%eax, %eax
	.loc 1 1667 3 is_stmt 0 discriminator 3 view .LVU1112
	leaq	80(%rsp), %r15
	.loc 1 1665 3 discriminator 3 view .LVU1113
	leaq	160(%rsp), %r14
	leaq	144(%rsp), %r12
	.loc 1 1671 26 discriminator 3 view .LVU1114
	movl	$1, %ebx
	.loc 1 1665 3 discriminator 3 view .LVU1115
	movq	%r14, %rdx
	movq	%r12, %rsi
	.loc 1 1669 3 discriminator 3 view .LVU1116
	leaq	128(%rsp), %r13
	.loc 1 1665 3 discriminator 3 view .LVU1117
	call	mpz_va_init
.LVL488:
	.loc 1 1666 3 is_stmt 1 discriminator 3 view .LVU1118
	leaq	112(%rsp), %rax
	movl	$2, %esi
	movq	%rax, %rdi
	movq	%rax, 24(%rsp)
	call	mpz_init_set_si@PLT
.LVL489:
	.loc 1 1667 3 discriminator 3 view .LVU1119
	movl	$2, %esi
	movq	%r15, %rdi
	call	mpz_init_set_si@PLT
.LVL490:
	.loc 1 1668 3 discriminator 3 view .LVU1120
	leaq	96(%rsp), %rax
	movl	$2, %esi
	movq	%rax, %rdi
	movq	%rax, 8(%rsp)
	call	mpz_init_set_si@PLT
.LVL491:
	.loc 1 1669 3 discriminator 3 view .LVU1121
	movl	$1, %esi
	movq	%r13, %rdi
	call	mpz_init_set_ui@PLT
.LVL492:
	.loc 1 1671 3 discriminator 3 view .LVU1122
	.loc 1 1672 3 discriminator 3 view .LVU1123
	.loc 1 1674 3 discriminator 3 view .LVU1124
	.loc 1 1727 11 is_stmt 0 discriminator 3 view .LVU1125
	movq	16(%rsp), %rax
	.loc 1 1672 26 discriminator 3 view .LVU1126
	movq	$1, 32(%rsp)
	.loc 1 1727 11 discriminator 3 view .LVU1127
	addq	$1, %rax
	movq	%rax, 72(%rsp)
.LVL493:
.L328:
	.loc 1 1674 9 is_stmt 1 view .LVU1128
	.loc 1 1674 10 is_stmt 0 view .LVU1129
	movl	$1, %esi
	movq	%rbp, %rdi
	call	mpz_cmp_ui@PLT
.LVL494:
	.loc 1 1674 9 view .LVU1130
	testl	%eax, %eax
	je	.L339
	movq	%r15, %rax
	movq	%rbx, %r15
	movq	%rax, %rbx
.LVL495:
	.loc 1 1674 9 view .LVU1131
	jmp	.L331
	.p2align 4,,10
	.p2align 3
.L329:
	.loc 1 1696 17 is_stmt 1 view .LVU1132
.LVL496:
	.loc 1 1696 11 is_stmt 0 view .LVU1133
	subq	$1, %r15
.LVL497:
	.loc 1 1696 11 view .LVU1134
	je	.L354
.LVL498:
.L331:
	.loc 1 1676 7 is_stmt 1 view .LVU1135
	.loc 1 1678 11 view .LVU1136
	.loc 1 1680 15 view .LVU1137
	movq	%rbx, %rdx
	movq	%rbx, %rsi
	movq	%r12, %rdi
	call	mpz_mul@PLT
.LVL499:
	.loc 1 1681 15 view .LVU1138
	movq	%rbp, %rdx
	movq	%r12, %rsi
	movq	%rbx, %rdi
	call	mpz_mod@PLT
.LVL500:
	.loc 1 1682 15 view .LVU1139
	movq	16(%rsp), %rdx
	movq	%rbx, %rsi
	movq	%rbx, %rdi
	call	mpz_add_ui@PLT
.LVL501:
	.loc 1 1684 15 view .LVU1140
	movq	8(%rsp), %rsi
	movq	%rbx, %rdx
	movq	%r12, %rdi
	call	mpz_sub@PLT
.LVL502:
	.loc 1 1685 15 view .LVU1141
	movq	%r12, %rdx
	movq	%r13, %rsi
	movq	%r14, %rdi
	call	mpz_mul@PLT
.LVL503:
	.loc 1 1686 15 view .LVU1142
	movq	%rbp, %rdx
	movq	%r14, %rsi
	movq	%r13, %rdi
	call	mpz_mod@PLT
.LVL504:
	.loc 1 1688 15 view .LVU1143
	.loc 1 1688 21 is_stmt 0 view .LVU1144
	movq	%r15, %rax
	andl	$31, %eax
	.loc 1 1688 18 view .LVU1145
	cmpq	$1, %rax
	jne	.L329
	.loc 1 1690 19 is_stmt 1 view .LVU1146
	movq	%r13, %rsi
	movq	%r12, %rdi
	movq	%rbp, %rdx
	call	mpz_gcd@PLT
.LVL505:
	.loc 1 1691 19 view .LVU1147
	.loc 1 1691 23 is_stmt 0 view .LVU1148
	movl	$1, %esi
	movq	%r12, %rdi
	call	mpz_cmp_ui@PLT
.LVL506:
	.loc 1 1691 22 view .LVU1149
	testl	%eax, %eax
	jne	.L350
	.loc 1 1693 19 is_stmt 1 view .LVU1150
	movq	24(%rsp), %rdi
	movq	%rbx, %rsi
	call	mpz_set@PLT
.LVL507:
	.loc 1 1696 17 view .LVU1151
	.loc 1 1696 11 is_stmt 0 view .LVU1152
	subq	$1, %r15
.LVL508:
	.loc 1 1696 11 view .LVU1153
	jne	.L331
.L354:
	.loc 1 1698 11 is_stmt 1 view .LVU1154
	movq	8(%rsp), %rdi
	movq	%rbx, %rsi
	call	mpz_set@PLT
.LVL509:
	.loc 1 1699 11 view .LVU1155
	.loc 1 1700 11 view .LVU1156
	.loc 1 1700 13 is_stmt 0 view .LVU1157
	movq	32(%rsp), %rax
	leaq	(%rax,%rax), %rcx
	movq	%rcx, 40(%rsp)
.LVL510:
	.loc 1 1701 11 is_stmt 1 view .LVU1158
.LBB328:
	.loc 1 1701 16 view .LVU1159
	.loc 1 1701 46 view .LVU1160
	.loc 1 1701 11 is_stmt 0 view .LVU1161
	testq	%rax, %rax
	je	.L332
	movq	%r14, 56(%rsp)
	movq	%rbx, %r14
	movq	16(%rsp), %rbx
	movq	%r13, 48(%rsp)
	movq	%r15, %r13
	movq	%rax, %r15
.LVL511:
	.p2align 4,,10
	.p2align 3
.L333:
	.loc 1 1703 15 is_stmt 1 discriminator 3 view .LVU1162
	movq	%r14, %rdx
	movq	%r14, %rsi
	movq	%r12, %rdi
	.loc 1 1701 54 is_stmt 0 discriminator 3 view .LVU1163
	addq	$1, %r13
.LVL512:
	.loc 1 1703 15 discriminator 3 view .LVU1164
	call	mpz_mul@PLT
.LVL513:
	.loc 1 1704 15 is_stmt 1 discriminator 3 view .LVU1165
	movq	%rbp, %rdx
	movq	%r12, %rsi
	movq	%r14, %rdi
	call	mpz_mod@PLT
.LVL514:
	.loc 1 1705 15 discriminator 3 view .LVU1166
	movq	%rbx, %rdx
	movq	%r14, %rsi
	movq	%r14, %rdi
	call	mpz_add_ui@PLT
.LVL515:
	.loc 1 1701 53 discriminator 3 view .LVU1167
	.loc 1 1701 46 discriminator 3 view .LVU1168
	.loc 1 1701 11 is_stmt 0 discriminator 3 view .LVU1169
	cmpq	%r15, %r13
	jne	.L333
	movq	%r14, %rbx
	movq	48(%rsp), %r13
.LVL516:
	.loc 1 1701 11 discriminator 3 view .LVU1170
	movq	56(%rsp), %r14
.LVL517:
.L332:
	.loc 1 1701 11 discriminator 3 view .LVU1171
.LBE328:
	.loc 1 1707 11 is_stmt 1 view .LVU1172
	movq	24(%rsp), %rdi
	movq	%rbx, %rsi
	call	mpz_set@PLT
.LVL518:
	.loc 1 1676 13 view .LVU1173
	.loc 1 1700 13 is_stmt 0 view .LVU1174
	movq	40(%rsp), %rax
	.loc 1 1676 7 view .LVU1175
	movq	32(%rsp), %r15
	.loc 1 1700 13 view .LVU1176
	movq	%rax, 32(%rsp)
.LVL519:
	.loc 1 1676 7 view .LVU1177
	jmp	.L331
.LVL520:
	.p2align 4,,10
	.p2align 3
.L350:
	.loc 1 1676 7 view .LVU1178
	movq	%r15, 40(%rsp)
	movq	%rbx, %r15
.LVL521:
	.loc 1 1676 7 view .LVU1179
	movq	16(%rsp), %rbx
	movq	%r13, 48(%rsp)
	movq	%r12, %r13
	movq	8(%rsp), %r12
	movq	%r14, 56(%rsp)
	movq	24(%rsp), %r14
	.p2align 4,,10
	.p2align 3
.L330:
	.loc 1 1711 7 is_stmt 1 discriminator 1 view .LVU1180
	.loc 1 1713 11 discriminator 1 view .LVU1181
	movq	%r14, %rdx
	movq	%r14, %rsi
	movq	%r13, %rdi
	call	mpz_mul@PLT
.LVL522:
	.loc 1 1714 11 discriminator 1 view .LVU1182
	movq	%rbp, %rdx
	movq	%r13, %rsi
	movq	%r14, %rdi
	call	mpz_mod@PLT
.LVL523:
	.loc 1 1715 11 discriminator 1 view .LVU1183
	movq	%rbx, %rdx
	movq	%r14, %rsi
	movq	%r14, %rdi
	call	mpz_add_ui@PLT
.LVL524:
	.loc 1 1717 11 discriminator 1 view .LVU1184
	movq	%r14, %rdx
	movq	%r12, %rsi
	movq	%r13, %rdi
	call	mpz_sub@PLT
.LVL525:
	.loc 1 1718 11 discriminator 1 view .LVU1185
	movq	%r13, %rsi
	movq	%r13, %rdi
	movq	%rbp, %rdx
	call	mpz_gcd@PLT
.LVL526:
	.loc 1 1720 13 discriminator 1 view .LVU1186
	.loc 1 1720 14 is_stmt 0 discriminator 1 view .LVU1187
	movl	$1, %esi
	movq	%r13, %rdi
	call	mpz_cmp_ui@PLT
.LVL527:
	.loc 1 1720 7 discriminator 1 view .LVU1188
	testl	%eax, %eax
	je	.L330
	movq	%r12, 8(%rsp)
	movq	%r13, %r12
	.loc 1 1722 7 view .LVU1189
	movq	%rbp, %rdi
	movq	%rbp, %rsi
	movq	%r12, %rdx
	movq	%rbx, 16(%rsp)
	movq	48(%rsp), %r13
	movq	%r14, 24(%rsp)
	movq	40(%rsp), %rbx
	movq	56(%rsp), %r14
	.loc 1 1722 7 is_stmt 1 view .LVU1190
	call	mpz_divexact@PLT
.LVL528:
	.loc 1 1724 7 view .LVU1191
	.loc 1 1724 12 is_stmt 0 view .LVU1192
	movq	%r12, %rdi
	call	mp_prime_p
.LVL529:
	.loc 1 1724 10 view .LVU1193
	testb	%al, %al
	jne	.L335
	.loc 1 1726 11 is_stmt 1 view .LVU1194
	.loc 1 1726 11 view .LVU1195
	cmpb	$0, dev_debug(%rip)
	jne	.L355
.L336:
	.loc 1 1726 11 discriminator 3 view .LVU1196
	.loc 1 1727 11 discriminator 3 view .LVU1197
	movq	64(%rsp), %rdx
	movq	72(%rsp), %rsi
	movq	%r12, %rdi
	call	mp_factor_using_pollard_rho
.LVL530:
	.loc 1 1734 7 discriminator 3 view .LVU1198
	.loc 1 1734 11 is_stmt 0 discriminator 3 view .LVU1199
	movq	%rbp, %rdi
	call	mp_prime_p
.LVL531:
	.loc 1 1734 10 discriminator 3 view .LVU1200
	testb	%al, %al
	jne	.L356
.L338:
	.loc 1 1740 7 is_stmt 1 view .LVU1201
	movq	%rbp, %rdx
	movq	%r15, %rsi
	movq	%r15, %rdi
	call	mpz_mod@PLT
.LVL532:
	.loc 1 1741 7 view .LVU1202
	movq	8(%rsp), %rdi
	movq	%rbp, %rdx
	movq	%rdi, %rsi
	call	mpz_mod@PLT
.LVL533:
	.loc 1 1742 7 view .LVU1203
	movq	24(%rsp), %rsi
	movq	%rbp, %rdx
	movq	%rsi, %rdi
	call	mpz_mod@PLT
.LVL534:
	jmp	.L328
.L335:
	.loc 1 1731 11 view .LVU1204
	movq	64(%rsp), %rdi
	movq	%r12, %rsi
	call	mp_factor_insert
.LVL535:
	.loc 1 1734 7 view .LVU1205
	.loc 1 1734 11 is_stmt 0 view .LVU1206
	movq	%rbp, %rdi
	call	mp_prime_p
.LVL536:
	.loc 1 1734 10 view .LVU1207
	testb	%al, %al
	je	.L338
.L356:
	.loc 1 1736 11 is_stmt 1 view .LVU1208
	movq	64(%rsp), %rdi
	movq	%rbp, %rsi
	call	mp_factor_insert
.LVL537:
	.loc 1 1737 11 view .LVU1209
.L339:
	.loc 1 1745 3 view .LVU1210
	pushq	$0
	.cfi_def_cfa_offset 264
	movq	mpz_clear@GOTPCREL(%rip), %rdi
	xorl	%eax, %eax
	movq	%r14, %rdx
	pushq	32(%rsp)
	.cfi_def_cfa_offset 272
	movq	24(%rsp), %r8
	movq	%r15, %r9
	movq	%r12, %rcx
	movq	%r13, %rsi
	call	mpz_va_init
.LVL538:
	.loc 1 1746 1 is_stmt 0 view .LVU1211
	popq	%rax
	.cfi_def_cfa_offset 264
	popq	%rdx
	.cfi_def_cfa_offset 256
	movq	184(%rsp), %rax
	xorq	%fs:40, %rax
	jne	.L357
	addq	$200, %rsp
	.cfi_remember_state
	.cfi_def_cfa_offset 56
	popq	%rbx
	.cfi_def_cfa_offset 48
	popq	%rbp
	.cfi_def_cfa_offset 40
.LVL539:
	.loc 1 1746 1 view .LVU1212
	popq	%r12
	.cfi_def_cfa_offset 32
	popq	%r13
	.cfi_def_cfa_offset 24
	popq	%r14
	.cfi_def_cfa_offset 16
	popq	%r15
	.cfi_def_cfa_offset 8
	ret
.LVL540:
.L355:
	.cfi_restore_state
	.loc 1 1726 11 is_stmt 1 discriminator 1 view .LVU1213
.LBB329:
.LBI329:
	.loc 3 98 1 discriminator 1 view .LVU1214
.LBB330:
	.loc 3 100 3 discriminator 1 view .LVU1215
	.loc 3 100 10 is_stmt 0 discriminator 1 view .LVU1216
	movq	stderr(%rip), %rcx
	movl	$43, %edx
	movl	$1, %esi
	leaq	.LC13(%rip), %rdi
	call	fwrite@PLT
.LVL541:
	.loc 3 100 10 discriminator 1 view .LVU1217
	jmp	.L336
.LVL542:
.L353:
	.loc 3 100 10 discriminator 1 view .LVU1218
.LBE330:
.LBE329:
	.loc 1 1663 3 is_stmt 1 discriminator 1 view .LVU1219
.LBB331:
.LBI331:
	.loc 3 98 1 discriminator 1 view .LVU1220
.LBB332:
	.loc 3 100 3 discriminator 1 view .LVU1221
	.loc 3 100 10 is_stmt 0 discriminator 1 view .LVU1222
	movq	stderr(%rip), %rdi
.LVL543:
	.loc 3 100 10 discriminator 1 view .LVU1223
	movq	%rsi, %rcx
	leaq	.LC12(%rip), %rdx
.LVL544:
	.loc 3 100 10 discriminator 1 view .LVU1224
	movl	$1, %esi
.LVL545:
	.loc 3 100 10 discriminator 1 view .LVU1225
	call	__fprintf_chk@PLT
.LVL546:
	.loc 3 100 10 discriminator 1 view .LVU1226
	jmp	.L327
.LVL547:
.L357:
	.loc 3 100 10 discriminator 1 view .LVU1227
.LBE332:
.LBE331:
	.loc 1 1746 1 view .LVU1228
	call	__stack_chk_fail@PLT
.LVL548:
	.cfi_endproc
.LFE160:
	.size	mp_factor_using_pollard_rho, .-mp_factor_using_pollard_rho
	.section	.rodata.str1.1
.LC14:
	.string	"(1) < (n)"
.LC15:
	.string	"a < n"
	.text
	.p2align 4
	.type	factor_using_pollard_rho, @function
factor_using_pollard_rho:
.LVL549:
.LFB158:
	.loc 1 1452 1 is_stmt 1 view -0
	.cfi_startproc
	.loc 1 1453 3 view .LVU1230
	.loc 1 1455 3 view .LVU1231
	.loc 1 1456 3 view .LVU1232
	.loc 1 1458 3 view .LVU1233
.LBB356:
	.loc 1 1458 3 view .LVU1234
	.loc 1 1458 3 view .LVU1235
.LBB357:
	.loc 1 1458 3 view .LVU1236
	.loc 1 1458 3 view .LVU1237
.LBE357:
.LBE356:
	.loc 1 1452 1 is_stmt 0 view .LVU1238
	pushq	%r15
	.cfi_def_cfa_offset 16
	.cfi_offset 15, -16
	pushq	%r14
	.cfi_def_cfa_offset 24
	.cfi_offset 14, -24
	pushq	%r13
	.cfi_def_cfa_offset 32
	.cfi_offset 13, -32
	pushq	%r12
	.cfi_def_cfa_offset 40
	.cfi_offset 12, -40
	pushq	%rbp
	.cfi_def_cfa_offset 48
	.cfi_offset 6, -48
	pushq	%rbx
	.cfi_def_cfa_offset 56
	.cfi_offset 3, -56
	subq	$56, %rsp
	.cfi_def_cfa_offset 112
	.loc 1 1452 1 view .LVU1239
	movq	%rsi, 8(%rsp)
	movq	%rdx, 16(%rsp)
.LBB365:
.LBB359:
	.loc 1 1458 3 view .LVU1240
	cmpq	$1, %rdi
	jbe	.L404
	movq	8(%rsp), %rax
	movq	%rdi, %r12
	addq	$1, %rax
	movq	%rax, 40(%rsp)
.LVL550:
.L374:
	.loc 1 1458 3 view .LVU1241
	xorl	%r13d, %r13d
.LBE359:
.LBE365:
	.loc 1 1452 1 view .LVU1242
	movq	%r12, %rcx
	movl	$64, %esi
.LBB366:
.LBB360:
	.loc 1 1458 3 view .LVU1243
	movl	$1, %eax
	xorl	%edx, %edx
	movq	%r13, %rdi
	.p2align 4,,10
	.p2align 3
.L362:
.LVL551:
.LBB358:
	.loc 1 1458 3 is_stmt 1 discriminator 9 view .LVU1244
	.loc 1 1458 3 discriminator 9 view .LVU1245
	movq	%rcx, %r8
	shrq	%rdx
.LVL552:
	.loc 1 1458 3 is_stmt 0 discriminator 9 view .LVU1246
	salq	$63, %r8
	shrq	%rcx
.LVL553:
	.loc 1 1458 3 discriminator 9 view .LVU1247
	orq	%r8, %rdx
.LVL554:
	.loc 1 1458 3 is_stmt 1 discriminator 9 view .LVU1248
	.loc 1 1458 3 discriminator 9 view .LVU1249
	.loc 1 1458 3 discriminator 9 view .LVU1250
	.loc 1 1458 3 discriminator 9 view .LVU1251
	cmpq	%rax, %rcx
	jb	.L360
	.loc 1 1458 3 is_stmt 0 discriminator 4 view .LVU1252
	jne	.L361
	cmpq	%rdi, %rdx
	ja	.L361
.L360:
	.loc 1 1458 3 is_stmt 1 discriminator 5 view .LVU1253
	.loc 1 1458 3 discriminator 5 view .LVU1254
#APP
# 1458 "src/factor.c" 1
	subq %rdx,%rdi
	sbbq %rcx,%rax
# 0 "" 2
.LVL555:
#NO_APP
.L361:
	.loc 1 1458 3 discriminator 7 view .LVU1255
	.loc 1 1458 3 discriminator 7 view .LVU1256
	subl	$1, %esi
.LVL556:
	.loc 1 1458 3 is_stmt 0 discriminator 7 view .LVU1257
	jne	.L362
.LBE358:
.LBE360:
.LBE366:
.LBB367:
	.loc 1 1459 3 discriminator 10 view .LVU1258
	movq	%r12, %rax
.LVL557:
	.loc 1 1459 3 discriminator 10 view .LVU1259
	xorl	%ebp, %ebp
.LBE367:
	.loc 1 1456 21 discriminator 10 view .LVU1260
	movl	$1, %r15d
	movq	%rdi, %r13
.LBB368:
.LBB361:
	.loc 1 1458 3 is_stmt 1 discriminator 10 view .LVU1261
.LVL558:
	.loc 1 1458 3 discriminator 10 view .LVU1262
.LBE361:
	.loc 1 1458 3 discriminator 10 view .LVU1263
.LBE368:
	.loc 1 1458 3 discriminator 10 view .LVU1264
	.loc 1 1459 3 discriminator 10 view .LVU1265
.LBB369:
	.loc 1 1459 3 discriminator 10 view .LVU1266
	.loc 1 1459 3 discriminator 10 view .LVU1267
	subq	%rdi, %rax
.LVL559:
	.loc 1 1459 3 is_stmt 0 discriminator 10 view .LVU1268
.LBE369:
	.loc 1 1455 21 discriminator 10 view .LVU1269
	movq	%r15, (%rsp)
	movl	$1, %r14d
.LBB370:
	.loc 1 1459 3 discriminator 10 view .LVU1270
	cmpq	%rdi, %rax
	leaq	(%rdi,%rdi), %rax
	seta	%bpl
	subq	%r12, %rax
	negq	%rbp
	andq	%r12, %rbp
	addq	%rax, %rbp
.LVL560:
	.loc 1 1459 3 discriminator 10 view .LVU1271
.LBE370:
	.loc 1 1459 3 is_stmt 1 discriminator 10 view .LVU1272
	.loc 1 1460 3 discriminator 10 view .LVU1273
	.loc 1 1462 3 discriminator 10 view .LVU1274
	.loc 1 1462 9 discriminator 10 view .LVU1275
	.loc 1 1460 5 is_stmt 0 discriminator 10 view .LVU1276
	movq	%rbp, %rbx
	.loc 1 1455 21 discriminator 10 view .LVU1277
	movq	%rbp, %r15
.LVL561:
	.p2align 4,,10
	.p2align 3
.L384:
	.loc 1 1464 7 is_stmt 1 view .LVU1278
	cmpq	%r12, 8(%rsp)
	jnb	.L405
	.loc 1 1466 7 view .LVU1279
.LBB371:
	.loc 1 1466 7 view .LVU1280
.LVL562:
	.loc 1 1466 7 view .LVU1281
	.loc 1 1466 7 view .LVU1282
	movq	%r12, %rax
	leaq	binvert_table(%rip), %rcx
	movq	%r12, %r10
	shrq	%rax
	andl	$127, %eax
	movzbl	(%rcx,%rax), %eax
.LVL563:
	.loc 1 1466 7 view .LVU1283
	.loc 1 1466 7 view .LVU1284
	leaq	(%rax,%rax), %rdx
	imulq	%rax, %rax
.LVL564:
	.loc 1 1466 7 is_stmt 0 view .LVU1285
	imulq	%r12, %rax
	subq	%rax, %rdx
.LVL565:
	.loc 1 1466 7 is_stmt 1 view .LVU1286
	.loc 1 1466 7 view .LVU1287
	leaq	(%rdx,%rdx), %rax
	imulq	%rdx, %rdx
.LVL566:
	.loc 1 1466 7 is_stmt 0 view .LVU1288
	imulq	%r12, %rdx
	subq	%rdx, %rax
.LVL567:
	.loc 1 1466 7 is_stmt 1 view .LVU1289
	.loc 1 1466 7 view .LVU1290
	leaq	(%rax,%rax), %r8
	imulq	%rax, %rax
.LVL568:
	.loc 1 1466 7 is_stmt 0 view .LVU1291
	imulq	%r12, %rax
	subq	%rax, %r8
.LVL569:
	.loc 1 1466 7 is_stmt 1 view .LVU1292
	.loc 1 1466 7 view .LVU1293
	.loc 1 1466 7 is_stmt 0 view .LVU1294
	movq	8(%rsp), %rax
	subq	%rax, %r10
	subq	%r12, %rax
	movq	%rax, %r9
.LVL570:
	.p2align 4,,10
	.p2align 3
.L364:
	.loc 1 1466 7 view .LVU1295
.LBE371:
	.loc 1 1466 7 is_stmt 1 discriminator 15 view .LVU1296
	.loc 1 1468 7 discriminator 15 view .LVU1297
	.loc 1 1470 11 discriminator 15 view .LVU1298
	.loc 1 1472 15 discriminator 15 view .LVU1299
.LBB372:
.LBI372:
	.loc 1 963 1 discriminator 15 view .LVU1300
.LBB373:
	.loc 1 965 3 discriminator 15 view .LVU1301
	.loc 1 967 3 discriminator 15 view .LVU1302
	movq	%rbp, %rax
#APP
# 967 "src/factor.c" 1
	mulq	%rbp
# 0 "" 2
#NO_APP
	movq	%rdx, %rcx
.LVL571:
	.loc 1 968 3 discriminator 15 view .LVU1303
	.loc 1 969 3 discriminator 15 view .LVU1304
	.loc 1 968 5 is_stmt 0 discriminator 15 view .LVU1305
	imulq	%r8, %rax
.LVL572:
	.loc 1 970 6 discriminator 15 view .LVU1306
	movq	%rcx, %rsi
	.loc 1 969 3 discriminator 15 view .LVU1307
#APP
# 969 "src/factor.c" 1
	mulq	%r12
# 0 "" 2
.LVL573:
	.loc 1 970 3 is_stmt 1 discriminator 15 view .LVU1308
	.loc 1 970 6 is_stmt 0 discriminator 15 view .LVU1309
#NO_APP
	subq	%rdx, %rsi
.LVL574:
	.loc 1 971 3 is_stmt 1 discriminator 15 view .LVU1310
	.loc 1 972 8 is_stmt 0 discriminator 15 view .LVU1311
	cmpq	%rdx, %rcx
	leaq	(%rsi,%r12), %rax
	cmovb	%rax, %rsi
.LVL575:
	.loc 1 974 3 is_stmt 1 discriminator 15 view .LVU1312
	.loc 1 974 3 is_stmt 0 discriminator 15 view .LVU1313
.LBE373:
.LBE372:
	.loc 1 1473 15 is_stmt 1 discriminator 15 view .LVU1314
.LBB374:
	.loc 1 1473 15 discriminator 15 view .LVU1315
	.loc 1 1473 15 discriminator 15 view .LVU1316
.LBE374:
.LBB375:
	.loc 1 1475 15 is_stmt 0 discriminator 15 view .LVU1317
	movq	%r15, %rax
.LBE375:
.LBB376:
	.loc 1 1473 15 discriminator 15 view .LVU1318
	cmpq	%r10, %rsi
	sbbq	%rbp, %rbp
	addq	%r9, %rsi
.LVL576:
	.loc 1 1473 15 discriminator 15 view .LVU1319
	andq	%r12, %rbp
	addq	%rsi, %rbp
.LVL577:
	.loc 1 1473 15 discriminator 15 view .LVU1320
.LBE376:
	.loc 1 1473 15 is_stmt 1 discriminator 15 view .LVU1321
	.loc 1 1475 15 discriminator 15 view .LVU1322
.LBB377:
	.loc 1 1475 15 discriminator 15 view .LVU1323
	.loc 1 1475 15 discriminator 15 view .LVU1324
	.loc 1 1475 15 is_stmt 0 discriminator 15 view .LVU1325
.LBE377:
	.loc 1 1475 15 is_stmt 1 discriminator 15 view .LVU1326
	.loc 1 1476 15 discriminator 15 view .LVU1327
.LBB378:
.LBI378:
	.loc 1 963 1 discriminator 15 view .LVU1328
.LBB379:
	.loc 1 965 3 discriminator 15 view .LVU1329
	.loc 1 967 3 discriminator 15 view .LVU1330
.LBE379:
.LBE378:
.LBB381:
	.loc 1 1475 15 is_stmt 0 discriminator 15 view .LVU1331
	cmpq	%rbp, %r15
	sbbq	%rcx, %rcx
.LVL578:
	.loc 1 1475 15 discriminator 15 view .LVU1332
	subq	%rbp, %rax
	andq	%r12, %rcx
	addq	%rax, %rcx
.LBE381:
.LBB382:
.LBB380:
	.loc 1 967 3 discriminator 15 view .LVU1333
	movq	%r13, %rax
#APP
# 967 "src/factor.c" 1
	mulq	%rcx
# 0 "" 2
#NO_APP
	movq	%rdx, %rcx
.LVL579:
	.loc 1 968 3 is_stmt 1 discriminator 15 view .LVU1334
	.loc 1 969 3 discriminator 15 view .LVU1335
	.loc 1 968 5 is_stmt 0 discriminator 15 view .LVU1336
	imulq	%r8, %rax
.LVL580:
	.loc 1 970 6 discriminator 15 view .LVU1337
	movq	%rcx, %r13
.LVL581:
	.loc 1 969 3 discriminator 15 view .LVU1338
#APP
# 969 "src/factor.c" 1
	mulq	%r12
# 0 "" 2
.LVL582:
	.loc 1 970 3 is_stmt 1 discriminator 15 view .LVU1339
	.loc 1 970 6 is_stmt 0 discriminator 15 view .LVU1340
#NO_APP
	subq	%rdx, %r13
.LVL583:
	.loc 1 971 3 is_stmt 1 discriminator 15 view .LVU1341
	.loc 1 972 8 is_stmt 0 discriminator 15 view .LVU1342
	cmpq	%rdx, %rcx
	leaq	0(%r13,%r12), %rax
	cmovb	%rax, %r13
.LVL584:
	.loc 1 974 3 is_stmt 1 discriminator 15 view .LVU1343
	.loc 1 974 3 is_stmt 0 discriminator 15 view .LVU1344
.LBE380:
.LBE382:
	.loc 1 1478 15 is_stmt 1 discriminator 15 view .LVU1345
	.loc 1 1478 21 is_stmt 0 discriminator 15 view .LVU1346
	movq	%r14, %rax
	andl	$31, %eax
	.loc 1 1478 18 discriminator 15 view .LVU1347
	cmpq	$1, %rax
	je	.L406
.LVL585:
.L367:
	.loc 1 1485 17 is_stmt 1 view .LVU1348
	.loc 1 1485 11 is_stmt 0 view .LVU1349
	subq	$1, %r14
.LVL586:
	.loc 1 1485 11 view .LVU1350
	jne	.L364
	.loc 1 1487 11 is_stmt 1 view .LVU1351
.LVL587:
	.loc 1 1488 11 view .LVU1352
	.loc 1 1489 11 view .LVU1353
	.loc 1 1489 13 is_stmt 0 view .LVU1354
	movq	(%rsp), %r11
	leaq	(%r11,%r11), %rcx
.LVL588:
	.loc 1 1490 11 is_stmt 1 view .LVU1355
.LBB383:
	.loc 1 1490 16 view .LVU1356
	.loc 1 1490 41 view .LVU1357
	.loc 1 1490 11 is_stmt 0 view .LVU1358
	testq	%r11, %r11
	je	.L386
.LBE383:
.LBB389:
	.loc 1 1473 15 view .LVU1359
	movq	%rbp, %rax
.LVL589:
	.p2align 4,,10
	.p2align 3
.L371:
	.loc 1 1473 15 view .LVU1360
.LBE389:
.LBB390:
	.loc 1 1492 15 is_stmt 1 view .LVU1361
.LBB384:
.LBI384:
	.loc 1 963 1 view .LVU1362
.LBB385:
	.loc 1 965 3 view .LVU1363
	.loc 1 967 3 view .LVU1364
#APP
# 967 "src/factor.c" 1
	mulq	%rax
# 0 "" 2
.LVL590:
	.loc 1 967 3 is_stmt 0 view .LVU1365
#NO_APP
	movq	%rdx, %rsi
.LVL591:
	.loc 1 968 3 is_stmt 1 view .LVU1366
	.loc 1 969 3 view .LVU1367
	.loc 1 968 5 is_stmt 0 view .LVU1368
	imulq	%r8, %rax
.LVL592:
	.loc 1 970 6 view .LVU1369
	movq	%rsi, %rdi
	.loc 1 969 3 view .LVU1370
#APP
# 969 "src/factor.c" 1
	mulq	%r12
# 0 "" 2
.LVL593:
	.loc 1 970 3 is_stmt 1 view .LVU1371
	.loc 1 970 6 is_stmt 0 view .LVU1372
#NO_APP
	subq	%rdx, %rdi
.LVL594:
	.loc 1 971 3 is_stmt 1 view .LVU1373
	.loc 1 972 8 is_stmt 0 view .LVU1374
	cmpq	%rdx, %rsi
	leaq	(%rdi,%r12), %rax
	cmovb	%rax, %rdi
.LVL595:
	.loc 1 974 3 is_stmt 1 view .LVU1375
	.loc 1 974 3 is_stmt 0 view .LVU1376
.LBE385:
.LBE384:
	.loc 1 1493 15 is_stmt 1 view .LVU1377
.LBB386:
	.loc 1 1493 15 view .LVU1378
	.loc 1 1493 15 view .LVU1379
	cmpq	%r10, %rdi
	sbbq	%rax, %rax
	addq	%r9, %rdi
.LVL596:
	.loc 1 1493 15 is_stmt 0 view .LVU1380
.LBE386:
	.loc 1 1490 49 view .LVU1381
	addq	$1, %r14
.LVL597:
.LBB387:
	.loc 1 1493 15 view .LVU1382
	andq	%r12, %rax
	addq	%rdi, %rax
.LVL598:
	.loc 1 1493 15 view .LVU1383
.LBE387:
	.loc 1 1493 15 is_stmt 1 view .LVU1384
	.loc 1 1490 48 view .LVU1385
	.loc 1 1490 41 view .LVU1386
	.loc 1 1490 11 is_stmt 0 view .LVU1387
	cmpq	%r14, %r11
	jne	.L371
.LBE390:
.LBB391:
	.loc 1 1473 15 view .LVU1388
	movq	%rbp, %r15
.LVL599:
	.loc 1 1473 15 view .LVU1389
.LBE391:
	.loc 1 1489 13 view .LVU1390
	movq	%rcx, (%rsp)
.LVL600:
	.loc 1 1489 13 view .LVU1391
	movq	%rax, %rbx
.LVL601:
.LBB392:
.LBB388:
	.loc 1 1493 15 view .LVU1392
	movq	%rax, %rbp
.LVL602:
	.loc 1 1493 15 view .LVU1393
	jmp	.L364
.LVL603:
	.p2align 4,,10
	.p2align 3
.L406:
	.loc 1 1493 15 view .LVU1394
.LBE388:
.LBE392:
	.loc 1 1480 19 is_stmt 1 view .LVU1395
	.loc 1 1480 23 is_stmt 0 view .LVU1396
	movq	%r12, %rsi
	movq	%r13, %rdi
	call	gcd_odd
.LVL604:
	.loc 1 1480 22 view .LVU1397
	cmpq	$1, %rax
	jne	.L368
.LBB393:
	.loc 1 1473 15 view .LVU1398
	movq	%rbp, %rbx
.LVL605:
	.loc 1 1473 15 view .LVU1399
	jmp	.L367
.LVL606:
	.p2align 4,,10
	.p2align 3
.L368:
	.loc 1 1473 15 view .LVU1400
.LBE393:
	.loc 1 1499 7 is_stmt 1 discriminator 1 view .LVU1401
	.loc 1 1501 11 discriminator 1 view .LVU1402
.LBB394:
.LBI394:
	.loc 1 963 1 discriminator 1 view .LVU1403
.LBB395:
	.loc 1 965 3 discriminator 1 view .LVU1404
	.loc 1 967 3 discriminator 1 view .LVU1405
	movq	%rbx, %rax
#APP
# 967 "src/factor.c" 1
	mulq	%rbx
# 0 "" 2
#NO_APP
	movq	%rdx, %rcx
.LVL607:
	.loc 1 968 3 discriminator 1 view .LVU1406
	.loc 1 969 3 discriminator 1 view .LVU1407
	.loc 1 968 5 is_stmt 0 discriminator 1 view .LVU1408
	imulq	%r8, %rax
.LVL608:
	.loc 1 970 6 discriminator 1 view .LVU1409
	movq	%rcx, %rsi
	.loc 1 969 3 discriminator 1 view .LVU1410
#APP
# 969 "src/factor.c" 1
	mulq	%r12
# 0 "" 2
.LVL609:
	.loc 1 970 3 is_stmt 1 discriminator 1 view .LVU1411
	.loc 1 970 6 is_stmt 0 discriminator 1 view .LVU1412
#NO_APP
	subq	%rdx, %rsi
.LVL610:
	.loc 1 971 3 is_stmt 1 discriminator 1 view .LVU1413
	.loc 1 972 8 is_stmt 0 discriminator 1 view .LVU1414
	cmpq	%rdx, %rcx
	leaq	(%rsi,%r12), %rax
	cmovb	%rax, %rsi
.LVL611:
	.loc 1 974 3 is_stmt 1 discriminator 1 view .LVU1415
	.loc 1 974 3 is_stmt 0 discriminator 1 view .LVU1416
.LBE395:
.LBE394:
	.loc 1 1502 11 is_stmt 1 discriminator 1 view .LVU1417
.LBB396:
	.loc 1 1502 11 discriminator 1 view .LVU1418
	.loc 1 1502 11 discriminator 1 view .LVU1419
	cmpq	%r10, %rsi
	sbbq	%rax, %rax
	addq	%r9, %rsi
.LVL612:
	.loc 1 1502 11 is_stmt 0 discriminator 1 view .LVU1420
	andq	%r12, %rax
	leaq	(%rax,%rsi), %rbx
.LVL613:
	.loc 1 1502 11 discriminator 1 view .LVU1421
.LBE396:
	.loc 1 1502 11 is_stmt 1 discriminator 1 view .LVU1422
	.loc 1 1504 11 discriminator 1 view .LVU1423
.LBB397:
	.loc 1 1504 11 discriminator 1 view .LVU1424
	.loc 1 1504 11 discriminator 1 view .LVU1425
	.loc 1 1504 11 is_stmt 0 discriminator 1 view .LVU1426
.LBE397:
	.loc 1 1504 11 is_stmt 1 discriminator 1 view .LVU1427
	.loc 1 1505 11 discriminator 1 view .LVU1428
.LBB398:
	.loc 1 1504 11 is_stmt 0 discriminator 1 view .LVU1429
	movq	%r15, %rax
.LBE398:
	.loc 1 1505 15 discriminator 1 view .LVU1430
	movq	%r12, %rsi
.LBB399:
	.loc 1 1504 11 discriminator 1 view .LVU1431
	cmpq	%rbx, %r15
	sbbq	%rdi, %rdi
	subq	%rbx, %rax
	andq	%r12, %rdi
	addq	%rax, %rdi
.LBE399:
	.loc 1 1505 15 discriminator 1 view .LVU1432
	call	gcd_odd
.LVL614:
	.loc 1 1507 13 is_stmt 1 discriminator 1 view .LVU1433
	.loc 1 1507 7 is_stmt 0 discriminator 1 view .LVU1434
	cmpq	$1, %rax
	je	.L368
	movq	%rax, %rdi
	.loc 1 1509 7 is_stmt 1 view .LVU1435
	.loc 1 1509 10 is_stmt 0 view .LVU1436
	cmpq	%r12, %rax
	je	.L407
	.loc 1 1516 7 is_stmt 1 view .LVU1437
	.loc 1 1516 9 is_stmt 0 view .LVU1438
	movq	%r12, %rax
.LVL615:
	.loc 1 1516 9 view .LVU1439
	xorl	%edx, %edx
	divq	%rdi
	movq	%rax, %r8
.LVL616:
	.loc 1 1516 9 view .LVU1440
	movq	%rax, %r12
.LVL617:
	.loc 1 1518 7 is_stmt 1 view .LVU1441
.LBB400:
.LBI400:
	.loc 1 1185 1 view .LVU1442
.LBB401:
	.loc 1 1187 3 view .LVU1443
	.loc 1 1188 3 view .LVU1444
	.loc 1 1189 3 view .LVU1445
	.loc 1 1190 3 view .LVU1446
	.loc 1 1192 3 view .LVU1447
	.loc 1 1192 6 is_stmt 0 view .LVU1448
	cmpq	$1, %rdi
	jbe	.L378
	.loc 1 1196 3 is_stmt 1 view .LVU1449
	.loc 1 1196 6 is_stmt 0 view .LVU1450
	cmpq	$25030008, %rdi
	jbe	.L377
	movq	%rdi, 24(%rsp)
	movq	%rax, 32(%rsp)
	call	prime_p.part.0
.LVL618:
	.loc 1 1196 6 view .LVU1451
.LBE401:
.LBE400:
	.loc 1 1518 10 view .LVU1452
	movq	24(%rsp), %rdi
	movq	32(%rsp), %r8
	testb	%al, %al
	je	.L378
.LVL619:
.L377:
	.loc 1 1521 9 view .LVU1453
	movq	%rdi, %rsi
	movq	16(%rsp), %rdi
	movl	$1, %edx
	movq	%r8, 24(%rsp)
	.loc 1 1521 9 is_stmt 1 view .LVU1454
	call	factor_insert_multiplicity
.LVL620:
	movq	24(%rsp), %r8
	.loc 1 1523 7 view .LVU1455
.LVL621:
.LBB402:
.LBI402:
	.loc 1 1185 1 view .LVU1456
.LBB403:
	.loc 1 1187 3 view .LVU1457
	.loc 1 1188 3 view .LVU1458
	.loc 1 1189 3 view .LVU1459
	.loc 1 1190 3 view .LVU1460
	.loc 1 1192 3 view .LVU1461
	.loc 1 1192 6 is_stmt 0 view .LVU1462
	cmpq	$1, %r8
	jbe	.L379
.L408:
	.loc 1 1196 3 is_stmt 1 view .LVU1463
	.loc 1 1196 6 is_stmt 0 view .LVU1464
	cmpq	$25030008, %r8
	jbe	.L381
	movq	%r8, %rdi
	movq	%r8, 24(%rsp)
	call	prime_p.part.0
.LVL622:
	.loc 1 1196 6 view .LVU1465
.LBE403:
.LBE402:
	.loc 1 1523 10 view .LVU1466
	movq	24(%rsp), %r8
	testb	%al, %al
	jne	.L381
	.loc 1 1529 7 is_stmt 1 view .LVU1467
	.loc 1 1529 9 is_stmt 0 view .LVU1468
	movq	%rbp, %rax
	xorl	%edx, %edx
	divq	%r8
	.loc 1 1530 9 view .LVU1469
	movq	%r15, %rax
	.loc 1 1529 9 view .LVU1470
	movq	%rdx, %rbp
.LVL623:
	.loc 1 1530 7 is_stmt 1 view .LVU1471
	.loc 1 1530 9 is_stmt 0 view .LVU1472
	xorl	%edx, %edx
.LVL624:
	.loc 1 1530 9 view .LVU1473
	divq	%r8
	.loc 1 1531 9 view .LVU1474
	movq	%rbx, %rax
	.loc 1 1530 9 view .LVU1475
	movq	%rdx, %r15
.LVL625:
	.loc 1 1531 7 is_stmt 1 view .LVU1476
	.loc 1 1531 9 is_stmt 0 view .LVU1477
	xorl	%edx, %edx
.LVL626:
	.loc 1 1531 9 view .LVU1478
	divq	%r8
	movq	%rdx, %rbx
.LVL627:
	.loc 1 1462 9 is_stmt 1 view .LVU1479
	.loc 1 1462 9 is_stmt 0 view .LVU1480
	jmp	.L384
.LVL628:
	.p2align 4,,10
	.p2align 3
.L386:
.LBB405:
	.loc 1 1490 11 view .LVU1481
	movq	(%rsp), %r14
.LBE405:
.LBB406:
	.loc 1 1473 15 view .LVU1482
	movq	%rbp, %rbx
.LVL629:
	.loc 1 1473 15 view .LVU1483
.LBE406:
	.loc 1 1489 13 view .LVU1484
	movq	%rcx, (%rsp)
.LBB407:
	.loc 1 1473 15 view .LVU1485
	movq	%rbp, %r15
.LVL630:
	.loc 1 1473 15 view .LVU1486
	jmp	.L364
.LVL631:
.L378:
	.loc 1 1473 15 view .LVU1487
.LBE407:
	.loc 1 1519 9 view .LVU1488
	movq	16(%rsp), %rdx
	movq	40(%rsp), %rsi
	movq	%r8, 24(%rsp)
	.loc 1 1519 9 is_stmt 1 view .LVU1489
	call	factor_using_pollard_rho
.LVL632:
	movq	24(%rsp), %r8
	.loc 1 1523 7 view .LVU1490
.LVL633:
.LBB408:
	.loc 1 1185 1 view .LVU1491
.LBB404:
	.loc 1 1187 3 view .LVU1492
	.loc 1 1188 3 view .LVU1493
	.loc 1 1189 3 view .LVU1494
	.loc 1 1190 3 view .LVU1495
	.loc 1 1192 3 view .LVU1496
	.loc 1 1192 6 is_stmt 0 view .LVU1497
	cmpq	$1, %r8
	ja	.L408
.L379:
.LVL634:
	.loc 1 1192 6 view .LVU1498
.LBE404:
.LBE408:
	.loc 1 1529 7 is_stmt 1 view .LVU1499
	.loc 1 1530 7 view .LVU1500
	.loc 1 1531 7 view .LVU1501
	.loc 1 1462 9 view .LVU1502
	je	.L358
	.loc 1 1531 9 is_stmt 0 view .LVU1503
	xorl	%ebx, %ebx
.LVL635:
	.loc 1 1530 9 view .LVU1504
	xorl	%r15d, %r15d
.LVL636:
	.loc 1 1529 9 view .LVU1505
	xorl	%ebp, %ebp
	jmp	.L384
.LVL637:
.L381:
	.loc 1 1525 11 is_stmt 1 view .LVU1506
	movq	16(%rsp), %rdi
	.loc 1 1533 1 is_stmt 0 view .LVU1507
	addq	$56, %rsp
	.cfi_remember_state
	.cfi_def_cfa_offset 56
.LVL638:
	.loc 1 1525 11 view .LVU1508
	movl	$1, %edx
	movq	%r8, %rsi
	.loc 1 1533 1 view .LVU1509
	popq	%rbx
	.cfi_def_cfa_offset 48
.LVL639:
	.loc 1 1533 1 view .LVU1510
	popq	%rbp
	.cfi_def_cfa_offset 40
.LVL640:
	.loc 1 1533 1 view .LVU1511
	popq	%r12
	.cfi_def_cfa_offset 32
.LVL641:
	.loc 1 1533 1 view .LVU1512
	popq	%r13
	.cfi_def_cfa_offset 24
.LVL642:
	.loc 1 1533 1 view .LVU1513
	popq	%r14
	.cfi_def_cfa_offset 16
.LVL643:
	.loc 1 1533 1 view .LVU1514
	popq	%r15
	.cfi_def_cfa_offset 8
.LVL644:
	.loc 1 1525 11 view .LVU1515
	jmp	factor_insert_multiplicity
.LVL645:
.L407:
	.cfi_restore_state
	.loc 1 1512 11 is_stmt 1 view .LVU1516
	.loc 1 1453 3 view .LVU1517
	.loc 1 1455 3 view .LVU1518
	.loc 1 1456 3 view .LVU1519
	.loc 1 1458 3 view .LVU1520
.LBB409:
	.loc 1 1458 3 view .LVU1521
	.loc 1 1458 3 view .LVU1522
.LBB362:
	.loc 1 1458 3 view .LVU1523
	.loc 1 1458 3 view .LVU1524
.LBE362:
.LBE409:
	.loc 1 1512 11 is_stmt 0 view .LVU1525
	addq	$1, 8(%rsp)
	addq	$1, 40(%rsp)
.LBB410:
.LBB363:
	jmp	.L374
.LVL646:
.L405:
	.loc 1 1512 11 view .LVU1526
.LBE363:
.LBE410:
	.loc 1 1464 7 is_stmt 1 discriminator 1 view .LVU1527
	leaq	__PRETTY_FUNCTION__.8227(%rip), %rcx
	movl	$1464, %edx
	leaq	.LC0(%rip), %rsi
	leaq	.LC15(%rip), %rdi
	call	__assert_fail@PLT
.LVL647:
.L404:
.LBB411:
.LBB364:
	.loc 1 1458 3 view .LVU1528
	leaq	__PRETTY_FUNCTION__.8227(%rip), %rcx
	movl	$1458, %edx
.LVL648:
	.loc 1 1458 3 is_stmt 0 view .LVU1529
	leaq	.LC0(%rip), %rsi
.LVL649:
	.loc 1 1458 3 view .LVU1530
	leaq	.LC14(%rip), %rdi
.LVL650:
	.loc 1 1458 3 view .LVU1531
	call	__assert_fail@PLT
.LVL651:
.L358:
	.loc 1 1458 3 view .LVU1532
.LBE364:
.LBE411:
	.loc 1 1533 1 view .LVU1533
	addq	$56, %rsp
	.cfi_def_cfa_offset 56
.LVL652:
	.loc 1 1533 1 view .LVU1534
	popq	%rbx
	.cfi_def_cfa_offset 48
.LVL653:
	.loc 1 1533 1 view .LVU1535
	popq	%rbp
	.cfi_def_cfa_offset 40
.LVL654:
	.loc 1 1533 1 view .LVU1536
	popq	%r12
	.cfi_def_cfa_offset 32
.LVL655:
	.loc 1 1533 1 view .LVU1537
	popq	%r13
	.cfi_def_cfa_offset 24
.LVL656:
	.loc 1 1533 1 view .LVU1538
	popq	%r14
	.cfi_def_cfa_offset 16
.LVL657:
	.loc 1 1533 1 view .LVU1539
	popq	%r15
	.cfi_def_cfa_offset 8
	.loc 1 1533 1 view .LVU1540
	ret
	.cfi_endproc
.LFE158:
	.size	factor_using_pollard_rho, .-factor_using_pollard_rho
	.p2align 4
	.type	factor_using_pollard_rho2, @function
factor_using_pollard_rho2:
.LVL658:
.LFB159:
	.loc 1 1538 1 is_stmt 1 view -0
	.cfi_startproc
	.loc 1 1538 1 is_stmt 0 view .LVU1542
	pushq	%r15
	.cfi_def_cfa_offset 16
	.cfi_offset 15, -16
	movq	%rdi, %r15
	pushq	%r14
	.cfi_def_cfa_offset 24
	.cfi_offset 14, -24
	pushq	%r13
	.cfi_def_cfa_offset 32
	.cfi_offset 13, -32
	pushq	%r12
	.cfi_def_cfa_offset 40
	.cfi_offset 12, -40
	pushq	%rbp
	.cfi_def_cfa_offset 48
	.cfi_offset 6, -48
	movq	%rsi, %rbp
	pushq	%rbx
	.cfi_def_cfa_offset 56
	.cfi_offset 3, -56
	subq	$136, %rsp
	.cfi_def_cfa_offset 192
	.loc 1 1538 1 view .LVU1543
	movq	%rdx, 40(%rsp)
.LBB412:
	.loc 1 1544 3 view .LVU1544
	xorl	%edx, %edx
.LVL659:
	.loc 1 1544 3 view .LVU1545
.LBE412:
	.loc 1 1538 1 view .LVU1546
	movq	%rcx, 64(%rsp)
	movq	%fs:40, %rax
	movq	%rax, 120(%rsp)
	xorl	%eax, %eax
	.loc 1 1539 3 is_stmt 1 view .LVU1547
	.loc 1 1541 3 view .LVU1548
.LVL660:
	.loc 1 1542 3 view .LVU1549
	.loc 1 1544 3 view .LVU1550
.LBB413:
	.loc 1 1544 3 view .LVU1551
	.loc 1 1544 3 view .LVU1552
	cmpq	$2, %rdi
	setb	%dl
	sbbq	%rax, %rax
	addq	$1, %rax
	cmpq	$2, %rdi
	sbbq	%rcx, %rcx
.LVL661:
	.loc 1 1544 3 is_stmt 0 view .LVU1553
	andl	$64, %ecx
	addq	$63, %rcx
.LVL662:
	.p2align 4,,10
	.p2align 3
.L413:
	.loc 1 1544 3 is_stmt 1 discriminator 10 view .LVU1554
	.loc 1 1544 3 discriminator 10 view .LVU1555
	movq	%rdx, %rsi
	addq	%rax, %rax
.LVL663:
	.loc 1 1544 3 is_stmt 0 discriminator 10 view .LVU1556
	addq	%rdx, %rdx
.LVL664:
	.loc 1 1544 3 discriminator 10 view .LVU1557
	shrq	$63, %rsi
.LVL665:
	.loc 1 1544 3 discriminator 10 view .LVU1558
	orq	%rsi, %rax
.LVL666:
	.loc 1 1544 3 is_stmt 1 discriminator 10 view .LVU1559
	.loc 1 1544 3 discriminator 10 view .LVU1560
	.loc 1 1544 3 discriminator 10 view .LVU1561
	cmpq	%rax, %r15
	jb	.L411
	.loc 1 1544 3 is_stmt 0 discriminator 6 view .LVU1562
	jne	.L412
	cmpq	%rdx, %rbp
	ja	.L412
.L411:
	.loc 1 1544 3 is_stmt 1 discriminator 7 view .LVU1563
#APP
# 1544 "src/factor.c" 1
	subq %rbp,%rdx
	sbbq %r15,%rax
# 0 "" 2
.LVL667:
#NO_APP
.L412:
	.loc 1 1544 3 discriminator 9 view .LVU1564
	subq	$1, %rcx
.LVL668:
	.loc 1 1544 3 is_stmt 0 discriminator 9 view .LVU1565
	cmpq	$-1, %rcx
	jne	.L413
	movq	%rdx, 8(%rsp)
	movq	%rdx, %rdi
.LVL669:
	.loc 1 1544 3 discriminator 9 view .LVU1566
	movq	%rax, 16(%rsp)
	.loc 1 1544 3 is_stmt 1 discriminator 11 view .LVU1567
.LVL670:
	.loc 1 1544 3 discriminator 11 view .LVU1568
	.loc 1 1544 3 is_stmt 0 discriminator 11 view .LVU1569
.LBE413:
	.loc 1 1544 3 is_stmt 1 discriminator 11 view .LVU1570
	.loc 1 1545 3 discriminator 11 view .LVU1571
	.loc 1 1545 3 discriminator 11 view .LVU1572
#APP
# 1545 "src/factor.c" 1
	addq %rdi,%rdx
	adcq %rax,%rax
# 0 "" 2
.LVL671:
	.loc 1 1545 3 is_stmt 0 discriminator 11 view .LVU1573
#NO_APP
	movq	%rax, 80(%rsp)
	movq	%rdx, %r12
.LVL672:
	.loc 1 1545 3 is_stmt 1 discriminator 11 view .LVU1574
	movq	%rax, %rsi
	cmpq	%r15, %rax
	ja	.L414
	.loc 1 1545 3 is_stmt 0 discriminator 2 view .LVU1575
	jne	.L415
	cmpq	%rbp, %rdx
	jb	.L415
.L414:
	.loc 1 1545 3 is_stmt 1 discriminator 3 view .LVU1576
#APP
# 1545 "src/factor.c" 1
	subq %rbp,%rdx
	sbbq %r15,%rax
# 0 "" 2
.LVL673:
	.loc 1 1545 3 is_stmt 0 discriminator 3 view .LVU1577
#NO_APP
	movq	%rax, 80(%rsp)
	movq	%rdx, %r12
.LVL674:
	.loc 1 1545 3 discriminator 3 view .LVU1578
	movq	%rax, %rsi
.LVL675:
.L415:
	.loc 1 1545 3 is_stmt 1 discriminator 5 view .LVU1579
	.loc 1 1546 3 discriminator 5 view .LVU1580
	.loc 1 1546 11 is_stmt 0 discriminator 5 view .LVU1581
	movq	%rsi, 88(%rsp)
	.loc 1 1546 6 discriminator 5 view .LVU1582
	movq	%rsi, 96(%rsp)
	.loc 1 1547 3 is_stmt 1 discriminator 5 view .LVU1583
.LVL676:
	.loc 1 1549 3 discriminator 5 view .LVU1584
	.loc 1 1549 9 discriminator 5 view .LVU1585
	testq	%r15, %r15
	jne	.L453
	cmpq	$1, %rbp
	je	.L409
.L453:
	.loc 1 1549 9 is_stmt 0 discriminator 5 view .LVU1586
	leaq	104(%rsp), %rax
	.loc 1 1547 11 view .LVU1587
	movq	%r12, 32(%rsp)
	.loc 1 1541 21 view .LVU1588
	movl	$1, %ebx
	leaq	112(%rsp), %r14
	.loc 1 1542 21 view .LVU1589
	movq	$1, (%rsp)
	movq	%rax, 56(%rsp)
	movq	%r15, %rax
	movq	%r12, %r15
.LVL677:
	.loc 1 1542 21 view .LVU1590
	movq	%rax, %r13
.LVL678:
	.p2align 4,,10
	.p2align 3
.L447:
	.loc 1 1551 7 is_stmt 1 view .LVU1591
.LBB414:
	.loc 1 1551 7 view .LVU1592
	.loc 1 1551 7 view .LVU1593
	.loc 1 1551 7 view .LVU1594
	movq	%rbp, %rax
	leaq	binvert_table(%rip), %rdi
	shrq	%rax
	andl	$127, %eax
	movzbl	(%rdi,%rax), %eax
.LVL679:
	.loc 1 1551 7 view .LVU1595
	.loc 1 1551 7 view .LVU1596
	leaq	(%rax,%rax), %rdx
	imulq	%rax, %rax
.LVL680:
	.loc 1 1551 7 is_stmt 0 view .LVU1597
	imulq	%rbp, %rax
	subq	%rax, %rdx
.LVL681:
	.loc 1 1551 7 is_stmt 1 view .LVU1598
	.loc 1 1551 7 view .LVU1599
	leaq	(%rdx,%rdx), %rax
	imulq	%rdx, %rdx
.LVL682:
	.loc 1 1551 7 is_stmt 0 view .LVU1600
	imulq	%rbp, %rdx
	subq	%rdx, %rax
.LVL683:
	.loc 1 1551 7 is_stmt 1 view .LVU1601
	.loc 1 1551 7 view .LVU1602
	leaq	(%rax,%rax), %rdx
	imulq	%rax, %rax
.LVL684:
	.loc 1 1551 7 is_stmt 0 view .LVU1603
	imulq	%rbp, %rax
	subq	%rax, %rdx
	movq	%r13, %rax
	movq	%rbx, %r13
.LVL685:
	.loc 1 1551 7 view .LVU1604
	movq	%rdx, 24(%rsp)
.LVL686:
	.loc 1 1551 7 is_stmt 1 view .LVU1605
	.loc 1 1551 7 view .LVU1606
	.loc 1 1551 7 is_stmt 0 view .LVU1607
	movq	%rax, %rbx
.LVL687:
	.p2align 4,,10
	.p2align 3
.L418:
	.loc 1 1551 7 view .LVU1608
.LBE414:
	.loc 1 1551 7 is_stmt 1 discriminator 15 view .LVU1609
	.loc 1 1553 7 discriminator 15 view .LVU1610
	.loc 1 1555 11 discriminator 15 view .LVU1611
	.loc 1 1557 15 discriminator 15 view .LVU1612
	.loc 1 1557 20 is_stmt 0 discriminator 15 view .LVU1613
	pushq	24(%rsp)
	.cfi_def_cfa_offset 200
.LVL688:
	.loc 1 1557 20 discriminator 15 view .LVU1614
	movq	%rsi, %rcx
	movq	%r12, %rdx
	movq	%r12, %r8
	pushq	%rbp
	.cfi_def_cfa_offset 208
	movq	%r14, %rdi
	movq	%rbx, %r9
	call	mulredc2
.LVL689:
	.loc 1 1558 15 is_stmt 1 discriminator 15 view .LVU1615
	.loc 1 1559 15 discriminator 15 view .LVU1616
	.loc 1 1559 15 discriminator 15 view .LVU1617
	movq	128(%rsp), %rdx
#APP
# 1559 "src/factor.c" 1
	addq 56(%rsp),%rax
	adcq $0,%rdx
# 0 "" 2
.LVL690:
	.loc 1 1559 15 is_stmt 0 discriminator 15 view .LVU1618
#NO_APP
	movq	%rdx, 96(%rsp)
	movq	%rax, %r12
.LVL691:
	.loc 1 1559 15 is_stmt 1 discriminator 15 view .LVU1619
	popq	%rcx
	.cfi_def_cfa_offset 200
	movq	%rdx, %rsi
	popq	%rdi
	.cfi_def_cfa_offset 192
.LVL692:
	.loc 1 1559 15 is_stmt 0 discriminator 15 view .LVU1620
	cmpq	%rbx, %rdx
	ja	.L419
	.loc 1 1559 15 discriminator 2 view .LVU1621
	jne	.L420
	cmpq	%rbp, %rax
	jb	.L420
.L419:
	.loc 1 1559 15 is_stmt 1 discriminator 3 view .LVU1622
#APP
# 1559 "src/factor.c" 1
	subq %rbp,%rax
	sbbq %rbx,%rdx
# 0 "" 2
.LVL693:
	.loc 1 1559 15 is_stmt 0 discriminator 3 view .LVU1623
#NO_APP
	movq	%rdx, 80(%rsp)
	movq	%rax, %r12
.LVL694:
	.loc 1 1559 15 discriminator 3 view .LVU1624
	movq	%rdx, %rsi
.LVL695:
.L420:
	.loc 1 1559 15 is_stmt 1 discriminator 5 view .LVU1625
	.loc 1 1561 15 discriminator 5 view .LVU1626
	.loc 1 1561 15 discriminator 5 view .LVU1627
	movq	88(%rsp), %rcx
	movq	32(%rsp), %r8
#APP
# 1561 "src/factor.c" 1
	subq %r12,%r8
	sbbq %rsi,%rcx
# 0 "" 2
.LVL696:
	.loc 1 1561 15 discriminator 5 view .LVU1628
#NO_APP
	testq	%rcx, %rcx
	jns	.L421
	.loc 1 1561 15 discriminator 1 view .LVU1629
#APP
# 1561 "src/factor.c" 1
	addq %rbp,%r8
	adcq %rbx,%rcx
# 0 "" 2
.LVL697:
#NO_APP
.L421:
	.loc 1 1561 15 discriminator 3 view .LVU1630
	.loc 1 1562 15 discriminator 3 view .LVU1631
	.loc 1 1562 20 is_stmt 0 discriminator 3 view .LVU1632
	pushq	24(%rsp)
	.cfi_def_cfa_offset 200
.LVL698:
	.loc 1 1562 20 discriminator 3 view .LVU1633
	movq	%rbx, %r9
	movq	%r14, %rdi
	pushq	%rbp
	.cfi_def_cfa_offset 208
	movq	24(%rsp), %rdx
	movq	32(%rsp), %rsi
	call	mulredc2
.LVL699:
	.loc 1 1562 20 discriminator 3 view .LVU1634
	movq	%rax, 24(%rsp)
.LVL700:
	.loc 1 1563 15 is_stmt 1 discriminator 3 view .LVU1635
	.loc 1 1563 18 is_stmt 0 discriminator 3 view .LVU1636
	movq	128(%rsp), %rax
.LVL701:
	.loc 1 1563 18 discriminator 3 view .LVU1637
	movq	%rax, 32(%rsp)
.LVL702:
	.loc 1 1565 15 is_stmt 1 discriminator 3 view .LVU1638
	.loc 1 1565 21 is_stmt 0 discriminator 3 view .LVU1639
	movq	%r13, %rax
.LVL703:
	.loc 1 1565 18 discriminator 3 view .LVU1640
	popq	%r10
	.cfi_def_cfa_offset 200
	.loc 1 1565 21 discriminator 3 view .LVU1641
	andl	$31, %eax
	.loc 1 1565 18 discriminator 3 view .LVU1642
	popq	%r11
	.cfi_def_cfa_offset 192
.LVL704:
	.loc 1 1565 18 discriminator 3 view .LVU1643
	cmpq	$1, %rax
	je	.L422
	movq	80(%rsp), %rsi
.L423:
	.loc 1 1573 17 is_stmt 1 view .LVU1644
.LVL705:
	.loc 1 1573 11 is_stmt 0 view .LVU1645
	subq	$1, %r13
.LVL706:
	.loc 1 1573 11 view .LVU1646
	jne	.L418
	.loc 1 1575 11 is_stmt 1 view .LVU1647
	.loc 1 1577 13 is_stmt 0 view .LVU1648
	movq	(%rsp), %rax
	.loc 1 1575 14 view .LVU1649
	movq	%rsi, 88(%rsp)
	.loc 1 1575 20 is_stmt 1 view .LVU1650
.LVL707:
	.loc 1 1576 11 view .LVU1651
	.loc 1 1577 11 view .LVU1652
.LBB415:
	.loc 1 1578 11 is_stmt 0 view .LVU1653
	movq	%r12, %r15
.LVL708:
	.loc 1 1578 11 view .LVU1654
.LBE415:
	.loc 1 1577 13 view .LVU1655
	leaq	(%rax,%rax), %rdi
	movq	%rdi, 32(%rsp)
.LVL709:
	.loc 1 1578 11 is_stmt 1 view .LVU1656
.LBB416:
	.loc 1 1578 16 view .LVU1657
	.loc 1 1578 41 view .LVU1658
	.loc 1 1578 11 is_stmt 0 view .LVU1659
	testq	%rax, %rax
	je	.L426
	.loc 1 1578 11 view .LVU1660
	movq	%r12, 48(%rsp)
	movq	%r12, %rdx
	movq	%r13, %r15
	movq	%rbx, %r12
.LVL710:
	.loc 1 1578 11 view .LVU1661
	movq	40(%rsp), %r13
	movq	%rbp, %rbx
.LVL711:
	.loc 1 1578 11 view .LVU1662
	movq	24(%rsp), %rbp
.LVL712:
	.p2align 4,,10
	.p2align 3
.L429:
	.loc 1 1580 15 is_stmt 1 view .LVU1663
	.loc 1 1580 20 is_stmt 0 view .LVU1664
	pushq	%rbp
	.cfi_def_cfa_offset 200
.LVL713:
	.loc 1 1580 20 view .LVU1665
	movq	%rdx, %r8
	movq	%rsi, %rcx
	movq	%r12, %r9
	pushq	%rbx
	.cfi_def_cfa_offset 208
	movq	%r14, %rdi
	call	mulredc2
.LVL714:
	.loc 1 1581 15 is_stmt 1 view .LVU1666
	.loc 1 1582 15 view .LVU1667
	.loc 1 1582 15 view .LVU1668
	movq	128(%rsp), %rcx
#APP
# 1582 "src/factor.c" 1
	addq %r13,%rax
	adcq $0,%rcx
# 0 "" 2
.LVL715:
	.loc 1 1582 15 is_stmt 0 view .LVU1669
#NO_APP
	movq	%rcx, 96(%rsp)
	movq	%rax, %rdx
.LVL716:
	.loc 1 1582 15 is_stmt 1 view .LVU1670
	popq	%r8
	.cfi_def_cfa_offset 200
	movq	%rcx, %rsi
	popq	%r9
	.cfi_def_cfa_offset 192
.LVL717:
	.loc 1 1582 15 is_stmt 0 view .LVU1671
	cmpq	%r12, %rcx
	ja	.L427
	.loc 1 1582 15 discriminator 2 view .LVU1672
	jne	.L428
	cmpq	%rbx, %rax
	jb	.L428
.L427:
	.loc 1 1582 15 is_stmt 1 discriminator 3 view .LVU1673
#APP
# 1582 "src/factor.c" 1
	subq %rbx,%rax
	sbbq %r12,%rcx
# 0 "" 2
.LVL718:
	.loc 1 1582 15 is_stmt 0 discriminator 3 view .LVU1674
#NO_APP
	movq	%rcx, 80(%rsp)
	movq	%rax, %rdx
.LVL719:
	.loc 1 1582 15 discriminator 3 view .LVU1675
	movq	%rcx, %rsi
.LVL720:
.L428:
	.loc 1 1582 15 is_stmt 1 discriminator 5 view .LVU1676
	.loc 1 1578 48 discriminator 5 view .LVU1677
	.loc 1 1578 49 is_stmt 0 discriminator 5 view .LVU1678
	addq	$1, %r15
.LVL721:
	.loc 1 1578 41 is_stmt 1 discriminator 5 view .LVU1679
	.loc 1 1578 11 is_stmt 0 discriminator 5 view .LVU1680
	cmpq	%r15, (%rsp)
	jne	.L429
	movq	%rbx, %rbp
	movq	%r12, %rbx
.LVL722:
	.loc 1 1578 11 discriminator 5 view .LVU1681
	movq	48(%rsp), %r12
.LVL723:
	.loc 1 1578 11 discriminator 5 view .LVU1682
	movq	%rdx, %r15
.LVL724:
.L426:
	.loc 1 1578 11 discriminator 5 view .LVU1683
.LBE416:
	.loc 1 1584 11 is_stmt 1 view .LVU1684
	.loc 1 1577 13 is_stmt 0 view .LVU1685
	movq	32(%rsp), %rax
	.loc 1 1553 7 view .LVU1686
	movq	(%rsp), %r13
	movq	%r12, 32(%rsp)
.LVL725:
	.loc 1 1553 7 view .LVU1687
	movq	%r15, %r12
	.loc 1 1584 14 view .LVU1688
	movq	%rsi, 96(%rsp)
	.loc 1 1584 20 is_stmt 1 view .LVU1689
.LVL726:
	.loc 1 1553 13 view .LVU1690
	.loc 1 1577 13 is_stmt 0 view .LVU1691
	movq	%rax, (%rsp)
.LVL727:
	.loc 1 1553 7 view .LVU1692
	jmp	.L418
.LVL728:
	.p2align 4,,10
	.p2align 3
.L422:
	.loc 1 1567 19 is_stmt 1 view .LVU1693
	.loc 1 1567 24 is_stmt 0 view .LVU1694
	movq	8(%rsp), %rdx
	movq	16(%rsp), %rsi
	movq	%rbp, %r8
	movq	%rbx, %rcx
	movq	56(%rsp), %rdi
	call	gcd2_odd
.LVL729:
	.loc 1 1568 19 is_stmt 1 view .LVU1695
	.loc 1 1568 31 is_stmt 0 view .LVU1696
	cmpq	$0, 104(%rsp)
	jne	.L503
	cmpq	$1, %rax
	jne	.L503
	.loc 1 1570 19 is_stmt 1 view .LVU1697
	.loc 1 1570 22 is_stmt 0 view .LVU1698
	movq	80(%rsp), %rsi
	movq	%r12, %r15
.LVL730:
	.loc 1 1570 22 view .LVU1699
	movq	%rsi, 96(%rsp)
	.loc 1 1570 28 is_stmt 1 view .LVU1700
.LVL731:
	.loc 1 1570 28 is_stmt 0 view .LVU1701
	jmp	.L423
	.p2align 4,,10
	.p2align 3
.L503:
	.loc 1 1570 28 view .LVU1702
	movq	%r12, 48(%rsp)
	movq	%rbx, %r12
.LVL732:
	.loc 1 1570 28 view .LVU1703
	movq	%rbp, %rbx
.LVL733:
	.loc 1 1570 28 view .LVU1704
	movq	%r14, %rbp
.LVL734:
	.loc 1 1570 28 view .LVU1705
	movq	%r13, 72(%rsp)
	movq	24(%rsp), %r14
	movq	%r15, %r13
.LVL735:
	.loc 1 1570 28 view .LVU1706
	movq	56(%rsp), %r15
.LVL736:
	.loc 1 1570 28 view .LVU1707
	jmp	.L485
	.p2align 4,,10
	.p2align 3
.L507:
	.loc 1 1597 22 discriminator 1 view .LVU1708
	cmpq	$1, %rax
	jne	.L506
.L485:
	.loc 1 1588 7 is_stmt 1 view .LVU1709
	.loc 1 1590 11 view .LVU1710
	.loc 1 1590 16 is_stmt 0 view .LVU1711
	movq	96(%rsp), %rsi
	pushq	%r14
	.cfi_def_cfa_offset 200
.LVL737:
	.loc 1 1590 16 view .LVU1712
	movq	%r13, %rdx
	movq	%r13, %r8
	pushq	%rbx
	.cfi_def_cfa_offset 208
	movq	%rbp, %rdi
	movq	%r12, %r9
	movq	%rsi, %rcx
	call	mulredc2
.LVL738:
	.loc 1 1591 11 is_stmt 1 view .LVU1713
	.loc 1 1592 11 view .LVU1714
	.loc 1 1592 11 view .LVU1715
	movq	128(%rsp), %rdx
#APP
# 1592 "src/factor.c" 1
	addq 56(%rsp),%rax
	adcq $0,%rdx
# 0 "" 2
.LVL739:
	.loc 1 1592 11 is_stmt 0 view .LVU1716
#NO_APP
	movq	%rdx, 112(%rsp)
	movq	%rax, %r13
.LVL740:
	.loc 1 1592 11 is_stmt 1 view .LVU1717
	popq	%rsi
	.cfi_def_cfa_offset 200
	movq	%rdx, %rcx
	popq	%rdi
	.cfi_def_cfa_offset 192
.LVL741:
	.loc 1 1592 11 is_stmt 0 view .LVU1718
	cmpq	%r12, %rdx
	ja	.L430
	.loc 1 1592 11 discriminator 2 view .LVU1719
	jne	.L431
	cmpq	%rbx, %rax
	jb	.L431
.L430:
	.loc 1 1592 11 is_stmt 1 discriminator 3 view .LVU1720
#APP
# 1592 "src/factor.c" 1
	subq %rbx,%rax
	sbbq %r12,%rdx
# 0 "" 2
.LVL742:
	.loc 1 1592 11 is_stmt 0 discriminator 3 view .LVU1721
#NO_APP
	movq	%rdx, 96(%rsp)
	movq	%rax, %r13
.LVL743:
	.loc 1 1592 11 discriminator 3 view .LVU1722
	movq	%rdx, %rcx
.LVL744:
.L431:
	.loc 1 1592 11 is_stmt 1 discriminator 5 view .LVU1723
	.loc 1 1594 11 discriminator 5 view .LVU1724
	.loc 1 1594 11 discriminator 5 view .LVU1725
	movq	88(%rsp), %rsi
	movq	32(%rsp), %rax
#APP
# 1594 "src/factor.c" 1
	subq %r13,%rax
	sbbq %rcx,%rsi
# 0 "" 2
#NO_APP
	movq	%rax, %rdx
.LVL745:
	.loc 1 1594 11 discriminator 5 view .LVU1726
	testq	%rsi, %rsi
	jns	.L432
	.loc 1 1594 11 discriminator 1 view .LVU1727
#APP
# 1594 "src/factor.c" 1
	addq %rbx,%rdx
	adcq %r12,%rsi
# 0 "" 2
.LVL746:
#NO_APP
.L432:
	.loc 1 1594 11 discriminator 3 view .LVU1728
	.loc 1 1595 11 discriminator 3 view .LVU1729
	.loc 1 1595 16 is_stmt 0 discriminator 3 view .LVU1730
	movq	%r15, %rdi
	movq	%rbx, %r8
	movq	%r12, %rcx
	call	gcd2_odd
.LVL747:
	.loc 1 1597 13 is_stmt 1 discriminator 3 view .LVU1731
	.loc 1 1597 17 is_stmt 0 discriminator 3 view .LVU1732
	movq	104(%rsp), %rdi
	.loc 1 1597 7 discriminator 3 view .LVU1733
	testq	%rdi, %rdi
	je	.L507
	movq	%rax, %r8
	movq	%rbx, %rbp
	.loc 1 1599 7 is_stmt 1 discriminator 1 view .LVU1734
.LBB417:
	.loc 1 1613 11 discriminator 1 view .LVU1735
	.loc 1 1615 11 discriminator 1 view .LVU1736
	.loc 1 1615 24 is_stmt 0 discriminator 1 view .LVU1737
	cmpq	%rbx, %rax
	jne	.L439
	.loc 1 1615 24 discriminator 1 view .LVU1738
	cmpq	%r12, %rdi
	je	.L508
.L439:
	.loc 1 1622 11 is_stmt 1 view .LVU1739
.LBB418:
	.loc 1 1622 11 view .LVU1740
.LVL748:
	.loc 1 1622 11 view .LVU1741
	.loc 1 1622 11 view .LVU1742
	movq	%r8, %rax
.LVL749:
	.loc 1 1622 11 is_stmt 0 view .LVU1743
	leaq	binvert_table(%rip), %rbx
.LVL750:
	.loc 1 1622 11 view .LVU1744
.LBE418:
	.loc 1 1626 16 view .LVU1745
	movq	%r8, %rsi
	movq	%r8, (%rsp)
.LVL751:
.LBB419:
	.loc 1 1622 11 view .LVU1746
	shrq	%rax
.LVL752:
	.loc 1 1622 11 view .LVU1747
	andl	$127, %eax
	movzbl	(%rbx,%rax), %eax
.LVL753:
	.loc 1 1622 11 is_stmt 1 view .LVU1748
	.loc 1 1622 11 view .LVU1749
	leaq	(%rax,%rax), %rdx
	imulq	%rax, %rax
.LVL754:
	.loc 1 1622 11 is_stmt 0 view .LVU1750
	imulq	%r8, %rax
	subq	%rax, %rdx
.LVL755:
	.loc 1 1622 11 is_stmt 1 view .LVU1751
	.loc 1 1622 11 view .LVU1752
	leaq	(%rdx,%rdx), %rax
	imulq	%rdx, %rdx
.LVL756:
	.loc 1 1622 11 is_stmt 0 view .LVU1753
	imulq	%r8, %rdx
	subq	%rdx, %rax
.LVL757:
	.loc 1 1622 11 is_stmt 1 view .LVU1754
	.loc 1 1622 11 view .LVU1755
	leaq	(%rax,%rax), %rdx
	imulq	%rax, %rax
.LVL758:
	.loc 1 1622 11 is_stmt 0 view .LVU1756
	imulq	%r8, %rax
.LVL759:
	.loc 1 1622 11 is_stmt 1 view .LVU1757
	.loc 1 1622 11 view .LVU1758
	.loc 1 1622 11 is_stmt 0 view .LVU1759
.LBE419:
	.loc 1 1622 11 is_stmt 1 view .LVU1760
	.loc 1 1623 11 view .LVU1761
.LBB420:
	.loc 1 1622 11 is_stmt 0 view .LVU1762
	subq	%rax, %rdx
.LVL760:
	.loc 1 1622 11 view .LVU1763
.LBE420:
	.loc 1 1623 14 view .LVU1764
	imulq	%rdx, %rbp
.LVL761:
	.loc 1 1624 11 is_stmt 1 view .LVU1765
	.loc 1 1626 11 view .LVU1766
	.loc 1 1626 16 is_stmt 0 view .LVU1767
	call	prime2_p
.LVL762:
	.loc 1 1626 14 view .LVU1768
	movq	(%rsp), %r8
	testb	%al, %al
	jne	.L440
	.loc 1 1627 13 is_stmt 1 view .LVU1769
	movq	40(%rsp), %rax
	movq	64(%rsp), %rcx
	movq	%r8, %rsi
	movq	104(%rsp), %rdi
	leaq	1(%rax), %rdx
	call	factor_using_pollard_rho2
.LVL763:
	.loc 1 1627 13 is_stmt 0 view .LVU1770
.LBE417:
	.loc 1 1632 7 is_stmt 1 view .LVU1771
.L441:
	.loc 1 1634 11 view .LVU1772
.LBB421:
.LBI421:
	.loc 1 1185 1 view .LVU1773
.LBB422:
	.loc 1 1187 3 view .LVU1774
	.loc 1 1188 3 view .LVU1775
	.loc 1 1189 3 view .LVU1776
	.loc 1 1190 3 view .LVU1777
	.loc 1 1192 3 view .LVU1778
	.loc 1 1192 6 is_stmt 0 view .LVU1779
	cmpq	$1, %rbp
	jbe	.L443
	.loc 1 1196 3 is_stmt 1 view .LVU1780
	.loc 1 1196 6 is_stmt 0 view .LVU1781
	cmpq	$25030008, %rbp
	jbe	.L445
	movq	%rbp, %rdi
	call	prime_p.part.0
.LVL764:
	.loc 1 1196 6 view .LVU1782
.LBE422:
.LBE421:
	.loc 1 1634 14 view .LVU1783
	testb	%al, %al
	je	.L443
.L445:
	.loc 1 1636 15 is_stmt 1 view .LVU1784
	movq	64(%rsp), %rdi
	movl	$1, %edx
	movq	%rbp, %rsi
	call	factor_insert_multiplicity
.LVL765:
	.loc 1 1637 15 view .LVU1785
.L409:
	.loc 1 1654 1 is_stmt 0 view .LVU1786
	movq	120(%rsp), %rax
	xorq	%fs:40, %rax
	jne	.L509
	addq	$136, %rsp
	.cfi_remember_state
	.cfi_def_cfa_offset 56
	popq	%rbx
	.cfi_def_cfa_offset 48
	popq	%rbp
	.cfi_def_cfa_offset 40
.LVL766:
	.loc 1 1654 1 view .LVU1787
	popq	%r12
	.cfi_def_cfa_offset 32
	popq	%r13
	.cfi_def_cfa_offset 24
	popq	%r14
	.cfi_def_cfa_offset 16
	popq	%r15
	.cfi_def_cfa_offset 8
	ret
.LVL767:
.L506:
	.cfi_restore_state
	.loc 1 1654 1 view .LVU1788
	movq	%rax, %r8
.LBB423:
.LBB424:
	.loc 1 1602 11 view .LVU1789
	shrq	%rax
.LVL768:
	.loc 1 1602 11 view .LVU1790
	leaq	binvert_table(%rip), %rdi
	movq	%rbp, %r14
	andl	$127, %eax
	movq	%rbx, %rbp
	movq	%r15, 56(%rsp)
	movq	%r13, %r15
	movzbl	(%rdi,%rax), %eax
	movq	%r12, %r13
.LVL769:
	.loc 1 1602 11 view .LVU1791
	movq	72(%rsp), %rbx
.LVL770:
	.loc 1 1602 11 view .LVU1792
.LBE424:
.LBE423:
	.loc 1 1599 7 is_stmt 1 view .LVU1793
	.loc 1 1602 11 view .LVU1794
.LBB427:
	.loc 1 1602 11 view .LVU1795
	.loc 1 1602 11 view .LVU1796
.LBB425:
	.loc 1 1602 11 view .LVU1797
	.loc 1 1602 11 view .LVU1798
	.loc 1 1602 11 view .LVU1799
	.loc 1 1602 11 view .LVU1800
	.loc 1 1602 11 view .LVU1801
	movq	48(%rsp), %r12
.LVL771:
	.loc 1 1602 11 is_stmt 0 view .LVU1802
	leaq	(%rax,%rax), %rdx
	imulq	%rax, %rax
.LVL772:
	.loc 1 1602 11 view .LVU1803
	imulq	%r8, %rax
	subq	%rax, %rdx
.LVL773:
	.loc 1 1602 11 is_stmt 1 view .LVU1804
	.loc 1 1602 11 view .LVU1805
	leaq	(%rdx,%rdx), %rax
	imulq	%rdx, %rdx
.LVL774:
	.loc 1 1602 11 is_stmt 0 view .LVU1806
	imulq	%r8, %rdx
	subq	%rdx, %rax
.LVL775:
	.loc 1 1602 11 is_stmt 1 view .LVU1807
	.loc 1 1602 11 view .LVU1808
	leaq	(%rax,%rax), %rcx
	imulq	%rax, %rax
.LVL776:
	.loc 1 1602 11 is_stmt 0 view .LVU1809
	imulq	%r8, %rax
	subq	%rax, %rcx
.LVL777:
	.loc 1 1602 11 is_stmt 1 view .LVU1810
	.loc 1 1602 11 view .LVU1811
	.loc 1 1602 11 is_stmt 0 view .LVU1812
.LBE425:
	.loc 1 1602 11 is_stmt 1 view .LVU1813
	.loc 1 1602 11 view .LVU1814
	imulq	%rcx, %rbp
.LVL778:
	.loc 1 1602 11 view .LVU1815
	cmpq	%r13, %r8
	ja	.L510
.LBB426:
	.loc 1 1602 11 discriminator 15 view .LVU1816
	.loc 1 1602 11 discriminator 15 view .LVU1817
	movq	%r13, %r9
	movq	%rbp, %rax
#APP
# 1602 "src/factor.c" 1
	mulq	%r8
# 0 "" 2
.LVL779:
	.loc 1 1602 11 discriminator 15 view .LVU1818
#NO_APP
	subq	%rdx, %r9
	imulq	%rcx, %r9
	movq	%r9, %r13
.LVL780:
	.loc 1 1602 11 discriminator 15 view .LVU1819
.L449:
	.loc 1 1602 11 is_stmt 0 discriminator 15 view .LVU1820
.LBE426:
.LBE427:
	.loc 1 1602 11 is_stmt 1 discriminator 18 view .LVU1821
	.loc 1 1604 11 discriminator 18 view .LVU1822
.LBB428:
.LBI428:
	.loc 1 1185 1 discriminator 18 view .LVU1823
.LBB429:
	.loc 1 1187 3 discriminator 18 view .LVU1824
	.loc 1 1188 3 discriminator 18 view .LVU1825
	.loc 1 1189 3 discriminator 18 view .LVU1826
	.loc 1 1190 3 discriminator 18 view .LVU1827
	.loc 1 1192 3 discriminator 18 view .LVU1828
	.loc 1 1192 6 is_stmt 0 discriminator 18 view .LVU1829
	cmpq	$1, %r8
	jbe	.L438
	.loc 1 1196 3 is_stmt 1 view .LVU1830
	.loc 1 1196 6 is_stmt 0 view .LVU1831
	cmpq	$25030008, %r8
	jbe	.L437
	movq	%r8, %rdi
	movq	%r8, 24(%rsp)
.LVL781:
	.loc 1 1196 6 view .LVU1832
	call	prime_p.part.0
.LVL782:
	.loc 1 1196 6 view .LVU1833
.LBE429:
.LBE428:
	.loc 1 1604 14 view .LVU1834
	movq	24(%rsp), %r8
	testb	%al, %al
	je	.L438
.LVL783:
.L437:
	.loc 1 1607 13 is_stmt 1 view .LVU1835
	movq	64(%rsp), %rdi
	movl	$1, %edx
	movq	%r8, %rsi
	call	factor_insert_multiplicity
.LVL784:
.L436:
	.loc 1 1632 7 view .LVU1836
	.loc 1 1632 10 is_stmt 0 view .LVU1837
	testq	%r13, %r13
	je	.L441
	.loc 1 1644 7 is_stmt 1 view .LVU1838
	.loc 1 1644 11 is_stmt 0 view .LVU1839
	movq	%rbp, %rsi
	movq	%r13, %rdi
	call	prime2_p
.LVL785:
	.loc 1 1644 10 view .LVU1840
	testb	%al, %al
	jne	.L511
	.loc 1 1650 7 is_stmt 1 view .LVU1841
	.loc 1 1650 12 is_stmt 0 view .LVU1842
	movq	80(%rsp), %rsi
	movq	%r12, %rdx
	leaq	80(%rsp), %rdi
	movq	%rbp, %r8
	movq	%r13, %rcx
	call	mod2
.LVL786:
	.loc 1 1651 12 view .LVU1843
	movq	32(%rsp), %rdx
	movq	%rbp, %r8
	movq	%r13, %rcx
	movq	88(%rsp), %rsi
	leaq	88(%rsp), %rdi
	.loc 1 1650 12 view .LVU1844
	movq	%rax, %r12
.LVL787:
	.loc 1 1651 7 is_stmt 1 view .LVU1845
	.loc 1 1651 12 is_stmt 0 view .LVU1846
	call	mod2
.LVL788:
	.loc 1 1652 12 view .LVU1847
	movq	96(%rsp), %rsi
	movq	%r15, %rdx
	movq	%rbp, %r8
	leaq	96(%rsp), %rdi
	movq	%r13, %rcx
	.loc 1 1651 12 view .LVU1848
	movq	%rax, 32(%rsp)
.LVL789:
	.loc 1 1652 7 is_stmt 1 view .LVU1849
	.loc 1 1652 12 is_stmt 0 view .LVU1850
	call	mod2
.LVL790:
	.loc 1 1652 12 view .LVU1851
	movq	80(%rsp), %rsi
	movq	%rax, %r15
.LVL791:
	.loc 1 1549 9 is_stmt 1 view .LVU1852
	jmp	.L447
.LVL792:
.L438:
	.loc 1 1605 13 view .LVU1853
	movq	40(%rsp), %rax
	movq	64(%rsp), %rdx
	movq	%r8, %rdi
	leaq	1(%rax), %rsi
	call	factor_using_pollard_rho
.LVL793:
	jmp	.L436
.LVL794:
.L510:
.LBB430:
	.loc 1 1602 11 is_stmt 0 view .LVU1854
	xorl	%r13d, %r13d
.LVL795:
	.loc 1 1602 11 view .LVU1855
	jmp	.L449
.LVL796:
.L443:
	.loc 1 1602 11 view .LVU1856
.LBE430:
	.loc 1 1640 11 is_stmt 1 view .LVU1857
	movq	64(%rsp), %rdx
	movq	40(%rsp), %rsi
	movq	%rbp, %rdi
	call	factor_using_pollard_rho
.LVL797:
	.loc 1 1641 11 view .LVU1858
	jmp	.L409
.LVL798:
.L511:
	.loc 1 1646 11 view .LVU1859
	movq	64(%rsp), %rdi
	movq	%rbp, %rdx
	movq	%r13, %rsi
	call	factor_insert_large
.LVL799:
	.loc 1 1647 11 view .LVU1860
	jmp	.L409
.LVL800:
.L440:
.LBB431:
	.loc 1 1629 13 view .LVU1861
	movq	104(%rsp), %rsi
	movq	64(%rsp), %rdi
	movq	%r8, %rdx
	call	factor_insert_large
.LVL801:
	.loc 1 1629 13 is_stmt 0 view .LVU1862
.LBE431:
	.loc 1 1632 7 is_stmt 1 view .LVU1863
	jmp	.L441
.LVL802:
.L508:
.LBB432:
	.loc 1 1618 15 view .LVU1864
	movq	40(%rsp), %rdx
	movq	64(%rsp), %rcx
	movq	%rbx, %rsi
	movq	%r12, %rdi
	addq	$1, %rdx
	call	factor_using_pollard_rho2
.LVL803:
	.loc 1 1619 15 view .LVU1865
	jmp	.L409
.LVL804:
.L509:
	.loc 1 1619 15 is_stmt 0 view .LVU1866
.LBE432:
	.loc 1 1654 1 view .LVU1867
	call	__stack_chk_fail@PLT
.LVL805:
	.cfi_endproc
.LFE159:
	.size	factor_using_pollard_rho2, .-factor_using_pollard_rho2
	.p2align 4
	.type	factor, @function
factor:
.LVL806:
.LFB161:
	.loc 1 2208 1 is_stmt 1 view -0
	.cfi_startproc
	.loc 1 2209 3 view .LVU1869
	.loc 1 2208 1 is_stmt 0 view .LVU1870
	pushq	%r15
	.cfi_def_cfa_offset 16
	.cfi_offset 15, -16
	movq	%rsi, %r15
	pushq	%r14
	.cfi_def_cfa_offset 24
	.cfi_offset 14, -24
	pushq	%r13
	.cfi_def_cfa_offset 32
	.cfi_offset 13, -32
	pushq	%r12
	.cfi_def_cfa_offset 40
	.cfi_offset 12, -40
	pushq	%rbp
	.cfi_def_cfa_offset 48
	.cfi_offset 6, -48
	movq	%rdx, %rbp
	pushq	%rbx
	.cfi_def_cfa_offset 56
	.cfi_offset 3, -56
	subq	$56, %rsp
	.cfi_def_cfa_offset 112
	.loc 1 2209 21 view .LVU1871
	movb	$0, 250(%rdx)
	.loc 1 2210 3 is_stmt 1 view .LVU1872
	.loc 1 2208 1 is_stmt 0 view .LVU1873
	movq	%rdi, (%rsp)
	.loc 1 2210 22 view .LVU1874
	movq	$0, 8(%rdx)
	.loc 1 2212 3 is_stmt 1 view .LVU1875
	.loc 1 2212 6 is_stmt 0 view .LVU1876
	testq	%rdi, %rdi
	jne	.L513
	cmpq	$1, %rsi
	ja	.L513
.LVL807:
.L512:
	.loc 1 2234 1 view .LVU1877
	addq	$56, %rsp
	.cfi_remember_state
	.cfi_def_cfa_offset 56
	popq	%rbx
	.cfi_def_cfa_offset 48
	popq	%rbp
	.cfi_def_cfa_offset 40
.LVL808:
	.loc 1 2234 1 view .LVU1878
	popq	%r12
	.cfi_def_cfa_offset 32
	popq	%r13
	.cfi_def_cfa_offset 24
	popq	%r14
	.cfi_def_cfa_offset 16
	popq	%r15
	.cfi_def_cfa_offset 8
.LVL809:
	.loc 1 2234 1 view .LVU1879
	ret
.LVL810:
	.p2align 4,,10
	.p2align 3
.L513:
	.cfi_restore_state
	.loc 1 2215 3 is_stmt 1 view .LVU1880
.LBB461:
.LBI461:
	.loc 1 748 1 view .LVU1881
.LBB462:
	.loc 1 751 3 view .LVU1882
	.loc 1 751 6 is_stmt 0 view .LVU1883
	testb	$1, %r15b
	jne	.L515
.LBB463:
	.loc 1 753 7 is_stmt 1 view .LVU1884
	.loc 1 755 7 view .LVU1885
	.loc 1 755 10 is_stmt 0 view .LVU1886
	testq	%r15, %r15
	jne	.L516
	.loc 1 757 11 is_stmt 1 view .LVU1887
	.loc 1 757 11 view .LVU1888
	.loc 1 757 11 view .LVU1889
	movq	(%rsp), %rax
	.loc 1 768 7 is_stmt 0 view .LVU1890
	movl	$2, %esi
.LVL811:
	.loc 1 768 7 view .LVU1891
	movq	%rbp, %rdi
.LVL812:
	.loc 1 757 11 view .LVU1892
#APP
# 757 "src/factor.c" 1
	bsf	%rax, %rcx
# 0 "" 2
.LVL813:
	.loc 1 757 11 is_stmt 1 view .LVU1893
	.loc 1 758 11 view .LVU1894
	.loc 1 758 14 is_stmt 0 view .LVU1895
#NO_APP
	shrq	%cl, %rax
	.loc 1 760 15 view .LVU1896
	leal	64(%rcx), %edx
.LVL814:
	.loc 1 758 14 view .LVU1897
	movq	%rax, %r15
.LVL815:
	.loc 1 759 11 is_stmt 1 view .LVU1898
	.loc 1 760 11 view .LVU1899
	.loc 1 765 11 view .LVU1900
	.loc 1 768 7 view .LVU1901
	call	factor_insert_multiplicity
.LVL816:
	.loc 1 768 7 is_stmt 0 view .LVU1902
.LBE463:
	.loc 1 773 15 is_stmt 1 view .LVU1903
.LBB464:
	.loc 1 768 7 is_stmt 0 view .LVU1904
	movq	$0, (%rsp)
.LVL817:
.L554:
	.loc 1 768 7 view .LVU1905
	leaq	primes_dtab(%rip), %rbx
.LBE464:
	.loc 1 773 3 view .LVU1906
	movb	$26, 8(%rsp)
	xorl	%eax, %eax
	movabsq	$-6148914691236517205, %r11
	movq	%rbx, 16(%rsp)
	movl	$3, %ecx
	xorl	%ebx, %ebx
	movabsq	$6148914691236517205, %r10
	jmp	.L517
.LVL818:
	.p2align 4,,10
	.p2align 3
.L516:
.LBB465:
	.loc 1 764 11 is_stmt 1 view .LVU1907
	.loc 1 764 11 view .LVU1908
	.loc 1 764 11 view .LVU1909
	.loc 1 765 11 is_stmt 0 view .LVU1910
	movq	(%rsp), %rbx
	movl	$64, %ecx
	movq	%r15, %r8
	.loc 1 768 7 view .LVU1911
	movq	%rbp, %rdi
.LVL819:
	.loc 1 764 11 view .LVU1912
#APP
# 764 "src/factor.c" 1
	bsf	%r15, %rdx
# 0 "" 2
.LVL820:
	.loc 1 764 11 is_stmt 1 view .LVU1913
	.loc 1 765 11 view .LVU1914
	.loc 1 765 11 view .LVU1915
#NO_APP
	movq	%rbx, %rax
	subl	%edx, %ecx
	.loc 1 768 7 is_stmt 0 view .LVU1916
	movl	$2, %esi
.LVL821:
	.loc 1 765 11 view .LVU1917
	salq	%cl, %rax
	movl	%edx, %ecx
	shrq	%cl, %r8
	shrq	%cl, %rbx
	orq	%r8, %rax
	movq	%rbx, (%rsp)
.LVL822:
	.loc 1 765 11 view .LVU1918
	movq	%rax, %r15
.LVL823:
	.loc 1 765 11 is_stmt 1 view .LVU1919
	.loc 1 765 11 view .LVU1920
	.loc 1 768 7 view .LVU1921
	call	factor_insert_multiplicity
.LVL824:
.L515:
	.loc 1 768 7 is_stmt 0 view .LVU1922
.LBE465:
	.loc 1 773 15 is_stmt 1 view .LVU1923
	.loc 1 773 3 is_stmt 0 view .LVU1924
	cmpq	$0, (%rsp)
	je	.L554
	.loc 1 773 3 view .LVU1925
	leaq	8+primes_dtab(%rip), %r14
	movl	$1, %r13d
	movabsq	$-6148914691236517205, %r9
	movl	$2, %r12d
	movl	$3, %ecx
	leaq	primes_diff(%rip), %r8
	jmp	.L518
.LVL825:
	.p2align 4,,10
	.p2align 3
.L519:
	.loc 1 790 7 is_stmt 1 view .LVU1926
	movl	%r13d, %eax
	.loc 1 790 9 is_stmt 0 view .LVU1927
	addq	%r12, %rcx
.LVL826:
	.loc 1 773 50 is_stmt 1 view .LVU1928
	.loc 1 773 15 view .LVU1929
	addq	$1, %r13
	addq	$16, %r14
	.loc 1 773 3 is_stmt 0 view .LVU1930
	cmpq	$0, (%rsp)
	je	.L521
	.loc 1 773 3 view .LVU1931
	cmpl	$667, %eax
	ja	.L523
	movzbl	(%r8,%r13), %r12d
	movq	-8(%r14), %r9
.LVL827:
.L518:
	.loc 1 775 7 is_stmt 1 view .LVU1932
.LBB466:
	.loc 1 777 11 view .LVU1933
	.loc 1 779 11 view .LVU1934
	.loc 1 779 14 is_stmt 0 view .LVU1935
	movq	%r9, %r10
	imulq	%r15, %r10
.LVL828:
	.loc 1 780 11 is_stmt 1 view .LVU1936
	movq	%r10, %rax
#APP
# 780 "src/factor.c" 1
	mulq	%rcx
# 0 "" 2
.LVL829:
	.loc 1 781 11 view .LVU1937
	.loc 1 781 14 is_stmt 0 view .LVU1938
#NO_APP
	cmpq	%rdx, (%rsp)
	jb	.L519
	.loc 1 781 14 view .LVU1939
	movq	(%r14), %r11
.LVL830:
.L520:
	.loc 1 783 11 is_stmt 1 view .LVU1940
	.loc 1 783 14 is_stmt 0 view .LVU1941
	movq	(%rsp), %rbx
	subq	%rdx, %rbx
.LVL831:
	.loc 1 784 11 is_stmt 1 view .LVU1942
	.loc 1 784 14 is_stmt 0 view .LVU1943
	imulq	%r9, %rbx
.LVL832:
	.loc 1 785 11 is_stmt 1 view .LVU1944
	.loc 1 785 14 is_stmt 0 view .LVU1945
	cmpq	%r11, %rbx
	ja	.L519
	.loc 1 788 11 view .LVU1946
	movq	%rcx, %rsi
	movl	$1, %edx
.LVL833:
	.loc 1 788 11 view .LVU1947
	movq	%rbp, %rdi
	movq	%r11, 24(%rsp)
	movq	%r10, 16(%rsp)
	movq	%r9, 8(%rsp)
	.loc 1 787 11 is_stmt 1 view .LVU1948
.LVL834:
	.loc 1 787 20 view .LVU1949
	.loc 1 788 11 view .LVU1950
	movq	%rcx, (%rsp)
	.loc 1 788 11 is_stmt 0 view .LVU1951
	call	factor_insert_multiplicity
.LVL835:
	.loc 1 788 11 view .LVU1952
.LBE466:
	.loc 1 775 13 is_stmt 1 view .LVU1953
	.loc 1 775 7 view .LVU1954
.LBB467:
	.loc 1 777 11 view .LVU1955
	.loc 1 779 11 view .LVU1956
	.loc 1 779 14 is_stmt 0 view .LVU1957
	movq	8(%rsp), %r9
	movq	16(%rsp), %r10
	.loc 1 781 14 view .LVU1958
	leaq	primes_diff(%rip), %r8
	.loc 1 780 11 view .LVU1959
	movq	(%rsp), %rcx
	.loc 1 781 14 view .LVU1960
	movq	24(%rsp), %r11
	.loc 1 784 14 view .LVU1961
	movq	%rbx, (%rsp)
	.loc 1 779 14 view .LVU1962
	movq	%r9, %rsi
	movq	%r10, %r15
	imulq	%r10, %rsi
.LVL836:
	.loc 1 780 11 is_stmt 1 view .LVU1963
	movq	%rsi, %rax
#APP
# 780 "src/factor.c" 1
	mulq	%rcx
# 0 "" 2
.LVL837:
	.loc 1 781 11 view .LVU1964
	.loc 1 781 14 is_stmt 0 view .LVU1965
#NO_APP
	cmpq	%rbx, %rdx
	ja	.L519
.LVL838:
	.loc 1 779 14 view .LVU1966
	movq	%rsi, %r10
	jmp	.L520
.LVL839:
	.p2align 4,,10
	.p2align 3
.L523:
	.loc 1 779 14 view .LVU1967
.LBE467:
	.loc 1 825 3 is_stmt 1 view .LVU1968
	.loc 1 825 3 is_stmt 0 view .LVU1969
.LBE462:
.LBE461:
	.loc 1 2217 3 is_stmt 1 view .LVU1970
	.loc 1 2217 6 is_stmt 0 view .LVU1971
	cmpq	$0, (%rsp)
	jne	.L548
	.loc 1 2217 15 discriminator 1 view .LVU1972
	cmpq	$1, %r15
	jbe	.L512
	.loc 1 2220 3 is_stmt 1 view .LVU1973
	.loc 1 2220 7 is_stmt 0 view .LVU1974
	xorl	%edi, %edi
	movq	%r15, %rsi
	call	prime2_p
.LVL840:
	.loc 1 2220 6 view .LVU1975
	testb	%al, %al
	jne	.L551
	.loc 1 2230 9 is_stmt 1 view .LVU1976
	.loc 1 2234 1 is_stmt 0 view .LVU1977
	addq	$56, %rsp
	.cfi_remember_state
	.cfi_def_cfa_offset 56
	.loc 1 2230 9 view .LVU1978
	movq	%rbp, %rdx
	movq	%r15, %rdi
	movl	$1, %esi
	.loc 1 2234 1 view .LVU1979
	popq	%rbx
	.cfi_def_cfa_offset 48
	popq	%rbp
	.cfi_def_cfa_offset 40
.LVL841:
	.loc 1 2234 1 view .LVU1980
	popq	%r12
	.cfi_def_cfa_offset 32
	popq	%r13
	.cfi_def_cfa_offset 24
	popq	%r14
	.cfi_def_cfa_offset 16
	popq	%r15
	.cfi_def_cfa_offset 8
.LVL842:
	.loc 1 2230 9 view .LVU1981
	jmp	factor_using_pollard_rho
.LVL843:
	.p2align 4,,10
	.p2align 3
.L521:
	.cfi_restore_state
.LBB527:
.LBB522:
	.loc 1 807 10 is_stmt 1 view .LVU1982
	.loc 1 807 3 is_stmt 0 view .LVU1983
	cmpl	$667, %eax
	ja	.L523
	movl	%eax, %ebx
	leaq	primes_dtab(%rip), %rsi
	movq	%rbx, %rdx
	movq	%rsi, 16(%rsp)
	salq	$4, %rdx
	addq	%rsi, %rdx
	movq	8(%rdx), %r10
	movq	(%rdx), %r11
	leaq	primes_diff8(%rip), %rdx
	movzbl	(%rdx,%rbx), %edi
	movb	%dil, 8(%rsp)
.LVL844:
.L517:
	.loc 1 807 3 view .LVU1984
	addq	$1, %rbx
	leal	8(%rax), %r13d
	leaq	primes_diff(%rip), %r12
	salq	$4, %rbx
	addq	16(%rsp), %rbx
	jmp	.L547
.LVL845:
	.p2align 4,,10
	.p2align 3
.L596:
.LBB468:
	.loc 1 811 7 is_stmt 1 view .LVU1985
	.loc 1 812 7 view .LVU1986
	.loc 1 812 7 view .LVU1987
	.loc 1 812 7 view .LVU1988
	movq	(%rbx), %rdx
	imulq	%r15, %rdx
.LVL846:
	.loc 1 812 7 view .LVU1989
	cmpq	8(%rbx), %rdx
	jbe	.L589
.LVL847:
.L525:
	.loc 1 812 7 view .LVU1990
	.loc 1 813 7 view .LVU1991
	.loc 1 813 7 view .LVU1992
	.loc 1 813 7 view .LVU1993
	movq	16(%rbx), %rdx
.LVL848:
	.loc 1 813 7 is_stmt 0 view .LVU1994
	imulq	%r15, %rdx
.LVL849:
	.loc 1 813 7 is_stmt 1 view .LVU1995
	cmpq	24(%rbx), %rdx
	jbe	.L590
.L528:
	.loc 1 813 7 view .LVU1996
	.loc 1 814 7 view .LVU1997
	.loc 1 814 7 view .LVU1998
	.loc 1 814 7 view .LVU1999
	movq	32(%rbx), %rdx
.LVL850:
	.loc 1 814 7 is_stmt 0 view .LVU2000
	imulq	%r15, %rdx
.LVL851:
	.loc 1 814 7 is_stmt 1 view .LVU2001
	cmpq	40(%rbx), %rdx
	jbe	.L591
.L531:
	.loc 1 814 7 view .LVU2002
	.loc 1 815 7 view .LVU2003
	.loc 1 815 7 view .LVU2004
	.loc 1 815 7 view .LVU2005
	movq	48(%rbx), %rdx
.LVL852:
	.loc 1 815 7 is_stmt 0 view .LVU2006
	imulq	%r15, %rdx
.LVL853:
	.loc 1 815 7 is_stmt 1 view .LVU2007
	cmpq	56(%rbx), %rdx
	jbe	.L592
.L534:
	.loc 1 815 7 view .LVU2008
	.loc 1 816 7 view .LVU2009
	.loc 1 816 7 view .LVU2010
	.loc 1 816 7 view .LVU2011
	movq	64(%rbx), %rdx
.LVL854:
	.loc 1 816 7 is_stmt 0 view .LVU2012
	imulq	%r15, %rdx
.LVL855:
	.loc 1 816 7 is_stmt 1 view .LVU2013
	cmpq	72(%rbx), %rdx
	jbe	.L593
.L537:
	.loc 1 816 7 view .LVU2014
	.loc 1 817 7 view .LVU2015
	.loc 1 817 7 view .LVU2016
	.loc 1 817 7 view .LVU2017
	movq	80(%rbx), %rdx
.LVL856:
	.loc 1 817 7 is_stmt 0 view .LVU2018
	imulq	%r15, %rdx
.LVL857:
	.loc 1 817 7 is_stmt 1 view .LVU2019
	cmpq	%rdx, 88(%rbx)
	jnb	.L594
.L540:
	.loc 1 817 7 view .LVU2020
	.loc 1 818 7 view .LVU2021
	.loc 1 818 7 view .LVU2022
	.loc 1 818 7 view .LVU2023
	movq	96(%rbx), %rdx
.LVL858:
	.loc 1 818 7 is_stmt 0 view .LVU2024
	imulq	%r15, %rdx
.LVL859:
	.loc 1 818 7 is_stmt 1 view .LVU2025
	cmpq	104(%rbx), %rdx
	jbe	.L595
.L543:
	.loc 1 818 7 view .LVU2026
	.loc 1 820 7 view .LVU2027
	.loc 1 820 24 is_stmt 0 view .LVU2028
	movzbl	8(%rsp), %eax
	.loc 1 820 9 view .LVU2029
	addq	%rax, %rcx
.LVL860:
	.loc 1 821 7 is_stmt 1 view .LVU2030
	.loc 1 821 13 is_stmt 0 view .LVU2031
	movq	%rcx, %rdx
.LVL861:
	.loc 1 821 13 view .LVU2032
	imulq	%rcx, %rdx
	.loc 1 821 10 view .LVU2033
	cmpq	%r15, %rdx
	ja	.L523
	.loc 1 821 10 view .LVU2034
.LBE468:
	.loc 1 807 35 is_stmt 1 view .LVU2035
.LVL862:
	.loc 1 807 10 view .LVU2036
	subq	$-128, %rbx
.LVL863:
	.loc 1 807 3 is_stmt 0 view .LVU2037
	cmpl	$667, %r13d
	ja	.L523
	.loc 1 807 3 view .LVU2038
	movl	%r13d, %esi
	leaq	primes_diff8(%rip), %rax
	addl	$8, %r13d
.LVL864:
	.loc 1 807 3 view .LVU2039
	movzbl	(%rax,%rsi), %eax
	movq	%rsi, %rdx
	salq	$4, %rdx
	addq	16(%rsp), %rdx
	movq	8(%rdx), %r10
	movq	(%rdx), %r11
	movb	%al, 8(%rsp)
.LVL865:
.L547:
.LBB517:
	.loc 1 809 7 is_stmt 1 view .LVU2040
	.loc 1 810 7 view .LVU2041
	.loc 1 811 7 view .LVU2042
	.loc 1 811 7 view .LVU2043
	.loc 1 811 7 view .LVU2044
	movq	%r15, %r14
	imulq	%r11, %r14
.LVL866:
	.loc 1 811 7 view .LVU2045
	cmpq	%r10, %r14
	ja	.L596
.LVL867:
.L524:
.LBB469:
.LBB470:
	.loc 1 711 3 is_stmt 0 view .LVU2046
	movq	%rcx, %rsi
	movl	$1, %edx
	movq	%rbp, %rdi
	movq	%r11, 40(%rsp)
	movq	%r10, 32(%rsp)
	.loc 1 711 3 view .LVU2047
.LBE470:
.LBE469:
	.loc 1 811 7 is_stmt 1 view .LVU2048
.LVL868:
	.loc 1 811 7 view .LVU2049
.LBB473:
.LBI469:
	.loc 1 706 1 view .LVU2050
.LBB471:
	.loc 1 709 3 view .LVU2051
.LBE471:
.LBE473:
.LBE517:
.LBE522:
.LBE527:
	.loc 1 709 8 view .LVU2052
	.loc 1 709 28 view .LVU2053
.LBB528:
.LBB523:
.LBB518:
.LBB474:
.LBB472:
	.loc 1 711 3 view .LVU2054
	movq	%r14, %r15
	movq	%rcx, 24(%rsp)
	call	factor_insert_multiplicity
.LVL869:
	.loc 1 711 3 is_stmt 0 view .LVU2055
.LBE472:
.LBE474:
	.loc 1 811 7 is_stmt 1 view .LVU2056
	.loc 1 811 7 view .LVU2057
	.loc 1 811 7 view .LVU2058
	movq	40(%rsp), %r11
	movq	32(%rsp), %r10
	movq	24(%rsp), %rcx
	imulq	%r11, %r14
.LVL870:
	.loc 1 811 7 view .LVU2059
	cmpq	%r10, %r14
	jbe	.L524
.LVL871:
	.loc 1 811 7 view .LVU2060
	.loc 1 812 7 view .LVU2061
	.loc 1 812 7 view .LVU2062
	.loc 1 812 7 view .LVU2063
	movq	(%rbx), %rdx
	imulq	%r15, %rdx
.LVL872:
	.loc 1 812 7 view .LVU2064
	cmpq	8(%rbx), %rdx
	ja	.L525
.LVL873:
	.p2align 4,,10
	.p2align 3
.L589:
	.loc 1 812 7 is_stmt 0 view .LVU2065
	leal	-7(%r13), %esi
	movzbl	(%r12,%rsi), %esi
	addq	%rcx, %rsi
.L582:
	.loc 1 812 7 view .LVU2066
	movq	%rdx, %r15
.LVL874:
.LBB475:
.LBB476:
	.loc 1 711 3 view .LVU2067
	movq	%rbp, %rdi
	movl	$1, %edx
.LVL875:
	.loc 1 711 3 view .LVU2068
	movq	%rcx, 24(%rsp)
	.loc 1 711 3 view .LVU2069
.LBE476:
.LBE475:
	.loc 1 812 7 is_stmt 1 view .LVU2070
.LVL876:
	.loc 1 812 7 view .LVU2071
.LBB479:
.LBI475:
	.loc 1 706 1 view .LVU2072
.LBB477:
	.loc 1 709 3 view .LVU2073
.LBE477:
.LBE479:
.LBE518:
.LBE523:
.LBE528:
	.loc 1 709 8 view .LVU2074
	.loc 1 709 28 view .LVU2075
	.loc 1 710 5 view .LVU2076
	.loc 1 709 37 view .LVU2077
	.loc 1 709 28 view .LVU2078
.LBB529:
.LBB524:
.LBB519:
.LBB480:
.LBB478:
	.loc 1 711 3 view .LVU2079
	call	factor_insert_multiplicity
.LVL877:
	.loc 1 711 3 is_stmt 0 view .LVU2080
.LBE478:
.LBE480:
	.loc 1 811 7 is_stmt 1 view .LVU2081
	.loc 1 812 7 view .LVU2082
	.loc 1 812 7 view .LVU2083
	.loc 1 812 7 view .LVU2084
	movq	(%rbx), %rdx
	movq	24(%rsp), %rcx
	imulq	%r15, %rdx
.LVL878:
	.loc 1 812 7 view .LVU2085
	cmpq	8(%rbx), %rdx
	jbe	.L582
.LVL879:
	.loc 1 812 7 view .LVU2086
	.loc 1 813 7 view .LVU2087
	.loc 1 813 7 view .LVU2088
	.loc 1 813 7 view .LVU2089
	movq	16(%rbx), %rdx
.LVL880:
	.loc 1 813 7 is_stmt 0 view .LVU2090
	imulq	%r15, %rdx
.LVL881:
	.loc 1 813 7 is_stmt 1 view .LVU2091
	cmpq	24(%rbx), %rdx
	ja	.L528
.LVL882:
	.p2align 4,,10
	.p2align 3
.L590:
	.loc 1 813 7 is_stmt 0 view .LVU2092
	leal	-7(%r13), %esi
	leal	-6(%r13), %edi
	movzbl	(%r12,%rsi), %esi
	movzbl	(%r12,%rdi), %edi
	addq	%rdi, %rsi
	addq	%rcx, %rsi
.L583:
	.loc 1 813 7 view .LVU2093
	movq	%rdx, %r15
.LVL883:
.LBB481:
.LBB482:
	.loc 1 711 3 view .LVU2094
	movq	%rbp, %rdi
	movl	$1, %edx
.LVL884:
	.loc 1 711 3 view .LVU2095
	movq	%rcx, 24(%rsp)
	.loc 1 711 3 view .LVU2096
.LBE482:
.LBE481:
	.loc 1 813 7 is_stmt 1 view .LVU2097
.LVL885:
	.loc 1 813 7 view .LVU2098
.LBB485:
.LBI481:
	.loc 1 706 1 view .LVU2099
.LBB483:
	.loc 1 709 3 view .LVU2100
.LBE483:
.LBE485:
.LBE519:
.LBE524:
.LBE529:
	.loc 1 709 8 view .LVU2101
	.loc 1 709 28 view .LVU2102
	.loc 1 710 5 view .LVU2103
	.loc 1 709 37 view .LVU2104
	.loc 1 709 28 view .LVU2105
	.loc 1 710 5 view .LVU2106
	.loc 1 709 37 view .LVU2107
	.loc 1 709 28 view .LVU2108
.LBB530:
.LBB525:
.LBB520:
.LBB486:
.LBB484:
	.loc 1 711 3 view .LVU2109
	call	factor_insert_multiplicity
.LVL886:
	.loc 1 711 3 is_stmt 0 view .LVU2110
.LBE484:
.LBE486:
	.loc 1 812 7 is_stmt 1 view .LVU2111
	.loc 1 813 7 view .LVU2112
	.loc 1 813 7 view .LVU2113
	.loc 1 813 7 view .LVU2114
	movq	16(%rbx), %rdx
	movq	24(%rsp), %rcx
	imulq	%r15, %rdx
.LVL887:
	.loc 1 813 7 view .LVU2115
	cmpq	24(%rbx), %rdx
	jbe	.L583
.LVL888:
	.loc 1 813 7 view .LVU2116
	.loc 1 814 7 view .LVU2117
	.loc 1 814 7 view .LVU2118
	.loc 1 814 7 view .LVU2119
	movq	32(%rbx), %rdx
.LVL889:
	.loc 1 814 7 is_stmt 0 view .LVU2120
	imulq	%r15, %rdx
.LVL890:
	.loc 1 814 7 is_stmt 1 view .LVU2121
	cmpq	40(%rbx), %rdx
	ja	.L531
.LVL891:
	.p2align 4,,10
	.p2align 3
.L591:
	.loc 1 814 7 is_stmt 0 view .LVU2122
	leal	-7(%r13), %esi
	leal	-5(%r13), %edi
	movzbl	(%r12,%rdi), %edi
	movzbl	(%r12,%rsi), %esi
	addq	%rdi, %rsi
	leal	-6(%r13), %edi
	movzbl	(%r12,%rdi), %edi
	addq	%rcx, %rsi
	addq	%rdi, %rsi
.L584:
	.loc 1 814 7 view .LVU2123
	movq	%rdx, %r15
.LVL892:
.LBB487:
.LBB488:
	.loc 1 711 3 view .LVU2124
	movq	%rbp, %rdi
	movl	$1, %edx
.LVL893:
	.loc 1 711 3 view .LVU2125
	movq	%rcx, 24(%rsp)
	.loc 1 711 3 view .LVU2126
.LBE488:
.LBE487:
	.loc 1 814 7 is_stmt 1 view .LVU2127
.LVL894:
	.loc 1 814 7 view .LVU2128
.LBB491:
.LBI487:
	.loc 1 706 1 view .LVU2129
.LBB489:
	.loc 1 709 3 view .LVU2130
.LBE489:
.LBE491:
.LBE520:
.LBE525:
.LBE530:
	.loc 1 709 8 view .LVU2131
	.loc 1 709 28 view .LVU2132
	.loc 1 710 5 view .LVU2133
	.loc 1 709 37 view .LVU2134
	.loc 1 709 28 view .LVU2135
	.loc 1 710 5 view .LVU2136
	.loc 1 709 37 view .LVU2137
	.loc 1 709 28 view .LVU2138
	.loc 1 710 5 view .LVU2139
	.loc 1 709 37 view .LVU2140
	.loc 1 709 28 view .LVU2141
.LBB531:
.LBB526:
.LBB521:
.LBB492:
.LBB490:
	.loc 1 711 3 view .LVU2142
	call	factor_insert_multiplicity
.LVL895:
	.loc 1 711 3 is_stmt 0 view .LVU2143
.LBE490:
.LBE492:
	.loc 1 813 7 is_stmt 1 view .LVU2144
	.loc 1 814 7 view .LVU2145
	.loc 1 814 7 view .LVU2146
	.loc 1 814 7 view .LVU2147
	movq	32(%rbx), %rdx
	movq	24(%rsp), %rcx
	imulq	%r15, %rdx
.LVL896:
	.loc 1 814 7 view .LVU2148
	cmpq	40(%rbx), %rdx
	jbe	.L584
.LVL897:
	.loc 1 814 7 view .LVU2149
	.loc 1 815 7 view .LVU2150
	.loc 1 815 7 view .LVU2151
	.loc 1 815 7 view .LVU2152
	movq	48(%rbx), %rdx
.LVL898:
	.loc 1 815 7 is_stmt 0 view .LVU2153
	imulq	%r15, %rdx
.LVL899:
	.loc 1 815 7 is_stmt 1 view .LVU2154
	cmpq	56(%rbx), %rdx
	ja	.L534
.LVL900:
	.p2align 4,,10
	.p2align 3
.L592:
	.loc 1 815 7 is_stmt 0 view .LVU2155
	movq	%rdx, %r15
.LVL901:
	.loc 1 815 7 view .LVU2156
	leal	-7(%r13), %r14d
	leal	-3(%r13), %r10d
.L535:
	.loc 1 815 7 is_stmt 1 view .LVU2157
.LVL902:
	.loc 1 815 7 view .LVU2158
.LBB493:
.LBI493:
	.loc 1 706 1 view .LVU2159
.LBB494:
	.loc 1 709 3 view .LVU2160
.LBB495:
	.loc 1 709 8 view .LVU2161
	.loc 1 709 28 view .LVU2162
	movl	%r14d, %edx
.LVL903:
	.loc 1 709 28 is_stmt 0 view .LVU2163
.LBE495:
.LBE494:
.LBE493:
	movq	%rcx, %rsi
.LVL904:
	.p2align 4,,10
	.p2align 3
.L539:
.LBB498:
.LBB497:
.LBB496:
	.loc 1 710 5 is_stmt 1 view .LVU2164
	.loc 1 710 21 is_stmt 0 view .LVU2165
	movl	%edx, %edi
	addl	$1, %edx
.LVL905:
	.loc 1 710 21 view .LVU2166
	movzbl	(%r12,%rdi), %edi
	.loc 1 710 7 view .LVU2167
	addq	%rdi, %rsi
.LVL906:
	.loc 1 709 37 is_stmt 1 view .LVU2168
	.loc 1 709 28 view .LVU2169
	.loc 1 709 3 is_stmt 0 view .LVU2170
	cmpl	%edx, %r10d
	jne	.L539
.LBE496:
	.loc 1 711 3 view .LVU2171
	movl	$1, %edx
	movq	%rbp, %rdi
	movl	%r10d, 32(%rsp)
	movq	%rcx, 24(%rsp)
	.loc 1 711 3 is_stmt 1 view .LVU2172
	call	factor_insert_multiplicity
.LVL907:
	.loc 1 711 3 is_stmt 0 view .LVU2173
.LBE497:
.LBE498:
	.loc 1 814 7 is_stmt 1 view .LVU2174
	.loc 1 815 7 view .LVU2175
	.loc 1 815 7 view .LVU2176
	.loc 1 815 7 view .LVU2177
	movq	48(%rbx), %rdx
	movq	24(%rsp), %rcx
	movl	32(%rsp), %r10d
	imulq	%r15, %rdx
.LVL908:
	.loc 1 815 7 view .LVU2178
	cmpq	56(%rbx), %rdx
	ja	.L534
.LVL909:
	.loc 1 815 7 is_stmt 0 view .LVU2179
	movq	%rdx, %r15
.LVL910:
	.loc 1 815 7 view .LVU2180
	jmp	.L535
.LVL911:
	.p2align 4,,10
	.p2align 3
.L595:
	.loc 1 818 7 view .LVU2181
	movq	%rdx, %r15
.LVL912:
	.loc 1 818 7 view .LVU2182
	leal	-7(%r13), %r14d
.L544:
	.loc 1 818 7 is_stmt 1 view .LVU2183
.LVL913:
	.loc 1 818 7 view .LVU2184
.LBB499:
.LBI499:
	.loc 1 706 1 view .LVU2185
.LBB500:
	.loc 1 709 3 view .LVU2186
.LBB501:
	.loc 1 709 8 view .LVU2187
	.loc 1 709 28 view .LVU2188
	movl	%r14d, %edx
.LVL914:
	.loc 1 709 28 is_stmt 0 view .LVU2189
.LBE501:
.LBE500:
.LBE499:
	movq	%rcx, %rsi
.LVL915:
	.p2align 4,,10
	.p2align 3
.L546:
.LBB504:
.LBB503:
.LBB502:
	.loc 1 710 5 is_stmt 1 view .LVU2190
	.loc 1 710 21 is_stmt 0 view .LVU2191
	movl	%edx, %edi
	addl	$1, %edx
.LVL916:
	.loc 1 710 21 view .LVU2192
	movzbl	(%r12,%rdi), %edi
	.loc 1 710 7 view .LVU2193
	addq	%rdi, %rsi
.LVL917:
	.loc 1 709 37 is_stmt 1 view .LVU2194
	.loc 1 709 28 view .LVU2195
	.loc 1 709 3 is_stmt 0 view .LVU2196
	cmpl	%edx, %r13d
	jne	.L546
.LBE502:
	.loc 1 711 3 view .LVU2197
	movl	$1, %edx
	movq	%rbp, %rdi
	movq	%rcx, 24(%rsp)
	.loc 1 711 3 is_stmt 1 view .LVU2198
	call	factor_insert_multiplicity
.LVL918:
	.loc 1 711 3 is_stmt 0 view .LVU2199
.LBE503:
.LBE504:
	.loc 1 817 7 is_stmt 1 view .LVU2200
	.loc 1 818 7 view .LVU2201
	.loc 1 818 7 view .LVU2202
	.loc 1 818 7 view .LVU2203
	movq	96(%rbx), %rdx
	movq	24(%rsp), %rcx
	imulq	%r15, %rdx
.LVL919:
	.loc 1 818 7 view .LVU2204
	cmpq	104(%rbx), %rdx
	ja	.L543
.LVL920:
	.loc 1 818 7 is_stmt 0 view .LVU2205
	movq	%rdx, %r15
.LVL921:
	.loc 1 818 7 view .LVU2206
	jmp	.L544
.LVL922:
	.p2align 4,,10
	.p2align 3
.L594:
	.loc 1 817 7 view .LVU2207
	movq	%rdx, %r15
.LVL923:
	.loc 1 817 7 view .LVU2208
	leal	-7(%r13), %r14d
	leal	-1(%r13), %r10d
.L541:
	.loc 1 817 7 is_stmt 1 view .LVU2209
.LVL924:
	.loc 1 817 7 view .LVU2210
.LBB505:
.LBI505:
	.loc 1 706 1 view .LVU2211
.LBB506:
	.loc 1 709 3 view .LVU2212
.LBB507:
	.loc 1 709 8 view .LVU2213
	.loc 1 709 28 view .LVU2214
	movl	%r14d, %edx
.LVL925:
	.loc 1 709 28 is_stmt 0 view .LVU2215
.LBE507:
.LBE506:
.LBE505:
	movq	%rcx, %rsi
.LVL926:
	.p2align 4,,10
	.p2align 3
.L545:
.LBB510:
.LBB509:
.LBB508:
	.loc 1 710 5 is_stmt 1 view .LVU2216
	.loc 1 710 21 is_stmt 0 view .LVU2217
	movl	%edx, %edi
	addl	$1, %edx
.LVL927:
	.loc 1 710 21 view .LVU2218
	movzbl	(%r12,%rdi), %edi
	.loc 1 710 7 view .LVU2219
	addq	%rdi, %rsi
.LVL928:
	.loc 1 709 37 is_stmt 1 view .LVU2220
	.loc 1 709 28 view .LVU2221
	.loc 1 709 3 is_stmt 0 view .LVU2222
	cmpl	%r10d, %edx
	jne	.L545
.LBE508:
	.loc 1 711 3 view .LVU2223
	movl	$1, %edx
	movq	%rbp, %rdi
	movl	%r10d, 32(%rsp)
	movq	%rcx, 24(%rsp)
	.loc 1 711 3 is_stmt 1 view .LVU2224
	call	factor_insert_multiplicity
.LVL929:
	.loc 1 711 3 is_stmt 0 view .LVU2225
.LBE509:
.LBE510:
	.loc 1 816 7 is_stmt 1 view .LVU2226
	.loc 1 817 7 view .LVU2227
	.loc 1 817 7 view .LVU2228
	.loc 1 817 7 view .LVU2229
	movq	80(%rbx), %rdx
	movq	24(%rsp), %rcx
	movl	32(%rsp), %r10d
	imulq	%r15, %rdx
.LVL930:
	.loc 1 817 7 view .LVU2230
	cmpq	88(%rbx), %rdx
	ja	.L540
.LVL931:
	.loc 1 817 7 is_stmt 0 view .LVU2231
	movq	%rdx, %r15
.LVL932:
	.loc 1 817 7 view .LVU2232
	jmp	.L541
.LVL933:
	.p2align 4,,10
	.p2align 3
.L593:
	.loc 1 816 7 view .LVU2233
	movq	%rdx, %r15
.LVL934:
	.loc 1 816 7 view .LVU2234
	leal	-7(%r13), %r14d
	leal	-2(%r13), %r10d
.L538:
	.loc 1 816 7 is_stmt 1 view .LVU2235
.LVL935:
	.loc 1 816 7 view .LVU2236
.LBB511:
.LBI511:
	.loc 1 706 1 view .LVU2237
.LBB512:
	.loc 1 709 3 view .LVU2238
.LBB513:
	.loc 1 709 8 view .LVU2239
	.loc 1 709 28 view .LVU2240
	movl	%r14d, %edx
.LVL936:
	.loc 1 709 28 is_stmt 0 view .LVU2241
.LBE513:
.LBE512:
.LBE511:
	movq	%rcx, %rsi
.LVL937:
	.p2align 4,,10
	.p2align 3
.L542:
.LBB516:
.LBB515:
.LBB514:
	.loc 1 710 5 is_stmt 1 view .LVU2242
	.loc 1 710 21 is_stmt 0 view .LVU2243
	movl	%edx, %edi
	addl	$1, %edx
.LVL938:
	.loc 1 710 21 view .LVU2244
	movzbl	(%r12,%rdi), %edi
	.loc 1 710 7 view .LVU2245
	addq	%rdi, %rsi
.LVL939:
	.loc 1 709 37 is_stmt 1 view .LVU2246
	.loc 1 709 28 view .LVU2247
	.loc 1 709 3 is_stmt 0 view .LVU2248
	cmpl	%r10d, %edx
	jne	.L542
.LBE514:
	.loc 1 711 3 view .LVU2249
	movl	$1, %edx
	movq	%rbp, %rdi
	movl	%r10d, 32(%rsp)
	movq	%rcx, 24(%rsp)
	.loc 1 711 3 is_stmt 1 view .LVU2250
	call	factor_insert_multiplicity
.LVL940:
	.loc 1 711 3 is_stmt 0 view .LVU2251
.LBE515:
.LBE516:
	.loc 1 815 7 is_stmt 1 view .LVU2252
	.loc 1 816 7 view .LVU2253
	.loc 1 816 7 view .LVU2254
	.loc 1 816 7 view .LVU2255
	movq	64(%rbx), %rdx
	movq	24(%rsp), %rcx
	movl	32(%rsp), %r10d
	imulq	%r15, %rdx
.LVL941:
	.loc 1 816 7 view .LVU2256
	cmpq	72(%rbx), %rdx
	ja	.L537
.LVL942:
	.loc 1 816 7 is_stmt 0 view .LVU2257
	movq	%rdx, %r15
.LVL943:
	.loc 1 816 7 view .LVU2258
	jmp	.L538
.LVL944:
	.p2align 4,,10
	.p2align 3
.L551:
	.loc 1 816 7 view .LVU2259
.LBE521:
.LBE526:
.LBE531:
	.loc 1 2221 5 is_stmt 1 view .LVU2260
	movq	(%rsp), %rsi
	.loc 1 2234 1 is_stmt 0 view .LVU2261
	addq	$56, %rsp
	.cfi_remember_state
	.cfi_def_cfa_offset 56
	.loc 1 2221 5 view .LVU2262
	movq	%r15, %rdx
	movq	%rbp, %rdi
	.loc 1 2234 1 view .LVU2263
	popq	%rbx
	.cfi_def_cfa_offset 48
	popq	%rbp
	.cfi_def_cfa_offset 40
.LVL945:
	.loc 1 2234 1 view .LVU2264
	popq	%r12
	.cfi_def_cfa_offset 32
	popq	%r13
	.cfi_def_cfa_offset 24
	popq	%r14
	.cfi_def_cfa_offset 16
	popq	%r15
	.cfi_def_cfa_offset 8
.LVL946:
	.loc 1 2221 5 view .LVU2265
	jmp	factor_insert_large
.LVL947:
	.p2align 4,,10
	.p2align 3
.L548:
	.cfi_restore_state
	.loc 1 2220 3 is_stmt 1 view .LVU2266
	.loc 1 2220 7 is_stmt 0 view .LVU2267
	movq	(%rsp), %rdi
	movq	%r15, %rsi
	call	prime2_p
.LVL948:
	.loc 1 2220 6 view .LVU2268
	testb	%al, %al
	jne	.L551
	.loc 1 2232 9 is_stmt 1 view .LVU2269
	movq	(%rsp), %rdi
	.loc 1 2234 1 is_stmt 0 view .LVU2270
	addq	$56, %rsp
	.cfi_def_cfa_offset 56
	.loc 1 2232 9 view .LVU2271
	movq	%rbp, %rcx
	movq	%r15, %rsi
	.loc 1 2234 1 view .LVU2272
	popq	%rbx
	.cfi_def_cfa_offset 48
	.loc 1 2232 9 view .LVU2273
	movl	$1, %edx
	.loc 1 2234 1 view .LVU2274
	popq	%rbp
	.cfi_def_cfa_offset 40
.LVL949:
	.loc 1 2234 1 view .LVU2275
	popq	%r12
	.cfi_def_cfa_offset 32
	popq	%r13
	.cfi_def_cfa_offset 24
	popq	%r14
	.cfi_def_cfa_offset 16
	popq	%r15
	.cfi_def_cfa_offset 8
.LVL950:
	.loc 1 2232 9 view .LVU2276
	jmp	factor_using_pollard_rho2
.LVL951:
	.loc 1 2232 9 view .LVU2277
	.cfi_endproc
.LFE161:
	.size	factor, .-factor
	.section	.rodata.str1.1
.LC16:
	.string	"(s1) < (n)"
	.text
	.p2align 4
	.type	prime_p.part.0, @function
prime_p.part.0:
.LVL952:
.LFB178:
	.loc 1 1185 1 is_stmt 1 view -0
	.cfi_startproc
	.loc 1 1185 1 is_stmt 0 view .LVU2279
	pushq	%r15
	.cfi_def_cfa_offset 16
	.cfi_offset 15, -16
	pushq	%r14
	.cfi_def_cfa_offset 24
	.cfi_offset 14, -24
	.loc 1 1200 13 view .LVU2280
	leaq	-1(%rdi), %r14
	.loc 1 1185 1 view .LVU2281
	pushq	%r13
	.cfi_def_cfa_offset 32
	.cfi_offset 13, -32
	pushq	%r12
	.cfi_def_cfa_offset 40
	.cfi_offset 12, -40
	pushq	%rbp
	.cfi_def_cfa_offset 48
	.cfi_offset 6, -48
	movq	%rdi, %rbp
	pushq	%rbx
	.cfi_def_cfa_offset 56
	.cfi_offset 3, -56
	subq	$328, %rsp
	.cfi_def_cfa_offset 384
	.loc 1 1185 1 view .LVU2282
	movq	%fs:40, %rax
	movq	%rax, 312(%rsp)
	xorl	%eax, %eax
	.loc 1 1200 3 is_stmt 1 view .LVU2283
	.loc 1 1201 3 is_stmt 0 view .LVU2284
	andl	$1, %edi
.LVL953:
	.loc 1 1200 13 view .LVU2285
	movq	%r14, (%rsp)
.LVL954:
	.loc 1 1201 3 is_stmt 1 view .LVU2286
	.loc 1 1201 15 view .LVU2287
	.loc 1 1201 3 is_stmt 0 view .LVU2288
	je	.L616
.LVL955:
	.p2align 4,,10
	.p2align 3
.L599:
	.loc 1 1202 5 is_stmt 1 view .LVU2289
	.loc 1 1202 7 is_stmt 0 view .LVU2290
	shrq	%r14
.LVL956:
	.loc 1 1201 29 is_stmt 1 view .LVU2291
	.loc 1 1201 30 is_stmt 0 view .LVU2292
	addl	$1, %eax
.LVL957:
	.loc 1 1201 15 is_stmt 1 view .LVU2293
	.loc 1 1201 3 is_stmt 0 view .LVU2294
	testb	$1, %r14b
	je	.L599
	movl	%eax, 20(%rsp)
.LVL958:
.L598:
	.loc 1 1204 3 is_stmt 1 view .LVU2295
	.loc 1 1205 3 view .LVU2296
.LBB532:
	.loc 1 1205 3 view .LVU2297
	.loc 1 1205 3 view .LVU2298
	.loc 1 1205 3 view .LVU2299
	movq	%rbp, %rax
	leaq	binvert_table(%rip), %rdx
	movq	%rbp, %rcx
.LBE532:
.LBB533:
.LBB534:
	.loc 1 1206 3 is_stmt 0 view .LVU2300
	xorl	%r15d, %r15d
.LBE534:
.LBE533:
.LBB539:
	.loc 1 1205 3 view .LVU2301
	shrq	%rax
	movl	$64, %esi
	andl	$127, %eax
	movzbl	(%rdx,%rax), %eax
.LVL959:
	.loc 1 1205 3 is_stmt 1 view .LVU2302
	.loc 1 1205 3 view .LVU2303
	leaq	(%rax,%rax), %rdx
	imulq	%rax, %rax
.LVL960:
	.loc 1 1205 3 is_stmt 0 view .LVU2304
	imulq	%rbp, %rax
	subq	%rax, %rdx
.LVL961:
	.loc 1 1205 3 is_stmt 1 view .LVU2305
	.loc 1 1205 3 view .LVU2306
	leaq	(%rdx,%rdx), %rax
	imulq	%rdx, %rdx
.LVL962:
	.loc 1 1205 3 is_stmt 0 view .LVU2307
	imulq	%rbp, %rdx
	subq	%rdx, %rax
.LVL963:
	.loc 1 1205 3 is_stmt 1 view .LVU2308
	.loc 1 1205 3 view .LVU2309
.LBE539:
.LBB540:
.LBB537:
	.loc 1 1206 3 is_stmt 0 view .LVU2310
	xorl	%edx, %edx
.LBE537:
.LBE540:
.LBB541:
	.loc 1 1205 3 view .LVU2311
	leaq	(%rax,%rax), %r13
	imulq	%rax, %rax
.LVL964:
	.loc 1 1205 3 view .LVU2312
	imulq	%rbp, %rax
	subq	%rax, %r13
.LVL965:
	.loc 1 1205 3 is_stmt 1 view .LVU2313
	.loc 1 1205 3 view .LVU2314
	.loc 1 1205 3 is_stmt 0 view .LVU2315
.LBE541:
	.loc 1 1205 3 is_stmt 1 view .LVU2316
	.loc 1 1206 3 view .LVU2317
.LBB542:
	.loc 1 1206 3 view .LVU2318
	.loc 1 1206 3 view .LVU2319
.LBB538:
	.loc 1 1206 3 view .LVU2320
	.loc 1 1206 3 view .LVU2321
.LBB535:
	.loc 1 1206 3 view .LVU2322
.LBE535:
	movl	$1, %eax
.LVL966:
	.p2align 4,,10
	.p2align 3
.L602:
.LBB536:
	.loc 1 1206 3 view .LVU2323
	.loc 1 1206 3 view .LVU2324
	movq	%rcx, %rdi
	shrq	%rdx
.LVL967:
	.loc 1 1206 3 is_stmt 0 view .LVU2325
	salq	$63, %rdi
	shrq	%rcx
.LVL968:
	.loc 1 1206 3 view .LVU2326
	orq	%rdi, %rdx
.LVL969:
	.loc 1 1206 3 is_stmt 1 view .LVU2327
	.loc 1 1206 3 view .LVU2328
	.loc 1 1206 3 view .LVU2329
	.loc 1 1206 3 view .LVU2330
	cmpq	%rax, %rcx
	jb	.L600
	.loc 1 1206 3 is_stmt 0 view .LVU2331
	jne	.L601
	cmpq	%r15, %rdx
	ja	.L601
.L600:
	.loc 1 1206 3 is_stmt 1 view .LVU2332
	.loc 1 1206 3 view .LVU2333
#APP
# 1206 "src/factor.c" 1
	subq %rdx,%r15
	sbbq %rcx,%rax
# 0 "" 2
.LVL970:
#NO_APP
.L601:
	.loc 1 1206 3 view .LVU2334
	.loc 1 1206 3 view .LVU2335
	subl	$1, %esi
.LVL971:
	.loc 1 1206 3 is_stmt 0 view .LVU2336
	jne	.L602
.LBE536:
	.loc 1 1206 3 is_stmt 1 view .LVU2337
.LVL972:
	.loc 1 1206 3 view .LVU2338
.LBE538:
	.loc 1 1206 3 view .LVU2339
.LBE542:
	.loc 1 1206 3 view .LVU2340
	.loc 1 1207 3 view .LVU2341
.LBB543:
	.loc 1 1207 3 view .LVU2342
	.loc 1 1207 3 view .LVU2343
	movq	%rbp, %rax
.LVL973:
	.loc 1 1207 3 is_stmt 0 view .LVU2344
	xorl	%ebx, %ebx
.LBE543:
	.loc 1 1210 8 view .LVU2345
	movl	20(%rsp), %r8d
	movq	%r15, %r9
.LBB544:
	.loc 1 1207 3 view .LVU2346
	subq	%r15, %rax
.LBE544:
	.loc 1 1210 8 view .LVU2347
	movq	%r14, %rcx
.LVL974:
	.loc 1 1210 8 view .LVU2348
	movq	%r13, %rsi
.LVL975:
	.loc 1 1210 8 view .LVU2349
	movq	%rbp, %rdi
.LBB545:
	.loc 1 1207 3 view .LVU2350
	cmpq	%r15, %rax
	seta	%bl
	negq	%rbx
	movq	%rbx, %rax
	leaq	(%r15,%r15), %rbx
	andq	%rbp, %rax
	subq	%rbp, %rbx
	addq	%rax, %rbx
.LVL976:
	.loc 1 1207 3 view .LVU2351
.LBE545:
	.loc 1 1207 3 is_stmt 1 view .LVU2352
	.loc 1 1210 3 view .LVU2353
	.loc 1 1210 8 is_stmt 0 view .LVU2354
	movq	%rbx, %rdx
.LVL977:
	.loc 1 1210 8 view .LVU2355
	call	millerrabin
.LVL978:
	movb	%al, 47(%rsp)
	.loc 1 1210 6 view .LVU2356
	testb	%al, %al
	je	.L603
	.loc 1 1213 3 is_stmt 1 view .LVU2357
	.loc 1 1216 7 view .LVU2358
	leaq	48(%rsp), %rsi
	xorl	%edi, %edi
	leaq	primes_diff(%rip), %r12
	movq	%rsi, 24(%rsp)
	movq	%rsi, %rdx
	movq	(%rsp), %rsi
	call	factor
.LVL979:
	.loc 1 1221 3 view .LVU2359
.LBB546:
	.loc 1 1221 8 view .LVU2360
	.loc 1 1221 28 view .LVU2361
	movq	24(%rsp), %rsi
	movq	%r14, 32(%rsp)
	movq	%r13, %r14
.LBB547:
	.loc 1 1226 47 is_stmt 0 view .LVU2362
	movzbl	298(%rsp), %eax
	movq	%r12, %r13
.LVL980:
	.loc 1 1226 47 view .LVU2363
	movl	%eax, 40(%rsp)
	subl	$1, %eax
	leaq	(%rsi,%rax,8), %rax
	movq	%rax, 8(%rsp)
.LBE547:
.LBE546:
	.loc 1 1204 13 view .LVU2364
	movl	$2, %eax
	movq	%rax, %r12
	movq	%rbx, %rax
	movq	%r15, %rbx
.LVL981:
	.loc 1 1204 13 view .LVU2365
	movq	%rax, %r15
.LVL982:
	.p2align 4,,10
	.p2align 3
.L604:
.LBB558:
.LBB548:
	.loc 1 1226 36 is_stmt 1 view .LVU2366
	.loc 1 1226 11 is_stmt 0 view .LVU2367
	movl	40(%rsp), %eax
	testl	%eax, %eax
	je	.L597
	.loc 1 1226 11 view .LVU2368
	movq	24(%rsp), %r11
.LVL983:
.L606:
	.loc 1 1228 15 is_stmt 1 view .LVU2369
	.loc 1 1229 19 is_stmt 0 view .LVU2370
	movq	(%rsp), %rax
	xorl	%edx, %edx
	movq	%rbx, %r8
	movq	%r14, %rcx
	movq	%r15, %rdi
	divq	16(%r11)
	movq	%rbp, %rdx
	movq	%rax, %rsi
	call	powm
.LVL984:
	.loc 1 1226 70 is_stmt 1 view .LVU2371
	.loc 1 1226 36 view .LVU2372
	.loc 1 1226 11 is_stmt 0 view .LVU2373
	cmpq	%r11, 8(%rsp)
	je	.L605
.LVL985:
	.loc 1 1226 11 view .LVU2374
	addq	$8, %r11
	.loc 1 1226 57 view .LVU2375
	cmpq	%rbx, %rax
	jne	.L606
	.p2align 4,,10
	.p2align 3
.L607:
.LVL986:
	.loc 1 1226 57 view .LVU2376
.LBE548:
	.loc 1 1241 7 is_stmt 1 view .LVU2377
	.loc 1 1241 23 is_stmt 0 view .LVU2378
	movzbl	0(%r13), %eax
	.loc 1 1241 9 view .LVU2379
	addq	%rax, %r12
.LVL987:
.LBB549:
	.loc 1 1247 9 is_stmt 1 view .LVU2380
	.loc 1 1248 9 view .LVU2381
	movq	%rbx, %rax
#APP
# 1248 "src/factor.c" 1
	mulq	%r12
# 0 "" 2
#NO_APP
	movq	%rax, %r15
.LVL988:
	.loc 1 1248 9 is_stmt 0 view .LVU2382
	movq	%rdx, %rax
.LVL989:
	.loc 1 1249 9 is_stmt 1 view .LVU2383
	.loc 1 1249 12 is_stmt 0 view .LVU2384
	testq	%rdx, %rdx
	jne	.L609
	.loc 1 1250 11 is_stmt 1 view .LVU2385
	.loc 1 1250 18 is_stmt 0 view .LVU2386
	movq	%r15, %rax
.LVL990:
	.loc 1 1250 18 view .LVU2387
	xorl	%edx, %edx
.LVL991:
	.loc 1 1250 18 view .LVU2388
	divq	%rbp
	movq	%rdx, %r15
.LVL992:
.L610:
.LBB550:
	.loc 1 1254 13 is_stmt 1 view .LVU2389
.LBE550:
.LBE549:
	.loc 1 1258 7 view .LVU2390
	.loc 1 1258 12 is_stmt 0 view .LVU2391
	movl	20(%rsp), %r8d
	movq	32(%rsp), %rcx
	movq	%rbx, %r9
	movq	%r15, %rdx
	movq	%r14, %rsi
	movq	%rbp, %rdi
	call	millerrabin
.LVL993:
	.loc 1 1258 10 view .LVU2392
	testb	%al, %al
	je	.L603
	.loc 1 1221 53 is_stmt 1 view .LVU2393
.LVL994:
	.loc 1 1221 28 view .LVU2394
	addq	$1, %r13
.LVL995:
	.loc 1 1221 3 is_stmt 0 view .LVU2395
	leaq	668+primes_diff(%rip), %rax
	cmpq	%r13, %rax
	jne	.L604
.LBE558:
	.loc 1 1262 3 is_stmt 1 view .LVU2396
	.loc 1 1262 16 is_stmt 0 view .LVU2397
	movl	$5, %edx
	leaq	.LC11(%rip), %rsi
	xorl	%edi, %edi
	call	dcgettext@PLT
.LVL996:
	.loc 1 1262 3 view .LVU2398
	xorl	%esi, %esi
	xorl	%edi, %edi
	.loc 1 1262 16 view .LVU2399
	movq	%rax, %rdx
	.loc 1 1262 3 view .LVU2400
	xorl	%eax, %eax
	call	error@PLT
.LVL997:
	.loc 1 1263 3 is_stmt 1 view .LVU2401
	call	abort@PLT
.LVL998:
	.p2align 4,,10
	.p2align 3
.L605:
.LBB559:
	.loc 1 1238 7 view .LVU2402
	.loc 1 1238 10 is_stmt 0 view .LVU2403
	cmpq	%rbx, %rax
	je	.L607
.LVL999:
	.p2align 4,,10
	.p2align 3
.L597:
	.loc 1 1238 10 view .LVU2404
.LBE559:
	.loc 1 1264 1 view .LVU2405
	movq	312(%rsp), %rax
	xorq	%fs:40, %rax
	jne	.L643
	movzbl	47(%rsp), %eax
	addq	$328, %rsp
	.cfi_remember_state
	.cfi_def_cfa_offset 56
	popq	%rbx
	.cfi_def_cfa_offset 48
	popq	%rbp
	.cfi_def_cfa_offset 40
.LVL1000:
	.loc 1 1264 1 view .LVU2406
	popq	%r12
	.cfi_def_cfa_offset 32
	popq	%r13
	.cfi_def_cfa_offset 24
	popq	%r14
	.cfi_def_cfa_offset 16
	popq	%r15
	.cfi_def_cfa_offset 8
	ret
.LVL1001:
	.p2align 4,,10
	.p2align 3
.L609:
	.cfi_restore_state
.LBB560:
.LBB556:
.LBB554:
	.loc 1 1253 13 is_stmt 1 view .LVU2407
	.loc 1 1254 13 view .LVU2408
.LBB551:
	.loc 1 1254 13 view .LVU2409
	.loc 1 1254 13 view .LVU2410
	cmpq	%rdx, %rbp
	jbe	.L644
	movq	%rbp, %rcx
.LVL1002:
	.loc 1 1254 13 is_stmt 0 view .LVU2411
	movl	$64, %esi
	xorl	%edx, %edx
.LVL1003:
	.p2align 4,,10
	.p2align 3
.L611:
.LBB552:
	.loc 1 1254 13 is_stmt 1 view .LVU2412
	.loc 1 1254 13 view .LVU2413
	movq	%rcx, %rdi
	shrq	%rdx
.LVL1004:
	.loc 1 1254 13 is_stmt 0 view .LVU2414
	salq	$63, %rdi
	shrq	%rcx
.LVL1005:
	.loc 1 1254 13 view .LVU2415
	orq	%rdi, %rdx
.LVL1006:
	.loc 1 1254 13 is_stmt 1 view .LVU2416
	.loc 1 1254 13 view .LVU2417
	.loc 1 1254 13 view .LVU2418
	.loc 1 1254 13 view .LVU2419
	cmpq	%rax, %rcx
	jb	.L612
	jne	.L613
	cmpq	%r15, %rdx
	ja	.L613
.L612:
	.loc 1 1254 13 view .LVU2420
	.loc 1 1254 13 view .LVU2421
#APP
# 1254 "src/factor.c" 1
	subq %rdx,%r15
	sbbq %rcx,%rax
# 0 "" 2
.LVL1007:
#NO_APP
.L613:
	.loc 1 1254 13 view .LVU2422
	.loc 1 1254 13 view .LVU2423
	subl	$1, %esi
.LVL1008:
	.loc 1 1254 13 is_stmt 0 view .LVU2424
	jne	.L611
	jmp	.L610
.LVL1009:
.L603:
	.loc 1 1254 13 view .LVU2425
.LBE552:
.LBE551:
.LBE554:
.LBE556:
.LBE560:
	.loc 1 1211 12 view .LVU2426
	movb	$0, 47(%rsp)
	jmp	.L597
.LVL1010:
.L616:
	.loc 1 1201 3 view .LVU2427
	movl	$0, 20(%rsp)
	movq	(%rsp), %r14
.LVL1011:
	.loc 1 1201 3 view .LVU2428
	jmp	.L598
.LVL1012:
.L643:
	.loc 1 1264 1 view .LVU2429
	call	__stack_chk_fail@PLT
.LVL1013:
.L644:
.LBB561:
.LBB557:
.LBB555:
.LBB553:
	.loc 1 1254 13 is_stmt 1 view .LVU2430
	leaq	__PRETTY_FUNCTION__.8105(%rip), %rcx
.LVL1014:
	.loc 1 1254 13 is_stmt 0 view .LVU2431
	movl	$1254, %edx
	leaq	.LC0(%rip), %rsi
	leaq	.LC16(%rip), %rdi
	call	__assert_fail@PLT
.LVL1015:
	.loc 1 1254 13 view .LVU2432
.LBE553:
.LBE555:
.LBE557:
.LBE561:
	.cfi_endproc
.LFE178:
	.size	prime_p.part.0, .-prime_p.part.0
	.p2align 4
	.type	prime2_p.part.0, @function
prime2_p.part.0:
.LVL1016:
.LFB179:
	.loc 1 1267 1 is_stmt 1 view -0
	.cfi_startproc
	.loc 1 1267 1 is_stmt 0 view .LVU2434
	pushq	%r15
	.cfi_def_cfa_offset 16
	.cfi_offset 15, -16
	movq	%rsi, %r15
	pushq	%r14
	.cfi_def_cfa_offset 24
	.cfi_offset 14, -24
	pushq	%r13
	.cfi_def_cfa_offset 32
	.cfi_offset 13, -32
	pushq	%r12
	.cfi_def_cfa_offset 40
	.cfi_offset 12, -40
	pushq	%rbp
	.cfi_def_cfa_offset 48
	.cfi_offset 6, -48
	pushq	%rbx
	.cfi_def_cfa_offset 56
	.cfi_offset 3, -56
	movq	%rdi, %rbx
	subq	$472, %rsp
	.cfi_def_cfa_offset 528
	.loc 1 1267 1 view .LVU2435
	movq	%fs:40, %rax
	movq	%rax, 456(%rsp)
	xorl	%eax, %eax
	.loc 1 1280 3 is_stmt 1 view .LVU2436
	.loc 1 1280 21 is_stmt 0 view .LVU2437
	xorl	%eax, %eax
	testq	%rsi, %rsi
	sete	%al
	.loc 1 1280 15 view .LVU2438
	subq	%rax, %rdi
.LVL1017:
	.loc 1 1280 15 view .LVU2439
	movq	%rdi, 40(%rsp)
	movq	%rdi, %rax
.LVL1018:
	.loc 1 1281 3 is_stmt 1 view .LVU2440
	.loc 1 1282 3 view .LVU2441
	.loc 1 1282 6 is_stmt 0 view .LVU2442
	movq	%rsi, %rdi
	subq	$1, %rdi
.LVL1019:
	.loc 1 1282 6 view .LVU2443
	movq	%rdi, 32(%rsp)
	jne	.L646
	.loc 1 1284 7 is_stmt 1 view .LVU2444
	.loc 1 1284 7 view .LVU2445
	.loc 1 1284 7 view .LVU2446
#APP
# 1284 "src/factor.c" 1
	bsf	%rax, %rcx
# 0 "" 2
.LVL1020:
	.loc 1 1284 7 view .LVU2447
	.loc 1 1286 7 view .LVU2448
	.loc 1 1287 12 is_stmt 0 view .LVU2449
#NO_APP
	movq	$0, 104(%rsp)
	.loc 1 1286 21 view .LVU2450
	shrq	%cl, %rax
.LVL1021:
	.loc 1 1286 21 view .LVU2451
	movq	%rax, 96(%rsp)
	.loc 1 1287 7 is_stmt 1 view .LVU2452
	.loc 1 1288 7 view .LVU2453
	.loc 1 1288 9 is_stmt 0 view .LVU2454
	leal	64(%rcx), %eax
	movl	%eax, 88(%rsp)
.LVL1022:
.L647:
	.loc 1 1293 7 is_stmt 1 view .LVU2455
	.loc 1 1296 3 view .LVU2456
	.loc 1 1297 3 view .LVU2457
.LBB562:
	.loc 1 1297 3 view .LVU2458
	.loc 1 1297 3 view .LVU2459
	.loc 1 1297 3 view .LVU2460
	movq	%r15, %rax
	leaq	binvert_table(%rip), %rdi
	shrq	%rax
	andl	$127, %eax
	movzbl	(%rdi,%rax), %eax
.LVL1023:
	.loc 1 1297 3 view .LVU2461
	.loc 1 1297 3 view .LVU2462
	leaq	(%rax,%rax), %rdx
	imulq	%rax, %rax
.LVL1024:
	.loc 1 1297 3 is_stmt 0 view .LVU2463
	imulq	%r15, %rax
	subq	%rax, %rdx
.LVL1025:
	.loc 1 1297 3 is_stmt 1 view .LVU2464
	.loc 1 1297 3 view .LVU2465
	leaq	(%rdx,%rdx), %rax
	imulq	%rdx, %rdx
.LVL1026:
	.loc 1 1297 3 is_stmt 0 view .LVU2466
	imulq	%r15, %rdx
	subq	%rdx, %rax
.LVL1027:
	.loc 1 1297 3 is_stmt 1 view .LVU2467
	.loc 1 1297 3 view .LVU2468
	leaq	(%rax,%rax), %rbp
	imulq	%rax, %rax
.LVL1028:
	.loc 1 1297 3 is_stmt 0 view .LVU2469
	imulq	%r15, %rax
	subq	%rax, %rbp
.LVL1029:
	.loc 1 1297 3 is_stmt 1 view .LVU2470
	.loc 1 1297 3 view .LVU2471
	.loc 1 1297 3 is_stmt 0 view .LVU2472
.LBE562:
	.loc 1 1297 3 is_stmt 1 view .LVU2473
	.loc 1 1298 3 view .LVU2474
.LBB563:
	.loc 1 1298 3 view .LVU2475
	.loc 1 1298 3 view .LVU2476
	cmpq	$2, %rbx
	sbbq	%rcx, %rcx
	xorl	%edx, %edx
	andl	$64, %ecx
	addq	$63, %rcx
	cmpq	$2, %rbx
	setb	%dl
	sbbq	%rax, %rax
	addq	$1, %rax
	.p2align 4,,10
	.p2align 3
.L651:
.LVL1030:
	.loc 1 1298 3 view .LVU2477
	.loc 1 1298 3 view .LVU2478
	movq	%rdx, %rsi
	addq	%rax, %rax
.LVL1031:
	.loc 1 1298 3 is_stmt 0 view .LVU2479
	addq	%rdx, %rdx
.LVL1032:
	.loc 1 1298 3 view .LVU2480
	shrq	$63, %rsi
.LVL1033:
	.loc 1 1298 3 view .LVU2481
	orq	%rsi, %rax
.LVL1034:
	.loc 1 1298 3 is_stmt 1 view .LVU2482
	.loc 1 1298 3 view .LVU2483
	.loc 1 1298 3 view .LVU2484
	cmpq	%rax, %rbx
	jb	.L649
	.loc 1 1298 3 is_stmt 0 view .LVU2485
	jne	.L650
	cmpq	%rdx, %r15
	ja	.L650
.L649:
	.loc 1 1298 3 is_stmt 1 view .LVU2486
#APP
# 1298 "src/factor.c" 1
	subq %r15,%rdx
	sbbq %rbx,%rax
# 0 "" 2
.LVL1035:
#NO_APP
.L650:
	.loc 1 1298 3 view .LVU2487
	subq	$1, %rcx
.LVL1036:
	.loc 1 1298 3 is_stmt 0 view .LVU2488
	cmpq	$-1, %rcx
	jne	.L651
	.loc 1 1298 3 is_stmt 1 view .LVU2489
	movq	%rax, 136(%rsp)
	.loc 1 1298 3 view .LVU2490
.LBE563:
	.loc 1 1299 3 is_stmt 0 view .LVU2491
	movq	%rdx, %rcx
.LVL1037:
.LBB564:
	.loc 1 1298 3 view .LVU2492
	movq	%rdx, 128(%rsp)
.LBE564:
	.loc 1 1298 3 is_stmt 1 view .LVU2493
	.loc 1 1299 3 view .LVU2494
	.loc 1 1299 3 view .LVU2495
#APP
# 1299 "src/factor.c" 1
	addq %rdx,%rcx
	adcq %rax,%rax
# 0 "" 2
.LVL1038:
	.loc 1 1299 3 is_stmt 0 view .LVU2496
#NO_APP
	movq	%rax, 120(%rsp)
	movq	%rcx, 112(%rsp)
	.loc 1 1299 3 is_stmt 1 view .LVU2497
	cmpq	%rax, %rbx
	jb	.L653
	je	.L705
.L654:
	.loc 1 1299 3 view .LVU2498
	.loc 1 1302 3 view .LVU2499
	.loc 1 1305 8 is_stmt 0 view .LVU2500
	movl	88(%rsp), %r8d
	leaq	112(%rsp), %r12
	movq	%rbp, %rsi
	leaq	128(%rsp), %r13
	leaq	144(%rsp), %r14
	leaq	96(%rsp), %rcx
	movq	%r13, %r9
	movq	%r12, %rdx
.LVL1039:
	.loc 1 1305 8 view .LVU2501
	movq	%r14, %rdi
	.loc 1 1302 9 view .LVU2502
	movq	%r15, 144(%rsp)
	.loc 1 1303 3 is_stmt 1 view .LVU2503
	.loc 1 1303 9 is_stmt 0 view .LVU2504
	movq	%rbx, 152(%rsp)
	.loc 1 1305 3 is_stmt 1 view .LVU2505
	.loc 1 1305 8 is_stmt 0 view .LVU2506
	movq	%rcx, 48(%rsp)
	call	millerrabin2
.LVL1040:
	.loc 1 1305 8 view .LVU2507
	movb	%al, 95(%rsp)
	.loc 1 1305 6 view .LVU2508
	testb	%al, %al
	je	.L645
	.loc 1 1308 3 is_stmt 1 view .LVU2509
	.loc 1 1311 7 view .LVU2510
	leaq	192(%rsp), %rax
	movq	40(%rsp), %rdi
	movq	32(%rsp), %rsi
	movq	%rax, %rdx
	movq	%rax, 24(%rsp)
	call	factor
.LVL1041:
.LBB565:
	.loc 1 1316 28 view .LVU2511
.LBB566:
.LBB567:
	.loc 1 1339 17 is_stmt 0 view .LVU2512
	movq	40(%rsp), %rdi
	movq	32(%rsp), %rax
	movq	%r13, %r9
	movq	%r12, %r13
	movq	%rbp, %r12
	movq	%rdi, %rdx
	shrq	%rax
	salq	$63, %rdx
	shrq	%rdi
	orq	%rax, %rdx
	leaq	primes_diff(%rip), %rax
	movq	%rdi, 64(%rsp)
	movl	$2, %edi
	movq	%rax, (%rsp)
	leaq	160(%rsp), %rax
	movq	%rdi, %rbp
.LVL1042:
	.loc 1 1339 17 view .LVU2513
	movq	%rdx, 56(%rsp)
	movq	%rax, 16(%rsp)
.LVL1043:
	.p2align 4,,10
	.p2align 3
.L676:
	.loc 1 1339 17 view .LVU2514
.LBE567:
	.loc 1 1318 7 is_stmt 1 view .LVU2515
	.loc 1 1319 7 view .LVU2516
	.loc 1 1321 7 view .LVU2517
	.loc 1 1323 11 view .LVU2518
	.loc 1 1324 11 view .LVU2519
	.loc 1 1324 14 is_stmt 0 view .LVU2520
	cmpq	$0, 200(%rsp)
	jne	.L706
.LVL1044:
.LBB574:
	.loc 1 1333 36 is_stmt 1 view .LVU2521
	.loc 1 1333 11 is_stmt 0 view .LVU2522
	cmpb	$0, 442(%rsp)
	je	.L645
	leaq	184(%rsp), %rax
	movq	%rax, 8(%rsp)
.LVL1045:
.L666:
	.loc 1 1339 17 view .LVU2523
	movl	$1, %r11d
	movq	%rbp, 72(%rsp)
	movq	%r13, %rbp
.LVL1046:
	.loc 1 1339 17 view .LVU2524
	movq	%r9, %r13
	movq	%rbx, 80(%rsp)
	movq	%r11, %rbx
.LVL1047:
.L671:
	.loc 1 1338 15 is_stmt 1 view .LVU2525
	.loc 1 1338 28 is_stmt 0 view .LVU2526
	movq	24(%rsp), %rax
	movq	8(%rax,%rbx,8), %rdx
	.loc 1 1338 18 view .LVU2527
	cmpq	$2, %rdx
	je	.L707
.LVL1048:
.L660:
	.loc 1 1341 17 is_stmt 1 view .LVU2528
.LBB568:
	.loc 1 1341 17 view .LVU2529
	.loc 1 1341 17 view .LVU2530
.LBB569:
	.loc 1 1341 17 view .LVU2531
	.loc 1 1341 17 view .LVU2532
	.loc 1 1341 17 view .LVU2533
	movq	%rdx, %rax
	leaq	binvert_table(%rip), %rdi
.LBE569:
	movq	40(%rsp), %rsi
.LBB570:
	shrq	%rax
	andl	$127, %eax
	movzbl	(%rdi,%rax), %eax
.LVL1049:
	.loc 1 1341 17 view .LVU2534
	.loc 1 1341 17 view .LVU2535
.LBE570:
	movq	32(%rsp), %rdi
.LBB571:
	leaq	(%rax,%rax), %rcx
	imulq	%rax, %rax
.LVL1050:
	.loc 1 1341 17 is_stmt 0 view .LVU2536
	imulq	%rdx, %rax
	subq	%rax, %rcx
.LVL1051:
	.loc 1 1341 17 is_stmt 1 view .LVU2537
	.loc 1 1341 17 view .LVU2538
	leaq	(%rcx,%rcx), %rax
	imulq	%rcx, %rcx
.LVL1052:
	.loc 1 1341 17 is_stmt 0 view .LVU2539
	imulq	%rdx, %rcx
	subq	%rcx, %rax
.LVL1053:
	.loc 1 1341 17 is_stmt 1 view .LVU2540
	.loc 1 1341 17 view .LVU2541
	leaq	(%rax,%rax), %rcx
	imulq	%rax, %rax
.LVL1054:
	.loc 1 1341 17 is_stmt 0 view .LVU2542
	imulq	%rdx, %rax
	subq	%rax, %rcx
.LVL1055:
	.loc 1 1341 17 is_stmt 1 view .LVU2543
	.loc 1 1341 17 view .LVU2544
	.loc 1 1341 17 is_stmt 0 view .LVU2545
.LBE571:
	.loc 1 1341 17 is_stmt 1 view .LVU2546
	.loc 1 1341 17 view .LVU2547
	imulq	%rcx, %rdi
.LVL1056:
	.loc 1 1341 17 view .LVU2548
	cmpq	%rdx, %rsi
	jb	.L662
.LBB572:
	.loc 1 1341 17 view .LVU2549
	.loc 1 1341 17 view .LVU2550
	movq	%rdi, %rax
	movq	%rdi, 160(%rsp)
#APP
# 1341 "src/factor.c" 1
	mulq	%rdx
# 0 "" 2
.LVL1057:
	.loc 1 1341 17 view .LVU2551
#NO_APP
	movq	%rsi, %rax
	subq	%rdx, %rax
	imulq	%rax, %rcx
.LVL1058:
	.loc 1 1341 17 is_stmt 0 view .LVU2552
	movq	%rcx, 168(%rsp)
	.loc 1 1341 17 is_stmt 1 view .LVU2553
.LVL1059:
.L661:
	.loc 1 1341 17 is_stmt 0 view .LVU2554
.LBE572:
.LBE568:
	.loc 1 1341 17 is_stmt 1 view .LVU2555
	.loc 1 1342 15 view .LVU2556
	.loc 1 1342 22 is_stmt 0 view .LVU2557
	movq	16(%rsp), %rdx
	movq	8(%rsp), %rdi
	movq	%r13, %r9
	movq	%r12, %r8
	movq	%r14, %rcx
	movq	%rbp, %rsi
	call	powm2
.LVL1060:
	.loc 1 1342 20 view .LVU2558
	movq	%rax, 176(%rsp)
	.loc 1 1343 15 is_stmt 1 view .LVU2559
	.loc 1 1343 42 is_stmt 0 view .LVU2560
	cmpq	128(%rsp), %rax
	je	.L708
.LVL1061:
	.loc 1 1333 70 is_stmt 1 view .LVU2561
	.loc 1 1333 36 view .LVU2562
	.loc 1 1333 47 is_stmt 0 view .LVU2563
	movzbl	442(%rsp), %eax
	.loc 1 1333 11 view .LVU2564
	cmpl	%ebx, %eax
	jbe	.L645
	.loc 1 1338 28 view .LVU2565
	movq	24(%rsp), %rax
	addq	$1, %rbx
.LVL1062:
	.loc 1 1338 15 is_stmt 1 view .LVU2566
	.loc 1 1338 28 is_stmt 0 view .LVU2567
	movq	8(%rax,%rbx,8), %rdx
	.loc 1 1338 18 view .LVU2568
	cmpq	$2, %rdx
	jne	.L660
.LVL1063:
.L707:
	.loc 1 1339 17 is_stmt 1 view .LVU2569
	.loc 1 1339 17 view .LVU2570
	movq	56(%rsp), %rax
	movq	%rax, 160(%rsp)
	.loc 1 1339 17 view .LVU2571
	movq	64(%rsp), %rax
	movq	%rax, 168(%rsp)
	.loc 1 1339 17 view .LVU2572
	jmp	.L661
	.p2align 4,,10
	.p2align 3
.L708:
	.loc 1 1343 46 is_stmt 0 view .LVU2573
	movq	184(%rsp), %rdx
	.loc 1 1343 56 view .LVU2574
	movq	136(%rsp), %rax
	.loc 1 1333 47 view .LVU2575
	movzbl	442(%rsp), %edi
	.loc 1 1343 42 view .LVU2576
	cmpq	%rax, %rdx
	setne	%cl
.LVL1064:
	.loc 1 1333 70 is_stmt 1 view .LVU2577
	.loc 1 1333 36 view .LVU2578
	.loc 1 1333 11 is_stmt 0 view .LVU2579
	cmpl	%ebx, %edi
	jbe	.L709
	addq	$1, %rbx
	.loc 1 1333 57 view .LVU2580
	cmpq	%rax, %rdx
	jne	.L671
	movq	%r13, %r9
	movq	80(%rsp), %rbx
	movq	%rbp, %r13
	movq	72(%rsp), %rbp
.LVL1065:
	.p2align 4,,10
	.p2align 3
.L670:
	.loc 1 1333 57 view .LVU2581
.LBE574:
	.loc 1 1355 7 is_stmt 1 view .LVU2582
	.loc 1 1355 23 is_stmt 0 view .LVU2583
	movq	(%rsp), %rax
	movzbl	(%rax), %eax
	.loc 1 1355 9 view .LVU2584
	addq	%rax, %rbp
.LVL1066:
	.loc 1 1356 7 is_stmt 1 view .LVU2585
.LBB575:
	.loc 1 1356 7 view .LVU2586
	.loc 1 1356 7 view .LVU2587
	xorl	%eax, %eax
	movq	%rax, %rdx
	cmpq	%rbp, %rbx
	cmovbe	%rbp, %rdx
	cmpq	%rbx, %rbp
	sbbq	%rcx, %rcx
	andq	$-64, %rcx
	addq	$127, %rcx
	cmpq	%rbp, %rbx
	cmova	%rbp, %rax
	.p2align 4,,10
	.p2align 3
.L674:
.LVL1067:
	.loc 1 1356 7 view .LVU2588
	.loc 1 1356 7 view .LVU2589
	movq	%rdx, %rsi
	addq	%rax, %rax
.LVL1068:
	.loc 1 1356 7 is_stmt 0 view .LVU2590
	addq	%rdx, %rdx
.LVL1069:
	.loc 1 1356 7 view .LVU2591
	shrq	$63, %rsi
.LVL1070:
	.loc 1 1356 7 view .LVU2592
	orq	%rsi, %rax
.LVL1071:
	.loc 1 1356 7 is_stmt 1 view .LVU2593
	.loc 1 1356 7 view .LVU2594
	.loc 1 1356 7 view .LVU2595
	cmpq	%rax, %rbx
	jb	.L672
	jne	.L673
	cmpq	%rdx, %r15
	ja	.L673
.L672:
	.loc 1 1356 7 view .LVU2596
#APP
# 1356 "src/factor.c" 1
	subq %r15,%rdx
	sbbq %rbx,%rax
# 0 "" 2
.LVL1072:
#NO_APP
.L673:
	.loc 1 1356 7 view .LVU2597
	subq	$1, %rcx
.LVL1073:
	.loc 1 1356 7 is_stmt 0 view .LVU2598
	cmpq	$-1, %rcx
	jne	.L674
	.loc 1 1356 7 is_stmt 1 view .LVU2599
.LBE575:
	.loc 1 1358 12 is_stmt 0 view .LVU2600
	movl	88(%rsp), %r8d
	movq	48(%rsp), %rcx
.LVL1074:
	.loc 1 1358 12 view .LVU2601
	movq	%r12, %rsi
	movq	%r14, %rdi
.LBB576:
	.loc 1 1356 7 view .LVU2602
	movq	%rdx, 112(%rsp)
.LBE576:
	.loc 1 1358 12 view .LVU2603
	movq	%r13, %rdx
.LVL1075:
.LBB577:
	.loc 1 1356 7 view .LVU2604
	movq	%rax, 120(%rsp)
	.loc 1 1356 7 is_stmt 1 view .LVU2605
.LBE577:
	.loc 1 1356 7 view .LVU2606
	.loc 1 1358 7 view .LVU2607
	.loc 1 1358 12 is_stmt 0 view .LVU2608
	movq	%r9, 8(%rsp)
	call	millerrabin2
.LVL1076:
	.loc 1 1358 10 view .LVU2609
	testb	%al, %al
	je	.L682
.LBE566:
	.loc 1 1316 53 is_stmt 1 view .LVU2610
.LVL1077:
	.loc 1 1316 28 view .LVU2611
	addq	$1, (%rsp)
.LVL1078:
	.loc 1 1316 28 is_stmt 0 view .LVU2612
	movq	(%rsp), %rax
	.loc 1 1316 3 view .LVU2613
	leaq	668+primes_diff(%rip), %rdi
	movq	8(%rsp), %r9
	cmpq	%rax, %rdi
	jne	.L676
.LBE565:
	.loc 1 1362 3 is_stmt 1 view .LVU2614
	.loc 1 1362 16 is_stmt 0 view .LVU2615
	movl	$5, %edx
	leaq	.LC11(%rip), %rsi
	xorl	%edi, %edi
	call	dcgettext@PLT
.LVL1079:
	.loc 1 1362 3 view .LVU2616
	xorl	%esi, %esi
	xorl	%edi, %edi
	.loc 1 1362 16 view .LVU2617
	movq	%rax, %rdx
	.loc 1 1362 3 view .LVU2618
	xorl	%eax, %eax
	call	error@PLT
.LVL1080:
	.loc 1 1363 3 is_stmt 1 view .LVU2619
	call	abort@PLT
.LVL1081:
	.p2align 4,,10
	.p2align 3
.L662:
.LBB592:
.LBB589:
.LBB578:
.LBB573:
	.loc 1 1341 17 view .LVU2620
	movq	%rdi, 160(%rsp)
	.loc 1 1341 17 view .LVU2621
	movq	$0, 168(%rsp)
	jmp	.L661
.LVL1082:
.L682:
	.loc 1 1341 17 is_stmt 0 view .LVU2622
.LBE573:
.LBE578:
	.loc 1 1359 16 view .LVU2623
	movb	$0, 95(%rsp)
.LVL1083:
.L645:
	.loc 1 1359 16 view .LVU2624
.LBE589:
.LBE592:
	.loc 1 1364 1 view .LVU2625
	movq	456(%rsp), %rax
	xorq	%fs:40, %rax
	jne	.L710
	movzbl	95(%rsp), %eax
	addq	$472, %rsp
	.cfi_remember_state
	.cfi_def_cfa_offset 56
	popq	%rbx
	.cfi_def_cfa_offset 48
	popq	%rbp
	.cfi_def_cfa_offset 40
	popq	%r12
	.cfi_def_cfa_offset 32
	popq	%r13
	.cfi_def_cfa_offset 24
	popq	%r14
	.cfi_def_cfa_offset 16
	popq	%r15
	.cfi_def_cfa_offset 8
.LVL1084:
	.loc 1 1364 1 view .LVU2626
	ret
.LVL1085:
	.p2align 4,,10
	.p2align 3
.L709:
	.cfi_restore_state
	.loc 1 1364 1 view .LVU2627
	movq	%r13, %r9
	movq	80(%rsp), %rbx
	movq	%rbp, %r13
	movq	72(%rsp), %rbp
.LVL1086:
.L665:
.LBB593:
.LBB590:
	.loc 1 1352 7 is_stmt 1 view .LVU2628
	.loc 1 1352 10 is_stmt 0 view .LVU2629
	testb	%cl, %cl
	je	.L670
	jmp	.L645
.LVL1087:
	.p2align 4,,10
	.p2align 3
.L706:
.LBB579:
	.loc 1 1326 15 is_stmt 1 view .LVU2630
	.loc 1 1327 15 view .LVU2631
.LBB580:
	.loc 1 1327 15 view .LVU2632
	movq	192(%rsp), %rcx
.LVL1088:
	.loc 1 1327 15 view .LVU2633
	.loc 1 1327 15 view .LVU2634
	leaq	binvert_table(%rip), %rdi
.LBE580:
	.loc 1 1330 22 is_stmt 0 view .LVU2635
	movq	%r12, %r8
	movq	%r13, %rsi
	movq	%r9, 72(%rsp)
	.loc 1 1329 20 view .LVU2636
	movq	$0, 168(%rsp)
.LBB581:
	.loc 1 1327 15 view .LVU2637
	movq	%rcx, %rax
	shrq	%rax
	andl	$127, %eax
	movzbl	(%rdi,%rax), %eax
.LVL1089:
	.loc 1 1327 15 is_stmt 1 view .LVU2638
	.loc 1 1327 15 view .LVU2639
.LBE581:
	.loc 1 1330 22 is_stmt 0 view .LVU2640
	leaq	184(%rsp), %rdi
	movq	%rdi, 8(%rsp)
.LBB582:
	.loc 1 1327 15 view .LVU2641
	leaq	(%rax,%rax), %rdx
	imulq	%rax, %rax
.LVL1090:
	.loc 1 1327 15 view .LVU2642
	imulq	%rcx, %rax
	subq	%rax, %rdx
.LVL1091:
	.loc 1 1327 15 is_stmt 1 view .LVU2643
	.loc 1 1327 15 view .LVU2644
	leaq	(%rdx,%rdx), %rax
	imulq	%rdx, %rdx
.LVL1092:
	.loc 1 1327 15 is_stmt 0 view .LVU2645
	imulq	%rcx, %rdx
	subq	%rdx, %rax
.LVL1093:
	.loc 1 1327 15 is_stmt 1 view .LVU2646
	.loc 1 1327 15 view .LVU2647
	leaq	(%rax,%rax), %rdx
	imulq	%rax, %rax
.LVL1094:
	.loc 1 1327 15 is_stmt 0 view .LVU2648
	imulq	%rcx, %rax
.LVL1095:
	.loc 1 1327 15 is_stmt 1 view .LVU2649
	.loc 1 1327 15 view .LVU2650
	.loc 1 1327 15 is_stmt 0 view .LVU2651
.LBE582:
	.loc 1 1327 15 is_stmt 1 view .LVU2652
	.loc 1 1328 15 view .LVU2653
	.loc 1 1330 22 is_stmt 0 view .LVU2654
	movq	%r14, %rcx
.LVL1096:
.LBB583:
	.loc 1 1327 15 view .LVU2655
	subq	%rax, %rdx
.LVL1097:
	.loc 1 1327 15 view .LVU2656
.LBE583:
	.loc 1 1328 25 view .LVU2657
	movq	32(%rsp), %rax
	imulq	%rdx, %rax
	.loc 1 1330 22 view .LVU2658
	movq	16(%rsp), %rdx
.LVL1098:
	.loc 1 1328 20 view .LVU2659
	movq	%rax, 160(%rsp)
	.loc 1 1329 15 is_stmt 1 view .LVU2660
	.loc 1 1330 15 view .LVU2661
	.loc 1 1330 22 is_stmt 0 view .LVU2662
	call	powm2
.LVL1099:
	.loc 1 1331 42 view .LVU2663
	cmpq	128(%rsp), %rax
	movq	72(%rsp), %r9
	.loc 1 1330 20 view .LVU2664
	movq	%rax, 176(%rsp)
	.loc 1 1331 15 is_stmt 1 view .LVU2665
	.loc 1 1331 42 is_stmt 0 view .LVU2666
	je	.L711
.LVL1100:
	.loc 1 1331 42 view .LVU2667
.LBE579:
.LBB584:
	.loc 1 1333 36 is_stmt 1 view .LVU2668
	.loc 1 1333 11 is_stmt 0 view .LVU2669
	cmpb	$0, 442(%rsp)
	jne	.L666
	jmp	.L645
.LVL1101:
.L705:
	.loc 1 1333 11 view .LVU2670
.LBE584:
.LBE590:
.LBE593:
	.loc 1 1299 3 view .LVU2671
	cmpq	%rcx, %r15
	ja	.L654
.L653:
	.loc 1 1299 3 is_stmt 1 view .LVU2672
#APP
# 1299 "src/factor.c" 1
	subq %r15,%rcx
	sbbq %rbx,%rax
# 0 "" 2
#NO_APP
	movq	%rax, 120(%rsp)
	movq	%rcx, 112(%rsp)
	jmp	.L654
.LVL1102:
.L646:
	.loc 1 1292 7 view .LVU2673
	.loc 1 1292 7 view .LVU2674
	.loc 1 1292 7 view .LVU2675
	.loc 1 1293 7 is_stmt 0 view .LVU2676
	movq	40(%rsp), %rsi
.LVL1103:
	.loc 1 1293 7 view .LVU2677
	movl	$64, %ecx
	.loc 1 1292 7 view .LVU2678
	movq	32(%rsp), %rdx
#APP
# 1292 "src/factor.c" 1
	bsf	%rdx, %rax
# 0 "" 2
.LVL1104:
	.loc 1 1293 7 view .LVU2679
#NO_APP
	subl	%eax, %ecx
	.loc 1 1292 7 view .LVU2680
	movl	%eax, %edi
.LVL1105:
	.loc 1 1292 7 view .LVU2681
	movl	%eax, 88(%rsp)
.LVL1106:
	.loc 1 1292 7 is_stmt 1 view .LVU2682
	.loc 1 1293 7 view .LVU2683
	.loc 1 1293 7 view .LVU2684
	movq	%rsi, %rax
.LVL1107:
	.loc 1 1293 7 is_stmt 0 view .LVU2685
	salq	%cl, %rax
	movl	%edi, %ecx
	shrq	%cl, %rdx
	orq	%rdx, %rax
	movq	%rax, 96(%rsp)
	.loc 1 1293 7 is_stmt 1 view .LVU2686
	movq	%rsi, %rax
	shrq	%cl, %rax
	movq	%rax, 104(%rsp)
	jmp	.L647
.LVL1108:
.L711:
.LBB594:
.LBB591:
.LBB585:
	.loc 1 1333 11 is_stmt 0 view .LVU2687
	cmpb	$0, 442(%rsp)
.LBE585:
.LBB586:
	.loc 1 1331 46 view .LVU2688
	movq	184(%rsp), %rdx
	.loc 1 1331 56 view .LVU2689
	movq	136(%rsp), %rax
.LVL1109:
	.loc 1 1331 56 view .LVU2690
.LBE586:
.LBB587:
	.loc 1 1333 36 is_stmt 1 view .LVU2691
	.loc 1 1333 11 is_stmt 0 view .LVU2692
	je	.L712
	.loc 1 1333 57 view .LVU2693
	cmpq	%rax, %rdx
	je	.L670
	jmp	.L666
.L712:
.LBE587:
.LBB588:
	.loc 1 1331 42 view .LVU2694
	cmpq	%rax, %rdx
	setne	%cl
	jmp	.L665
.LVL1110:
.L710:
	.loc 1 1331 42 view .LVU2695
.LBE588:
.LBE591:
.LBE594:
	.loc 1 1364 1 view .LVU2696
	call	__stack_chk_fail@PLT
.LVL1111:
	.cfi_endproc
.LFE179:
	.size	prime2_p.part.0, .-prime2_p.part.0
	.p2align 4
	.type	prime2_p, @function
prime2_p:
.LVL1112:
.LFB156:
	.loc 1 1268 1 is_stmt 1 view -0
	.cfi_startproc
	.loc 1 1269 3 view .LVU2698
	.loc 1 1270 3 view .LVU2699
	.loc 1 1271 3 view .LVU2700
	.loc 1 1272 3 view .LVU2701
	.loc 1 1273 3 view .LVU2702
	.loc 1 1274 3 view .LVU2703
	.loc 1 1275 3 view .LVU2704
	.loc 1 1277 3 view .LVU2705
	.loc 1 1277 6 is_stmt 0 view .LVU2706
	testq	%rdi, %rdi
	je	.L718
	jmp	prime2_p.part.0
.LVL1113:
	.p2align 4,,10
	.p2align 3
.L718:
	.loc 1 1278 5 is_stmt 1 view .LVU2707
.LBB595:
.LBI595:
	.loc 1 1185 1 view .LVU2708
.LBB596:
	.loc 1 1187 3 view .LVU2709
	.loc 1 1188 3 view .LVU2710
	.loc 1 1189 3 view .LVU2711
	.loc 1 1190 3 view .LVU2712
	.loc 1 1192 3 view .LVU2713
	.loc 1 1192 6 is_stmt 0 view .LVU2714
	cmpq	$1, %rsi
	jbe	.L716
	.loc 1 1196 3 is_stmt 1 view .LVU2715
	.loc 1 1196 6 is_stmt 0 view .LVU2716
	cmpq	$25030008, %rsi
	jbe	.L717
	movq	%rsi, %rdi
.LVL1114:
	.loc 1 1196 6 view .LVU2717
	jmp	prime_p.part.0
.LVL1115:
	.p2align 4,,10
	.p2align 3
.L717:
	.loc 1 1197 12 view .LVU2718
	movl	$1, %eax
.LVL1116:
	.loc 1 1197 12 view .LVU2719
.LBE596:
.LBE595:
	.loc 1 1364 1 view .LVU2720
	ret
.LVL1117:
	.p2align 4,,10
	.p2align 3
.L716:
.LBB598:
.LBB597:
	.loc 1 1193 12 view .LVU2721
	xorl	%eax, %eax
	ret
.LBE597:
.LBE598:
	.cfi_endproc
.LFE156:
	.size	prime2_p, .-prime2_p
	.section	.rodata.str1.8
	.align 8
.LC17:
	.string	"[using single-precision arithmetic] "
	.align 8
.LC18:
	.string	"%s is not a valid positive integer"
	.align 8
.LC19:
	.string	"[using arbitrary-precision arithmetic] "
	.text
	.p2align 4
	.type	print_factors, @function
print_factors:
.LVL1118:
.LFB170:
	.loc 1 2465 1 is_stmt 1 view -0
	.cfi_startproc
	.loc 1 2465 1 is_stmt 0 view .LVU2723
	pushq	%r15
	.cfi_def_cfa_offset 16
	.cfi_offset 15, -16
	pushq	%r14
	.cfi_def_cfa_offset 24
	.cfi_offset 14, -24
	pushq	%r13
	.cfi_def_cfa_offset 32
	.cfi_offset 13, -32
	pushq	%r12
	.cfi_def_cfa_offset 40
	.cfi_offset 12, -40
	.loc 1 2468 9 view .LVU2724
	movq	%rdi, %r12
	.loc 1 2465 1 view .LVU2725
	pushq	%rbp
	.cfi_def_cfa_offset 48
	.cfi_offset 6, -48
	pushq	%rbx
	.cfi_def_cfa_offset 56
	.cfi_offset 3, -56
	subq	$312, %rsp
	.cfi_def_cfa_offset 368
	.loc 1 2465 1 view .LVU2726
	movq	%fs:40, %rax
	movq	%rax, 296(%rsp)
	xorl	%eax, %eax
	.loc 1 2467 3 is_stmt 1 view .LVU2727
.LVL1119:
	.loc 1 2468 3 view .LVU2728
	.loc 1 2468 9 view .LVU2729
	.loc 1 2468 10 is_stmt 0 view .LVU2730
	movzbl	(%rdi), %eax
	.loc 1 2468 9 view .LVU2731
	cmpb	$32, %al
	jne	.L720
.LVL1120:
	.p2align 4,,10
	.p2align 3
.L721:
	.loc 1 2469 5 is_stmt 1 view .LVU2732
	.loc 1 2468 10 is_stmt 0 view .LVU2733
	movzbl	1(%r12), %eax
	.loc 1 2469 8 view .LVU2734
	addq	$1, %r12
.LVL1121:
	.loc 1 2468 9 is_stmt 1 view .LVU2735
	cmpb	$32, %al
	je	.L721
.L720:
	.loc 1 2470 3 view .LVU2736
	.loc 1 2470 15 is_stmt 0 view .LVU2737
	cmpb	$43, %al
.LBB621:
.LBB622:
	.loc 1 2264 16 view .LVU2738
	movl	$4, %ecx
.LBE622:
.LBE621:
	.loc 1 2470 15 view .LVU2739
	sete	%al
	movzbl	%al, %eax
	.loc 1 2470 7 view .LVU2740
	addq	%rax, %r12
.LVL1122:
	.loc 1 2472 3 is_stmt 1 view .LVU2741
	.loc 1 2478 3 view .LVU2742
.LBB628:
.LBI621:
	.loc 1 2259 1 view .LVU2743
.LBB626:
	.loc 1 2261 3 view .LVU2744
	.loc 1 2262 3 view .LVU2745
	.loc 1 2264 3 view .LVU2746
	.loc 1 2267 3 view .LVU2747
	.loc 1 2267 15 is_stmt 0 view .LVU2748
	movq	%r12, %rdx
.LVL1123:
	.p2align 4,,10
	.p2align 3
.L724:
	.loc 1 2268 3 is_stmt 1 view .LVU2749
.LBB623:
	.loc 1 2270 7 view .LVU2750
	.loc 1 2270 20 is_stmt 0 view .LVU2751
	movsbl	(%rdx), %eax
	.loc 1 2270 26 view .LVU2752
	addq	$1, %rdx
.LVL1124:
	.loc 1 2271 7 is_stmt 1 view .LVU2753
	.loc 1 2271 10 is_stmt 0 view .LVU2754
	testl	%eax, %eax
	je	.L754
	.loc 1 2274 7 is_stmt 1 view .LVU2755
	.loc 1 2274 11 is_stmt 0 view .LVU2756
	subl	$48, %eax
.LVL1125:
	.loc 1 2280 11 view .LVU2757
	xorl	%ecx, %ecx
.LVL1126:
	.loc 1 2274 10 view .LVU2758
	cmpl	$9, %eax
	jbe	.L724
.LVL1127:
.L723:
	.loc 1 2274 10 view .LVU2759
.LBE623:
.LBE626:
.LBE628:
	.loc 1 2496 7 is_stmt 1 view .LVU2760
	call	quote@PLT
.LVL1128:
	.loc 1 2496 20 is_stmt 0 view .LVU2761
	movl	$5, %edx
	leaq	.LC18(%rip), %rsi
	xorl	%edi, %edi
	.loc 1 2496 7 view .LVU2762
	movq	%rax, %r12
.LVL1129:
	.loc 1 2496 20 view .LVU2763
	call	dcgettext@PLT
.LVL1130:
	.loc 1 2496 7 view .LVU2764
	movq	%r12, %rcx
	xorl	%esi, %esi
	xorl	%edi, %edi
	.loc 1 2496 20 view .LVU2765
	movq	%rax, %rdx
	.loc 1 2496 7 view .LVU2766
	xorl	%eax, %eax
	call	error@PLT
.LVL1131:
	.loc 1 2497 7 is_stmt 1 view .LVU2767
	.loc 1 2497 14 is_stmt 0 view .LVU2768
	xorl	%eax, %eax
.L719:
	.loc 1 2522 1 view .LVU2769
	movq	296(%rsp), %rcx
	xorq	%fs:40, %rcx
	jne	.L772
	addq	$312, %rsp
	.cfi_remember_state
	.cfi_def_cfa_offset 56
	popq	%rbx
	.cfi_def_cfa_offset 48
	popq	%rbp
	.cfi_def_cfa_offset 40
	popq	%r12
	.cfi_def_cfa_offset 32
	popq	%r13
	.cfi_def_cfa_offset 24
	popq	%r14
	.cfi_def_cfa_offset 16
	popq	%r15
	.cfi_def_cfa_offset 8
	ret
.LVL1132:
.L754:
	.cfi_restore_state
.LBB629:
.LBB627:
	.loc 1 2522 1 view .LVU2770
	movq	%r12, %r8
	xorl	%r13d, %r13d
	xorl	%ebp, %ebp
.LBB624:
	.loc 1 2291 10 view .LVU2771
	movabsq	$1844674407370955161, %r9
.LVL1133:
	.loc 1 2291 10 view .LVU2772
.LBE624:
	.loc 1 2283 9 is_stmt 1 view .LVU2773
	testl	%ecx, %ecx
	jne	.L723
.LVL1134:
	.p2align 4,,10
	.p2align 3
.L732:
.LBB625:
	.loc 1 2285 7 view .LVU2774
	.loc 1 2285 20 is_stmt 0 view .LVU2775
	movsbl	(%r8), %ecx
	.loc 1 2285 26 view .LVU2776
	addq	$1, %r8
.LVL1135:
	.loc 1 2286 7 is_stmt 1 view .LVU2777
	.loc 1 2286 10 is_stmt 0 view .LVU2778
	testl	%ecx, %ecx
	je	.L725
	.loc 1 2289 7 is_stmt 1 view .LVU2779
	.loc 1 2289 9 is_stmt 0 view .LVU2780
	leal	-48(%rcx), %esi
.LVL1136:
	.loc 1 2291 7 is_stmt 1 view .LVU2781
	.loc 1 2291 10 is_stmt 0 view .LVU2782
	cmpq	%r9, %rbp
	ja	.L726
	.loc 1 2296 7 is_stmt 1 view .LVU2783
.LVL1137:
	.loc 1 2298 7 view .LVU2784
	.loc 1 2299 22 is_stmt 0 view .LVU2785
	leaq	0(%r13,%r13,4), %rcx
	.loc 1 2298 22 view .LVU2786
	movq	%r13, %rax
	.loc 1 2296 10 view .LVU2787
	leaq	0(%rbp,%rbp,4), %rbp
.LVL1138:
	.loc 1 2298 50 view .LVU2788
	movq	%r13, %rdx
	.loc 1 2298 22 view .LVU2789
	shrq	$61, %rax
	.loc 1 2299 22 view .LVU2790
	addq	%rcx, %rcx
	.loc 1 2299 31 view .LVU2791
	addq	%r13, %r13
	.loc 1 2298 50 view .LVU2792
	shrq	$63, %rdx
.LVL1139:
	.loc 1 2299 7 is_stmt 1 view .LVU2793
	.loc 1 2299 27 is_stmt 0 view .LVU2794
	cmpq	%r13, %rcx
	.loc 1 2299 16 view .LVU2795
	adcl	%eax, %edx
.LVL1140:
	.loc 1 2301 7 is_stmt 1 view .LVU2796
	.loc 1 2302 7 view .LVU2797
	.loc 1 2302 10 is_stmt 0 view .LVU2798
	movl	%esi, %eax
	addq	%rax, %rcx
.LVL1141:
	.loc 1 2302 10 view .LVU2799
	setc	%al
	.loc 1 2296 10 view .LVU2800
	addq	%rbp, %rbp
	.loc 1 2302 10 view .LVU2801
	movq	%rcx, %r13
	.loc 1 2304 7 is_stmt 1 view .LVU2802
	movzbl	%al, %eax
.LVL1142:
	.loc 1 2305 7 view .LVU2803
	.loc 1 2304 16 is_stmt 0 view .LVU2804
	addl	%edx, %eax
.LVL1143:
	.loc 1 2306 7 is_stmt 1 view .LVU2805
	addq	%rax, %rbp
	.loc 1 2306 10 is_stmt 0 view .LVU2806
	jnc	.L732
.L726:
	.loc 1 2306 10 view .LVU2807
	movzbl	dev_debug(%rip), %eax
.LVL1144:
.L731:
	.loc 1 2306 10 view .LVU2808
.LBE625:
.LBE627:
.LBE629:
	.loc 1 2500 3 is_stmt 1 view .LVU2809
	.loc 1 2500 3 view .LVU2810
	testb	%al, %al
	jne	.L773
.LVL1145:
.L740:
	.loc 1 2500 3 discriminator 3 view .LVU2811
	.loc 1 2501 3 discriminator 3 view .LVU2812
	.loc 1 2502 3 discriminator 3 view .LVU2813
	.loc 1 2504 3 discriminator 3 view .LVU2814
	leaq	32(%rsp), %r13
	movl	$10, %edx
	movq	%r12, %rsi
	movq	%r13, %rdi
	call	mpz_init_set_str@PLT
.LVL1146:
	.loc 1 2506 3 discriminator 3 view .LVU2815
	movq	stdout(%rip), %rdi
	movq	%r13, %rdx
	movl	$10, %esi
	call	mpz_out_str@PLT
.LVL1147:
	.loc 1 2507 3 discriminator 3 view .LVU2816
.LBB630:
.LBI630:
	.file 4 "/usr/include/x86_64-linux-gnu/bits/stdio.h"
	.loc 4 108 1 discriminator 3 view .LVU2817
.LBB631:
	.loc 4 110 3 discriminator 3 view .LVU2818
	.loc 4 110 10 is_stmt 0 discriminator 3 view .LVU2819
	movq	stdout(%rip), %rdi
	movq	40(%rdi), %rax
	cmpq	48(%rdi), %rax
	jnb	.L774
	.loc 4 110 10 view .LVU2820
	leaq	1(%rax), %rdx
	movq	%rdx, 40(%rdi)
	movb	$58, (%rax)
.L742:
.LVL1148:
	.loc 4 110 10 view .LVU2821
.LBE631:
.LBE630:
	.loc 1 2508 3 is_stmt 1 view .LVU2822
	movq	%rsp, %r14
	movq	%r13, %rdi
	movq	%r14, %rsi
	call	mp_factor
.LVL1149:
	.loc 1 2510 3 view .LVU2823
.LBB633:
	.loc 1 2510 8 view .LVU2824
	.loc 1 2510 28 view .LVU2825
	.loc 1 2510 3 is_stmt 0 view .LVU2826
	cmpq	$0, 16(%rsp)
	je	.L744
	movq	8(%rsp), %rax
	.loc 1 2510 21 view .LVU2827
	xorl	%r12d, %r12d
.LVL1150:
	.loc 1 2510 30 view .LVU2828
	xorl	%edx, %edx
.LVL1151:
	.p2align 4,,10
	.p2align 3
.L743:
.LBB634:
	.loc 1 2511 30 is_stmt 1 view .LVU2829
	.loc 1 2514 43 is_stmt 0 view .LVU2830
	movq	%rdx, %rbx
	.loc 1 2511 23 view .LVU2831
	xorl	%r15d, %r15d
	.loc 1 2511 43 view .LVU2832
	leaq	0(,%rdx,8), %rbp
	.loc 1 2514 43 view .LVU2833
	salq	$4, %rbx
	.loc 1 2511 5 view .LVU2834
	cmpq	$0, (%rax,%rdx,8)
	je	.L749
.LVL1152:
	.p2align 4,,10
	.p2align 3
.L747:
	.loc 1 2513 9 is_stmt 1 view .LVU2835
.LBB635:
.LBI635:
	.loc 4 108 1 view .LVU2836
.LBB636:
	.loc 4 110 3 view .LVU2837
	.loc 4 110 10 is_stmt 0 view .LVU2838
	movq	stdout(%rip), %rdi
	movq	40(%rdi), %rax
	cmpq	48(%rdi), %rax
	jnb	.L775
	leaq	1(%rax), %rdx
	movq	%rdx, 40(%rdi)
	movb	$32, (%rax)
.L746:
.LVL1153:
	.loc 4 110 10 view .LVU2839
.LBE636:
.LBE635:
	.loc 1 2514 9 is_stmt 1 view .LVU2840
	.loc 1 2514 43 is_stmt 0 view .LVU2841
	movq	(%rsp), %rdx
	.loc 1 2514 9 view .LVU2842
	movq	stdout(%rip), %rdi
	movl	$10, %esi
	.loc 1 2514 43 view .LVU2843
	addq	%rbx, %rdx
	.loc 1 2514 9 view .LVU2844
	call	mpz_out_str@PLT
.LVL1154:
	.loc 1 2511 48 is_stmt 1 view .LVU2845
	.loc 1 2511 43 is_stmt 0 view .LVU2846
	movq	8(%rsp), %rax
	.loc 1 2511 49 view .LVU2847
	leal	1(%r15), %edx
	movq	%rdx, %r15
.LVL1155:
	.loc 1 2511 30 is_stmt 1 view .LVU2848
	.loc 1 2511 5 is_stmt 0 view .LVU2849
	cmpq	(%rax,%rbp), %rdx
	jb	.L747
.LVL1156:
.L749:
	.loc 1 2511 5 view .LVU2850
.LBE634:
	.loc 1 2510 50 is_stmt 1 view .LVU2851
	.loc 1 2510 51 is_stmt 0 view .LVU2852
	leal	1(%r12), %edx
	movq	%rdx, %r12
.LVL1157:
	.loc 1 2510 28 is_stmt 1 view .LVU2853
	.loc 1 2510 3 is_stmt 0 view .LVU2854
	cmpq	16(%rsp), %rdx
	jb	.L743
.LVL1158:
.L744:
	.loc 1 2510 3 view .LVU2855
.LBE633:
	.loc 1 2517 3 is_stmt 1 view .LVU2856
	movq	%r14, %rdi
	call	mp_factor_clear
.LVL1159:
	.loc 1 2518 3 view .LVU2857
	movq	%r13, %rdi
	call	mpz_clear@PLT
.LVL1160:
	.loc 1 2519 3 view .LVU2858
.LBB640:
.LBI640:
	.loc 4 108 1 view .LVU2859
.LBB641:
	.loc 4 110 3 view .LVU2860
	.loc 4 110 10 is_stmt 0 view .LVU2861
	movq	stdout(%rip), %rdi
	movq	40(%rdi), %rax
	cmpq	48(%rdi), %rax
	jnb	.L776
	leaq	1(%rax), %rdx
	movq	%rdx, 40(%rdi)
	movb	$10, (%rax)
.L751:
.LVL1161:
	.loc 4 110 10 view .LVU2862
.LBE641:
.LBE640:
	.loc 1 2520 3 is_stmt 1 view .LVU2863
	movq	stdout(%rip), %rdi
	call	fflush_unlocked@PLT
.LVL1162:
	.loc 1 2521 3 view .LVU2864
	.loc 1 2521 10 is_stmt 0 view .LVU2865
	movl	$1, %eax
.LVL1163:
	.loc 1 2521 10 view .LVU2866
	jmp	.L719
.LVL1164:
	.p2align 4,,10
	.p2align 3
.L775:
.LBB643:
.LBB639:
.LBB638:
.LBB637:
	.loc 4 110 10 view .LVU2867
	movl	$32, %esi
	call	__overflow@PLT
.LVL1165:
	jmp	.L746
.LVL1166:
.L725:
	.loc 4 110 10 view .LVU2868
.LBE637:
.LBE638:
.LBE639:
.LBE643:
	.loc 1 2483 7 is_stmt 1 view .LVU2869
	movzbl	dev_debug(%rip), %eax
	.loc 1 2483 10 is_stmt 0 view .LVU2870
	testq	%rbp, %rbp
	js	.L731
	.loc 1 2485 11 is_stmt 1 view .LVU2871
	.loc 1 2485 11 view .LVU2872
	testb	%al, %al
	jne	.L777
.LVL1167:
.L733:
	.loc 1 2485 11 discriminator 3 view .LVU2873
	.loc 1 2486 11 discriminator 3 view .LVU2874
.LBB644:
.LBI644:
	.loc 1 2433 1 discriminator 3 view .LVU2875
.LBB645:
	.loc 1 2435 3 discriminator 3 view .LVU2876
	.loc 1 2437 3 discriminator 3 view .LVU2877
	movq	%r13, %rsi
	movq	%rbp, %rdi
	.loc 1 2440 3 is_stmt 0 discriminator 3 view .LVU2878
	leaq	32(%rsp), %r12
.LVL1168:
	.loc 1 2437 3 discriminator 3 view .LVU2879
	call	print_uintmaxes
.LVL1169:
	.loc 1 2438 3 is_stmt 1 discriminator 3 view .LVU2880
	movl	$58, %edi
	call	lbuf_putc
.LVL1170:
	.loc 1 2440 3 discriminator 3 view .LVU2881
	movq	%r12, %rdx
	movq	%r13, %rsi
	movq	%rbp, %rdi
	call	factor
.LVL1171:
	.loc 1 2442 3 discriminator 3 view .LVU2882
.LBB646:
	.loc 1 2442 8 discriminator 3 view .LVU2883
	.loc 1 2442 28 discriminator 3 view .LVU2884
	.loc 1 2442 3 is_stmt 0 discriminator 3 view .LVU2885
	cmpb	$0, 282(%rsp)
	je	.L734
	leaq	48(%rsp), %r13
.LVL1172:
	.loc 1 2442 3 view .LVU2886
	movq	%r12, %rbp
.LVL1173:
	.p2align 4,,10
	.p2align 3
.L735:
.LBB647:
	.loc 1 2443 30 is_stmt 1 view .LVU2887
	.loc 1 2443 23 is_stmt 0 view .LVU2888
	xorl	%ebx, %ebx
	.loc 1 2443 5 view .LVU2889
	cmpb	$0, 224(%rbp)
	je	.L737
.LVL1174:
	.p2align 4,,10
	.p2align 3
.L736:
	.loc 1 2445 9 is_stmt 1 view .LVU2890
	movl	$32, %edi
	.loc 1 2443 49 is_stmt 0 view .LVU2891
	addl	$1, %ebx
.LVL1175:
	.loc 1 2445 9 view .LVU2892
	call	lbuf_putc
.LVL1176:
	.loc 1 2446 9 is_stmt 1 view .LVU2893
.LBB648:
.LBI648:
	.loc 1 2413 1 view .LVU2894
.LBB649:
	.loc 1 2415 3 view .LVU2895
	.loc 1 2417 3 view .LVU2896
	.loc 1 2418 5 view .LVU2897
	movq	0(%r13), %rdi
	xorl	%esi, %esi
	call	lbuf_putint
.LVL1177:
	.loc 1 2418 5 is_stmt 0 view .LVU2898
.LBE649:
.LBE648:
	.loc 1 2443 48 is_stmt 1 view .LVU2899
	.loc 1 2443 30 view .LVU2900
	.loc 1 2443 43 is_stmt 0 view .LVU2901
	movzbl	224(%rbp), %eax
	.loc 1 2443 5 view .LVU2902
	cmpl	%eax, %ebx
	jb	.L736
.LVL1178:
.L737:
	.loc 1 2443 5 view .LVU2903
.LBE647:
	.loc 1 2442 50 is_stmt 1 view .LVU2904
	.loc 1 2442 28 view .LVU2905
	addq	$1, %rbp
.LVL1179:
	.loc 1 2442 39 is_stmt 0 view .LVU2906
	movzbl	282(%rsp), %edx
	addq	$8, %r13
	.loc 1 2442 3 view .LVU2907
	movl	%ebp, %eax
	subl	%r12d, %eax
	cmpl	%eax, %edx
	ja	.L735
.L734:
	.loc 1 2442 3 view .LVU2908
.LBE646:
	.loc 1 2449 3 is_stmt 1 view .LVU2909
	.loc 1 2449 6 is_stmt 0 view .LVU2910
	cmpq	$0, 40(%rsp)
	jne	.L778
.L738:
	.loc 1 2455 3 is_stmt 1 view .LVU2911
	movl	$10, %edi
	call	lbuf_putc
.LVL1180:
.LBE645:
.LBE644:
	.loc 1 2487 18 is_stmt 0 view .LVU2912
	movl	$1, %eax
.LBB652:
.LBB650:
	.loc 1 2456 1 view .LVU2913
	jmp	.L719
.LVL1181:
.L773:
	.loc 1 2456 1 view .LVU2914
.LBE650:
.LBE652:
	.loc 1 2500 3 is_stmt 1 discriminator 1 view .LVU2915
.LBB653:
.LBI653:
	.loc 3 98 1 discriminator 1 view .LVU2916
.LBB654:
	.loc 3 100 3 discriminator 1 view .LVU2917
	.loc 3 100 10 is_stmt 0 discriminator 1 view .LVU2918
	movq	stderr(%rip), %rcx
	movl	$39, %edx
	movl	$1, %esi
	leaq	.LC19(%rip), %rdi
.LVL1182:
	.loc 3 100 10 discriminator 1 view .LVU2919
	call	fwrite@PLT
.LVL1183:
	.loc 3 100 10 discriminator 1 view .LVU2920
	jmp	.L740
.LVL1184:
.L776:
	.loc 3 100 10 discriminator 1 view .LVU2921
.LBE654:
.LBE653:
.LBB655:
.LBB642:
	.loc 4 110 10 view .LVU2922
	movl	$10, %esi
	call	__overflow@PLT
.LVL1185:
	jmp	.L751
.LVL1186:
.L774:
	.loc 4 110 10 view .LVU2923
.LBE642:
.LBE655:
.LBB656:
.LBB632:
	movl	$58, %esi
	call	__overflow@PLT
.LVL1187:
	jmp	.L742
.LVL1188:
.L778:
	.loc 4 110 10 view .LVU2924
.LBE632:
.LBE656:
.LBB657:
.LBB651:
	.loc 1 2451 7 is_stmt 1 view .LVU2925
	movl	$32, %edi
	call	lbuf_putc
.LVL1189:
	.loc 1 2452 7 view .LVU2926
	movq	32(%rsp), %rsi
	movq	40(%rsp), %rdi
	call	print_uintmaxes
.LVL1190:
	jmp	.L738
.LVL1191:
.L777:
	.loc 1 2452 7 is_stmt 0 view .LVU2927
.LBE651:
.LBE657:
	.loc 1 2485 11 is_stmt 1 discriminator 1 view .LVU2928
.LBB658:
.LBI658:
	.loc 3 98 1 discriminator 1 view .LVU2929
.LBB659:
	.loc 3 100 3 discriminator 1 view .LVU2930
	.loc 3 100 10 is_stmt 0 discriminator 1 view .LVU2931
	movq	stderr(%rip), %rcx
	movl	$36, %edx
	movl	$1, %esi
	leaq	.LC17(%rip), %rdi
.LVL1192:
	.loc 3 100 10 discriminator 1 view .LVU2932
	call	fwrite@PLT
.LVL1193:
	.loc 3 100 10 discriminator 1 view .LVU2933
	jmp	.L733
.LVL1194:
.L772:
	.loc 3 100 10 discriminator 1 view .LVU2934
.LBE659:
.LBE658:
	.loc 1 2522 1 view .LVU2935
	call	__stack_chk_fail@PLT
.LVL1195:
	.cfi_endproc
.LFE170:
	.size	print_factors, .-print_factors
	.section	.rodata.str1.1
.LC20:
	.string	"factor"
.LC21:
	.string	" invocation"
.LC22:
	.string	""
	.section	.rodata.str1.8
	.align 8
.LC23:
	.string	"Try '%s --help' for more information.\n"
	.align 8
.LC24:
	.string	"Usage: %s [NUMBER]...\n  or:  %s OPTION\n"
	.align 8
.LC25:
	.string	"Print the prime factors of each specified integer NUMBER.  If none\nare specified on the command line, read them from standard input.\n\n"
	.align 8
.LC26:
	.string	"      --help     display this help and exit\n"
	.align 8
.LC27:
	.string	"      --version  output version information and exit\n"
	.section	.rodata.str1.1
.LC28:
	.string	"["
.LC29:
	.string	"test invocation"
.LC30:
	.string	"coreutils"
.LC31:
	.string	"Multi-call invocation"
.LC32:
	.string	"sha224sum"
.LC33:
	.string	"sha2 utilities"
.LC34:
	.string	"sha256sum"
.LC35:
	.string	"sha384sum"
.LC36:
	.string	"sha512sum"
.LC37:
	.string	"\n%s online help: <%s>\n"
	.section	.rodata.str1.8
	.align 8
.LC38:
	.string	"https://www.gnu.org/software/coreutils/"
	.section	.rodata.str1.1
.LC39:
	.string	"GNU coreutils"
.LC40:
	.string	"en_"
	.section	.rodata.str1.8
	.align 8
.LC41:
	.string	"Report any translation bugs to <https://translationproject.org/team/>\n"
	.section	.rodata.str1.1
.LC42:
	.string	"Full documentation <%s%s>\n"
	.section	.rodata.str1.8
	.align 8
.LC43:
	.string	"or available locally via: info '(coreutils) %s%s'\n"
	.text
	.p2align 4
	.globl	usage
	.type	usage, @function
usage:
.LVL1196:
.LFB171:
	.loc 1 2526 1 is_stmt 1 view -0
	.cfi_startproc
	.loc 1 2526 1 is_stmt 0 view .LVU2937
	endbr64
	pushq	%r13
	.cfi_def_cfa_offset 16
	.cfi_offset 13, -16
	.loc 1 2528 5 view .LVU2938
	movl	$5, %edx
	.loc 1 2526 1 view .LVU2939
	pushq	%r12
	.cfi_def_cfa_offset 24
	.cfi_offset 12, -24
	pushq	%rbp
	.cfi_def_cfa_offset 32
	.cfi_offset 6, -32
	movl	%edi, %ebp
	pushq	%rbx
	.cfi_def_cfa_offset 40
	.cfi_offset 3, -40
	subq	$136, %rsp
	.cfi_def_cfa_offset 176
	movq	program_name(%rip), %r12
	.loc 1 2526 1 view .LVU2940
	movq	%fs:40, %rax
	movq	%rax, 120(%rsp)
	xorl	%eax, %eax
	.loc 1 2527 3 is_stmt 1 view .LVU2941
	.loc 1 2527 6 is_stmt 0 view .LVU2942
	testl	%edi, %edi
	je	.L780
	.loc 1 2528 5 is_stmt 1 view .LVU2943
	.loc 1 2528 5 view .LVU2944
	leaq	.LC23(%rip), %rsi
	xorl	%edi, %edi
.LVL1197:
	.loc 1 2528 5 is_stmt 0 view .LVU2945
	call	dcgettext@PLT
.LVL1198:
.LBB672:
.LBB673:
	.loc 3 100 10 view .LVU2946
	movq	stderr(%rip), %rdi
	movq	%r12, %rcx
	movl	$1, %esi
.LBE673:
.LBE672:
	.loc 1 2528 5 view .LVU2947
	movq	%rax, %rdx
.LVL1199:
.LBB675:
.LBI672:
	.loc 3 98 1 is_stmt 1 view .LVU2948
.LBB674:
	.loc 3 100 3 view .LVU2949
	.loc 3 100 10 is_stmt 0 view .LVU2950
	xorl	%eax, %eax
.LVL1200:
	.loc 3 100 10 view .LVU2951
	call	__fprintf_chk@PLT
.LVL1201:
.L781:
	.loc 3 100 10 view .LVU2952
.LBE674:
.LBE675:
	.loc 1 2545 3 is_stmt 1 view .LVU2953
	movl	%ebp, %edi
	call	exit@PLT
.LVL1202:
.L780:
	.loc 1 2531 7 view .LVU2954
	.loc 1 2531 15 is_stmt 0 view .LVU2955
	leaq	.LC24(%rip), %rsi
	xorl	%edi, %edi
.LVL1203:
.LBB676:
.LBB677:
	.file 5 "src/system.h"
	.loc 5 636 67 view .LVU2956
	leaq	.LC34(%rip), %rbx
.LBE677:
.LBE676:
	.loc 1 2531 15 view .LVU2957
	call	dcgettext@PLT
.LVL1204:
.LBB703:
.LBB704:
	.loc 3 107 10 view .LVU2958
	movq	%r12, %rcx
	movq	%r12, %rdx
	movl	$1, %edi
.LBE704:
.LBE703:
	.loc 1 2531 15 view .LVU2959
	movq	%rax, %rsi
.LVL1205:
.LBB706:
.LBI703:
	.loc 3 105 1 is_stmt 1 view .LVU2960
.LBB705:
	.loc 3 107 3 view .LVU2961
	.loc 3 107 10 is_stmt 0 view .LVU2962
	xorl	%eax, %eax
.LVL1206:
	.loc 3 107 10 view .LVU2963
	call	__printf_chk@PLT
.LVL1207:
	.loc 3 107 10 view .LVU2964
.LBE705:
.LBE706:
	.loc 1 2536 7 is_stmt 1 view .LVU2965
	movq	stdout(%rip), %r12
	movl	$5, %edx
	xorl	%edi, %edi
	leaq	.LC25(%rip), %rsi
	call	dcgettext@PLT
.LVL1208:
	movq	%r12, %rsi
	movq	%rax, %rdi
	call	fputs_unlocked@PLT
.LVL1209:
	.loc 1 2541 7 view .LVU2966
	movq	stdout(%rip), %r12
	movl	$5, %edx
	xorl	%edi, %edi
	leaq	.LC26(%rip), %rsi
	call	dcgettext@PLT
.LVL1210:
	movq	%r12, %rsi
	movq	%rax, %rdi
	call	fputs_unlocked@PLT
.LVL1211:
	.loc 1 2542 7 view .LVU2967
	movq	stdout(%rip), %r12
	movl	$5, %edx
	xorl	%edi, %edi
	leaq	.LC27(%rip), %rsi
	call	dcgettext@PLT
.LVL1212:
	movq	%r12, %rsi
	movq	%rax, %rdi
	call	fputs_unlocked@PLT
.LVL1213:
	.loc 1 2543 7 view .LVU2968
.LBB707:
.LBI676:
	.loc 5 634 1 view .LVU2969
.LBB702:
	.loc 5 636 3 view .LVU2970
	.loc 5 636 67 is_stmt 0 view .LVU2971
	leaq	.LC28(%rip), %rax
	movq	%rbx, 48(%rsp)
	leaq	.LC35(%rip), %rbx
	movq	%rax, (%rsp)
	leaq	.LC29(%rip), %rax
	movq	%rax, 8(%rsp)
	leaq	.LC30(%rip), %rax
	movq	%rax, 16(%rsp)
	leaq	.LC31(%rip), %rax
	movq	%rax, 24(%rsp)
	leaq	.LC32(%rip), %rax
	movq	$0, 96(%rsp)
	movq	$0, 104(%rsp)
	.loc 5 646 3 is_stmt 1 view .LVU2972
.LVL1214:
	.loc 5 647 3 view .LVU2973
	.loc 5 649 3 view .LVU2974
	.loc 5 649 9 view .LVU2975
	.loc 5 636 67 is_stmt 0 view .LVU2976
	movq	%rax, 32(%rsp)
	leaq	.LC33(%rip), %rax
	movq	%rbx, 64(%rsp)
	leaq	.LC36(%rip), %rbx
	movq	%rax, 40(%rsp)
	movq	%rax, 56(%rsp)
	movq	%rax, 72(%rsp)
	movq	%rbx, 80(%rsp)
	leaq	.LC20(%rip), %rbx
	movq	%rax, 88(%rsp)
	.loc 5 647 25 view .LVU2977
	movq	%rsp, %rax
.LVL1215:
	.p2align 4,,10
	.p2align 3
.L783:
	.loc 5 650 5 is_stmt 1 view .LVU2978
	.loc 5 649 18 is_stmt 0 view .LVU2979
	movq	16(%rax), %rdi
	.loc 5 650 13 view .LVU2980
	addq	$16, %rax
.LVL1216:
	.loc 5 649 9 is_stmt 1 view .LVU2981
	testq	%rdi, %rdi
	je	.L782
	.loc 5 649 33 is_stmt 0 view .LVU2982
	movl	$7, %ecx
	movq	%rbx, %rsi
	repz cmpsb
	seta	%dl
	sbbb	$0, %dl
	.loc 5 649 28 view .LVU2983
	testb	%dl, %dl
	jne	.L783
.L782:
	.loc 5 652 3 is_stmt 1 view .LVU2984
	.loc 5 652 15 is_stmt 0 view .LVU2985
	movq	8(%rax), %r12
	.loc 5 655 11 view .LVU2986
	movl	$5, %edx
	leaq	.LC37(%rip), %rsi
	xorl	%edi, %edi
	.loc 5 652 6 view .LVU2987
	testq	%r12, %r12
	je	.L784
	.loc 5 653 5 is_stmt 1 view .LVU2988
.LVL1217:
	.loc 5 655 3 view .LVU2989
	.loc 5 655 11 is_stmt 0 view .LVU2990
	call	dcgettext@PLT
.LVL1218:
.LBB678:
.LBB679:
	.loc 3 107 10 view .LVU2991
	leaq	.LC38(%rip), %rcx
	movl	$1, %edi
	leaq	.LC39(%rip), %rdx
.LBE679:
.LBE678:
	.loc 5 655 11 view .LVU2992
	movq	%rax, %rsi
.LVL1219:
.LBB683:
.LBI678:
	.loc 3 105 1 is_stmt 1 view .LVU2993
.LBB680:
	.loc 3 107 3 view .LVU2994
	.loc 3 107 10 is_stmt 0 view .LVU2995
	xorl	%eax, %eax
.LVL1220:
	.loc 3 107 10 view .LVU2996
	call	__printf_chk@PLT
.LVL1221:
	.loc 3 107 10 view .LVU2997
.LBE680:
.LBE683:
	.loc 5 659 3 is_stmt 1 view .LVU2998
	.loc 5 659 29 is_stmt 0 view .LVU2999
	movl	$5, %edi
	xorl	%esi, %esi
	call	setlocale@PLT
.LVL1222:
	movq	%rax, %rdi
.LVL1223:
	.loc 5 660 3 is_stmt 1 view .LVU3000
	.loc 5 660 6 is_stmt 0 view .LVU3001
	testq	%rax, %rax
	je	.L785
	.loc 5 660 22 view .LVU3002
	movl	$3, %edx
	leaq	.LC40(%rip), %rsi
	call	strncmp@PLT
.LVL1224:
	.loc 5 660 19 view .LVU3003
	testl	%eax, %eax
	jne	.L788
.LVL1225:
.L785:
	.loc 5 669 3 is_stmt 1 view .LVU3004
	.loc 5 669 11 is_stmt 0 view .LVU3005
	xorl	%edi, %edi
	movl	$5, %edx
	leaq	.LC42(%rip), %rsi
	call	dcgettext@PLT
.LVL1226:
.LBB684:
.LBB685:
	.loc 3 107 10 view .LVU3006
	leaq	.LC20(%rip), %rcx
	leaq	.LC38(%rip), %rdx
	movl	$1, %edi
.LBE685:
.LBE684:
	.loc 5 669 11 view .LVU3007
	movq	%rax, %rsi
.LVL1227:
.LBB691:
.LBI684:
	.loc 3 105 1 is_stmt 1 view .LVU3008
.LBB686:
	.loc 3 107 3 view .LVU3009
	.loc 3 107 10 is_stmt 0 view .LVU3010
	xorl	%eax, %eax
.LVL1228:
	.loc 3 107 10 view .LVU3011
.LBE686:
.LBE691:
	.loc 5 671 3 view .LVU3012
	leaq	.LC21(%rip), %r13
.LBB692:
.LBB687:
	.loc 3 107 10 view .LVU3013
	call	__printf_chk@PLT
.LVL1229:
	.loc 3 107 10 view .LVU3014
.LBE687:
.LBE692:
	.loc 5 671 3 is_stmt 1 view .LVU3015
	cmpq	%rbx, %r12
	leaq	.LC22(%rip), %rcx
	cmovne	%rcx, %r13
.L786:
	.loc 5 671 11 is_stmt 0 view .LVU3016
	xorl	%edi, %edi
	leaq	.LC43(%rip), %rsi
	movl	$5, %edx
	call	dcgettext@PLT
.LVL1230:
.LBB693:
.LBB694:
	.loc 3 107 10 view .LVU3017
	movq	%r13, %rcx
	movq	%r12, %rdx
	movl	$1, %edi
.LBE694:
.LBE693:
	.loc 5 671 11 view .LVU3018
	movq	%rax, %rsi
.LVL1231:
.LBB696:
.LBI693:
	.loc 3 105 1 is_stmt 1 view .LVU3019
.LBB695:
	.loc 3 107 3 view .LVU3020
	.loc 3 107 10 is_stmt 0 view .LVU3021
	xorl	%eax, %eax
.LVL1232:
	.loc 3 107 10 view .LVU3022
	call	__printf_chk@PLT
.LVL1233:
	.loc 3 107 10 view .LVU3023
.LBE695:
.LBE696:
	.loc 5 673 1 view .LVU3024
	jmp	.L781
.LVL1234:
.L784:
	.loc 5 655 3 is_stmt 1 view .LVU3025
	.loc 5 655 11 is_stmt 0 view .LVU3026
	call	dcgettext@PLT
.LVL1235:
.LBB697:
.LBB681:
	.loc 3 107 10 view .LVU3027
	leaq	.LC38(%rip), %rcx
	movl	$1, %edi
	leaq	.LC39(%rip), %rdx
.LBE681:
.LBE697:
	.loc 5 655 11 view .LVU3028
	movq	%rax, %rsi
.LVL1236:
.LBB698:
	.loc 3 105 1 is_stmt 1 view .LVU3029
.LBB682:
	.loc 3 107 3 view .LVU3030
	.loc 3 107 10 is_stmt 0 view .LVU3031
	xorl	%eax, %eax
.LVL1237:
	.loc 3 107 10 view .LVU3032
	call	__printf_chk@PLT
.LVL1238:
	.loc 3 107 10 view .LVU3033
.LBE682:
.LBE698:
	.loc 5 659 3 is_stmt 1 view .LVU3034
	.loc 5 659 29 is_stmt 0 view .LVU3035
	movl	$5, %edi
	xorl	%esi, %esi
	call	setlocale@PLT
.LVL1239:
	movq	%rax, %rdi
.LVL1240:
	.loc 5 660 3 is_stmt 1 view .LVU3036
	.loc 5 660 6 is_stmt 0 view .LVU3037
	testq	%rax, %rax
	je	.L787
	.loc 5 660 22 view .LVU3038
	movl	$3, %edx
	leaq	.LC40(%rip), %rsi
	call	strncmp@PLT
.LVL1241:
	.loc 5 660 19 view .LVU3039
	testl	%eax, %eax
	jne	.L806
.L787:
	.loc 5 669 3 is_stmt 1 view .LVU3040
	.loc 5 669 11 is_stmt 0 view .LVU3041
	movl	$5, %edx
	leaq	.LC42(%rip), %rsi
	xorl	%edi, %edi
	call	dcgettext@PLT
.LVL1242:
.LBB699:
.LBB688:
	.loc 3 107 10 view .LVU3042
	leaq	.LC20(%rip), %rcx
	leaq	.LC38(%rip), %rdx
	movl	$1, %edi
.LBE688:
.LBE699:
	.loc 5 669 11 view .LVU3043
	movq	%rax, %rsi
.LVL1243:
.LBB700:
	.loc 3 105 1 is_stmt 1 view .LVU3044
.LBB689:
	.loc 3 107 3 view .LVU3045
	.loc 3 107 10 is_stmt 0 view .LVU3046
	xorl	%eax, %eax
.LVL1244:
	.loc 3 107 10 view .LVU3047
.LBE689:
.LBE700:
	.loc 5 646 15 view .LVU3048
	leaq	.LC20(%rip), %r12
.LBB701:
.LBB690:
	.loc 3 107 10 view .LVU3049
	call	__printf_chk@PLT
.LVL1245:
	.loc 3 107 10 view .LVU3050
.LBE690:
.LBE701:
	.loc 5 671 3 is_stmt 1 view .LVU3051
	leaq	.LC21(%rip), %r13
	jmp	.L786
.L806:
	.loc 5 646 15 is_stmt 0 view .LVU3052
	leaq	.LC20(%rip), %r12
.LVL1246:
.L788:
	.loc 5 666 7 is_stmt 1 view .LVU3053
	movq	stdout(%rip), %r13
	xorl	%edi, %edi
	movl	$5, %edx
	leaq	.LC41(%rip), %rsi
	call	dcgettext@PLT
.LVL1247:
	movq	%rax, %rdi
	movq	%r13, %rsi
	call	fputs_unlocked@PLT
.LVL1248:
	jmp	.L785
.LBE702:
.LBE707:
	.cfi_endproc
.LFE171:
	.size	usage, .-usage
	.section	.rodata.str1.1
.LC44:
	.string	"/usr/local/share/locale"
.LC45:
	.string	"Niels M\303\266ller"
.LC46:
	.string	"Niels Moller"
.LC47:
	.string	"Torbj\303\266rn Granlund"
.LC48:
	.string	"Torbjorn Granlund"
.LC49:
	.string	"Paul Rubin"
.LC50:
	.string	"\n\t "
	.section	.text.startup,"ax",@progbits
	.p2align 4
	.globl	main
	.type	main, @function
main:
.LVL1249:
.LFB173:
	.loc 1 2571 1 view -0
	.cfi_startproc
	.loc 1 2571 1 is_stmt 0 view .LVU3055
	endbr64
	pushq	%r14
	.cfi_def_cfa_offset 16
	.cfi_offset 14, -16
	pushq	%r13
	.cfi_def_cfa_offset 24
	.cfi_offset 13, -24
	pushq	%r12
	.cfi_def_cfa_offset 32
	.cfi_offset 12, -32
	movl	%edi, %r12d
	pushq	%rbp
	.cfi_def_cfa_offset 40
	.cfi_offset 6, -40
	pushq	%rbx
	.cfi_def_cfa_offset 48
	.cfi_offset 3, -48
	movq	%rsi, %rbx
	subq	$32, %rsp
	.cfi_def_cfa_offset 80
	.loc 1 2573 3 view .LVU3056
	movq	(%rsi), %rdi
.LVL1250:
	.loc 1 2571 1 view .LVU3057
	movq	%fs:40, %rax
	movq	%rax, 24(%rsp)
	xorl	%eax, %eax
	.loc 1 2572 33 is_stmt 1 view .LVU3058
	.loc 1 2573 3 view .LVU3059
	call	set_program_name@PLT
.LVL1251:
	.loc 1 2574 3 view .LVU3060
	leaq	.LC22(%rip), %rsi
	movl	$6, %edi
	call	setlocale@PLT
.LVL1252:
	.loc 1 2575 3 view .LVU3061
	leaq	.LC44(%rip), %rsi
	leaq	.LC30(%rip), %rdi
	call	bindtextdomain@PLT
.LVL1253:
	.loc 1 2576 3 view .LVU3062
	leaq	.LC30(%rip), %rdi
	call	textdomain@PLT
.LVL1254:
	.loc 1 2578 3 view .LVU3063
.LBB714:
.LBI714:
	.loc 1 2335 1 view .LVU3064
.LBB715:
	.loc 1 2337 3 view .LVU3065
	.loc 1 2337 6 is_stmt 0 view .LVU3066
	cmpq	$0, lbuf(%rip)
	je	.L825
.L808:
.LBE715:
.LBE714:
	.loc 1 2579 3 is_stmt 1 view .LVU3067
	movq	close_stdout@GOTPCREL(%rip), %rdi
	.loc 1 2583 15 is_stmt 0 view .LVU3068
	leaq	long_options(%rip), %rbp
	.loc 1 2579 3 view .LVU3069
	call	atexit@PLT
.LVL1255:
	.loc 1 2580 3 is_stmt 1 view .LVU3070
	leaq	lbuf_flush(%rip), %rdi
	call	atexit@PLT
.LVL1256:
	.loc 1 2582 3 view .LVU3071
	.loc 1 2583 3 view .LVU3072
.L809:
	.loc 1 2583 9 view .LVU3073
	.loc 1 2583 15 is_stmt 0 view .LVU3074
	xorl	%r8d, %r8d
	movq	%rbp, %rcx
	leaq	.LC22(%rip), %rdx
	movq	%rbx, %rsi
	movl	%r12d, %edi
	call	getopt_long@PLT
.LVL1257:
	.loc 1 2583 9 view .LVU3075
	cmpl	$-1, %eax
	je	.L826
	.loc 1 2585 7 is_stmt 1 view .LVU3076
	cmpl	$-130, %eax
	je	.L810
	cmpl	$128, %eax
	jne	.L827
	.loc 1 2588 11 view .LVU3077
	.loc 1 2588 21 is_stmt 0 view .LVU3078
	movb	$1, dev_debug(%rip)
	.loc 1 2589 11 is_stmt 1 view .LVU3079
	jmp	.L809
	.p2align 4,,10
	.p2align 3
.L827:
	.loc 1 2585 7 is_stmt 0 view .LVU3080
	cmpl	$-131, %eax
	je	.L828
	.loc 1 2593 9 is_stmt 1 view .LVU3081
	.loc 1 2593 57 view .LVU3082
	.loc 1 2596 11 view .LVU3083
	movl	$1, %edi
	call	usage
.LVL1258:
	.p2align 4,,10
	.p2align 3
.L828:
	.loc 1 2591 9 view .LVU3084
	.loc 1 2591 30 view .LVU3085
	.loc 1 2593 9 view .LVU3086
	leaq	.LC45(%rip), %rsi
	leaq	.LC46(%rip), %rdi
	call	proper_name_utf8@PLT
.LVL1259:
	.loc 1 2593 9 is_stmt 0 view .LVU3087
	leaq	.LC47(%rip), %rsi
	leaq	.LC48(%rip), %rdi
	movq	%rax, %rbx
.LVL1260:
	.loc 1 2593 9 view .LVU3088
	call	proper_name_utf8@PLT
.LVL1261:
	pushq	$0
	.cfi_remember_state
	.cfi_def_cfa_offset 88
	movq	stdout(%rip), %rdi
	leaq	.LC49(%rip), %r8
	pushq	%rbx
	.cfi_def_cfa_offset 96
	movq	Version(%rip), %rcx
	movq	%rax, %r9
	xorl	%eax, %eax
	leaq	.LC39(%rip), %rdx
	leaq	.LC20(%rip), %rsi
	call	version_etc@PLT
.LVL1262:
	.loc 1 2593 9 is_stmt 1 view .LVU3089
	xorl	%edi, %edi
	call	exit@PLT
.LVL1263:
.L825:
	.cfi_restore_state
.LBB717:
.LBB716:
	.loc 1 2342 3 view .LVU3090
	.loc 1 2342 14 is_stmt 0 view .LVU3091
	movl	$1024, %edi
	call	xmalloc@PLT
.LVL1264:
	.loc 1 2342 12 view .LVU3092
	movq	%rax, lbuf(%rip)
	.loc 1 2343 3 is_stmt 1 view .LVU3093
	.loc 1 2343 12 is_stmt 0 view .LVU3094
	movq	%rax, 8+lbuf(%rip)
	jmp	.L808
.LVL1265:
.L826:
	.loc 1 2343 12 view .LVU3095
.LBE716:
.LBE717:
	.loc 1 2604 3 is_stmt 1 view .LVU3096
	.loc 1 2605 3 view .LVU3097
	.loc 1 2605 12 is_stmt 0 view .LVU3098
	movslq	optind(%rip), %rbp
	.loc 1 2605 6 view .LVU3099
	cmpl	%r12d, %ebp
	jge	.L829
	.loc 1 2609 10 view .LVU3100
	movl	$1, %r13d
.LBB718:
	.loc 1 2612 14 view .LVU3101
	xorl	%r14d, %r14d
.LVL1266:
.L820:
	.loc 1 2611 9 is_stmt 1 view .LVU3102
	.loc 1 2611 15 is_stmt 0 view .LVU3103
	movq	(%rbx,%rbp,8), %rdi
	call	print_factors
.LVL1267:
	.loc 1 2612 14 view .LVU3104
	testb	%al, %al
	cmove	%r14d, %r13d
.LVL1268:
	.loc 1 2610 38 is_stmt 1 view .LVU3105
	.loc 1 2610 28 view .LVU3106
	addq	$1, %rbp
.LVL1269:
	.loc 1 2610 7 is_stmt 0 view .LVU3107
	cmpl	%ebp, %r12d
	jg	.L820
.LVL1270:
.L818:
	.loc 1 2610 7 view .LVU3108
.LBE718:
	.loc 1 2630 3 is_stmt 1 view .LVU3109
	.loc 1 2630 28 is_stmt 0 view .LVU3110
	xorl	$1, %r13d
.LVL1271:
	.loc 1 2631 1 view .LVU3111
	movq	24(%rsp), %rdx
	xorq	%fs:40, %rdx
	.loc 1 2630 28 view .LVU3112
	movzbl	%r13b, %eax
	.loc 1 2631 1 view .LVU3113
	jne	.L830
	addq	$32, %rsp
	.cfi_remember_state
	.cfi_def_cfa_offset 48
	popq	%rbx
	.cfi_def_cfa_offset 40
	popq	%rbp
	.cfi_def_cfa_offset 32
	popq	%r12
	.cfi_def_cfa_offset 24
.LVL1272:
	.loc 1 2631 1 view .LVU3114
	popq	%r13
	.cfi_def_cfa_offset 16
	popq	%r14
	.cfi_def_cfa_offset 8
	ret
.LVL1273:
.L829:
	.cfi_restore_state
	.loc 1 2606 5 is_stmt 1 view .LVU3115
.LBB719:
.LBI719:
	.loc 1 2549 1 view .LVU3116
.LBB720:
	.loc 1 2551 3 view .LVU3117
	.loc 1 2552 3 view .LVU3118
	.loc 1 2554 3 view .LVU3119
	movq	%rsp, %rbx
.LVL1274:
	.loc 1 2551 8 is_stmt 0 view .LVU3120
	movl	$1, %r13d
.LBB721:
	.loc 1 2558 29 view .LVU3121
	leaq	.LC50(%rip), %rbp
.LBE721:
	.loc 1 2554 3 view .LVU3122
	movq	%rbx, %rdi
	call	init_tokenbuffer@PLT
.LVL1275:
	.loc 1 2554 3 view .LVU3123
	jmp	.L817
.LVL1276:
.L831:
.LBB722:
	.loc 1 2562 7 is_stmt 1 view .LVU3124
	.loc 1 2562 13 is_stmt 0 view .LVU3125
	call	print_factors
.LVL1277:
	andl	%eax, %r13d
.LVL1278:
	.loc 1 2562 13 view .LVU3126
.LBE722:
	.loc 1 2556 9 is_stmt 1 view .LVU3127
.L817:
	.loc 1 2556 3 view .LVU3128
.LBB723:
	.loc 1 2558 7 view .LVU3129
	.loc 1 2558 29 is_stmt 0 view .LVU3130
	movq	stdin(%rip), %rdi
	movq	%rbx, %rcx
	movl	$3, %edx
	movq	%rbp, %rsi
	call	readtoken@PLT
.LVL1279:
	.loc 1 2560 7 is_stmt 1 view .LVU3131
.LBE723:
	.loc 1 2564 3 is_stmt 0 view .LVU3132
	movq	8(%rsp), %rdi
.LBB724:
	.loc 1 2560 10 view .LVU3133
	addq	$1, %rax
.LVL1280:
	.loc 1 2560 10 view .LVU3134
	jne	.L831
.LBE724:
	.loc 1 2564 3 is_stmt 1 view .LVU3135
	call	free@PLT
.LVL1281:
	.loc 1 2566 3 view .LVU3136
	.loc 1 2566 3 is_stmt 0 view .LVU3137
.LBE720:
.LBE719:
	jmp	.L818
.LVL1282:
.L810:
	.loc 1 2591 9 is_stmt 1 view .LVU3138
	xorl	%edi, %edi
	call	usage
.LVL1283:
.L830:
	.loc 1 2631 1 is_stmt 0 view .LVU3139
	call	__stack_chk_fail@PLT
.LVL1284:
	.cfi_endproc
.LFE173:
	.size	main, .-main
	.data
	.align 4
	.type	line_buffered.8386, @object
	.size	line_buffered.8386, 4
line_buffered.8386:
	.long	-1
	.section	.rodata
	.type	__PRETTY_FUNCTION__.7799, @object
	.size	__PRETTY_FUNCTION__.7799, 5
__PRETTY_FUNCTION__.7799:
	.string	"mod2"
	.align 8
	.type	__PRETTY_FUNCTION__.7825, @object
	.size	__PRETTY_FUNCTION__.7825, 9
__PRETTY_FUNCTION__.7825:
	.string	"gcd2_odd"
	.align 16
	.type	__PRETTY_FUNCTION__.8227, @object
	.size	__PRETTY_FUNCTION__.8227, 25
__PRETTY_FUNCTION__.8227:
	.string	"factor_using_pollard_rho"
	.align 16
	.type	__PRETTY_FUNCTION__.7856, @object
	.size	__PRETTY_FUNCTION__.7856, 20
__PRETTY_FUNCTION__.7856:
	.string	"factor_insert_large"
	.align 8
	.type	__PRETTY_FUNCTION__.8003, @object
	.size	__PRETTY_FUNCTION__.8003, 9
__PRETTY_FUNCTION__.8003:
	.string	"mulredc2"
	.align 8
	.type	__PRETTY_FUNCTION__.8105, @object
	.size	__PRETTY_FUNCTION__.8105, 8
__PRETTY_FUNCTION__.8105:
	.string	"prime_p"
	.local	lbuf
	.comm	lbuf,16,16
	.align 32
	.type	binvert_table, @object
	.size	binvert_table, 128
binvert_table:
	.ascii	"\001\253\315\2679\243\305\357\361\033=\247)\0235\337\341\213"
	.ascii	"\255\227\031\203\245\317\321\373\035\207\t\363\025\277\301k\215"
	.ascii	"w\371c\205\257\261\333\375g\351\323\365\237\241KmW\331Ce\217"
	.ascii	"\221\273\335G\311\263\325\177\201+M7\271#Eoq\233\275'\251\223"
	.ascii	"\265_a\013-\027\231\003%OQ{\235\007\211s\225?A\353\r\367y\343"
	.ascii	"\005/1[}\347iSu\037!\313\355\327Y\303\345\017\021;]\307I3U\377"
	.local	dev_debug
	.comm	dev_debug,1,1
	.align 32
	.type	primes_dtab, @object
	.size	primes_dtab, 10800
primes_dtab:
	.quad	-6148914691236517205
	.quad	6148914691236517205
	.quad	-3689348814741910323
	.quad	3689348814741910323
	.quad	7905747460161236407
	.quad	2635249153387078802
	.quad	3353953467947191203
	.quad	1676976733973595601
	.quad	5675921253449092805
	.quad	1418980313362273201
	.quad	-1085102592571150095
	.quad	1085102592571150095
	.quad	-8737931403336103397
	.quad	970881267037344821
	.quad	-3208129404123400281
	.quad	802032351030850070
	.quad	3816567739388183093
	.quad	636094623231363848
	.quad	-1190112520884487201
	.quad	595056260442243600
	.quad	1495681951922396077
	.quad	498560650640798692
	.quad	-8098570568945656807
	.quad	449920587163647600
	.quad	-9008875012741874045
	.quad	428994048225803525
	.quad	5887258746928580303
	.quad	392483916461905353
	.quad	2436362424829563421
	.quad	348051774975651917
	.quad	-3751880150584993549
	.quad	312656679215416129
	.quad	5745707170499696405
	.quad	302405640552615600
	.quad	-1101298153654301589
	.quad	275324538413575397
	.quad	1818693077689674103
	.quad	259813296812810586
	.quad	9097024474706080249
	.quad	252695124297391118
	.quad	-7238595775759444305
	.quad	233503089540627235
	.quad	-6667497857967307813
	.quad	222249928598910260
	.quad	-829067149380204567
	.quad	207266787345051141
	.quad	-6656041676080766047
	.quad	190172619316593315
	.quad	4200743699953660269
	.quad	182641030432767837
	.quad	-2686419039860614313
	.quad	179094602657374287
	.quad	8619973866219416643
	.quad	172399477324388332
	.quad	-6430974998173972123
	.quad	169236184162472950
	.quad	-7999030616033345391
	.quad	163245522776190722
	.quad	9150747060186627967
	.quad	145249953336295682
	.quad	281629680514649643
	.quad	140814840257324821
	.quad	-2154364271382137415
	.quad	134647766961383588
	.quad	4246732448623781667
	.quad	132710389019493177
	.quad	-2352269378526721347
	.quad	123803651501406386
	.quad	8062815290495565607
	.quad	122163868037811600
	.quad	6579730370240349621
	.quad	117495185182863386
	.quad	2263404180823257867
	.quad	113170209041162893
	.quad	-8284465901366565097
	.quad	110459545351554201
	.quad	-8636914855320657115
	.quad	106628578460748853
	.quad	-1339707670157676933
	.quad	103054436165975148
	.quad	3770881385233444253
	.quad	101915713114417412
	.quad	2124755861893246783
	.quad	96579811904238490
	.quad	8124213711219232577
	.quad	95578984837873324
	.quad	-3932808381196960243
	.quad	93638294790403815
	.quad	2780916192016515319
	.quad	92697206400550510
	.quad	-4546117022904723621
	.quad	87425327363552377
	.quad	7527595115280579359
	.quad	82720825442643729
	.quad	1950316554048586955
	.quad	81263189752024456
	.quad	2094390156840385773
	.quad	80553467570784068
	.quad	7204522363551799129
	.quad	79170575423646144
	.quad	7255204782128442895
	.quad	77183029597111094
	.quad	-1148137597948727279
	.quad	76542506529915151
	.quad	2939720171109091891
	.quad	73493004277727297
	.quad	-71777214294589695
	.quad	71777214294589695
	.quad	-3016007586195858249
	.quad	70139711306880424
	.quad	-8091880299991550523
	.quad	68575256779589411
	.quad	-3063112484564316689
	.quad	68069166323651481
	.quad	-1265300135019788739
	.quad	66594743948409933
	.quad	-4201393668033492183
	.quad	65646776063023315
	.quad	5149444458738708755
	.quad	65182841249857072
	.quad	2707201348701401773
	.quad	62958170900032599
	.quad	-1141655170685607429
	.quad	60087114246610917
	.quad	9134400602415662215
	.quad	59314289626075728
	.quad	6365010734698503433
	.quad	58935284580541698
	.quad	-1396598920407032299
	.quad	58191621683626345
	.quad	3455281367280943203
	.quad	55730344633563600
	.quad	9196002980365592497
	.quad	54738112978366622
	.quad	-8505703319289706797
	.quad	53160645745560667
	.quad	-2695656010771309835
	.quad	52856000211202153
	.quad	8779186981255537313
	.quad	52257065364616293
	.quad	5600822016808749655
	.quad	51383688227603207
	.quad	-8695604154636927601
	.quad	50263607830271257
	.quad	3511310534137743069
	.quad	49455077945602015
	.quad	-1265475846745246285
	.quad	48672147951740241
	.quad	-3612286698507092353
	.quad	48163822646761231
	.quad	-5785354182500167859
	.quad	47420935922132523
	.quad	185861401246443845
	.quad	46465350311610961
	.quad	3220129888178724721
	.quad	46001855545410353
	.quad	2074694932495450793
	.quad	45102063749901104
	.quad	1849076971589024267
	.quad	44025642180691053
	.quad	-3549136033184022995
	.quad	43816494236839790
	.quad	8046375605237577039
	.quad	42799870240625409
	.quad	7540585914657253201
	.quad	42602180308798040
	.quad	-3067454025924367353
	.quad	42019918163347497
	.quad	-2831554395061511309
	.quad	41640505809728107
	.quad	205420312624827969
	.quad	41084062524965593
	.quad	686202733595322489
	.quad	40364866682077793
	.quad	3041111821262312197
	.quad	40014629227135686
	.quad	8127723090792113455
	.quad	39841779856824085
	.quad	-3199542333983883685
	.quad	39500522641776341
	.quad	8010277176057592351
	.quad	38510947961815347
	.quad	2386334448960373207
	.quad	37878324586672590
	.quad	1051952818867347139
	.quad	37569743530976683
	.quad	-5951755101938352325
	.quad	36967422993405915
	.quad	-476754817014362169
	.quad	36673447462643243
	.quad	5436172123882971989
	.quad	36241147492553146
	.quad	1805727346946616377
	.quad	35406418567580713
	.quad	7195288319381928355
	.quad	35271021173440825
	.quad	-4534966657677209547
	.quad	34097493666745936
	.quad	-5227139545566691957
	.quad	33723480939139948
	.quad	5133295029488295333
	.quad	33118032448311582
	.quad	-294885784482035461
	.quad	32765087164670606
	.quad	6386658317259721737
	.quad	32419585366800617
	.quad	1873749835858413299
	.quad	32306031652731263
	.quad	8184343991108570561
	.quad	31970093715267853
	.quad	8107768264083584867
	.quad	31425458387920871
	.quad	-5039414063981361487
	.quad	31107494222107169
	.quad	-1447407297937143449
	.quad	30795899956109435
	.quad	-7519887351179434519
	.quad	30693417759916059
	.quad	7810235958720518559
	.quad	30390023185682951
	.quad	-8335641286162391187
	.quad	30092567820080834
	.quad	5112468778937331161
	.quad	29897478239399597
	.quad	-8046237318096250301
	.quad	29800878955912038
	.quad	-3537331272454604985
	.quad	29234142747558718
	.quad	-28778071877862015
	.quad	28778071877862015
	.quad	-5995909037955359701
	.quad	28688559990217032
	.quad	-1796205373483310281
	.quad	28511196404496988
	.quad	-423738378415992763
	.quad	28249225227732850
	.quad	-4702660097698337893
	.quad	27992024391061535
	.quad	3544230707051608253
	.quad	27907328401981167
	.quad	7016889276180750689
	.quad	27409723735081057
	.quad	7711120491668837677
	.quad	27247775588935822
	.quad	-108033640255985661
	.quad	27008410063996415
	.quad	-1842004835146105733
	.quad	26695722248494285
	.quad	4578792394900801685
	.quad	26314898821268975
	.quad	-650449367902311411
	.quad	26017974716092456
	.quad	7799457855921701935
	.quad	25656111368163493
	.quad	3501582781529460967
	.quad	25373788271952615
	.quad	8027982755134170485
	.quad	25166090141486427
	.quad	-5691282339385355573
	.quad	24961764646426998
	.quad	8416482154761154775
	.quad	24827380987496031
	.quad	73688724661955599
	.quad	24562908220651866
	.quad	-7212993719706773155
	.quad	24368222026036395
	.quad	8193166224591101769
	.quad	24240136759145271
	.quad	8635666926574042369
	.quad	23987963684927895
	.quad	-6490962985833115187
	.quad	23863834506739394
	.quad	1757948926973591323
	.quad	23439319026314550
	.quad	3332912354597459765
	.quad	23145224684704581
	.quad	-6384534413644838631
	.quad	22801908620160137
	.quad	2229076349227541379
	.quad	22745677032934095
	.quad	4044353146489304861
	.quad	22468628591607249
	.quad	5536264624794968711
	.quad	22414026821032261
	.quad	-8944551842270290445
	.quad	22305615566758829
	.quad	-8633699276959355883
	.quad	22251802260204525
	.quad	-505691434678569353
	.quad	21986584116459537
	.quad	-5428057165886397955
	.quad	21625725760503577
	.quad	-6199139198632848151
	.quad	21524788884141833
	.quad	858986918449804499
	.quad	21474672961245112
	.quad	-4809406044709906273
	.quad	21375137976488472
	.quad	4964004106494246501
	.quad	21033915705484095
	.quad	-3999237364447814255
	.quad	20938415520669184
	.quad	-1399696322693703237
	.quad	20890989890950794
	.quad	-2682784651080645049
	.quad	20796780240935232
	.quad	-6467546433781298141
	.quad	20338196332645591
	.quad	-1984391788390270097
	.quad	20248895799900715
	.quad	-2348497341266613209
	.quad	20072626848432591
	.quad	-5182562113281154975
	.quad	19856559821000593
	.quad	-6654215044731940711
	.quad	19687026759561954
	.quad	1725094026021722149
	.quad	19603341204792297
	.quad	-175312245684673669
	.quad	19479138409408185
	.quad	-309703992842972535
	.quad	19356499552685783
	.quad	-8832308692996403721
	.quad	19076260676018150
	.quad	-7618068355877991965
	.quad	18997676697950104
	.quad	-6381780447199414991
	.quad	18881007240234955
	.quad	-9120160345699737625
	.quad	18765762028188760
	.quad	-5286453397511112673
	.quad	18614272526447579
	.quad	-6660810297427721747
	.quad	18502250826188115
	.quad	6965519813759503633
	.quad	18282204235589248
	.quad	7775675932353384541
	.quad	18210013893099261
	.quad	-8073844805568655565
	.quad	18102791043875909
	.quad	7497942008412795221
	.quad	18067330140753723
	.quad	-4902432469637649993
	.quad	17892089305246897
	.quad	-2982193862835910087
	.quad	17857448280454551
	.quad	1881958490676816623
	.quad	17754325383743553
	.quad	8370495880920635433
	.quad	17585075380085368
	.quad	-2755603063341959661
	.quad	17551611868420125
	.quad	-7980259688814970963
	.quad	17386186685871396
	.quad	5917535022704569239
	.quad	17353475139896097
	.quad	-4935237422900778075
	.quad	17256074905247475
	.quad	4836542834413267903
	.quad	16970325734783396
	.quad	-5833296705251874709
	.quad	16908106392034419
	.quad	-6210797638723801459
	.quad	16877167496532069
	.quad	-4439325829953802759
	.quad	16815628143764404
	.quad	-4900177709516680529
	.quad	16724156005176384
	.quad	-3759210244056229635
	.quad	16633673646266502
	.quad	-1403736120201711627
	.quad	16514542590608372
	.quad	-7523249141370413749
	.quad	16426308168931034
	.quad	8610659102608444377
	.quad	16339011579902171
	.quad	2852754513571068799
	.quad	16026710750399262
	.quad	-1551894340979901567
	.quad	15998910731751562
	.quad	-3568802593795914973
	.quad	15861344861315177
	.quad	-7892244902586238565
	.quad	15752983837497482
	.quad	-8528299969725161035
	.quad	15619597014148646
	.quad	6884505159775342347
	.quad	15540643701524474
	.quad	-943211557834268775
	.quad	15462484554660143
	.quad	-8171247166705646511
	.quad	15359487155461741
	.quad	-6006977666212096363
	.quad	15207538395473661
	.quad	6745111842892974913
	.quad	15157554703130280
	.quad	5399782811437464823
	.quad	15083192210719175
	.quad	-6874376554726586363
	.quad	15009555796346258
	.quad	1168843247562424879
	.quad	14985169840543908
	.quad	-5457969548082211715
	.quad	14912485104049758
	.quad	2171073962238033697
	.quad	14769210627469616
	.quad	2754557494723904451
	.quad	14651901567680342
	.quad	8710561218830743637
	.quad	14445375155606540
	.quad	-7644076903100908801
	.quad	14422786609624356
	.quad	-690135397925220949
	.quad	14377820790108769
	.quad	715544766241642809
	.quad	14310895324832856
	.quad	-8273171819270201693
	.quad	14288725076459761
	.quad	-9045589229667906575
	.quad	14222624574949538
	.quad	4069343235322552893
	.quad	14178896290322483
	.quad	-990999297896906073
	.quad	14157132827098658
	.quad	-6901650996208087789
	.quad	14113805718216948
	.quad	7286393982109686423
	.quad	13985401117293064
	.quad	-8071323296445208807
	.quad	13964227156479600
	.quad	-597746793646956081
	.quad	13901088224347815
	.quad	8864195903163884465
	.quad	13553816365694012
	.quad	-6531253936851077529
	.quad	13494326315808011
	.quad	7241656996161287925
	.quad	13435356208091443
	.quad	-8081303522515770259
	.quad	13357526483497140
	.quad	-6935659315776428985
	.quad	13185664098434275
	.quad	-7383934462435902847
	.quad	13092082380205501
	.quad	-6455712261916624529
	.quad	12963277634370731
	.quad	-7536406303414624101
	.quad	12926940486131430
	.quad	4001742941112638909
	.quad	12908848197137544
	.quad	6539390083352723113
	.quad	12872815124710084
	.quad	3589359513994909279
	.quad	12819141121410390
	.quad	-2473164029232655849
	.quad	12748268191920906
	.quad	6496406768894266627
	.quad	12713124792356686
	.quad	-2145560735345433051
	.quad	12695625652931556
	.quad	-5525172830850633349
	.quad	12643416088903051
	.quad	-2834102080665097665
	.quad	12540274693208396
	.quad	7535638193514030201
	.quad	12455600319857901
	.quad	-7600108313578244125
	.quad	12438802477214802
	.quad	7517637463798243631
	.quad	12405342349502052
	.quad	9155234298503263025
	.quad	12388679700275051
	.quad	-1235548832800371843
	.quad	12355488328003718
	.quad	-7026745074108174765
	.quad	12306033404742862
	.quad	5310611298519956951
	.quad	12208301835678061
	.quad	3355054568888736571
	.quad	12112110356999048
	.quad	-5120748681467380429
	.quad	12048820426982071
	.quad	7651274275550300087
	.quad	11955116055547343
	.quad	-2619937828415817531
	.quad	11908808310980988
	.quad	-4418666320296170767
	.quad	11878135269613362
	.quad	-8673164468267544153
	.quad	11832420829832938
	.quad	5579934072072959455
	.quad	11772012810280505
	.quad	4004035473669609867
	.quad	11742039512227594
	.quad	-572444876258244477
	.quad	11682548495066213
	.quad	-7283142796000296753
	.quad	11653028473600474
	.quad	8663154699613126933
	.quad	11550872932817502
	.quad	-4528151418468365887
	.quad	11522013787451312
	.quad	1503748272343466871
	.quad	11478994445369976
	.quad	4574425659049167865
	.quad	11464725962529242
	.quad	2904818967589724805
	.quad	11436295147991042
	.quad	3999263230310100443
	.quad	11393912337065813
	.quad	-8739728222460786947
	.quad	11379854456329149
	.quad	-8401375143588677165
	.quad	11337888182980670
	.quad	-5318792426872882323
	.quad	11268628023035767
	.quad	2237655738573095881
	.quad	11132615614791521
	.quad	5291098570751326591
	.quad	11092449833860223
	.quad	-5698904137948661717
	.quad	11065833277570216
	.quad	-6134177927446855091
	.quad	11052572842246585
	.quad	-3813561976254189643
	.quad	10895891360726256
	.quad	3782832609104846177
	.quad	10870208646853006
	.quad	-3365797918098858741
	.quad	10857412639028576
	.quad	5137887758388383013
	.quad	10793881845353745
	.quad	4062356771607158665
	.quad	10718619450150814
	.quad	2141235527998787187
	.quad	10706177639993935
	.quad	-74510795450644467
	.quad	10644399350092066
	.quad	3401151549489239557
	.quad	10595487693112895
	.quad	8806287668845887835
	.quad	10559097924275644
	.quad	5387754116223211881
	.quad	10522957258248460
	.quad	4184338195230307615
	.quad	10487063145940620
	.quad	7816768873102584337
	.quad	10380835156842741
	.quad	6114428349726497479
	.quad	10345902453005917
	.quad	-1445184202752846797
	.quad	10322744305377477
	.quad	-360892142302869931
	.quad	10311204065796283
	.quad	-2529897715828017351
	.quad	10242500873797641
	.quad	-4695720054102762725
	.quad	10185943718227251
	.quad	-1983303257513478945
	.quad	10118894170987137
	.quad	-7072427274573514601
	.quad	10074682727312698
	.quad	-8139738180873462137
	.quad	9987408810887683
	.quad	-7919907853247679603
	.quad	9912275160510237
	.quad	-5542915600080909725
	.quad	9880419964493600
	.quad	5176130752911552431
	.quad	9859296672212480
	.quad	-7879015087542787663
	.quad	9848768859428484
	.quad	8451891264459357693
	.quad	9827780540069020
	.quad	-4908659945106320281
	.quad	9817319890212640
	.quad	-4550652587797062495
	.quad	9765348900852065
	.quad	-9063260896814687643
	.quad	9703705456975040
	.quad	2843913349591299515
	.quad	9673174658473807
	.quad	-6393199854087523639
	.quad	9642835375697622
	.quad	-7785653247060219869
	.quad	9552948769399042
	.quad	6680145293117788997
	.quad	9543064704453984
	.quad	-4656643450110363979
	.quad	9464722459573910
	.quad	7043989920509285471
	.quad	9455020027529242
	.quad	-1318292404659425635
	.quad	9349591522407274
	.quad	736378363730699635
	.quad	9321245110515185
	.quad	-6582154780201344789
	.quad	9283716192103448
	.quad	-6719687003268005255
	.quad	9255767222132238
	.quad	-4452343837520282363
	.quad	9237227878672784
	.quad	2768395808960913199
	.quad	9227986029869710
	.quad	-2127407828770297765
	.quad	9209557700304319
	.quad	-3403153680430752685
	.quad	9172920971511462
	.quad	493864243916864545
	.quad	9145634146608602
	.quad	-7061999704587376445
	.quad	9100515083231155
	.quad	5309462069515218405
	.quad	9091544639580853
	.quad	-8748406826521400889
	.quad	9046956387302379
	.quad	-6649094308107680563
	.quad	8985262578523892
	.quad	3818109413220542191
	.quad	8941708227682768
	.quad	3798121302755084093
	.quad	8915777705997849
	.quad	-2747953225780855839
	.quad	8864365244454373
	.quad	-5100971957012338805
	.quad	8855854092035310
	.quad	-5453589407512598633
	.quad	8838880725304049
	.quad	7205621428505023513
	.quad	8830418417285568
	.quad	-8533486658204847365
	.quad	8788348772610553
	.quad	6859637185154901951
	.quad	8738391318668664
	.quad	34920480972474305
	.quad	8730120243118576
	.quad	5588609641870672049
	.quad	8664511072667708
	.quad	-2129469283027944485
	.quad	8656379199300587
	.quad	-5118820419143548951
	.quad	8632074905806996
	.quad	-2696791637118678027
	.quad	8615947722423891
	.quad	-7135954660338412641
	.quad	8607906707283971
	.quad	-2973070224606230567
	.quad	8567925719326312
	.quad	6700922766248032401
	.quad	8536207345538894
	.quad	4893170295825663531
	.quad	8465692553331597
	.quad	-8013406299836605037
	.quad	8373465308084226
	.quad	-8082465572848725153
	.quad	8358289113597440
	.quad	8552354007964753709
	.quad	8335627688074808
	.quad	-1387035686766994651
	.quad	8305602914772423
	.quad	-2053303207131729259
	.quad	8246197619002928
	.quad	-3336726819942996161
	.quad	8238831654180237
	.quad	-4342345461845137429
	.quad	8224139132282457
	.quad	6883725020842302691
	.quad	8194910739097979
	.quad	-4581171995367656621
	.quad	8137072815928342
	.quad	4089339915855400821
	.quad	8129900429135985
	.quad	-3424780465950475487
	.quad	8115593521209657
	.quad	-2409964811032637607
	.quad	8087130238364555
	.quad	-3863572545389976049
	.quad	8065913455928968
	.quad	-5373931548730039459
	.quad	8044807707679699
	.quad	4946971854333950281
	.quad	8030798464827841
	.quad	-8676121292355380275
	.quad	7989061963494825
	.quad	191571552474698935
	.quad	7982148019779122
	.quad	-5084121920015105739
	.quad	7906877014020382
	.quad	-8462315686656840053
	.quad	7886594302569282
	.quad	-5539539121665021267
	.quad	7879856503079688
	.quad	-7914729988165964413
	.quad	7859712004137005
	.quad	-1231875295437005361
	.quad	7846339461382199
	.quad	1017427547552923933
	.quad	7826365750407107
	.quad	-147822917503366293
	.quad	7780153552808752
	.quad	-388025748290062087
	.quad	7760514965801241
	.quad	-1169869111772424315
	.quad	7747477561406783
	.quad	-8205433788557333073
	.quad	7740975272223899
	.quad	-4895452382893200387
	.quad	7721533726960883
	.quad	2227793162265800425
	.quad	7708626859051212
	.quad	3252593890445660831
	.quad	7689347258736786
	.quad	-9089478208032744637
	.quad	7651075932687495
	.quad	5975920814941902737
	.quad	7632082777703579
	.quad	2047946411815051335
	.quad	7613183687044800
	.quad	499583548980234061
	.quad	7569447711821728
	.quad	-2856562580853015367
	.quad	7557043864690516
	.quad	5435268687022716271
	.quad	7538514129019023
	.quad	7749282890663670931
	.quad	7501725934814783
	.quad	-3723744851523046901
	.quad	7477399300247082
	.quad	-5922650543681918311
	.quad	7459257611690073
	.quad	-7104640228630969819
	.quad	7447211979697033
	.quad	-1849833305034397705
	.quad	7369853804917919
	.quad	-219516986200430999
	.quad	7317232873347699
	.quad	6646950057377760203
	.quad	7288322431335263
	.quad	3465575786986788547
	.quad	7265358043997460
	.quad	3358569605240866063
	.quad	7253930032917637
	.quad	-7497382055850567075
	.quad	7236855266265026
	.quad	-1677634114112354361
	.quad	7231181526346355
	.quad	-5345732248188806315
	.quad	7214213560308780
	.quad	-5135619327228948453
	.quad	7152673157700485
	.quad	-790269622609710625
	.quad	7119546149637032
	.quad	8330558160552983009
	.quad	7114054791249345
	.quad	-4291749196144767279
	.quad	7070427011770621
	.quad	2283815468048106505
	.quad	7048813172987983
	.quad	-2822260348553044715
	.quad	7038055732052480
	.quad	-6536578891291686919
	.quad	7005979519069332
	.quad	-4843402769636621977
	.quad	6968924848398017
	.quad	5963776123190253985
	.quad	6942696301734870
	.quad	7978095406079723339
	.quad	6937474266156281
	.quad	4419460277516595543
	.quad	6927053726515040
	.quad	3549841427887199375
	.quad	6906306279936185
	.quad	-2590950979348072995
	.quad	6890827072734236
	.quad	3417082297664423091
	.quad	6875417097916344
	.quad	-3597355375743879809
	.quad	6865182014778396
	.quad	8472193726675826049
	.quad	6860075892045203
	.quad	575390457553509965
	.quad	6849886399446547
	.quad	-5741113383444247261
	.quad	6834658789814580
	.quad	-1751316301050371173
	.quad	6814460315371094
	.quad	-8056416445323537113
	.quad	6804405781523257
	.quad	8540033378761222569
	.quad	6799389632771674
	.quad	7639218031260373343
	.quad	6784385462931059
	.quad	2142769465506019737
	.quad	6759525127779242
	.quad	13509149815971843
	.quad	6754574907985921
	.quad	5155128041029374877
	.quad	6729932168445659
	.quad	7414933503619154069
	.quad	6710347062098781
	.quad	8831387101034939713
	.quad	6700597193501471
	.quad	-2346676513894384593
	.quad	6666694641745410
	.quad	-6934966083166284439
	.quad	6642687819124793
	.quad	-3604688246744964371
	.quad	6614106874761402
	.quad	-7514850595416610601
	.quad	6609367278290774
	.quad	5111271597112943333
	.quad	6595189157565088
	.quad	3839504389493990929
	.quad	6585770822459675
	.quad	-4429061277776142789
	.quad	6581071735180004
	.quad	-9128488110260668501
	.quad	6543719075455676
	.quad	8647114765226362353
	.quad	6511381600321055
	.quad	-5845478647255864259
	.quad	6502200942442563
	.quad	-7623962112771270893
	.quad	6488478393847890
	.quad	1067594799074737291
	.quad	6470271509543862
	.quad	-632754959476211431
	.quad	6456683259961341
	.quad	1972982763563482277
	.quad	6447656090076739
	.quad	-6317641422951586625
	.quad	6407344242344408
	.quad	9181839706934750839
	.quad	6389589218465379
	.quad	7144372402727689649
	.quad	6367533335764429
	.quad	2923011461903683687
	.quad	6354372743268877
	.quad	-1553610277778906891
	.quad	6341266439913905
	.quad	9106380344923467373
	.quad	6323875239530185
	.quad	5123745449923425167
	.quad	6302269926105074
	.quad	-6100794569460933709
	.quad	6276537622902195
	.quad	-5959429003155744071
	.quad	6246780925739773
	.quad	386776507463642949
	.quad	6238330765542628
	.quad	273930725360519835
	.quad	6225698303648178
	.quad	-3274312605875693399
	.quad	6213116899194864
	.quad	-5296221034962722157
	.quad	6208934390343167
	.quad	8051613201895899655
	.quad	6150965012907486
	.quad	-5685850805791847799
	.quad	6146865735991186
	.quad	3394053874737659115
	.quad	6126451037432597
	.quad	6091886002480431587
	.quad	6110216652437744
	.quad	-3508725716964271313
	.quad	6102131681676993
	.quad	-2599672855959067531
	.quad	6074001999904363
	.quad	-2019982169202657247
	.quad	6066012520128099
	.quad	3817610859465636953
	.quad	6050096449232388
	.quad	-1151038261378152355
	.quad	6026378331822787
	.quad	4559058365788014387
	.quad	6014588873071259
	.quad	-1228185298834185801
	.quad	5991147799191150
	.quad	1352242672934920099
	.quad	5983374659004071
	.quad	-4866978446122785551
	.quad	5971752694629184
	.quad	5684136642847780781
	.quad	5933336787941316
	.quad	3761503440487103183
	.quad	5914313585671545
	.quad	4604297863960186065
	.quad	5910523573761471
	.quad	-5627521223634058303
	.quad	5880377454163070
	.quad	-1172240138733993005
	.quad	5832040491213895
	.quad	-3861759179308314721
	.quad	5824674478594743
	.quad	-8335669773919873119
	.quad	5820998445474771
	.quad	3635997653007195493
	.quad	5799039318990742
	.quad	-7032567947774428997
	.quad	5788121767715579
	.quad	-6665338739262649017
	.quad	5780866209247744
	.quad	8730959730172863019
	.quad	5759208265285529
	.quad	1965966492118624697
	.quad	5748440035434575
	.quad	-1123892396160109455
	.quad	5734144878367905
	.quad	-7783025518836162883
	.quad	5727023928503431
	.quad	5541449907555981749
	.quad	5712834956243280
	.quad	-2967593709797014917
	.quad	5674175353340372
	.quad	-8834929992880258659
	.quad	5670686773350615
	.quad	-8167087796834256503
	.quad	5663722466597958
	.quad	3792365305119791219
	.quad	5660246724059389
	.quad	2227595203031266551
	.quad	5639481526661434
	.quad	7162861218072729803
	.quad	5591616875934995
	.quad	-4392348028456742675
	.quad	5588229043838095
	.quad	9131333549640924099
	.quad	5578090134172830
	.quad	-6520113887809805295
	.quad	5567987948599321
	.quad	-1039331467846847289
	.quad	5557922287951055
	.quad	-9165084100419641805
	.quad	5551232041441333
	.quad	4327698144057422593
	.quad	5541226816974932
	.quad	1030049353860695467
	.quad	5537899751939222
	.quad	7432774234904805871
	.quad	5518020961325022
	.quad	-2303776224323451621
	.quad	5511426373979549
	.quad	-2965537898125381921
	.quad	5491736848380336
	.quad	-307354260079659295
	.quad	5488468929993915
	.quad	2670427501622741379
	.quad	5472187503325289
	.quad	306260796954561189
	.quad	5468942802760021
	.quad	6221489665461793301
	.quad	5443123066895707
	.quad	-8676660807303667009
	.quad	5439912731851828
	.quad	3021216082515388847
	.quad	5414365739274890
	.quad	-5761567296388626435
	.quad	5404847369970568
	.quad	445988860506231513
	.quad	5373359765135319
	.quad	8824913807370472649
	.quad	5348432610527559
	.quad	1371366279127380609
	.quad	5336055560806928
	.quad	4130663581948830541
	.quad	5329888492837200
	.quad	3861937468506908727
	.quad	5326810301388839
	.quad	-7624512332744674781
	.quad	5320664572745760
	.quad	-4791154917962613435
	.quad	5317597023265941
	.quad	1976248147684724235
	.quad	5284085956376268
	.quad	-4460115886355610365
	.quad	5272004593800957
	.quad	2553437089097932807
	.quad	5253985780036898
	.quad	-4311408481259383403
	.quad	5245022483283921
	.quad	8849416210013201399
	.quad	5230151424357684
	.quad	-501809983302951815
	.quad	5227187326072414
	.quad	-5310030773552961787
	.quad	5221269197200552
	.quad	-7490243355162652069
	.quad	5212417087795860
	.quad	-2167140789229927555
	.quad	5209473051033479
	.quad	-7993415743245441453
	.quad	5200660860927417
	.quad	-8551779864365209619
	.quad	5186039942004372
	.quad	-4307177388382308905
	.quad	5183125617788578
	.quad	-1704683714456497349
	.quad	5165708225625749
	.quad	-5326426521143724203
	.quad	5151282902460081
	.quad	-7815282585512447489
	.quad	5148407500337580
	.quad	-1529955394924978119
	.quad	5134078506459658
	.quad	1493332206687881639
	.quad	5114151392766717
	.quad	8536660971835696181
	.quad	5105658475978287
	.quad	-1178102814771055135
	.quad	5100012185156082
	.quad	-5570173341605920361
	.quad	5091566125782376
	.quad	2667182770227902671
	.quad	5080348133767433
	.quad	-3266346764770126819
	.quad	5071967026040569
	.quad	4501552424245893875
	.quad	5063613525585932
	.quad	720930418841340771
	.quad	5041471460428956
	.quad	-4708417106256020121
	.quad	5024991575513361
	.quad	8708590858647525865
	.quad	5022255397143901
	.quad	-7620507002438076939
	.quad	5016791970005317
	.quad	-7051843914387476925
	.quad	4997763227772839
	.quad	419130782307709585
	.quad	4989652170329876
	.quad	3982423268007006685
	.quad	4984259409270346
	.quad	-8280892122600809771
	.quad	4973508782342828
	.quad	3625859079828363063
	.quad	4960135540120879
	.quad	-6454133155920916369
	.quad	4949488616503770
	.quad	1319389410040302781
	.quad	4941533370937463
	.quad	-1430745060544469101
	.quad	4933603657049893
	.quad	-5444266397718054319
	.quad	4904744502448697
	.quad	783509172230827783
	.quad	4896932326442673
	.quad	-8521035137258776695
