	.file	"false.c"
	.text
.Ltext0:
	.section	.rodata.str1.1,"aMS",@progbits,1
.LC0:
	.string	"coreutils"
.LC1:
	.string	"false"
.LC2:
	.string	" invocation"
.LC3:
	.string	""
	.section	.rodata.str1.8,"aMS",@progbits,1
	.align 8
.LC4:
	.string	"Usage: %s [ignored command line arguments]\n  or:  %s OPTION\n"
	.align 8
.LC5:
	.string	"Exit with a status code indicating failure."
	.section	.rodata.str1.1
.LC6:
	.string	"%s\n\n"
	.section	.rodata.str1.8
	.align 8
.LC7:
	.string	"      --help     display this help and exit\n"
	.align 8
.LC8:
	.string	"      --version  output version information and exit\n"
	.align 8
.LC9:
	.string	"\nNOTE: your shell may have its own version of %s, which usually supersedes\nthe version described here.  Please refer to your shell's documentation\nfor details about the options it supports.\n"
	.section	.rodata.str1.1
.LC10:
	.string	"["
.LC11:
	.string	"test invocation"
.LC12:
	.string	"Multi-call invocation"
.LC13:
	.string	"sha224sum"
.LC14:
	.string	"sha2 utilities"
.LC15:
	.string	"sha256sum"
.LC16:
	.string	"sha384sum"
.LC17:
	.string	"sha512sum"
.LC18:
	.string	"\n%s online help: <%s>\n"
	.section	.rodata.str1.8
	.align 8
.LC19:
	.string	"https://www.gnu.org/software/coreutils/"
	.section	.rodata.str1.1
.LC20:
	.string	"GNU coreutils"
.LC21:
	.string	"en_"
	.section	.rodata.str1.8
	.align 8
.LC22:
	.string	"Report any translation bugs to <https://translationproject.org/team/>\n"
	.section	.rodata.str1.1
.LC23:
	.string	"Full documentation <%s%s>\n"
	.section	.rodata.str1.8
	.align 8
.LC24:
	.string	"or available locally via: info '(coreutils) %s%s'\n"
	.text
	.p2align 4
	.globl	usage
	.type	usage, @function
usage:
.LVL0:
.LFB135:
	.file 1 "src/true.c"
	.loc 1 37 1 view -0
	.cfi_startproc
	.loc 1 37 1 is_stmt 0 view .LVU1
	endbr64
	pushq	%r13
	.cfi_def_cfa_offset 16
	.cfi_offset 13, -16
	.loc 1 38 11 view .LVU2
	movl	$5, %edx
	leaq	.LC4(%rip), %rsi
	.loc 1 37 1 view .LVU3
	pushq	%r12
	.cfi_def_cfa_offset 24
	.cfi_offset 12, -24
	pushq	%rbp
	.cfi_def_cfa_offset 32
	.cfi_offset 6, -32
	movl	%edi, %ebp
	.loc 1 38 11 view .LVU4
	xorl	%edi, %edi
.LVL1:
	.loc 1 37 1 view .LVU5
	pushq	%rbx
	.cfi_def_cfa_offset 40
	.cfi_offset 3, -40
.LBB34:
.LBB35:
	.file 2 "src/system.h"
	.loc 2 636 67 view .LVU6
	leaq	.LC15(%rip), %rbx
.LBE35:
.LBE34:
	.loc 1 37 1 view .LVU7
	subq	$136, %rsp
	.cfi_def_cfa_offset 176
	.loc 1 38 3 view .LVU8
	movq	program_name(%rip), %r12
	.loc 1 37 1 view .LVU9
	movq	%fs:40, %rax
	movq	%rax, 120(%rsp)
	xorl	%eax, %eax
	.loc 1 38 3 is_stmt 1 view .LVU10
	.loc 1 38 11 is_stmt 0 view .LVU11
	call	dcgettext@PLT
.LVL2:
.LBB62:
.LBB63:
	.file 3 "/usr/include/x86_64-linux-gnu/bits/stdio2.h"
	.loc 3 107 10 view .LVU12
	movq	%r12, %rcx
	movq	%r12, %rdx
	movl	$1, %edi
.LBE63:
.LBE62:
	.loc 1 38 11 view .LVU13
	movq	%rax, %rsi
.LVL3:
.LBB65:
.LBI62:
	.loc 3 105 1 is_stmt 1 view .LVU14
.LBB64:
	.loc 3 107 3 view .LVU15
	.loc 3 107 10 is_stmt 0 view .LVU16
	xorl	%eax, %eax
.LVL4:
	.loc 3 107 10 view .LVU17
	call	__printf_chk@PLT
.LVL5:
	.loc 3 107 10 view .LVU18
.LBE64:
.LBE65:
	.loc 1 43 3 is_stmt 1 view .LVU19
	movl	$5, %edx
	leaq	.LC5(%rip), %rsi
	xorl	%edi, %edi
	call	dcgettext@PLT
.LVL6:
.LBB66:
.LBB67:
	.loc 3 107 10 is_stmt 0 view .LVU20
	leaq	.LC6(%rip), %rsi
	movl	$1, %edi
.LBE67:
.LBE66:
	.loc 1 43 3 view .LVU21
	movq	%rax, %rdx
.LVL7:
.LBB69:
.LBI66:
	.loc 3 105 1 is_stmt 1 view .LVU22
.LBB68:
	.loc 3 107 3 view .LVU23
	.loc 3 107 10 is_stmt 0 view .LVU24
	xorl	%eax, %eax
	call	__printf_chk@PLT
.LVL8:
	.loc 3 107 10 view .LVU25
.LBE68:
.LBE69:
	.loc 1 47 3 is_stmt 1 view .LVU26
	movq	stdout(%rip), %r12
	movl	$5, %edx
	xorl	%edi, %edi
	leaq	.LC7(%rip), %rsi
	call	dcgettext@PLT
.LVL9:
	movq	%r12, %rsi
	movq	%rax, %rdi
	call	fputs_unlocked@PLT
.LVL10:
	.loc 1 48 3 view .LVU27
	movl	$5, %edx
	movq	stdout(%rip), %r12
	xorl	%edi, %edi
	leaq	.LC8(%rip), %rsi
	call	dcgettext@PLT
.LVL11:
	movq	%r12, %rsi
	movq	%rax, %rdi
	call	fputs_unlocked@PLT
.LVL12:
	.loc 1 49 3 view .LVU28
	.loc 1 49 11 is_stmt 0 view .LVU29
	movl	$5, %edx
	leaq	.LC9(%rip), %rsi
	xorl	%edi, %edi
	call	dcgettext@PLT
.LVL13:
.LBB70:
.LBB71:
	.loc 3 107 10 view .LVU30
	movl	$1, %edi
	leaq	.LC1(%rip), %rdx
.LBE71:
.LBE70:
	.loc 1 49 11 view .LVU31
	movq	%rax, %rsi
.LVL14:
.LBB73:
.LBI70:
	.loc 3 105 1 is_stmt 1 view .LVU32
.LBB72:
	.loc 3 107 3 view .LVU33
	.loc 3 107 10 is_stmt 0 view .LVU34
	xorl	%eax, %eax
.LVL15:
	.loc 3 107 10 view .LVU35
	call	__printf_chk@PLT
.LVL16:
	.loc 3 107 10 view .LVU36
.LBE72:
.LBE73:
	.loc 1 50 3 is_stmt 1 view .LVU37
.LBB74:
.LBI34:
	.loc 2 634 1 view .LVU38
.LBB60:
	.loc 2 636 3 view .LVU39
	.loc 2 636 67 is_stmt 0 view .LVU40
	leaq	.LC10(%rip), %rax
	movq	%rbx, 48(%rsp)
	leaq	.LC16(%rip), %rbx
	movq	%rax, (%rsp)
	leaq	.LC11(%rip), %rax
	leaq	.LC0(%rip), %rdi
	movq	%rax, 8(%rsp)
	leaq	.LC12(%rip), %rax
	movq	%rax, 24(%rsp)
	leaq	.LC13(%rip), %rax
	movq	%rax, 32(%rsp)
	leaq	.LC14(%rip), %rax
	movq	%rbx, 64(%rsp)
	leaq	.LC17(%rip), %rbx
	movq	%rax, 40(%rsp)
	movq	%rax, 56(%rsp)
	movq	%rax, 72(%rsp)
	movq	%rbx, 80(%rsp)
	leaq	.LC1(%rip), %rbx
	movq	%rax, 88(%rsp)
	.loc 2 647 25 view .LVU41
	movq	%rsp, %rax
	.loc 2 636 67 view .LVU42
	movq	%rdi, 16(%rsp)
	movq	$0, 96(%rsp)
	movq	$0, 104(%rsp)
	.loc 2 646 3 is_stmt 1 view .LVU43
.LVL17:
	.loc 2 647 3 view .LVU44
	.loc 2 649 3 view .LVU45
	.loc 2 649 9 view .LVU46
	.loc 2 649 9 is_stmt 0 view .LVU47
	jmp	.L3
	.p2align 4,,10
	.p2align 3
.L29:
	.loc 2 649 9 view .LVU48
	movq	16(%rax), %rdi
.L3:
	.loc 2 650 5 is_stmt 1 view .LVU49
	.loc 2 650 13 is_stmt 0 view .LVU50
	addq	$16, %rax
.LVL18:
	.loc 2 649 9 is_stmt 1 view .LVU51
	testq	%rdi, %rdi
	je	.L2
	.loc 2 649 33 is_stmt 0 view .LVU52
	movl	$6, %ecx
	movq	%rbx, %rsi
	repz cmpsb
	seta	%dl
	sbbb	$0, %dl
	.loc 2 649 28 view .LVU53
	testb	%dl, %dl
	jne	.L29
.L2:
	.loc 2 652 3 is_stmt 1 view .LVU54
	.loc 2 652 15 is_stmt 0 view .LVU55
	movq	8(%rax), %r12
	.loc 2 655 11 view .LVU56
	movl	$5, %edx
	leaq	.LC18(%rip), %rsi
	xorl	%edi, %edi
	.loc 2 652 6 view .LVU57
	testq	%r12, %r12
	je	.L4
	.loc 2 653 5 is_stmt 1 view .LVU58
.LVL19:
	.loc 2 655 3 view .LVU59
	.loc 2 655 11 is_stmt 0 view .LVU60
	call	dcgettext@PLT
.LVL20:
.LBB36:
.LBB37:
	.loc 3 107 10 view .LVU61
	leaq	.LC19(%rip), %rcx
	movl	$1, %edi
	leaq	.LC20(%rip), %rdx
.LBE37:
.LBE36:
	.loc 2 655 11 view .LVU62
	movq	%rax, %rsi
.LVL21:
.LBB41:
.LBI36:
	.loc 3 105 1 is_stmt 1 view .LVU63
.LBB38:
	.loc 3 107 3 view .LVU64
	.loc 3 107 10 is_stmt 0 view .LVU65
	xorl	%eax, %eax
.LVL22:
	.loc 3 107 10 view .LVU66
	call	__printf_chk@PLT
.LVL23:
	.loc 3 107 10 view .LVU67
.LBE38:
.LBE41:
	.loc 2 659 3 is_stmt 1 view .LVU68
	.loc 2 659 29 is_stmt 0 view .LVU69
	movl	$5, %edi
	xorl	%esi, %esi
	call	setlocale@PLT
.LVL24:
	movq	%rax, %rdi
.LVL25:
	.loc 2 660 3 is_stmt 1 view .LVU70
	.loc 2 660 6 is_stmt 0 view .LVU71
	testq	%rax, %rax
	je	.L5
	.loc 2 660 22 view .LVU72
	movl	$3, %edx
	leaq	.LC21(%rip), %rsi
	call	strncmp@PLT
.LVL26:
	.loc 2 660 19 view .LVU73
	testl	%eax, %eax
	jne	.L8
.LVL27:
.L5:
	.loc 2 669 3 is_stmt 1 view .LVU74
	.loc 2 669 11 is_stmt 0 view .LVU75
	xorl	%edi, %edi
	movl	$5, %edx
	leaq	.LC23(%rip), %rsi
	call	dcgettext@PLT
.LVL28:
.LBB42:
.LBB43:
	.loc 3 107 10 view .LVU76
	leaq	.LC1(%rip), %rcx
	leaq	.LC19(%rip), %rdx
	movl	$1, %edi
.LBE43:
.LBE42:
	.loc 2 669 11 view .LVU77
	movq	%rax, %rsi
.LVL29:
.LBB49:
.LBI42:
	.loc 3 105 1 is_stmt 1 view .LVU78
.LBB44:
	.loc 3 107 3 view .LVU79
	.loc 3 107 10 is_stmt 0 view .LVU80
	xorl	%eax, %eax
.LVL30:
	.loc 3 107 10 view .LVU81
.LBE44:
.LBE49:
	.loc 2 671 3 view .LVU82
	leaq	.LC2(%rip), %r13
.LBB50:
.LBB45:
	.loc 3 107 10 view .LVU83
	call	__printf_chk@PLT
.LVL31:
	.loc 3 107 10 view .LVU84
.LBE45:
.LBE50:
	.loc 2 671 3 is_stmt 1 view .LVU85
	cmpq	%rbx, %r12
	leaq	.LC3(%rip), %rcx
	cmovne	%rcx, %r13
.L6:
	.loc 2 671 11 is_stmt 0 view .LVU86
	movl	$5, %edx
	leaq	.LC24(%rip), %rsi
	xorl	%edi, %edi
	call	dcgettext@PLT
.LVL32:
.LBB51:
.LBB52:
	.loc 3 107 10 view .LVU87
	movl	$1, %edi
	movq	%r13, %rcx
	movq	%r12, %rdx
.LBE52:
.LBE51:
	.loc 2 671 11 view .LVU88
	movq	%rax, %rsi
.LVL33:
.LBB54:
.LBI51:
	.loc 3 105 1 is_stmt 1 view .LVU89
.LBB53:
	.loc 3 107 3 view .LVU90
	.loc 3 107 10 is_stmt 0 view .LVU91
	xorl	%eax, %eax
.LVL34:
	.loc 3 107 10 view .LVU92
	call	__printf_chk@PLT
.LVL35:
	.loc 3 107 10 view .LVU93
.LBE53:
.LBE54:
.LBE60:
.LBE74:
	.loc 1 51 3 is_stmt 1 view .LVU94
	movl	%ebp, %edi
	call	exit@PLT
.LVL36:
.L4:
.LBB75:
.LBB61:
	.loc 2 655 3 view .LVU95
	.loc 2 655 11 is_stmt 0 view .LVU96
	call	dcgettext@PLT
.LVL37:
.LBB55:
.LBB39:
	.loc 3 107 10 view .LVU97
	leaq	.LC19(%rip), %rcx
	movl	$1, %edi
	leaq	.LC20(%rip), %rdx
.LBE39:
.LBE55:
	.loc 2 655 11 view .LVU98
	movq	%rax, %rsi
.LVL38:
.LBB56:
	.loc 3 105 1 is_stmt 1 view .LVU99
.LBB40:
	.loc 3 107 3 view .LVU100
	.loc 3 107 10 is_stmt 0 view .LVU101
	xorl	%eax, %eax
.LVL39:
	.loc 3 107 10 view .LVU102
	call	__printf_chk@PLT
.LVL40:
	.loc 3 107 10 view .LVU103
.LBE40:
.LBE56:
	.loc 2 659 3 is_stmt 1 view .LVU104
	.loc 2 659 29 is_stmt 0 view .LVU105
	movl	$5, %edi
	xorl	%esi, %esi
	call	setlocale@PLT
.LVL41:
	movq	%rax, %rdi
.LVL42:
	.loc 2 660 3 is_stmt 1 view .LVU106
	.loc 2 660 6 is_stmt 0 view .LVU107
	testq	%rax, %rax
	je	.L7
	.loc 2 660 22 view .LVU108
	movl	$3, %edx
	leaq	.LC21(%rip), %rsi
	call	strncmp@PLT
.LVL43:
	.loc 2 660 19 view .LVU109
	testl	%eax, %eax
	je	.L7
	.loc 2 646 15 view .LVU110
	leaq	.LC1(%rip), %r12
.LVL44:
.L8:
	.loc 2 666 7 is_stmt 1 view .LVU111
	movq	stdout(%rip), %r13
	xorl	%edi, %edi
	movl	$5, %edx
	leaq	.LC22(%rip), %rsi
	call	dcgettext@PLT
.LVL45:
	movq	%rax, %rdi
	movq	%r13, %rsi
	call	fputs_unlocked@PLT
.LVL46:
	jmp	.L5
.LVL47:
.L7:
	.loc 2 669 3 view .LVU112
	.loc 2 669 11 is_stmt 0 view .LVU113
	movl	$5, %edx
	leaq	.LC23(%rip), %rsi
	xorl	%edi, %edi
	call	dcgettext@PLT
.LVL48:
.LBB57:
.LBB46:
	.loc 3 107 10 view .LVU114
	leaq	.LC1(%rip), %rcx
	leaq	.LC19(%rip), %rdx
	movl	$1, %edi
.LBE46:
.LBE57:
	.loc 2 669 11 view .LVU115
	movq	%rax, %rsi
.LVL49:
.LBB58:
	.loc 3 105 1 is_stmt 1 view .LVU116
.LBB47:
	.loc 3 107 3 view .LVU117
	.loc 3 107 10 is_stmt 0 view .LVU118
	xorl	%eax, %eax
.LVL50:
	.loc 3 107 10 view .LVU119
.LBE47:
.LBE58:
	.loc 2 646 15 view .LVU120
	leaq	.LC1(%rip), %r12
.LBB59:
.LBB48:
	.loc 3 107 10 view .LVU121
	call	__printf_chk@PLT
.LVL51:
	.loc 3 107 10 view .LVU122
.LBE48:
.LBE59:
	.loc 2 671 3 is_stmt 1 view .LVU123
	leaq	.LC2(%rip), %r13
	jmp	.L6
.LBE61:
.LBE75:
	.cfi_endproc
.LFE135:
	.size	usage, .-usage
	.section	.rodata.str1.1
.LC25:
	.string	"/usr/local/share/locale"
.LC26:
	.string	"--help"
.LC27:
	.string	"--version"
.LC28:
	.string	"Jim Meyering"
	.section	.text.startup,"ax",@progbits
	.p2align 4
	.globl	main
	.type	main, @function
main:
.LVL52:
.LFB136:
	.loc 1 56 1 view -0
	.cfi_startproc
	.loc 1 56 1 is_stmt 0 view .LVU125
	endbr64
	.loc 1 59 3 is_stmt 1 view .LVU126
	.loc 1 59 6 is_stmt 0 view .LVU127
	cmpl	$2, %edi
	je	.L39
	.loc 1 79 3 is_stmt 1 view .LVU128
	.loc 1 80 1 is_stmt 0 view .LVU129
	movl	$1, %eax
	ret
.L39:
	.loc 1 56 1 view .LVU130
	pushq	%rbp
	.cfi_def_cfa_offset 16
	.cfi_offset 6, -16
	pushq	%rbx
	.cfi_def_cfa_offset 24
	.cfi_offset 3, -24
	movq	%rsi, %rbx
	.loc 1 61 37 is_stmt 1 view .LVU131
	.loc 1 62 7 view .LVU132
	.loc 1 56 1 is_stmt 0 view .LVU133
	pushq	%rcx
	.cfi_def_cfa_offset 32
	.loc 1 62 7 view .LVU134
	movq	(%rsi), %rdi
.LVL53:
	.loc 1 62 7 view .LVU135
	call	set_program_name@PLT
.LVL54:
	.loc 1 63 7 is_stmt 1 view .LVU136
	leaq	.LC3(%rip), %rsi
	movl	$6, %edi
	call	setlocale@PLT
.LVL55:
	.loc 1 64 7 view .LVU137
	leaq	.LC25(%rip), %rsi
	leaq	.LC0(%rip), %rdi
	call	bindtextdomain@PLT
.LVL56:
	.loc 1 65 7 view .LVU138
	leaq	.LC0(%rip), %rdi
	call	textdomain@PLT
.LVL57:
	.loc 1 69 7 view .LVU139
	movq	close_stdout@GOTPCREL(%rip), %rdi
	call	atexit@PLT
.LVL58:
	.loc 1 71 7 view .LVU140
	.loc 1 71 11 is_stmt 0 view .LVU141
	movq	8(%rbx), %rbp
	leaq	.LC26(%rip), %rsi
	movq	%rbp, %rdi
	call	strcmp@PLT
.LVL59:
	.loc 1 71 10 view .LVU142
	testl	%eax, %eax
	je	.L40
	.loc 1 74 7 is_stmt 1 view .LVU143
	.loc 1 74 11 is_stmt 0 view .LVU144
	leaq	.LC27(%rip), %rsi
	movq	%rbp, %rdi
	call	strcmp@PLT
.LVL60:
	.loc 1 74 10 view .LVU145
	testl	%eax, %eax
	je	.L41
.L32:
	.loc 1 79 3 is_stmt 1 view .LVU146
	.loc 1 80 1 is_stmt 0 view .LVU147
	popq	%rdx
	.cfi_remember_state
	.cfi_def_cfa_offset 24
	movl	$1, %eax
	popq	%rbx
	.cfi_def_cfa_offset 16
.LVL61:
	.loc 1 80 1 view .LVU148
	popq	%rbp
	.cfi_def_cfa_offset 8
	ret
.LVL62:
.L41:
	.cfi_restore_state
	.loc 1 75 9 is_stmt 1 view .LVU149
	movq	Version(%rip), %rcx
	movq	stdout(%rip), %rdi
	xorl	%r9d, %r9d
	leaq	.LC28(%rip), %r8
	leaq	.LC20(%rip), %rdx
	leaq	.LC1(%rip), %rsi
	call	version_etc@PLT
.LVL63:
	jmp	.L32
.L40:
	.loc 1 72 9 view .LVU150
	movl	$1, %edi
	call	usage
.LVL64:
	.cfi_endproc
.LFE136:
	.size	main, .-main
	.text
.Letext0:
	.file 4 "/usr/lib/gcc/x86_64-linux-gnu/9/include/stddef.h"
	.file 5 "/usr/include/x86_64-linux-gnu/bits/types.h"
	.file 6 "/usr/include/x86_64-linux-gnu/bits/types/struct_FILE.h"
	.file 7 "/usr/include/x86_64-linux-gnu/bits/types/FILE.h"
	.file 8 "/usr/include/stdio.h"
	.file 9 "/usr/include/x86_64-linux-gnu/bits/sys_errlist.h"
	.file 10 "./lib/sys/select.h"
	.file 11 "/usr/include/time.h"
	.file 12 "/usr/include/signal.h"
	.file 13 "/usr/include/unistd.h"
	.file 14 "/usr/include/x86_64-linux-gnu/bits/getopt_core.h"
	.file 15 "/usr/include/errno.h"
	.file 16 "src/version.h"
	.file 17 "./lib/exitfail.h"
	.file 18 "./lib/version-etc.h"
	.file 19 "./lib/progname.h"
	.file 20 "./lib/quotearg.h"
	.file 21 "/usr/include/locale.h"
	.file 22 "/usr/include/libintl.h"
	.file 23 "/usr/include/stdlib.h"
	.file 24 "/usr/include/string.h"
	.section	.note.GNU-stack,"",@progbits
	.section	.note.gnu.property,"a"
	.align 8
	.long	 1f - 0f
	.long	 4f - 1f
	.long	 5
0:
	.string	 "GNU"
1:
	.align 8
	.long	 0xc0000002
	.long	 3f - 2f
2:
	.long	 0x3
3:
	.align 8
4:
