	.file	"fold.c"
	.text
.Ltext0:
	.p2align 4
	.type	adjust_column, @function
adjust_column:
.LVL0:
.LFB136:
	.file 1 "src/fold.c"
	.loc 1 95 1 view -0
	.cfi_startproc
	.loc 1 96 3 view .LVU1
	.loc 1 96 6 is_stmt 0 view .LVU2
	cmpb	$0, count_bytes(%rip)
	jne	.L2
	.loc 1 98 7 is_stmt 1 view .LVU3
	.loc 1 98 10 is_stmt 0 view .LVU4
	cmpb	$8, %sil
	je	.L8
	.loc 1 103 12 is_stmt 1 view .LVU5
	xorl	%eax, %eax
	.loc 1 103 15 is_stmt 0 view .LVU6
	cmpb	$13, %sil
	je	.L1
.LVL1:
.LBB68:
.LBI68:
	.loc 1 94 1 is_stmt 1 view .LVU7
.LBB69:
	.loc 1 105 12 view .LVU8
	.loc 1 105 15 is_stmt 0 view .LVU9
	cmpb	$9, %sil
	je	.L9
.LVL2:
.L2:
	.loc 1 108 9 is_stmt 1 view .LVU10
	.loc 1 108 15 is_stmt 0 view .LVU11
	leaq	1(%rdi), %rax
.LVL3:
.L1:
	.loc 1 108 15 view .LVU12
.LBE69:
.LBE68:
	.loc 1 113 1 view .LVU13
	ret
	.p2align 4,,10
	.p2align 3
.L8:
	.loc 1 100 11 is_stmt 1 view .LVU14
	.loc 1 101 19 is_stmt 0 view .LVU15
	testq	%rdi, %rdi
	leaq	-1(%rdi), %rax
	movl	$0, %edi
.LVL4:
	.loc 1 101 19 view .LVU16
	cmove	%rdi, %rax
.LVL5:
	.loc 1 101 19 view .LVU17
	ret
.LVL6:
	.p2align 4,,10
	.p2align 3
.L9:
.LBB71:
.LBB70:
	.loc 1 106 9 is_stmt 1 view .LVU18
	.loc 1 106 16 is_stmt 0 view .LVU19
	andq	$-8, %rdi
.LVL7:
	.loc 1 106 16 view .LVU20
	leaq	8(%rdi), %rax
.LVL8:
	.loc 1 106 16 view .LVU21
	ret
.LBE70:
.LBE71:
	.cfi_endproc
.LFE136:
	.size	adjust_column, .-adjust_column
	.section	.rodata.str1.1,"aMS",@progbits,1
.LC0:
	.string	"r"
.LC1:
	.string	"%s"
	.text
	.p2align 4
	.type	fold_file, @function
fold_file:
.LVL9:
.LFB137:
	.loc 1 121 1 is_stmt 1 view -0
	.cfi_startproc
	.loc 1 122 3 view .LVU23
	.loc 1 123 3 view .LVU24
	.loc 1 124 3 view .LVU25
	.loc 1 125 3 view .LVU26
	.loc 1 126 3 view .LVU27
	.loc 1 127 3 view .LVU28
	.loc 1 128 3 view .LVU29
	.loc 1 130 3 view .LVU30
	.loc 1 121 1 is_stmt 0 view .LVU31
	pushq	%r15
	.cfi_def_cfa_offset 16
	.cfi_offset 15, -16
	pushq	%r14
	.cfi_def_cfa_offset 24
	.cfi_offset 14, -24
	pushq	%r13
	.cfi_def_cfa_offset 32
	.cfi_offset 13, -32
	pushq	%r12
	.cfi_def_cfa_offset 40
	.cfi_offset 12, -40
	pushq	%rbp
	.cfi_def_cfa_offset 48
	.cfi_offset 6, -48
	pushq	%rbx
	.cfi_def_cfa_offset 56
	.cfi_offset 3, -56
	subq	$40, %rsp
	.cfi_def_cfa_offset 96
	.loc 1 130 7 view .LVU32
	cmpb	$45, (%rdi)
	.loc 1 121 1 view .LVU33
	movq	%rdi, 16(%rsp)
	movq	%rsi, (%rsp)
	.loc 1 130 7 view .LVU34
	je	.L54
.L12:
	.loc 1 136 5 is_stmt 1 view .LVU35
	.loc 1 136 15 is_stmt 0 view .LVU36
	movq	16(%rsp), %rdi
.LVL10:
	.loc 1 136 15 view .LVU37
	leaq	.LC0(%rip), %rsi
.LVL11:
	.loc 1 136 15 view .LVU38
	call	fopen@PLT
.LVL12:
	movq	%rax, %r13
.LVL13:
	.loc 1 138 3 is_stmt 1 view .LVU39
	call	__errno_location@PLT
.LVL14:
	.loc 1 138 3 is_stmt 0 view .LVU40
	movq	%rax, 24(%rsp)
	.loc 1 138 6 view .LVU41
	testq	%r13, %r13
	je	.L53
.L14:
	.loc 1 144 3 is_stmt 1 view .LVU42
	movl	$2, %esi
	movq	%r13, %rdi
	.loc 1 125 10 is_stmt 0 view .LVU43
	xorl	%r12d, %r12d
	.loc 1 124 10 view .LVU44
	xorl	%r14d, %r14d
	.loc 1 144 3 view .LVU45
	call	fadvise@PLT
.LVL15:
	.loc 1 146 3 is_stmt 1 view .LVU46
.L16:
	.loc 1 146 9 view .LVU47
.LBB72:
.LBI72:
	.file 2 "/usr/include/x86_64-linux-gnu/bits/stdio.h"
	.loc 2 66 1 view .LVU48
.LBB73:
	.loc 2 68 3 view .LVU49
	.loc 2 68 10 is_stmt 0 view .LVU50
	movq	8(%r13), %rax
	cmpq	16(%r13), %rax
	jnb	.L55
.L30:
	.loc 2 68 10 view .LVU51
	leaq	1(%rax), %rdx
	movq	%rdx, 8(%r13)
	movzbl	(%rax), %ebx
.LVL16:
.L31:
	.loc 2 68 10 view .LVU52
.LBE73:
.LBE72:
	.loc 1 148 7 is_stmt 1 view .LVU53
	.loc 1 148 22 is_stmt 0 view .LVU54
	leaq	1(%r12), %rbp
	.loc 1 148 10 view .LVU55
	cmpq	allocated_out.7119(%rip), %rbp
	movq	line_out.7118(%rip), %r15
	jnb	.L56
.L17:
	.loc 1 151 7 is_stmt 1 view .LVU56
	.loc 1 151 10 is_stmt 0 view .LVU57
	cmpl	$10, %ebx
	je	.L18
	movsbl	%bl, %eax
	movb	%bl, 15(%rsp)
	movl	%eax, 8(%rsp)
.LVL17:
.L19:
	.loc 1 160 7 is_stmt 1 view .LVU58
	.loc 1 160 16 is_stmt 0 view .LVU59
	movl	8(%rsp), %esi
	movq	%r14, %rdi
	call	adjust_column
.LVL18:
	movq	%rax, %r14
.LVL19:
	.loc 1 162 7 is_stmt 1 view .LVU60
	.loc 1 162 10 is_stmt 0 view .LVU61
	cmpq	(%rsp), %rax
	jbe	.L21
	.loc 1 167 11 is_stmt 1 view .LVU62
	.loc 1 167 14 is_stmt 0 view .LVU63
	cmpb	$0, break_spaces(%rip)
	jne	.L57
.LVL20:
.L23:
	.loc 1 203 11 is_stmt 1 view .LVU64
	.loc 1 203 14 is_stmt 0 view .LVU65
	testq	%r12, %r12
	jne	.L29
	.loc 1 205 15 is_stmt 1 view .LVU66
.LVL21:
	.loc 1 205 38 is_stmt 0 view .LVU67
	movzbl	15(%rsp), %eax
	.loc 1 205 34 view .LVU68
	movl	$1, %r12d
	.loc 1 205 38 view .LVU69
	movb	%al, (%r15)
	.loc 1 206 15 is_stmt 1 view .LVU70
.LVL22:
	.loc 1 146 9 view .LVU71
.LBB75:
	.loc 2 66 1 view .LVU72
.LBB74:
	.loc 2 68 3 view .LVU73
	.loc 2 68 10 is_stmt 0 view .LVU74
	movq	8(%r13), %rax
	cmpq	16(%r13), %rax
	jb	.L30
.L55:
	.loc 2 68 10 view .LVU75
	movq	%r13, %rdi
	call	__uflow@PLT
.LVL23:
	movl	%eax, %ebx
.LVL24:
	.loc 2 68 10 view .LVU76
.LBE74:
.LBE75:
	.loc 1 146 9 view .LVU77
	cmpl	$-1, %eax
	jne	.L31
	.loc 1 218 3 is_stmt 1 view .LVU78
	.loc 1 218 15 is_stmt 0 view .LVU79
	movq	24(%rsp), %rax
.LVL25:
	.loc 1 218 15 view .LVU80
	movl	(%rax), %ebp
.LVL26:
	.loc 1 220 3 is_stmt 1 view .LVU81
	.loc 1 220 6 is_stmt 0 view .LVU82
	testq	%r12, %r12
	jne	.L58
	.loc 1 223 3 is_stmt 1 view .LVU83
.LVL27:
.LBB76:
.LBI76:
	.loc 2 135 1 view .LVU84
.LBB77:
	.loc 2 137 3 view .LVU85
	.loc 2 137 3 is_stmt 0 view .LVU86
.LBE77:
.LBE76:
	.loc 1 223 6 view .LVU87
	testb	$32, 0(%r13)
	jne	.L59
.L34:
	.loc 1 230 3 is_stmt 1 view .LVU88
	.loc 1 230 8 is_stmt 0 view .LVU89
	movq	16(%rsp), %rax
	cmpb	$45, (%rax)
	jne	.L37
	.loc 1 230 6 view .LVU90
	cmpb	$0, 1(%rax)
	jne	.L37
.L38:
	.loc 1 236 10 view .LVU91
	movl	$1, %eax
.LVL28:
.L10:
	.loc 1 237 1 view .LVU92
	addq	$40, %rsp
	.cfi_remember_state
	.cfi_def_cfa_offset 56
.LVL29:
	.loc 1 237 1 view .LVU93
	popq	%rbx
	.cfi_def_cfa_offset 48
	popq	%rbp
	.cfi_def_cfa_offset 40
.LVL30:
	.loc 1 237 1 view .LVU94
	popq	%r12
	.cfi_def_cfa_offset 32
.LVL31:
	.loc 1 237 1 view .LVU95
	popq	%r13
	.cfi_def_cfa_offset 24
.LVL32:
	.loc 1 237 1 view .LVU96
	popq	%r14
	.cfi_def_cfa_offset 16
.LVL33:
	.loc 1 237 1 view .LVU97
	popq	%r15
	.cfi_def_cfa_offset 8
	ret
.LVL34:
	.p2align 4,,10
	.p2align 3
.L29:
	.cfi_restore_state
	.loc 1 209 11 is_stmt 1 view .LVU98
	.loc 1 209 34 is_stmt 0 view .LVU99
	movb	$10, (%r15,%r12)
	.loc 1 210 11 is_stmt 1 view .LVU100
	.loc 1 209 30 is_stmt 0 view .LVU101
	leaq	1(%r12), %rdx
.LVL35:
	.loc 1 210 11 view .LVU102
	movq	%r15, %rdi
	.loc 1 211 31 view .LVU103
	xorl	%r12d, %r12d
	.loc 1 210 11 view .LVU104
	movq	stdout(%rip), %rcx
	movl	$1, %esi
	.loc 1 211 18 view .LVU105
	xorl	%r14d, %r14d
.LVL36:
	.loc 1 210 11 view .LVU106
	call	fwrite_unlocked@PLT
.LVL37:
	.loc 1 210 11 view .LVU107
	movq	line_out.7118(%rip), %r15
	jmp	.L19
.LVL38:
	.p2align 4,,10
	.p2align 3
.L18:
	.loc 1 153 11 is_stmt 1 view .LVU108
	.loc 1 153 34 is_stmt 0 view .LVU109
	movb	$10, (%r15,%r12)
	.loc 1 154 11 is_stmt 1 view .LVU110
	movq	%rbp, %rdx
	movl	$1, %esi
	movq	%r15, %rdi
	movq	stdout(%rip), %rcx
	.loc 1 155 31 is_stmt 0 view .LVU111
	xorl	%r12d, %r12d
	.loc 1 155 18 view .LVU112
	xorl	%r14d, %r14d
.LVL39:
	.loc 1 154 11 view .LVU113
	call	fwrite_unlocked@PLT
.LVL40:
	jmp	.L16
.LVL41:
	.p2align 4,,10
	.p2align 3
.L56:
.LBB79:
	.loc 1 149 9 is_stmt 1 view .LVU114
	.loc 1 149 20 is_stmt 0 view .LVU115
	movq	%r15, %rdi
	leaq	allocated_out.7119(%rip), %rsi
	call	x2realloc@PLT
.LVL42:
	.loc 1 149 18 view .LVU116
	movq	%rax, line_out.7118(%rip)
	.loc 1 149 20 view .LVU117
	movq	%rax, %r15
	jmp	.L17
.LVL43:
	.p2align 4,,10
	.p2align 3
.L57:
	.loc 1 149 20 view .LVU118
.LBE79:
	movq	%r12, %rbx
	jmp	.L22
.LVL44:
	.p2align 4,,10
	.p2align 3
.L60:
.LBB80:
	.loc 1 175 19 view .LVU119
	movq	%rbp, %rbx
.LVL45:
.L22:
	.loc 1 173 21 is_stmt 1 view .LVU120
	testq	%rbx, %rbx
	je	.L23
	.loc 1 175 19 view .LVU121
	.loc 1 176 23 is_stmt 0 view .LVU122
	call	__ctype_b_loc@PLT
.LVL46:
	movzbl	-1(%r15,%rbx), %ecx
	.loc 1 175 19 view .LVU123
	leaq	-1(%rbx), %rbp
.LVL47:
	.loc 1 176 19 is_stmt 1 view .LVU124
.LBB81:
.LBI81:
	.file 3 "src/system.h"
	.loc 3 156 29 view .LVU125
.LBB82:
	.loc 3 156 50 view .LVU126
	.loc 3 156 50 is_stmt 0 view .LVU127
.LBE82:
.LBE81:
	.loc 1 176 23 view .LVU128
	movq	(%rax), %rax
	.loc 1 176 22 view .LVU129
	testb	$1, (%rax,%rcx,2)
	je	.L60
.LVL48:
	.loc 1 183 15 is_stmt 1 view .LVU130
.LBB83:
	.loc 1 185 19 view .LVU131
	.loc 1 188 19 view .LVU132
	.loc 1 189 19 view .LVU133
	movq	stdout(%rip), %rcx
	movq	%r15, %rdi
	movq	%rbx, %rdx
	movl	$1, %esi
	call	fwrite_unlocked@PLT
.LVL49:
	.loc 1 191 19 view .LVU134
.LBB84:
.LBI84:
	.loc 2 108 1 view .LVU135
.LBB85:
	.loc 2 110 3 view .LVU136
	.loc 2 110 10 is_stmt 0 view .LVU137
	movq	stdout(%rip), %rdi
	movq	40(%rdi), %rax
	cmpq	48(%rdi), %rax
	jnb	.L61
	leaq	1(%rax), %rcx
	movq	%rcx, 40(%rdi)
	movb	$10, (%rax)
.L26:
.LVL50:
	.loc 2 110 10 view .LVU138
.LBE85:
.LBE84:
	.loc 1 194 19 is_stmt 1 view .LVU139
	movq	line_out.7118(%rip), %r15
.LVL51:
	.loc 1 194 19 is_stmt 0 view .LVU140
	subq	%rbx, %r12
.LVL52:
.LBB87:
.LBI87:
	.file 4 "/usr/include/x86_64-linux-gnu/bits/string_fortified.h"
	.loc 4 38 1 is_stmt 1 view .LVU141
.LBB88:
	.loc 4 40 3 view .LVU142
	.loc 4 40 10 is_stmt 0 view .LVU143
	movq	%r12, %rdx
.LBE88:
.LBE87:
	.loc 1 194 47 view .LVU144
	leaq	(%r15,%rbx), %rsi
.LVL53:
.LBB90:
.LBB89:
	.loc 4 40 10 view .LVU145
	movq	%r15, %rdi
	call	memmove@PLT
.LVL54:
	.loc 4 40 10 view .LVU146
.LBE89:
.LBE90:
	.loc 1 196 19 is_stmt 1 view .LVU147
	.loc 1 197 19 view .LVU148
	.loc 1 197 40 view .LVU149
	.loc 1 197 19 is_stmt 0 view .LVU150
	testq	%r12, %r12
	je	.L42
	movq	%r15, %rdx
	leaq	(%r12,%r15), %rcx
	.loc 1 197 31 view .LVU151
	xorl	%r14d, %r14d
.LVL55:
	.p2align 4,,10
	.p2align 3
.L28:
	.loc 1 198 21 is_stmt 1 discriminator 3 view .LVU152
	.loc 1 198 30 is_stmt 0 discriminator 3 view .LVU153
	movsbl	(%rdx), %esi
	movq	%r14, %rdi
	call	adjust_column
.LVL56:
	addq	$1, %rdx
.LVL57:
	.loc 1 198 30 discriminator 3 view .LVU154
	movq	%rax, %r14
.LVL58:
	.loc 1 197 56 is_stmt 1 discriminator 3 view .LVU155
	.loc 1 197 40 discriminator 3 view .LVU156
	.loc 1 197 19 is_stmt 0 discriminator 3 view .LVU157
	cmpq	%rdx, %rcx
	jne	.L28
	jmp	.L19
.LVL59:
	.p2align 4,,10
	.p2align 3
.L54:
	.loc 1 197 19 discriminator 3 view .LVU158
.LBE83:
.LBE80:
	.loc 1 130 6 view .LVU159
	cmpb	$0, 1(%rdi)
	jne	.L12
	.loc 1 132 7 is_stmt 1 view .LVU160
	.loc 1 132 15 is_stmt 0 view .LVU161
	movq	stdin(%rip), %r13
.LVL60:
	.loc 1 133 7 is_stmt 1 view .LVU162
	.loc 1 133 23 is_stmt 0 view .LVU163
	movb	$1, have_read_stdin(%rip)
	.loc 1 138 3 is_stmt 1 view .LVU164
	call	__errno_location@PLT
.LVL61:
	.loc 1 138 3 is_stmt 0 view .LVU165
	movq	%rax, 24(%rsp)
	.loc 1 138 6 view .LVU166
	testq	%r13, %r13
	jne	.L14
.LVL62:
.L53:
	.loc 1 232 7 is_stmt 1 view .LVU167
	movq	16(%rsp), %rdx
	movl	$3, %esi
	xorl	%edi, %edi
	call	quotearg_n_style_colon@PLT
.LVL63:
	leaq	.LC1(%rip), %rdx
	xorl	%edi, %edi
	movq	%rax, %rcx
	movq	24(%rsp), %rax
	movl	(%rax), %esi
	xorl	%eax, %eax
	call	error@PLT
.LVL64:
	.loc 1 233 7 view .LVU168
	.loc 1 237 1 is_stmt 0 view .LVU169
	addq	$40, %rsp
	.cfi_remember_state
	.cfi_def_cfa_offset 56
.LVL65:
	.loc 1 233 14 view .LVU170
	xorl	%eax, %eax
	.loc 1 237 1 view .LVU171
	popq	%rbx
	.cfi_def_cfa_offset 48
	popq	%rbp
	.cfi_def_cfa_offset 40
	popq	%r12
	.cfi_def_cfa_offset 32
	popq	%r13
	.cfi_def_cfa_offset 24
.LVL66:
	.loc 1 237 1 view .LVU172
	popq	%r14
	.cfi_def_cfa_offset 16
	popq	%r15
	.cfi_def_cfa_offset 8
	ret
.LVL67:
	.p2align 4,,10
	.p2align 3
.L58:
	.cfi_restore_state
	.loc 1 221 5 is_stmt 1 view .LVU173
	movq	stdout(%rip), %rcx
	movq	line_out.7118(%rip), %rdi
	movq	%r12, %rdx
	movl	$1, %esi
	call	fwrite_unlocked@PLT
.LVL68:
	.loc 1 223 3 view .LVU174
.LBB93:
	.loc 2 135 1 view .LVU175
.LBB78:
	.loc 2 137 3 view .LVU176
	.loc 2 137 3 is_stmt 0 view .LVU177
.LBE78:
.LBE93:
	.loc 1 223 6 view .LVU178
	testb	$32, 0(%r13)
	je	.L34
.L59:
	.loc 1 225 7 is_stmt 1 view .LVU179
	movq	16(%rsp), %rbx
.LVL69:
	.loc 1 225 7 is_stmt 0 view .LVU180
	xorl	%edi, %edi
	movl	$3, %esi
	movq	%rbx, %rdx
	call	quotearg_n_style_colon@PLT
.LVL70:
	xorl	%edi, %edi
	leaq	.LC1(%rip), %rdx
	movl	%ebp, %esi
	movq	%rax, %rcx
	xorl	%eax, %eax
	call	error@PLT
.LVL71:
	.loc 1 226 7 is_stmt 1 view .LVU181
	.loc 1 226 12 is_stmt 0 view .LVU182
	cmpb	$45, (%rbx)
	je	.L62
.L44:
	.loc 1 227 9 is_stmt 1 view .LVU183
	movq	%r13, %rdi
	call	rpl_fclose@PLT
.LVL72:
	.loc 1 228 14 is_stmt 0 view .LVU184
	xorl	%eax, %eax
	jmp	.L10
.LVL73:
	.p2align 4,,10
	.p2align 3
.L37:
	.loc 1 230 33 discriminator 1 view .LVU185
	movq	%r13, %rdi
	call	rpl_fclose@PLT
.LVL74:
	.loc 1 230 30 discriminator 1 view .LVU186
	cmpl	$-1, %eax
	jne	.L38
	jmp	.L53
.LVL75:
	.p2align 4,,10
	.p2align 3
.L21:
	.loc 1 215 7 is_stmt 1 view .LVU187
	.loc 1 215 30 is_stmt 0 view .LVU188
	movzbl	15(%rsp), %eax
.LVL76:
	.loc 1 215 30 view .LVU189
	movb	%al, (%r15,%r12)
	.loc 1 215 26 view .LVU190
	addq	$1, %r12
.LVL77:
	.loc 1 215 26 view .LVU191
	jmp	.L16
.LVL78:
.L62:
	.loc 1 228 14 view .LVU192
	xorl	%eax, %eax
	.loc 1 226 10 view .LVU193
	cmpb	$0, 1(%rbx)
	je	.L10
	jmp	.L44
.LVL79:
.L42:
.LBB94:
.LBB92:
	.loc 1 197 31 view .LVU194
	xorl	%r14d, %r14d
	jmp	.L19
.LVL80:
.L61:
.LBB91:
.LBB86:
	.loc 2 110 10 view .LVU195
	movl	$10, %esi
	call	__overflow@PLT
.LVL81:
	jmp	.L26
.LBE86:
.LBE91:
.LBE92:
.LBE94:
	.cfi_endproc
.LFE137:
	.size	fold_file, .-fold_file
	.section	.rodata.str1.1
.LC2:
	.string	"fold"
.LC3:
	.string	" invocation"
.LC4:
	.string	""
	.section	.rodata.str1.8,"aMS",@progbits,1
	.align 8
.LC5:
	.string	"Try '%s --help' for more information.\n"
	.align 8
.LC6:
	.string	"Usage: %s [OPTION]... [FILE]...\n"
	.align 8
.LC7:
	.string	"Wrap input lines in each FILE, writing to standard output.\n"
	.align 8
.LC8:
	.string	"\nWith no FILE, or when FILE is -, read standard input.\n"
	.align 8
.LC9:
	.string	"\nMandatory arguments to long options are mandatory for short options too.\n"
	.align 8
.LC10:
	.string	"  -b, --bytes         count bytes rather than columns\n  -s, --spaces        break at spaces\n  -w, --width=WIDTH   use WIDTH columns instead of 80\n"
	.align 8
.LC11:
	.string	"      --help     display this help and exit\n"
	.align 8
.LC12:
	.string	"      --version  output version information and exit\n"
	.section	.rodata.str1.1
.LC13:
	.string	"["
.LC14:
	.string	"test invocation"
.LC15:
	.string	"coreutils"
.LC16:
	.string	"Multi-call invocation"
.LC17:
	.string	"sha224sum"
.LC18:
	.string	"sha2 utilities"
.LC19:
	.string	"sha256sum"
.LC20:
	.string	"sha384sum"
.LC21:
	.string	"sha512sum"
.LC22:
	.string	"\n%s online help: <%s>\n"
	.section	.rodata.str1.8
	.align 8
.LC23:
	.string	"https://www.gnu.org/software/coreutils/"
	.section	.rodata.str1.1
.LC24:
	.string	"GNU coreutils"
.LC25:
	.string	"en_"
	.section	.rodata.str1.8
	.align 8
.LC26:
	.string	"Report any translation bugs to <https://translationproject.org/team/>\n"
	.section	.rodata.str1.1
.LC27:
	.string	"Full documentation <%s%s>\n"
	.section	.rodata.str1.8
	.align 8
.LC28:
	.string	"or available locally via: info '(coreutils) %s%s'\n"
	.text
	.p2align 4
	.globl	usage
	.type	usage, @function
usage:
.LVL82:
.LFB135:
	.loc 1 61 1 is_stmt 1 view -0
	.cfi_startproc
	.loc 1 61 1 is_stmt 0 view .LVU197
	endbr64
	pushq	%r13
	.cfi_def_cfa_offset 16
	.cfi_offset 13, -16
	.loc 1 63 5 view .LVU198
	movl	$5, %edx
	.loc 1 61 1 view .LVU199
	pushq	%r12
	.cfi_def_cfa_offset 24
	.cfi_offset 12, -24
	pushq	%rbp
	.cfi_def_cfa_offset 32
	.cfi_offset 6, -32
	movl	%edi, %ebp
	pushq	%rbx
	.cfi_def_cfa_offset 40
	.cfi_offset 3, -40
	subq	$136, %rsp
	.cfi_def_cfa_offset 176
	movq	program_name(%rip), %r12
	.loc 1 61 1 view .LVU200
	movq	%fs:40, %rax
	movq	%rax, 120(%rsp)
	xorl	%eax, %eax
	.loc 1 62 3 is_stmt 1 view .LVU201
	.loc 1 62 6 is_stmt 0 view .LVU202
	testl	%edi, %edi
	je	.L64
	.loc 1 63 5 is_stmt 1 view .LVU203
	.loc 1 63 5 view .LVU204
	leaq	.LC5(%rip), %rsi
	xorl	%edi, %edi
.LVL83:
	.loc 1 63 5 is_stmt 0 view .LVU205
	call	dcgettext@PLT
.LVL84:
.LBB111:
.LBB112:
	.file 5 "/usr/include/x86_64-linux-gnu/bits/stdio2.h"
	.loc 5 100 10 view .LVU206
	movq	stderr(%rip), %rdi
	movq	%r12, %rcx
	movl	$1, %esi
.LBE112:
.LBE111:
	.loc 1 63 5 view .LVU207
	movq	%rax, %rdx
.LVL85:
.LBB114:
.LBI111:
	.loc 5 98 1 is_stmt 1 view .LVU208
.LBB113:
	.loc 5 100 3 view .LVU209
	.loc 5 100 10 is_stmt 0 view .LVU210
	xorl	%eax, %eax
.LVL86:
	.loc 5 100 10 view .LVU211
	call	__fprintf_chk@PLT
.LVL87:
.L65:
	.loc 5 100 10 view .LVU212
.LBE113:
.LBE114:
	.loc 1 86 3 is_stmt 1 view .LVU213
	movl	%ebp, %edi
	call	exit@PLT
.LVL88:
.L64:
	.loc 1 66 7 view .LVU214
	.loc 1 66 15 is_stmt 0 view .LVU215
	leaq	.LC6(%rip), %rsi
	xorl	%edi, %edi
.LVL89:
.LBB115:
.LBB116:
	.loc 3 636 67 view .LVU216
	leaq	.LC19(%rip), %rbx
.LBE116:
.LBE115:
	.loc 1 66 15 view .LVU217
	call	dcgettext@PLT
.LVL90:
.LBB142:
.LBB143:
	.loc 5 107 10 view .LVU218
	movq	%r12, %rdx
	movl	$1, %edi
.LBE143:
.LBE142:
	.loc 1 66 15 view .LVU219
	movq	%rax, %rsi
.LVL91:
.LBB145:
.LBI142:
	.loc 5 105 1 is_stmt 1 view .LVU220
.LBB144:
	.loc 5 107 3 view .LVU221
	.loc 5 107 10 is_stmt 0 view .LVU222
	xorl	%eax, %eax
.LVL92:
	.loc 5 107 10 view .LVU223
	call	__printf_chk@PLT
.LVL93:
	.loc 5 107 10 view .LVU224
.LBE144:
.LBE145:
	.loc 1 70 7 is_stmt 1 view .LVU225
	movq	stdout(%rip), %r12
	movl	$5, %edx
	xorl	%edi, %edi
	leaq	.LC7(%rip), %rsi
	call	dcgettext@PLT
.LVL94:
	movq	%r12, %rsi
	movq	%rax, %rdi
	call	fputs_unlocked@PLT
.LVL95:
	.loc 1 74 7 view .LVU226
.LBB146:
.LBI146:
	.loc 3 581 1 view .LVU227
.LBB147:
	.loc 3 583 3 view .LVU228
	movq	stdout(%rip), %r12
	movl	$5, %edx
	xorl	%edi, %edi
	leaq	.LC8(%rip), %rsi
	call	dcgettext@PLT
.LVL96:
	movq	%r12, %rsi
	movq	%rax, %rdi
	call	fputs_unlocked@PLT
.LVL97:
.LBE147:
.LBE146:
	.loc 1 75 7 view .LVU229
.LBB148:
.LBI148:
	.loc 3 588 1 view .LVU230
.LBB149:
	.loc 3 590 3 view .LVU231
	movq	stdout(%rip), %r12
	movl	$5, %edx
	xorl	%edi, %edi
	leaq	.LC9(%rip), %rsi
	call	dcgettext@PLT
.LVL98:
	movq	%r12, %rsi
	movq	%rax, %rdi
	call	fputs_unlocked@PLT
.LVL99:
.LBE149:
.LBE148:
	.loc 1 77 7 view .LVU232
	movq	stdout(%rip), %r12
	movl	$5, %edx
	xorl	%edi, %edi
	leaq	.LC10(%rip), %rsi
	call	dcgettext@PLT
.LVL100:
	movq	%r12, %rsi
	movq	%rax, %rdi
	call	fputs_unlocked@PLT
.LVL101:
	.loc 1 82 7 view .LVU233
	movq	stdout(%rip), %r12
	movl	$5, %edx
	xorl	%edi, %edi
	leaq	.LC11(%rip), %rsi
	call	dcgettext@PLT
.LVL102:
	movq	%r12, %rsi
	movq	%rax, %rdi
	call	fputs_unlocked@PLT
.LVL103:
	.loc 1 83 7 view .LVU234
	movq	stdout(%rip), %r12
	movl	$5, %edx
	xorl	%edi, %edi
	leaq	.LC12(%rip), %rsi
	call	dcgettext@PLT
.LVL104:
	movq	%r12, %rsi
	movq	%rax, %rdi
	call	fputs_unlocked@PLT
.LVL105:
	.loc 1 84 7 view .LVU235
.LBB150:
.LBI115:
	.loc 3 634 1 view .LVU236
.LBB141:
	.loc 3 636 3 view .LVU237
	.loc 3 636 67 is_stmt 0 view .LVU238
	leaq	.LC13(%rip), %rax
	movq	%rbx, 48(%rsp)
	leaq	.LC20(%rip), %rbx
	movq	%rax, (%rsp)
	leaq	.LC14(%rip), %rax
	movq	%rax, 8(%rsp)
	leaq	.LC15(%rip), %rax
	movq	%rax, 16(%rsp)
	leaq	.LC16(%rip), %rax
	movq	%rax, 24(%rsp)
	leaq	.LC17(%rip), %rax
	movq	$0, 96(%rsp)
	movq	$0, 104(%rsp)
	.loc 3 646 3 is_stmt 1 view .LVU239
.LVL106:
	.loc 3 647 3 view .LVU240
	.loc 3 649 3 view .LVU241
	.loc 3 649 9 view .LVU242
	.loc 3 636 67 is_stmt 0 view .LVU243
	movq	%rax, 32(%rsp)
	leaq	.LC18(%rip), %rax
	movq	%rbx, 64(%rsp)
	leaq	.LC21(%rip), %rbx
	movq	%rax, 40(%rsp)
	movq	%rax, 56(%rsp)
	movq	%rax, 72(%rsp)
	movq	%rbx, 80(%rsp)
	leaq	.LC2(%rip), %rbx
	movq	%rax, 88(%rsp)
	.loc 3 647 25 view .LVU244
	movq	%rsp, %rax
.LVL107:
	.p2align 4,,10
	.p2align 3
.L67:
	.loc 3 650 5 is_stmt 1 view .LVU245
	.loc 3 649 18 is_stmt 0 view .LVU246
	movq	16(%rax), %rdi
	.loc 3 650 13 view .LVU247
	addq	$16, %rax
.LVL108:
	.loc 3 649 9 is_stmt 1 view .LVU248
	testq	%rdi, %rdi
	je	.L66
	.loc 3 649 33 is_stmt 0 view .LVU249
	movl	$5, %ecx
	movq	%rbx, %rsi
	repz cmpsb
	seta	%dl
	sbbb	$0, %dl
	.loc 3 649 28 view .LVU250
	testb	%dl, %dl
	jne	.L67
.L66:
	.loc 3 652 3 is_stmt 1 view .LVU251
	.loc 3 652 15 is_stmt 0 view .LVU252
	movq	8(%rax), %r12
	.loc 3 655 11 view .LVU253
	movl	$5, %edx
	leaq	.LC22(%rip), %rsi
	xorl	%edi, %edi
	.loc 3 652 6 view .LVU254
	testq	%r12, %r12
	je	.L68
	.loc 3 653 5 is_stmt 1 view .LVU255
.LVL109:
	.loc 3 655 3 view .LVU256
	.loc 3 655 11 is_stmt 0 view .LVU257
	call	dcgettext@PLT
.LVL110:
.LBB117:
.LBB118:
	.loc 5 107 10 view .LVU258
	leaq	.LC23(%rip), %rcx
	movl	$1, %edi
	leaq	.LC24(%rip), %rdx
.LBE118:
.LBE117:
	.loc 3 655 11 view .LVU259
	movq	%rax, %rsi
.LVL111:
.LBB122:
.LBI117:
	.loc 5 105 1 is_stmt 1 view .LVU260
.LBB119:
	.loc 5 107 3 view .LVU261
	.loc 5 107 10 is_stmt 0 view .LVU262
	xorl	%eax, %eax
.LVL112:
	.loc 5 107 10 view .LVU263
	call	__printf_chk@PLT
.LVL113:
	.loc 5 107 10 view .LVU264
.LBE119:
.LBE122:
	.loc 3 659 3 is_stmt 1 view .LVU265
	.loc 3 659 29 is_stmt 0 view .LVU266
	movl	$5, %edi
	xorl	%esi, %esi
	call	setlocale@PLT
.LVL114:
	movq	%rax, %rdi
.LVL115:
	.loc 3 660 3 is_stmt 1 view .LVU267
	.loc 3 660 6 is_stmt 0 view .LVU268
	testq	%rax, %rax
	je	.L69
	.loc 3 660 22 view .LVU269
	movl	$3, %edx
	leaq	.LC25(%rip), %rsi
	call	strncmp@PLT
.LVL116:
	.loc 3 660 19 view .LVU270
	testl	%eax, %eax
	jne	.L72
.LVL117:
.L69:
	.loc 3 669 3 is_stmt 1 view .LVU271
	.loc 3 669 11 is_stmt 0 view .LVU272
	xorl	%edi, %edi
	movl	$5, %edx
	leaq	.LC27(%rip), %rsi
	call	dcgettext@PLT
.LVL118:
.LBB123:
.LBB124:
	.loc 5 107 10 view .LVU273
	leaq	.LC2(%rip), %rcx
	leaq	.LC23(%rip), %rdx
	movl	$1, %edi
.LBE124:
.LBE123:
	.loc 3 669 11 view .LVU274
	movq	%rax, %rsi
.LVL119:
.LBB130:
.LBI123:
	.loc 5 105 1 is_stmt 1 view .LVU275
.LBB125:
	.loc 5 107 3 view .LVU276
	.loc 5 107 10 is_stmt 0 view .LVU277
	xorl	%eax, %eax
.LVL120:
	.loc 5 107 10 view .LVU278
.LBE125:
.LBE130:
	.loc 3 671 3 view .LVU279
	leaq	.LC3(%rip), %r13
.LBB131:
.LBB126:
	.loc 5 107 10 view .LVU280
	call	__printf_chk@PLT
.LVL121:
	.loc 5 107 10 view .LVU281
.LBE126:
.LBE131:
	.loc 3 671 3 is_stmt 1 view .LVU282
	cmpq	%rbx, %r12
	leaq	.LC4(%rip), %rcx
	cmovne	%rcx, %r13
.L70:
	.loc 3 671 11 is_stmt 0 view .LVU283
	xorl	%edi, %edi
	leaq	.LC28(%rip), %rsi
	movl	$5, %edx
	call	dcgettext@PLT
.LVL122:
.LBB132:
.LBB133:
	.loc 5 107 10 view .LVU284
	movq	%r13, %rcx
	movq	%r12, %rdx
	movl	$1, %edi
.LBE133:
.LBE132:
	.loc 3 671 11 view .LVU285
	movq	%rax, %rsi
.LVL123:
.LBB135:
.LBI132:
	.loc 5 105 1 is_stmt 1 view .LVU286
.LBB134:
	.loc 5 107 3 view .LVU287
	.loc 5 107 10 is_stmt 0 view .LVU288
	xorl	%eax, %eax
.LVL124:
	.loc 5 107 10 view .LVU289
	call	__printf_chk@PLT
.LVL125:
	.loc 5 107 10 view .LVU290
.LBE134:
.LBE135:
	.loc 3 673 1 view .LVU291
	jmp	.L65
.LVL126:
.L68:
	.loc 3 655 3 is_stmt 1 view .LVU292
	.loc 3 655 11 is_stmt 0 view .LVU293
	call	dcgettext@PLT
.LVL127:
.LBB136:
.LBB120:
	.loc 5 107 10 view .LVU294
	leaq	.LC23(%rip), %rcx
	movl	$1, %edi
	leaq	.LC24(%rip), %rdx
.LBE120:
.LBE136:
	.loc 3 655 11 view .LVU295
	movq	%rax, %rsi
.LVL128:
.LBB137:
	.loc 5 105 1 is_stmt 1 view .LVU296
.LBB121:
	.loc 5 107 3 view .LVU297
	.loc 5 107 10 is_stmt 0 view .LVU298
	xorl	%eax, %eax
.LVL129:
	.loc 5 107 10 view .LVU299
	call	__printf_chk@PLT
.LVL130:
	.loc 5 107 10 view .LVU300
.LBE121:
.LBE137:
	.loc 3 659 3 is_stmt 1 view .LVU301
	.loc 3 659 29 is_stmt 0 view .LVU302
	movl	$5, %edi
	xorl	%esi, %esi
	call	setlocale@PLT
.LVL131:
	movq	%rax, %rdi
.LVL132:
	.loc 3 660 3 is_stmt 1 view .LVU303
	.loc 3 660 6 is_stmt 0 view .LVU304
	testq	%rax, %rax
	je	.L71
	.loc 3 660 22 view .LVU305
	movl	$3, %edx
	leaq	.LC25(%rip), %rsi
	call	strncmp@PLT
.LVL133:
	.loc 3 660 19 view .LVU306
	testl	%eax, %eax
	jne	.L90
.L71:
	.loc 3 669 3 is_stmt 1 view .LVU307
	.loc 3 669 11 is_stmt 0 view .LVU308
	movl	$5, %edx
	leaq	.LC27(%rip), %rsi
	xorl	%edi, %edi
	call	dcgettext@PLT
.LVL134:
.LBB138:
.LBB127:
	.loc 5 107 10 view .LVU309
	leaq	.LC2(%rip), %rcx
	leaq	.LC23(%rip), %rdx
	movl	$1, %edi
.LBE127:
.LBE138:
	.loc 3 669 11 view .LVU310
	movq	%rax, %rsi
.LVL135:
.LBB139:
	.loc 5 105 1 is_stmt 1 view .LVU311
.LBB128:
	.loc 5 107 3 view .LVU312
	.loc 5 107 10 is_stmt 0 view .LVU313
	xorl	%eax, %eax
.LVL136:
	.loc 5 107 10 view .LVU314
.LBE128:
.LBE139:
	.loc 3 646 15 view .LVU315
	leaq	.LC2(%rip), %r12
.LBB140:
.LBB129:
	.loc 5 107 10 view .LVU316
	call	__printf_chk@PLT
.LVL137:
	.loc 5 107 10 view .LVU317
.LBE129:
.LBE140:
	.loc 3 671 3 is_stmt 1 view .LVU318
	leaq	.LC3(%rip), %r13
	jmp	.L70
.L90:
	.loc 3 646 15 is_stmt 0 view .LVU319
	leaq	.LC2(%rip), %r12
.LVL138:
.L72:
	.loc 3 666 7 is_stmt 1 view .LVU320
	movq	stdout(%rip), %r13
	xorl	%edi, %edi
	movl	$5, %edx
	leaq	.LC26(%rip), %rsi
	call	dcgettext@PLT
.LVL139:
	movq	%rax, %rdi
	movq	%r13, %rsi
	call	fputs_unlocked@PLT
.LVL140:
	jmp	.L69
.LBE141:
.LBE150:
	.cfi_endproc
.LFE135:
	.size	usage, .-usage
	.section	.rodata.str1.1
.LC29:
	.string	"/usr/local/share/locale"
.LC30:
	.string	"invalid number of columns"
.LC31:
	.string	"David MacKenzie"
.LC32:
	.string	"-"
	.section	.text.startup,"ax",@progbits
	.p2align 4
	.globl	main
	.type	main, @function
main:
.LVL141:
.LFB138:
	.loc 1 241 1 view -0
	.cfi_startproc
	.loc 1 241 1 is_stmt 0 view .LVU322
	endbr64
	pushq	%r13
	.cfi_def_cfa_offset 16
	.cfi_offset 13, -16
	.loc 1 242 10 view .LVU323
	movl	$80, %r13d
	.loc 1 241 1 view .LVU324
	pushq	%r12
	.cfi_def_cfa_offset 24
	.cfi_offset 12, -24
	pushq	%rbp
	.cfi_def_cfa_offset 32
	.cfi_offset 6, -32
	movl	%edi, %ebp
	pushq	%rbx
	.cfi_def_cfa_offset 40
	.cfi_offset 3, -40
	movq	%rsi, %rbx
	subq	$24, %rsp
	.cfi_def_cfa_offset 64
	.loc 1 248 3 view .LVU325
	movq	(%rsi), %rdi
.LVL142:
	.loc 1 241 1 view .LVU326
	movq	%fs:40, %rax
	movq	%rax, 8(%rsp)
	xorl	%eax, %eax
	.loc 1 242 3 is_stmt 1 view .LVU327
.LVL143:
	.loc 1 243 3 view .LVU328
	.loc 1 244 3 view .LVU329
	.loc 1 245 3 view .LVU330
	.loc 1 247 33 view .LVU331
	.loc 1 248 3 view .LVU332
.LBB151:
	.loc 1 279 22 is_stmt 0 view .LVU333
	leaq	6(%rsp), %r12
.LBE151:
	.loc 1 248 3 view .LVU334
	call	set_program_name@PLT
.LVL144:
	.loc 1 249 3 is_stmt 1 view .LVU335
	leaq	.LC4(%rip), %rsi
	movl	$6, %edi
	call	setlocale@PLT
.LVL145:
	.loc 1 250 3 view .LVU336
	leaq	.LC29(%rip), %rsi
	leaq	.LC15(%rip), %rdi
	call	bindtextdomain@PLT
.LVL146:
	.loc 1 251 3 view .LVU337
	leaq	.LC15(%rip), %rdi
	call	textdomain@PLT
.LVL147:
	.loc 1 253 3 view .LVU338
	movq	close_stdout@GOTPCREL(%rip), %rdi
	call	atexit@PLT
.LVL148:
	.loc 1 255 3 view .LVU339
	.loc 1 255 48 is_stmt 0 view .LVU340
	movb	$0, have_read_stdin(%rip)
	.loc 1 255 30 view .LVU341
	movb	$0, count_bytes(%rip)
	.loc 1 255 16 view .LVU342
	movb	$0, break_spaces(%rip)
	.loc 1 257 3 is_stmt 1 view .LVU343
.LVL149:
.L92:
	.loc 1 257 9 view .LVU344
	.loc 1 257 18 is_stmt 0 view .LVU345
	xorl	%r8d, %r8d
	leaq	longopts(%rip), %rcx
	movq	%rbx, %rsi
	movl	%ebp, %edi
	leaq	shortopts(%rip), %rdx
	call	getopt_long@PLT
.LVL150:
	.loc 1 257 9 view .LVU346
	cmpl	$-1, %eax
	je	.L117
.LBB152:
	.loc 1 259 7 is_stmt 1 view .LVU347
	.loc 1 261 7 view .LVU348
	cmpl	$98, %eax
	je	.L93
	jg	.L94
	cmpl	$-130, %eax
	je	.L95
	cmpl	$-129, %eax
	jge	.L96
	cmpl	$-131, %eax
	jne	.L98
	.loc 1 287 9 view .LVU349
	.loc 1 287 30 view .LVU350
	.loc 1 289 9 view .LVU351
	movq	stdout(%rip), %rdi
	movq	Version(%rip), %rcx
	xorl	%eax, %eax
.LVL151:
	.loc 1 289 9 is_stmt 0 view .LVU352
	xorl	%r9d, %r9d
	leaq	.LC31(%rip), %r8
	leaq	.LC24(%rip), %rdx
	leaq	.LC2(%rip), %rsi
	call	version_etc@PLT
.LVL152:
	.loc 1 289 9 is_stmt 1 view .LVU353
	xorl	%edi, %edi
	call	exit@PLT
.LVL153:
	.p2align 4,,10
	.p2align 3
.L94:
	.loc 1 261 7 is_stmt 0 view .LVU354
	cmpl	$115, %eax
	jne	.L118
	.loc 1 268 11 is_stmt 1 view .LVU355
	.loc 1 268 24 is_stmt 0 view .LVU356
	movb	$1, break_spaces(%rip)
	.loc 1 269 11 is_stmt 1 view .LVU357
	jmp	.L92
	.p2align 4,,10
	.p2align 3
.L96:
	.loc 1 261 7 is_stmt 0 view .LVU358
	leal	-48(%rax), %edx
	cmpl	$9, %edx
	ja	.L98
	.loc 1 273 11 is_stmt 1 view .LVU359
	.loc 1 273 15 is_stmt 0 view .LVU360
	movq	optarg(%rip), %rdx
	.loc 1 273 14 view .LVU361
	testq	%rdx, %rdx
	je	.L103
	.loc 1 274 13 is_stmt 1 view .LVU362
	.loc 1 274 19 is_stmt 0 view .LVU363
	subq	$1, %rdx
	movq	%rdx, optarg(%rip)
	.p2align 4,,10
	.p2align 3
.L101:
	.loc 1 281 11 is_stmt 1 view .LVU364
	.loc 1 283 11 view .LVU365
	.loc 1 284 31 is_stmt 0 view .LVU366
	movl	$5, %edx
	leaq	.LC30(%rip), %rsi
	xorl	%edi, %edi
	call	dcgettext@PLT
.LVL154:
	.loc 1 283 19 view .LVU367
	movq	optarg(%rip), %rdi
	xorl	%r9d, %r9d
	leaq	.LC4(%rip), %rcx
	.loc 1 284 31 view .LVU368
	movq	%rax, %r8
	.loc 1 283 19 view .LVU369
	movq	$-10, %rdx
	movl	$1, %esi
	call	xdectoumax@PLT
.LVL155:
	movq	%rax, %r13
.LVL156:
	.loc 1 285 11 is_stmt 1 view .LVU370
	.loc 1 285 11 is_stmt 0 view .LVU371
	jmp	.L92
.LVL157:
	.p2align 4,,10
	.p2align 3
.L118:
	.loc 1 261 7 view .LVU372
	cmpl	$119, %eax
	je	.L101
.L98:
	.loc 1 289 9 is_stmt 1 view .LVU373
	.loc 1 289 57 view .LVU374
	.loc 1 292 11 view .LVU375
	movl	$1, %edi
	call	usage
.LVL158:
	.p2align 4,,10
	.p2align 3
.L93:
	.loc 1 264 11 view .LVU376
	.loc 1 264 23 is_stmt 0 view .LVU377
	movb	$1, count_bytes(%rip)
	.loc 1 265 11 is_stmt 1 view .LVU378
	jmp	.L92
.L103:
	.loc 1 277 15 view .LVU379
	.loc 1 277 28 is_stmt 0 view .LVU380
	movb	%al, 6(%rsp)
	.loc 1 278 15 is_stmt 1 view .LVU381
	.loc 1 278 28 is_stmt 0 view .LVU382
	movb	$0, 7(%rsp)
	.loc 1 279 15 is_stmt 1 view .LVU383
	.loc 1 279 22 is_stmt 0 view .LVU384
	movq	%r12, optarg(%rip)
	jmp	.L101
.L117:
	.loc 1 279 22 view .LVU385
.LBE152:
	.loc 1 296 3 is_stmt 1 view .LVU386
	.loc 1 296 12 is_stmt 0 view .LVU387
	movl	optind(%rip), %eax
.LVL159:
	.loc 1 296 6 view .LVU388
	cmpl	%ebp, %eax
	je	.L105
.LVL160:
	.loc 1 301 24 is_stmt 1 view .LVU389
	.loc 1 301 7 is_stmt 0 view .LVU390
	jge	.L119
	movslq	%eax, %rdx
	notl	%eax
.LVL161:
	.loc 1 301 7 view .LVU391
	addl	%ebp, %eax
	leaq	(%rbx,%rdx,8), %r12
	addq	%rdx, %rax
	leaq	8(%rbx,%rax,8), %rbp
.LVL162:
	.loc 1 300 10 view .LVU392
	movl	$1, %ebx
.LVL163:
	.p2align 4,,10
	.p2align 3
.L108:
	.loc 1 302 9 is_stmt 1 discriminator 3 view .LVU393
	.loc 1 302 15 is_stmt 0 discriminator 3 view .LVU394
	movq	(%r12), %rdi
	movq	%r13, %rsi
	addq	$8, %r12
	call	fold_file
.LVL164:
	andl	%eax, %ebx
.LVL165:
	.loc 1 301 34 is_stmt 1 discriminator 3 view .LVU395
	.loc 1 301 24 discriminator 3 view .LVU396
	.loc 1 301 7 is_stmt 0 discriminator 3 view .LVU397
	cmpq	%rbp, %r12
	jne	.L108
.LVL166:
.L107:
	.loc 1 305 3 is_stmt 1 view .LVU398
	.loc 1 305 6 is_stmt 0 view .LVU399
	cmpb	$0, have_read_stdin(%rip)
	jne	.L120
.L109:
	.loc 1 308 3 is_stmt 1 view .LVU400
	.loc 1 308 28 is_stmt 0 view .LVU401
	xorl	$1, %ebx
.LVL167:
	.loc 1 309 1 view .LVU402
	movq	8(%rsp), %rcx
	xorq	%fs:40, %rcx
	.loc 1 308 28 view .LVU403
	movzbl	%bl, %eax
	.loc 1 309 1 view .LVU404
	jne	.L121
	addq	$24, %rsp
	.cfi_remember_state
	.cfi_def_cfa_offset 40
	popq	%rbx
	.cfi_def_cfa_offset 32
	popq	%rbp
	.cfi_def_cfa_offset 24
	popq	%r12
	.cfi_def_cfa_offset 16
	popq	%r13
	.cfi_def_cfa_offset 8
.LVL168:
	.loc 1 309 1 view .LVU405
	ret
.LVL169:
.L120:
	.cfi_restore_state
	.loc 1 305 26 discriminator 1 view .LVU406
	movq	stdin(%rip), %rdi
	call	rpl_fclose@PLT
.LVL170:
	.loc 1 305 23 discriminator 1 view .LVU407
	addl	$1, %eax
	jne	.L109
.LBB153:
	.loc 1 306 5 is_stmt 1 view .LVU408
	call	__errno_location@PLT
.LVL171:
	leaq	.LC32(%rip), %rdx
	movl	$1, %edi
	movl	(%rax), %esi
	xorl	%eax, %eax
	call	error@PLT
.LVL172:
.L105:
	.loc 1 306 5 is_stmt 0 view .LVU409
.LBE153:
	.loc 1 297 5 is_stmt 1 view .LVU410
	.loc 1 297 10 is_stmt 0 view .LVU411
	movq	%r13, %rsi
	leaq	.LC32(%rip), %rdi
	call	fold_file
.LVL173:
	movl	%eax, %ebx
.LVL174:
	.loc 1 297 10 view .LVU412
	jmp	.L107
.LVL175:
.L119:
	.loc 1 300 10 view .LVU413
	movl	$1, %ebx
.LVL176:
	.loc 1 300 10 view .LVU414
	jmp	.L107
.LVL177:
.L95:
.LBB154:
	.loc 1 287 9 is_stmt 1 view .LVU415
	xorl	%edi, %edi
	call	usage
.LVL178:
.L121:
	.loc 1 287 9 is_stmt 0 view .LVU416
.LBE154:
	.loc 1 309 1 view .LVU417
	call	__stack_chk_fail@PLT
.LVL179:
	.cfi_endproc
.LFE138:
	.size	main, .-main
	.local	line_out.7118
	.comm	line_out.7118,8,8
	.local	allocated_out.7119
	.comm	allocated_out.7119,8,8
	.section	.rodata.str1.1
.LC33:
	.string	"bytes"
.LC34:
	.string	"spaces"
.LC35:
	.string	"width"
.LC36:
	.string	"help"
.LC37:
	.string	"version"
	.section	.data.rel.ro.local,"aw"
	.align 32
	.type	longopts, @object
	.size	longopts, 192
longopts:
	.quad	.LC33
	.long	0
	.zero	4
	.quad	0
	.long	98
	.zero	4
	.quad	.LC34
	.long	0
	.zero	4
	.quad	0
	.long	115
	.zero	4
	.quad	.LC35
	.long	1
	.zero	4
	.quad	0
	.long	119
	.zero	4
	.quad	.LC36
	.long	0
	.zero	4
	.quad	0
	.long	-130
	.zero	4
	.quad	.LC37
	.long	0
	.zero	4
	.quad	0
	.long	-131
	.zero	4
	.quad	0
	.long	0
	.zero	4
	.quad	0
	.long	0
	.zero	4
	.section	.rodata
	.align 32
	.type	shortopts, @object
	.size	shortopts, 35
shortopts:
	.string	"bsw:0::1::2::3::4::5::6::7::8::9::"
	.local	have_read_stdin
	.comm	have_read_stdin,1,1
	.local	count_bytes
	.comm	count_bytes,1,1
	.local	break_spaces
	.comm	break_spaces,1,1
	.text
.Letext0:
	.file 6 "/usr/lib/gcc/x86_64-linux-gnu/9/include/stddef.h"
	.file 7 "/usr/include/x86_64-linux-gnu/bits/types.h"
	.file 8 "/usr/include/x86_64-linux-gnu/bits/types/struct_FILE.h"
	.file 9 "/usr/include/x86_64-linux-gnu/bits/types/FILE.h"
	.file 10 "/usr/include/stdio.h"
	.file 11 "/usr/include/x86_64-linux-gnu/bits/sys_errlist.h"
	.file 12 "/usr/include/x86_64-linux-gnu/bits/types/time_t.h"
	.file 13 "./lib/sys/select.h"
	.file 14 "/usr/include/x86_64-linux-gnu/bits/getopt_core.h"
	.file 15 "/usr/include/x86_64-linux-gnu/bits/getopt_ext.h"
	.file 16 "/usr/include/time.h"
	.file 17 "/usr/include/signal.h"
	.file 18 "/usr/include/unistd.h"
	.file 19 "/usr/include/errno.h"
	.file 20 "src/version.h"
	.file 21 "./lib/exitfail.h"
	.file 22 "./lib/timespec.h"
	.file 23 "/usr/include/ctype.h"
	.file 24 "./lib/version-etc.h"
	.file 25 "./lib/progname.h"
	.file 26 "./lib/quotearg.h"
	.file 27 "./lib/error.h"
	.file 28 "./lib/fadvise.h"
	.file 29 "/usr/include/stdlib.h"
	.file 30 "/usr/include/libintl.h"
	.file 31 "./lib/xdectoint.h"
	.file 32 "/usr/include/locale.h"
	.file 33 "./lib/stdio.h"
	.file 34 "./lib/xalloc.h"
	.file 35 "/usr/include/string.h"
	.file 36 "<built-in>"
	.section	.note.GNU-stack,"",@progbits
	.section	.note.gnu.property,"a"
	.align 8
	.long	 1f - 0f
	.long	 4f - 1f
	.long	 5
0:
	.string	 "GNU"
1:
	.align 8
	.long	 0xc0000002
	.long	 3f - 2f
2:
	.long	 0x3
3:
	.align 8
4:
