	.file	"id.c"
	.text
.Ltext0:
	.section	.rodata.str1.8,"aMS",@progbits,1
	.align 8
.LC0:
	.string	"cannot find name for user ID %s"
	.section	.rodata.str1.1,"aMS",@progbits,1
.LC1:
	.string	"uid=%s"
.LC2:
	.string	"(%s)"
.LC3:
	.string	" gid=%s"
.LC4:
	.string	" euid=%s"
.LC5:
	.string	" egid=%s"
	.section	.rodata.str1.8
	.align 8
.LC6:
	.string	"failed to get groups for user %s"
	.align 8
.LC7:
	.string	"failed to get groups for the current process"
	.section	.rodata.str1.1
.LC8:
	.string	" context=%s"
.LC9:
	.string	" groups="
	.text
	.p2align 4
	.type	print_stuff, @function
print_stuff:
.LVL0:
.LFB144:
	.file 1 "src/id.c"
	.loc 1 433 1 view -0
	.cfi_startproc
	.loc 1 433 1 is_stmt 0 view .LVU1
	pushq	%r13
	.cfi_def_cfa_offset 16
	.cfi_offset 13, -16
	pushq	%r12
	.cfi_def_cfa_offset 24
	.cfi_offset 12, -24
	pushq	%rbp
	.cfi_def_cfa_offset 32
	.cfi_offset 6, -32
	pushq	%rbx
	.cfi_def_cfa_offset 40
	.cfi_offset 3, -40
	subq	$24, %rsp
	.cfi_def_cfa_offset 64
	.loc 1 433 1 view .LVU2
	movq	%fs:40, %rax
	movq	%rax, 8(%rsp)
	xorl	%eax, %eax
	.loc 1 434 3 is_stmt 1 view .LVU3
	.loc 1 434 6 is_stmt 0 view .LVU4
	cmpb	$0, just_user(%rip)
	je	.L2
	.loc 1 435 7 is_stmt 1 view .LVU5
	cmpb	$0, use_real(%rip)
	movl	euid(%rip), %ebp
	je	.L4
	.loc 1 435 7 is_stmt 0 discriminator 1 view .LVU6
	movl	ruid(%rip), %ebp
.L4:
.LVL1:
.LBB150:
.LBI150:
	.loc 1 335 1 is_stmt 1 discriminator 4 view .LVU7
.LBB151:
	.loc 1 337 3 discriminator 4 view .LVU8
	.loc 1 339 3 discriminator 4 view .LVU9
	.loc 1 339 6 is_stmt 0 discriminator 4 view .LVU10
	cmpb	$0, use_name(%rip)
	jne	.L66
.LVL2:
.L6:
.LBB152:
.LBI152:
	.loc 1 325 1 is_stmt 1 view .LVU11
.LBB153:
	.loc 1 327 3 view .LVU12
	.loc 1 328 3 view .LVU13
	.loc 1 328 10 is_stmt 0 view .LVU14
	movq	%rbp, %rdi
	leaq	buf.7763(%rip), %rsi
	call	umaxtostr@PLT
.LVL3:
	movq	%rax, %rdi
.LVL4:
.L38:
	.loc 1 328 10 view .LVU15
.LBE153:
.LBE152:
	.loc 1 351 3 is_stmt 1 view .LVU16
	movq	stdout(%rip), %rsi
	call	fputs_unlocked@PLT
.LVL5:
.L8:
	.loc 1 351 3 is_stmt 0 view .LVU17
.LBE151:
.LBE150:
	.loc 1 455 3 is_stmt 1 view .LVU18
	movq	stdout(%rip), %rdi
	.loc 1 455 6 is_stmt 0 view .LVU19
	cmpb	$0, opt_zero(%rip)
	movq	40(%rdi), %rax
	movq	48(%rdi), %rdx
	je	.L45
	.loc 1 455 16 discriminator 1 view .LVU20
	cmpb	$0, just_group_list(%rip)
	je	.L47
	.loc 1 455 35 discriminator 2 view .LVU21
	cmpb	$0, multiple_users(%rip)
	jne	.L67
.L47:
	.loc 1 462 7 view .LVU22
	xorl	%esi, %esi
.L32:
.LVL6:
.LBB160:
.LBI160:
	.file 2 "/usr/include/x86_64-linux-gnu/bits/stdio.h"
	.loc 2 108 1 is_stmt 1 discriminator 4 view .LVU23
.LBB161:
	.loc 2 110 3 discriminator 4 view .LVU24
	.loc 2 110 10 is_stmt 0 discriminator 4 view .LVU25
	cmpq	%rax, %rdx
	jbe	.L68
	.loc 2 110 10 view .LVU26
	leaq	1(%rax), %rdx
	movq	%rdx, 40(%rdi)
	movb	%sil, (%rax)
.LVL7:
.L1:
	.loc 2 110 10 view .LVU27
.LBE161:
.LBE160:
	.loc 1 464 1 view .LVU28
	movq	8(%rsp), %rax
	xorq	%fs:40, %rax
	jne	.L69
	addq	$24, %rsp
	.cfi_remember_state
	.cfi_def_cfa_offset 40
	popq	%rbx
	.cfi_def_cfa_offset 32
	popq	%rbp
	.cfi_def_cfa_offset 24
	popq	%r12
	.cfi_def_cfa_offset 16
	popq	%r13
	.cfi_def_cfa_offset 8
	ret
.LVL8:
	.p2align 4,,10
	.p2align 3
.L2:
	.cfi_restore_state
	.loc 1 442 8 is_stmt 1 view .LVU29
	.loc 1 442 11 is_stmt 0 view .LVU30
	cmpb	$0, just_group(%rip)
	je	.L9
	.loc 1 443 5 is_stmt 1 view .LVU31
	.loc 1 443 11 is_stmt 0 view .LVU32
	cmpb	$0, use_real(%rip)
	movzbl	use_name(%rip), %esi
	movl	egid(%rip), %edi
.LVL9:
	.loc 1 443 11 view .LVU33
	je	.L11
	.loc 1 443 11 discriminator 1 view .LVU34
	movl	rgid(%rip), %edi
.L11:
	.loc 1 443 11 discriminator 4 view .LVU35
	call	print_group@PLT
.LVL10:
	.loc 1 443 8 discriminator 4 view .LVU36
	andb	%al, ok(%rip)
	jmp	.L8
.LVL11:
	.p2align 4,,10
	.p2align 3
.L66:
.LBB163:
.LBB158:
	.loc 1 341 7 is_stmt 1 view .LVU37
	.loc 1 341 13 is_stmt 0 view .LVU38
	movl	%ebp, %edi
.LVL12:
	.loc 1 341 13 view .LVU39
	call	getpwuid@PLT
.LVL13:
	.loc 1 342 7 is_stmt 1 view .LVU40
	.loc 1 342 10 is_stmt 0 view .LVU41
	testq	%rax, %rax
	je	.L70
	.loc 1 350 3 is_stmt 1 view .LVU42
	.loc 1 350 32 is_stmt 0 view .LVU43
	movq	(%rax), %rdi
	jmp	.L38
.LVL14:
	.p2align 4,,10
	.p2align 3
.L9:
	.loc 1 350 32 view .LVU44
.LBE158:
.LBE163:
	.loc 1 444 11 view .LVU45
	cmpb	$0, just_group_list(%rip)
	movq	%rdi, %rbp
	.loc 1 444 8 is_stmt 1 view .LVU46
	.loc 1 444 11 is_stmt 0 view .LVU47
	jne	.L71
	.loc 1 447 8 is_stmt 1 view .LVU48
	.loc 1 447 11 is_stmt 0 view .LVU49
	cmpb	$0, just_context(%rip)
	je	.L14
	.loc 1 448 5 is_stmt 1 view .LVU50
	movq	stdout(%rip), %rsi
	movq	context(%rip), %rdi
.LVL15:
	.loc 1 448 5 is_stmt 0 view .LVU51
	call	fputs_unlocked@PLT
.LVL16:
	jmp	.L8
.LVL17:
	.p2align 4,,10
	.p2align 3
.L45:
	.loc 1 462 7 view .LVU52
	movl	$10, %esi
	jmp	.L32
.LVL18:
	.p2align 4,,10
	.p2align 3
.L71:
	.loc 1 445 5 is_stmt 1 view .LVU53
	.loc 1 445 11 is_stmt 0 view .LVU54
	xorl	%r9d, %r9d
	cmpb	$0, opt_zero(%rip)
	movzbl	use_name(%rip), %r8d
	sete	%r9b
	movl	egid(%rip), %ecx
	movl	rgid(%rip), %edx
	movl	ruid(%rip), %esi
	sall	$5, %r9d
	call	print_group_list@PLT
.LVL19:
	.loc 1 445 8 view .LVU55
	andb	%al, ok(%rip)
	jmp	.L8
.LVL20:
	.p2align 4,,10
	.p2align 3
.L67:
	.loc 1 457 7 is_stmt 1 view .LVU56
.LBB164:
.LBI164:
	.loc 2 108 1 view .LVU57
.LBB165:
	.loc 2 110 3 view .LVU58
	.loc 2 110 10 is_stmt 0 view .LVU59
	cmpq	%rax, %rdx
	jbe	.L72
	leaq	1(%rax), %rdx
	movq	%rdx, 40(%rdi)
	movb	$0, (%rax)
.L34:
.LVL21:
	.loc 2 110 10 view .LVU60
.LBE165:
.LBE164:
	.loc 1 458 7 is_stmt 1 view .LVU61
.LBB167:
.LBI167:
	.loc 2 108 1 view .LVU62
.LBB168:
	.loc 2 110 3 view .LVU63
	.loc 2 110 10 is_stmt 0 view .LVU64
	movq	stdout(%rip), %rdi
	movq	40(%rdi), %rax
	cmpq	48(%rdi), %rax
	jnb	.L73
	leaq	1(%rax), %rdx
	movq	%rdx, 40(%rdi)
	movb	$0, (%rax)
	jmp	.L1
.LVL22:
	.p2align 4,,10
	.p2align 3
.L68:
	.loc 2 110 10 view .LVU65
.LBE168:
.LBE167:
.LBB170:
.LBB162:
	call	__overflow@PLT
.LVL23:
	.loc 2 110 10 view .LVU66
	jmp	.L1
.LVL24:
	.p2align 4,,10
	.p2align 3
.L14:
	.loc 2 110 10 view .LVU67
.LBE162:
.LBE170:
	.loc 1 450 5 is_stmt 1 view .LVU68
.LBB171:
.LBI171:
	.loc 1 357 1 view .LVU69
.LBB172:
	.loc 1 359 3 view .LVU70
	.loc 1 360 3 view .LVU71
	.loc 1 362 3 view .LVU72
.LBB173:
.LBI173:
	.loc 1 325 1 view .LVU73
.LBB174:
	.loc 1 327 3 view .LVU74
	.loc 1 328 3 view .LVU75
	.loc 1 328 10 is_stmt 0 view .LVU76
	movl	ruid(%rip), %edi
.LVL25:
	.loc 1 328 10 view .LVU77
	leaq	buf.7763(%rip), %rsi
	call	umaxtostr@PLT
.LVL26:
.LBE174:
.LBE173:
	.loc 1 362 11 view .LVU78
	movl	$5, %edx
	leaq	.LC1(%rip), %rsi
	xorl	%edi, %edi
.LBB176:
.LBB175:
	.loc 1 328 10 view .LVU79
	movq	%rax, %r12
.LBE175:
.LBE176:
	.loc 1 362 11 view .LVU80
	call	dcgettext@PLT
.LVL27:
.LBB177:
.LBB178:
	.file 3 "/usr/include/x86_64-linux-gnu/bits/stdio2.h"
	.loc 3 107 10 view .LVU81
	movq	%r12, %rdx
	movl	$1, %edi
.LBE178:
.LBE177:
	.loc 1 362 11 view .LVU82
	movq	%rax, %rsi
.LVL28:
.LBB180:
.LBI177:
	.loc 3 105 1 is_stmt 1 view .LVU83
.LBB179:
	.loc 3 107 3 view .LVU84
	.loc 3 107 10 is_stmt 0 view .LVU85
	xorl	%eax, %eax
.LVL29:
	.loc 3 107 10 view .LVU86
	call	__printf_chk@PLT
.LVL30:
	.loc 3 107 10 view .LVU87
.LBE179:
.LBE180:
	.loc 1 363 3 is_stmt 1 view .LVU88
	.loc 1 363 9 is_stmt 0 view .LVU89
	movl	ruid(%rip), %edi
	call	getpwuid@PLT
.LVL31:
	movq	%rax, %rbx
.LVL32:
	.loc 1 364 3 is_stmt 1 view .LVU90
	.loc 1 364 6 is_stmt 0 view .LVU91
	testq	%rax, %rax
	je	.L15
	.loc 1 365 5 is_stmt 1 view .LVU92
.LVL33:
.LBB181:
.LBI181:
	.loc 3 105 1 view .LVU93
.LBB182:
	.loc 3 107 3 view .LVU94
	.loc 3 107 10 is_stmt 0 view .LVU95
	movq	(%rax), %rdx
	leaq	.LC2(%rip), %rsi
	movl	$1, %edi
	xorl	%eax, %eax
.LVL34:
	.loc 3 107 10 view .LVU96
	call	__printf_chk@PLT
.LVL35:
.L15:
	.loc 3 107 10 view .LVU97
.LBE182:
.LBE181:
	.loc 1 367 3 is_stmt 1 view .LVU98
.LBB183:
.LBI183:
	.loc 1 314 1 view .LVU99
.LBB184:
	.loc 1 316 3 view .LVU100
	.loc 1 317 3 view .LVU101
	.loc 1 317 10 is_stmt 0 view .LVU102
	movl	rgid(%rip), %edi
	leaq	buf.7759(%rip), %rsi
	call	umaxtostr@PLT
.LVL36:
.LBE184:
.LBE183:
	.loc 1 367 11 view .LVU103
	xorl	%edi, %edi
	movl	$5, %edx
	leaq	.LC3(%rip), %rsi
.LBB186:
.LBB185:
	.loc 1 317 10 view .LVU104
	movq	%rax, %r12
.LBE185:
.LBE186:
	.loc 1 367 11 view .LVU105
	call	dcgettext@PLT
.LVL37:
.LBB187:
.LBB188:
	.loc 3 107 10 view .LVU106
	movl	$1, %edi
	movq	%r12, %rdx
.LBE188:
.LBE187:
	.loc 1 367 11 view .LVU107
	movq	%rax, %rsi
.LVL38:
.LBB190:
.LBI187:
	.loc 3 105 1 is_stmt 1 view .LVU108
.LBB189:
	.loc 3 107 3 view .LVU109
	.loc 3 107 10 is_stmt 0 view .LVU110
	xorl	%eax, %eax
.LVL39:
	.loc 3 107 10 view .LVU111
	call	__printf_chk@PLT
.LVL40:
	.loc 3 107 10 view .LVU112
.LBE189:
.LBE190:
	.loc 1 368 3 is_stmt 1 view .LVU113
	.loc 1 368 9 is_stmt 0 view .LVU114
	movl	rgid(%rip), %edi
	call	getgrgid@PLT
.LVL41:
	.loc 1 369 3 is_stmt 1 view .LVU115
	.loc 1 369 6 is_stmt 0 view .LVU116
	testq	%rax, %rax
	je	.L16
	.loc 1 370 5 is_stmt 1 view .LVU117
.LVL42:
.LBB191:
.LBI191:
	.loc 3 105 1 view .LVU118
.LBB192:
	.loc 3 107 3 view .LVU119
	.loc 3 107 10 is_stmt 0 view .LVU120
	movq	(%rax), %rdx
	leaq	.LC2(%rip), %rsi
	movl	$1, %edi
	xorl	%eax, %eax
.LVL43:
	.loc 3 107 10 view .LVU121
	call	__printf_chk@PLT
.LVL44:
.L16:
	.loc 3 107 10 view .LVU122
.LBE192:
.LBE191:
	.loc 1 372 3 is_stmt 1 view .LVU123
	.loc 1 372 12 is_stmt 0 view .LVU124
	movl	euid(%rip), %edi
	.loc 1 372 6 view .LVU125
	cmpl	ruid(%rip), %edi
	jne	.L74
.LVL45:
.L17:
	.loc 1 380 3 is_stmt 1 view .LVU126
	.loc 1 380 12 is_stmt 0 view .LVU127
	movl	egid(%rip), %edi
	.loc 1 380 6 view .LVU128
	cmpl	rgid(%rip), %edi
	jne	.L75
.LVL46:
.L19:
.LBB193:
	.loc 1 389 5 is_stmt 1 view .LVU129
	.loc 1 391 5 view .LVU130
	.loc 1 392 5 view .LVU131
	.loc 1 392 8 is_stmt 0 view .LVU132
	testq	%rbp, %rbp
	je	.L21
	.loc 1 393 7 is_stmt 1 view .LVU133
	.loc 1 393 41 is_stmt 0 view .LVU134
	movl	$-1, %esi
	testq	%rbx, %rbx
	je	.L22
	movl	20(%rbx), %esi
.L22:
.LVL47:
	.loc 1 397 5 is_stmt 1 view .LVU135
	.loc 1 397 20 is_stmt 0 view .LVU136
	movq	%rsp, %rdx
	movq	%rbp, %rdi
	call	xgetgroups@PLT
.LVL48:
	.loc 1 397 20 view .LVU137
	movl	%eax, %ebx
.LVL49:
	.loc 1 398 5 is_stmt 1 view .LVU138
	.loc 1 398 8 is_stmt 0 view .LVU139
	testl	%eax, %eax
	js	.L76
.L24:
	.loc 1 409 5 is_stmt 1 view .LVU140
	.loc 1 409 8 is_stmt 0 view .LVU141
	testl	%ebx, %ebx
	jne	.L77
.LVL50:
.L31:
	.loc 1 420 5 is_stmt 1 view .LVU142
	movq	(%rsp), %rdi
	call	free@PLT
.LVL51:
.LBE193:
	.loc 1 425 3 view .LVU143
	.loc 1 425 7 is_stmt 0 view .LVU144
	movq	context(%rip), %r12
	.loc 1 425 6 view .LVU145
	testq	%r12, %r12
	je	.L8
	.loc 1 426 5 is_stmt 1 view .LVU146
	.loc 1 426 13 is_stmt 0 view .LVU147
	xorl	%edi, %edi
	movl	$5, %edx
	leaq	.LC8(%rip), %rsi
	call	dcgettext@PLT
.LVL52:
.LBB208:
.LBB209:
	.loc 3 107 10 view .LVU148
	movq	%r12, %rdx
	movl	$1, %edi
.LBE209:
.LBE208:
	.loc 1 426 13 view .LVU149
	movq	%rax, %rsi
.LVL53:
.LBB211:
.LBI208:
	.loc 3 105 1 is_stmt 1 view .LVU150
.LBB210:
	.loc 3 107 3 view .LVU151
	.loc 3 107 10 is_stmt 0 view .LVU152
	xorl	%eax, %eax
.LVL54:
	.loc 3 107 10 view .LVU153
	call	__printf_chk@PLT
.LVL55:
	.loc 3 107 10 view .LVU154
	jmp	.L8
.LVL56:
	.p2align 4,,10
	.p2align 3
.L75:
	.loc 3 107 10 view .LVU155
.LBE210:
.LBE211:
	.loc 1 382 7 is_stmt 1 view .LVU156
.LBB212:
.LBI212:
	.loc 1 314 1 view .LVU157
.LBB213:
	.loc 1 316 3 view .LVU158
	.loc 1 317 3 view .LVU159
	.loc 1 317 10 is_stmt 0 view .LVU160
	leaq	buf.7759(%rip), %rsi
	call	umaxtostr@PLT
.LVL57:
.LBE213:
.LBE212:
	.loc 1 382 15 view .LVU161
	xorl	%edi, %edi
	movl	$5, %edx
	leaq	.LC5(%rip), %rsi
.LBB215:
.LBB214:
	.loc 1 317 10 view .LVU162
	movq	%rax, %r12
.LBE214:
.LBE215:
	.loc 1 382 15 view .LVU163
	call	dcgettext@PLT
.LVL58:
.LBB216:
.LBB217:
	.loc 3 107 10 view .LVU164
	movl	$1, %edi
	movq	%r12, %rdx
.LBE217:
.LBE216:
	.loc 1 382 15 view .LVU165
	movq	%rax, %rsi
.LVL59:
.LBB219:
.LBI216:
	.loc 3 105 1 is_stmt 1 view .LVU166
.LBB218:
	.loc 3 107 3 view .LVU167
	.loc 3 107 10 is_stmt 0 view .LVU168
	xorl	%eax, %eax
.LVL60:
	.loc 3 107 10 view .LVU169
	call	__printf_chk@PLT
.LVL61:
	.loc 3 107 10 view .LVU170
.LBE218:
.LBE219:
	.loc 1 383 7 is_stmt 1 view .LVU171
	.loc 1 383 13 is_stmt 0 view .LVU172
	movl	egid(%rip), %edi
	call	getgrgid@PLT
.LVL62:
	.loc 1 384 7 is_stmt 1 view .LVU173
	.loc 1 384 10 is_stmt 0 view .LVU174
	testq	%rax, %rax
	je	.L19
	.loc 1 385 9 is_stmt 1 view .LVU175
.LVL63:
.LBB220:
.LBI220:
	.loc 3 105 1 view .LVU176
.LBB221:
	.loc 3 107 3 view .LVU177
	.loc 3 107 10 is_stmt 0 view .LVU178
	movq	(%rax), %rdx
	leaq	.LC2(%rip), %rsi
	movl	$1, %edi
	xorl	%eax, %eax
.LVL64:
	.loc 3 107 10 view .LVU179
	call	__printf_chk@PLT
.LVL65:
	jmp	.L19
.LVL66:
	.p2align 4,,10
	.p2align 3
.L74:
	.loc 3 107 10 view .LVU180
.LBE221:
.LBE220:
	.loc 1 374 7 is_stmt 1 view .LVU181
.LBB222:
.LBI222:
	.loc 1 325 1 view .LVU182
.LBB223:
	.loc 1 327 3 view .LVU183
	.loc 1 328 3 view .LVU184
	.loc 1 328 10 is_stmt 0 view .LVU185
	leaq	buf.7763(%rip), %rsi
	call	umaxtostr@PLT
.LVL67:
.LBE223:
.LBE222:
	.loc 1 374 15 view .LVU186
	movl	$5, %edx
	leaq	.LC4(%rip), %rsi
	xorl	%edi, %edi
.LBB225:
.LBB224:
	.loc 1 328 10 view .LVU187
	movq	%rax, %r12
.LBE224:
.LBE225:
	.loc 1 374 15 view .LVU188
	call	dcgettext@PLT
.LVL68:
.LBB226:
.LBB227:
	.loc 3 107 10 view .LVU189
	movq	%r12, %rdx
	movl	$1, %edi
.LBE227:
.LBE226:
	.loc 1 374 15 view .LVU190
	movq	%rax, %rsi
.LVL69:
.LBB229:
.LBI226:
	.loc 3 105 1 is_stmt 1 view .LVU191
.LBB228:
	.loc 3 107 3 view .LVU192
	.loc 3 107 10 is_stmt 0 view .LVU193
	xorl	%eax, %eax
.LVL70:
	.loc 3 107 10 view .LVU194
	call	__printf_chk@PLT
.LVL71:
	.loc 3 107 10 view .LVU195
.LBE228:
.LBE229:
	.loc 1 375 7 is_stmt 1 view .LVU196
	.loc 1 375 13 is_stmt 0 view .LVU197
	movl	euid(%rip), %edi
	call	getpwuid@PLT
.LVL72:
	movq	%rax, %rbx
.LVL73:
	.loc 1 376 7 is_stmt 1 view .LVU198
	.loc 1 376 10 is_stmt 0 view .LVU199
	testq	%rax, %rax
	je	.L17
	.loc 1 377 9 is_stmt 1 view .LVU200
.LVL74:
.LBB230:
.LBI230:
	.loc 3 105 1 view .LVU201
.LBB231:
	.loc 3 107 3 view .LVU202
	.loc 3 107 10 is_stmt 0 view .LVU203
	movq	(%rax), %rdx
	leaq	.LC2(%rip), %rsi
	movl	$1, %edi
	xorl	%eax, %eax
.LVL75:
	.loc 3 107 10 view .LVU204
	call	__printf_chk@PLT
.LVL76:
	jmp	.L17
.LVL77:
	.p2align 4,,10
	.p2align 3
.L21:
	.loc 3 107 10 view .LVU205
.LBE231:
.LBE230:
.LBB232:
	.loc 1 395 7 is_stmt 1 view .LVU206
	.loc 1 397 5 view .LVU207
	.loc 1 397 20 is_stmt 0 view .LVU208
	movl	egid(%rip), %esi
	movq	%rsp, %rdx
	xorl	%edi, %edi
	call	xgetgroups@PLT
.LVL78:
	.loc 1 397 20 view .LVU209
	movl	%eax, %ebx
.LVL79:
	.loc 1 398 5 is_stmt 1 view .LVU210
	.loc 1 398 8 is_stmt 0 view .LVU211
	testl	%eax, %eax
	jns	.L24
	.loc 1 404 11 is_stmt 1 view .LVU212
	.loc 1 404 28 is_stmt 0 view .LVU213
	movl	$5, %edx
	leaq	.LC7(%rip), %rsi
	xorl	%edi, %edi
	call	dcgettext@PLT
.LVL80:
	.loc 1 404 28 view .LVU214
	movq	%rax, %r12
	.loc 1 404 21 view .LVU215
	call	__errno_location@PLT
.LVL81:
	.loc 1 404 11 view .LVU216
	movq	%r12, %rdx
	xorl	%edi, %edi
	movl	(%rax), %esi
	xorl	%eax, %eax
	call	error@PLT
.LVL82:
.L25:
	.loc 1 405 9 is_stmt 1 view .LVU217
	.loc 1 405 12 is_stmt 0 view .LVU218
	movb	$0, ok(%rip)
	.loc 1 406 9 is_stmt 1 view .LVU219
	jmp	.L8
.LVL83:
	.p2align 4,,10
	.p2align 3
.L70:
	.loc 1 406 9 is_stmt 0 view .LVU220
.LBE232:
.LBE172:
.LBE171:
.LBB237:
.LBB159:
	.loc 1 344 11 is_stmt 1 view .LVU221
.LBB154:
.LBI154:
	.loc 1 325 1 view .LVU222
.LBB155:
	.loc 1 327 3 view .LVU223
	.loc 1 328 3 view .LVU224
	.loc 1 328 10 is_stmt 0 view .LVU225
	leaq	buf.7763(%rip), %rsi
	movq	%rbp, %rdi
	call	umaxtostr@PLT
.LVL84:
	.loc 1 328 10 view .LVU226
.LBE155:
.LBE154:
	.loc 1 344 24 view .LVU227
	movl	$5, %edx
	leaq	.LC0(%rip), %rsi
	xorl	%edi, %edi
.LBB157:
.LBB156:
	.loc 1 328 10 view .LVU228
	movq	%rax, %r12
.LBE156:
.LBE157:
	.loc 1 344 24 view .LVU229
	call	dcgettext@PLT
.LVL85:
	.loc 1 344 11 view .LVU230
	movq	%r12, %rcx
	xorl	%esi, %esi
	xorl	%edi, %edi
	.loc 1 344 24 view .LVU231
	movq	%rax, %rdx
	.loc 1 344 11 view .LVU232
	xorl	%eax, %eax
	call	error@PLT
.LVL86:
	.loc 1 346 11 is_stmt 1 view .LVU233
	.loc 1 346 14 is_stmt 0 view .LVU234
	movb	$0, ok(%rip)
.LVL87:
	.loc 1 350 3 is_stmt 1 view .LVU235
	jmp	.L6
.LVL88:
	.p2align 4,,10
	.p2align 3
.L77:
	.loc 1 350 3 is_stmt 0 view .LVU236
.LBE159:
.LBE237:
.LBB238:
.LBB235:
.LBB233:
	.loc 1 410 7 is_stmt 1 view .LVU237
	movq	stdout(%rip), %rbp
.LVL89:
	.loc 1 410 7 is_stmt 0 view .LVU238
	movl	$5, %edx
	leaq	.LC9(%rip), %rsi
	xorl	%edi, %edi
	call	dcgettext@PLT
.LVL90:
	.loc 1 410 7 view .LVU239
	subl	$1, %ebx
.LVL91:
.LBB194:
.LBB195:
.LBB196:
	.loc 1 317 10 view .LVU240
	leaq	buf.7759(%rip), %r12
.LBE196:
.LBE195:
.LBE194:
	.loc 1 410 7 view .LVU241
	movq	%rbp, %rsi
	movq	%rax, %rdi
	salq	$2, %rbx
	xorl	%ebp, %ebp
	call	fputs_unlocked@PLT
.LVL92:
.LBB207:
	.loc 1 411 21 is_stmt 1 view .LVU242
	.loc 1 411 21 is_stmt 0 view .LVU243
	jmp	.L40
.LVL93:
	.p2align 4,,10
	.p2align 3
.L27:
.LBB199:
.LBB200:
	.loc 2 110 10 view .LVU244
	leaq	1(%rax), %rdx
	movq	%rdx, 40(%rdi)
	movb	$44, (%rax)
.L28:
	addq	$4, %rbp
.LVL94:
.L40:
	.loc 2 110 10 view .LVU245
.LBE200:
.LBE199:
	.loc 1 415 9 is_stmt 1 view .LVU246
	movq	(%rsp), %rax
	movq	stdout(%rip), %r13
.LVL95:
.LBB202:
.LBI195:
	.loc 1 314 1 view .LVU247
.LBB197:
	.loc 1 316 3 view .LVU248
	.loc 1 317 3 view .LVU249
	.loc 1 317 10 is_stmt 0 view .LVU250
	movq	%r12, %rsi
	movl	(%rax,%rbp), %edi
	call	umaxtostr@PLT
.LVL96:
	.loc 1 317 10 view .LVU251
.LBE197:
.LBE202:
	.loc 1 415 9 view .LVU252
	movq	%r13, %rsi
.LBB203:
.LBB198:
	.loc 1 317 10 view .LVU253
	movq	%rax, %rdi
.LBE198:
.LBE203:
	.loc 1 415 9 view .LVU254
	call	fputs_unlocked@PLT
.LVL97:
	.loc 1 416 9 is_stmt 1 view .LVU255
	.loc 1 416 15 is_stmt 0 view .LVU256
	movq	(%rsp), %rax
	movl	(%rax,%rbp), %edi
	call	getgrgid@PLT
.LVL98:
	.loc 1 417 9 is_stmt 1 view .LVU257
	.loc 1 417 12 is_stmt 0 view .LVU258
	testq	%rax, %rax
	je	.L29
	.loc 1 418 11 is_stmt 1 view .LVU259
.LVL99:
.LBB204:
.LBI204:
	.loc 3 105 1 view .LVU260
.LBB205:
	.loc 3 107 3 view .LVU261
	.loc 3 107 10 is_stmt 0 view .LVU262
	movq	(%rax), %rdx
	leaq	.LC2(%rip), %rsi
	movl	$1, %edi
	xorl	%eax, %eax
.LVL100:
	.loc 3 107 10 view .LVU263
	call	__printf_chk@PLT
.LVL101:
.L29:
	.loc 3 107 10 view .LVU264
.LBE205:
.LBE204:
	.loc 1 411 35 is_stmt 1 view .LVU265
	.loc 1 411 21 view .LVU266
	.loc 1 411 5 is_stmt 0 view .LVU267
	cmpq	%rbx, %rbp
	je	.L31
	.loc 1 413 9 is_stmt 1 view .LVU268
	.loc 1 414 11 view .LVU269
.LVL102:
.LBB206:
.LBI199:
	.loc 2 108 1 view .LVU270
.LBB201:
	.loc 2 110 3 view .LVU271
	.loc 2 110 10 is_stmt 0 view .LVU272
	movq	stdout(%rip), %rdi
	movq	40(%rdi), %rax
	cmpq	48(%rdi), %rax
	jb	.L27
	movl	$44, %esi
	call	__overflow@PLT
.LVL103:
	jmp	.L28
.LVL104:
	.p2align 4,,10
	.p2align 3
.L73:
	.loc 2 110 10 view .LVU273
.LBE201:
.LBE206:
.LBE207:
.LBE233:
.LBE235:
.LBE238:
.LBB239:
.LBB169:
	xorl	%esi, %esi
	call	__overflow@PLT
.LVL105:
	jmp	.L1
.LVL106:
	.p2align 4,,10
	.p2align 3
.L72:
	.loc 2 110 10 view .LVU274
.LBE169:
.LBE239:
.LBB240:
.LBB166:
	xorl	%esi, %esi
	call	__overflow@PLT
.LVL107:
	jmp	.L34
.LVL108:
	.p2align 4,,10
	.p2align 3
.L76:
	.loc 2 110 10 view .LVU275
.LBE166:
.LBE240:
.LBB241:
.LBB236:
.LBB234:
	.loc 1 401 11 is_stmt 1 view .LVU276
	movq	%rbp, %rdi
	call	quote@PLT
.LVL109:
	.loc 1 401 28 is_stmt 0 view .LVU277
	xorl	%edi, %edi
	movl	$5, %edx
	leaq	.LC6(%rip), %rsi
	.loc 1 401 11 view .LVU278
	movq	%rax, %r13
	.loc 1 401 28 view .LVU279
	call	dcgettext@PLT
.LVL110:
	movq	%rax, %r12
	.loc 1 401 21 view .LVU280
	call	__errno_location@PLT
.LVL111:
	.loc 1 401 11 view .LVU281
	movq	%r13, %rcx
	movq	%r12, %rdx
	xorl	%edi, %edi
	movl	(%rax), %esi
	xorl	%eax, %eax
	call	error@PLT
.LVL112:
	jmp	.L25
.LVL113:
.L69:
	.loc 1 401 11 view .LVU282
.LBE234:
.LBE236:
.LBE241:
	.loc 1 464 1 view .LVU283
	call	__stack_chk_fail@PLT
.LVL114:
	.cfi_endproc
.LFE144:
	.size	print_stuff, .-print_stuff
	.section	.rodata.str1.1
.LC10:
	.string	"id"
.LC11:
	.string	" invocation"
.LC12:
	.string	""
	.section	.rodata.str1.8
	.align 8
.LC13:
	.string	"Try '%s --help' for more information.\n"
	.align 8
.LC14:
	.string	"Usage: %s [OPTION]... [USER]...\n"
	.align 8
.LC15:
	.string	"Print user and group information for each specified USER,\nor (when USER omitted) for the current user.\n\n"
	.align 8
.LC16:
	.ascii	"  -a             ignore, for compatibility with other versio"
	.ascii	"ns\n  -Z, --context  print only the security context of the "
	.ascii	"process\n  -g, --group    print only the effective group ID\n"
	.ascii	"  -G, --groups   print all group IDs\n  -n, --name     print"
	.ascii	" a name instead of a number"
	.string	", for -ugG\n  -r, --real     print the real ID instead of the effective ID, with -ugG\n  -u, --user     print only the effective user ID\n  -z, --zero     delimit entries with NUL characters, not whitespace;\n                   not permitted in default format\n"
	.align 8
.LC17:
	.string	"      --help     display this help and exit\n"
	.align 8
.LC18:
	.string	"      --version  output version information and exit\n"
	.align 8
.LC19:
	.string	"\nWithout any OPTION, print some useful set of identified information.\n"
	.section	.rodata.str1.1
.LC20:
	.string	"["
.LC21:
	.string	"test invocation"
.LC22:
	.string	"coreutils"
.LC23:
	.string	"Multi-call invocation"
.LC24:
	.string	"sha224sum"
.LC25:
	.string	"sha2 utilities"
.LC26:
	.string	"sha256sum"
.LC27:
	.string	"sha384sum"
.LC28:
	.string	"sha512sum"
.LC29:
	.string	"\n%s online help: <%s>\n"
	.section	.rodata.str1.8
	.align 8
.LC30:
	.string	"https://www.gnu.org/software/coreutils/"
	.section	.rodata.str1.1
.LC31:
	.string	"GNU coreutils"
.LC32:
	.string	"en_"
	.section	.rodata.str1.8
	.align 8
.LC33:
	.string	"Report any translation bugs to <https://translationproject.org/team/>\n"
	.section	.rodata.str1.1
.LC34:
	.string	"Full documentation <%s%s>\n"
	.section	.rodata.str1.8
	.align 8
.LC35:
	.string	"or available locally via: info '(coreutils) %s%s'\n"
	.text
	.p2align 4
	.globl	usage
	.type	usage, @function
usage:
.LVL115:
.LFB138:
	.loc 1 91 1 is_stmt 1 view -0
	.cfi_startproc
	.loc 1 91 1 is_stmt 0 view .LVU285
	endbr64
	pushq	%r14
	.cfi_def_cfa_offset 16
	.cfi_offset 14, -16
	.loc 1 93 5 view .LVU286
	movl	$5, %edx
	.loc 1 91 1 view .LVU287
	pushq	%r13
	.cfi_def_cfa_offset 24
	.cfi_offset 13, -24
	pushq	%r12
	.cfi_def_cfa_offset 32
	.cfi_offset 12, -32
	pushq	%rbp
	.cfi_def_cfa_offset 40
	.cfi_offset 6, -40
	movl	%edi, %ebp
	subq	$136, %rsp
	.cfi_def_cfa_offset 176
	movq	program_name(%rip), %r12
	.loc 1 91 1 view .LVU288
	movq	%fs:40, %rax
	movq	%rax, 120(%rsp)
	xorl	%eax, %eax
	.loc 1 92 3 is_stmt 1 view .LVU289
	.loc 1 92 6 is_stmt 0 view .LVU290
	testl	%edi, %edi
	je	.L79
	.loc 1 93 5 is_stmt 1 view .LVU291
	.loc 1 93 5 view .LVU292
	leaq	.LC13(%rip), %rsi
	xorl	%edi, %edi
.LVL116:
	.loc 1 93 5 is_stmt 0 view .LVU293
	call	dcgettext@PLT
.LVL117:
.LBB254:
.LBB255:
	.loc 3 100 10 view .LVU294
	movq	stderr(%rip), %rdi
	movq	%r12, %rcx
	movl	$1, %esi
.LBE255:
.LBE254:
	.loc 1 93 5 view .LVU295
	movq	%rax, %rdx
.LVL118:
.LBB257:
.LBI254:
	.loc 3 98 1 is_stmt 1 view .LVU296
.LBB256:
	.loc 3 100 3 view .LVU297
	.loc 3 100 10 is_stmt 0 view .LVU298
	xorl	%eax, %eax
.LVL119:
	.loc 3 100 10 view .LVU299
	call	__fprintf_chk@PLT
.LVL120:
.L80:
	.loc 3 100 10 view .LVU300
.LBE256:
.LBE257:
	.loc 1 121 3 is_stmt 1 view .LVU301
	movl	%ebp, %edi
	call	exit@PLT
.LVL121:
.L79:
	.loc 1 96 7 view .LVU302
	.loc 1 96 15 is_stmt 0 view .LVU303
	leaq	.LC14(%rip), %rsi
	xorl	%edi, %edi
.LVL122:
	.loc 1 96 15 view .LVU304
	call	dcgettext@PLT
.LVL123:
.LBB258:
.LBB259:
	.loc 3 107 10 view .LVU305
	movq	%r12, %rdx
	movl	$1, %edi
.LBE259:
.LBE258:
	.loc 1 96 15 view .LVU306
	movq	%rax, %rsi
.LVL124:
.LBB261:
.LBI258:
	.loc 3 105 1 is_stmt 1 view .LVU307
.LBB260:
	.loc 3 107 3 view .LVU308
	.loc 3 107 10 is_stmt 0 view .LVU309
	xorl	%eax, %eax
.LVL125:
	.loc 3 107 10 view .LVU310
	call	__printf_chk@PLT
.LVL126:
	.loc 3 107 10 view .LVU311
.LBE260:
.LBE261:
	.loc 1 97 7 is_stmt 1 view .LVU312
	movq	stdout(%rip), %r12
	movl	$5, %edx
	xorl	%edi, %edi
	leaq	.LC15(%rip), %rsi
	call	dcgettext@PLT
.LVL127:
	movq	%r12, %rsi
	movq	%rax, %rdi
	call	fputs_unlocked@PLT
.LVL128:
	.loc 1 102 7 view .LVU313
	movq	stdout(%rip), %r12
	movl	$5, %edx
	xorl	%edi, %edi
	leaq	.LC16(%rip), %rsi
	call	dcgettext@PLT
.LVL129:
	movq	%r12, %rsi
	movq	%rax, %rdi
	call	fputs_unlocked@PLT
.LVL130:
	.loc 1 113 7 view .LVU314
	movq	stdout(%rip), %r12
	movl	$5, %edx
	xorl	%edi, %edi
	leaq	.LC17(%rip), %rsi
	call	dcgettext@PLT
.LVL131:
	movq	%r12, %rsi
	movq	%rax, %rdi
	call	fputs_unlocked@PLT
.LVL132:
	.loc 1 114 7 view .LVU315
	movq	stdout(%rip), %r12
	movl	$5, %edx
	xorl	%edi, %edi
	leaq	.LC18(%rip), %rsi
	call	dcgettext@PLT
.LVL133:
	movq	%r12, %rsi
	movq	%rax, %rdi
	call	fputs_unlocked@PLT
.LVL134:
	.loc 1 115 7 view .LVU316
	movl	$5, %edx
	movq	stdout(%rip), %r12
	xorl	%edi, %edi
	leaq	.LC19(%rip), %rsi
	call	dcgettext@PLT
.LVL135:
	movq	%r12, %rsi
	movq	%rax, %rdi
	call	fputs_unlocked@PLT
.LVL136:
	.loc 1 119 7 view .LVU317
.LBB262:
.LBI262:
	.file 4 "src/system.h"
	.loc 4 634 1 view .LVU318
.LBB263:
	.loc 4 636 3 view .LVU319
	.loc 4 636 67 is_stmt 0 view .LVU320
	leaq	.LC20(%rip), %rax
	.loc 4 647 25 view .LVU321
	movq	%rsp, %rdx
	.loc 4 636 67 view .LVU322
	leaq	.LC26(%rip), %rcx
	movq	%rax, (%rsp)
	leaq	.LC21(%rip), %rax
	.loc 4 649 33 view .LVU323
	movl	$105, %edi
	movl	$100, %esi
	.loc 4 636 67 view .LVU324
	movq	%rax, 8(%rsp)
	leaq	.LC22(%rip), %rax
	movq	%rax, 16(%rsp)
	leaq	.LC23(%rip), %rax
	movq	%rax, 24(%rsp)
	leaq	.LC24(%rip), %rax
	movq	%rcx, 48(%rsp)
	leaq	.LC27(%rip), %rcx
	movq	%rax, 32(%rsp)
	leaq	.LC25(%rip), %rax
	movq	%rcx, 64(%rsp)
	leaq	.LC28(%rip), %rcx
	movq	%rax, 40(%rsp)
	movq	%rax, 56(%rsp)
	movq	%rax, 72(%rsp)
	movq	%rcx, 80(%rsp)
	movq	%rax, 88(%rsp)
	movq	$0, 96(%rsp)
	movq	$0, 104(%rsp)
	.loc 4 646 3 is_stmt 1 view .LVU325
.LVL137:
	.loc 4 647 3 view .LVU326
	.loc 4 649 3 view .LVU327
	.loc 4 649 9 view .LVU328
	.p2align 4,,10
	.p2align 3
.L100:
	.loc 4 650 5 view .LVU329
	.loc 4 649 18 is_stmt 0 view .LVU330
	movq	16(%rdx), %rax
	.loc 4 650 13 view .LVU331
	addq	$16, %rdx
.LVL138:
	.loc 4 649 9 is_stmt 1 view .LVU332
	testq	%rax, %rax
	je	.L81
	.loc 4 649 33 is_stmt 0 view .LVU333
	movzbl	(%rax), %ecx
	cmpl	%ecx, %edi
	jne	.L100
	movzbl	1(%rax), %ecx
	cmpl	%ecx, %esi
	jne	.L100
	.loc 4 649 28 view .LVU334
	cmpb	$0, 2(%rax)
	jne	.L100
.L81:
	.loc 4 652 3 is_stmt 1 view .LVU335
	.loc 4 652 15 is_stmt 0 view .LVU336
	movq	8(%rdx), %r12
	.loc 4 655 11 view .LVU337
	leaq	.LC29(%rip), %rsi
	movl	$5, %edx
.LVL139:
	.loc 4 655 11 view .LVU338
	xorl	%edi, %edi
	.loc 4 652 6 view .LVU339
	testq	%r12, %r12
	je	.L84
	.loc 4 653 5 is_stmt 1 view .LVU340
.LVL140:
	.loc 4 655 3 view .LVU341
	.loc 4 655 11 is_stmt 0 view .LVU342
	call	dcgettext@PLT
.LVL141:
.LBB264:
.LBB265:
	.loc 3 107 10 view .LVU343
	leaq	.LC30(%rip), %rcx
	leaq	.LC31(%rip), %rdx
	movl	$1, %edi
.LBE265:
.LBE264:
	.loc 4 655 11 view .LVU344
	movq	%rax, %rsi
.LVL142:
.LBB269:
.LBI264:
	.loc 3 105 1 is_stmt 1 view .LVU345
.LBB266:
	.loc 3 107 3 view .LVU346
	.loc 3 107 10 is_stmt 0 view .LVU347
	xorl	%eax, %eax
.LVL143:
	.loc 3 107 10 view .LVU348
	leaq	.LC10(%rip), %r13
	call	__printf_chk@PLT
.LVL144:
	.loc 3 107 10 view .LVU349
.LBE266:
.LBE269:
	.loc 4 659 3 is_stmt 1 view .LVU350
	.loc 4 659 29 is_stmt 0 view .LVU351
	movl	$5, %edi
	xorl	%esi, %esi
	call	setlocale@PLT
.LVL145:
	movq	%rax, %rdi
.LVL146:
	.loc 4 660 3 is_stmt 1 view .LVU352
	.loc 4 660 6 is_stmt 0 view .LVU353
	testq	%rax, %rax
	je	.L85
	.loc 4 660 22 view .LVU354
	movl	$3, %edx
	leaq	.LC32(%rip), %rsi
	call	strncmp@PLT
.LVL147:
	.loc 4 660 19 view .LVU355
	testl	%eax, %eax
	jne	.L88
.LVL148:
.L85:
	.loc 4 669 3 is_stmt 1 view .LVU356
	.loc 4 669 11 is_stmt 0 view .LVU357
	xorl	%edi, %edi
	movl	$5, %edx
	leaq	.LC34(%rip), %rsi
	call	dcgettext@PLT
.LVL149:
.LBB270:
.LBB271:
	.loc 3 107 10 view .LVU358
	leaq	.LC10(%rip), %rcx
	movl	$1, %edi
	leaq	.LC30(%rip), %rdx
.LBE271:
.LBE270:
	.loc 4 669 11 view .LVU359
	movq	%rax, %rsi
.LVL150:
.LBB276:
.LBI270:
	.loc 3 105 1 is_stmt 1 view .LVU360
.LBB272:
	.loc 3 107 3 view .LVU361
	.loc 3 107 10 is_stmt 0 view .LVU362
	xorl	%eax, %eax
.LVL151:
	.loc 3 107 10 view .LVU363
	call	__printf_chk@PLT
.LVL152:
	.loc 3 107 10 view .LVU364
.LBE272:
.LBE276:
	.loc 4 671 3 is_stmt 1 view .LVU365
	cmpq	%r13, %r12
	leaq	.LC12(%rip), %rcx
	leaq	.LC11(%rip), %r13
	cmovne	%rcx, %r13
.L86:
	.loc 4 671 11 is_stmt 0 view .LVU366
	xorl	%edi, %edi
	leaq	.LC35(%rip), %rsi
	movl	$5, %edx
	call	dcgettext@PLT
.LVL153:
.LBB277:
.LBB278:
	.loc 3 107 10 view .LVU367
	movq	%r13, %rcx
	movq	%r12, %rdx
	movl	$1, %edi
.LBE278:
.LBE277:
	.loc 4 671 11 view .LVU368
	movq	%rax, %rsi
.LVL154:
.LBB280:
.LBI277:
	.loc 3 105 1 is_stmt 1 view .LVU369
.LBB279:
	.loc 3 107 3 view .LVU370
	.loc 3 107 10 is_stmt 0 view .LVU371
	xorl	%eax, %eax
.LVL155:
	.loc 3 107 10 view .LVU372
	call	__printf_chk@PLT
.LVL156:
	.loc 3 107 10 view .LVU373
.LBE279:
.LBE280:
	.loc 4 673 1 view .LVU374
	jmp	.L80
.LVL157:
.L84:
	.loc 4 655 3 is_stmt 1 view .LVU375
	.loc 4 655 11 is_stmt 0 view .LVU376
	call	dcgettext@PLT
.LVL158:
.LBB281:
.LBB267:
	.loc 3 107 10 view .LVU377
	leaq	.LC30(%rip), %rcx
	movl	$1, %edi
	leaq	.LC31(%rip), %rdx
.LBE267:
.LBE281:
	.loc 4 655 11 view .LVU378
	movq	%rax, %rsi
.LVL159:
.LBB282:
	.loc 3 105 1 is_stmt 1 view .LVU379
.LBB268:
	.loc 3 107 3 view .LVU380
	.loc 3 107 10 is_stmt 0 view .LVU381
	xorl	%eax, %eax
.LVL160:
	.loc 3 107 10 view .LVU382
	call	__printf_chk@PLT
.LVL161:
	.loc 3 107 10 view .LVU383
.LBE268:
.LBE282:
	.loc 4 659 3 is_stmt 1 view .LVU384
	.loc 4 659 29 is_stmt 0 view .LVU385
	movl	$5, %edi
	xorl	%esi, %esi
	call	setlocale@PLT
.LVL162:
	movq	%rax, %rdi
.LVL163:
	.loc 4 660 3 is_stmt 1 view .LVU386
	.loc 4 660 6 is_stmt 0 view .LVU387
	testq	%rax, %rax
	je	.L87
	.loc 4 660 22 view .LVU388
	movl	$3, %edx
	leaq	.LC32(%rip), %rsi
	call	strncmp@PLT
.LVL164:
	.loc 4 660 19 view .LVU389
	testl	%eax, %eax
	jne	.L106
.L87:
	.loc 4 669 3 is_stmt 1 view .LVU390
	.loc 4 669 11 is_stmt 0 view .LVU391
	movl	$5, %edx
	leaq	.LC34(%rip), %rsi
	xorl	%edi, %edi
	call	dcgettext@PLT
.LVL165:
.LBB283:
.LBB273:
	.loc 3 107 10 view .LVU392
	leaq	.LC10(%rip), %rcx
	leaq	.LC30(%rip), %rdx
	movl	$1, %edi
.LBE273:
.LBE283:
	.loc 4 669 11 view .LVU393
	movq	%rax, %rsi
.LVL166:
.LBB284:
	.loc 3 105 1 is_stmt 1 view .LVU394
.LBB274:
	.loc 3 107 3 view .LVU395
	.loc 3 107 10 is_stmt 0 view .LVU396
	xorl	%eax, %eax
.LVL167:
	.loc 3 107 10 view .LVU397
.LBE274:
.LBE284:
	.loc 4 646 15 view .LVU398
	leaq	.LC10(%rip), %r12
.LBB285:
.LBB275:
	.loc 3 107 10 view .LVU399
	call	__printf_chk@PLT
.LVL168:
	.loc 3 107 10 view .LVU400
.LBE275:
.LBE285:
	.loc 4 671 3 is_stmt 1 view .LVU401
	leaq	.LC11(%rip), %r13
	jmp	.L86
.L106:
	.loc 4 646 15 is_stmt 0 view .LVU402
	leaq	.LC10(%rip), %r13
	movq	%r13, %r12
.LVL169:
.L88:
	.loc 4 666 7 is_stmt 1 view .LVU403
	movq	stdout(%rip), %r14
	xorl	%edi, %edi
	movl	$5, %edx
	leaq	.LC33(%rip), %rsi
	call	dcgettext@PLT
.LVL170:
	movq	%rax, %rdi
	movq	%r14, %rsi
	call	fputs_unlocked@PLT
.LVL171:
	jmp	.L85
.LBE263:
.LBE262:
	.cfi_endproc
.LFE138:
	.size	usage, .-usage
	.section	.rodata.str1.1
.LC36:
	.string	"/usr/local/share/locale"
	.section	.rodata.str1.8
	.align 8
.LC37:
	.string	"--context (-Z) works only on an SELinux-enabled kernel"
	.section	.rodata.str1.1
.LC38:
	.string	"David MacKenzie"
.LC39:
	.string	"Arnold Robbins"
.LC40:
	.string	"agnruzGZ"
	.section	.rodata.str1.8
	.align 8
.LC41:
	.string	"cannot print security context when user specified"
	.align 8
.LC42:
	.string	"cannot print \"only\" of more than one choice"
	.align 8
.LC43:
	.string	"cannot print only names or real IDs in default format"
	.align 8
.LC44:
	.string	"option --zero not permitted in default format"
	.section	.rodata.str1.1
.LC45:
	.string	"POSIXLY_CORRECT"
.LC46:
	.string	"can't get process context"
.LC47:
	.string	"%s: no such user"
.LC48:
	.string	"cannot get effective UID"
.LC49:
	.string	"cannot get real UID"
.LC50:
	.string	"cannot get effective GID"
.LC51:
	.string	"cannot get real GID"
	.section	.text.startup,"ax",@progbits
	.p2align 4
	.globl	main
	.type	main, @function
main:
.LVL172:
.LFB139:
	.loc 1 126 1 view -0
	.cfi_startproc
	.loc 1 126 1 is_stmt 0 view .LVU405
	endbr64
	.loc 1 127 3 is_stmt 1 view .LVU406
	.loc 1 128 3 view .LVU407
	.loc 1 126 1 is_stmt 0 view .LVU408
	pushq	%r14
	.cfi_def_cfa_offset 16
	.cfi_offset 14, -16
	pushq	%r13
	.cfi_def_cfa_offset 24
	.cfi_offset 13, -24
	pushq	%r12
	.cfi_def_cfa_offset 32
	.cfi_offset 12, -32
	movl	%edi, %r12d
	pushq	%rbp
	.cfi_def_cfa_offset 40
	.cfi_offset 6, -40
	movq	%rsi, %rbp
	pushq	%rbx
	.cfi_def_cfa_offset 48
	.cfi_offset 3, -48
	leaq	.L114(%rip), %rbx
	.loc 1 128 26 view .LVU409
	call	is_selinux_enabled@PLT
.LVL173:
	.loc 1 133 3 view .LVU410
	movq	0(%rbp), %rdi
	.loc 1 128 26 view .LVU411
	movl	%eax, %r13d
.LVL174:
	.loc 1 129 3 is_stmt 1 view .LVU412
	.file 5 "./lib/smack.h"
	.loc 5 44 3 view .LVU413
	.loc 1 130 3 view .LVU414
	.loc 1 132 33 view .LVU415
	.loc 1 133 3 view .LVU416
	call	set_program_name@PLT
.LVL175:
	.loc 1 134 3 view .LVU417
	leaq	.LC12(%rip), %rsi
	movl	$6, %edi
	call	setlocale@PLT
.LVL176:
	.loc 1 135 3 view .LVU418
	leaq	.LC36(%rip), %rsi
	leaq	.LC22(%rip), %rdi
	call	bindtextdomain@PLT
.LVL177:
	.loc 1 136 3 view .LVU419
	leaq	.LC22(%rip), %rdi
	call	textdomain@PLT
.LVL178:
	.loc 1 138 3 view .LVU420
	movq	close_stdout@GOTPCREL(%rip), %rdi
	call	atexit@PLT
.LVL179:
	.loc 1 140 3 view .LVU421
.L119:
	.loc 1 140 9 view .LVU422
	.loc 1 140 18 is_stmt 0 view .LVU423
	xorl	%r8d, %r8d
	leaq	longopts(%rip), %rcx
	movq	%rbp, %rsi
	movl	%r12d, %edi
	leaq	.LC40(%rip), %rdx
	call	getopt_long@PLT
.LVL180:
	.loc 1 140 9 view .LVU424
	cmpl	$-1, %eax
	je	.L204
	.loc 1 142 7 is_stmt 1 view .LVU425
	cmpl	$122, %eax
	jg	.L109
	cmpl	$70, %eax
	jle	.L205
	subl	$71, %eax
.LVL181:
	.loc 1 142 7 is_stmt 0 view .LVU426
	cmpl	$51, %eax
	ja	.L109
	movslq	(%rbx,%rax,4), %rax
	addq	%rbx, %rax
	notrack jmp	*%rax
	.section	.rodata
	.align 4
	.align 4
.L114:
	.long	.L121-.L114
	.long	.L109-.L114
	.long	.L109-.L114
	.long	.L109-.L114
	.long	.L109-.L114
	.long	.L109-.L114
	.long	.L109-.L114
	.long	.L109-.L114
	.long	.L109-.L114
	.long	.L109-.L114
	.long	.L109-.L114
	.long	.L109-.L114
	.long	.L109-.L114
	.long	.L109-.L114
	.long	.L109-.L114
	.long	.L109-.L114
	.long	.L109-.L114
	.long	.L109-.L114
	.long	.L109-.L114
	.long	.L120-.L114
	.long	.L109-.L114
	.long	.L109-.L114
	.long	.L109-.L114
	.long	.L109-.L114
	.long	.L109-.L114
	.long	.L109-.L114
	.long	.L119-.L114
	.long	.L109-.L114
	.long	.L109-.L114
	.long	.L109-.L114
	.long	.L109-.L114
	.long	.L109-.L114
	.long	.L118-.L114
	.long	.L109-.L114
	.long	.L109-.L114
	.long	.L109-.L114
	.long	.L109-.L114
	.long	.L109-.L114
	.long	.L109-.L114
	.long	.L117-.L114
	.long	.L109-.L114
	.long	.L109-.L114
	.long	.L109-.L114
	.long	.L116-.L114
	.long	.L109-.L114
	.long	.L109-.L114
	.long	.L115-.L114
	.long	.L109-.L114
	.long	.L109-.L114
	.long	.L109-.L114
	.long	.L109-.L114
	.long	.L113-.L114
	.section	.text.startup
.L113:
	.loc 1 176 11 is_stmt 1 view .LVU427
	.loc 1 176 20 is_stmt 0 view .LVU428
	movb	$1, opt_zero(%rip)
	.loc 1 177 11 is_stmt 1 view .LVU429
	jmp	.L119
.L115:
	.loc 1 173 11 view .LVU430
	.loc 1 173 21 is_stmt 0 view .LVU431
	movb	$1, just_user(%rip)
	.loc 1 174 11 is_stmt 1 view .LVU432
	jmp	.L119
.L116:
	.loc 1 170 11 view .LVU433
	.loc 1 170 20 is_stmt 0 view .LVU434
	movb	$1, use_real(%rip)
	.loc 1 171 11 is_stmt 1 view .LVU435
	jmp	.L119
.L117:
	.loc 1 167 11 view .LVU436
	.loc 1 167 20 is_stmt 0 view .LVU437
	movb	$1, use_name(%rip)
	.loc 1 168 11 is_stmt 1 view .LVU438
	jmp	.L119
.L118:
	.loc 1 164 11 view .LVU439
	.loc 1 164 22 is_stmt 0 view .LVU440
	movb	$1, just_group(%rip)
	.loc 1 165 11 is_stmt 1 view .LVU441
	jmp	.L119
.L120:
	.loc 1 156 11 view .LVU442
	.loc 1 156 14 is_stmt 0 view .LVU443
	testl	%r13d, %r13d
	jle	.L206
	.loc 1 160 11 is_stmt 1 view .LVU444
	.loc 1 160 24 is_stmt 0 view .LVU445
	movb	$1, just_context(%rip)
	.loc 1 161 11 is_stmt 1 view .LVU446
	jmp	.L119
.L121:
	.loc 1 179 11 view .LVU447
	.loc 1 179 27 is_stmt 0 view .LVU448
	movb	$1, just_group_list(%rip)
	.loc 1 180 11 is_stmt 1 view .LVU449
	jmp	.L119
.LVL182:
	.p2align 4,,10
	.p2align 3
.L205:
	.loc 1 142 7 is_stmt 0 view .LVU450
	cmpl	$-131, %eax
	jne	.L207
	.loc 1 181 9 is_stmt 1 view .LVU451
	.loc 1 181 30 view .LVU452
	.loc 1 182 9 view .LVU453
	subq	$8, %rsp
	.cfi_remember_state
	.cfi_def_cfa_offset 56
	movq	stdout(%rip), %rdi
	xorl	%eax, %eax
.LVL183:
	.loc 1 182 9 is_stmt 0 view .LVU454
	movq	Version(%rip), %rcx
	pushq	$0
	.cfi_def_cfa_offset 64
	leaq	.LC38(%rip), %r9
	leaq	.LC39(%rip), %r8
	leaq	.LC31(%rip), %rdx
	leaq	.LC10(%rip), %rsi
	call	version_etc@PLT
.LVL184:
	.loc 1 182 9 is_stmt 1 view .LVU455
	xorl	%edi, %edi
	call	exit@PLT
.LVL185:
.L207:
	.cfi_restore_state
	.loc 1 142 7 is_stmt 0 view .LVU456
	cmpl	$-130, %eax
	jne	.L109
	.loc 1 181 9 is_stmt 1 view .LVU457
	xorl	%edi, %edi
	call	usage
.LVL186:
.L204:
	.loc 1 188 3 view .LVU458
	.loc 1 188 23 is_stmt 0 view .LVU459
	movslq	optind(%rip), %rax
.LVL187:
	.loc 1 188 23 view .LVU460
	movzbl	just_context(%rip), %esi
	subl	%eax, %r12d
.LVL188:
	.loc 1 188 10 view .LVU461
	movslq	%r12d, %rbx
.LVL189:
	.loc 1 190 3 is_stmt 1 view .LVU462
	.loc 1 190 6 is_stmt 0 view .LVU463
	testq	%rbx, %rbx
	je	.L125
	.loc 1 190 13 discriminator 1 view .LVU464
	testb	%sil, %sil
	jne	.L208
.L125:
	.loc 1 194 3 is_stmt 1 view .LVU465
	.loc 1 194 17 is_stmt 0 view .LVU466
	movzbl	just_group(%rip), %r9d
	movzbl	just_user(%rip), %edx
	.loc 1 194 30 view .LVU467
	movzbl	just_group_list(%rip), %r8d
	.loc 1 194 17 view .LVU468
	movl	%edx, %ecx
	movl	%r9d, %edi
	addl	%r9d, %edx
	.loc 1 194 30 view .LVU469
	movzbl	%r8b, %r9d
	addl	%r9d, %edx
	.loc 1 194 48 view .LVU470
	movzbl	%sil, %r9d
	addl	%r9d, %edx
	.loc 1 194 6 view .LVU471
	subl	$1, %edx
	jg	.L209
	.loc 1 197 3 is_stmt 1 view .LVU472
	.loc 1 197 25 is_stmt 0 view .LVU473
	movl	%ecx, %edx
	orl	%esi, %edx
	orb	%dil, %dl
	jne	.L127
	testb	%r8b, %r8b
	je	.L210
.L127:
	.loc 1 215 3 is_stmt 1 view .LVU474
	.loc 1 215 6 is_stmt 0 view .LVU475
	testq	%rbx, %rbx
	jne	.L131
	.loc 1 216 7 view .LVU476
	testb	%sil, %sil
	je	.L132
	.loc 1 220 7 is_stmt 1 view .LVU477
	.loc 1 220 10 is_stmt 0 view .LVU478
	testl	%r13d, %r13d
	jle	.L132
.L133:
	.loc 1 220 31 discriminator 1 view .LVU479
	leaq	context(%rip), %rdi
	call	getcon@PLT
.LVL190:
	movzbl	just_user(%rip), %ecx
	.loc 1 220 28 discriminator 1 view .LVU480
	testl	%eax, %eax
	je	.L132
	.loc 1 220 49 discriminator 2 view .LVU481
	cmpb	$0, just_context(%rip)
	je	.L132
.LBB286:
	.loc 1 224 9 is_stmt 1 view .LVU482
	movl	$5, %edx
	leaq	.LC46(%rip), %rsi
	xorl	%edi, %edi
	call	dcgettext@PLT
.LVL191:
	xorl	%esi, %esi
	movl	$1, %edi
	movq	%rax, %rdx
	xorl	%eax, %eax
	call	error@PLT
.LVL192:
.L132:
.LBE286:
	.loc 1 227 3 view .LVU483
.LBB287:
	.loc 1 271 7 view .LVU484
	.loc 1 272 7 view .LVU485
	.loc 1 274 7 view .LVU486
	.loc 1 274 21 is_stmt 0 view .LVU487
	movl	%ecx, %ebx
.LVL193:
	.loc 1 274 11 view .LVU488
	testb	%cl, %cl
	je	.L156
	.loc 1 274 10 discriminator 1 view .LVU489
	cmpb	$0, use_real(%rip)
	je	.L211
	.loc 1 286 11 is_stmt 1 view .LVU490
	call	__errno_location@PLT
.LVL194:
	.loc 1 286 17 is_stmt 0 view .LVU491
	movl	$0, (%rax)
	.loc 1 287 11 is_stmt 1 view .LVU492
	.loc 1 286 11 is_stmt 0 view .LVU493
	movq	%rax, %rbp
.LVL195:
	.loc 1 287 18 view .LVU494
	call	getuid@PLT
.LVL196:
	.loc 1 287 16 view .LVU495
	movl	%eax, ruid(%rip)
	.loc 1 288 11 is_stmt 1 view .LVU496
	.loc 1 288 14 is_stmt 0 view .LVU497
	addl	$1, %eax
	jne	.L151
	.loc 1 288 30 view .LVU498
	cmpl	$0, 0(%rbp)
	je	.L151
.L168:
.LBB288:
	.loc 1 289 13 is_stmt 1 view .LVU499
	movl	$5, %edx
	leaq	.LC49(%rip), %rsi
	xorl	%edi, %edi
	call	dcgettext@PLT
.LVL197:
	movl	0(%rbp), %esi
	movl	$1, %edi
	movq	%rax, %rdx
	xorl	%eax, %eax
	call	error@PLT
.LVL198:
.L210:
	.loc 1 289 13 is_stmt 0 view .LVU500
.LBE288:
.LBE287:
	.loc 1 202 3 is_stmt 1 view .LVU501
	.loc 1 202 22 is_stmt 0 view .LVU502
	cmpb	$0, use_real(%rip)
	jne	.L157
	.loc 1 202 35 discriminator 2 view .LVU503
	cmpb	$0, use_name(%rip)
	jne	.L157
	.loc 1 206 3 is_stmt 1 discriminator 1 view .LVU504
	.loc 1 206 22 is_stmt 0 discriminator 1 view .LVU505
	cmpb	$0, opt_zero(%rip)
	jne	.L212
.LVL199:
	.loc 1 215 3 is_stmt 1 view .LVU506
	.loc 1 215 6 is_stmt 0 view .LVU507
	testq	%rbx, %rbx
	je	.L213
.L131:
	.loc 1 227 3 is_stmt 1 view .LVU508
	.loc 1 229 7 view .LVU509
	.loc 1 229 41 is_stmt 0 view .LVU510
	cmpq	$1, %rbx
.LBB292:
	.loc 1 245 19 view .LVU511
	leaq	euid(%rip), %r13
.LVL200:
	.loc 1 245 19 view .LVU512
.LBE292:
	.loc 1 229 22 view .LVU513
	seta	multiple_users(%rip)
	.loc 1 234 7 is_stmt 1 view .LVU514
	.loc 1 234 13 is_stmt 0 view .LVU515
	addq	%rax, %rbx
.LVL201:
	.loc 1 236 7 is_stmt 1 view .LVU516
	.loc 1 236 14 view .LVU517
	.loc 1 236 7 is_stmt 0 view .LVU518
	cmpq	%rbx, %rax
	jb	.L139
	jmp	.L140
.LVL202:
.L138:
.LBB293:
	.loc 1 255 15 is_stmt 1 view .LVU519
	.loc 1 255 66 is_stmt 0 view .LVU520
	movslq	optind(%rip), %rax
	.loc 1 255 15 view .LVU521
	movq	0(%rbp,%rax,8), %rdi
	call	quote@PLT
.LVL203:
	.loc 1 255 32 view .LVU522
	movl	$5, %edx
	leaq	.LC47(%rip), %rsi
	xorl	%edi, %edi
	.loc 1 255 15 view .LVU523
	movq	%rax, %r14
	.loc 1 255 32 view .LVU524
	call	dcgettext@PLT
.LVL204:
	movq	%rax, %r12
	.loc 1 255 25 view .LVU525
	call	__errno_location@PLT
.LVL205:
	.loc 1 255 15 view .LVU526
	movq	%r14, %rcx
	movq	%r12, %rdx
	xorl	%edi, %edi
	movl	(%rax), %esi
	xorl	%eax, %eax
	call	error@PLT
.LVL206:
	.loc 1 256 15 is_stmt 1 view .LVU527
	.loc 1 256 18 is_stmt 0 view .LVU528
	movb	$0, ok(%rip)
	.loc 1 257 15 is_stmt 1 view .LVU529
.L137:
	.loc 1 257 15 is_stmt 0 view .LVU530
.LBE293:
	.loc 1 236 30 is_stmt 1 view .LVU531
	.loc 1 236 36 is_stmt 0 view .LVU532
	movl	optind(%rip), %eax
	addl	$1, %eax
	movl	%eax, optind(%rip)
	.loc 1 236 14 is_stmt 1 view .LVU533
	.loc 1 236 21 is_stmt 0 view .LVU534
	cltq
	.loc 1 236 7 view .LVU535
	cmpq	%rbx, %rax
	jnb	.L140
.L139:
.LBB294:
	.loc 1 238 11 is_stmt 1 view .LVU536
.LVL207:
	.loc 1 239 11 view .LVU537
	.loc 1 239 23 is_stmt 0 view .LVU538
	movq	0(%rbp,%rax,8), %rdi
.LVL208:
	.loc 1 243 11 is_stmt 1 view .LVU539
	.loc 1 243 14 is_stmt 0 view .LVU540
	cmpb	$0, (%rdi)
	je	.L138
	.loc 1 245 15 is_stmt 1 view .LVU541
	.loc 1 245 19 is_stmt 0 view .LVU542
	xorl	%r8d, %r8d
	xorl	%ecx, %ecx
	xorl	%edx, %edx
	movq	%r13, %rsi
	call	parse_user_spec@PLT
.LVL209:
	.loc 1 245 18 view .LVU543
	testq	%rax, %rax
	jne	.L138
	.loc 1 250 19 is_stmt 1 view .LVU544
	.loc 1 250 25 is_stmt 0 view .LVU545
	movl	euid(%rip), %edi
	call	getpwuid@PLT
.LVL210:
	movq	%rax, %r12
.LVL211:
	.loc 1 253 11 is_stmt 1 view .LVU546
	.loc 1 253 14 is_stmt 0 view .LVU547
	testq	%rax, %rax
	je	.L138
	.loc 1 259 11 is_stmt 1 view .LVU548
	.loc 1 259 21 is_stmt 0 view .LVU549
	movq	(%rax), %rdi
	call	xstrdup@PLT
.LVL212:
	.loc 1 259 21 view .LVU550
	movq	%rax, %r14
.LVL213:
	.loc 1 260 11 is_stmt 1 view .LVU551
	.loc 1 260 28 is_stmt 0 view .LVU552
	movl	16(%r12), %eax
.LVL214:
	.loc 1 262 11 view .LVU553
	movq	%r14, %rdi
	.loc 1 260 23 view .LVU554
	movl	%eax, euid(%rip)
	.loc 1 260 16 view .LVU555
	movl	%eax, ruid(%rip)
	.loc 1 261 11 is_stmt 1 view .LVU556
	.loc 1 261 28 is_stmt 0 view .LVU557
	movl	20(%r12), %eax
	.loc 1 261 23 view .LVU558
	movl	%eax, egid(%rip)
	.loc 1 261 16 view .LVU559
	movl	%eax, rgid(%rip)
	.loc 1 262 11 is_stmt 1 view .LVU560
	call	print_stuff
.LVL215:
	.loc 1 263 11 view .LVU561
	movq	%r14, %rdi
	call	free@PLT
.LVL216:
	jmp	.L137
.LVL217:
.L213:
	.loc 1 263 11 is_stmt 0 view .LVU562
.LBE294:
	.loc 1 217 35 discriminator 1 view .LVU563
	leaq	.LC45(%rip), %rdi
	call	getenv@PLT
.LVL218:
	.loc 1 217 30 discriminator 1 view .LVU564
	testq	%rax, %rax
	je	.L214
.L202:
	.loc 1 227 3 is_stmt 1 view .LVU565
.LBB295:
	.loc 1 271 7 view .LVU566
.LVL219:
	.loc 1 272 7 view .LVU567
	.loc 1 274 7 view .LVU568
	.loc 1 274 21 is_stmt 0 view .LVU569
	movzbl	just_user(%rip), %ebx
.LVL220:
.L156:
	.loc 1 275 45 view .LVU570
	cmpb	$0, just_group(%rip)
	jne	.L148
	.loc 1 275 25 discriminator 1 view .LVU571
	cmpb	$0, just_group_list(%rip)
	jne	.L146
	.loc 1 275 45 discriminator 3 view .LVU572
	cmpb	$0, just_context(%rip)
	jne	.L146
	.loc 1 277 11 is_stmt 1 view .LVU573
	call	__errno_location@PLT
.LVL221:
	.loc 1 277 17 is_stmt 0 view .LVU574
	movl	$0, (%rax)
	.loc 1 278 11 is_stmt 1 view .LVU575
	.loc 1 277 11 is_stmt 0 view .LVU576
	movq	%rax, %rbp
.LVL222:
	.loc 1 278 18 view .LVU577
	call	geteuid@PLT
.LVL223:
	.loc 1 278 16 view .LVU578
	movl	%eax, euid(%rip)
	.loc 1 279 11 is_stmt 1 view .LVU579
	.loc 1 279 14 is_stmt 0 view .LVU580
	addl	$1, %eax
	je	.L215
.L161:
	.loc 1 284 25 view .LVU581
	cmpb	$0, just_group(%rip)
	jne	.L148
.L146:
	.loc 1 284 25 discriminator 1 view .LVU582
	cmpb	$0, just_group_list(%rip)
	jne	.L150
	.loc 1 284 45 discriminator 4 view .LVU583
	cmpb	$0, just_context(%rip)
	jne	.L149
.L150:
	.loc 1 286 11 is_stmt 1 view .LVU584
	call	__errno_location@PLT
.LVL224:
	.loc 1 286 17 is_stmt 0 view .LVU585
	movl	$0, (%rax)
	.loc 1 287 11 is_stmt 1 view .LVU586
	.loc 1 286 11 is_stmt 0 view .LVU587
	movq	%rax, %rbp
	.loc 1 287 18 view .LVU588
	call	getuid@PLT
.LVL225:
	.loc 1 287 16 view .LVU589
	movl	%eax, ruid(%rip)
	.loc 1 288 11 is_stmt 1 view .LVU590
	.loc 1 288 14 is_stmt 0 view .LVU591
	addl	$1, %eax
	je	.L143
.L144:
	.loc 1 292 7 is_stmt 1 view .LVU592
	.loc 1 292 10 is_stmt 0 view .LVU593
	testb	%bl, %bl
	jne	.L151
	.loc 1 292 22 view .LVU594
	cmpb	$0, just_group(%rip)
	jne	.L148
.L149:
	.loc 1 292 37 discriminator 2 view .LVU595
	cmpb	$0, just_group_list(%rip)
	jne	.L148
	.loc 1 292 56 discriminator 3 view .LVU596
	cmpb	$0, just_context(%rip)
	jne	.L151
.L148:
	.loc 1 294 11 is_stmt 1 view .LVU597
	call	__errno_location@PLT
.LVL226:
	.loc 1 294 17 is_stmt 0 view .LVU598
	movl	$0, (%rax)
	.loc 1 295 11 is_stmt 1 view .LVU599
	.loc 1 294 11 is_stmt 0 view .LVU600
	movq	%rax, %rbx
	.loc 1 295 18 view .LVU601
	call	getegid@PLT
.LVL227:
	.loc 1 295 16 view .LVU602
	movl	%eax, egid(%rip)
	.loc 1 296 11 is_stmt 1 view .LVU603
	.loc 1 296 14 is_stmt 0 view .LVU604
	addl	$1, %eax
	jne	.L153
	.loc 1 296 30 discriminator 1 view .LVU605
	cmpl	$0, (%rbx)
	jne	.L216
.L153:
	.loc 1 299 11 is_stmt 1 view .LVU606
	.loc 1 299 17 is_stmt 0 view .LVU607
	movl	$0, (%rbx)
	.loc 1 300 11 is_stmt 1 view .LVU608
	.loc 1 300 18 is_stmt 0 view .LVU609
	call	getgid@PLT
.LVL228:
	.loc 1 300 16 view .LVU610
	movl	%eax, rgid(%rip)
	.loc 1 301 11 is_stmt 1 view .LVU611
	.loc 1 301 14 is_stmt 0 view .LVU612
	addl	$1, %eax
	je	.L217
.L151:
	.loc 1 304 9 is_stmt 1 view .LVU613
	xorl	%edi, %edi
	call	print_stuff
.LVL229:
.L140:
	.loc 1 304 9 is_stmt 0 view .LVU614
.LBE295:
	.loc 1 307 3 is_stmt 1 view .LVU615
	.loc 1 307 28 is_stmt 0 view .LVU616
	movzbl	ok(%rip), %eax
	.loc 1 308 1 view .LVU617
	popq	%rbx
	.cfi_remember_state
	.cfi_def_cfa_offset 40
	popq	%rbp
	.cfi_def_cfa_offset 32
	popq	%r12
	.cfi_def_cfa_offset 24
	.loc 1 307 28 view .LVU618
	xorl	$1, %eax
	.loc 1 308 1 view .LVU619
	popq	%r13
	.cfi_def_cfa_offset 16
	popq	%r14
	.cfi_def_cfa_offset 8
	.loc 1 307 28 view .LVU620
	movzbl	%al, %eax
	.loc 1 308 1 view .LVU621
	ret
.LVL230:
.L109:
	.cfi_restore_state
	.loc 1 182 9 is_stmt 1 view .LVU622
	.loc 1 182 57 view .LVU623
	.loc 1 184 11 view .LVU624
	movl	$1, %edi
	call	usage
.LVL231:
.L217:
.LBB296:
	.loc 1 301 30 is_stmt 0 discriminator 1 view .LVU625
	cmpl	$0, (%rbx)
	je	.L151
.LBB289:
	.loc 1 302 13 is_stmt 1 view .LVU626
	movl	$5, %edx
	leaq	.LC51(%rip), %rsi
	xorl	%edi, %edi
	call	dcgettext@PLT
.LVL232:
	movl	(%rbx), %esi
	movl	$1, %edi
	movq	%rax, %rdx
	xorl	%eax, %eax
	call	error@PLT
.LVL233:
.L211:
	.loc 1 302 13 is_stmt 0 view .LVU627
	call	__errno_location@PLT
.LVL234:
.LBE289:
	.loc 1 277 17 view .LVU628
	movl	$0, (%rax)
	movq	%rax, %rbp
.LVL235:
	.loc 1 277 11 is_stmt 1 view .LVU629
	.loc 1 278 11 view .LVU630
	.loc 1 278 18 is_stmt 0 view .LVU631
	call	geteuid@PLT
.LVL236:
	.loc 1 278 16 view .LVU632
	movl	%eax, euid(%rip)
	.loc 1 279 11 is_stmt 1 view .LVU633
	.loc 1 279 14 is_stmt 0 view .LVU634
	addl	$1, %eax
	jne	.L151
	.loc 1 279 30 view .LVU635
	cmpl	$0, 0(%rbp)
	jne	.L164
	.loc 1 283 7 is_stmt 1 view .LVU636
	.loc 1 283 11 is_stmt 0 view .LVU637
	movzbl	use_real(%rip), %ebx
	.loc 1 283 10 view .LVU638
	testb	%bl, %bl
	je	.L151
	.loc 1 286 11 is_stmt 1 view .LVU639
	call	__errno_location@PLT
.LVL237:
	.loc 1 286 17 is_stmt 0 view .LVU640
	movl	$0, (%rax)
	.loc 1 287 11 is_stmt 1 view .LVU641
	.loc 1 286 11 is_stmt 0 view .LVU642
	movq	%rax, %rbp
	.loc 1 287 18 view .LVU643
	call	getuid@PLT
.LVL238:
	.loc 1 287 16 view .LVU644
	movl	%eax, ruid(%rip)
	.loc 1 288 11 is_stmt 1 view .LVU645
	.loc 1 288 14 is_stmt 0 view .LVU646
	addl	$1, %eax
	jne	.L151
.L143:
	.loc 1 288 30 discriminator 1 view .LVU647
	cmpl	$0, 0(%rbp)
	je	.L144
	jmp	.L168
.L215:
	.loc 1 279 30 view .LVU648
	cmpl	$0, 0(%rbp)
	je	.L161
.L164:
.LBB290:
	.loc 1 280 13 is_stmt 1 view .LVU649
	movl	$5, %edx
	leaq	.LC48(%rip), %rsi
	xorl	%edi, %edi
	call	dcgettext@PLT
.LVL239:
	movl	0(%rbp), %esi
	movl	$1, %edi
	movq	%rax, %rdx
	xorl	%eax, %eax
	call	error@PLT
.LVL240:
.L214:
	.loc 1 280 13 is_stmt 0 view .LVU650
.LBE290:
.LBE296:
	.loc 1 220 7 is_stmt 1 view .LVU651
	.loc 1 220 10 is_stmt 0 view .LVU652
	testl	%r13d, %r13d
	jle	.L202
	jmp	.L133
.LVL241:
.L212:
.LBB297:
	.loc 1 207 5 is_stmt 1 view .LVU653
	movl	$5, %edx
	leaq	.LC44(%rip), %rsi
	xorl	%edi, %edi
	call	dcgettext@PLT
.LVL242:
	xorl	%esi, %esi
	movl	$1, %edi
	movq	%rax, %rdx
	xorl	%eax, %eax
	call	error@PLT
.LVL243:
.L216:
	.loc 1 207 5 is_stmt 0 view .LVU654
.LBE297:
.LBB298:
.LBB291:
	.loc 1 297 13 is_stmt 1 view .LVU655
	movl	$5, %edx
	leaq	.LC50(%rip), %rsi
	xorl	%edi, %edi
	call	dcgettext@PLT
.LVL244:
	movl	(%rbx), %esi
	movl	$1, %edi
	movq	%rax, %rdx
	xorl	%eax, %eax
	call	error@PLT
.LVL245:
.L206:
	.loc 1 297 13 is_stmt 0 view .LVU656
.LBE291:
.LBE298:
.LBB299:
	.loc 1 157 13 is_stmt 1 view .LVU657
	movl	$5, %edx
	leaq	.LC37(%rip), %rsi
	xorl	%edi, %edi
	call	dcgettext@PLT
.LVL246:
	xorl	%esi, %esi
	movl	$1, %edi
	movq	%rax, %rdx
	xorl	%eax, %eax
	call	error@PLT
.LVL247:
.L157:
	.loc 1 157 13 is_stmt 0 view .LVU658
.LBE299:
.LBB300:
	.loc 1 203 5 is_stmt 1 view .LVU659
	movl	$5, %edx
	leaq	.LC43(%rip), %rsi
	xorl	%edi, %edi
	call	dcgettext@PLT
.LVL248:
	xorl	%esi, %esi
	movl	$1, %edi
	movq	%rax, %rdx
	xorl	%eax, %eax
	call	error@PLT
.LVL249:
.L209:
	.loc 1 203 5 is_stmt 0 view .LVU660
.LBE300:
.LBB301:
	.loc 1 195 5 is_stmt 1 view .LVU661
	movl	$5, %edx
	leaq	.LC42(%rip), %rsi
	xorl	%edi, %edi
	call	dcgettext@PLT
.LVL250:
	xorl	%esi, %esi
	movl	$1, %edi
	movq	%rax, %rdx
	xorl	%eax, %eax
	call	error@PLT
.LVL251:
.L208:
.LBE301:
.LBB302:
	.loc 1 191 5 view .LVU662
	movl	$5, %edx
	leaq	.LC41(%rip), %rsi
	xorl	%edi, %edi
	call	dcgettext@PLT
.LVL252:
	xorl	%esi, %esi
	movl	$1, %edi
	movq	%rax, %rdx
	xorl	%eax, %eax
	call	error@PLT
.LVL253:
.LBE302:
	.cfi_endproc
.LFE139:
	.size	main, .-main
	.local	buf.7759
	.comm	buf.7759,21,16
	.local	buf.7763
	.comm	buf.7763,21,16
	.section	.rodata.str1.1
.LC52:
	.string	"context"
.LC53:
	.string	"group"
.LC54:
	.string	"groups"
.LC55:
	.string	"name"
.LC56:
	.string	"real"
.LC57:
	.string	"user"
.LC58:
	.string	"zero"
.LC59:
	.string	"help"
.LC60:
	.string	"version"
	.section	.data.rel.ro.local,"aw"
	.align 32
	.type	longopts, @object
	.size	longopts, 320
longopts:
	.quad	.LC52
	.long	0
	.zero	4
	.quad	0
	.long	90
	.zero	4
	.quad	.LC53
	.long	0
	.zero	4
	.quad	0
	.long	103
	.zero	4
	.quad	.LC54
	.long	0
	.zero	4
	.quad	0
	.long	71
	.zero	4
	.quad	.LC55
	.long	0
	.zero	4
	.quad	0
	.long	110
	.zero	4
	.quad	.LC56
	.long	0
	.zero	4
	.quad	0
	.long	114
	.zero	4
	.quad	.LC57
	.long	0
	.zero	4
	.quad	0
	.long	117
	.zero	4
	.quad	.LC58
	.long	0
	.zero	4
	.quad	0
	.long	122
	.zero	4
	.quad	.LC59
	.long	0
	.zero	4
	.quad	0
	.long	-130
	.zero	4
	.quad	.LC60
	.long	0
	.zero	4
	.quad	0
	.long	-131
	.zero	4
	.quad	0
	.long	0
	.zero	4
	.quad	0
	.long	0
	.zero	4
	.local	context
	.comm	context,8,8
	.local	egid
	.comm	egid,4,4
	.local	rgid
	.comm	rgid,4,4
	.local	euid
	.comm	euid,4,4
	.local	ruid
	.comm	ruid,4,4
	.local	use_name
	.comm	use_name,1,1
	.local	multiple_users
	.comm	multiple_users,1,1
	.data
	.type	ok, @object
	.size	ok, 1
ok:
	.byte	1
	.local	just_user
	.comm	just_user,1,1
	.local	use_real
	.comm	use_real,1,1
	.local	just_group
	.comm	just_group,1,1
	.local	just_group_list
	.comm	just_group_list,1,1
	.local	opt_zero
	.comm	opt_zero,1,1
	.local	just_context
	.comm	just_context,1,1
	.text
.Letext0:
	.file 6 "/usr/lib/gcc/x86_64-linux-gnu/9/include/stddef.h"
	.file 7 "/usr/include/x86_64-linux-gnu/bits/types.h"
	.file 8 "/usr/include/x86_64-linux-gnu/bits/types/struct_FILE.h"
	.file 9 "/usr/include/x86_64-linux-gnu/bits/types/FILE.h"
	.file 10 "/usr/include/stdio.h"
	.file 11 "/usr/include/x86_64-linux-gnu/bits/sys_errlist.h"
	.file 12 "/usr/include/x86_64-linux-gnu/sys/types.h"
	.file 13 "/usr/include/x86_64-linux-gnu/bits/types/time_t.h"
	.file 14 "./lib/sys/select.h"
	.file 15 "/usr/include/pwd.h"
	.file 16 "/usr/include/grp.h"
	.file 17 "/usr/include/x86_64-linux-gnu/bits/getopt_core.h"
	.file 18 "/usr/include/x86_64-linux-gnu/bits/getopt_ext.h"
	.file 19 "/usr/include/time.h"
	.file 20 "/usr/include/signal.h"
	.file 21 "/usr/include/unistd.h"
	.file 22 "/usr/include/errno.h"
	.file 23 "src/version.h"
	.file 24 "./lib/exitfail.h"
	.file 25 "/usr/include/stdint.h"
	.file 26 "./lib/timespec.h"
	.file 27 "./lib/version-etc.h"
	.file 28 "./lib/progname.h"
	.file 29 "./lib/quotearg.h"
	.file 30 "./lib/error.h"
	.file 31 "./lib/quote.h"
	.file 32 "./lib/inttostr.h"
	.file 33 "/usr/include/libintl.h"
	.file 34 "./lib/mgetgroups.h"
	.file 35 "/usr/include/stdlib.h"
	.file 36 "src/group-list.h"
	.file 37 "./lib/userspec.h"
	.file 38 "./lib/xalloc.h"
	.file 39 "/usr/include/selinux/selinux.h"
	.file 40 "/usr/include/locale.h"
	.file 41 "/usr/include/string.h"
	.section	.note.GNU-stack,"",@progbits
	.section	.note.gnu.property,"a"
	.align 8
	.long	 1f - 0f
	.long	 4f - 1f
	.long	 5
0:
	.string	 "GNU"
1:
	.align 8
	.long	 0xc0000002
	.long	 3f - 2f
2:
	.long	 0x3
3:
	.align 8
4:
