	.file	"join.c"
	.text
.Ltext0:
	.section	.rodata.str1.8,"aMS",@progbits,1
	.align 8
.LC0:
	.string	"incompatible join fields %lu, %lu"
	.text
	.p2align 4
	.type	set_join_field, @function
set_join_field:
.LVL0:
.LFB157:
	.file 1 "src/join.c"
	.loc 1 923 1 view -0
	.cfi_startproc
	.loc 1 924 3 view .LVU1
	.loc 1 923 1 is_stmt 0 view .LVU2
	pushq	%rbp
	.cfi_def_cfa_offset 16
	.cfi_offset 6, -16
	pushq	%rbx
	.cfi_def_cfa_offset 24
	.cfi_offset 3, -24
	movq	%rsi, %rbx
	subq	$8, %rsp
	.cfi_def_cfa_offset 32
	.loc 1 924 7 view .LVU3
	movq	(%rdi), %rbp
	.loc 1 924 24 view .LVU4
	cmpq	$-1, %rbp
	je	.L2
	cmpq	%rsi, %rbp
	jne	.L11
.L2:
	.loc 1 931 3 is_stmt 1 view .LVU5
	.loc 1 931 8 is_stmt 0 view .LVU6
	movq	%rbx, (%rdi)
	.loc 1 932 1 view .LVU7
	addq	$8, %rsp
	.cfi_remember_state
	.cfi_def_cfa_offset 24
	popq	%rbx
	.cfi_def_cfa_offset 16
	popq	%rbp
	.cfi_def_cfa_offset 8
	ret
.LVL1:
.L11:
	.cfi_restore_state
.LBB86:
	.loc 1 926 7 is_stmt 1 view .LVU8
	.loc 1 927 7 view .LVU9
	.loc 1 928 7 view .LVU10
	movl	$5, %edx
	leaq	.LC0(%rip), %rsi
	xorl	%edi, %edi
.LVL2:
	.loc 1 928 7 is_stmt 0 view .LVU11
	call	dcgettext@PLT
.LVL3:
	.loc 1 926 25 view .LVU12
	leaq	1(%rbp), %rcx
.LVL4:
	.loc 1 928 7 view .LVU13
	leaq	1(%rbx), %r8
.LVL5:
	.loc 1 928 7 view .LVU14
	xorl	%esi, %esi
	movq	%rax, %rdx
	movl	$1, %edi
	xorl	%eax, %eax
	call	error@PLT
.LVL6:
	.loc 1 928 7 view .LVU15
.LBE86:
	.cfi_endproc
.LFE157:
	.size	set_join_field, .-set_join_field
	.p2align 4
	.type	freeline.part.0, @function
freeline.part.0:
.LVL7:
.LFB161:
	.loc 1 310 1 is_stmt 1 view -0
	.cfi_startproc
	.loc 1 314 3 view .LVU17
	.loc 1 310 1 is_stmt 0 view .LVU18
	pushq	%rbx
	.cfi_def_cfa_offset 16
	.cfi_offset 3, -16
	.loc 1 310 1 view .LVU19
	movq	%rdi, %rbx
	.loc 1 314 3 view .LVU20
	movq	40(%rdi), %rdi
.LVL8:
	.loc 1 314 3 view .LVU21
	call	free@PLT
.LVL9:
	.loc 1 315 3 is_stmt 1 view .LVU22
	.loc 1 315 16 is_stmt 0 view .LVU23
	movq	$0, 40(%rbx)
	.loc 1 316 3 is_stmt 1 view .LVU24
	movq	16(%rbx), %rdi
	call	free@PLT
.LVL10:
	.loc 1 317 3 view .LVU25
	.loc 1 317 20 is_stmt 0 view .LVU26
	movq	$0, 16(%rbx)
	.loc 1 318 1 view .LVU27
	popq	%rbx
	.cfi_def_cfa_offset 8
.LVL11:
	.loc 1 318 1 view .LVU28
	ret
	.cfi_endproc
.LFE161:
	.size	freeline.part.0, .-freeline.part.0
	.p2align 4
	.type	free_spareline, @function
free_spareline:
.LFB144:
	.loc 1 482 1 is_stmt 1 view -0
	.cfi_startproc
	endbr64
	.loc 1 483 3 view .LVU30
.LBB87:
	.loc 1 483 8 view .LVU31
.LVL12:
	.loc 1 483 22 view .LVU32
	.loc 1 485 7 view .LVU33
.LBE87:
	.loc 1 482 1 is_stmt 0 view .LVU34
	pushq	%rbp
	.cfi_def_cfa_offset 16
	.cfi_offset 6, -16
.LBB92:
	.loc 1 485 20 view .LVU35
	movq	spareline(%rip), %rbp
	.loc 1 485 10 view .LVU36
	testq	%rbp, %rbp
	je	.L15
	.loc 1 487 11 is_stmt 1 view .LVU37
.LVL13:
.LBB88:
.LBI88:
	.loc 1 310 1 view .LVU38
.LBB89:
	.loc 1 312 3 view .LVU39
	movq	%rbp, %rdi
	call	freeline.part.0
.LVL14:
	.loc 1 312 3 is_stmt 0 view .LVU40
.LBE89:
.LBE88:
	.loc 1 488 11 is_stmt 1 view .LVU41
	movq	%rbp, %rdi
	call	free@PLT
.LVL15:
.L15:
	.loc 1 483 57 view .LVU42
	.loc 1 483 22 view .LVU43
	.loc 1 485 7 view .LVU44
	.loc 1 485 20 is_stmt 0 view .LVU45
	movq	8+spareline(%rip), %rbp
	.loc 1 485 10 view .LVU46
	testq	%rbp, %rbp
	je	.L14
	.loc 1 487 11 is_stmt 1 view .LVU47
.LVL16:
.LBB91:
	.loc 1 310 1 view .LVU48
.LBB90:
	.loc 1 312 3 view .LVU49
	movq	%rbp, %rdi
	call	freeline.part.0
.LVL17:
	.loc 1 312 3 is_stmt 0 view .LVU50
.LBE90:
.LBE91:
	.loc 1 488 11 is_stmt 1 view .LVU51
	movq	%rbp, %rdi
.LBE92:
	.loc 1 491 1 is_stmt 0 view .LVU52
	popq	%rbp
	.cfi_remember_state
	.cfi_def_cfa_offset 8
.LBB93:
	.loc 1 488 11 view .LVU53
	jmp	free@PLT
.LVL18:
	.p2align 4,,10
	.p2align 3
.L14:
	.cfi_restore_state
.LBE93:
	.loc 1 491 1 view .LVU54
	popq	%rbp
	.cfi_def_cfa_offset 8
	ret
	.cfi_endproc
.LFE144:
	.size	free_spareline, .-free_spareline
	.p2align 4
	.type	delseq.isra.0, @function
delseq.isra.0:
.LFB162:
	.loc 1 533 1 is_stmt 1 view -0
	.cfi_startproc
.LVL19:
.LBB94:
	.loc 1 535 22 view .LVU56
.LBE94:
	.loc 1 533 1 is_stmt 0 view .LVU57
	pushq	%r12
	.cfi_def_cfa_offset 16
	.cfi_offset 12, -16
	movq	%rdi, %r12
	pushq	%rbp
	.cfi_def_cfa_offset 24
	.cfi_offset 6, -24
	movq	%rsi, %rbp
	pushq	%rbx
	.cfi_def_cfa_offset 32
	.cfi_offset 3, -32
	xorl	%ebx, %ebx
.LBB97:
	.loc 1 535 3 view .LVU58
	cmpq	$0, (%rdi)
	je	.L24
.LVL20:
	.p2align 4,,10
	.p2align 3
.L22:
	.loc 1 537 7 is_stmt 1 view .LVU59
	movq	0(%rbp), %rax
	movq	(%rax,%rbx,8), %rdi
.LVL21:
.LBB95:
.LBI95:
	.loc 1 310 1 view .LVU60
.LBB96:
	.loc 1 312 3 view .LVU61
	.loc 1 312 6 is_stmt 0 view .LVU62
	testq	%rdi, %rdi
	je	.L23
	call	freeline.part.0
.LVL22:
	.loc 1 312 6 view .LVU63
	movq	0(%rbp), %rax
	movq	(%rax,%rbx,8), %rdi
.L23:
	.loc 1 312 6 view .LVU64
.LBE96:
.LBE95:
	.loc 1 538 7 is_stmt 1 view .LVU65
	call	free@PLT
.LVL23:
	.loc 1 535 38 view .LVU66
	.loc 1 535 39 is_stmt 0 view .LVU67
	addq	$1, %rbx
.LVL24:
	.loc 1 535 22 is_stmt 1 view .LVU68
	.loc 1 535 3 is_stmt 0 view .LVU69
	cmpq	(%r12), %rbx
	jb	.L22
.LVL25:
.L24:
	.loc 1 535 3 view .LVU70
.LBE97:
	.loc 1 540 3 is_stmt 1 view .LVU71
	movq	0(%rbp), %rdi
	.loc 1 541 1 is_stmt 0 view .LVU72
	popq	%rbx
	.cfi_def_cfa_offset 24
	popq	%rbp
	.cfi_def_cfa_offset 16
	popq	%r12
	.cfi_def_cfa_offset 8
	.loc 1 540 3 view .LVU73
	jmp	free@PLT
.LVL26:
	.cfi_endproc
.LFE162:
	.size	delseq.isra.0, .-delseq.isra.0
	.section	.rodata.str1.1,"aMS",@progbits,1
.LC1:
	.string	""
.LC2:
	.string	"invalid field number: %s"
	.text
	.p2align 4
	.type	string_to_join_field, @function
string_to_join_field:
.LVL27:
.LFB154:
	.loc 1 840 1 is_stmt 1 view -0
	.cfi_startproc
	.loc 1 840 1 is_stmt 0 view .LVU75
	pushq	%r12
	.cfi_def_cfa_offset 16
	.cfi_offset 12, -16
	.loc 1 844 24 view .LVU76
	xorl	%esi, %esi
	leaq	.LC1(%rip), %r8
	movl	$10, %edx
	.loc 1 840 1 view .LVU77
	pushq	%rbp
	.cfi_def_cfa_offset 24
	.cfi_offset 6, -24
	movq	%rdi, %rbp
	subq	$24, %rsp
	.cfi_def_cfa_offset 48
	.loc 1 840 1 view .LVU78
	movq	%fs:40, %rax
	movq	%rax, 8(%rsp)
	xorl	%eax, %eax
	.loc 1 841 3 is_stmt 1 view .LVU79
	.loc 1 842 3 view .LVU80
	.loc 1 844 3 view .LVU81
	.loc 1 844 24 is_stmt 0 view .LVU82
	movq	%rsp, %rcx
	call	xstrtoumax@PLT
.LVL28:
	.loc 1 845 3 is_stmt 1 view .LVU83
	.loc 1 845 6 is_stmt 0 view .LVU84
	cmpl	$1, %eax
	je	.L38
	.loc 1 847 8 is_stmt 1 view .LVU85
	.loc 1 847 11 is_stmt 0 view .LVU86
	testl	%eax, %eax
	jne	.L35
	.loc 1 847 39 discriminator 1 view .LVU87
	movq	(%rsp), %rax
.LVL29:
	.loc 1 847 32 discriminator 1 view .LVU88
	testq	%rax, %rax
	je	.L35
	subq	$1, %rax
.L33:
	.loc 1 853 1 view .LVU89
	movq	8(%rsp), %rsi
	xorq	%fs:40, %rsi
	jne	.L40
	addq	$24, %rsp
	.cfi_remember_state
	.cfi_def_cfa_offset 24
	popq	%rbp
	.cfi_def_cfa_offset 16
.LVL30:
	.loc 1 853 1 view .LVU90
	popq	%r12
	.cfi_def_cfa_offset 8
	ret
.LVL31:
	.p2align 4,,10
	.p2align 3
.L38:
	.cfi_restore_state
	.loc 1 853 1 view .LVU91
	movq	$-2, %rax
.LVL32:
	.loc 1 850 3 is_stmt 1 view .LVU92
	.loc 1 852 3 view .LVU93
	.loc 1 852 10 is_stmt 0 view .LVU94
	jmp	.L33
.LVL33:
.L35:
.LBB102:
.LBI102:
	.loc 1 839 1 is_stmt 1 view .LVU95
.LBB103:
.LBB104:
	.loc 1 848 5 view .LVU96
	movq	%rbp, %rdi
	call	quote@PLT
.LVL34:
	movl	$5, %edx
	leaq	.LC2(%rip), %rsi
	xorl	%edi, %edi
	movq	%rax, %r12
	call	dcgettext@PLT
.LVL35:
	movq	%r12, %rcx
	xorl	%esi, %esi
	movl	$1, %edi
	movq	%rax, %rdx
	xorl	%eax, %eax
	call	error@PLT
.LVL36:
.L40:
	.loc 1 848 5 is_stmt 0 view .LVU97
.LBE104:
.LBE103:
.LBE102:
	.loc 1 853 1 view .LVU98
	call	__stack_chk_fail@PLT
.LVL37:
	.cfi_endproc
.LFE154:
	.size	string_to_join_field, .-string_to_join_field
	.section	.rodata.str1.1
.LC3:
	.string	", \t"
.LC4:
	.string	"invalid field specifier: %s"
	.section	.rodata.str1.8
	.align 8
.LC5:
	.string	"invalid file number in field spec: %s"
	.section	.rodata.str1.1
.LC6:
	.string	"src/join.c"
	.section	.rodata.str1.8
	.align 8
.LC7:
	.string	"file == 0 || file == 1 || file == 2"
	.section	.rodata.str1.1
.LC8:
	.string	"file != 0 || field == 0"
	.text
	.p2align 4
	.type	add_field_list, @function
add_field_list:
.LVL38:
.LFB156:
	.loc 1 900 1 is_stmt 1 view -0
	.cfi_startproc
	.loc 1 901 3 view .LVU100
	.loc 1 900 1 is_stmt 0 view .LVU101
	pushq	%r12
	.cfi_def_cfa_offset 16
	.cfi_offset 12, -16
	pushq	%rbp
	.cfi_def_cfa_offset 24
	.cfi_offset 6, -24
	movq	%rdi, %rbp
.LVL39:
	.loc 1 900 1 view .LVU102
	pushq	%rbx
	.cfi_def_cfa_offset 32
	.cfi_offset 3, -32
	jmp	.L50
.LVL40:
	.p2align 4,,10
	.p2align 3
.L43:
.LBB113:
.LBB114:
.LBB115:
.LBB116:
	.loc 1 866 7 is_stmt 1 view .LVU103
	.loc 1 866 10 is_stmt 0 view .LVU104
	cmpb	$0, 1(%rbp)
	jne	.L58
	.loc 1 872 20 view .LVU105
	xorl	%ebp, %ebp
.LVL41:
	.loc 1 871 19 view .LVU106
	xorl	%ebx, %ebx
.LVL42:
.L47:
	.loc 1 871 19 view .LVU107
.LBE116:
.LBE115:
.LBE114:
.LBB125:
.LBB126:
	.loc 1 822 3 is_stmt 1 view .LVU108
	.loc 1 822 7 is_stmt 0 view .LVU109
	movl	$24, %edi
	call	xmalloc@PLT
.LVL43:
	.loc 1 823 3 is_stmt 1 view .LVU110
	.loc 1 828 21 is_stmt 0 view .LVU111
	movq	outlist_end(%rip), %rdx
	.loc 1 823 11 view .LVU112
	movl	%ebx, (%rax)
	.loc 1 824 3 is_stmt 1 view .LVU113
	.loc 1 824 12 is_stmt 0 view .LVU114
	movq	%rbp, 8(%rax)
	.loc 1 825 3 is_stmt 1 view .LVU115
	.loc 1 825 11 is_stmt 0 view .LVU116
	movq	$0, 16(%rax)
	.loc 1 828 3 is_stmt 1 view .LVU117
	.loc 1 829 15 is_stmt 0 view .LVU118
	movq	%rax, outlist_end(%rip)
	.loc 1 828 21 view .LVU119
	movq	%rax, 16(%rdx)
	.loc 1 829 3 is_stmt 1 view .LVU120
.LVL44:
	.loc 1 829 3 is_stmt 0 view .LVU121
.LBE126:
.LBE125:
.LBE113:
	.loc 1 915 9 is_stmt 1 view .LVU122
	.loc 1 915 3 is_stmt 0 view .LVU123
	testq	%r12, %r12
	je	.L59
	.loc 1 915 3 view .LVU124
	movq	%r12, %rbp
.LVL45:
.L50:
	.loc 1 903 3 is_stmt 1 view .LVU125
.LBB134:
	.loc 1 905 7 view .LVU126
	.loc 1 906 7 view .LVU127
	.loc 1 907 7 view .LVU128
	.loc 1 909 7 view .LVU129
	.loc 1 909 11 is_stmt 0 view .LVU130
	leaq	.LC3(%rip), %rsi
	movq	%rbp, %rdi
	xorl	%r12d, %r12d
	call	strpbrk@PLT
.LVL46:
	.loc 1 910 7 is_stmt 1 view .LVU131
	.loc 1 910 10 is_stmt 0 view .LVU132
	testq	%rax, %rax
	je	.L42
	.loc 1 911 9 is_stmt 1 view .LVU133
	.loc 1 911 14 is_stmt 0 view .LVU134
	movb	$0, (%rax)
	.loc 1 911 11 view .LVU135
	leaq	1(%rax), %r12
.LVL47:
.L42:
	.loc 1 912 7 is_stmt 1 view .LVU136
.LBB129:
.LBI114:
	.loc 1 860 1 view .LVU137
.LBB122:
	.loc 1 863 3 view .LVU138
	.loc 1 863 12 is_stmt 0 view .LVU139
	movsbl	0(%rbp), %eax
	.loc 1 863 3 view .LVU140
	cmpb	$48, %al
	je	.L43
	leal	-49(%rax), %edx
	cmpb	$1, %dl
	ja	.L44
.LBB119:
	.loc 1 877 7 is_stmt 1 view .LVU141
	.loc 1 877 10 is_stmt 0 view .LVU142
	cmpb	$46, 1(%rbp)
	jne	.L60
	.loc 1 879 7 is_stmt 1 view .LVU143
	.loc 1 880 22 is_stmt 0 view .LVU144
	leaq	2(%rbp), %rdi
	.loc 1 879 26 view .LVU145
	leal	-48(%rax), %ebx
.LVL48:
	.loc 1 880 7 is_stmt 1 view .LVU146
	.loc 1 880 22 is_stmt 0 view .LVU147
	call	string_to_join_field
.LVL49:
	movq	%rax, %rbp
.LVL50:
	.loc 1 881 7 is_stmt 1 view .LVU148
	.loc 1 892 7 view .LVU149
	.loc 1 892 7 is_stmt 0 view .LVU150
.LBE119:
.LBE122:
.LBE129:
	.loc 1 913 7 is_stmt 1 view .LVU151
.LBB130:
.LBI125:
	.loc 1 815 1 view .LVU152
.LBB127:
	.loc 1 817 3 view .LVU153
	.loc 1 819 3 view .LVU154
	cmpl	$2, %ebx
	ja	.L61
	.loc 1 820 3 view .LVU155
	testl	%ebx, %ebx
	jne	.L47
	testq	%rax, %rax
	je	.L47
	.loc 1 820 3 view .LVU156
	leaq	__PRETTY_FUNCTION__.7435(%rip), %rcx
	movl	$820, %edx
	leaq	.LC6(%rip), %rsi
	leaq	.LC8(%rip), %rdi
	call	__assert_fail@PLT
.LVL51:
	.p2align 4,,10
	.p2align 3
.L59:
	.loc 1 820 3 is_stmt 0 view .LVU157
.LBE127:
.LBE130:
.LBE134:
	.loc 1 916 1 view .LVU158
	popq	%rbx
	.cfi_remember_state
	.cfi_def_cfa_offset 24
	popq	%rbp
	.cfi_def_cfa_offset 16
	popq	%r12
	.cfi_def_cfa_offset 8
.LVL52:
	.loc 1 916 1 view .LVU159
	ret
.LVL53:
.L44:
	.cfi_restore_state
.LBB135:
.LBB131:
.LBB123:
.LBB120:
	.loc 1 884 7 is_stmt 1 view .LVU160
	movq	%rbp, %rdi
	call	quote@PLT
.LVL54:
	movl	$5, %edx
	leaq	.LC5(%rip), %rsi
	xorl	%edi, %edi
	movq	%rax, %r12
.LVL55:
	.loc 1 884 7 is_stmt 0 view .LVU161
	call	dcgettext@PLT
.LVL56:
	movq	%r12, %rcx
	xorl	%esi, %esi
	movl	$1, %edi
	movq	%rax, %rdx
	xorl	%eax, %eax
	call	error@PLT
.LVL57:
.L61:
	.loc 1 884 7 view .LVU162
.LBE120:
.LBE123:
.LBE131:
.LBB132:
.LBB128:
	.loc 1 819 3 is_stmt 1 view .LVU163
	leaq	__PRETTY_FUNCTION__.7435(%rip), %rcx
	movl	$819, %edx
	leaq	.LC6(%rip), %rsi
	leaq	.LC7(%rip), %rdi
	call	__assert_fail@PLT
.LVL58:
.L58:
	.loc 1 819 3 is_stmt 0 view .LVU164
.LBE128:
.LBE132:
.LBB133:
.LBB124:
.LBB121:
.LBB117:
	.loc 1 869 11 is_stmt 1 view .LVU165
	movq	%rbp, %rdi
	call	quote@PLT
.LVL59:
	movl	$5, %edx
	leaq	.LC4(%rip), %rsi
	xorl	%edi, %edi
	movq	%rax, %r12
.LVL60:
	.loc 1 869 11 is_stmt 0 view .LVU166
	call	dcgettext@PLT
.LVL61:
	movq	%r12, %rcx
	xorl	%esi, %esi
	movl	$1, %edi
	movq	%rax, %rdx
	xorl	%eax, %eax
	call	error@PLT
.LVL62:
.L60:
	.loc 1 869 11 view .LVU167
.LBE117:
.LBB118:
	.loc 1 878 9 is_stmt 1 view .LVU168
	movq	%rbp, %rdi
	call	quote@PLT
.LVL63:
	movl	$5, %edx
	leaq	.LC4(%rip), %rsi
	xorl	%edi, %edi
	movq	%rax, %r12
.LVL64:
	.loc 1 878 9 is_stmt 0 view .LVU169
	call	dcgettext@PLT
.LVL65:
	movq	%r12, %rcx
	xorl	%esi, %esi
	movl	$1, %edi
	movq	%rax, %rdx
	xorl	%eax, %eax
	call	error@PLT
.LVL66:
.LBE118:
.LBE121:
.LBE124:
.LBE133:
.LBE135:
	.cfi_endproc
.LFE156:
	.size	add_field_list, .-add_field_list
	.p2align 4
	.type	keycmp.isra.0, @function
keycmp.isra.0:
.LVL67:
.LFB164:
	.loc 1 326 1 is_stmt 1 view -0
	.cfi_startproc
	.loc 1 330 3 view .LVU171
	.loc 1 331 3 view .LVU172
	.loc 1 333 3 view .LVU173
	.loc 1 334 3 view .LVU174
	.loc 1 335 3 view .LVU175
	.loc 1 337 3 view .LVU176
	.loc 1 326 1 is_stmt 0 view .LVU177
	pushq	%r12
	.cfi_def_cfa_offset 16
	.cfi_offset 12, -16
	pushq	%rbp
	.cfi_def_cfa_offset 24
	.cfi_offset 6, -24
	subq	$8, %rsp
	.cfi_def_cfa_offset 32
	.loc 1 337 6 view .LVU178
	cmpq	%rdi, %r8
	jnb	.L63
	.loc 1 339 7 is_stmt 1 view .LVU179
	.loc 1 339 27 is_stmt 0 view .LVU180
	salq	$4, %r8
.LVL68:
	.loc 1 339 27 view .LVU181
	addq	(%rsi), %r8
	.loc 1 339 12 view .LVU182
	movq	(%r8), %rdi
.LVL69:
	.loc 1 340 7 is_stmt 1 view .LVU183
	.loc 1 340 12 is_stmt 0 view .LVU184
	movq	8(%r8), %rbp
.LVL70:
	.loc 1 348 3 is_stmt 1 view .LVU185
	.loc 1 348 6 is_stmt 0 view .LVU186
	cmpq	%rdx, %r9
	jnb	.L76
	.loc 1 350 7 is_stmt 1 view .LVU187
	.loc 1 350 27 is_stmt 0 view .LVU188
	salq	$4, %r9
.LVL71:
	.loc 1 350 27 view .LVU189
	addq	(%rcx), %r9
	.loc 1 350 12 view .LVU190
	movq	(%r9), %rsi
.LVL72:
	.loc 1 351 7 is_stmt 1 view .LVU191
	.loc 1 351 12 is_stmt 0 view .LVU192
	movq	8(%r9), %r12
.LVL73:
	.loc 1 359 3 is_stmt 1 view .LVU193
	.loc 1 359 6 is_stmt 0 view .LVU194
	testq	%rbp, %rbp
	je	.L70
	.loc 1 361 3 is_stmt 1 view .LVU195
	.loc 1 361 6 is_stmt 0 view .LVU196
	testq	%r12, %r12
	je	.L73
	.loc 1 364 3 is_stmt 1 view .LVU197
	.loc 1 364 6 is_stmt 0 view .LVU198
	cmpb	$0, ignore_case(%rip)
	je	.L67
	.loc 1 368 7 is_stmt 1 view .LVU199
	.loc 1 368 14 is_stmt 0 view .LVU200
	cmpq	%r12, %rbp
	movq	%r12, %rdx
	cmovbe	%rbp, %rdx
	call	memcasecmp@PLT
.LVL74:
.L68:
	.loc 1 377 3 is_stmt 1 view .LVU201
	.loc 1 377 6 is_stmt 0 view .LVU202
	testl	%eax, %eax
	jne	.L62
	.loc 1 379 3 is_stmt 1 view .LVU203
	.loc 1 379 27 is_stmt 0 view .LVU204
	cmpq	%r12, %rbp
	jb	.L74
	.loc 1 379 34 view .LVU205
	setne	%al
.LVL75:
	.loc 1 380 1 view .LVU206
	addq	$8, %rsp
	.cfi_remember_state
	.cfi_def_cfa_offset 24
	.loc 1 379 34 view .LVU207
	movzbl	%al, %eax
	.loc 1 380 1 view .LVU208
	popq	%rbp
	.cfi_def_cfa_offset 16
.LVL76:
	.loc 1 380 1 view .LVU209
	popq	%r12
	.cfi_def_cfa_offset 8
.LVL77:
	.loc 1 380 1 view .LVU210
	ret
.LVL78:
	.p2align 4,,10
	.p2align 3
.L63:
	.cfi_restore_state
	.loc 1 348 3 is_stmt 1 view .LVU211
	.loc 1 348 6 is_stmt 0 view .LVU212
	cmpq	%rdx, %r9
	jb	.L71
	xorl	%eax, %eax
.LVL79:
.L62:
	.loc 1 380 1 view .LVU213
	addq	$8, %rsp
	.cfi_remember_state
	.cfi_def_cfa_offset 24
	popq	%rbp
	.cfi_def_cfa_offset 16
	popq	%r12
	.cfi_def_cfa_offset 8
	ret
.LVL80:
	.p2align 4,,10
	.p2align 3
.L67:
	.cfi_restore_state
	.loc 1 372 7 is_stmt 1 view .LVU214
	.loc 1 372 10 is_stmt 0 view .LVU215
	cmpb	$0, hard_LC_COLLATE(%rip)
	jne	.L77
	.loc 1 374 7 is_stmt 1 view .LVU216
	.loc 1 374 14 is_stmt 0 view .LVU217
	cmpq	%r12, %rbp
	movq	%r12, %rdx
	cmovbe	%rbp, %rdx
	call	memcmp@PLT
.LVL81:
	.loc 1 374 14 view .LVU218
	jmp	.L68
.LVL82:
	.p2align 4,,10
	.p2align 3
.L76:
	.loc 1 374 14 view .LVU219
	xorl	%eax, %eax
	testq	%rbp, %rbp
	setne	%al
.LVL83:
	.loc 1 359 3 is_stmt 1 view .LVU220
	.loc 1 380 1 is_stmt 0 view .LVU221
	addq	$8, %rsp
	.cfi_remember_state
	.cfi_def_cfa_offset 24
	popq	%rbp
	.cfi_def_cfa_offset 16
.LVL84:
	.loc 1 380 1 view .LVU222
	popq	%r12
	.cfi_def_cfa_offset 8
	ret
.LVL85:
	.p2align 4,,10
	.p2align 3
.L71:
	.cfi_restore_state
	.loc 1 350 7 is_stmt 1 view .LVU223
	.loc 1 351 7 view .LVU224
	.loc 1 351 12 is_stmt 0 view .LVU225
	salq	$4, %r9
.LVL86:
	.loc 1 351 12 view .LVU226
	addq	(%rcx), %r9
.LVL87:
	.loc 1 351 12 view .LVU227
	movq	8(%r9), %r12
.LVL88:
	.loc 1 359 3 is_stmt 1 view .LVU228
.L70:
	.loc 1 360 5 view .LVU229
	.loc 1 360 26 is_stmt 0 view .LVU230
	xorl	%eax, %eax
	testq	%r12, %r12
	setne	%al
	.loc 1 380 1 view .LVU231
	addq	$8, %rsp
	.cfi_remember_state
	.cfi_def_cfa_offset 24
	.loc 1 360 26 view .LVU232
	negl	%eax
	.loc 1 380 1 view .LVU233
	popq	%rbp
	.cfi_def_cfa_offset 16
	popq	%r12
	.cfi_def_cfa_offset 8
.LVL89:
	.loc 1 380 1 view .LVU234
	ret
.LVL90:
	.p2align 4,,10
	.p2align 3
.L77:
	.cfi_restore_state
	.loc 1 373 9 is_stmt 1 view .LVU235
	.loc 1 380 1 is_stmt 0 view .LVU236
	addq	$8, %rsp
	.cfi_remember_state
	.cfi_def_cfa_offset 24
	.loc 1 373 16 view .LVU237
	movq	%r12, %rcx
	movq	%rsi, %rdx
	movq	%rbp, %rsi
.LVL91:
	.loc 1 380 1 view .LVU238
	popq	%rbp
	.cfi_def_cfa_offset 16
.LVL92:
	.loc 1 380 1 view .LVU239
	popq	%r12
	.cfi_def_cfa_offset 8
.LVL93:
	.loc 1 373 16 view .LVU240
	jmp	xmemcoll@PLT
.LVL94:
	.p2align 4,,10
	.p2align 3
.L73:
	.cfi_restore_state
	.loc 1 362 12 view .LVU241
	movl	$1, %eax
	jmp	.L62
.LVL95:
.L74:
	.loc 1 379 27 view .LVU242
	movl	$-1, %eax
.LVL96:
	.loc 1 379 27 view .LVU243
	jmp	.L62
	.cfi_endproc
.LFE164:
	.size	keycmp.isra.0, .-keycmp.isra.0
	.p2align 4
	.type	prfield.isra.0, @function
prfield.isra.0:
.LVL97:
.LFB165:
	.loc 1 548 1 is_stmt 1 view -0
	.cfi_startproc
	.loc 1 550 3 view .LVU245
	.loc 1 552 3 view .LVU246
	.loc 1 552 6 is_stmt 0 view .LVU247
	cmpq	%rsi, %rdi
	jnb	.L79
.LVL98:
.LBB141:
.LBI141:
	.loc 1 548 1 is_stmt 1 view .LVU248
.LBB142:
	.loc 1 554 7 view .LVU249
	.loc 1 554 25 is_stmt 0 view .LVU250
	salq	$4, %rdi
.LVL99:
	.loc 1 554 25 view .LVU251
	addq	(%rdx), %rdi
	.loc 1 554 11 view .LVU252
	movq	8(%rdi), %rdx
.LVL100:
	.loc 1 555 7 is_stmt 1 view .LVU253
	.loc 1 555 10 is_stmt 0 view .LVU254
	testq	%rdx, %rdx
	je	.L79
	.loc 1 556 9 is_stmt 1 view .LVU255
	movq	stdout(%rip), %rcx
	movq	(%rdi), %rdi
	movl	$1, %esi
	jmp	fwrite_unlocked@PLT
.LVL101:
	.p2align 4,,10
	.p2align 3
.L79:
	.loc 1 556 9 is_stmt 0 view .LVU256
.LBE142:
.LBE141:
	.loc 1 560 8 is_stmt 1 view .LVU257
	.loc 1 560 12 is_stmt 0 view .LVU258
	movq	empty_filler(%rip), %rdi
	.loc 1 560 11 view .LVU259
	testq	%rdi, %rdi
	je	.L78
	.loc 1 561 5 is_stmt 1 view .LVU260
	movq	stdout(%rip), %rsi
	jmp	fputs_unlocked@PLT
.LVL102:
	.p2align 4,,10
	.p2align 3
.L78:
	.loc 1 562 1 is_stmt 0 view .LVU261
	ret
	.cfi_endproc
.LFE165:
	.size	prfield.isra.0, .-prfield.isra.0
	.p2align 4
	.type	prfields, @function
prfields:
.LVL103:
.LFB150:
	.loc 1 568 1 is_stmt 1 view -0
	.cfi_startproc
	.loc 1 569 3 view .LVU263
	.loc 1 570 3 view .LVU264
	.loc 1 568 1 is_stmt 0 view .LVU265
	pushq	%r15
	.cfi_def_cfa_offset 16
	.cfi_offset 15, -16
	pushq	%r14
	.cfi_def_cfa_offset 24
	.cfi_offset 14, -24
	pushq	%r13
	.cfi_def_cfa_offset 32
	.cfi_offset 13, -32
	pushq	%r12
	.cfi_def_cfa_offset 40
	.cfi_offset 12, -40
	movq	%rdi, %r12
	pushq	%rbp
	.cfi_def_cfa_offset 48
	.cfi_offset 6, -48
	pushq	%rbx
	.cfi_def_cfa_offset 56
	.cfi_offset 3, -56
	subq	$24, %rsp
	.cfi_def_cfa_offset 80
	.loc 1 570 43 view .LVU266
	cmpb	$0, autoformat(%rip)
	.loc 1 568 1 view .LVU267
	movq	%rsi, 8(%rsp)
	movq	%rdx, (%rsp)
	.loc 1 570 43 view .LVU268
	jne	.L91
	.loc 1 570 43 discriminator 2 view .LVU269
	movq	24(%rdi), %rax
	movq	%rax, (%rsp)
.L91:
.LVL104:
	.loc 1 571 3 is_stmt 1 discriminator 4 view .LVU270
	.loc 1 571 8 is_stmt 0 discriminator 4 view .LVU271
	movl	$32, %eax
	movq	8(%rsp), %r13
	leaq	40(%r12), %r15
	.loc 1 571 31 discriminator 4 view .LVU272
	movl	tab(%rip), %r14d
	.loc 1 571 8 discriminator 4 view .LVU273
	testl	%r14d, %r14d
	cmovs	%eax, %r14d
	movq	(%rsp), %rax
	cmpq	%r13, %rax
	movl	%r14d, %ebp
.LVL105:
	.loc 1 573 3 is_stmt 1 discriminator 4 view .LVU274
	.loc 1 573 15 discriminator 4 view .LVU275
	movsbl	%r14b, %r14d
	cmovbe	%rax, %r13
.LBB143:
.LBB144:
	.file 2 "/usr/include/x86_64-linux-gnu/bits/stdio.h"
	.loc 2 110 10 is_stmt 0 discriminator 4 view .LVU276
	movzbl	%r14b, %r14d
.LBE144:
.LBE143:
	.loc 1 573 10 discriminator 4 view .LVU277
	xorl	%ebx, %ebx
	.loc 1 573 3 discriminator 4 view .LVU278
	testq	%r13, %r13
	je	.L99
.LVL106:
	.p2align 4,,10
	.p2align 3
.L98:
	.loc 1 575 7 is_stmt 1 discriminator 3 view .LVU279
.LBB147:
.LBI143:
	.loc 2 108 1 discriminator 3 view .LVU280
.LBB145:
	.loc 2 110 3 discriminator 3 view .LVU281
	.loc 2 110 10 is_stmt 0 discriminator 3 view .LVU282
	movq	stdout(%rip), %rdi
	movq	40(%rdi), %rax
	cmpq	48(%rdi), %rax
	jnb	.L108
	.loc 2 110 10 view .LVU283
	leaq	1(%rax), %rdx
	movq	%rdx, 40(%rdi)
	movb	%bpl, (%rax)
.L97:
	.loc 2 110 10 view .LVU284
.LBE145:
.LBE147:
	.loc 1 576 7 is_stmt 1 view .LVU285
	movq	24(%r12), %rsi
	movq	%rbx, %rdi
	movq	%r15, %rdx
	.loc 1 573 46 is_stmt 0 view .LVU286
	addq	$1, %rbx
.LVL107:
	.loc 1 576 7 view .LVU287
	call	prfield.isra.0
.LVL108:
	.loc 1 573 46 is_stmt 1 view .LVU288
	.loc 1 573 15 view .LVU289
	.loc 1 573 3 is_stmt 0 view .LVU290
	cmpq	%r13, %rbx
	jne	.L98
.LVL109:
.L99:
	.loc 1 578 3 is_stmt 1 view .LVU291
	.loc 1 578 10 is_stmt 0 view .LVU292
	movq	8(%rsp), %rbx
	movsbl	%bpl, %r14d
	leaq	40(%r12), %r13
.LBB148:
.LBB149:
	.loc 2 110 10 view .LVU293
	movzbl	%r14b, %r14d
.LBE149:
.LBE148:
	.loc 1 578 10 view .LVU294
	addq	$1, %rbx
.LVL110:
	.loc 1 578 28 is_stmt 1 view .LVU295
	.loc 1 578 3 is_stmt 0 view .LVU296
	cmpq	%rbx, (%rsp)
	jbe	.L90
	.p2align 4,,10
	.p2align 3
.L102:
	.loc 1 580 7 is_stmt 1 discriminator 3 view .LVU297
.LVL111:
.LBB152:
.LBI148:
	.loc 2 108 1 discriminator 3 view .LVU298
.LBB150:
	.loc 2 110 3 discriminator 3 view .LVU299
	.loc 2 110 10 is_stmt 0 discriminator 3 view .LVU300
	movq	stdout(%rip), %rdi
	movq	40(%rdi), %rax
	cmpq	48(%rdi), %rax
	jnb	.L109
	.loc 2 110 10 view .LVU301
	leaq	1(%rax), %rdx
	movq	%rdx, 40(%rdi)
	movb	%bpl, (%rax)
.L101:
	.loc 2 110 10 view .LVU302
.LBE150:
.LBE152:
	.loc 1 581 7 is_stmt 1 view .LVU303
	movq	24(%r12), %rsi
	movq	%rbx, %rdi
	movq	%r13, %rdx
	.loc 1 578 41 is_stmt 0 view .LVU304
	addq	$1, %rbx
.LVL112:
	.loc 1 581 7 view .LVU305
	call	prfield.isra.0
.LVL113:
	.loc 1 578 41 is_stmt 1 view .LVU306
	.loc 1 578 28 view .LVU307
	.loc 1 578 3 is_stmt 0 view .LVU308
	cmpq	%rbx, (%rsp)
	jne	.L102
.L90:
	.loc 1 583 1 view .LVU309
	addq	$24, %rsp
	.cfi_remember_state
	.cfi_def_cfa_offset 56
.LVL114:
	.loc 1 583 1 view .LVU310
	popq	%rbx
	.cfi_def_cfa_offset 48
.LVL115:
	.loc 1 583 1 view .LVU311
	popq	%rbp
	.cfi_def_cfa_offset 40
	popq	%r12
	.cfi_def_cfa_offset 32
.LVL116:
	.loc 1 583 1 view .LVU312
	popq	%r13
	.cfi_def_cfa_offset 24
	popq	%r14
	.cfi_def_cfa_offset 16
	popq	%r15
	.cfi_def_cfa_offset 8
.LVL117:
	.loc 1 583 1 view .LVU313
	ret
.LVL118:
	.p2align 4,,10
	.p2align 3
.L108:
	.cfi_restore_state
.LBB153:
.LBB146:
	.loc 2 110 10 view .LVU314
	movl	%r14d, %esi
	call	__overflow@PLT
.LVL119:
	jmp	.L97
	.p2align 4,,10
	.p2align 3
.L109:
	.loc 2 110 10 view .LVU315
.LBE146:
.LBE153:
.LBB154:
.LBB151:
	movl	%r14d, %esi
	call	__overflow@PLT
.LVL120:
	jmp	.L101
.LBE151:
.LBE154:
	.cfi_endproc
.LFE150:
	.size	prfields, .-prfields
	.p2align 4
	.type	prjoin, @function
prjoin:
.LVL121:
.LFB151:
	.loc 1 589 1 is_stmt 1 view -0
	.cfi_startproc
	.loc 1 590 3 view .LVU317
	.loc 1 591 3 view .LVU318
	.loc 1 589 1 is_stmt 0 view .LVU319
	pushq	%r14
	.cfi_def_cfa_offset 16
	.cfi_offset 14, -16
	movl	$32, %eax
.LBB155:
	.loc 1 605 18 view .LVU320
	leaq	uni_blank(%rip), %r14
.LBE155:
	.loc 1 589 1 view .LVU321
	pushq	%r13
	.cfi_def_cfa_offset 24
	.cfi_offset 13, -24
	movq	%rsi, %r13
	pushq	%r12
	.cfi_def_cfa_offset 32
	.cfi_offset 12, -32
	.loc 1 591 31 view .LVU322
	movl	tab(%rip), %r12d
	.loc 1 589 1 view .LVU323
	pushq	%rbp
	.cfi_def_cfa_offset 40
	.cfi_offset 6, -40
	movq	%rdi, %rbp
	pushq	%rbx
	.cfi_def_cfa_offset 48
	.cfi_offset 3, -48
	.loc 1 595 11 view .LVU324
	movq	16+outlist_head(%rip), %rbx
	.loc 1 591 8 view .LVU325
	testl	%r12d, %r12d
	cmovs	%eax, %r12d
	.loc 1 592 3 is_stmt 1 view .LVU326
	.loc 1 593 3 view .LVU327
	.loc 1 595 3 view .LVU328
.LVL122:
	.loc 1 596 3 view .LVU329
	.loc 1 596 6 is_stmt 0 view .LVU330
	testq	%rbx, %rbx
	jne	.L112
	jmp	.L128
.LVL123:
	.p2align 4,,10
	.p2align 3
.L135:
.LBB160:
	.loc 1 605 15 is_stmt 1 view .LVU331
	.loc 1 613 25 is_stmt 0 view .LVU332
	movq	join_field_1(%rip), %rdi
.LVL124:
	.loc 1 613 25 view .LVU333
	movq	%rbp, %rax
	.loc 1 605 18 view .LVU334
	cmpq	%r14, %rbp
	je	.L133
.L116:
.LVL125:
	.loc 1 621 11 is_stmt 1 view .LVU335
	movq	24(%rax), %rsi
	leaq	40(%rax), %rdx
	call	prfield.isra.0
.LVL126:
	.loc 1 622 11 view .LVU336
	.loc 1 622 13 is_stmt 0 view .LVU337
	movq	16(%rbx), %rbx
.LVL127:
	.loc 1 623 11 is_stmt 1 view .LVU338
	.loc 1 623 14 is_stmt 0 view .LVU339
	testq	%rbx, %rbx
	je	.L132
	.loc 1 625 11 is_stmt 1 view .LVU340
.LVL128:
.LBB156:
.LBI156:
	.loc 2 108 1 view .LVU341
.LBB157:
	.loc 2 110 3 view .LVU342
	.loc 2 110 10 is_stmt 0 view .LVU343
	movq	stdout(%rip), %rdi
	movq	40(%rdi), %rax
	cmpq	48(%rdi), %rax
	jnb	.L134
	leaq	1(%rax), %rdx
	movq	%rdx, 40(%rdi)
	movb	%r12b, (%rax)
.LVL129:
.L112:
	.loc 2 110 10 view .LVU344
.LBE157:
.LBE156:
	.loc 1 601 7 is_stmt 1 view .LVU345
	.loc 1 603 11 view .LVU346
	.loc 1 603 16 is_stmt 0 view .LVU347
	movl	(%rbx), %eax
	.loc 1 603 14 view .LVU348
	testl	%eax, %eax
	je	.L135
	.loc 1 618 15 is_stmt 1 view .LVU349
	.loc 1 618 44 is_stmt 0 view .LVU350
	cmpl	$1, %eax
	movq	%r13, %rax
	.loc 1 619 21 view .LVU351
	movq	8(%rbx), %rdi
	.loc 1 618 44 view .LVU352
	cmove	%rbp, %rax
.LVL130:
	.loc 1 619 15 is_stmt 1 view .LVU353
	.loc 1 619 15 is_stmt 0 view .LVU354
	jmp	.L116
.LVL131:
	.p2align 4,,10
	.p2align 3
.L128:
	.loc 1 619 15 view .LVU355
.LBE160:
	.loc 1 631 7 is_stmt 1 view .LVU356
	.loc 1 631 10 is_stmt 0 view .LVU357
	leaq	uni_blank(%rip), %rdx
	.loc 1 639 17 view .LVU358
	movq	join_field_1(%rip), %rdi
.LVL132:
	.loc 1 639 17 view .LVU359
	movq	%rbp, %rax
	.loc 1 631 10 view .LVU360
	cmpq	%rdx, %rbp
	je	.L136
.L124:
.LVL133:
	.loc 1 643 7 is_stmt 1 view .LVU361
	movq	24(%rax), %rsi
.LVL134:
	.loc 1 643 7 is_stmt 0 view .LVU362
	leaq	40(%rax), %rdx
	call	prfield.isra.0
.LVL135:
	.loc 1 646 7 is_stmt 1 view .LVU363
	movq	autocount_1(%rip), %rdx
	movq	join_field_1(%rip), %rsi
	movq	%rbp, %rdi
	call	prfields
.LVL136:
	.loc 1 647 7 view .LVU364
	movq	autocount_2(%rip), %rdx
	movq	join_field_2(%rip), %rsi
	movq	%r13, %rdi
	call	prfields
.LVL137:
.L132:
	.loc 1 649 7 view .LVU365
.LBB161:
.LBB162:
	.loc 2 110 10 is_stmt 0 view .LVU366
	movq	stdout(%rip), %rdi
.LBE162:
.LBE161:
	.loc 1 649 7 view .LVU367
	movzbl	eolchar(%rip), %edx
.LVL138:
.LBB166:
.LBI161:
	.loc 2 108 1 is_stmt 1 view .LVU368
.LBB163:
	.loc 2 110 3 view .LVU369
	.loc 2 110 10 is_stmt 0 view .LVU370
	movq	40(%rdi), %rax
	cmpq	48(%rdi), %rax
	jnb	.L137
	leaq	1(%rax), %rcx
	movq	%rcx, 40(%rdi)
	movb	%dl, (%rax)
.LVL139:
	.loc 2 110 10 view .LVU371
.LBE163:
.LBE166:
	.loc 1 651 1 view .LVU372
	popq	%rbx
	.cfi_remember_state
	.cfi_def_cfa_offset 40
	popq	%rbp
	.cfi_def_cfa_offset 32
.LVL140:
	.loc 1 651 1 view .LVU373
	popq	%r12
	.cfi_def_cfa_offset 24
	popq	%r13
	.cfi_def_cfa_offset 16
.LVL141:
	.loc 1 651 1 view .LVU374
	popq	%r14
	.cfi_def_cfa_offset 8
	ret
.LVL142:
	.p2align 4,,10
	.p2align 3
.L133:
	.cfi_restore_state
.LBB167:
	.loc 1 607 19 is_stmt 1 view .LVU375
	.loc 1 608 19 view .LVU376
	.loc 1 608 25 is_stmt 0 view .LVU377
	movq	join_field_2(%rip), %rdi
.LVL143:
	.loc 1 607 24 view .LVU378
	movq	%r13, %rax
.LVL144:
	.loc 1 607 24 view .LVU379
	jmp	.L116
.LVL145:
	.p2align 4,,10
	.p2align 3
.L134:
.LBB159:
.LBB158:
	.loc 2 110 10 view .LVU380
	movzbl	%r12b, %esi
	call	__overflow@PLT
.LVL146:
	jmp	.L112
.LVL147:
	.p2align 4,,10
	.p2align 3
.L137:
	.loc 2 110 10 view .LVU381
.LBE158:
.LBE159:
.LBE167:
	.loc 1 651 1 view .LVU382
	popq	%rbx
	.cfi_remember_state
	.cfi_def_cfa_offset 40
.LBB168:
.LBB164:
	.loc 2 110 10 view .LVU383
	movzbl	%dl, %esi
.LBE164:
.LBE168:
	.loc 1 651 1 view .LVU384
	popq	%rbp
	.cfi_def_cfa_offset 32
.LVL148:
	.loc 1 651 1 view .LVU385
	popq	%r12
	.cfi_def_cfa_offset 24
	popq	%r13
	.cfi_def_cfa_offset 16
.LVL149:
	.loc 1 651 1 view .LVU386
	popq	%r14
	.cfi_def_cfa_offset 8
.LBB169:
.LBB165:
	.loc 2 110 10 view .LVU387
	jmp	__overflow@PLT
.LVL150:
	.p2align 4,,10
	.p2align 3
.L136:
	.cfi_restore_state
	.loc 2 110 10 view .LVU388
.LBE165:
.LBE169:
	.loc 1 633 11 is_stmt 1 view .LVU389
	.loc 1 634 11 view .LVU390
	.loc 1 634 17 is_stmt 0 view .LVU391
	movq	join_field_2(%rip), %rdi
.LVL151:
	.loc 1 633 16 view .LVU392
	movq	%rsi, %rax
.LVL152:
	.loc 1 633 16 view .LVU393
	jmp	.L124
	.cfi_endproc
.LFE151:
	.size	prjoin, .-prjoin
	.p2align 4
	.type	extract_field, @function
extract_field:
.LVL153:
.LFB136:
	.loc 1 258 1 is_stmt 1 view -0
	.cfi_startproc
	.loc 1 259 3 view .LVU395
	.loc 1 258 1 is_stmt 0 view .LVU396
	pushq	%r12
	.cfi_def_cfa_offset 16
	.cfi_offset 12, -16
	movq	%rsi, %r12
	pushq	%rbp
	.cfi_def_cfa_offset 24
	.cfi_offset 6, -24
	movq	%rdx, %rbp
	pushq	%rbx
	.cfi_def_cfa_offset 32
	.cfi_offset 3, -32
	.loc 1 259 11 view .LVU397
	movq	24(%rdi), %rcx
	.loc 1 258 1 view .LVU398
	movq	%rdi, %rbx
	.loc 1 259 28 view .LVU399
	movq	32(%rdi), %rax
	movq	40(%rdi), %rdi
.LVL154:
	.loc 1 259 6 view .LVU400
	cmpq	%rax, %rcx
	jnb	.L150
.LVL155:
.L139:
	.loc 1 263 3 is_stmt 1 view .LVU401
	.loc 1 263 15 is_stmt 0 view .LVU402
	movq	%rcx, %rax
	.loc 1 265 3 view .LVU403
	addq	$1, %rcx
	.loc 1 263 15 view .LVU404
	salq	$4, %rax
	addq	%rax, %rdi
	.loc 1 263 35 view .LVU405
	movq	%r12, (%rdi)
	.loc 1 264 3 is_stmt 1 view .LVU406
	.loc 1 264 35 is_stmt 0 view .LVU407
	movq	%rbp, 8(%rdi)
	.loc 1 265 3 is_stmt 1 view .LVU408
	movq	%rcx, 24(%rbx)
	.loc 1 266 1 is_stmt 0 view .LVU409
	popq	%rbx
	.cfi_remember_state
	.cfi_def_cfa_offset 24
.LVL156:
	.loc 1 266 1 view .LVU410
	popq	%rbp
	.cfi_def_cfa_offset 16
.LVL157:
	.loc 1 266 1 view .LVU411
	popq	%r12
	.cfi_def_cfa_offset 8
.LVL158:
	.loc 1 266 1 view .LVU412
	ret
.LVL159:
	.p2align 4,,10
	.p2align 3
.L150:
	.cfi_restore_state
.LBB174:
	.loc 1 261 7 is_stmt 1 view .LVU413
.LBB175:
.LBI175:
	.file 3 "./lib/xalloc.h"
	.loc 3 174 1 view .LVU414
.LBB176:
	.loc 3 176 3 view .LVU415
	.loc 3 178 3 view .LVU416
	.loc 3 178 6 is_stmt 0 view .LVU417
	testq	%rdi, %rdi
	je	.L151
	.loc 3 200 7 is_stmt 1 view .LVU418
	.loc 3 200 10 is_stmt 0 view .LVU419
	movabsq	$384307168202282324, %rdx
.LVL160:
	.loc 3 200 10 view .LVU420
	cmpq	%rdx, %rax
	ja	.L145
	.loc 3 203 7 is_stmt 1 view .LVU421
	.loc 3 203 14 is_stmt 0 view .LVU422
	movq	%rax, %rdx
	shrq	%rdx
	.loc 3 203 9 view .LVU423
	leaq	1(%rax,%rdx), %rax
.LVL161:
	.loc 3 203 9 view .LVU424
	movq	%rax, %rsi
.LVL162:
	.loc 3 203 9 view .LVU425
	salq	$4, %rsi
.LVL163:
.L141:
	.loc 3 206 3 is_stmt 1 view .LVU426
	.loc 3 206 7 is_stmt 0 view .LVU427
	movq	%rax, 32(%rbx)
	.loc 3 207 3 is_stmt 1 view .LVU428
	.loc 3 207 10 is_stmt 0 view .LVU429
	call	xrealloc@PLT
.LVL164:
	.loc 3 207 10 view .LVU430
	movq	24(%rbx), %rcx
.LBE176:
.LBE175:
	.loc 1 261 20 view .LVU431
	movq	%rax, 40(%rbx)
.LBB179:
.LBB178:
	.loc 3 207 10 view .LVU432
	movq	%rax, %rdi
.LVL165:
	.loc 3 207 10 view .LVU433
	jmp	.L139
.LVL166:
	.p2align 4,,10
	.p2align 3
.L151:
	.loc 3 180 7 is_stmt 1 view .LVU434
	.loc 3 180 10 is_stmt 0 view .LVU435
	testq	%rax, %rax
	je	.L146
	.loc 3 191 7 is_stmt 1 view .LVU436
	.loc 3 191 11 is_stmt 0 view .LVU437
	movq	%rax, %rdx
.LVL167:
	.loc 3 191 11 view .LVU438
	movq	%rax, %rsi
.LVL168:
	.loc 3 191 11 view .LVU439
	shrq	$60, %rdx
	setne	%dl
	salq	$4, %rsi
	movzbl	%dl, %edx
	js	.L145
	.loc 3 191 10 view .LVU440
	testq	%rdx, %rdx
	je	.L141
.L145:
	.loc 3 192 9 is_stmt 1 view .LVU441
	call	xalloc_die@PLT
.LVL169:
	.p2align 4,,10
	.p2align 3
.L146:
	.loc 3 192 9 is_stmt 0 view .LVU442
	movl	$128, %esi
.LVL170:
.LBB177:
	.loc 3 189 13 view .LVU443
	movl	$8, %eax
.LVL171:
	.loc 3 189 13 view .LVU444
	jmp	.L141
.LBE177:
.LBE178:
.LBE179:
.LBE174:
	.cfi_endproc
.LFE136:
	.size	extract_field, .-extract_field
	.section	.rodata.str1.1
.LC9:
	.string	"read error"
.LC10:
	.string	"%s:%lu: is not sorted: %.*s"
	.text
	.p2align 4
	.type	get_line, @function
get_line:
.LVL172:
.LFB143:
	.loc 1 448 1 is_stmt 1 view -0
	.cfi_startproc
	.loc 1 449 3 view .LVU446
	.loc 1 448 1 is_stmt 0 view .LVU447
	pushq	%r15
	.cfi_def_cfa_offset 16
	.cfi_offset 15, -16
	pushq	%r14
	.cfi_def_cfa_offset 24
	.cfi_offset 14, -24
	movq	%rdi, %r14
	pushq	%r13
	.cfi_def_cfa_offset 32
	.cfi_offset 13, -32
	pushq	%r12
	.cfi_def_cfa_offset 40
	.cfi_offset 12, -40
	.loc 1 451 23 view .LVU448
	leaq	prevline(%rip), %r12
	.loc 1 448 1 view .LVU449
	pushq	%rbp
	.cfi_def_cfa_offset 48
	.cfi_offset 6, -48
	movq	%rsi, %rbp
	pushq	%rbx
	.cfi_def_cfa_offset 56
	.cfi_offset 3, -56
	.loc 1 451 30 view .LVU450
	leal	-1(%rdx), %ebx
	.loc 1 451 23 view .LVU451
	movslq	%ebx, %rbx
	.loc 1 448 1 view .LVU452
	subq	$24, %rsp
	.cfi_def_cfa_offset 80
	.loc 1 449 16 view .LVU453
	movq	(%rsi), %r13
.LVL173:
	.loc 1 451 3 is_stmt 1 view .LVU454
	.loc 1 448 1 is_stmt 0 view .LVU455
	movl	%edx, 12(%rsp)
	.loc 1 451 6 view .LVU456
	cmpq	%r13, (%r12,%rbx,8)
	je	.L210
	.loc 1 457 3 is_stmt 1 view .LVU457
	.loc 1 457 6 is_stmt 0 view .LVU458
	testq	%r13, %r13
	je	.L154
.LVL174:
.L214:
	.loc 1 458 5 is_stmt 1 view .LVU459
.LBB204:
.LBI204:
	.loc 1 430 1 view .LVU460
.LBB205:
	.loc 1 432 3 view .LVU461
	.loc 1 432 17 is_stmt 0 view .LVU462
	movq	$0, 24(%r13)
.LVL175:
.L155:
	.loc 1 432 17 view .LVU463
.LBE205:
.LBE204:
	.loc 1 462 3 is_stmt 1 view .LVU464
	.loc 1 462 9 is_stmt 0 view .LVU465
	movsbl	eolchar(%rip), %edx
	movq	%r14, %rsi
	movq	%r13, %rdi
	call	readlinebuffer_delim@PLT
.LVL176:
	.loc 1 462 6 view .LVU466
	testq	%rax, %rax
	je	.L211
	.loc 1 469 3 is_stmt 1 view .LVU467
	leaq	line_no(%rip), %rax
.LBB206:
.LBB207:
	.loc 1 273 9 is_stmt 0 view .LVU468
	movq	16(%r13), %r14
.LVL177:
	.loc 1 273 9 view .LVU469
.LBE207:
.LBE206:
	.loc 1 469 3 view .LVU470
	addq	$1, (%rax,%rbx,8)
	.loc 1 471 3 is_stmt 1 view .LVU471
.LVL178:
.LBB224:
.LBI206:
	.loc 1 271 1 view .LVU472
.LBB222:
	.loc 1 273 3 view .LVU473
	.loc 1 274 3 view .LVU474
	.loc 1 274 44 is_stmt 0 view .LVU475
	movq	8(%r13), %rax
	leaq	-1(%rax), %rdx
	.loc 1 274 15 view .LVU476
	leaq	(%r14,%rdx), %rbp
.LVL179:
	.loc 1 276 3 is_stmt 1 view .LVU477
	.loc 1 276 6 is_stmt 0 view .LVU478
	cmpq	%rbp, %r14
	je	.L160
	.loc 1 279 3 is_stmt 1 view .LVU479
	.loc 1 279 16 is_stmt 0 view .LVU480
	movl	tab(%rip), %esi
	.loc 1 279 6 view .LVU481
	testl	%esi, %esi
	js	.L202
	cmpl	$10, %esi
	jne	.L161
	jmp	.L212
.LVL180:
	.p2align 4,,10
	.p2align 3
.L164:
.LBB208:
	.loc 1 283 9 is_stmt 1 view .LVU482
	.loc 1 283 39 is_stmt 0 view .LVU483
	movq	%r15, %rdx
	.loc 1 283 9 view .LVU484
	movq	%r14, %rsi
	movq	%r13, %rdi
	.loc 1 283 39 view .LVU485
	subq	%r14, %rdx
	.loc 1 282 64 view .LVU486
	leaq	1(%r15), %r14
.LVL181:
	.loc 1 283 9 view .LVU487
	call	extract_field
.LVL182:
	.loc 1 282 60 is_stmt 1 view .LVU488
	.loc 1 282 60 is_stmt 0 view .LVU489
	movl	tab(%rip), %esi
.LVL183:
.L161:
	.loc 1 282 14 is_stmt 1 view .LVU490
	.loc 1 282 43 is_stmt 0 view .LVU491
	movq	%rbp, %rdx
	.loc 1 282 21 view .LVU492
	movq	%r14, %rdi
	.loc 1 282 43 view .LVU493
	subq	%r14, %rdx
	.loc 1 282 21 view .LVU494
	movq	%rdx, (%rsp)
	call	memchr@PLT
.LVL184:
	.loc 1 282 7 view .LVU495
	movq	(%rsp), %rdx
	testq	%rax, %rax
	.loc 1 282 21 view .LVU496
	movq	%rax, %r15
.LVL185:
	.loc 1 282 7 view .LVU497
	jne	.L164
.LVL186:
.L165:
	.loc 1 282 7 view .LVU498
.LBE208:
	.loc 1 306 3 is_stmt 1 view .LVU499
	movq	%r14, %rsi
.LVL187:
.L209:
	.loc 1 306 3 is_stmt 0 view .LVU500
	movq	%r13, %rdi
	call	extract_field
.LVL188:
.L160:
	.loc 1 306 3 view .LVU501
.LBE222:
.LBE224:
	.loc 1 473 3 is_stmt 1 view .LVU502
	.loc 1 473 15 is_stmt 0 view .LVU503
	movq	(%r12,%rbx,8), %rax
	.loc 1 473 6 view .LVU504
	testq	%rax, %rax
	je	.L174
	.loc 1 474 5 is_stmt 1 view .LVU505
.LVL189:
.LBB225:
.LBI225:
	.loc 1 394 1 view .LVU506
.LBB226:
	.loc 1 398 3 view .LVU507
	.loc 1 398 25 is_stmt 0 view .LVU508
	movl	check_input_order(%rip), %edx
	.loc 1 398 6 view .LVU509
	cmpl	$2, %edx
	je	.L174
	.loc 1 399 7 view .LVU510
	cmpl	$1, %edx
	je	.L176
	.loc 1 399 54 view .LVU511
	cmpb	$0, seen_unpairable(%rip)
	je	.L174
.L176:
	.loc 1 401 7 is_stmt 1 view .LVU512
	.loc 1 401 35 is_stmt 0 view .LVU513
	leaq	issued_disorder_warning(%rip), %rbp
	.loc 1 401 10 view .LVU514
	cmpb	$0, 0(%rbp,%rbx)
	jne	.L174
.LBB227:
	.loc 1 403 11 is_stmt 1 view .LVU515
	.loc 1 404 15 is_stmt 0 view .LVU516
	movq	24(%r13), %rdx
	movq	24(%rax), %rdi
	leaq	40(%r13), %rcx
	leaq	40(%rax), %rsi
	.loc 1 403 60 view .LVU517
	cmpl	$1, 12(%rsp)
	movq	join_field_1(%rip), %r8
	cmovne	join_field_2(%rip), %r8
.LVL190:
	.loc 1 404 11 is_stmt 1 view .LVU518
	.loc 1 404 15 is_stmt 0 view .LVU519
	movq	%r8, %r9
	call	keycmp.isra.0
.LVL191:
	.loc 1 404 14 view .LVU520
	testl	%eax, %eax
	jle	.L174
.LBB228:
	.loc 1 407 15 is_stmt 1 view .LVU521
	.loc 1 407 22 is_stmt 0 view .LVU522
	movq	8(%r13), %rax
.LVL192:
	.loc 1 408 15 is_stmt 1 view .LVU523
	movq	16(%r13), %r15
	xorl	%r9d, %r9d
	.loc 1 408 18 is_stmt 0 view .LVU524
	testq	%rax, %rax
	je	.L179
	.loc 1 408 27 view .LVU525
	cmpb	$10, -1(%r15,%rax)
	.loc 1 408 49 view .LVU526
	leaq	-1(%rax), %rdx
	.loc 1 408 27 view .LVU527
	je	.L180
	cmpq	$2147483647, %rax
	movl	$2147483647, %edx
	cmovbe	%rax, %rdx
	movq	%rdx, %r9
.LVL193:
.L179:
	.loc 1 415 15 view .LVU528
	leaq	line_no(%rip), %rax
	.loc 1 417 25 view .LVU529
	xorl	%edi, %edi
	movl	$5, %edx
	movl	%r9d, 12(%rsp)
.LVL194:
	.loc 1 413 15 is_stmt 1 view .LVU530
	.loc 1 415 15 view .LVU531
	movq	(%rax,%rbx,8), %r8
	.loc 1 417 25 is_stmt 0 view .LVU532
	leaq	.LC10(%rip), %rsi
	.loc 1 415 15 view .LVU533
	leaq	g_names(%rip), %rax
	movq	(%rax,%rbx,8), %r14
	movq	%r8, (%rsp)
	.loc 1 417 25 view .LVU534
	call	dcgettext@PLT
.LVL195:
	.loc 1 415 15 view .LVU535
	xorl	%edi, %edi
	cmpl	$1, check_input_order(%rip)
	movq	%r14, %rcx
	sete	%dil
	subq	$8, %rsp
	.cfi_def_cfa_offset 88
	.loc 1 417 25 view .LVU536
	movq	%rax, %rdx
	.loc 1 415 15 view .LVU537
	xorl	%esi, %esi
	pushq	%r15
	.cfi_def_cfa_offset 96
	movl	28(%rsp), %r9d
	xorl	%eax, %eax
	movq	16(%rsp), %r8
	call	error@PLT
.LVL196:
	.loc 1 423 15 is_stmt 1 view .LVU538
	.loc 1 423 51 is_stmt 0 view .LVU539
	movb	$1, 0(%rbp,%rbx)
	popq	%rax
	.cfi_def_cfa_offset 88
	popq	%rdx
	.cfi_def_cfa_offset 80
.LVL197:
	.p2align 4,,10
	.p2align 3
.L174:
	.loc 1 423 51 view .LVU540
.LBE228:
.LBE227:
.LBE226:
.LBE225:
	.loc 1 476 3 is_stmt 1 view .LVU541
	.loc 1 476 23 is_stmt 0 view .LVU542
	movq	%r13, (%r12,%rbx,8)
	.loc 1 477 3 is_stmt 1 view .LVU543
	.loc 1 477 10 is_stmt 0 view .LVU544
	movl	$1, %r12d
.L152:
	.loc 1 478 1 view .LVU545
	addq	$24, %rsp
	.cfi_remember_state
	.cfi_def_cfa_offset 56
	movl	%r12d, %eax
	popq	%rbx
	.cfi_def_cfa_offset 48
.LVL198:
	.loc 1 478 1 view .LVU546
	popq	%rbp
	.cfi_def_cfa_offset 40
	popq	%r12
	.cfi_def_cfa_offset 32
	popq	%r13
	.cfi_def_cfa_offset 24
.LVL199:
	.loc 1 478 1 view .LVU547
	popq	%r14
	.cfi_def_cfa_offset 16
	popq	%r15
	.cfi_def_cfa_offset 8
	ret
.LVL200:
	.p2align 4,,10
	.p2align 3
.L211:
	.cfi_restore_state
	.loc 1 464 7 is_stmt 1 view .LVU548
.LBB232:
.LBI232:
	.loc 2 135 1 view .LVU549
.LBB233:
	.loc 2 137 3 view .LVU550
	.loc 2 137 3 is_stmt 0 view .LVU551
.LBE233:
.LBE232:
	.loc 1 464 10 view .LVU552
	testb	$32, (%r14)
	jne	.L213
	.loc 1 466 7 is_stmt 1 view .LVU553
.LVL201:
.LBB234:
.LBI234:
	.loc 1 310 1 view .LVU554
.LBB235:
	.loc 1 312 3 view .LVU555
.LBE235:
.LBE234:
	.loc 1 467 14 is_stmt 0 view .LVU556
	xorl	%r12d, %r12d
.LBB237:
.LBB236:
	.loc 1 312 6 view .LVU557
	testq	%r13, %r13
	je	.L152
	movq	%r13, %rdi
	call	freeline.part.0
.LVL202:
	jmp	.L152
.LVL203:
	.p2align 4,,10
	.p2align 3
.L210:
	.loc 1 312 6 view .LVU558
.LBE236:
.LBE237:
	.loc 1 453 7 is_stmt 1 view .LVU559
.LBB238:
	.loc 1 453 7 view .LVU560
	.loc 1 453 7 view .LVU561
	leaq	spareline(%rip), %rdx
.LVL204:
	.loc 1 453 7 is_stmt 0 view .LVU562
	movq	(%rdx,%rbx,8), %rax
.LVL205:
	.loc 1 453 7 is_stmt 1 view .LVU563
	movq	%r13, (%rdx,%rbx,8)
.LBE238:
	.loc 1 453 7 view .LVU564
	.loc 1 453 45 view .LVU565
	.loc 1 454 7 view .LVU566
.LBB239:
	.loc 1 453 7 is_stmt 0 view .LVU567
	movq	%rax, %r13
.LVL206:
	.loc 1 453 7 view .LVU568
.LBE239:
	.loc 1 457 3 is_stmt 1 view .LVU569
	.loc 1 454 14 is_stmt 0 view .LVU570
	movq	%rax, (%rsi)
.LVL207:
	.loc 1 457 6 view .LVU571
	testq	%r13, %r13
	jne	.L214
.LVL208:
.L154:
	.loc 1 460 5 is_stmt 1 view .LVU572
.LBB240:
.LBI240:
	.loc 1 436 1 view .LVU573
.LBB241:
	.loc 1 438 3 view .LVU574
	.loc 1 438 23 is_stmt 0 view .LVU575
	movl	$48, %esi
.LVL209:
	.loc 1 438 23 view .LVU576
	movl	$1, %edi
.LVL210:
	.loc 1 438 23 view .LVU577
	call	xcalloc@PLT
.LVL211:
	.loc 1 439 10 view .LVU578
	movq	%rax, 0(%rbp)
	.loc 1 438 23 view .LVU579
	movq	%rax, %r13
.LVL212:
	.loc 1 439 3 is_stmt 1 view .LVU580
	.loc 1 440 3 view .LVU581
	.loc 1 440 3 is_stmt 0 view .LVU582
	jmp	.L155
.LVL213:
	.p2align 4,,10
	.p2align 3
.L212:
	.loc 1 440 3 view .LVU583
.LBE241:
.LBE240:
.LBB242:
.LBB223:
	.loc 1 285 8 is_stmt 1 view .LVU584
	.loc 1 285 11 is_stmt 0 view .LVU585
	testl	%esi, %esi
	jns	.L165
	.p2align 4,,10
	.p2align 3
.L202:
.LBB209:
.LBB210:
	.file 4 "src/system.h"
	.loc 4 162 10 view .LVU586
	call	__ctype_b_loc@PLT
.LVL214:
	movq	(%rax), %rdx
	movq	%rax, %r15
.LVL215:
	.p2align 4,,10
	.p2align 3
.L186:
	.loc 4 162 10 view .LVU587
.LBE210:
.LBE209:
	.loc 1 288 13 is_stmt 1 view .LVU588
	.loc 1 288 25 is_stmt 0 view .LVU589
	movzbl	(%r14), %ecx
.LVL216:
.LBB212:
.LBI209:
	.loc 4 160 1 is_stmt 1 view .LVU590
.LBB211:
	.loc 4 162 3 view .LVU591
	movq	%r14, %rsi
	addq	$1, %r14
.LVL217:
	.loc 4 162 23 is_stmt 0 view .LVU592
	testb	$1, (%rdx,%rcx,2)
	jne	.L166
	cmpb	$10, %cl
	je	.L166
.LVL218:
.L181:
	.loc 4 162 23 view .LVU593
.LBE211:
.LBE212:
	.loc 1 292 7 is_stmt 1 view .LVU594
.LBB213:
	.loc 1 294 11 view .LVU595
	.loc 1 295 11 view .LVU596
	.loc 1 295 20 is_stmt 0 view .LVU597
	leaq	1(%rsi), %r14
.LVL219:
	.loc 1 295 31 is_stmt 1 view .LVU598
	.loc 1 295 11 is_stmt 0 view .LVU599
	cmpq	%r14, %rbp
	je	.L188
.L185:
	.loc 1 295 58 view .LVU600
	movzbl	(%r14), %edi
.LVL220:
.LBB214:
.LBI214:
	.loc 4 160 1 is_stmt 1 view .LVU601
.LBB215:
	.loc 4 162 3 view .LVU602
	.loc 4 162 23 is_stmt 0 view .LVU603
	testb	$1, (%rdx,%rdi,2)
	jne	.L168
	.loc 4 162 23 view .LVU604
	cmpb	$10, %dil
	je	.L168
.LVL221:
	.loc 4 162 23 view .LVU605
.LBE215:
.LBE214:
	.loc 1 296 13 is_stmt 1 view .LVU606
	.loc 1 295 65 view .LVU607
	.loc 1 295 68 is_stmt 0 view .LVU608
	addq	$1, %r14
.LVL222:
	.loc 1 295 31 is_stmt 1 view .LVU609
	.loc 1 295 11 is_stmt 0 view .LVU610
	cmpq	%r14, %rbp
	jne	.L185
	movq	%rbp, %rdx
	subq	%rsi, %rdx
	jmp	.L209
.LVL223:
	.p2align 4,,10
	.p2align 3
.L166:
	.loc 1 295 11 view .LVU611
.LBE213:
	.loc 1 289 9 is_stmt 1 view .LVU612
	.loc 1 289 12 is_stmt 0 view .LVU613
	cmpq	%r14, %rbp
	jne	.L186
	jmp	.L160
.LVL224:
	.p2align 4,,10
	.p2align 3
.L168:
.LBB220:
	.loc 1 297 11 is_stmt 1 view .LVU614
	.loc 1 297 41 is_stmt 0 view .LVU615
	movq	%r14, %rdx
	.loc 1 297 11 view .LVU616
	movq	%r13, %rdi
	.loc 1 297 41 view .LVU617
	subq	%rsi, %rdx
	.loc 1 297 11 view .LVU618
	call	extract_field
.LVL225:
	.loc 1 298 11 is_stmt 1 view .LVU619
	.loc 1 298 14 is_stmt 0 view .LVU620
	cmpq	%r14, %rbp
	je	.L160
	.loc 1 300 11 is_stmt 1 view .LVU621
.LVL226:
	.loc 1 300 20 is_stmt 0 view .LVU622
	leaq	1(%r14), %rsi
.LVL227:
	.loc 1 300 31 is_stmt 1 view .LVU623
	.loc 1 300 11 is_stmt 0 view .LVU624
	cmpq	%rsi, %rbp
	je	.L208
.LBB216:
.LBB217:
	.loc 4 162 10 view .LVU625
	movq	(%r15), %rdx
.L182:
	.loc 4 162 10 view .LVU626
.LBE217:
.LBE216:
	.loc 1 300 56 view .LVU627
	movzbl	(%rsi), %ecx
.LVL228:
.LBB219:
.LBI216:
	.loc 4 160 1 is_stmt 1 view .LVU628
.LBB218:
	.loc 4 162 3 view .LVU629
	.loc 4 162 23 is_stmt 0 view .LVU630
	testb	$1, (%rdx,%rcx,2)
	jne	.L171
	.loc 4 162 23 view .LVU631
	cmpb	$10, %cl
	jne	.L215
.L171:
.LVL229:
	.loc 4 162 23 view .LVU632
.LBE218:
.LBE219:
	.loc 1 301 13 is_stmt 1 view .LVU633
	.loc 1 300 63 view .LVU634
	.loc 1 300 66 is_stmt 0 view .LVU635
	addq	$1, %rsi
.LVL230:
	.loc 1 300 31 is_stmt 1 view .LVU636
	.loc 1 300 11 is_stmt 0 view .LVU637
	cmpq	%rsi, %rbp
	jne	.L182
.L208:
	.loc 1 300 11 view .LVU638
	xorl	%edx, %edx
	.loc 1 300 66 view .LVU639
	movq	%rbp, %r14
.LVL231:
	.loc 1 300 66 view .LVU640
	jmp	.L165
.LVL232:
	.p2align 4,,10
	.p2align 3
.L215:
	.loc 1 300 66 view .LVU641
.LBE220:
	.loc 1 303 13 is_stmt 1 view .LVU642
	.loc 1 303 7 is_stmt 0 view .LVU643
	cmpq	%rsi, %rbp
	jne	.L181
	movq	%rbp, %r14
.LVL233:
	.loc 1 303 7 view .LVU644
	xorl	%edx, %edx
	jmp	.L165
.LVL234:
	.p2align 4,,10
	.p2align 3
.L188:
.LBB221:
	.loc 1 295 11 view .LVU645
	movl	$1, %edx
	.loc 1 297 11 is_stmt 1 view .LVU646
	jmp	.L209
.LVL235:
.L180:
	.loc 1 297 11 is_stmt 0 view .LVU647
.LBE221:
.LBE223:
.LBE242:
.LBB243:
.LBB231:
.LBB230:
.LBB229:
	.loc 1 409 17 is_stmt 1 view .LVU648
	.loc 1 409 17 is_stmt 0 view .LVU649
	cmpq	$2147483647, %rdx
	movl	$2147483647, %eax
	cmovbe	%rdx, %rax
	movq	%rax, %r9
	jmp	.L179
.LVL236:
.L213:
	.loc 1 409 17 view .LVU650
.LBE229:
.LBE230:
.LBE231:
.LBE243:
.LBB244:
	.loc 1 465 9 is_stmt 1 view .LVU651
	movl	$5, %edx
	leaq	.LC9(%rip), %rsi
	xorl	%edi, %edi
	call	dcgettext@PLT
.LVL237:
	movq	%rax, %r12
	call	__errno_location@PLT
.LVL238:
	movq	%r12, %rdx
	movl	$1, %edi
	movl	(%rax), %esi
	xorl	%eax, %eax
	call	error@PLT
.LVL239:
.LBE244:
	.cfi_endproc
.LFE143:
	.size	get_line, .-get_line
	.p2align 4
	.type	getseq, @function
getseq:
.LVL240:
.LFB146:
	.loc 1 505 1 view -0
	.cfi_startproc
	.loc 1 506 3 view .LVU653
	.loc 1 505 1 is_stmt 0 view .LVU654
	pushq	%rbp
	.cfi_def_cfa_offset 16
	.cfi_offset 6, -16
	movq	%rdi, %rbp
	pushq	%rbx
	.cfi_def_cfa_offset 24
	.cfi_offset 3, -24
	movq	%rsi, %rbx
	subq	$24, %rsp
	.cfi_def_cfa_offset 48
	.loc 1 506 10 view .LVU655
	movq	(%rsi), %rsi
.LVL241:
	.loc 1 506 24 view .LVU656
	movq	8(%rbx), %rax
	movq	16(%rbx), %rdi
.LVL242:
	.loc 1 506 6 view .LVU657
	cmpq	%rax, %rsi
	je	.L234
.LVL243:
.L217:
	.loc 1 513 3 is_stmt 1 view .LVU658
	.loc 1 513 7 is_stmt 0 view .LVU659
	leaq	(%rdi,%rsi,8), %rsi
	movq	%rbp, %rdi
	call	get_line
.LVL244:
	.loc 1 513 6 view .LVU660
	testb	%al, %al
	je	.L216
	.loc 1 515 7 is_stmt 1 view .LVU661
	addq	$1, (%rbx)
	.loc 1 516 7 view .LVU662
.L216:
	.loc 1 519 1 is_stmt 0 view .LVU663
	addq	$24, %rsp
	.cfi_remember_state
	.cfi_def_cfa_offset 24
	popq	%rbx
	.cfi_def_cfa_offset 16
.LVL245:
	.loc 1 519 1 view .LVU664
	popq	%rbp
	.cfi_def_cfa_offset 8
.LVL246:
	.loc 1 519 1 view .LVU665
	ret
.LVL247:
	.p2align 4,,10
	.p2align 3
.L234:
	.cfi_restore_state
.LBB250:
	.loc 1 508 7 is_stmt 1 view .LVU666
.LBB251:
.LBI251:
	.loc 3 174 1 view .LVU667
.LBB252:
	.loc 3 176 3 view .LVU668
	.loc 3 178 3 view .LVU669
	.loc 3 178 6 is_stmt 0 view .LVU670
	testq	%rdi, %rdi
	je	.L235
	.loc 3 200 7 is_stmt 1 view .LVU671
	.loc 3 200 10 is_stmt 0 view .LVU672
	movabsq	$768614336404564649, %rcx
	cmpq	%rcx, %rax
	ja	.L223
	.loc 3 203 7 is_stmt 1 view .LVU673
	.loc 3 203 14 is_stmt 0 view .LVU674
	movq	%rax, %rcx
	shrq	%rcx
	.loc 3 203 9 view .LVU675
	leaq	1(%rax,%rcx), %rax
.LVL248:
	.loc 3 203 9 view .LVU676
	leaq	0(,%rax,8), %rsi
.LVL249:
.L219:
	.loc 3 206 7 view .LVU677
	movq	%rax, 8(%rbx)
	movl	%edx, 12(%rsp)
.LVL250:
	.loc 3 206 3 is_stmt 1 view .LVU678
	.loc 3 207 3 view .LVU679
	.loc 3 207 10 is_stmt 0 view .LVU680
	call	xrealloc@PLT
.LVL251:
	.loc 3 207 10 view .LVU681
.LBE252:
.LBE251:
.LBB256:
	.loc 1 509 19 view .LVU682
	movq	(%rbx), %rsi
	.loc 1 509 7 view .LVU683
	movl	12(%rsp), %edx
.LBE256:
	.loc 1 508 18 view .LVU684
	movq	%rax, 16(%rbx)
.LBB257:
.LBB254:
	.loc 3 207 10 view .LVU685
	movq	%rax, %rdi
.LVL252:
	.loc 3 207 10 view .LVU686
.LBE254:
.LBE257:
	.loc 1 509 7 is_stmt 1 view .LVU687
.LBB258:
	.loc 1 509 12 view .LVU688
	.loc 1 509 35 view .LVU689
	.loc 1 509 42 is_stmt 0 view .LVU690
	movq	8(%rbx), %rax
	.loc 1 509 7 view .LVU691
	cmpq	%rax, %rsi
	jnb	.L217
	.loc 1 509 7 view .LVU692
	leaq	(%rdi,%rsi,8), %rcx
	leaq	(%rdi,%rax,8), %rax
.LVL253:
	.p2align 4,,10
	.p2align 3
.L224:
	.loc 1 510 9 is_stmt 1 discriminator 3 view .LVU693
	.loc 1 510 23 is_stmt 0 discriminator 3 view .LVU694
	movq	$0, (%rcx)
	.loc 1 509 51 is_stmt 1 discriminator 3 view .LVU695
	.loc 1 509 35 discriminator 3 view .LVU696
	addq	$8, %rcx
	.loc 1 509 7 is_stmt 0 discriminator 3 view .LVU697
	cmpq	%rcx, %rax
	jne	.L224
	jmp	.L217
.LVL254:
	.p2align 4,,10
	.p2align 3
.L235:
	.loc 1 509 7 discriminator 3 view .LVU698
.LBE258:
.LBB259:
.LBB255:
	.loc 3 180 7 is_stmt 1 view .LVU699
	.loc 3 180 10 is_stmt 0 view .LVU700
	testq	%rax, %rax
	je	.L226
	.loc 3 191 7 is_stmt 1 view .LVU701
	.loc 3 191 11 is_stmt 0 view .LVU702
	movq	%rax, %rcx
	movq	%rax, %rsi
	shrq	$61, %rcx
	setne	%cl
	salq	$3, %rsi
	movzbl	%cl, %ecx
	js	.L223
	.loc 3 191 10 view .LVU703
	testq	%rcx, %rcx
	je	.L219
.L223:
	.loc 3 192 9 is_stmt 1 view .LVU704
	call	xalloc_die@PLT
.LVL255:
	.p2align 4,,10
	.p2align 3
.L226:
	.loc 3 192 9 is_stmt 0 view .LVU705
	movl	$128, %esi
.LBB253:
	.loc 3 189 13 view .LVU706
	movl	$16, %eax
.LVL256:
	.loc 3 189 13 view .LVU707
	jmp	.L219
.LBE253:
.LBE255:
.LBE259:
.LBE250:
	.cfi_endproc
.LFE146:
	.size	getseq, .-getseq
	.section	.rodata.str1.1
.LC11:
	.string	"join"
.LC12:
	.string	" invocation"
	.section	.rodata.str1.8
	.align 8
.LC13:
	.string	"Try '%s --help' for more information.\n"
	.align 8
.LC14:
	.string	"Usage: %s [OPTION]... FILE1 FILE2\n"
	.align 8
.LC15:
	.string	"For each pair of input lines with identical join fields, write a line to\nstandard output.  The default join field is the first, delimited by blanks.\n"
	.align 8
.LC16:
	.string	"\nWhen FILE1 or FILE2 (not both) is -, read standard input.\n"
	.align 8
.LC17:
	.string	"\n  -a FILENUM        also print unpairable lines from file FILENUM, where\n                      FILENUM is 1 or 2, corresponding to FILE1 or FILE2\n  -e EMPTY          replace missing input fields with EMPTY\n"
	.align 8
.LC18:
	.string	"  -i, --ignore-case  ignore differences in case when comparing fields\n  -j FIELD          equivalent to '-1 FIELD -2 FIELD'\n  -o FORMAT         obey FORMAT while constructing output line\n  -t CHAR           use CHAR as input and output field separator\n"
	.align 8
.LC19:
	.ascii	"  -v FILENUM        like -a FILENUM, but suppress joined out"
	.ascii	"put lines\n  -1 FIELD          join on this FIELD of file 1\n"
	.ascii	"  -2 FIELD          join on this FIELD of file 2\n  --check-"
	.ascii	"order     check that the input is correctly sorted, even"
	.string	"\n                      if all input lines are pairable\n  --nocheck-order   do not check that the input is correctly sorted\n  --header          treat the first line in each file as field headers,\n                      print them without trying to pair them\n"
	.align 8
.LC20:
	.string	"  -z, --zero-terminated     line delimiter is NUL, not newline\n"
	.align 8
.LC21:
	.string	"      --help     display this help and exit\n"
	.align 8
.LC22:
	.string	"      --version  output version information and exit\n"
	.align 8
.LC23:
	.ascii	"\nUnless -t CHAR is given, leading blanks separate fields an"
	.ascii	"d are ignored,\nelse fields are separated by CHAR.  Any FIEL"
	.ascii	"D is a field number counted\nfrom 1.  FORMAT is one or more "
	.ascii	"comma or blank separated specifications,\neach being 'FILENU"
	.ascii	"M.FIELD' or '0'.  Default FORMAT outputs the join field,\nth"
	.ascii	"e remaining fields from FILE1, the remaining fields from FIL"
	.ascii	"E2, all\nseparated by CHAR.  If FORMAT is the keyword 'auto'"
	.ascii	", then the first\nline of each file determines the number of"
	.ascii	" fields output for each line.\n\nImportant: FILE1 and FILE2 "
	.ascii	"must be sorted on the join fie"
	.string	"lds.\nE.g., use \"sort -k 1b,1\" if 'join' has no options,\nor use \"join -t ''\" if 'sort' has no options.\nNote, comparisons honor the rules specified by 'LC_COLLATE'.\nIf the input is not sorted and some lines cannot be joined, a\nwarning message will be given.\n"
	.section	.rodata.str1.1
.LC24:
	.string	"["
.LC25:
	.string	"test invocation"
.LC26:
	.string	"coreutils"
.LC27:
	.string	"Multi-call invocation"
.LC28:
	.string	"sha224sum"
.LC29:
	.string	"sha2 utilities"
.LC30:
	.string	"sha256sum"
.LC31:
	.string	"sha384sum"
.LC32:
	.string	"sha512sum"
.LC33:
	.string	"\n%s online help: <%s>\n"
	.section	.rodata.str1.8
	.align 8
.LC34:
	.string	"https://www.gnu.org/software/coreutils/"
	.section	.rodata.str1.1
.LC35:
	.string	"GNU coreutils"
.LC36:
	.string	"en_"
	.section	.rodata.str1.8
	.align 8
.LC37:
	.string	"Report any translation bugs to <https://translationproject.org/team/>\n"
	.section	.rodata.str1.1
.LC38:
	.string	"Full documentation <%s%s>\n"
	.section	.rodata.str1.8
	.align 8
.LC39:
	.string	"or available locally via: info '(coreutils) %s%s'\n"
	.text
	.p2align 4
	.globl	usage
	.type	usage, @function
usage:
.LVL257:
.LFB135:
	.loc 1 187 1 is_stmt 1 view -0
	.cfi_startproc
	.loc 1 187 1 is_stmt 0 view .LVU709
	endbr64
	pushq	%r13
	.cfi_def_cfa_offset 16
	.cfi_offset 13, -16
	.loc 1 189 5 view .LVU710
	movl	$5, %edx
	.loc 1 187 1 view .LVU711
	pushq	%r12
	.cfi_def_cfa_offset 24
	.cfi_offset 12, -24
	pushq	%rbp
	.cfi_def_cfa_offset 32
	.cfi_offset 6, -32
	movl	%edi, %ebp
	pushq	%rbx
	.cfi_def_cfa_offset 40
	.cfi_offset 3, -40
	subq	$136, %rsp
	.cfi_def_cfa_offset 176
	movq	program_name(%rip), %r12
	.loc 1 187 1 view .LVU712
	movq	%fs:40, %rax
	movq	%rax, 120(%rsp)
	xorl	%eax, %eax
	.loc 1 188 3 is_stmt 1 view .LVU713
	.loc 1 188 6 is_stmt 0 view .LVU714
	testl	%edi, %edi
	je	.L237
	.loc 1 189 5 is_stmt 1 view .LVU715
	.loc 1 189 5 view .LVU716
	leaq	.LC13(%rip), %rsi
	xorl	%edi, %edi
.LVL258:
	.loc 1 189 5 is_stmt 0 view .LVU717
	call	dcgettext@PLT
.LVL259:
.LBB272:
.LBB273:
	.file 5 "/usr/include/x86_64-linux-gnu/bits/stdio2.h"
	.loc 5 100 10 view .LVU718
	movq	stderr(%rip), %rdi
	movq	%r12, %rcx
	movl	$1, %esi
.LBE273:
.LBE272:
	.loc 1 189 5 view .LVU719
	movq	%rax, %rdx
.LVL260:
.LBB275:
.LBI272:
	.loc 5 98 1 is_stmt 1 view .LVU720
.LBB274:
	.loc 5 100 3 view .LVU721
	.loc 5 100 10 is_stmt 0 view .LVU722
	xorl	%eax, %eax
.LVL261:
	.loc 5 100 10 view .LVU723
	call	__fprintf_chk@PLT
.LVL262:
.L238:
	.loc 5 100 10 view .LVU724
.LBE274:
.LBE275:
	.loc 1 251 3 is_stmt 1 view .LVU725
	movl	%ebp, %edi
	call	exit@PLT
.LVL263:
.L237:
	.loc 1 192 7 view .LVU726
	.loc 1 192 15 is_stmt 0 view .LVU727
	leaq	.LC14(%rip), %rsi
	xorl	%edi, %edi
.LVL264:
.LBB276:
.LBB277:
	.loc 4 636 67 view .LVU728
	leaq	.LC30(%rip), %rbx
.LBE277:
.LBE276:
	.loc 1 192 15 view .LVU729
	call	dcgettext@PLT
.LVL265:
.LBB303:
.LBB304:
	.loc 5 107 10 view .LVU730
	movq	%r12, %rdx
	movl	$1, %edi
.LBE304:
.LBE303:
	.loc 1 192 15 view .LVU731
	movq	%rax, %rsi
.LVL266:
.LBB306:
.LBI303:
	.loc 5 105 1 is_stmt 1 view .LVU732
.LBB305:
	.loc 5 107 3 view .LVU733
	.loc 5 107 10 is_stmt 0 view .LVU734
	xorl	%eax, %eax
.LVL267:
	.loc 5 107 10 view .LVU735
	call	__printf_chk@PLT
.LVL268:
	.loc 5 107 10 view .LVU736
.LBE305:
.LBE306:
	.loc 1 196 7 is_stmt 1 view .LVU737
	movq	stdout(%rip), %r12
	movl	$5, %edx
	xorl	%edi, %edi
	leaq	.LC15(%rip), %rsi
	call	dcgettext@PLT
.LVL269:
	movq	%r12, %rsi
	movq	%rax, %rdi
	call	fputs_unlocked@PLT
.LVL270:
	.loc 1 201 7 view .LVU738
	movq	stdout(%rip), %r12
	movl	$5, %edx
	xorl	%edi, %edi
	leaq	.LC16(%rip), %rsi
	call	dcgettext@PLT
.LVL271:
	movq	%r12, %rsi
	movq	%rax, %rdi
	call	fputs_unlocked@PLT
.LVL272:
	.loc 1 205 7 view .LVU739
	movq	stdout(%rip), %r12
	movl	$5, %edx
	xorl	%edi, %edi
	leaq	.LC17(%rip), %rsi
	call	dcgettext@PLT
.LVL273:
	movq	%r12, %rsi
	movq	%rax, %rdi
	call	fputs_unlocked@PLT
.LVL274:
	.loc 1 211 7 view .LVU740
	movq	stdout(%rip), %r12
	movl	$5, %edx
	xorl	%edi, %edi
	leaq	.LC18(%rip), %rsi
	call	dcgettext@PLT
.LVL275:
	movq	%r12, %rsi
	movq	%rax, %rdi
	call	fputs_unlocked@PLT
.LVL276:
	.loc 1 217 7 view .LVU741
	movq	stdout(%rip), %r12
	movl	$5, %edx
	xorl	%edi, %edi
	leaq	.LC19(%rip), %rsi
	call	dcgettext@PLT
.LVL277:
	movq	%r12, %rsi
	movq	%rax, %rdi
	call	fputs_unlocked@PLT
.LVL278:
	.loc 1 227 7 view .LVU742
	movq	stdout(%rip), %r12
	movl	$5, %edx
	xorl	%edi, %edi
	leaq	.LC20(%rip), %rsi
	call	dcgettext@PLT
.LVL279:
	movq	%r12, %rsi
	movq	%rax, %rdi
	call	fputs_unlocked@PLT
.LVL280:
	.loc 1 230 7 view .LVU743
	movq	stdout(%rip), %r12
	movl	$5, %edx
	xorl	%edi, %edi
	leaq	.LC21(%rip), %rsi
	call	dcgettext@PLT
.LVL281:
	movq	%r12, %rsi
	movq	%rax, %rdi
	call	fputs_unlocked@PLT
.LVL282:
	.loc 1 231 7 view .LVU744
	movq	stdout(%rip), %r12
	movl	$5, %edx
	xorl	%edi, %edi
	leaq	.LC22(%rip), %rsi
	call	dcgettext@PLT
.LVL283:
	movq	%r12, %rsi
	movq	%rax, %rdi
	call	fputs_unlocked@PLT
.LVL284:
	.loc 1 232 7 view .LVU745
	movq	stdout(%rip), %r12
	movl	$5, %edx
	xorl	%edi, %edi
	leaq	.LC23(%rip), %rsi
	call	dcgettext@PLT
.LVL285:
	movq	%r12, %rsi
	movq	%rax, %rdi
	call	fputs_unlocked@PLT
.LVL286:
	.loc 1 249 7 view .LVU746
.LBB307:
.LBI276:
	.loc 4 634 1 view .LVU747
.LBB302:
	.loc 4 636 3 view .LVU748
	.loc 4 636 67 is_stmt 0 view .LVU749
	leaq	.LC24(%rip), %rax
	movq	%rbx, 48(%rsp)
	leaq	.LC31(%rip), %rbx
	movq	%rax, (%rsp)
	leaq	.LC25(%rip), %rax
	movq	%rax, 8(%rsp)
	leaq	.LC26(%rip), %rax
	movq	%rax, 16(%rsp)
	leaq	.LC27(%rip), %rax
	movq	%rax, 24(%rsp)
	leaq	.LC28(%rip), %rax
	movq	$0, 96(%rsp)
	movq	$0, 104(%rsp)
	.loc 4 646 3 is_stmt 1 view .LVU750
.LVL287:
	.loc 4 647 3 view .LVU751
	.loc 4 649 3 view .LVU752
	.loc 4 649 9 view .LVU753
	.loc 4 636 67 is_stmt 0 view .LVU754
	movq	%rax, 32(%rsp)
	leaq	.LC29(%rip), %rax
	movq	%rbx, 64(%rsp)
	leaq	.LC32(%rip), %rbx
	movq	%rax, 40(%rsp)
	movq	%rax, 56(%rsp)
	movq	%rax, 72(%rsp)
	movq	%rbx, 80(%rsp)
	leaq	.LC11(%rip), %rbx
	movq	%rax, 88(%rsp)
	.loc 4 647 25 view .LVU755
	movq	%rsp, %rax
.LVL288:
	.p2align 4,,10
	.p2align 3
.L240:
	.loc 4 650 5 is_stmt 1 view .LVU756
	.loc 4 649 18 is_stmt 0 view .LVU757
	movq	16(%rax), %rdi
	.loc 4 650 13 view .LVU758
	addq	$16, %rax
.LVL289:
	.loc 4 649 9 is_stmt 1 view .LVU759
	testq	%rdi, %rdi
	je	.L239
	.loc 4 649 33 is_stmt 0 view .LVU760
	movl	$5, %ecx
	movq	%rbx, %rsi
	repz cmpsb
	seta	%dl
	sbbb	$0, %dl
	.loc 4 649 28 view .LVU761
	testb	%dl, %dl
	jne	.L240
.L239:
	.loc 4 652 3 is_stmt 1 view .LVU762
	.loc 4 652 15 is_stmt 0 view .LVU763
	movq	8(%rax), %r12
	.loc 4 655 11 view .LVU764
	movl	$5, %edx
	leaq	.LC33(%rip), %rsi
	xorl	%edi, %edi
	.loc 4 652 6 view .LVU765
	testq	%r12, %r12
	je	.L241
	.loc 4 653 5 is_stmt 1 view .LVU766
.LVL290:
	.loc 4 655 3 view .LVU767
	.loc 4 655 11 is_stmt 0 view .LVU768
	call	dcgettext@PLT
.LVL291:
.LBB278:
.LBB279:
	.loc 5 107 10 view .LVU769
	leaq	.LC34(%rip), %rcx
	movl	$1, %edi
	leaq	.LC35(%rip), %rdx
.LBE279:
.LBE278:
	.loc 4 655 11 view .LVU770
	movq	%rax, %rsi
.LVL292:
.LBB283:
.LBI278:
	.loc 5 105 1 is_stmt 1 view .LVU771
.LBB280:
	.loc 5 107 3 view .LVU772
	.loc 5 107 10 is_stmt 0 view .LVU773
	xorl	%eax, %eax
.LVL293:
	.loc 5 107 10 view .LVU774
	call	__printf_chk@PLT
.LVL294:
	.loc 5 107 10 view .LVU775
.LBE280:
.LBE283:
	.loc 4 659 3 is_stmt 1 view .LVU776
	.loc 4 659 29 is_stmt 0 view .LVU777
	movl	$5, %edi
	xorl	%esi, %esi
	call	setlocale@PLT
.LVL295:
	movq	%rax, %rdi
.LVL296:
	.loc 4 660 3 is_stmt 1 view .LVU778
	.loc 4 660 6 is_stmt 0 view .LVU779
	testq	%rax, %rax
	je	.L242
	.loc 4 660 22 view .LVU780
	movl	$3, %edx
	leaq	.LC36(%rip), %rsi
	call	strncmp@PLT
.LVL297:
	.loc 4 660 19 view .LVU781
	testl	%eax, %eax
	jne	.L245
.LVL298:
.L242:
	.loc 4 669 3 is_stmt 1 view .LVU782
	.loc 4 669 11 is_stmt 0 view .LVU783
	xorl	%edi, %edi
	movl	$5, %edx
	leaq	.LC38(%rip), %rsi
	call	dcgettext@PLT
.LVL299:
.LBB284:
.LBB285:
	.loc 5 107 10 view .LVU784
	leaq	.LC11(%rip), %rcx
	leaq	.LC34(%rip), %rdx
	movl	$1, %edi
.LBE285:
.LBE284:
	.loc 4 669 11 view .LVU785
	movq	%rax, %rsi
.LVL300:
.LBB291:
.LBI284:
	.loc 5 105 1 is_stmt 1 view .LVU786
.LBB286:
	.loc 5 107 3 view .LVU787
	.loc 5 107 10 is_stmt 0 view .LVU788
	xorl	%eax, %eax
.LVL301:
	.loc 5 107 10 view .LVU789
.LBE286:
.LBE291:
	.loc 4 671 3 view .LVU790
	leaq	.LC12(%rip), %r13
.LBB292:
.LBB287:
	.loc 5 107 10 view .LVU791
	call	__printf_chk@PLT
.LVL302:
	.loc 5 107 10 view .LVU792
.LBE287:
.LBE292:
	.loc 4 671 3 is_stmt 1 view .LVU793
	cmpq	%rbx, %r12
	leaq	.LC1(%rip), %rcx
	cmovne	%rcx, %r13
.L243:
	.loc 4 671 11 is_stmt 0 view .LVU794
	xorl	%edi, %edi
	leaq	.LC39(%rip), %rsi
	movl	$5, %edx
	call	dcgettext@PLT
.LVL303:
.LBB293:
.LBB294:
	.loc 5 107 10 view .LVU795
	movq	%r13, %rcx
	movq	%r12, %rdx
	movl	$1, %edi
.LBE294:
.LBE293:
	.loc 4 671 11 view .LVU796
	movq	%rax, %rsi
.LVL304:
.LBB296:
.LBI293:
	.loc 5 105 1 is_stmt 1 view .LVU797
.LBB295:
	.loc 5 107 3 view .LVU798
	.loc 5 107 10 is_stmt 0 view .LVU799
	xorl	%eax, %eax
.LVL305:
	.loc 5 107 10 view .LVU800
	call	__printf_chk@PLT
.LVL306:
	.loc 5 107 10 view .LVU801
.LBE295:
.LBE296:
	.loc 4 673 1 view .LVU802
	jmp	.L238
.LVL307:
.L241:
	.loc 4 655 3 is_stmt 1 view .LVU803
	.loc 4 655 11 is_stmt 0 view .LVU804
	call	dcgettext@PLT
.LVL308:
.LBB297:
.LBB281:
	.loc 5 107 10 view .LVU805
	leaq	.LC34(%rip), %rcx
	movl	$1, %edi
	leaq	.LC35(%rip), %rdx
.LBE281:
.LBE297:
	.loc 4 655 11 view .LVU806
	movq	%rax, %rsi
.LVL309:
.LBB298:
	.loc 5 105 1 is_stmt 1 view .LVU807
.LBB282:
	.loc 5 107 3 view .LVU808
	.loc 5 107 10 is_stmt 0 view .LVU809
	xorl	%eax, %eax
.LVL310:
	.loc 5 107 10 view .LVU810
	call	__printf_chk@PLT
.LVL311:
	.loc 5 107 10 view .LVU811
.LBE282:
.LBE298:
	.loc 4 659 3 is_stmt 1 view .LVU812
	.loc 4 659 29 is_stmt 0 view .LVU813
	movl	$5, %edi
	xorl	%esi, %esi
	call	setlocale@PLT
.LVL312:
	movq	%rax, %rdi
.LVL313:
	.loc 4 660 3 is_stmt 1 view .LVU814
	.loc 4 660 6 is_stmt 0 view .LVU815
	testq	%rax, %rax
	je	.L244
	.loc 4 660 22 view .LVU816
	movl	$3, %edx
	leaq	.LC36(%rip), %rsi
	call	strncmp@PLT
.LVL314:
	.loc 4 660 19 view .LVU817
	testl	%eax, %eax
	jne	.L263
.L244:
	.loc 4 669 3 is_stmt 1 view .LVU818
	.loc 4 669 11 is_stmt 0 view .LVU819
	movl	$5, %edx
	leaq	.LC38(%rip), %rsi
	xorl	%edi, %edi
	call	dcgettext@PLT
.LVL315:
.LBB299:
.LBB288:
	.loc 5 107 10 view .LVU820
	leaq	.LC11(%rip), %rcx
	leaq	.LC34(%rip), %rdx
	movl	$1, %edi
.LBE288:
.LBE299:
	.loc 4 669 11 view .LVU821
	movq	%rax, %rsi
.LVL316:
.LBB300:
	.loc 5 105 1 is_stmt 1 view .LVU822
.LBB289:
	.loc 5 107 3 view .LVU823
	.loc 5 107 10 is_stmt 0 view .LVU824
	xorl	%eax, %eax
.LVL317:
	.loc 5 107 10 view .LVU825
.LBE289:
.LBE300:
	.loc 4 646 15 view .LVU826
	leaq	.LC11(%rip), %r12
.LBB301:
.LBB290:
	.loc 5 107 10 view .LVU827
	call	__printf_chk@PLT
.LVL318:
	.loc 5 107 10 view .LVU828
.LBE290:
.LBE301:
	.loc 4 671 3 is_stmt 1 view .LVU829
	leaq	.LC12(%rip), %r13
	jmp	.L243
.L263:
	.loc 4 646 15 is_stmt 0 view .LVU830
	leaq	.LC11(%rip), %r12
.LVL319:
.L245:
	.loc 4 666 7 is_stmt 1 view .LVU831
	movq	stdout(%rip), %r13
	xorl	%edi, %edi
	movl	$5, %edx
	leaq	.LC37(%rip), %rsi
	call	dcgettext@PLT
.LVL320:
	movq	%rax, %rdi
	movq	%r13, %rsi
	call	fputs_unlocked@PLT
.LVL321:
	jmp	.L242
.LBE302:
.LBE307:
	.cfi_endproc
.LFE135:
	.size	usage, .-usage
	.section	.rodata.str1.1
.LC40:
	.string	"extra operand %s"
	.text
	.p2align 4
	.type	add_file_name.constprop.0, @function
add_file_name.constprop.0:
.LVL322:
.LFB168:
	.loc 1 956 1 view -0
	.cfi_startproc
	.loc 1 960 3 view .LVU833
	.loc 1 956 1 is_stmt 0 view .LVU834
	pushq	%r15
	.cfi_def_cfa_offset 16
	.cfi_offset 15, -16
	pushq	%r14
	.cfi_def_cfa_offset 24
	.cfi_offset 14, -24
	movq	%rdi, %r14
	pushq	%r13
	.cfi_def_cfa_offset 32
	.cfi_offset 13, -32
	pushq	%r12
	.cfi_def_cfa_offset 40
	.cfi_offset 12, -40
	movq	%r8, %r12
	pushq	%rbp
	.cfi_def_cfa_offset 48
	.cfi_offset 6, -48
	movq	%rcx, %rbp
	pushq	%rbx
	.cfi_def_cfa_offset 56
	.cfi_offset 3, -56
	movq	%rsi, %rbx
	subq	$24, %rsp
	.cfi_def_cfa_offset 80
	.loc 1 960 7 view .LVU835
	movl	(%rcx), %r13d
.LVL323:
	.loc 1 962 3 is_stmt 1 view .LVU836
	.loc 1 962 6 is_stmt 0 view .LVU837
	cmpl	$2, %r13d
	je	.L265
	movslq	%r13d, %rax
	leaq	g_names(%rip), %r15
	addl	$1, %r13d
.LVL324:
	.loc 1 962 6 view .LVU838
	leaq	0(,%rax,4), %rcx
.LVL325:
	.loc 1 962 6 view .LVU839
	salq	$3, %rax
.LVL326:
.L266:
	.loc 1 994 3 is_stmt 1 view .LVU840
	.loc 1 994 23 is_stmt 0 view .LVU841
	movl	(%r12), %edx
	.loc 1 994 21 view .LVU842
	movl	%edx, (%rbx,%rcx)
	.loc 1 995 3 is_stmt 1 view .LVU843
	.loc 1 995 12 is_stmt 0 view .LVU844
	movq	%r14, (%r15,%rax)
	.loc 1 996 3 is_stmt 1 view .LVU845
	.loc 1 996 11 is_stmt 0 view .LVU846
	movl	%r13d, 0(%rbp)
	.loc 1 997 3 is_stmt 1 view .LVU847
	.loc 1 997 6 is_stmt 0 view .LVU848
	cmpl	$3, (%r12)
	jne	.L264
	.loc 1 998 5 is_stmt 1 view .LVU849
	.loc 1 998 18 is_stmt 0 view .LVU850
	movl	$3, (%r9)
.L264:
	.loc 1 999 1 view .LVU851
	addq	$24, %rsp
	.cfi_remember_state
	.cfi_def_cfa_offset 56
	popq	%rbx
	.cfi_def_cfa_offset 48
.LVL327:
	.loc 1 999 1 view .LVU852
	popq	%rbp
	.cfi_def_cfa_offset 40
.LVL328:
	.loc 1 999 1 view .LVU853
	popq	%r12
	.cfi_def_cfa_offset 32
.LVL329:
	.loc 1 999 1 view .LVU854
	popq	%r13
	.cfi_def_cfa_offset 24
	popq	%r14
	.cfi_def_cfa_offset 16
.LVL330:
	.loc 1 999 1 view .LVU855
	popq	%r15
	.cfi_def_cfa_offset 8
.LVL331:
	.loc 1 999 1 view .LVU856
	ret
.LVL332:
	.p2align 4,,10
	.p2align 3
.L265:
	.cfi_restore_state
.LBB308:
	.loc 1 964 7 is_stmt 1 view .LVU857
	.loc 1 964 33 is_stmt 0 view .LVU858
	movl	(%rsi), %ecx
.LVL333:
	.loc 1 965 7 is_stmt 1 view .LVU859
	.loc 1 964 12 is_stmt 0 view .LVU860
	xorl	%eax, %eax
	.loc 1 965 13 view .LVU861
	leaq	g_names(%rip), %r15
	.loc 1 964 12 view .LVU862
	testl	%ecx, %ecx
	sete	%al
	.loc 1 965 13 view .LVU863
	movq	(%r15,%rax,8), %rdi
.LVL334:
	.loc 1 966 7 is_stmt 1 view .LVU864
	.loc 1 966 29 is_stmt 0 view .LVU865
	movl	(%rsi,%rax,4), %eax
	.loc 1 966 7 view .LVU866
	cmpl	$2, %eax
	je	.L267
	jg	.L268
	testl	%eax, %eax
	je	.L269
	cmpl	$1, %eax
	jne	.L271
	.loc 1 973 27 view .LVU867
	subl	$1, (%rdx)
	movq	%r9, 8(%rsp)
	movl	%ecx, 4(%rsp)
	.loc 1 973 11 is_stmt 1 view .LVU868
	.loc 1 974 11 view .LVU869
	call	string_to_join_field
.LVL335:
	.loc 1 974 11 is_stmt 0 view .LVU870
	leaq	join_field_1(%rip), %rdi
	movq	%rax, %rsi
	call	set_join_field
.LVL336:
	.loc 1 975 11 is_stmt 1 view .LVU871
	movl	4(%rsp), %ecx
	movq	8(%rsp), %r9
.LVL337:
	.p2align 4,,10
	.p2align 3
.L271:
	.loc 1 986 7 view .LVU872
	.loc 1 986 10 is_stmt 0 view .LVU873
	testl	%ecx, %ecx
	je	.L274
	.loc 1 988 11 is_stmt 1 view .LVU874
	.loc 1 988 29 is_stmt 0 view .LVU875
	movl	4(%rbx), %eax
	.loc 1 989 20 view .LVU876
	movl	$4, %ecx
	.loc 1 988 29 view .LVU877
	movl	%eax, (%rbx)
	.loc 1 989 11 is_stmt 1 view .LVU878
	.loc 1 989 20 is_stmt 0 view .LVU879
	movq	8+g_names(%rip), %rax
	movq	%rax, g_names(%rip)
	movl	$8, %eax
	jmp	.L266
.LVL338:
	.p2align 4,,10
	.p2align 3
.L268:
	.loc 1 966 7 view .LVU880
	cmpl	$3, %eax
	jne	.L271
	movq	%r9, 8(%rsp)
	movl	%ecx, 4(%rsp)
	.loc 1 983 11 is_stmt 1 view .LVU881
	call	add_field_list
.LVL339:
	.loc 1 983 11 is_stmt 0 view .LVU882
	movq	8(%rsp), %r9
	movl	4(%rsp), %ecx
	.loc 1 984 11 is_stmt 1 view .LVU883
	jmp	.L271
.LVL340:
	.p2align 4,,10
	.p2align 3
.L274:
	.loc 1 984 11 is_stmt 0 view .LVU884
	movl	$8, %eax
	movl	$4, %ecx
	jmp	.L266
.LVL341:
	.p2align 4,,10
	.p2align 3
.L267:
	.loc 1 978 27 view .LVU885
	subl	$1, 4(%rdx)
	movq	%r9, 8(%rsp)
	movl	%ecx, 4(%rsp)
	.loc 1 978 11 is_stmt 1 view .LVU886
	.loc 1 979 11 view .LVU887
	call	string_to_join_field
.LVL342:
	.loc 1 979 11 is_stmt 0 view .LVU888
	leaq	join_field_2(%rip), %rdi
	movq	%rax, %rsi
	call	set_join_field
.LVL343:
	.loc 1 980 11 is_stmt 1 view .LVU889
	movl	4(%rsp), %ecx
	movq	8(%rsp), %r9
	jmp	.L271
.LVL344:
.L269:
	.loc 1 969 11 view .LVU890
	movq	%r14, %rsi
	movl	$4, %edi
.LVL345:
	.loc 1 969 11 is_stmt 0 view .LVU891
	call	quotearg_style@PLT
.LVL346:
	.loc 1 969 24 view .LVU892
	movl	$5, %edx
	leaq	.LC40(%rip), %rsi
	xorl	%edi, %edi
	.loc 1 969 11 view .LVU893
	movq	%rax, %r12
.LVL347:
	.loc 1 969 24 view .LVU894
	call	dcgettext@PLT
.LVL348:
	.loc 1 969 11 view .LVU895
	xorl	%edi, %edi
	movq	%r12, %rcx
	xorl	%esi, %esi
	.loc 1 969 24 view .LVU896
	movq	%rax, %rdx
	.loc 1 969 11 view .LVU897
	xorl	%eax, %eax
	call	error@PLT
.LVL349:
	.loc 1 970 11 is_stmt 1 view .LVU898
	movl	$1, %edi
	call	usage
.LVL350:
.LBE308:
	.cfi_endproc
.LFE168:
	.size	add_file_name.constprop.0, .-add_file_name.constprop.0
	.section	.rodata.str1.1
.LC41:
	.string	"/usr/local/share/locale"
	.section	.rodata.str1.8
	.align 8
.LC42:
	.string	"conflicting empty-field replacement strings"
	.section	.rodata.str1.1
.LC43:
	.string	"auto"
.LC44:
	.string	"\\0"
.LC45:
	.string	"multi-character tab %s"
.LC46:
	.string	"incompatible tabs"
.LC47:
	.string	"Mike Haertel"
.LC48:
	.string	"-a:e:i1:2:j:o:t:v:z"
.LC49:
	.string	"missing operand"
.LC50:
	.string	"missing operand after %s"
.LC51:
	.string	"-"
.LC52:
	.string	"r"
.LC53:
	.string	"%s"
	.section	.rodata.str1.8
	.align 8
.LC54:
	.string	"both files cannot be standard input"
	.section	.rodata.str1.1
.LC55:
	.string	"input is not in sorted order"
	.section	.text.startup,"ax",@progbits
	.p2align 4
	.globl	main
	.type	main, @function
main:
.LVL351:
.LFB159:
	.loc 1 1003 1 view -0
	.cfi_startproc
	.loc 1 1003 1 is_stmt 0 view .LVU900
	endbr64
	pushq	%r15
	.cfi_def_cfa_offset 16
	.cfi_offset 15, -16
	pushq	%r14
	.cfi_def_cfa_offset 24
	.cfi_offset 14, -24
	pushq	%r13
	.cfi_def_cfa_offset 32
	.cfi_offset 13, -32
	pushq	%r12
	.cfi_def_cfa_offset 40
	.cfi_offset 12, -40
	movslq	%edi, %r12
	pushq	%rbp
	.cfi_def_cfa_offset 48
	.cfi_offset 6, -48
	movq	%rsi, %rbp
	pushq	%rbx
	.cfi_def_cfa_offset 56
	.cfi_offset 3, -56
	leaq	.L284(%rip), %rbx
	subq	$136, %rsp
	.cfi_def_cfa_offset 192
	.loc 1 1014 3 view .LVU901
	movq	(%rsi), %rdi
.LVL352:
	.loc 1 1003 1 view .LVU902
	movq	%fs:40, %rax
	movq	%rax, 120(%rsp)
	xorl	%eax, %eax
	.loc 1 1004 3 is_stmt 1 view .LVU903
	.loc 1 1005 3 view .LVU904
	.loc 1 1005 7 is_stmt 0 view .LVU905
	movl	$0, 32(%rsp)
	.loc 1 1006 3 is_stmt 1 view .LVU906
	.loc 1 1007 3 view .LVU907
.LBB347:
	.loc 1 1043 17 is_stmt 0 view .LVU908
	leaq	80(%rsp), %r13
.LBE347:
	.loc 1 1007 7 view .LVU909
	movq	$0, 112(%rsp)
	.loc 1 1008 3 is_stmt 1 view .LVU910
	.loc 1 1009 3 view .LVU911
	.loc 1 1010 3 view .LVU912
	.loc 1 1010 7 is_stmt 0 view .LVU913
	movl	$0, 36(%rsp)
	.loc 1 1011 3 is_stmt 1 view .LVU914
	.loc 1 1013 33 view .LVU915
	.loc 1 1014 3 view .LVU916
	call	set_program_name@PLT
.LVL353:
	.loc 1 1015 3 view .LVU917
	leaq	.LC1(%rip), %rsi
	movl	$6, %edi
	call	setlocale@PLT
.LVL354:
	.loc 1 1016 3 view .LVU918
	leaq	.LC41(%rip), %rsi
	leaq	.LC26(%rip), %rdi
	call	bindtextdomain@PLT
.LVL355:
	.loc 1 1017 3 view .LVU919
	leaq	.LC26(%rip), %rdi
	call	textdomain@PLT
.LVL356:
	.loc 1 1018 3 view .LVU920
	.loc 1 1018 21 is_stmt 0 view .LVU921
	movl	$3, %edi
	call	hard_locale@PLT
.LVL357:
	.loc 1 1020 3 view .LVU922
	movq	close_stdout@GOTPCREL(%rip), %rdi
	.loc 1 1018 19 view .LVU923
	movb	%al, hard_LC_COLLATE(%rip)
	.loc 1 1020 3 is_stmt 1 view .LVU924
	call	atexit@PLT
.LVL358:
	.loc 1 1021 3 view .LVU925
	leaq	free_spareline(%rip), %rdi
	call	atexit@PLT
.LVL359:
	.loc 1 1023 3 view .LVU926
	.loc 1 1025 30 is_stmt 0 view .LVU927
	xorl	%eax, %eax
	.loc 1 1023 19 view .LVU928
	movb	$1, print_pairables(%rip)
	.loc 1 1024 3 is_stmt 1 view .LVU929
	.loc 1 1024 19 is_stmt 0 view .LVU930
	movb	$0, seen_unpairable(%rip)
	.loc 1 1025 3 is_stmt 1 view .LVU931
	.loc 1 1025 30 is_stmt 0 view .LVU932
	movw	%ax, issued_disorder_warning(%rip)
	.loc 1 1026 3 is_stmt 1 view .LVU933
	.loc 1 1026 21 is_stmt 0 view .LVU934
	movl	$0, check_input_order(%rip)
	.loc 1 1028 3 is_stmt 1 view .LVU935
	.p2align 4,,10
	.p2align 3
.L277:
	.loc 1 1028 9 view .LVU936
	.loc 1 1028 18 is_stmt 0 view .LVU937
	xorl	%r8d, %r8d
	leaq	longopts(%rip), %rcx
	movq	%rbp, %rsi
	movl	%r12d, %edi
	leaq	.LC48(%rip), %rdx
	call	getopt_long@PLT
.LVL360:
	.loc 1 1028 9 view .LVU938
	cmpl	$-1, %eax
	je	.L444
	.loc 1 1032 7 is_stmt 1 view .LVU939
	.loc 1 1032 19 is_stmt 0 view .LVU940
	movl	$0, 28(%rsp)
	.loc 1 1034 7 is_stmt 1 view .LVU941
	cmpl	$130, %eax
	jg	.L317
	cmpl	$48, %eax
	jle	.L445
	subl	$49, %eax
.LVL361:
	.loc 1 1034 7 is_stmt 0 view .LVU942
	cmpl	$81, %eax
	ja	.L317
	movslq	(%rbx,%rax,4), %rax
	addq	%rbx, %rax
	notrack jmp	*%rax
	.section	.rodata
	.align 4
	.align 4
.L284:
	.long	.L296-.L284
	.long	.L295-.L284
	.long	.L317-.L284
	.long	.L317-.L284
	.long	.L317-.L284
	.long	.L317-.L284
	.long	.L317-.L284
	.long	.L317-.L284
	.long	.L317-.L284
	.long	.L317-.L284
	.long	.L317-.L284
	.long	.L317-.L284
	.long	.L317-.L284
	.long	.L317-.L284
	.long	.L317-.L284
	.long	.L317-.L284
	.long	.L317-.L284
	.long	.L317-.L284
	.long	.L317-.L284
	.long	.L317-.L284
	.long	.L317-.L284
	.long	.L317-.L284
	.long	.L317-.L284
	.long	.L317-.L284
	.long	.L317-.L284
	.long	.L317-.L284
	.long	.L317-.L284
	.long	.L317-.L284
	.long	.L317-.L284
	.long	.L317-.L284
	.long	.L317-.L284
	.long	.L317-.L284
	.long	.L317-.L284
	.long	.L317-.L284
	.long	.L317-.L284
	.long	.L317-.L284
	.long	.L317-.L284
	.long	.L317-.L284
	.long	.L317-.L284
	.long	.L317-.L284
	.long	.L317-.L284
	.long	.L317-.L284
	.long	.L317-.L284
	.long	.L317-.L284
	.long	.L317-.L284
	.long	.L317-.L284
	.long	.L317-.L284
	.long	.L317-.L284
	.long	.L294-.L284
	.long	.L317-.L284
	.long	.L317-.L284
	.long	.L317-.L284
	.long	.L293-.L284
	.long	.L317-.L284
	.long	.L317-.L284
	.long	.L317-.L284
	.long	.L292-.L284
	.long	.L291-.L284
	.long	.L317-.L284
	.long	.L317-.L284
	.long	.L317-.L284
	.long	.L317-.L284
	.long	.L290-.L284
	.long	.L317-.L284
	.long	.L317-.L284
	.long	.L317-.L284
	.long	.L317-.L284
	.long	.L289-.L284
	.long	.L317-.L284
	.long	.L288-.L284
	.long	.L317-.L284
	.long	.L317-.L284
	.long	.L317-.L284
	.long	.L287-.L284
	.long	.L317-.L284
	.long	.L317-.L284
	.long	.L317-.L284
	.long	.L317-.L284
	.long	.L317-.L284
	.long	.L286-.L284
	.long	.L285-.L284
	.long	.L283-.L284
	.section	.text.startup
.L288:
	.loc 1 1037 13 is_stmt 1 view .LVU943
	.loc 1 1037 29 is_stmt 0 view .LVU944
	movb	$0, print_pairables(%rip)
.L294:
	.loc 1 1038 13 is_stmt 1 view .LVU945
.LBB349:
	.loc 1 1042 13 view .LVU946
	.loc 1 1043 13 view .LVU947
	.loc 1 1043 17 is_stmt 0 view .LVU948
	movq	optarg(%rip), %rdi
	xorl	%esi, %esi
	leaq	.LC1(%rip), %r8
	movq	%r13, %rcx
	movl	$10, %edx
	call	xstrtoul@PLT
.LVL362:
	.loc 1 1043 16 view .LVU949
	testl	%eax, %eax
	jne	.L297
	.loc 1 1044 30 view .LVU950
	movq	80(%rsp), %rax
	leaq	-1(%rax), %rdx
	.loc 1 1044 17 view .LVU951
	cmpq	$1, %rdx
	ja	.L297
	.loc 1 1047 13 is_stmt 1 view .LVU952
	.loc 1 1047 16 is_stmt 0 view .LVU953
	cmpq	$1, %rax
	je	.L446
	.loc 1 1050 15 is_stmt 1 view .LVU954
	.loc 1 1050 35 is_stmt 0 view .LVU955
	movb	$1, print_unpairables_2(%rip)
.LBE349:
	.loc 1 1052 11 is_stmt 1 view .LVU956
.L441:
	movl	28(%rsp), %eax
.L301:
	.loc 1 1147 7 view .LVU957
	.loc 1 1147 24 is_stmt 0 view .LVU958
	movl	%eax, 32(%rsp)
	jmp	.L277
.L295:
	.loc 1 1070 11 is_stmt 1 view .LVU959
	movq	optarg(%rip), %rdi
	call	string_to_join_field
.LVL363:
	leaq	join_field_2(%rip), %rdi
	movq	%rax, %rsi
	call	set_join_field
.LVL364:
	.loc 1 1071 11 view .LVU960
	movl	28(%rsp), %eax
	jmp	.L301
.L296:
	.loc 1 1066 11 view .LVU961
	movq	optarg(%rip), %rdi
	call	string_to_join_field
.LVL365:
	leaq	join_field_1(%rip), %rdi
	movq	%rax, %rsi
	call	set_join_field
.LVL366:
	.loc 1 1067 11 view .LVU962
	movl	28(%rsp), %eax
	jmp	.L301
.L283:
	.loc 1 1136 11 view .LVU963
	.loc 1 1136 29 is_stmt 0 view .LVU964
	movb	$1, join_header_lines(%rip)
	.loc 1 1137 11 is_stmt 1 view .LVU965
	xorl	%eax, %eax
	jmp	.L301
.L285:
	.loc 1 1123 11 view .LVU966
	.loc 1 1123 29 is_stmt 0 view .LVU967
	movl	$2, check_input_order(%rip)
	.loc 1 1124 11 is_stmt 1 view .LVU968
	xorl	%eax, %eax
	jmp	.L301
.L286:
	.loc 1 1127 11 view .LVU969
	.loc 1 1127 29 is_stmt 0 view .LVU970
	movl	$1, check_input_order(%rip)
	.loc 1 1128 11 is_stmt 1 view .LVU971
	xorl	%eax, %eax
	jmp	.L301
.L287:
	.loc 1 1119 11 view .LVU972
	.loc 1 1119 19 is_stmt 0 view .LVU973
	movb	$0, eolchar(%rip)
	.loc 1 1120 11 is_stmt 1 view .LVU974
	xorl	%eax, %eax
	jmp	.L301
.L289:
.LBB350:
	.loc 1 1101 13 view .LVU975
	.loc 1 1101 42 is_stmt 0 view .LVU976
	movq	optarg(%rip), %r15
	.loc 1 1101 27 view .LVU977
	movzbl	(%r15), %eax
.LVL367:
	.loc 1 1102 13 is_stmt 1 view .LVU978
	.loc 1 1102 16 is_stmt 0 view .LVU979
	testb	%al, %al
	jne	.L447
	.loc 1 1103 22 view .LVU980
	movl	$10, %eax
.LVL368:
.L305:
	.loc 1 1112 13 is_stmt 1 view .LVU981
	.loc 1 1112 19 is_stmt 0 view .LVU982
	movl	tab(%rip), %edx
	.loc 1 1112 16 view .LVU983
	testl	%edx, %edx
	js	.L306
	.loc 1 1112 26 discriminator 1 view .LVU984
	cmpl	%eax, %edx
	jne	.L448
.L306:
	.loc 1 1114 13 is_stmt 1 view .LVU985
	.loc 1 1114 17 is_stmt 0 view .LVU986
	movl	%eax, tab(%rip)
.LBE350:
	.loc 1 1116 11 is_stmt 1 view .LVU987
	xorl	%eax, %eax
.LVL369:
	.loc 1 1116 11 is_stmt 0 view .LVU988
	jmp	.L301
.L290:
	.loc 1 1090 11 is_stmt 1 view .LVU989
	.loc 1 1090 15 is_stmt 0 view .LVU990
	movq	optarg(%rip), %r8
	movl	$5, %ecx
	leaq	.LC43(%rip), %rdi
	movq	%r8, %rsi
	repz cmpsb
	seta	%al
	sbbb	$0, %al
	movsbl	%al, %eax
	.loc 1 1090 14 view .LVU991
	testl	%eax, %eax
	jne	.L304
	.loc 1 1091 13 is_stmt 1 view .LVU992
	.loc 1 1091 24 is_stmt 0 view .LVU993
	movb	$1, autoformat(%rip)
	jmp	.L301
.L291:
	.loc 1 1074 11 is_stmt 1 view .LVU994
	.loc 1 1074 22 is_stmt 0 view .LVU995
	movq	optarg(%rip), %rdi
	movzbl	(%rdi), %eax
	.loc 1 1074 33 view .LVU996
	leal	-49(%rax), %edx
	.loc 1 1074 14 view .LVU997
	cmpb	$1, %dl
	ja	.L303
	.loc 1 1074 54 discriminator 1 view .LVU998
	cmpb	$0, 1(%rdi)
	jne	.L303
	.loc 1 1075 32 view .LVU999
	movslq	optind(%rip), %rdx
	.loc 1 1075 45 view .LVU1000
	movq	-8(%rbp,%rdx,8), %rdx
	addq	$2, %rdx
	.loc 1 1075 15 view .LVU1001
	cmpq	%rdx, %rdi
	je	.L449
.L303:
	.loc 1 1084 15 is_stmt 1 view .LVU1002
	call	string_to_join_field
.LVL370:
	leaq	join_field_1(%rip), %rdi
	movq	%rax, %rsi
	call	set_join_field
.LVL371:
	.loc 1 1085 15 view .LVU1003
	movq	join_field_1(%rip), %rsi
	leaq	join_field_2(%rip), %rdi
	call	set_join_field
.LVL372:
	jmp	.L441
.L292:
	.loc 1 1062 11 view .LVU1004
	.loc 1 1062 23 is_stmt 0 view .LVU1005
	movb	$1, ignore_case(%rip)
	.loc 1 1063 11 is_stmt 1 view .LVU1006
	xorl	%eax, %eax
	jmp	.L301
.L293:
	.loc 1 1055 11 view .LVU1007
	.loc 1 1055 15 is_stmt 0 view .LVU1008
	movq	empty_filler(%rip), %rdi
	movq	optarg(%rip), %r15
	.loc 1 1055 14 view .LVU1009
	testq	%rdi, %rdi
	je	.L302
	.loc 1 1055 33 discriminator 1 view .LVU1010
	movq	%r15, %rsi
	call	strcmp@PLT
.LVL373:
	.loc 1 1055 28 discriminator 1 view .LVU1011
	testl	%eax, %eax
	jne	.L450
.L302:
	.loc 1 1058 11 is_stmt 1 view .LVU1012
	.loc 1 1058 24 is_stmt 0 view .LVU1013
	movq	%r15, empty_filler(%rip)
	.loc 1 1059 11 is_stmt 1 view .LVU1014
	xorl	%eax, %eax
	jmp	.L301
.LVL374:
	.p2align 4,,10
	.p2align 3
.L445:
	.loc 1 1034 7 is_stmt 0 view .LVU1015
	cmpl	$-130, %eax
	je	.L280
	cmpl	$1, %eax
	jne	.L451
	.loc 1 1131 11 is_stmt 1 view .LVU1016
	movq	optarg(%rip), %rdi
	leaq	112(%rsp), %r14
	leaq	104(%rsp), %r15
	leaq	36(%rsp), %rcx
	leaq	28(%rsp), %r9
	movq	%r14, %rdx
	movq	%r15, %rsi
	leaq	32(%rsp), %r8
	call	add_file_name.constprop.0
.LVL375:
	.loc 1 1133 11 view .LVU1017
	movl	28(%rsp), %eax
	jmp	.L301
.LVL376:
	.p2align 4,,10
	.p2align 3
.L451:
	.loc 1 1034 7 is_stmt 0 view .LVU1018
	cmpl	$-131, %eax
	je	.L282
.LVL377:
.L317:
	.loc 1 1162 7 is_stmt 1 view .LVU1019
	movl	$1, %edi
	call	usage
.LVL378:
	.p2align 4,,10
	.p2align 3
.L282:
	.loc 1 1139 9 view .LVU1020
	.loc 1 1139 30 view .LVU1021
	.loc 1 1141 9 view .LVU1022
	movq	stdout(%rip), %rdi
	movq	Version(%rip), %rcx
	xorl	%eax, %eax
.LVL379:
	.loc 1 1141 9 is_stmt 0 view .LVU1023
	xorl	%r9d, %r9d
	leaq	.LC47(%rip), %r8
	leaq	.LC35(%rip), %rdx
	leaq	.LC11(%rip), %rsi
	call	version_etc@PLT
.LVL380:
	.loc 1 1141 9 is_stmt 1 view .LVU1024
	xorl	%edi, %edi
	call	exit@PLT
.LVL381:
.L446:
.LBB353:
	.loc 1 1048 15 view .LVU1025
	.loc 1 1048 35 is_stmt 0 view .LVU1026
	movb	$1, print_unpairables_1(%rip)
	jmp	.L441
.LVL382:
.L447:
	.loc 1 1048 35 view .LVU1027
.LBE353:
.LBB354:
	.loc 1 1104 18 is_stmt 1 view .LVU1028
	.loc 1 1104 21 is_stmt 0 view .LVU1029
	cmpb	$0, 1(%r15)
	je	.L305
	.loc 1 1106 17 is_stmt 1 view .LVU1030
	.loc 1 1106 21 is_stmt 0 view .LVU1031
	leaq	.LC44(%rip), %rsi
	movq	%r15, %rdi
	call	strcmp@PLT
.LVL383:
	.loc 1 1106 20 view .LVU1032
	testl	%eax, %eax
	jne	.L452
	.loc 1 1107 26 view .LVU1033
	xorl	%eax, %eax
	jmp	.L305
.L304:
	.loc 1 1107 26 view .LVU1034
.LBE354:
	.loc 1 1094 15 is_stmt 1 view .LVU1035
	movq	%r8, %rdi
	call	add_field_list
.LVL384:
	.loc 1 1095 15 view .LVU1036
	.loc 1 1095 27 is_stmt 0 view .LVU1037
	movl	$3, 28(%rsp)
	movl	$3, %eax
	jmp	.L301
.LVL385:
.L444:
	.loc 1 1151 3 is_stmt 1 view .LVU1038
	.loc 1 1152 17 is_stmt 0 view .LVU1039
	movslq	optind(%rip), %rax
.LVL386:
	.loc 1 1151 20 view .LVU1040
	movl	$0, 32(%rsp)
	.loc 1 1152 3 is_stmt 1 view .LVU1041
	.loc 1 1152 9 view .LVU1042
	cmpl	%eax, %r12d
	jle	.L311
	leaq	28(%rsp), %r13
	leaq	32(%rsp), %rbx
	leaq	36(%rsp), %rcx
	leaq	112(%rsp), %r14
	leaq	104(%rsp), %r15
	.p2align 4,,10
	.p2align 3
.L308:
	.loc 1 1153 5 view .LVU1043
	.loc 1 1153 31 is_stmt 0 view .LVU1044
	leal	1(%rax), %esi
	.loc 1 1153 5 view .LVU1045
	movq	0(%rbp,%rax,8), %rdi
	movq	%r13, %r9
	movq	%rbx, %r8
	.loc 1 1153 31 view .LVU1046
	movl	%esi, optind(%rip)
	.loc 1 1153 5 view .LVU1047
	movq	%r14, %rdx
	movq	%r15, %rsi
	movq	%rcx, (%rsp)
	call	add_file_name.constprop.0
.LVL387:
	.loc 1 1152 9 is_stmt 1 view .LVU1048
	.loc 1 1152 17 is_stmt 0 view .LVU1049
	movslq	optind(%rip), %rax
	.loc 1 1152 9 view .LVU1050
	movq	(%rsp), %rcx
	cmpl	%r12d, %eax
	jl	.L308
.L311:
	.loc 1 1156 3 is_stmt 1 view .LVU1051
	.loc 1 1156 14 is_stmt 0 view .LVU1052
	movl	36(%rsp), %eax
	.loc 1 1156 6 view .LVU1053
	cmpl	$2, %eax
	jne	.L453
.LVL388:
	.loc 1 1167 15 is_stmt 1 view .LVU1054
	.loc 1 1168 5 view .LVU1055
	.loc 1 1168 8 is_stmt 0 view .LVU1056
	cmpl	$0, 112(%rsp)
	jne	.L454
.L312:
	.loc 1 1167 22 is_stmt 1 view .LVU1057
.LVL389:
	.loc 1 1167 15 view .LVU1058
	.loc 1 1168 5 view .LVU1059
	.loc 1 1168 8 is_stmt 0 view .LVU1060
	cmpl	$0, 116(%rsp)
	jne	.L455
.L313:
	.loc 1 1167 22 is_stmt 1 view .LVU1061
.LVL390:
	.loc 1 1167 15 view .LVU1062
	.loc 1 1174 3 view .LVU1063
	.loc 1 1174 6 is_stmt 0 view .LVU1064
	cmpq	$-1, join_field_1(%rip)
	je	.L456
.L315:
	.loc 1 1176 3 is_stmt 1 view .LVU1065
	.loc 1 1176 6 is_stmt 0 view .LVU1066
	cmpq	$-1, join_field_2(%rip)
	je	.L457
.L318:
	.loc 1 1179 3 is_stmt 1 view .LVU1067
	.loc 1 1179 9 is_stmt 0 view .LVU1068
	movq	g_names(%rip), %rbp
.LVL391:
	.loc 1 1179 9 view .LVU1069
	leaq	.LC51(%rip), %rsi
	movq	%rbp, %rdi
	call	strcmp@PLT
.LVL392:
	.loc 1 1179 41 view .LVU1070
	movq	stdin(%rip), %r12
	testl	%eax, %eax
	jne	.L458
.L320:
.LVL393:
	.loc 1 1180 3 is_stmt 1 discriminator 4 view .LVU1071
	.loc 1 1180 6 is_stmt 0 discriminator 4 view .LVU1072
	testq	%r12, %r12
	je	.L459
	.loc 1 1182 3 is_stmt 1 view .LVU1073
	.loc 1 1182 9 is_stmt 0 view .LVU1074
	movq	8+g_names(%rip), %r13
	leaq	.LC51(%rip), %rsi
	movq	%r13, %rdi
	call	strcmp@PLT
.LVL394:
	.loc 1 1182 41 view .LVU1075
	movq	stdin(%rip), %rbp
	testl	%eax, %eax
	jne	.L460
.L323:
.LVL395:
	.loc 1 1183 3 is_stmt 1 discriminator 4 view .LVU1076
	.loc 1 1183 6 is_stmt 0 discriminator 4 view .LVU1077
	testq	%rbp, %rbp
	je	.L461
	.loc 1 1185 3 is_stmt 1 view .LVU1078
	.loc 1 1185 6 is_stmt 0 view .LVU1079
	cmpq	%rbp, %r12
	je	.L462
	.loc 1 1187 3 is_stmt 1 view .LVU1080
.LVL396:
.LBB355:
.LBI355:
	.loc 1 656 1 view .LVU1081
.LBB356:
	.loc 1 658 3 view .LVU1082
	.loc 1 659 3 view .LVU1083
	.loc 1 660 3 view .LVU1084
	.loc 1 662 3 view .LVU1085
	movl	$2, %esi
	movq	%r12, %rdi
	.loc 1 667 3 is_stmt 0 view .LVU1086
	leaq	48(%rsp), %r14
	.loc 1 662 3 view .LVU1087
	call	fadvise@PLT
.LVL397:
	.loc 1 663 3 is_stmt 1 view .LVU1088
	movl	$2, %esi
	movq	%rbp, %rdi
	.loc 1 669 3 is_stmt 0 view .LVU1089
	leaq	80(%rsp), %r13
	.loc 1 663 3 view .LVU1090
	call	fadvise@PLT
.LVL398:
	.loc 1 666 3 is_stmt 1 view .LVU1091
.LBB357:
.LBI357:
	.loc 1 494 1 view .LVU1092
.LBB358:
	.loc 1 496 3 view .LVU1093
.LBE358:
.LBE357:
	.loc 1 667 3 is_stmt 0 view .LVU1094
	movl	$1, %edx
	movq	%r14, %rsi
	movq	%r12, %rdi
.LBB360:
.LBB359:
	.loc 1 496 14 view .LVU1095
	movq	$0, 48(%rsp)
	.loc 1 497 3 is_stmt 1 view .LVU1096
	.loc 1 497 14 is_stmt 0 view .LVU1097
	movq	$0, 56(%rsp)
	.loc 1 498 3 is_stmt 1 view .LVU1098
	.loc 1 498 14 is_stmt 0 view .LVU1099
	movq	$0, 64(%rsp)
.LVL399:
	.loc 1 498 14 view .LVU1100
.LBE359:
.LBE360:
	.loc 1 667 3 is_stmt 1 view .LVU1101
	call	getseq
.LVL400:
	.loc 1 668 3 view .LVU1102
.LBB361:
.LBI361:
	.loc 1 494 1 view .LVU1103
.LBB362:
	.loc 1 496 3 view .LVU1104
.LBE362:
.LBE361:
	.loc 1 669 3 is_stmt 0 view .LVU1105
	movl	$2, %edx
	movq	%r13, %rsi
	movq	%rbp, %rdi
.LBB364:
.LBB363:
	.loc 1 496 14 view .LVU1106
	movq	$0, 80(%rsp)
	.loc 1 497 3 is_stmt 1 view .LVU1107
	.loc 1 497 14 is_stmt 0 view .LVU1108
	movq	$0, 88(%rsp)
	.loc 1 498 3 is_stmt 1 view .LVU1109
	.loc 1 498 14 is_stmt 0 view .LVU1110
	movq	$0, 96(%rsp)
.LVL401:
	.loc 1 498 14 view .LVU1111
.LBE363:
.LBE364:
	.loc 1 669 3 is_stmt 1 view .LVU1112
	call	getseq
.LVL402:
	.loc 1 671 3 view .LVU1113
	.loc 1 671 6 is_stmt 0 view .LVU1114
	cmpb	$0, autoformat(%rip)
	je	.L326
	.loc 1 673 7 is_stmt 1 view .LVU1115
	.loc 1 673 25 is_stmt 0 view .LVU1116
	movq	48(%rsp), %rax
	.loc 1 673 57 view .LVU1117
	testq	%rax, %rax
	je	.L327
	.loc 1 673 44 view .LVU1118
	movq	64(%rsp), %rax
	.loc 1 673 57 view .LVU1119
	movq	(%rax), %rax
	movq	24(%rax), %rax
.L327:
	.loc 1 673 19 view .LVU1120
	movq	%rax, autocount_1(%rip)
	.loc 1 674 7 is_stmt 1 view .LVU1121
	.loc 1 674 25 is_stmt 0 view .LVU1122
	movq	80(%rsp), %rax
	.loc 1 674 57 view .LVU1123
	testq	%rax, %rax
	je	.L328
	.loc 1 674 44 view .LVU1124
	movq	96(%rsp), %rax
	.loc 1 674 57 view .LVU1125
	movq	(%rax), %rax
	movq	24(%rax), %rax
.L328:
	.loc 1 674 19 view .LVU1126
	movq	%rax, autocount_2(%rip)
.L326:
	.loc 1 677 3 is_stmt 1 view .LVU1127
	.loc 1 677 6 is_stmt 0 view .LVU1128
	cmpb	$0, join_header_lines(%rip)
	jne	.L463
	.p2align 4,,10
	.p2align 3
.L341:
	.loc 1 690 9 is_stmt 1 view .LVU1129
	.loc 1 690 14 is_stmt 0 view .LVU1130
	movq	48(%rsp), %rax
	.loc 1 690 9 view .LVU1131
	testq	%rax, %rax
	je	.L338
.L466:
	.loc 1 690 21 view .LVU1132
	cmpq	$0, 80(%rsp)
	je	.L333
	.loc 1 692 7 is_stmt 1 view .LVU1133
	.loc 1 692 14 is_stmt 0 view .LVU1134
	movq	96(%rsp), %rax
	movq	join_field_2(%rip), %r9
	movq	join_field_1(%rip), %r8
	movq	(%rax), %rdx
	movq	64(%rsp), %rax
	movq	(%rax), %rax
	leaq	40(%rdx), %rcx
	movq	24(%rdx), %rdx
	movq	24(%rax), %rdi
	leaq	40(%rax), %rsi
	call	keycmp.isra.0
.LVL403:
	.loc 1 694 7 is_stmt 1 view .LVU1135
	.loc 1 694 10 is_stmt 0 view .LVU1136
	testl	%eax, %eax
	js	.L464
	.loc 1 702 7 is_stmt 1 view .LVU1137
	.loc 1 702 10 is_stmt 0 view .LVU1138
	je	.L342
	.loc 1 704 11 is_stmt 1 view .LVU1139
	.loc 1 704 14 is_stmt 0 view .LVU1140
	cmpb	$0, print_unpairables_2(%rip)
	jne	.L465
.LVL404:
.L343:
	.loc 1 706 11 is_stmt 1 view .LVU1141
.LBB365:
.LBI365:
	.loc 1 524 1 view .LVU1142
.LBB366:
	.loc 1 526 3 view .LVU1143
	.loc 1 527 5 view .LVU1144
	.loc 1 529 10 is_stmt 0 view .LVU1145
	movl	$2, %edx
	movq	%r13, %rsi
	movq	%rbp, %rdi
	.loc 1 527 16 view .LVU1146
	movq	$0, 80(%rsp)
	.loc 1 529 3 is_stmt 1 view .LVU1147
	.loc 1 529 10 is_stmt 0 view .LVU1148
	call	getseq
.LVL405:
	.loc 1 529 10 view .LVU1149
.LBE366:
.LBE365:
	.loc 1 707 11 is_stmt 1 view .LVU1150
	.loc 1 690 14 is_stmt 0 view .LVU1151
	movq	48(%rsp), %rax
	.loc 1 707 27 view .LVU1152
	movb	$1, seen_unpairable(%rip)
	.loc 1 708 11 is_stmt 1 view .LVU1153
	.loc 1 690 9 view .LVU1154
	testq	%rax, %rax
	jne	.L466
.L338:
.LBB367:
	.loc 1 739 23 is_stmt 0 view .LVU1155
	xorl	%eax, %eax
.L333:
.LBE367:
	.loc 1 768 3 is_stmt 1 view .LVU1156
	.loc 1 768 16 is_stmt 0 view .LVU1157
	movq	$0, 40(%rsp)
	.loc 1 769 3 is_stmt 1 view .LVU1158
.LVL406:
	.loc 1 771 3 view .LVU1159
	.loc 1 771 6 is_stmt 0 view .LVU1160
	cmpl	$2, check_input_order(%rip)
	je	.L358
	.loc 1 772 7 view .LVU1161
	cmpb	$0, issued_disorder_warning(%rip)
	je	.L359
	.loc 1 772 10 view .LVU1162
	cmpb	$0, 1+issued_disorder_warning(%rip)
	je	.L359
.L358:
	.loc 1 775 3 is_stmt 1 view .LVU1163
	.loc 1 775 6 is_stmt 0 view .LVU1164
	cmpb	$0, print_unpairables_1(%rip)
	jne	.L467
.L361:
	.loc 1 790 3 is_stmt 1 view .LVU1165
	.loc 1 790 28 is_stmt 0 view .LVU1166
	movzbl	print_unpairables_2(%rip), %eax
	.loc 1 790 6 view .LVU1167
	testb	%al, %al
	jne	.L388
.LVL407:
.L443:
	.loc 1 790 6 view .LVU1168
	movq	40(%rsp), %rdi
.L381:
	.loc 1 806 3 is_stmt 1 view .LVU1169
	call	free@PLT
.LVL408:
	.loc 1 808 3 view .LVU1170
	leaq	64(%rsp), %rsi
	leaq	56(%rsp), %rdi
	call	delseq.isra.0
.LVL409:
	.loc 1 809 3 view .LVU1171
	leaq	88(%rsp), %rdi
	leaq	96(%rsp), %rsi
	call	delseq.isra.0
.LVL410:
	.loc 1 809 3 is_stmt 0 view .LVU1172
.LBE356:
.LBE355:
	.loc 1 1189 3 is_stmt 1 view .LVU1173
	.loc 1 1189 7 is_stmt 0 view .LVU1174
	movq	%r12, %rdi
	call	rpl_fclose@PLT
.LVL411:
	.loc 1 1189 6 view .LVU1175
	testl	%eax, %eax
	jne	.L468
	.loc 1 1191 3 is_stmt 1 view .LVU1176
	.loc 1 1191 7 is_stmt 0 view .LVU1177
	movq	%rbp, %rdi
	call	rpl_fclose@PLT
.LVL412:
	.loc 1 1191 6 view .LVU1178
	testl	%eax, %eax
	jne	.L469
	.loc 1 1194 3 is_stmt 1 view .LVU1179
	.loc 1 1194 6 is_stmt 0 view .LVU1180
	cmpb	$0, issued_disorder_warning(%rip)
	jne	.L384
	.loc 1 1194 34 discriminator 1 view .LVU1181
	cmpb	$0, 1+issued_disorder_warning(%rip)
	jne	.L384
	.loc 1 1197 5 is_stmt 1 view .LVU1182
	.loc 1 1198 1 is_stmt 0 view .LVU1183
	movq	120(%rsp), %rax
	xorq	%fs:40, %rax
	jne	.L470
	addq	$136, %rsp
	.cfi_remember_state
	.cfi_def_cfa_offset 56
	xorl	%eax, %eax
	popq	%rbx
	.cfi_def_cfa_offset 48
	popq	%rbp
	.cfi_def_cfa_offset 40
.LVL413:
	.loc 1 1198 1 view .LVU1184
	popq	%r12
	.cfi_def_cfa_offset 32
.LVL414:
	.loc 1 1198 1 view .LVU1185
	popq	%r13
	.cfi_def_cfa_offset 24
	popq	%r14
	.cfi_def_cfa_offset 16
	popq	%r15
	.cfi_def_cfa_offset 8
	ret
.LVL415:
	.p2align 4,,10
	.p2align 3
.L344:
	.cfi_restore_state
.LBB392:
.LBB390:
	.loc 1 721 13 is_stmt 1 view .LVU1186
	.loc 1 721 15 is_stmt 0 view .LVU1187
	movq	96(%rsp), %rax
	movq	48(%rsp), %rcx
	movq	join_field_2(%rip), %r9
	movq	join_field_1(%rip), %r8
	movq	(%rax), %rdx
	movq	64(%rsp), %rax
	movq	-8(%rax,%rcx,8), %rax
	leaq	40(%rdx), %rcx
	movq	24(%rdx), %rdx
	movq	24(%rax), %rdi
	leaq	40(%rax), %rsi
	call	keycmp.isra.0
.LVL416:
	.loc 1 722 23 view .LVU1188
	testl	%eax, %eax
	jne	.L471
.L342:
	.loc 1 714 7 is_stmt 1 view .LVU1189
	.loc 1 715 9 view .LVU1190
.LVL417:
.LBB369:
.LBI369:
	.loc 1 524 1 view .LVU1191
.LBB370:
	.loc 1 526 3 view .LVU1192
	.loc 1 529 3 view .LVU1193
	.loc 1 529 10 is_stmt 0 view .LVU1194
	movl	$1, %edx
	movq	%r14, %rsi
	movq	%r12, %rdi
	call	getseq
.LVL418:
	.loc 1 529 10 view .LVU1195
.LBE370:
.LBE369:
	.loc 1 715 12 view .LVU1196
	testb	%al, %al
	jne	.L344
	.loc 1 717 13 is_stmt 1 view .LVU1197
.LVL419:
	.loc 1 718 13 view .LVU1198
	addq	$1, 48(%rsp)
	.loc 1 719 13 view .LVU1199
	.loc 1 717 18 is_stmt 0 view .LVU1200
	movb	$1, 14(%rsp)
	.loc 1 719 13 view .LVU1201
	jmp	.L348
.LVL420:
	.p2align 4,,10
	.p2align 3
.L346:
	.loc 1 734 13 is_stmt 1 view .LVU1202
	.loc 1 734 15 is_stmt 0 view .LVU1203
	movq	96(%rsp), %rax
	movq	80(%rsp), %rdx
	movq	join_field_2(%rip), %r9
	movq	join_field_1(%rip), %r8
	movq	-8(%rax,%rdx,8), %rdx
	movq	64(%rsp), %rax
	movq	(%rax), %rax
	leaq	40(%rdx), %rcx
	movq	24(%rdx), %rdx
	movq	24(%rax), %rdi
	leaq	40(%rax), %rsi
	call	keycmp.isra.0
.LVL421:
	.loc 1 735 23 view .LVU1204
	testl	%eax, %eax
	jne	.L472
.L348:
	.loc 1 727 7 is_stmt 1 view .LVU1205
	.loc 1 728 9 view .LVU1206
.LVL422:
.LBB371:
.LBI371:
	.loc 1 524 1 view .LVU1207
.LBB372:
	.loc 1 526 3 view .LVU1208
	.loc 1 529 3 view .LVU1209
	.loc 1 529 10 is_stmt 0 view .LVU1210
	movl	$2, %edx
	movq	%r13, %rsi
	movq	%rbp, %rdi
	call	getseq
.LVL423:
	.loc 1 529 10 view .LVU1211
.LBE372:
.LBE371:
	.loc 1 728 12 view .LVU1212
	testb	%al, %al
	jne	.L346
	.loc 1 730 13 is_stmt 1 view .LVU1213
.LVL424:
	.loc 1 731 13 view .LVU1214
	addq	$1, 80(%rsp)
	.loc 1 732 13 view .LVU1215
	.loc 1 730 18 is_stmt 0 view .LVU1216
	movb	$1, 15(%rsp)
.LVL425:
.L347:
	.loc 1 737 7 is_stmt 1 view .LVU1217
	.loc 1 737 10 is_stmt 0 view .LVU1218
	cmpb	$0, print_pairables(%rip)
	jne	.L473
.L349:
	.loc 1 747 7 is_stmt 1 view .LVU1219
	.loc 1 747 10 is_stmt 0 view .LVU1220
	cmpb	$0, 14(%rsp)
	jne	.L354
	.loc 1 749 11 is_stmt 1 view .LVU1221
.LBB373:
	.loc 1 749 11 view .LVU1222
	movq	64(%rsp), %rax
	movq	48(%rsp), %rdx
	leaq	-8(%rax,%rdx,8), %rdx
	movq	(%rax), %rcx
.LVL426:
	.loc 1 749 11 view .LVU1223
	movq	(%rdx), %rsi
	movq	%rsi, (%rax)
	.loc 1 749 11 view .LVU1224
	movq	%rcx, (%rdx)
.LBE373:
	.loc 1 749 11 view .LVU1225
	.loc 1 749 64 view .LVU1226
	.loc 1 750 11 view .LVU1227
	.loc 1 750 22 is_stmt 0 view .LVU1228
	movq	$1, 48(%rsp)
.LVL427:
.L355:
	.loc 1 755 7 is_stmt 1 view .LVU1229
	.loc 1 755 10 is_stmt 0 view .LVU1230
	cmpb	$0, 15(%rsp)
	jne	.L356
	.loc 1 757 11 is_stmt 1 view .LVU1231
.LBB374:
	.loc 1 757 11 view .LVU1232
	movq	96(%rsp), %rax
	movq	80(%rsp), %rdx
	leaq	-8(%rax,%rdx,8), %rdx
	movq	(%rax), %rcx
.LVL428:
	.loc 1 757 11 view .LVU1233
	movq	(%rdx), %rsi
	movq	%rsi, (%rax)
	.loc 1 757 11 view .LVU1234
	movq	%rcx, (%rdx)
.LBE374:
	.loc 1 757 11 view .LVU1235
	.loc 1 757 64 view .LVU1236
	.loc 1 758 11 view .LVU1237
	.loc 1 758 22 is_stmt 0 view .LVU1238
	movq	$1, 80(%rsp)
	jmp	.L341
.LVL429:
.L464:
	.loc 1 696 11 is_stmt 1 view .LVU1239
	.loc 1 696 14 is_stmt 0 view .LVU1240
	cmpb	$0, print_unpairables_1(%rip)
	jne	.L474
.LVL430:
.L340:
	.loc 1 698 11 is_stmt 1 view .LVU1241
.LBB375:
.LBI375:
	.loc 1 524 1 view .LVU1242
.LBB376:
	.loc 1 526 3 view .LVU1243
	.loc 1 527 5 view .LVU1244
	.loc 1 529 10 is_stmt 0 view .LVU1245
	movl	$1, %edx
	movq	%r14, %rsi
	movq	%r12, %rdi
	.loc 1 527 16 view .LVU1246
	movq	$0, 48(%rsp)
	.loc 1 529 3 is_stmt 1 view .LVU1247
	.loc 1 529 10 is_stmt 0 view .LVU1248
	call	getseq
.LVL431:
	.loc 1 529 10 view .LVU1249
.LBE376:
.LBE375:
	.loc 1 699 11 is_stmt 1 view .LVU1250
	.loc 1 699 27 is_stmt 0 view .LVU1251
	movb	$1, seen_unpairable(%rip)
	.loc 1 700 11 is_stmt 1 view .LVU1252
	jmp	.L341
.LVL432:
.L356:
	.loc 1 761 9 view .LVU1253
	.loc 1 761 20 is_stmt 0 view .LVU1254
	movq	$0, 80(%rsp)
	jmp	.L341
.L354:
	.loc 1 753 9 is_stmt 1 view .LVU1255
	.loc 1 753 20 is_stmt 0 view .LVU1256
	movq	$0, 48(%rsp)
	jmp	.L355
.LVL433:
.L471:
	.loc 1 713 12 view .LVU1257
	movb	$0, 14(%rsp)
	.loc 1 726 7 is_stmt 1 view .LVU1258
.LVL434:
	.loc 1 726 7 is_stmt 0 view .LVU1259
	jmp	.L348
.LVL435:
.L472:
	.loc 1 726 12 view .LVU1260
	movb	$0, 15(%rsp)
	jmp	.L347
.LVL436:
.L465:
	.loc 1 705 13 is_stmt 1 view .LVU1261
	movq	96(%rsp), %rax
.LVL437:
	.loc 1 705 13 is_stmt 0 view .LVU1262
	leaq	uni_blank(%rip), %rdi
	movq	(%rax), %rsi
	call	prjoin
.LVL438:
	jmp	.L343
.L463:
	.loc 1 677 25 view .LVU1263
	cmpq	$0, 48(%rsp)
	movq	80(%rsp), %rax
	jne	.L331
	.loc 1 677 40 view .LVU1264
	testq	%rax, %rax
	je	.L338
.LBB377:
	.loc 1 679 26 view .LVU1265
	leaq	uni_blank(%rip), %rdi
.L332:
.LVL439:
	.loc 1 680 26 view .LVU1266
	movq	96(%rsp), %rax
	movq	(%rax), %rsi
.L334:
.LVL440:
	.loc 1 681 7 is_stmt 1 view .LVU1267
	call	prjoin
.LVL441:
	.loc 1 682 7 view .LVU1268
	.loc 1 684 10 is_stmt 0 view .LVU1269
	cmpq	$0, 48(%rsp)
	.loc 1 682 19 view .LVU1270
	movq	$0, prevline(%rip)
	.loc 1 683 7 is_stmt 1 view .LVU1271
	.loc 1 683 19 is_stmt 0 view .LVU1272
	movq	$0, 8+prevline(%rip)
	.loc 1 684 7 is_stmt 1 view .LVU1273
	.loc 1 684 10 is_stmt 0 view .LVU1274
	jne	.L475
.L335:
	.loc 1 686 7 is_stmt 1 view .LVU1275
	.loc 1 686 10 is_stmt 0 view .LVU1276
	cmpq	$0, 80(%rsp)
	je	.L341
	.loc 1 687 9 is_stmt 1 view .LVU1277
.LVL442:
.LBB378:
.LBI378:
	.loc 1 524 1 view .LVU1278
.LBB379:
	.loc 1 526 3 view .LVU1279
	.loc 1 527 5 view .LVU1280
	.loc 1 529 10 is_stmt 0 view .LVU1281
	movl	$2, %edx
	movq	%r13, %rsi
	movq	%rbp, %rdi
	.loc 1 527 16 view .LVU1282
	movq	$0, 80(%rsp)
	.loc 1 529 3 is_stmt 1 view .LVU1283
	.loc 1 529 10 is_stmt 0 view .LVU1284
	call	getseq
.LVL443:
	.loc 1 529 10 view .LVU1285
.LBE379:
.LBE378:
.LBE377:
	.loc 1 690 9 is_stmt 1 view .LVU1286
.LBB384:
.LBB381:
.LBB380:
	.loc 1 529 10 is_stmt 0 view .LVU1287
	jmp	.L341
.LVL444:
.L457:
	.loc 1 529 10 view .LVU1288
.LBE380:
.LBE381:
.LBE384:
.LBE390:
.LBE392:
	.loc 1 1177 5 is_stmt 1 view .LVU1289
	.loc 1 1177 18 is_stmt 0 view .LVU1290
	movq	$0, join_field_2(%rip)
	jmp	.L318
.L456:
	.loc 1 1175 5 is_stmt 1 view .LVU1291
	.loc 1 1175 18 is_stmt 0 view .LVU1292
	movq	$0, join_field_1(%rip)
	jmp	.L315
.LVL445:
.L458:
	.loc 1 1179 43 discriminator 1 view .LVU1293
	leaq	.LC52(%rip), %rsi
	movq	%rbp, %rdi
	call	fopen_safer@PLT
.LVL446:
	movq	%rax, %r12
	jmp	.L320
.LVL447:
.L455:
	.loc 1 1170 9 is_stmt 1 view .LVU1294
	movl	$1, %esi
	leaq	join_field_1(%rip), %rdi
	call	set_join_field
.LVL448:
	.loc 1 1171 9 view .LVU1295
	movl	$1, %esi
	leaq	join_field_2(%rip), %rdi
	call	set_join_field
.LVL449:
	jmp	.L313
.LVL450:
.L454:
	.loc 1 1170 9 view .LVU1296
	xorl	%esi, %esi
	leaq	join_field_1(%rip), %rdi
	call	set_join_field
.LVL451:
	.loc 1 1171 9 view .LVU1297
	xorl	%esi, %esi
	leaq	join_field_2(%rip), %rdi
	call	set_join_field
.LVL452:
	jmp	.L312
.LVL453:
.L460:
	.loc 1 1182 43 is_stmt 0 discriminator 1 view .LVU1298
	leaq	.LC52(%rip), %rsi
	movq	%r13, %rdi
	call	fopen_safer@PLT
.LVL454:
	movq	%rax, %rbp
	jmp	.L323
.LVL455:
.L449:
.LBB393:
	.loc 1 1078 15 is_stmt 1 view .LVU1299
	.loc 1 1079 15 view .LVU1300
	.loc 1 1078 20 is_stmt 0 view .LVU1301
	cmpb	$50, %al
	sete	%al
.LVL456:
	.loc 1 1079 35 view .LVU1302
	sete	%dl
	.loc 1 1078 20 view .LVU1303
	movzbl	%al, %eax
	.loc 1 1079 35 view .LVU1304
	movzbl	%dl, %edx
	.loc 1 1080 45 view .LVU1305
	addl	$1, %eax
	.loc 1 1079 35 view .LVU1306
	addl	$1, 112(%rsp,%rdx,4)
.LVL457:
	.loc 1 1080 15 is_stmt 1 view .LVU1307
	.loc 1 1080 27 is_stmt 0 view .LVU1308
	movl	%eax, 28(%rsp)
.LBE393:
	.loc 1 1076 13 view .LVU1309
	jmp	.L301
.LVL458:
.L359:
.LBB394:
.LBB391:
	.loc 1 773 5 is_stmt 1 view .LVU1310
	.loc 1 775 3 view .LVU1311
	.loc 1 775 42 is_stmt 0 view .LVU1312
	testq	%rax, %rax
	je	.L476
	.loc 1 775 28 view .LVU1313
	movzbl	print_unpairables_1(%rip), %r13d
	.loc 1 777 7 is_stmt 1 view .LVU1314
	.loc 1 777 10 is_stmt 0 view .LVU1315
	testb	%r13b, %r13b
	jne	.L389
	.loc 1 773 15 view .LVU1316
	movl	$1, %r13d
.LVL459:
.L362:
	.loc 1 779 7 is_stmt 1 view .LVU1317
	.loc 1 779 10 is_stmt 0 view .LVU1318
	cmpq	$0, 80(%rsp)
	je	.L363
	.loc 1 780 9 is_stmt 1 view .LVU1319
	.loc 1 780 25 is_stmt 0 view .LVU1320
	movb	$1, seen_unpairable(%rip)
.L363:
	leaq	40(%rsp), %rbx
	.loc 1 784 13 view .LVU1321
	leaq	uni_blank(%rip), %r14
	.p2align 4,,10
	.p2align 3
.L364:
	.loc 1 781 13 is_stmt 1 view .LVU1322
	.loc 1 781 14 is_stmt 0 view .LVU1323
	movl	$1, %edx
	movq	%rbx, %rsi
	movq	%r12, %rdi
	call	get_line
.LVL460:
	.loc 1 781 13 view .LVU1324
	testb	%al, %al
	je	.L371
	.loc 1 783 11 is_stmt 1 view .LVU1325
	.loc 1 783 14 is_stmt 0 view .LVU1326
	cmpb	$0, print_unpairables_1(%rip)
	jne	.L477
	.loc 1 785 11 is_stmt 1 view .LVU1327
	.loc 1 785 14 is_stmt 0 view .LVU1328
	cmpb	$0, issued_disorder_warning(%rip)
	je	.L364
.L371:
	.loc 1 790 3 is_stmt 1 view .LVU1329
	.loc 1 790 28 is_stmt 0 view .LVU1330
	movzbl	print_unpairables_2(%rip), %eax
	.loc 1 790 6 view .LVU1331
	testb	%al, %al
	jne	.L368
	testb	%r13b, %r13b
	je	.L369
.L368:
	.loc 1 790 42 view .LVU1332
	cmpq	$0, 80(%rsp)
	jne	.L390
.L369:
	.loc 1 805 3 is_stmt 1 view .LVU1333
	movq	40(%rsp), %rdi
.LVL461:
.LBB385:
.LBI385:
	.loc 1 310 1 view .LVU1334
.LBB386:
	.loc 1 312 3 view .LVU1335
	.loc 1 312 6 is_stmt 0 view .LVU1336
	testq	%rdi, %rdi
	je	.L381
	call	freeline.part.0
.LVL462:
	.loc 1 312 6 view .LVU1337
	jmp	.L443
.LVL463:
.L473:
	.loc 1 312 6 view .LVU1338
.LBE386:
.LBE385:
.LBB387:
	.loc 1 739 30 is_stmt 1 view .LVU1339
	.loc 1 739 11 is_stmt 0 view .LVU1340
	cmpq	$1, 48(%rsp)
	.loc 1 739 23 view .LVU1341
	movq	$0, (%rsp)
	.loc 1 739 11 view .LVU1342
	je	.L349
.LVL464:
	.p2align 4,,10
	.p2align 3
.L350:
.LBB368:
	.loc 1 742 27 is_stmt 1 view .LVU1343
	movq	(%rsp), %rax
	.loc 1 742 22 is_stmt 0 view .LVU1344
	xorl	%r15d, %r15d
	.loc 1 742 15 view .LVU1345
	cmpq	$1, 80(%rsp)
	leaq	0(,%rax,8), %rbx
	je	.L353
.LVL465:
	.p2align 4,,10
	.p2align 3
.L351:
	.loc 1 743 17 is_stmt 1 view .LVU1346
	movq	96(%rsp), %rdx
	movq	(%rdx,%r15,8), %rsi
	movq	64(%rsp), %rdx
	.loc 1 742 47 is_stmt 0 view .LVU1347
	addq	$1, %r15
.LVL466:
	.loc 1 743 17 view .LVU1348
	movq	(%rdx,%rbx), %rdi
	call	prjoin
.LVL467:
	.loc 1 742 47 is_stmt 1 view .LVU1349
	.loc 1 742 27 view .LVU1350
	.loc 1 742 42 is_stmt 0 view .LVU1351
	movq	80(%rsp), %rax
	leaq	-1(%rax), %rdx
	.loc 1 742 15 view .LVU1352
	cmpq	%rdx, %r15
	jb	.L351
.LVL468:
.L353:
	.loc 1 742 15 view .LVU1353
.LBE368:
	.loc 1 739 50 is_stmt 1 view .LVU1354
	.loc 1 739 45 is_stmt 0 view .LVU1355
	movq	48(%rsp), %rax
	.loc 1 739 50 view .LVU1356
	addq	$1, (%rsp)
.LVL469:
	.loc 1 739 50 view .LVU1357
	movq	(%rsp), %rbx
.LVL470:
	.loc 1 739 30 is_stmt 1 view .LVU1358
	.loc 1 739 45 is_stmt 0 view .LVU1359
	subq	$1, %rax
	.loc 1 739 11 view .LVU1360
	cmpq	%rax, %rbx
	jb	.L350
	jmp	.L349
.LVL471:
.L474:
	.loc 1 739 11 view .LVU1361
.LBE387:
	.loc 1 697 13 is_stmt 1 view .LVU1362
	movq	64(%rsp), %rax
.LVL472:
	.loc 1 697 13 is_stmt 0 view .LVU1363
	leaq	uni_blank(%rip), %rsi
	movq	(%rax), %rdi
	call	prjoin
.LVL473:
	jmp	.L340
.LVL474:
.L476:
	.loc 1 790 3 is_stmt 1 view .LVU1364
	.loc 1 790 28 is_stmt 0 view .LVU1365
	movzbl	print_unpairables_2(%rip), %eax
.LVL475:
.L388:
	.loc 1 790 42 view .LVU1366
	cmpq	$0, 80(%rsp)
	leaq	40(%rsp), %rbx
	je	.L443
.L390:
	.loc 1 792 7 is_stmt 1 view .LVU1367
	.loc 1 792 10 is_stmt 0 view .LVU1368
	testb	%al, %al
	jne	.L478
.L374:
	.loc 1 794 7 is_stmt 1 view .LVU1369
	.loc 1 794 10 is_stmt 0 view .LVU1370
	cmpq	$0, 48(%rsp)
	jne	.L479
.L375:
	.loc 1 799 13 view .LVU1371
	leaq	uni_blank(%rip), %r13
	.p2align 4,,10
	.p2align 3
.L376:
	.loc 1 796 13 is_stmt 1 view .LVU1372
	.loc 1 796 14 is_stmt 0 view .LVU1373
	movl	$2, %edx
	movq	%rbx, %rsi
	movq	%rbp, %rdi
	call	get_line
.LVL476:
	.loc 1 796 13 view .LVU1374
	testb	%al, %al
	je	.L369
	.loc 1 798 11 is_stmt 1 view .LVU1375
	.loc 1 798 14 is_stmt 0 view .LVU1376
	cmpb	$0, print_unpairables_2(%rip)
	jne	.L480
	.loc 1 800 11 is_stmt 1 view .LVU1377
	.loc 1 800 14 is_stmt 0 view .LVU1378
	cmpb	$0, 1+issued_disorder_warning(%rip)
	je	.L376
	jmp	.L369
.L480:
	.loc 1 799 13 is_stmt 1 view .LVU1379
	movq	40(%rsp), %rsi
	movq	%r13, %rdi
	call	prjoin
.LVL477:
	.loc 1 800 11 view .LVU1380
	.loc 1 800 14 is_stmt 0 view .LVU1381
	cmpb	$0, 1+issued_disorder_warning(%rip)
	je	.L376
	.loc 1 800 42 view .LVU1382
	cmpb	$0, print_unpairables_2(%rip)
	jne	.L376
	jmp	.L369
.L331:
.LBB388:
	.loc 1 679 7 is_stmt 1 view .LVU1383
	.loc 1 679 26 is_stmt 0 view .LVU1384
	movq	64(%rsp), %rdx
	.loc 1 680 26 view .LVU1385
	leaq	uni_blank(%rip), %rsi
	.loc 1 679 26 view .LVU1386
	movq	(%rdx), %rdi
.LVL478:
	.loc 1 680 7 is_stmt 1 view .LVU1387
	.loc 1 680 26 is_stmt 0 view .LVU1388
	testq	%rax, %rax
	je	.L334
	jmp	.L332
.LVL479:
.L479:
	.loc 1 680 26 view .LVU1389
.LBE388:
	.loc 1 795 9 is_stmt 1 view .LVU1390
	.loc 1 795 25 is_stmt 0 view .LVU1391
	movb	$1, seen_unpairable(%rip)
	jmp	.L375
.L478:
	.loc 1 793 9 is_stmt 1 view .LVU1392
	movq	96(%rsp), %rax
	leaq	uni_blank(%rip), %rdi
	movq	(%rax), %rsi
	call	prjoin
.LVL480:
	jmp	.L374
.LVL481:
.L467:
	.loc 1 775 42 is_stmt 0 view .LVU1393
	xorl	%r13d, %r13d
	testq	%rax, %rax
	je	.L361
.LVL482:
.L389:
	.loc 1 778 9 is_stmt 1 view .LVU1394
	movq	64(%rsp), %rax
	leaq	uni_blank(%rip), %rsi
	movq	(%rax), %rdi
	call	prjoin
.LVL483:
	jmp	.L362
.L477:
	.loc 1 784 13 view .LVU1395
	movq	40(%rsp), %rdi
	movq	%r14, %rsi
	call	prjoin
.LVL484:
	.loc 1 785 11 view .LVU1396
	.loc 1 785 14 is_stmt 0 view .LVU1397
	cmpb	$0, issued_disorder_warning(%rip)
	je	.L364
	.loc 1 785 42 view .LVU1398
	cmpb	$0, print_unpairables_1(%rip)
	jne	.L364
	jmp	.L371
.L475:
.LBB389:
	.loc 1 685 9 is_stmt 1 view .LVU1399
.LVL485:
.LBB382:
.LBI382:
	.loc 1 524 1 view .LVU1400
.LBB383:
	.loc 1 526 3 view .LVU1401
	.loc 1 527 5 view .LVU1402
	.loc 1 529 10 is_stmt 0 view .LVU1403
	movl	$1, %edx
	movq	%r14, %rsi
	movq	%r12, %rdi
	.loc 1 527 16 view .LVU1404
	movq	$0, 48(%rsp)
	.loc 1 529 3 is_stmt 1 view .LVU1405
	.loc 1 529 10 is_stmt 0 view .LVU1406
	call	getseq
.LVL486:
	jmp	.L335
.LVL487:
.L280:
	.loc 1 529 10 view .LVU1407
.LBE383:
.LBE382:
.LBE389:
.LBE391:
.LBE394:
	.loc 1 1139 9 is_stmt 1 view .LVU1408
	xorl	%edi, %edi
	call	usage
.LVL488:
.L297:
.LBB395:
.LBB348:
	.loc 1 1045 15 view .LVU1409
	movq	optarg(%rip), %rdi
	call	quote@PLT
.LVL489:
	movl	$5, %edx
	leaq	.LC2(%rip), %rsi
	xorl	%edi, %edi
	movq	%rax, %r12
	call	dcgettext@PLT
.LVL490:
	movq	%r12, %rcx
	xorl	%esi, %esi
	movl	$1, %edi
	movq	%rax, %rdx
	xorl	%eax, %eax
	call	error@PLT
.LVL491:
.L461:
	.loc 1 1045 15 is_stmt 0 view .LVU1410
.LBE348:
.LBE395:
.LBB396:
	.loc 1 1184 5 is_stmt 1 view .LVU1411
	movq	8+g_names(%rip), %rdx
	movl	$3, %esi
	xorl	%edi, %edi
	call	quotearg_n_style_colon@PLT
.LVL492:
	movq	%rax, %r12
.LVL493:
	.loc 1 1184 5 is_stmt 0 view .LVU1412
	call	__errno_location@PLT
.LVL494:
	movq	%r12, %rcx
	movl	$1, %edi
	leaq	.LC53(%rip), %rdx
	movl	(%rax), %esi
	xorl	%eax, %eax
	call	error@PLT
.LVL495:
.L452:
	.loc 1 1184 5 view .LVU1413
.LBE396:
.LBB397:
.LBB351:
	.loc 1 1109 19 is_stmt 1 view .LVU1414
	movq	%r15, %rdi
	call	quote@PLT
.LVL496:
	movl	$5, %edx
	leaq	.LC45(%rip), %rsi
	xorl	%edi, %edi
	movq	%rax, %r12
	call	dcgettext@PLT
.LVL497:
	movq	%r12, %rcx
	xorl	%esi, %esi
	movl	$1, %edi
	movq	%rax, %rdx
	xorl	%eax, %eax
	call	error@PLT
.LVL498:
.L448:
	.loc 1 1109 19 is_stmt 0 view .LVU1415
.LBE351:
.LBB352:
	.loc 1 1113 15 is_stmt 1 view .LVU1416
	movl	$5, %edx
	leaq	.LC46(%rip), %rsi
	xorl	%edi, %edi
	call	dcgettext@PLT
.LVL499:
	.loc 1 1113 15 is_stmt 0 view .LVU1417
	xorl	%esi, %esi
	movl	$1, %edi
	movq	%rax, %rdx
	xorl	%eax, %eax
	call	error@PLT
.LVL500:
.L470:
	.loc 1 1113 15 view .LVU1418
.LBE352:
.LBE397:
	.loc 1 1198 1 view .LVU1419
	call	__stack_chk_fail@PLT
.LVL501:
.L384:
.LBB398:
	.loc 1 1195 5 is_stmt 1 view .LVU1420
	movl	$5, %edx
	leaq	.LC55(%rip), %rsi
	xorl	%edi, %edi
	call	dcgettext@PLT
.LVL502:
	xorl	%esi, %esi
	movl	$1, %edi
	movq	%rax, %rdx
	xorl	%eax, %eax
	call	error@PLT
.LVL503:
.L469:
.LBE398:
.LBB399:
	.loc 1 1192 5 view .LVU1421
	movq	8+g_names(%rip), %rdx
	movl	$3, %esi
	xorl	%edi, %edi
	call	quotearg_n_style_colon@PLT
.LVL504:
	movq	%rax, %r12
.LVL505:
	.loc 1 1192 5 is_stmt 0 view .LVU1422
	call	__errno_location@PLT
.LVL506:
	movq	%r12, %rcx
	movl	$1, %edi
	leaq	.LC53(%rip), %rdx
	movl	(%rax), %esi
	xorl	%eax, %eax
	call	error@PLT
.LVL507:
.L468:
	.loc 1 1192 5 view .LVU1423
.LBE399:
.LBB400:
	.loc 1 1190 5 is_stmt 1 view .LVU1424
	movq	g_names(%rip), %rdx
	movl	$3, %esi
	xorl	%edi, %edi
	call	quotearg_n_style_colon@PLT
.LVL508:
	movq	%rax, %r12
.LVL509:
	.loc 1 1190 5 is_stmt 0 view .LVU1425
	call	__errno_location@PLT
.LVL510:
	movq	%r12, %rcx
	movl	$1, %edi
	leaq	.LC53(%rip), %rdx
	movl	(%rax), %esi
	xorl	%eax, %eax
	call	error@PLT
.LVL511:
.L453:
	.loc 1 1190 5 view .LVU1426
.LBE400:
	.loc 1 1158 7 is_stmt 1 view .LVU1427
	.loc 1 1158 10 is_stmt 0 view .LVU1428
	testl	%eax, %eax
	jne	.L316
	.loc 1 1159 9 is_stmt 1 view .LVU1429
	.loc 1 1159 22 is_stmt 0 view .LVU1430
	xorl	%edi, %edi
	movl	$5, %edx
	leaq	.LC49(%rip), %rsi
	call	dcgettext@PLT
.LVL512:
	.loc 1 1159 9 view .LVU1431
	xorl	%esi, %esi
	xorl	%edi, %edi
	.loc 1 1159 22 view .LVU1432
	movq	%rax, %rdx
	.loc 1 1159 9 view .LVU1433
	xorl	%eax, %eax
	call	error@PLT
.LVL513:
	jmp	.L317
.LVL514:
.L459:
.LBB401:
	.loc 1 1181 5 is_stmt 1 view .LVU1434
	movq	g_names(%rip), %rdx
	movl	$3, %esi
	xorl	%edi, %edi
	call	quotearg_n_style_colon@PLT
.LVL515:
	movq	%rax, %r12
.LVL516:
	.loc 1 1181 5 is_stmt 0 view .LVU1435
	call	__errno_location@PLT
.LVL517:
	movq	%r12, %rcx
	movl	$1, %edi
	leaq	.LC53(%rip), %rdx
	movl	(%rax), %esi
	xorl	%eax, %eax
	call	error@PLT
.LVL518:
.L316:
	.loc 1 1181 5 view .LVU1436
.LBE401:
	.loc 1 1161 9 is_stmt 1 view .LVU1437
	movq	-8(%rbp,%r12,8), %rdi
	call	quote@PLT
.LVL519:
	.loc 1 1161 22 is_stmt 0 view .LVU1438
	xorl	%edi, %edi
	movl	$5, %edx
	leaq	.LC50(%rip), %rsi
	.loc 1 1161 9 view .LVU1439
	movq	%rax, %r12
	.loc 1 1161 22 view .LVU1440
	call	dcgettext@PLT
.LVL520:
	.loc 1 1161 9 view .LVU1441
	movq	%r12, %rcx
	xorl	%esi, %esi
	xorl	%edi, %edi
	.loc 1 1161 22 view .LVU1442
	movq	%rax, %rdx
	.loc 1 1161 9 view .LVU1443
	xorl	%eax, %eax
	call	error@PLT
.LVL521:
	jmp	.L317
.LVL522:
.L462:
.LBB402:
	.loc 1 1186 5 is_stmt 1 view .LVU1444
	movl	$5, %edx
	leaq	.LC54(%rip), %rsi
	xorl	%edi, %edi
	call	dcgettext@PLT
.LVL523:
	movq	%rax, %r12
.LVL524:
	.loc 1 1186 5 is_stmt 0 view .LVU1445
	call	__errno_location@PLT
.LVL525:
	movq	%r12, %rdx
	movl	$1, %edi
	movl	(%rax), %esi
	xorl	%eax, %eax
	call	error@PLT
.LVL526:
.L450:
	.loc 1 1186 5 view .LVU1446
.LBE402:
.LBB403:
	.loc 1 1056 13 is_stmt 1 view .LVU1447
	movl	$5, %edx
	leaq	.LC42(%rip), %rsi
	xorl	%edi, %edi
	call	dcgettext@PLT
.LVL527:
	xorl	%esi, %esi
	movl	$1, %edi
	movq	%rax, %rdx
	xorl	%eax, %eax
	call	error@PLT
.LVL528:
.LBE403:
	.cfi_endproc
.LFE159:
	.size	main, .-main
	.section	.rodata
	.align 8
	.type	__PRETTY_FUNCTION__.7435, @object
	.size	__PRETTY_FUNCTION__.7435, 10
__PRETTY_FUNCTION__.7435:
	.string	"add_field"
	.data
	.type	eolchar, @object
	.size	eolchar, 1
eolchar:
	.byte	10
	.local	join_header_lines
	.comm	join_header_lines,1,1
	.local	ignore_case
	.comm	ignore_case,1,1
	.local	uni_blank
	.comm	uni_blank,48,32
	.section	.rodata.str1.1
.LC56:
	.string	"ignore-case"
.LC57:
	.string	"check-order"
.LC58:
	.string	"nocheck-order"
.LC59:
	.string	"zero-terminated"
.LC60:
	.string	"header"
.LC61:
	.string	"help"
.LC62:
	.string	"version"
	.section	.data.rel.ro.local,"aw"
	.align 32
	.type	longopts, @object
	.size	longopts, 256
longopts:
	.quad	.LC56
	.long	0
	.zero	4
	.quad	0
	.long	105
	.zero	4
	.quad	.LC57
	.long	0
	.zero	4
	.quad	0
	.long	128
	.zero	4
	.quad	.LC58
	.long	0
	.zero	4
	.quad	0
	.long	129
	.zero	4
	.quad	.LC59
	.long	0
	.zero	4
	.quad	0
	.long	122
	.zero	4
	.quad	.LC60
	.long	0
	.zero	4
	.quad	0
	.long	130
	.zero	4
	.quad	.LC61
	.long	0
	.zero	4
	.quad	0
	.long	-130
	.zero	4
	.quad	.LC62
	.long	0
	.zero	4
	.quad	0
	.long	-131
	.zero	4
	.quad	0
	.long	0
	.zero	4
	.quad	0
	.long	0
	.zero	4
	.local	check_input_order
	.comm	check_input_order,4,4
	.data
	.align 4
	.type	tab, @object
	.size	tab, 4
tab:
	.long	-1
	.section	.data.rel.local,"aw"
	.align 8
	.type	outlist_end, @object
	.size	outlist_end, 8
outlist_end:
	.quad	outlist_head
	.local	outlist_head
	.comm	outlist_head,24,16
	.data
	.align 8
	.type	join_field_2, @object
	.size	join_field_2, 8
join_field_2:
	.quad	-1
	.align 8
	.type	join_field_1, @object
	.size	join_field_1, 8
join_field_1:
	.quad	-1
	.local	autocount_2
	.comm	autocount_2,8,8
	.local	autocount_1
	.comm	autocount_1,8,8
	.local	autoformat
	.comm	autoformat,1,1
	.local	empty_filler
	.comm	empty_filler,8,8
	.local	issued_disorder_warning
	.comm	issued_disorder_warning,2,1
	.local	seen_unpairable
	.comm	seen_unpairable,1,1
	.local	print_pairables
	.comm	print_pairables,1,1
	.local	print_unpairables_2
	.comm	print_unpairables_2,1,1
	.local	print_unpairables_1
	.comm	print_unpairables_1,1,1
	.local	hard_LC_COLLATE
	.comm	hard_LC_COLLATE,1,1
	.local	spareline
	.comm	spareline,16,16
	.local	g_names
	.comm	g_names,16,16
	.local	line_no
	.comm	line_no,16,16
	.local	prevline
	.comm	prevline,16,16
	.text
.Letext0:
	.file 6 "/usr/include/x86_64-linux-gnu/bits/types.h"
	.file 7 "/usr/include/x86_64-linux-gnu/bits/types/time_t.h"
	.file 8 "/usr/lib/gcc/x86_64-linux-gnu/9/include/stddef.h"
	.file 9 "./lib/sys/select.h"
	.file 10 "/usr/include/x86_64-linux-gnu/bits/getopt_core.h"
	.file 11 "/usr/include/x86_64-linux-gnu/bits/getopt_ext.h"
	.file 12 "/usr/include/time.h"
	.file 13 "/usr/include/signal.h"
	.file 14 "/usr/include/unistd.h"
	.file 15 "/usr/include/errno.h"
	.file 16 "src/version.h"
	.file 17 "./lib/exitfail.h"
	.file 18 "/usr/include/stdint.h"
	.file 19 "./lib/timespec.h"
	.file 20 "/usr/include/ctype.h"
	.file 21 "./lib/xalloc-oversized.h"
	.file 22 "/usr/include/x86_64-linux-gnu/bits/types/struct_FILE.h"
	.file 23 "/usr/include/x86_64-linux-gnu/bits/types/FILE.h"
	.file 24 "/usr/include/stdio.h"
	.file 25 "/usr/include/x86_64-linux-gnu/bits/sys_errlist.h"
	.file 26 "./lib/version-etc.h"
	.file 27 "./lib/progname.h"
	.file 28 "./lib/quotearg.h"
	.file 29 "./lib/error.h"
	.file 30 "./lib/fadvise.h"
	.file 31 "./lib/linebuffer.h"
	.file 32 "./lib/quote.h"
	.file 33 "./lib/xstrtol.h"
	.file 34 "./lib/argmatch.h"
	.file 35 "/usr/include/libintl.h"
	.file 36 "/usr/include/string.h"
	.file 37 "/usr/include/stdlib.h"
	.file 38 "/usr/include/locale.h"
	.file 39 "./lib/hard-locale.h"
	.file 40 "./lib/stdio.h"
	.file 41 "./lib/stdio-safer.h"
	.file 42 "/usr/include/assert.h"
	.file 43 "./lib/memcasecmp.h"
	.file 44 "./lib/xmemcoll.h"
	.section	.note.GNU-stack,"",@progbits
	.section	.note.gnu.property,"a"
	.align 8
	.long	 1f - 0f
	.long	 4f - 1f
	.long	 5
0:
	.string	 "GNU"
1:
	.align 8
	.long	 0xc0000002
	.long	 3f - 2f
2:
	.long	 0x3
3:
	.align 8
4:
