	.file	"kill.c"
	.text
.Ltext0:
	.section	.rodata.str1.1,"aMS",@progbits,1
.LC0:
	.string	"kill"
.LC1:
	.string	" invocation"
.LC2:
	.string	""
	.section	.rodata.str1.8,"aMS",@progbits,1
	.align 8
.LC3:
	.string	"Try '%s --help' for more information.\n"
	.align 8
.LC4:
	.string	"Usage: %s [-s SIGNAL | -SIGNAL] PID...\n  or:  %s -l [SIGNAL]...\n  or:  %s -t [SIGNAL]...\n"
	.align 8
.LC5:
	.string	"Send signals to processes, or list signals.\n"
	.align 8
.LC6:
	.string	"\nMandatory arguments to long options are mandatory for short options too.\n"
	.align 8
.LC7:
	.string	"  -s, --signal=SIGNAL, -SIGNAL\n                   specify the name or number of the signal to be sent\n  -l, --list       list signal names, or convert signal names to/from numbers\n  -t, --table      print a table of signal information\n"
	.align 8
.LC8:
	.string	"      --help     display this help and exit\n"
	.align 8
.LC9:
	.string	"      --version  output version information and exit\n"
	.align 8
.LC10:
	.string	"\nSIGNAL may be a signal name like 'HUP', or a signal number like '1',\nor the exit status of a process terminated by a signal.\nPID is an integer; if negative it identifies a process group.\n"
	.align 8
.LC11:
	.string	"\nNOTE: your shell may have its own version of %s, which usually supersedes\nthe version described here.  Please refer to your shell's documentation\nfor details about the options it supports.\n"
	.section	.rodata.str1.1
.LC12:
	.string	"["
.LC13:
	.string	"test invocation"
.LC14:
	.string	"coreutils"
.LC15:
	.string	"Multi-call invocation"
.LC16:
	.string	"sha224sum"
.LC17:
	.string	"sha2 utilities"
.LC18:
	.string	"sha256sum"
.LC19:
	.string	"sha384sum"
.LC20:
	.string	"sha512sum"
.LC21:
	.string	"\n%s online help: <%s>\n"
	.section	.rodata.str1.8
	.align 8
.LC22:
	.string	"https://www.gnu.org/software/coreutils/"
	.section	.rodata.str1.1
.LC23:
	.string	"GNU coreutils"
.LC24:
	.string	"en_"
	.section	.rodata.str1.8
	.align 8
.LC25:
	.string	"Report any translation bugs to <https://translationproject.org/team/>\n"
	.section	.rodata.str1.1
.LC26:
	.string	"Full documentation <%s%s>\n"
	.section	.rodata.str1.8
	.align 8
.LC27:
	.string	"or available locally via: info '(coreutils) %s%s'\n"
	.text
	.p2align 4
	.globl	usage
	.type	usage, @function
usage:
.LVL0:
.LFB135:
	.file 1 "src/kill.c"
	.loc 1 72 1 view -0
	.cfi_startproc
	.loc 1 72 1 is_stmt 0 view .LVU1
	endbr64
	pushq	%r13
	.cfi_def_cfa_offset 16
	.cfi_offset 13, -16
	.loc 1 74 5 view .LVU2
	movl	$5, %edx
	.loc 1 72 1 view .LVU3
	pushq	%r12
	.cfi_def_cfa_offset 24
	.cfi_offset 12, -24
	pushq	%rbp
	.cfi_def_cfa_offset 32
	.cfi_offset 6, -32
	movl	%edi, %ebp
	pushq	%rbx
	.cfi_def_cfa_offset 40
	.cfi_offset 3, -40
	subq	$136, %rsp
	.cfi_def_cfa_offset 176
	movq	program_name(%rip), %r12
	.loc 1 72 1 view .LVU4
	movq	%fs:40, %rax
	movq	%rax, 120(%rsp)
	xorl	%eax, %eax
	.loc 1 73 3 is_stmt 1 view .LVU5
	.loc 1 73 6 is_stmt 0 view .LVU6
	testl	%edi, %edi
	je	.L2
	.loc 1 74 5 is_stmt 1 view .LVU7
	.loc 1 74 5 view .LVU8
	leaq	.LC3(%rip), %rsi
	xorl	%edi, %edi
.LVL1:
	.loc 1 74 5 is_stmt 0 view .LVU9
	call	dcgettext@PLT
.LVL2:
.LBB45:
.LBB46:
	.file 2 "/usr/include/x86_64-linux-gnu/bits/stdio2.h"
	.loc 2 100 10 view .LVU10
	movq	stderr(%rip), %rdi
	movq	%r12, %rcx
	movl	$1, %esi
.LBE46:
.LBE45:
	.loc 1 74 5 view .LVU11
	movq	%rax, %rdx
.LVL3:
.LBB48:
.LBI45:
	.loc 2 98 1 is_stmt 1 view .LVU12
.LBB47:
	.loc 2 100 3 view .LVU13
	.loc 2 100 10 is_stmt 0 view .LVU14
	xorl	%eax, %eax
.LVL4:
	.loc 2 100 10 view .LVU15
	call	__fprintf_chk@PLT
.LVL5:
.L3:
	.loc 2 100 10 view .LVU16
.LBE47:
.LBE48:
	.loc 1 105 3 is_stmt 1 view .LVU17
	movl	%ebp, %edi
	call	exit@PLT
.LVL6:
.L2:
	.loc 1 77 7 view .LVU18
	.loc 1 77 15 is_stmt 0 view .LVU19
	leaq	.LC4(%rip), %rsi
	xorl	%edi, %edi
.LVL7:
.LBB49:
.LBB50:
	.file 3 "src/system.h"
	.loc 3 636 67 view .LVU20
	leaq	.LC18(%rip), %rbx
.LBE50:
.LBE49:
	.loc 1 77 15 view .LVU21
	call	dcgettext@PLT
.LVL8:
.LBB76:
.LBB77:
	.loc 2 107 10 view .LVU22
	movq	%r12, %r8
	movq	%r12, %rcx
	movq	%r12, %rdx
.LBE77:
.LBE76:
	.loc 1 77 15 view .LVU23
	movq	%rax, %rsi
.LVL9:
.LBB79:
.LBI76:
	.loc 2 105 1 is_stmt 1 view .LVU24
.LBB78:
	.loc 2 107 3 view .LVU25
	.loc 2 107 10 is_stmt 0 view .LVU26
	movl	$1, %edi
	xorl	%eax, %eax
.LVL10:
	.loc 2 107 10 view .LVU27
	call	__printf_chk@PLT
.LVL11:
	.loc 2 107 10 view .LVU28
.LBE78:
.LBE79:
	.loc 1 83 7 is_stmt 1 view .LVU29
	movq	stdout(%rip), %r12
	movl	$5, %edx
	xorl	%edi, %edi
	leaq	.LC5(%rip), %rsi
	call	dcgettext@PLT
.LVL12:
	movq	%r12, %rsi
	movq	%rax, %rdi
	call	fputs_unlocked@PLT
.LVL13:
	.loc 1 87 7 view .LVU30
.LBB80:
.LBI80:
	.loc 3 588 1 view .LVU31
.LBB81:
	.loc 3 590 3 view .LVU32
	movq	stdout(%rip), %r12
	movl	$5, %edx
	xorl	%edi, %edi
	leaq	.LC6(%rip), %rsi
	call	dcgettext@PLT
.LVL14:
	movq	%r12, %rsi
	movq	%rax, %rdi
	call	fputs_unlocked@PLT
.LVL15:
.LBE81:
.LBE80:
	.loc 1 89 7 view .LVU33
	movq	stdout(%rip), %r12
	movl	$5, %edx
	xorl	%edi, %edi
	leaq	.LC7(%rip), %rsi
	call	dcgettext@PLT
.LVL16:
	movq	%r12, %rsi
	movq	%rax, %rdi
	call	fputs_unlocked@PLT
.LVL17:
	.loc 1 95 7 view .LVU34
	movq	stdout(%rip), %r12
	movl	$5, %edx
	xorl	%edi, %edi
	leaq	.LC8(%rip), %rsi
	call	dcgettext@PLT
.LVL18:
	movq	%r12, %rsi
	movq	%rax, %rdi
	call	fputs_unlocked@PLT
.LVL19:
	.loc 1 96 7 view .LVU35
	movq	stdout(%rip), %r12
	movl	$5, %edx
	xorl	%edi, %edi
	leaq	.LC9(%rip), %rsi
	call	dcgettext@PLT
.LVL20:
	movq	%r12, %rsi
	movq	%rax, %rdi
	call	fputs_unlocked@PLT
.LVL21:
	.loc 1 97 7 view .LVU36
	movl	$5, %edx
	movq	stdout(%rip), %r12
	xorl	%edi, %edi
	leaq	.LC10(%rip), %rsi
	call	dcgettext@PLT
.LVL22:
	movq	%r12, %rsi
	movq	%rax, %rdi
	call	fputs_unlocked@PLT
.LVL23:
	.loc 1 102 7 view .LVU37
	.loc 1 102 15 is_stmt 0 view .LVU38
	movl	$5, %edx
	leaq	.LC11(%rip), %rsi
	xorl	%edi, %edi
	call	dcgettext@PLT
.LVL24:
.LBB82:
.LBB83:
	.loc 2 107 10 view .LVU39
	leaq	.LC0(%rip), %rdx
	movl	$1, %edi
.LBE83:
.LBE82:
	.loc 1 102 15 view .LVU40
	movq	%rax, %rsi
.LVL25:
.LBB85:
.LBI82:
	.loc 2 105 1 is_stmt 1 view .LVU41
.LBB84:
	.loc 2 107 3 view .LVU42
	.loc 2 107 10 is_stmt 0 view .LVU43
	xorl	%eax, %eax
.LVL26:
	.loc 2 107 10 view .LVU44
	call	__printf_chk@PLT
.LVL27:
	.loc 2 107 10 view .LVU45
.LBE84:
.LBE85:
	.loc 1 103 7 is_stmt 1 view .LVU46
.LBB86:
.LBI49:
	.loc 3 634 1 view .LVU47
.LBB75:
	.loc 3 636 3 view .LVU48
	.loc 3 636 67 is_stmt 0 view .LVU49
	leaq	.LC12(%rip), %rax
	movq	%rbx, 48(%rsp)
	leaq	.LC19(%rip), %rbx
	movq	%rax, (%rsp)
	leaq	.LC13(%rip), %rax
	movq	%rax, 8(%rsp)
	leaq	.LC14(%rip), %rax
	movq	%rax, 16(%rsp)
	leaq	.LC15(%rip), %rax
	movq	%rax, 24(%rsp)
	leaq	.LC16(%rip), %rax
	movq	$0, 96(%rsp)
	movq	$0, 104(%rsp)
	.loc 3 646 3 is_stmt 1 view .LVU50
.LVL28:
	.loc 3 647 3 view .LVU51
	.loc 3 649 3 view .LVU52
	.loc 3 649 9 view .LVU53
	.loc 3 636 67 is_stmt 0 view .LVU54
	movq	%rax, 32(%rsp)
	leaq	.LC17(%rip), %rax
	movq	%rbx, 64(%rsp)
	leaq	.LC20(%rip), %rbx
	movq	%rax, 40(%rsp)
	movq	%rax, 56(%rsp)
	movq	%rax, 72(%rsp)
	movq	%rbx, 80(%rsp)
	leaq	.LC0(%rip), %rbx
	movq	%rax, 88(%rsp)
	.loc 3 647 25 view .LVU55
	movq	%rsp, %rax
.LVL29:
	.p2align 4,,10
	.p2align 3
.L5:
	.loc 3 650 5 is_stmt 1 view .LVU56
	.loc 3 649 18 is_stmt 0 view .LVU57
	movq	16(%rax), %rdi
	.loc 3 650 13 view .LVU58
	addq	$16, %rax
.LVL30:
	.loc 3 649 9 is_stmt 1 view .LVU59
	testq	%rdi, %rdi
	je	.L4
	.loc 3 649 33 is_stmt 0 view .LVU60
	movl	$5, %ecx
	movq	%rbx, %rsi
	repz cmpsb
	seta	%dl
	sbbb	$0, %dl
	.loc 3 649 28 view .LVU61
	testb	%dl, %dl
	jne	.L5
.L4:
	.loc 3 652 3 is_stmt 1 view .LVU62
	.loc 3 652 15 is_stmt 0 view .LVU63
	movq	8(%rax), %r12
	.loc 3 655 11 view .LVU64
	movl	$5, %edx
	leaq	.LC21(%rip), %rsi
	xorl	%edi, %edi
	.loc 3 652 6 view .LVU65
	testq	%r12, %r12
	je	.L6
	.loc 3 653 5 is_stmt 1 view .LVU66
.LVL31:
	.loc 3 655 3 view .LVU67
	.loc 3 655 11 is_stmt 0 view .LVU68
	call	dcgettext@PLT
.LVL32:
.LBB51:
.LBB52:
	.loc 2 107 10 view .LVU69
	leaq	.LC22(%rip), %rcx
	movl	$1, %edi
	leaq	.LC23(%rip), %rdx
.LBE52:
.LBE51:
	.loc 3 655 11 view .LVU70
	movq	%rax, %rsi
.LVL33:
.LBB56:
.LBI51:
	.loc 2 105 1 is_stmt 1 view .LVU71
.LBB53:
	.loc 2 107 3 view .LVU72
	.loc 2 107 10 is_stmt 0 view .LVU73
	xorl	%eax, %eax
.LVL34:
	.loc 2 107 10 view .LVU74
	call	__printf_chk@PLT
.LVL35:
	.loc 2 107 10 view .LVU75
.LBE53:
.LBE56:
	.loc 3 659 3 is_stmt 1 view .LVU76
	.loc 3 659 29 is_stmt 0 view .LVU77
	movl	$5, %edi
	xorl	%esi, %esi
	call	setlocale@PLT
.LVL36:
	movq	%rax, %rdi
.LVL37:
	.loc 3 660 3 is_stmt 1 view .LVU78
	.loc 3 660 6 is_stmt 0 view .LVU79
	testq	%rax, %rax
	je	.L7
	.loc 3 660 22 view .LVU80
	movl	$3, %edx
	leaq	.LC24(%rip), %rsi
	call	strncmp@PLT
.LVL38:
	.loc 3 660 19 view .LVU81
	testl	%eax, %eax
	jne	.L10
.LVL39:
.L7:
	.loc 3 669 3 is_stmt 1 view .LVU82
	.loc 3 669 11 is_stmt 0 view .LVU83
	xorl	%edi, %edi
	movl	$5, %edx
	leaq	.LC26(%rip), %rsi
	call	dcgettext@PLT
.LVL40:
.LBB57:
.LBB58:
	.loc 2 107 10 view .LVU84
	leaq	.LC0(%rip), %rcx
	leaq	.LC22(%rip), %rdx
	movl	$1, %edi
.LBE58:
.LBE57:
	.loc 3 669 11 view .LVU85
	movq	%rax, %rsi
.LVL41:
.LBB64:
.LBI57:
	.loc 2 105 1 is_stmt 1 view .LVU86
.LBB59:
	.loc 2 107 3 view .LVU87
	.loc 2 107 10 is_stmt 0 view .LVU88
	xorl	%eax, %eax
.LVL42:
	.loc 2 107 10 view .LVU89
.LBE59:
.LBE64:
	.loc 3 671 3 view .LVU90
	leaq	.LC1(%rip), %r13
.LBB65:
.LBB60:
	.loc 2 107 10 view .LVU91
	call	__printf_chk@PLT
.LVL43:
	.loc 2 107 10 view .LVU92
.LBE60:
.LBE65:
	.loc 3 671 3 is_stmt 1 view .LVU93
	cmpq	%rbx, %r12
	leaq	.LC2(%rip), %rcx
	cmovne	%rcx, %r13
.L8:
	.loc 3 671 11 is_stmt 0 view .LVU94
	xorl	%edi, %edi
	leaq	.LC27(%rip), %rsi
	movl	$5, %edx
	call	dcgettext@PLT
.LVL44:
.LBB66:
.LBB67:
	.loc 2 107 10 view .LVU95
	movq	%r13, %rcx
	movq	%r12, %rdx
	movl	$1, %edi
.LBE67:
.LBE66:
	.loc 3 671 11 view .LVU96
	movq	%rax, %rsi
.LVL45:
.LBB69:
.LBI66:
	.loc 2 105 1 is_stmt 1 view .LVU97
.LBB68:
	.loc 2 107 3 view .LVU98
	.loc 2 107 10 is_stmt 0 view .LVU99
	xorl	%eax, %eax
.LVL46:
	.loc 2 107 10 view .LVU100
	call	__printf_chk@PLT
.LVL47:
	.loc 2 107 10 view .LVU101
.LBE68:
.LBE69:
	.loc 3 673 1 view .LVU102
	jmp	.L3
.LVL48:
.L6:
	.loc 3 655 3 is_stmt 1 view .LVU103
	.loc 3 655 11 is_stmt 0 view .LVU104
	call	dcgettext@PLT
.LVL49:
.LBB70:
.LBB54:
	.loc 2 107 10 view .LVU105
	leaq	.LC22(%rip), %rcx
	movl	$1, %edi
	leaq	.LC23(%rip), %rdx
.LBE54:
.LBE70:
	.loc 3 655 11 view .LVU106
	movq	%rax, %rsi
.LVL50:
.LBB71:
	.loc 2 105 1 is_stmt 1 view .LVU107
.LBB55:
	.loc 2 107 3 view .LVU108
	.loc 2 107 10 is_stmt 0 view .LVU109
	xorl	%eax, %eax
.LVL51:
	.loc 2 107 10 view .LVU110
	call	__printf_chk@PLT
.LVL52:
	.loc 2 107 10 view .LVU111
.LBE55:
.LBE71:
	.loc 3 659 3 is_stmt 1 view .LVU112
	.loc 3 659 29 is_stmt 0 view .LVU113
	movl	$5, %edi
	xorl	%esi, %esi
	call	setlocale@PLT
.LVL53:
	movq	%rax, %rdi
.LVL54:
	.loc 3 660 3 is_stmt 1 view .LVU114
	.loc 3 660 6 is_stmt 0 view .LVU115
	testq	%rax, %rax
	je	.L9
	.loc 3 660 22 view .LVU116
	movl	$3, %edx
	leaq	.LC24(%rip), %rsi
	call	strncmp@PLT
.LVL55:
	.loc 3 660 19 view .LVU117
	testl	%eax, %eax
	jne	.L29
.L9:
	.loc 3 669 3 is_stmt 1 view .LVU118
	.loc 3 669 11 is_stmt 0 view .LVU119
	movl	$5, %edx
	leaq	.LC26(%rip), %rsi
	xorl	%edi, %edi
	call	dcgettext@PLT
.LVL56:
.LBB72:
.LBB61:
	.loc 2 107 10 view .LVU120
	leaq	.LC0(%rip), %rcx
	leaq	.LC22(%rip), %rdx
	movl	$1, %edi
.LBE61:
.LBE72:
	.loc 3 669 11 view .LVU121
	movq	%rax, %rsi
.LVL57:
.LBB73:
	.loc 2 105 1 is_stmt 1 view .LVU122
.LBB62:
	.loc 2 107 3 view .LVU123
	.loc 2 107 10 is_stmt 0 view .LVU124
	xorl	%eax, %eax
.LVL58:
	.loc 2 107 10 view .LVU125
.LBE62:
.LBE73:
	.loc 3 646 15 view .LVU126
	leaq	.LC0(%rip), %r12
.LBB74:
.LBB63:
	.loc 2 107 10 view .LVU127
	call	__printf_chk@PLT
.LVL59:
	.loc 2 107 10 view .LVU128
.LBE63:
.LBE74:
	.loc 3 671 3 is_stmt 1 view .LVU129
	leaq	.LC1(%rip), %r13
	jmp	.L8
.L29:
	.loc 3 646 15 is_stmt 0 view .LVU130
	leaq	.LC0(%rip), %r12
.LVL60:
.L10:
	.loc 3 666 7 is_stmt 1 view .LVU131
	movq	stdout(%rip), %r13
	xorl	%edi, %edi
	movl	$5, %edx
	leaq	.LC25(%rip), %rsi
	call	dcgettext@PLT
.LVL61:
	movq	%rax, %rdi
	movq	%r13, %rsi
	call	fputs_unlocked@PLT
.LVL62:
	jmp	.L7
.LBE75:
.LBE86:
	.cfi_endproc
.LFE135:
	.size	usage, .-usage
	.section	.rodata.str1.1
.LC28:
	.string	"?"
.LC29:
	.string	"/usr/local/share/locale"
.LC30:
	.string	"invalid option -- %c"
	.section	.rodata.str1.8
	.align 8
.LC31:
	.string	"%s: multiple signals specified"
	.align 8
.LC32:
	.string	"multiple -l or -t options specified"
	.section	.rodata.str1.1
.LC33:
	.string	"Paul Eggert"
	.section	.rodata.str1.8
	.align 8
.LC34:
	.string	"cannot combine signal with -l or -t"
	.section	.rodata.str1.1
.LC35:
	.string	"no process ID specified"
.LC36:
	.string	"%*d %-*s %s\n"
.LC37:
	.string	"%d\n"
.LC38:
	.string	"%s: invalid process id"
.LC39:
	.string	"%s"
	.section	.text.startup,"ax",@progbits
	.p2align 4
	.globl	main
	.type	main, @function
main:
.LVL63:
.LFB139:
	.loc 1 222 1 view -0
	.cfi_startproc
	.loc 1 222 1 is_stmt 0 view .LVU133
	endbr64
	pushq	%r15
	.cfi_def_cfa_offset 16
	.cfi_offset 15, -16
	.loc 1 224 8 view .LVU134
	xorl	%r15d, %r15d
	.loc 1 222 1 view .LVU135
	pushq	%r14
	.cfi_def_cfa_offset 24
	.cfi_offset 14, -24
	.loc 1 225 8 view .LVU136
	xorl	%r14d, %r14d
	.loc 1 222 1 view .LVU137
	pushq	%r13
	.cfi_def_cfa_offset 32
	.cfi_offset 13, -32
	movl	%edi, %r13d
	pushq	%r12
	.cfi_def_cfa_offset 40
	.cfi_offset 12, -40
	movq	%rsi, %r12
	pushq	%rbp
	.cfi_def_cfa_offset 48
	.cfi_offset 6, -48
	leaq	.L37(%rip), %rbp
	pushq	%rbx
	.cfi_def_cfa_offset 56
	.cfi_offset 3, -56
	.loc 1 226 7 view .LVU138
	movl	$-1, %ebx
	.loc 1 222 1 view .LVU139
	subq	$104, %rsp
	.cfi_def_cfa_offset 160
	.loc 1 230 3 view .LVU140
	movq	(%rsi), %rdi
.LVL64:
	.loc 1 222 1 view .LVU141
	movq	%fs:40, %rax
	movq	%rax, 88(%rsp)
	xorl	%eax, %eax
	.loc 1 223 3 is_stmt 1 view .LVU142
	.loc 1 224 3 view .LVU143
.LVL65:
	.loc 1 225 3 view .LVU144
	.loc 1 226 3 view .LVU145
	.loc 1 227 3 view .LVU146
	.loc 1 229 33 view .LVU147
	.loc 1 230 3 view .LVU148
	call	set_program_name@PLT
.LVL66:
	.loc 1 231 3 view .LVU149
	leaq	.LC2(%rip), %rsi
	movl	$6, %edi
	call	setlocale@PLT
.LVL67:
	.loc 1 232 3 view .LVU150
	leaq	.LC29(%rip), %rsi
	leaq	.LC14(%rip), %rdi
	call	bindtextdomain@PLT
.LVL68:
	.loc 1 233 3 view .LVU151
	leaq	.LC14(%rip), %rdi
	call	textdomain@PLT
.LVL69:
	.loc 1 235 3 view .LVU152
	movq	close_stdout@GOTPCREL(%rip), %rdi
	call	atexit@PLT
.LVL70:
	.loc 1 237 3 view .LVU153
	.p2align 4,,10
	.p2align 3
.L31:
	.loc 1 237 9 view .LVU154
	.loc 1 237 18 is_stmt 0 view .LVU155
	xorl	%r8d, %r8d
	leaq	long_options(%rip), %rcx
	movq	%r12, %rsi
	movl	%r13d, %edi
	leaq	short_options(%rip), %rdx
	call	getopt_long@PLT
.LVL71:
	movl	%eax, %r8d
.LVL72:
	.loc 1 237 9 view .LVU156
	cmpl	$-1, %eax
	je	.L44
	.loc 1 239 5 is_stmt 1 view .LVU157
	cmpl	$116, %r8d
	jg	.L103
	cmpl	$47, %r8d
	jle	.L105
	leal	-48(%r8), %eax
.LVL73:
	.loc 1 239 5 is_stmt 0 view .LVU158
	cmpl	$68, %eax
	ja	.L103
	movslq	0(%rbp,%rax,4), %rax
	addq	%rbp, %rax
	notrack jmp	*%rax
	.section	.rodata
	.align 4
	.align 4
.L37:
	.long	.L41-.L37
	.long	.L41-.L37
	.long	.L41-.L37
	.long	.L41-.L37
	.long	.L41-.L37
	.long	.L41-.L37
	.long	.L41-.L37
	.long	.L41-.L37
	.long	.L41-.L37
	.long	.L41-.L37
	.long	.L103-.L37
	.long	.L103-.L37
	.long	.L103-.L37
	.long	.L103-.L37
	.long	.L103-.L37
	.long	.L103-.L37
	.long	.L103-.L37
	.long	.L40-.L37
	.long	.L40-.L37
	.long	.L40-.L37
	.long	.L40-.L37
	.long	.L40-.L37
	.long	.L40-.L37
	.long	.L40-.L37
	.long	.L40-.L37
	.long	.L40-.L37
	.long	.L40-.L37
	.long	.L40-.L37
	.long	.L36-.L37
	.long	.L40-.L37
	.long	.L40-.L37
	.long	.L40-.L37
	.long	.L40-.L37
	.long	.L40-.L37
	.long	.L40-.L37
	.long	.L40-.L37
	.long	.L40-.L37
	.long	.L40-.L37
	.long	.L40-.L37
	.long	.L40-.L37
	.long	.L40-.L37
	.long	.L40-.L37
	.long	.L40-.L37
	.long	.L103-.L37
	.long	.L103-.L37
	.long	.L103-.L37
	.long	.L103-.L37
	.long	.L103-.L37
	.long	.L103-.L37
	.long	.L103-.L37
	.long	.L103-.L37
	.long	.L103-.L37
	.long	.L103-.L37
	.long	.L103-.L37
	.long	.L103-.L37
	.long	.L103-.L37
	.long	.L103-.L37
	.long	.L103-.L37
	.long	.L103-.L37
	.long	.L103-.L37
	.long	.L39-.L37
	.long	.L103-.L37
	.long	.L38-.L37
	.long	.L103-.L37
	.long	.L103-.L37
	.long	.L103-.L37
	.long	.L103-.L37
	.long	.L38-.L37
	.long	.L36-.L37
	.section	.text.startup
.L36:
	movl	$1, %r14d
.LVL74:
.L39:
	.loc 1 280 9 is_stmt 1 view .LVU159
	.loc 1 282 9 view .LVU160
	.loc 1 282 12 is_stmt 0 view .LVU161
	testb	%r15b, %r15b
	jne	.L106
	.loc 1 287 14 view .LVU162
	movl	$1, %r15d
.LVL75:
	.loc 1 287 14 view .LVU163
	jmp	.L31
.LVL76:
.L40:
	.loc 1 287 14 view .LVU164
	movslq	optind(%rip), %rax
.L43:
	.loc 1 249 9 is_stmt 1 view .LVU165
	.loc 1 256 9 view .LVU166
	.loc 1 256 13 is_stmt 0 view .LVU167
	movq	optarg(%rip), %rcx
	leaq	-8(%r12,%rax,8), %rsi
	movq	(%rsi), %rdx
	.loc 1 256 12 view .LVU168
	testq	%rcx, %rcx
	je	.L107
.L45:
	.loc 1 258 9 is_stmt 1 view .LVU169
	.loc 1 258 40 is_stmt 0 view .LVU170
	leaq	2(%rdx), %rax
	.loc 1 258 12 view .LVU171
	cmpq	%rax, %rcx
	jne	.L108
	.loc 1 263 9 is_stmt 1 view .LVU172
	.loc 1 263 15 is_stmt 0 view .LVU173
	leaq	1(%rdx), %rdi
	movq	%rdi, optarg(%rip)
.L42:
	.loc 1 264 9 is_stmt 1 view .LVU174
	.loc 1 267 9 view .LVU175
	.loc 1 267 12 is_stmt 0 view .LVU176
	cmpl	$-1, %ebx
	jne	.L109
	.loc 1 272 9 is_stmt 1 view .LVU177
	.loc 1 272 18 is_stmt 0 view .LVU178
	leaq	32(%rsp), %rsi
	call	operand2sig@PLT
.LVL77:
	.loc 1 272 18 view .LVU179
	movl	%eax, %ebx
.LVL78:
	.loc 1 273 9 is_stmt 1 view .LVU180
	.loc 1 273 12 is_stmt 0 view .LVU181
	testl	%eax, %eax
	jns	.L31
.LVL79:
.L103:
	.loc 1 285 13 is_stmt 1 view .LVU182
	movl	$1, %edi
	call	usage
.LVL80:
.L38:
	.loc 1 285 13 is_stmt 0 view .LVU183
	movq	optarg(%rip), %rdi
	jmp	.L42
.L41:
	.loc 1 243 9 is_stmt 1 view .LVU184
	.loc 1 243 20 is_stmt 0 view .LVU185
	movslq	optind(%rip), %rax
	.loc 1 243 12 view .LVU186
	cmpl	$2, %eax
	je	.L43
	.loc 1 246 13 is_stmt 1 view .LVU187
	.loc 1 246 19 is_stmt 0 view .LVU188
	subl	$1, %eax
	movl	%eax, optind(%rip)
	.loc 1 247 13 is_stmt 1 view .LVU189
.L44:
	.loc 1 297 3 view .LVU190
	movslq	optind(%rip), %rax
	.loc 1 297 6 is_stmt 0 view .LVU191
	cmpl	$-1, %ebx
	je	.L50
	.loc 1 299 8 is_stmt 1 view .LVU192
	.loc 1 301 20 is_stmt 0 view .LVU193
	movl	$5, %edx
	leaq	.LC34(%rip), %rsi
	.loc 1 299 11 view .LVU194
	testb	%r15b, %r15b
	jne	.L104
.LVL81:
.L51:
	.loc 1 307 20 discriminator 1 view .LVU195
	movl	$5, %edx
	leaq	.LC35(%rip), %rsi
	.loc 1 305 15 discriminator 1 view .LVU196
	cmpl	%r13d, %eax
	jge	.L104
	.loc 1 311 3 is_stmt 1 discriminator 1 view .LVU197
	.loc 1 313 40 is_stmt 0 discriminator 1 view .LVU198
	leaq	(%r12,%rax,8), %rbp
.LVL82:
.LBB106:
.LBI106:
	.loc 1 193 1 is_stmt 1 discriminator 1 view .LVU199
.LBB107:
	.loc 1 195 3 discriminator 1 view .LVU200
	.loc 1 196 3 discriminator 1 view .LVU201
	.loc 1 195 7 is_stmt 0 discriminator 1 view .LVU202
	xorl	%r14d, %r14d
.LVL83:
	.loc 1 195 7 discriminator 1 view .LVU203
	leaq	24(%rsp), %r13
.LVL84:
.LBB108:
	.loc 1 201 21 discriminator 1 view .LVU204
	call	__errno_location@PLT
.LVL85:
	.loc 1 201 21 discriminator 1 view .LVU205
.LBE108:
	.loc 1 196 15 discriminator 1 view .LVU206
	movq	0(%rbp), %r15
.LVL86:
.LBB111:
	.loc 1 201 21 discriminator 1 view .LVU207
	movq	%rax, %r12
.LVL87:
	.loc 1 201 21 discriminator 1 view .LVU208
	jmp	.L79
.LVL88:
	.p2align 4,,10
	.p2align 3
.L105:
	.loc 1 201 21 discriminator 1 view .LVU209
.LBE111:
.LBE107:
.LBE106:
	.loc 1 239 5 view .LVU210
	cmpl	$-131, %r8d
	jne	.L110
	.loc 1 290 7 is_stmt 1 view .LVU211
	.loc 1 290 28 view .LVU212
	.loc 1 291 7 view .LVU213
	movq	stdout(%rip), %rdi
	movq	Version(%rip), %rcx
	xorl	%eax, %eax
.LVL89:
	.loc 1 291 7 is_stmt 0 view .LVU214
	xorl	%r9d, %r9d
	leaq	.LC33(%rip), %r8
.LVL90:
	.loc 1 291 7 view .LVU215
	leaq	.LC23(%rip), %rdx
	leaq	.LC0(%rip), %rsi
	call	version_etc@PLT
.LVL91:
	.loc 1 291 7 is_stmt 1 view .LVU216
	xorl	%edi, %edi
	call	exit@PLT
.LVL92:
.L110:
	.loc 1 239 5 is_stmt 0 view .LVU217
	cmpl	$-130, %r8d
	jne	.L103
	.loc 1 290 7 is_stmt 1 view .LVU218
	xorl	%edi, %edi
	call	usage
.LVL93:
.L107:
	.loc 1 257 11 view .LVU219
	.loc 1 257 39 is_stmt 0 view .LVU220
	movq	%rdx, %rdi
	orq	$-1, %rcx
	xorl	%eax, %eax
	repnz scasb
	notq	%rcx
	.loc 1 257 37 view .LVU221
	leaq	-1(%rdx,%rcx), %rcx
	.loc 1 257 18 view .LVU222
	movq	%rcx, optarg(%rip)
	movq	(%rsi), %rdx
	jmp	.L45
.LVL94:
.L111:
.LBB117:
.LBB115:
.LBB112:
	.loc 1 204 46 view .LVU223
	movq	24(%rsp), %rdx
	.loc 1 204 39 view .LVU224
	cmpq	%rdx, %r15
	je	.L76
	.loc 1 204 54 view .LVU225
	cmpb	$0, (%rdx)
	je	.L77
.L76:
	.loc 1 206 11 is_stmt 1 view .LVU226
	movq	%r15, %rdi
	call	quote@PLT
.LVL95:
	.loc 1 206 24 is_stmt 0 view .LVU227
	movl	$5, %edx
	leaq	.LC38(%rip), %rsi
	xorl	%edi, %edi
	.loc 1 206 11 view .LVU228
	movq	%rax, %r14
.LVL96:
	.loc 1 206 24 view .LVU229
	call	dcgettext@PLT
.LVL97:
	.loc 1 206 11 view .LVU230
	movq	%r14, %rcx
	xorl	%esi, %esi
	xorl	%edi, %edi
	.loc 1 206 24 view .LVU231
	movq	%rax, %rdx
	.loc 1 206 11 view .LVU232
	xorl	%eax, %eax
	.loc 1 207 18 view .LVU233
	movl	$1, %r14d
	.loc 1 206 11 view .LVU234
	call	error@PLT
.LVL98:
	.loc 1 207 11 is_stmt 1 view .LVU235
.L78:
	.loc 1 207 11 is_stmt 0 view .LVU236
.LBE112:
	.loc 1 215 9 is_stmt 1 view .LVU237
	.loc 1 215 15 is_stmt 0 view .LVU238
	movq	8(%rbp), %r15
.LVL99:
	.loc 1 215 3 view .LVU239
	addq	$8, %rbp
.LVL100:
	.loc 1 215 3 view .LVU240
	testq	%r15, %r15
	je	.L30
.LVL101:
.L79:
	.loc 1 198 3 is_stmt 1 view .LVU241
.LBB113:
	.loc 1 200 7 view .LVU242
	.loc 1 201 7 view .LVU243
	.loc 1 201 27 is_stmt 0 view .LVU244
	movl	$0, (%r12)
.LVL102:
.LBB109:
.LBI109:
	.file 4 "/usr/include/inttypes.h"
	.loc 4 324 1 is_stmt 1 view .LVU245
.LBB110:
	.loc 4 327 3 view .LVU246
	.loc 4 327 10 is_stmt 0 view .LVU247
	xorl	%ecx, %ecx
	movq	%r13, %rsi
	movq	%r15, %rdi
	movl	$10, %edx
	call	__strtol_internal@PLT
.LVL103:
	.loc 4 327 10 view .LVU248
.LBE110:
.LBE109:
	.loc 1 202 7 is_stmt 1 view .LVU249
	.loc 1 204 7 view .LVU250
	.loc 1 204 10 is_stmt 0 view .LVU251
	cmpl	$34, (%r12)
	je	.L76
	.loc 1 204 34 view .LVU252
	movslq	%eax, %rdx
	.loc 1 204 27 view .LVU253
	cmpq	%rdx, %rax
	jne	.L76
	jmp	.L111
.LVL104:
.L74:
	.loc 1 204 27 view .LVU254
.LBE113:
.LBE115:
.LBE117:
.LBB118:
.LBB119:
	.loc 1 129 7 view .LVU255
	xorl	%r14d, %r14d
.LVL105:
.L30:
	.loc 1 129 7 view .LVU256
.LBE119:
.LBE118:
	.loc 1 314 1 view .LVU257
	movq	88(%rsp), %rax
	xorq	%fs:40, %rax
	jne	.L112
	addq	$104, %rsp
	.cfi_remember_state
	.cfi_def_cfa_offset 56
	movl	%r14d, %eax
	popq	%rbx
	.cfi_def_cfa_offset 48
	popq	%rbp
	.cfi_def_cfa_offset 40
	popq	%r12
	.cfi_def_cfa_offset 32
	popq	%r13
	.cfi_def_cfa_offset 24
	popq	%r14
	.cfi_def_cfa_offset 16
	popq	%r15
	.cfi_def_cfa_offset 8
	ret
.LVL106:
.L50:
	.cfi_restore_state
	.loc 1 305 3 is_stmt 1 view .LVU258
	.loc 1 305 6 is_stmt 0 view .LVU259
	testb	%r15b, %r15b
	je	.L113
	.loc 1 311 3 is_stmt 1 view .LVU260
	.loc 1 312 13 is_stmt 0 view .LVU261
	cmpl	%r13d, %eax
	jl	.L114
.LVL107:
.LBB150:
.LBI118:
	.loc 1 126 1 is_stmt 1 discriminator 4 view .LVU262
.LBB146:
	.loc 1 128 3 discriminator 4 view .LVU263
	.loc 1 129 3 discriminator 4 view .LVU264
	.loc 1 130 3 discriminator 4 view .LVU265
	.loc 1 132 3 discriminator 4 view .LVU266
	.loc 1 132 6 is_stmt 0 discriminator 4 view .LVU267
	testb	%r14b, %r14b
	je	.L82
.LBE146:
.LBE150:
	.loc 1 312 13 view .LVU268
	xorl	%ebp, %ebp
.LVL108:
.L55:
.LBB151:
.LBB147:
.LBB120:
	.loc 1 139 9 is_stmt 1 view .LVU269
	.loc 1 138 53 view .LVU270
	.loc 1 138 24 view .LVU271
	.loc 1 134 20 is_stmt 0 view .LVU272
	xorl	%r12d, %r12d
.LVL109:
	.loc 1 142 19 view .LVU273
	movl	$1, %ebx
	leaq	64(%rsp), %r13
.LVL110:
	.p2align 4,,10
	.p2align 3
.L61:
	.loc 1 143 9 is_stmt 1 view .LVU274
	.loc 1 143 13 is_stmt 0 view .LVU275
	movq	%r13, %rsi
	movl	%ebx, %edi
	call	sig2str@PLT
.LVL111:
	.loc 1 143 12 view .LVU276
	testl	%eax, %eax
	jne	.L58
.LBB121:
	.loc 1 145 13 is_stmt 1 view .LVU277
	.loc 1 145 26 is_stmt 0 view .LVU278
	movq	%r13, %rdx
.L59:
	movl	(%rdx), %ecx
	addq	$4, %rdx
	leal	-16843009(%rcx), %eax
	notl	%ecx
	andl	%ecx, %eax
	andl	$-2139062144, %eax
	je	.L59
	movl	%eax, %ecx
	shrl	$16, %ecx
	testl	$32896, %eax
	cmove	%ecx, %eax
	leaq	2(%rdx), %rcx
	cmove	%rcx, %rdx
	movl	%eax, %esi
	addb	%al, %sil
	.loc 1 146 28 view .LVU279
	movl	%r12d, %eax
	.loc 1 145 26 view .LVU280
	sbbq	$3, %rdx
	subq	%r13, %rdx
.LVL112:
	.loc 1 146 13 is_stmt 1 view .LVU281
	.loc 1 147 26 is_stmt 0 view .LVU282
	cmpq	%rax, %rdx
	cmova	%edx, %r12d
.LVL113:
.L58:
	.loc 1 147 26 view .LVU283
.LBE121:
	.loc 1 142 48 is_stmt 1 view .LVU284
	.loc 1 142 54 is_stmt 0 view .LVU285
	addl	$1, %ebx
.LVL114:
	.loc 1 142 24 is_stmt 1 view .LVU286
	.loc 1 142 7 is_stmt 0 view .LVU287
	cmpl	$65, %ebx
	jne	.L61
	.loc 1 150 7 is_stmt 1 view .LVU288
.LBE120:
	.loc 1 129 7 is_stmt 0 view .LVU289
	xorl	%r14d, %r14d
.LVL115:
.LBB142:
.LBB122:
.LBB123:
	.loc 1 117 3 view .LVU290
	leaq	.LC28(%rip), %rbx
.LVL116:
	.loc 1 117 3 view .LVU291
.LBE123:
.LBE122:
	.loc 1 150 10 view .LVU292
	testq	%rbp, %rbp
	jne	.L62
	jmp	.L115
.LVL117:
.L84:
	.loc 1 155 22 view .LVU293
	movl	$1, %r14d
.LVL118:
.L64:
	.loc 1 151 23 is_stmt 1 view .LVU294
	.loc 1 151 27 is_stmt 0 view .LVU295
	addq	$8, %rbp
.LVL119:
.L62:
	.loc 1 151 16 is_stmt 1 view .LVU296
	movq	0(%rbp), %rdi
	.loc 1 151 9 is_stmt 0 view .LVU297
	testq	%rdi, %rdi
	je	.L30
	.loc 1 153 13 is_stmt 1 view .LVU298
	.loc 1 153 22 is_stmt 0 view .LVU299
	movq	%r13, %rsi
	call	operand2sig@PLT
.LVL120:
	movl	%eax, %r15d
.LVL121:
	.loc 1 154 13 is_stmt 1 view .LVU300
	.loc 1 154 16 is_stmt 0 view .LVU301
	testl	%eax, %eax
	js	.L84
	.loc 1 157 15 is_stmt 1 view .LVU302
.LVL122:
.LBB131:
.LBI122:
	.loc 1 113 1 view .LVU303
.LBB130:
	.loc 1 116 3 view .LVU304
	.loc 1 116 29 is_stmt 0 view .LVU305
	movl	%eax, %edi
	call	strsignal@PLT
.LVL123:
	.loc 1 117 3 is_stmt 1 view .LVU306
.LBB124:
.LBB125:
	.loc 2 107 10 is_stmt 0 view .LVU307
	movq	%r13, %r9
	movl	%r12d, %r8d
	movl	%r15d, %ecx
.LBE125:
.LBE124:
	.loc 1 117 3 view .LVU308
	testq	%rax, %rax
.LBB128:
.LBB126:
	.loc 2 107 10 view .LVU309
	pushq	%rdi
	.cfi_def_cfa_offset 168
	movl	$2, %edx
	leaq	.LC36(%rip), %rsi
.LBE126:
.LBE128:
	.loc 1 117 3 view .LVU310
	cmove	%rbx, %rax
.LVL124:
.LBB129:
.LBI124:
	.loc 2 105 1 is_stmt 1 view .LVU311
.LBB127:
	.loc 2 107 3 view .LVU312
	.loc 2 107 10 is_stmt 0 view .LVU313
	movl	$1, %edi
	pushq	%rax
	.cfi_def_cfa_offset 176
	xorl	%eax, %eax
	call	__printf_chk@PLT
.LVL125:
	.loc 2 107 10 view .LVU314
.LBE127:
.LBE129:
	.loc 1 119 1 view .LVU315
	popq	%r8
	.cfi_def_cfa_offset 168
	popq	%r9
	.cfi_def_cfa_offset 160
	jmp	.L64
.LVL126:
.L114:
	.loc 1 119 1 view .LVU316
.LBE130:
.LBE131:
.LBE142:
.LBE147:
.LBE151:
	.loc 1 312 13 discriminator 1 view .LVU317
	leaq	(%r12,%rax,8), %rbp
.LVL127:
.LBB152:
	.loc 1 126 1 is_stmt 1 discriminator 1 view .LVU318
.LBB148:
	.loc 1 128 3 discriminator 1 view .LVU319
	.loc 1 129 3 discriminator 1 view .LVU320
	.loc 1 130 3 discriminator 1 view .LVU321
	.loc 1 132 3 discriminator 1 view .LVU322
	.loc 1 132 6 is_stmt 0 discriminator 1 view .LVU323
	testb	%r14b, %r14b
	jne	.L55
	.loc 1 132 6 view .LVU324
	xorl	%r14d, %r14d
.LVL128:
	.loc 1 169 22 view .LVU325
	leaq	64(%rsp), %rbx
	jmp	.L56
.LVL129:
.L116:
	.loc 1 174 17 is_stmt 1 view .LVU326
	.loc 1 174 21 is_stmt 0 view .LVU327
	movq	0(%rbp), %rax
.LVL130:
	.loc 1 174 21 view .LVU328
	movsbl	(%rax), %eax
	subl	$48, %eax
	.loc 1 174 20 view .LVU329
	cmpl	$9, %eax
	ja	.L71
	.loc 1 175 19 is_stmt 1 view .LVU330
	movq	%rbx, %rdi
	call	puts@PLT
.LVL131:
.L70:
	.loc 1 167 23 view .LVU331
	.loc 1 167 27 is_stmt 0 view .LVU332
	addq	$8, %rbp
.LVL132:
.L56:
	.loc 1 167 16 is_stmt 1 view .LVU333
	movq	0(%rbp), %rdi
	.loc 1 167 9 is_stmt 0 view .LVU334
	testq	%rdi, %rdi
	je	.L30
	.loc 1 169 13 is_stmt 1 view .LVU335
	.loc 1 169 22 is_stmt 0 view .LVU336
	movq	%rbx, %rsi
	call	operand2sig@PLT
.LVL133:
	movl	%eax, %edx
.LVL134:
	.loc 1 170 13 is_stmt 1 view .LVU337
	.loc 1 170 16 is_stmt 0 view .LVU338
	testl	%eax, %eax
	jns	.L116
	.loc 1 171 22 view .LVU339
	movl	$1, %r14d
.LVL135:
	.loc 1 171 22 view .LVU340
	jmp	.L70
.LVL136:
.L77:
	.loc 1 171 22 view .LVU341
.LBE148:
.LBE152:
.LBB153:
.LBB116:
.LBB114:
	.loc 1 209 12 is_stmt 1 view .LVU342
	.loc 1 209 16 is_stmt 0 view .LVU343
	movl	%ebx, %esi
	movl	%eax, %edi
	call	kill@PLT
.LVL137:
	.loc 1 209 15 view .LVU344
	testl	%eax, %eax
	je	.L78
	.loc 1 211 11 is_stmt 1 view .LVU345
	movq	%r15, %rdi
	.loc 1 212 18 is_stmt 0 view .LVU346
	movl	$1, %r14d
.LVL138:
	.loc 1 211 11 view .LVU347
	call	quote@PLT
.LVL139:
	movl	(%r12), %esi
	leaq	.LC39(%rip), %rdx
	xorl	%edi, %edi
	movq	%rax, %rcx
	xorl	%eax, %eax
	call	error@PLT
.LVL140:
	.loc 1 212 11 is_stmt 1 view .LVU348
	.loc 1 212 11 is_stmt 0 view .LVU349
	jmp	.L78
.LVL141:
.L71:
	.loc 1 212 11 view .LVU350
.LBE114:
.LBE116:
.LBE153:
.LBB154:
.LBB149:
	.loc 1 177 19 is_stmt 1 view .LVU351
.LBB143:
.LBI143:
	.loc 2 105 1 view .LVU352
.LBB144:
	.loc 2 107 3 view .LVU353
	.loc 2 107 10 is_stmt 0 view .LVU354
	leaq	.LC37(%rip), %rsi
	movl	$1, %edi
	xorl	%eax, %eax
	call	__printf_chk@PLT
.LVL142:
	.loc 2 107 10 view .LVU355
	jmp	.L70
.LVL143:
.L82:
	.loc 2 107 10 view .LVU356
.LBE144:
.LBE143:
	.loc 1 181 21 view .LVU357
	movl	$1, %ebx
	leaq	64(%rsp), %r13
.LVL144:
	.loc 1 181 21 view .LVU358
	jmp	.L57
.LVL145:
	.p2align 4,,10
	.p2align 3
.L73:
	.loc 1 181 50 is_stmt 1 view .LVU359
	.loc 1 181 56 is_stmt 0 view .LVU360
	addl	$1, %ebx
.LVL146:
	.loc 1 181 26 is_stmt 1 view .LVU361
	.loc 1 181 9 is_stmt 0 view .LVU362
	cmpl	$65, %ebx
	je	.L74
.LVL147:
.L57:
	.loc 1 182 11 is_stmt 1 view .LVU363
	.loc 1 182 15 is_stmt 0 view .LVU364
	movq	%r13, %rsi
	movl	%ebx, %edi
	call	sig2str@PLT
.LVL148:
	.loc 1 182 14 view .LVU365
	testl	%eax, %eax
	jne	.L73
	.loc 1 183 13 is_stmt 1 view .LVU366
	movq	%r13, %rdi
	call	puts@PLT
.LVL149:
	jmp	.L73
.LVL150:
.L115:
.LBB145:
	.loc 1 160 21 is_stmt 0 view .LVU367
	movl	$1, %ebx
.LBB132:
.LBB133:
	.loc 1 117 3 view .LVU368
	leaq	.LC28(%rip), %rbp
	jmp	.L63
.LVL151:
	.p2align 4,,10
	.p2align 3
.L68:
	.loc 1 117 3 view .LVU369
.LBE133:
.LBE132:
	.loc 1 160 50 is_stmt 1 view .LVU370
	.loc 1 160 56 is_stmt 0 view .LVU371
	addl	$1, %ebx
.LVL152:
	.loc 1 160 26 is_stmt 1 view .LVU372
	.loc 1 160 9 is_stmt 0 view .LVU373
	cmpl	$65, %ebx
	je	.L74
.LVL153:
.L63:
	.loc 1 161 11 is_stmt 1 view .LVU374
	.loc 1 161 15 is_stmt 0 view .LVU375
	movq	%r13, %rsi
	movl	%ebx, %edi
	call	sig2str@PLT
.LVL154:
	.loc 1 161 14 view .LVU376
	testl	%eax, %eax
	jne	.L68
	.loc 1 162 13 is_stmt 1 view .LVU377
.LVL155:
.LBB141:
.LBI132:
	.loc 1 113 1 view .LVU378
.LBB140:
	.loc 1 116 3 view .LVU379
	.loc 1 116 29 is_stmt 0 view .LVU380
	movl	%ebx, %edi
	call	strsignal@PLT
.LVL156:
	.loc 1 117 3 is_stmt 1 view .LVU381
.LBB134:
.LBB135:
	.loc 2 107 10 is_stmt 0 view .LVU382
	movl	%ebx, %ecx
	movq	%r13, %r9
	movl	%r12d, %r8d
.LBE135:
.LBE134:
	.loc 1 117 3 view .LVU383
	testq	%rax, %rax
.LBB138:
.LBB136:
	.loc 2 107 10 view .LVU384
	pushq	%rdx
	.cfi_def_cfa_offset 168
	leaq	.LC36(%rip), %rsi
	movl	$2, %edx
.LBE136:
.LBE138:
	.loc 1 117 3 view .LVU385
	cmove	%rbp, %rax
.LVL157:
.LBB139:
.LBI134:
	.loc 2 105 1 is_stmt 1 view .LVU386
.LBB137:
	.loc 2 107 3 view .LVU387
	.loc 2 107 10 is_stmt 0 view .LVU388
	movl	$1, %edi
	pushq	%rax
	.cfi_def_cfa_offset 176
	xorl	%eax, %eax
	call	__printf_chk@PLT
.LVL158:
	.loc 2 107 10 view .LVU389
.LBE137:
.LBE139:
	.loc 1 119 1 view .LVU390
	popq	%rcx
	.cfi_def_cfa_offset 168
	popq	%rsi
	.cfi_def_cfa_offset 160
	jmp	.L68
.LVL159:
.L109:
	.loc 1 119 1 view .LVU391
.LBE140:
.LBE141:
.LBE145:
.LBE149:
.LBE154:
	.loc 1 269 13 is_stmt 1 view .LVU392
	call	quote@PLT
.LVL160:
	.loc 1 269 26 is_stmt 0 view .LVU393
	movl	$5, %edx
	leaq	.LC31(%rip), %rsi
	xorl	%edi, %edi
	.loc 1 269 13 view .LVU394
	movq	%rax, %r12
.LVL161:
	.loc 1 269 26 view .LVU395
	call	dcgettext@PLT
.LVL162:
	.loc 1 269 13 view .LVU396
	xorl	%edi, %edi
	movq	%r12, %rcx
	xorl	%esi, %esi
	.loc 1 269 26 view .LVU397
	movq	%rax, %rdx
	.loc 1 269 13 view .LVU398
	xorl	%eax, %eax
	call	error@PLT
.LVL163:
	.loc 1 270 13 is_stmt 1 view .LVU399
	movl	$1, %edi
	call	usage
.LVL164:
.L106:
	.loc 1 284 13 view .LVU400
	.loc 1 284 26 is_stmt 0 view .LVU401
	movl	$5, %edx
	leaq	.LC32(%rip), %rsi
.L104:
	.loc 1 284 26 view .LVU402
	xorl	%edi, %edi
	call	dcgettext@PLT
.LVL165:
	.loc 1 284 13 view .LVU403
	xorl	%esi, %esi
	xorl	%edi, %edi
	.loc 1 284 26 view .LVU404
	movq	%rax, %rdx
	.loc 1 284 13 view .LVU405
	xorl	%eax, %eax
	call	error@PLT
.LVL166:
	jmp	.L103
.LVL167:
.L108:
	.loc 1 260 26 view .LVU406
	movl	$5, %edx
	leaq	.LC30(%rip), %rsi
	xorl	%edi, %edi
	movl	%r8d, 12(%rsp)
	.loc 1 260 13 is_stmt 1 view .LVU407
	.loc 1 260 26 is_stmt 0 view .LVU408
	call	dcgettext@PLT
.LVL168:
	.loc 1 260 13 view .LVU409
	movl	12(%rsp), %r8d
	xorl	%edi, %edi
	xorl	%esi, %esi
	.loc 1 260 26 view .LVU410
	movq	%rax, %rdx
	.loc 1 260 13 view .LVU411
	xorl	%eax, %eax
	movl	%r8d, %ecx
	call	error@PLT
.LVL169:
	.loc 1 261 13 is_stmt 1 view .LVU412
	movl	$1, %edi
	call	usage
.LVL170:
.L113:
	.loc 1 298 12 is_stmt 0 view .LVU413
	movl	$15, %ebx
	jmp	.L51
.LVL171:
.L112:
	.loc 1 314 1 view .LVU414
	call	__stack_chk_fail@PLT
.LVL172:
	.cfi_endproc
.LFE139:
	.size	main, .-main
	.section	.rodata.str1.1
.LC40:
	.string	"list"
.LC41:
	.string	"signal"
.LC42:
	.string	"table"
.LC43:
	.string	"help"
.LC44:
	.string	"version"
	.section	.data.rel.ro.local,"aw"
	.align 32
	.type	long_options, @object
	.size	long_options, 192
long_options:
	.quad	.LC40
	.long	0
	.zero	4
	.quad	0
	.long	108
	.zero	4
	.quad	.LC41
	.long	1
	.zero	4
	.quad	0
	.long	115
	.zero	4
	.quad	.LC42
	.long	0
	.zero	4
	.quad	0
	.long	116
	.zero	4
	.quad	.LC43
	.long	0
	.zero	4
	.quad	0
	.long	-130
	.zero	4
	.quad	.LC44
	.long	0
	.zero	4
	.quad	0
	.long	-131
	.zero	4
	.quad	0
	.long	0
	.zero	4
	.quad	0
	.long	0
	.zero	4
	.section	.rodata
	.align 32
	.type	short_options, @object
	.size	short_options, 113
short_options:
	.string	"0::1::2::3::4::5::6::7::8::9::A::B::C::D::E::F::G::H::I::J::K::M::N::O::P::Q::R::S::T::U::V::W::X::Y::Z::Lln:s:t"
	.text
.Letext0:
	.file 5 "/usr/lib/gcc/x86_64-linux-gnu/9/include/stddef.h"
	.file 6 "/usr/include/x86_64-linux-gnu/bits/types.h"
	.file 7 "/usr/include/x86_64-linux-gnu/bits/types/struct_FILE.h"
	.file 8 "/usr/include/x86_64-linux-gnu/bits/types/FILE.h"
	.file 9 "/usr/include/stdio.h"
	.file 10 "/usr/include/x86_64-linux-gnu/bits/sys_errlist.h"
	.file 11 "/usr/include/x86_64-linux-gnu/sys/types.h"
	.file 12 "/usr/include/x86_64-linux-gnu/bits/types/time_t.h"
	.file 13 "./lib/sys/select.h"
	.file 14 "/usr/include/x86_64-linux-gnu/bits/getopt_core.h"
	.file 15 "/usr/include/x86_64-linux-gnu/bits/getopt_ext.h"
	.file 16 "/usr/include/signal.h"
	.file 17 "/usr/include/time.h"
	.file 18 "/usr/include/unistd.h"
	.file 19 "/usr/include/errno.h"
	.file 20 "src/version.h"
	.file 21 "./lib/exitfail.h"
	.file 22 "/usr/include/stdint.h"
	.file 23 "./lib/timespec.h"
	.file 24 "./lib/version-etc.h"
	.file 25 "./lib/progname.h"
	.file 26 "./lib/quotearg.h"
	.file 27 "./lib/error.h"
	.file 28 "./lib/quote.h"
	.file 29 "/usr/include/libintl.h"
	.file 30 "/usr/include/string.h"
	.file 31 "./lib/sig2str.h"
	.file 32 "src/operand2sig.h"
	.file 33 "/usr/include/locale.h"
	.file 34 "/usr/include/stdlib.h"
	.section	.note.GNU-stack,"",@progbits
	.section	.note.gnu.property,"a"
	.align 8
	.long	 1f - 0f
	.long	 4f - 1f
	.long	 5
0:
	.string	 "GNU"
1:
	.align 8
	.long	 0xc0000002
	.long	 3f - 2f
2:
	.long	 0x3
3:
	.align 8
4:
