	.file	"ls.c"
	.text
.Ltext0:
	.p2align 4
	.type	dev_ino_hash, @function
dev_ino_hash:
.LVL0:
.LFB206:
	.file 1 "src/ls.c"
	.loc 1 1364 1 view -0
	.cfi_startproc
	.loc 1 1364 1 is_stmt 0 view .LVU1
	endbr64
	.loc 1 1365 3 is_stmt 1 view .LVU2
.LVL1:
	.loc 1 1366 3 view .LVU3
	.loc 1 1366 32 is_stmt 0 view .LVU4
	movq	(%rdi), %rax
	xorl	%edx, %edx
	divq	%rsi
	.loc 1 1367 1 view .LVU5
	movq	%rdx, %rax
	ret
	.cfi_endproc
.LFE206:
	.size	dev_ino_hash, .-dev_ino_hash
	.p2align 4
	.type	dev_ino_compare, @function
dev_ino_compare:
.LVL2:
.LFB207:
	.loc 1 1371 1 is_stmt 1 view -0
	.cfi_startproc
	.loc 1 1371 1 is_stmt 0 view .LVU7
	endbr64
	.loc 1 1372 3 is_stmt 1 view .LVU8
.LVL3:
	.loc 1 1373 3 view .LVU9
	.loc 1 1374 3 view .LVU10
	.loc 1 1374 37 is_stmt 0 view .LVU11
	movq	(%rsi), %rdx
	xorl	%eax, %eax
	cmpq	%rdx, (%rdi)
	je	.L6
	.loc 1 1375 1 view .LVU12
	ret
	.p2align 4,,10
	.p2align 3
.L6:
	.loc 1 1374 37 discriminator 1 view .LVU13
	movq	8(%rsi), %rax
	cmpq	%rax, 8(%rdi)
	sete	%al
	.loc 1 1375 1 discriminator 1 view .LVU14
	ret
	.cfi_endproc
.LFE207:
	.size	dev_ino_compare, .-dev_ino_compare
	.p2align 4
	.type	sighandler, @function
sighandler:
.LVL4:
.LFB214:
	.loc 1 1458 1 is_stmt 1 view -0
	.cfi_startproc
	.loc 1 1458 1 is_stmt 0 view .LVU16
	endbr64
	.loc 1 1459 3 is_stmt 1 view .LVU17
	.loc 1 1461 3 view .LVU18
	.loc 1 1461 7 is_stmt 0 view .LVU19
	movl	interrupt_signal(%rip), %eax
	.loc 1 1461 6 view .LVU20
	testl	%eax, %eax
	jne	.L7
	.loc 1 1462 5 is_stmt 1 view .LVU21
	.loc 1 1462 22 is_stmt 0 view .LVU22
	movl	%edi, interrupt_signal(%rip)
.L7:
	.loc 1 1463 1 view .LVU23
	ret
	.cfi_endproc
.LFE214:
	.size	sighandler, .-sighandler
	.p2align 4
	.type	get_funky_string, @function
get_funky_string:
.LVL5:
.LFB223:
	.loc 1 2464 1 is_stmt 1 view -0
	.cfi_startproc
	.loc 1 2465 3 view .LVU25
	.loc 1 2466 3 view .LVU26
	.loc 1 2467 3 view .LVU27
	.loc 1 2470 3 view .LVU28
	.loc 1 2471 3 view .LVU29
	.loc 1 2473 3 view .LVU30
	.loc 1 2473 5 is_stmt 0 view .LVU31
	movq	(%rsi), %r9
.LVL6:
	.loc 1 2474 3 is_stmt 1 view .LVU32
	.loc 1 2474 5 is_stmt 0 view .LVU33
	movq	(%rdi), %r11
.LVL7:
	.loc 1 2476 3 is_stmt 1 view .LVU34
	.loc 1 2477 3 view .LVU35
	.loc 1 2479 3 view .LVU36
	.loc 1 2480 3 view .LVU37
	.loc 1 2480 9 view .LVU38
	.loc 1 2482 7 view .LVU39
	.loc 1 2464 1 is_stmt 0 view .LVU40
	pushq	%r12
	.cfi_def_cfa_offset 16
	.cfi_offset 12, -16
	.loc 1 2476 9 view .LVU41
	xorl	%eax, %eax
	.loc 1 2464 1 view .LVU42
	pushq	%rbp
	.cfi_def_cfa_offset 24
	.cfi_offset 6, -24
	leaq	.L24(%rip), %r10
	pushq	%rbx
	.cfi_def_cfa_offset 32
	.cfi_offset 3, -32
	.loc 1 2464 1 view .LVU43
	movl	%edx, %ebx
.LVL8:
.L44:
	.loc 1 2485 11 is_stmt 1 view .LVU44
	.loc 1 2485 19 is_stmt 0 view .LVU45
	movzbl	(%r9), %r8d
	cmpb	$92, %r8b
	je	.L11
.L61:
	.loc 1 2485 19 view .LVU46
	jg	.L12
	cmpb	$61, %r8b
	je	.L13
	jle	.L60
.L14:
	.loc 1 2505 15 is_stmt 1 view .LVU47
	.loc 1 2507 15 view .LVU48
	.loc 1 2507 27 is_stmt 0 view .LVU49
	addq	$1, %r9
.LVL9:
	.loc 1 2507 22 view .LVU50
	movb	%r8b, (%r11)
	.loc 1 2508 15 is_stmt 1 view .LVU51
	addq	$1, %rax
.LVL10:
	.loc 1 2509 15 view .LVU52
	.loc 1 2480 9 view .LVU53
	.loc 1 2482 7 view .LVU54
	.loc 1 2507 18 is_stmt 0 view .LVU55
	addq	$1, %r11
.LVL11:
	.loc 1 2485 11 is_stmt 1 view .LVU56
	.loc 1 2485 19 is_stmt 0 view .LVU57
	movzbl	(%r9), %r8d
	cmpb	$92, %r8b
	jne	.L61
.LVL12:
.L11:
	.loc 1 2492 15 is_stmt 1 view .LVU58
	.loc 1 2493 15 view .LVU59
	.loc 1 2494 15 view .LVU60
	.loc 1 2480 9 view .LVU61
	.loc 1 2482 7 view .LVU62
	.loc 1 2514 11 view .LVU63
	.loc 1 2514 19 is_stmt 0 view .LVU64
	movzbl	1(%r9), %ebp
	addq	$2, %r9
.LVL13:
	.loc 1 2514 19 view .LVU65
	testb	%bpl, %bpl
	je	.L59
	.loc 1 2514 19 view .LVU66
	leal	-48(%rbp), %r12d
	cmpb	$72, %r12b
	ja	.L21
	movzbl	%r12b, %r8d
	movslq	(%r10,%r8,4), %r8
	addq	%r10, %r8
	notrack jmp	*%r8
	.section	.rodata
	.align 4
	.align 4
.L24:
	.long	.L35-.L24
	.long	.L35-.L24
	.long	.L35-.L24
	.long	.L35-.L24
	.long	.L35-.L24
	.long	.L35-.L24
	.long	.L35-.L24
	.long	.L35-.L24
	.long	.L21-.L24
	.long	.L21-.L24
	.long	.L21-.L24
	.long	.L21-.L24
	.long	.L21-.L24
	.long	.L21-.L24
	.long	.L21-.L24
	.long	.L33-.L24
	.long	.L21-.L24
	.long	.L21-.L24
	.long	.L21-.L24
	.long	.L21-.L24
	.long	.L21-.L24
	.long	.L21-.L24
	.long	.L21-.L24
	.long	.L21-.L24
	.long	.L21-.L24
	.long	.L21-.L24
	.long	.L21-.L24
	.long	.L21-.L24
	.long	.L21-.L24
	.long	.L21-.L24
	.long	.L21-.L24
	.long	.L21-.L24
	.long	.L21-.L24
	.long	.L21-.L24
	.long	.L21-.L24
	.long	.L21-.L24
	.long	.L21-.L24
	.long	.L21-.L24
	.long	.L21-.L24
	.long	.L21-.L24
	.long	.L49-.L24
	.long	.L21-.L24
	.long	.L21-.L24
	.long	.L21-.L24
	.long	.L21-.L24
	.long	.L21-.L24
	.long	.L21-.L24
	.long	.L32-.L24
	.long	.L21-.L24
	.long	.L50-.L24
	.long	.L31-.L24
	.long	.L21-.L24
	.long	.L21-.L24
	.long	.L30-.L24
	.long	.L29-.L24
	.long	.L21-.L24
	.long	.L21-.L24
	.long	.L21-.L24
	.long	.L21-.L24
	.long	.L21-.L24
	.long	.L21-.L24
	.long	.L21-.L24
	.long	.L28-.L24
	.long	.L21-.L24
	.long	.L21-.L24
	.long	.L21-.L24
	.long	.L27-.L24
	.long	.L21-.L24
	.long	.L26-.L24
	.long	.L21-.L24
	.long	.L25-.L24
	.long	.L21-.L24
	.long	.L49-.L24
	.text
.LVL14:
	.p2align 4,,10
	.p2align 3
.L12:
	.loc 1 2514 19 view .LVU67
	cmpb	$94, %r8b
	jne	.L14
	.loc 1 2496 15 is_stmt 1 view .LVU68
.LVL15:
	.loc 1 2497 15 view .LVU69
	.loc 1 2630 15 is_stmt 0 view .LVU70
	movzbl	1(%r9), %r8d
	.loc 1 2497 15 view .LVU71
	leaq	1(%r9), %r12
.LVL16:
	.loc 1 2498 15 is_stmt 1 view .LVU72
	.loc 1 2480 9 view .LVU73
	.loc 1 2482 7 view .LVU74
	.loc 1 2629 11 view .LVU75
	.loc 1 2630 11 view .LVU76
	.loc 1 2630 25 is_stmt 0 view .LVU77
	leal	-64(%r8), %ebp
	.loc 1 2630 14 view .LVU78
	cmpb	$62, %bpl
	ja	.L62
	.loc 1 2632 15 is_stmt 1 view .LVU79
	.loc 1 2632 27 is_stmt 0 view .LVU80
	addq	$2, %r9
.LVL17:
	.loc 1 2632 31 view .LVU81
	andl	$31, %r8d
.LVL18:
.L58:
	.loc 1 2632 31 view .LVU82
	movb	%r8b, (%r11)
	.loc 1 2633 15 is_stmt 1 view .LVU83
	addq	$1, %rax
.LVL19:
	.loc 1 2480 9 view .LVU84
	.loc 1 2632 18 is_stmt 0 view .LVU85
	addq	$1, %r11
.LVL20:
	.loc 1 2632 18 view .LVU86
	jmp	.L44
.LVL21:
	.p2align 4,,10
	.p2align 3
.L60:
	.loc 1 2632 18 view .LVU87
	testb	%r8b, %r8b
	je	.L46
	cmpb	$58, %r8b
	jne	.L14
.L46:
	movl	$1, %r8d
.LVL22:
.L15:
	.loc 1 2649 3 is_stmt 1 view .LVU88
	.loc 1 2649 9 is_stmt 0 view .LVU89
	movq	%r11, (%rdi)
	.loc 1 2650 3 is_stmt 1 view .LVU90
	.loc 1 2654 1 is_stmt 0 view .LVU91
	popq	%rbx
	.cfi_remember_state
	.cfi_def_cfa_offset 24
	.loc 1 2650 8 view .LVU92
	movq	%r9, (%rsi)
	.loc 1 2651 3 is_stmt 1 view .LVU93
	.loc 1 2654 1 is_stmt 0 view .LVU94
	popq	%rbp
	.cfi_def_cfa_offset 16
	.loc 1 2651 17 view .LVU95
	movq	%rax, (%rcx)
	.loc 1 2653 3 is_stmt 1 view .LVU96
	.loc 1 2654 1 is_stmt 0 view .LVU97
	popq	%r12
	.cfi_def_cfa_offset 8
	movl	%r8d, %eax
	ret
.LVL23:
.L30:
	.cfi_restore_state
	.loc 1 2539 19 view .LVU98
	movl	$27, %ebp
.L21:
	.loc 1 2569 11 is_stmt 1 view .LVU99
	.loc 1 2571 15 view .LVU100
.LVL24:
	.loc 1 2571 22 is_stmt 0 view .LVU101
	movb	%bpl, (%r11)
	.loc 1 2572 15 is_stmt 1 view .LVU102
	addq	$1, %rax
.LVL25:
	.loc 1 2573 15 view .LVU103
	.loc 1 2575 11 view .LVU104
	.loc 1 2576 11 view .LVU105
	.loc 1 2480 9 view .LVU106
	.loc 1 2571 18 is_stmt 0 view .LVU107
	addq	$1, %r11
.LVL26:
	.loc 1 2571 18 view .LVU108
	jmp	.L44
.LVL27:
.L50:
	.loc 1 2571 18 view .LVU109
	movl	$7, %ebp
	jmp	.L21
.L49:
	xorl	%r8d, %r8d
.LVL28:
.L23:
	.loc 1 2590 11 is_stmt 1 view .LVU110
	.loc 1 2590 19 is_stmt 0 view .LVU111
	movzbl	(%r9), %ebp
	cmpb	$70, %bpl
	jg	.L37
.L63:
	cmpb	$64, %bpl
	jg	.L38
	leal	-48(%rbp), %r12d
	cmpb	$9, %r12b
	ja	.L58
	.loc 1 2602 15 is_stmt 1 view .LVU112
	.loc 1 2602 38 is_stmt 0 view .LVU113
	addq	$1, %r9
.LVL29:
	.loc 1 2602 26 view .LVU114
	sall	$4, %r8d
	.loc 1 2602 19 view .LVU115
	leal	-48(%rbp,%r8), %r8d
	.loc 1 2603 15 is_stmt 1 view .LVU116
.LVL30:
	.loc 1 2480 9 view .LVU117
	.loc 1 2482 7 view .LVU118
	.loc 1 2590 11 view .LVU119
	.loc 1 2590 19 is_stmt 0 view .LVU120
	movzbl	(%r9), %ebp
	cmpb	$70, %bpl
	jle	.L63
.L37:
	leal	-97(%rbp), %r12d
	cmpb	$5, %r12b
	ja	.L58
	.loc 1 2610 15 is_stmt 1 view .LVU121
	.loc 1 2610 26 is_stmt 0 view .LVU122
	sall	$4, %r8d
	.loc 1 2610 38 view .LVU123
	addq	$1, %r9
.LVL31:
	.loc 1 2610 19 view .LVU124
	leal	-87(%rbp,%r8), %r8d
	.loc 1 2611 15 is_stmt 1 view .LVU125
.LVL32:
	.loc 1 2480 9 view .LVU126
	.loc 1 2482 7 view .LVU127
	jmp	.L23
.LVL33:
	.p2align 4,,10
	.p2align 3
.L36:
	.loc 1 2586 13 view .LVU128
	.loc 1 2586 36 is_stmt 0 view .LVU129
	addq	$1, %r9
.LVL34:
	.loc 1 2586 17 view .LVU130
	leal	-48(%r8,%r12,8), %r12d
.LVL35:
	.loc 1 2480 9 is_stmt 1 view .LVU131
	.loc 1 2482 7 view .LVU132
.L35:
	.loc 1 2579 11 view .LVU133
	.loc 1 2579 24 is_stmt 0 view .LVU134
	movzbl	(%r9), %r8d
	leal	-48(%r8), %ebp
	.loc 1 2579 14 view .LVU135
	cmpb	$7, %bpl
	jbe	.L36
	.loc 1 2581 15 is_stmt 1 view .LVU136
.LVL36:
	.loc 1 2581 22 is_stmt 0 view .LVU137
	movb	%r12b, (%r11)
	.loc 1 2582 15 is_stmt 1 view .LVU138
	addq	$1, %rax
.LVL37:
	.loc 1 2583 15 view .LVU139
	.loc 1 2480 9 view .LVU140
	.loc 1 2581 18 is_stmt 0 view .LVU141
	addq	$1, %r11
.LVL38:
	.loc 1 2581 18 view .LVU142
	jmp	.L44
.LVL39:
	.p2align 4,,10
	.p2align 3
.L38:
	.loc 1 2618 15 is_stmt 1 view .LVU143
	.loc 1 2618 26 is_stmt 0 view .LVU144
	sall	$4, %r8d
	.loc 1 2618 38 view .LVU145
	addq	$1, %r9
.LVL40:
	.loc 1 2618 19 view .LVU146
	leal	-55(%rbp,%r8), %r8d
	.loc 1 2619 15 is_stmt 1 view .LVU147
.LVL41:
	.loc 1 2480 9 view .LVU148
	.loc 1 2482 7 view .LVU149
	jmp	.L23
.LVL42:
	.p2align 4,,10
	.p2align 3
.L62:
	.loc 1 2635 16 view .LVU150
	.loc 1 2635 19 is_stmt 0 view .LVU151
	cmpb	$63, %r8b
	je	.L64
	movq	%r12, %r9
.LVL43:
.L59:
	.loc 1 2635 19 view .LVU152
	xorl	%r8d, %r8d
	jmp	.L15
.LVL44:
	.p2align 4,,10
	.p2align 3
.L13:
	.loc 1 2500 15 is_stmt 1 view .LVU153
	.loc 1 2500 18 is_stmt 0 view .LVU154
	testb	%bl, %bl
	je	.L14
	movl	%edx, %r8d
	jmp	.L15
.LVL45:
	.p2align 4,,10
	.p2align 3
.L64:
	.loc 1 2637 15 is_stmt 1 view .LVU155
	.loc 1 2637 22 is_stmt 0 view .LVU156
	movb	$127, (%r11)
	.loc 1 2638 15 is_stmt 1 view .LVU157
	addq	$1, %rax
.LVL46:
	.loc 1 2480 9 view .LVU158
	.loc 1 2482 7 view .LVU159
	.loc 1 2637 18 is_stmt 0 view .LVU160
	addq	$1, %r11
.LVL47:
	.loc 1 2638 15 view .LVU161
	movq	%r12, %r9
	jmp	.L44
.LVL48:
.L25:
	.loc 1 2554 15 is_stmt 1 view .LVU162
	.loc 1 2555 15 view .LVU163
	.loc 1 2554 19 is_stmt 0 view .LVU164
	movl	$11, %ebp
	.loc 1 2555 15 view .LVU165
	jmp	.L21
.LVL49:
.L28:
	.loc 1 2545 15 is_stmt 1 view .LVU166
	.loc 1 2546 15 view .LVU167
	.loc 1 2545 19 is_stmt 0 view .LVU168
	movl	$10, %ebp
	.loc 1 2546 15 view .LVU169
	jmp	.L21
.LVL50:
.L27:
	.loc 1 2548 15 is_stmt 1 view .LVU170
	.loc 1 2549 15 view .LVU171
	.loc 1 2548 19 is_stmt 0 view .LVU172
	movl	$13, %ebp
	.loc 1 2549 15 view .LVU173
	jmp	.L21
.LVL51:
.L33:
	.loc 1 2557 15 is_stmt 1 view .LVU174
	.loc 1 2558 15 view .LVU175
	.loc 1 2557 19 is_stmt 0 view .LVU176
	movl	$127, %ebp
	.loc 1 2558 15 view .LVU177
	jmp	.L21
.LVL52:
.L32:
	.loc 1 2560 15 is_stmt 1 view .LVU178
	.loc 1 2561 15 view .LVU179
	.loc 1 2560 19 is_stmt 0 view .LVU180
	movl	$32, %ebp
	.loc 1 2561 15 view .LVU181
	jmp	.L21
.LVL53:
.L31:
	.loc 1 2536 19 view .LVU182
	movl	$8, %ebp
	jmp	.L21
.L29:
	.loc 1 2542 15 is_stmt 1 view .LVU183
.LVL54:
	.loc 1 2543 15 view .LVU184
	.loc 1 2542 19 is_stmt 0 view .LVU185
	movl	$12, %ebp
	.loc 1 2543 15 view .LVU186
	jmp	.L21
.LVL55:
.L26:
	.loc 1 2551 15 is_stmt 1 view .LVU187
	.loc 1 2552 15 view .LVU188
	.loc 1 2551 19 is_stmt 0 view .LVU189
	movl	$9, %ebp
	.loc 1 2552 15 view .LVU190
	jmp	.L21
	.cfi_endproc
.LFE223:
	.size	get_funky_string, .-get_funky_string
	.p2align 4
	.type	dev_ino_free, @function
dev_ino_free:
.LVL56:
.LFB208:
	.loc 1 1379 1 is_stmt 1 view -0
	.cfi_startproc
	.loc 1 1379 1 is_stmt 0 view .LVU192
	endbr64
	.loc 1 1380 3 is_stmt 1 view .LVU193
	jmp	free@PLT
.LVL57:
	.loc 1 1380 3 is_stmt 0 view .LVU194
	.cfi_endproc
.LFE208:
	.size	dev_ino_free, .-dev_ino_free
	.section	.text.unlikely,"ax",@progbits
.LCOLDB0:
	.text
.LHOTB0:
	.p2align 4
	.section	.text.unlikely
.Ltext_cold0:
	.text
	.type	calc_req_mask, @function
calc_req_mask:
.LFB195:
	.loc 1 1114 1 is_stmt 1 view -0
	.cfi_startproc
	.loc 1 1115 3 view .LVU196
.LVL58:
	.loc 1 1117 3 view .LVU197
	.loc 1 1114 1 is_stmt 0 view .LVU198
	subq	$8, %rsp
	.cfi_def_cfa_offset 16
	.loc 1 1118 10 view .LVU199
	cmpb	$1, print_inode(%rip)
	sbbl	%eax, %eax
	xorb	%al, %al
	addl	$258, %eax
.LVL59:
	.loc 1 1120 3 is_stmt 1 view .LVU200
	.loc 1 1120 6 is_stmt 0 view .LVU201
	cmpb	$0, print_block_size(%rip)
	je	.L68
	.loc 1 1121 5 is_stmt 1 view .LVU202
	.loc 1 1121 10 is_stmt 0 view .LVU203
	orb	$4, %ah
.LVL60:
.L68:
	.loc 1 1123 3 is_stmt 1 view .LVU204
	.loc 1 1123 6 is_stmt 0 view .LVU205
	movl	format(%rip), %edx
	testl	%edx, %edx
	jne	.L69
	.loc 1 1124 5 is_stmt 1 view .LVU206
.LBB905:
.LBI905:
	.loc 1 1094 1 view .LVU207
.LBB906:
	.loc 1 1096 3 view .LVU208
	movl	time_type(%rip), %edx
	cmpl	$3, %edx
	ja	.L70
	leaq	CSWTCH.834(%rip), %rcx
	movl	(%rcx,%rdx,4), %ecx
.LBE906:
.LBE905:
	.loc 1 1124 10 is_stmt 0 view .LVU209
	orl	%ecx, %eax
.LVL61:
	.loc 1 1125 5 is_stmt 1 view .LVU210
	.loc 1 1125 8 is_stmt 0 view .LVU211
	cmpb	$0, print_owner(%rip)
	je	.L99
.L71:
	.loc 1 1126 7 is_stmt 1 view .LVU212
	.loc 1 1126 12 is_stmt 0 view .LVU213
	orl	$524, %eax
.LVL62:
.L73:
	.loc 1 1127 5 is_stmt 1 view .LVU214
	.loc 1 1127 8 is_stmt 0 view .LVU215
	cmpb	$0, print_group(%rip)
	je	.L74
	.loc 1 1128 7 is_stmt 1 view .LVU216
	.loc 1 1128 12 is_stmt 0 view .LVU217
	orl	$16, %eax
.LVL63:
.L74:
	.loc 1 1131 3 is_stmt 1 view .LVU218
	movl	sort_type(%rip), %edx
	cmpl	$2, %edx
	je	.L75
	.loc 1 1131 3 is_stmt 0 view .LVU219
	jle	.L98
	cmpl	$3, %edx
	je	.L66
	cmpl	$4, %edx
	jne	.L100
.L79:
	.loc 1 1139 12 view .LVU220
	orl	%ecx, %eax
.LVL64:
	.loc 1 1140 7 is_stmt 1 view .LVU221
.L66:
	.loc 1 1149 1 is_stmt 0 view .LVU222
	addq	$8, %rsp
	.cfi_remember_state
	.cfi_def_cfa_offset 8
	ret
.LVL65:
	.p2align 4,,10
	.p2align 3
.L99:
	.cfi_restore_state
	.loc 1 1125 21 discriminator 1 view .LVU223
	cmpb	$0, print_author(%rip)
	jne	.L71
	.loc 1 1124 10 view .LVU224
	orl	$516, %eax
.LVL66:
	.loc 1 1124 10 view .LVU225
	jmp	.L73
.LVL67:
	.p2align 4,,10
	.p2align 3
.L98:
	.loc 1 1131 3 view .LVU226
	addl	$1, %edx
	cmpl	$2, %edx
	jbe	.L66
	jmp	.L70
	.p2align 4,,10
	.p2align 3
.L69:
	.loc 1 1131 3 is_stmt 1 view .LVU227
	movl	sort_type(%rip), %edx
	cmpl	$2, %edx
	je	.L75
	jle	.L98
	cmpl	$3, %edx
	je	.L66
	cmpl	$4, %edx
	jne	.L70
	.loc 1 1139 7 view .LVU228
.LBB908:
.LBI908:
	.loc 1 1094 1 view .LVU229
.LBB909:
	.loc 1 1096 3 view .LVU230
	movl	time_type(%rip), %edx
	cmpl	$3, %edx
	ja	.L70
	leaq	CSWTCH.834(%rip), %rcx
	movl	(%rcx,%rdx,4), %ecx
	jmp	.L79
	.p2align 4,,10
	.p2align 3
.L75:
	.loc 1 1096 3 is_stmt 0 view .LVU231
.LBE909:
.LBE908:
	.loc 1 1142 7 is_stmt 1 view .LVU232
	.loc 1 1142 12 is_stmt 0 view .LVU233
	orb	$2, %ah
.LVL68:
	.loc 1 1143 7 is_stmt 1 view .LVU234
	.loc 1 1148 3 view .LVU235
	.loc 1 1149 1 is_stmt 0 view .LVU236
	addq	$8, %rsp
	.cfi_remember_state
	.cfi_def_cfa_offset 8
	ret
.L100:
	.cfi_restore_state
	.loc 1 1149 1 view .LVU237
	jmp	.L70
	.loc 1 1149 1 view .LVU238
	.cfi_endproc
	.section	.text.unlikely
	.cfi_startproc
	.type	calc_req_mask.cold, @function
calc_req_mask.cold:
.LFSB195:
.L70:
	.cfi_def_cfa_offset 16
.LBB910:
.LBB907:
	.loc 1 1107 7 is_stmt 1 view -0
	call	abort@PLT
.LVL69:
	.loc 1 1107 7 is_stmt 0 view .LVU240
.LBE907:
.LBE910:
	.cfi_endproc
.LFE195:
	.text
	.size	calc_req_mask, .-calc_req_mask
	.section	.text.unlikely
	.size	calc_req_mask.cold, .-calc_req_mask.cold
.LCOLDE0:
	.text
.LHOTE0:
	.section	.rodata.str1.1,"aMS",@progbits,1
.LC1:
	.string	""
	.text
	.p2align 4
	.type	set_line_length, @function
set_line_length:
.LVL70:
.LFB221:
	.loc 1 1835 1 is_stmt 1 view -0
	.cfi_startproc
	.loc 1 1835 1 is_stmt 0 view .LVU242
	subq	$24, %rsp
	.cfi_def_cfa_offset 32
	.loc 1 1840 11 view .LVU243
	xorl	%edx, %edx
	leaq	.LC1(%rip), %r8
	xorl	%esi, %esi
	.loc 1 1835 1 view .LVU244
	movq	%fs:40, %rax
	movq	%rax, 8(%rsp)
	xorl	%eax, %eax
	.loc 1 1836 3 is_stmt 1 view .LVU245
	.loc 1 1840 3 view .LVU246
	.loc 1 1840 11 is_stmt 0 view .LVU247
	movq	%rsp, %rcx
	call	xstrtoumax@PLT
.LVL71:
	.loc 1 1840 3 view .LVU248
	testl	%eax, %eax
	je	.L102
	cmpl	$1, %eax
	jne	.L107
	.loc 1 1847 7 is_stmt 1 view .LVU249
	.loc 1 1847 19 is_stmt 0 view .LVU250
	movq	$-1, line_length(%rip)
	.loc 1 1848 7 is_stmt 1 view .LVU251
	.loc 1 1848 14 is_stmt 0 view .LVU252
	movl	$1, %eax
.L101:
	.loc 1 1853 1 view .LVU253
	movq	8(%rsp), %rdx
	xorq	%fs:40, %rdx
	jne	.L108
	addq	$24, %rsp
	.cfi_remember_state
	.cfi_def_cfa_offset 8
	ret
	.p2align 4,,10
	.p2align 3
.L107:
	.cfi_restore_state
	.loc 1 1840 3 view .LVU254
	xorl	%eax, %eax
	jmp	.L101
	.p2align 4,,10
	.p2align 3
.L102:
	.loc 1 1843 7 is_stmt 1 view .LVU255
	.loc 1 1843 19 is_stmt 0 view .LVU256
	movq	(%rsp), %rax
	movq	%rax, line_length(%rip)
	.loc 1 1844 7 is_stmt 1 view .LVU257
	.loc 1 1844 14 is_stmt 0 view .LVU258
	movl	$1, %eax
	jmp	.L101
.L108:
	.loc 1 1853 1 view .LVU259
	call	__stack_chk_fail@PLT
.LVL72:
	.cfi_endproc
.LFE221:
	.size	set_line_length, .-set_line_length
	.p2align 4
	.type	is_colored, @function
is_colored:
.LVL73:
.LFB211:
	.loc 1 1428 1 is_stmt 1 view -0
	.cfi_startproc
	.loc 1 1429 3 view .LVU261
	.loc 1 1429 10 is_stmt 0 view .LVU262
	movl	%edi, %edi
	.loc 1 1429 10 view .LVU263
	leaq	color_indicator(%rip), %rax
	xorl	%r8d, %r8d
	salq	$4, %rdi
.LVL74:
	.loc 1 1429 10 view .LVU264
	addq	%rax, %rdi
	movq	(%rdi), %rax
.LVL75:
	.loc 1 1430 3 is_stmt 1 view .LVU265
	.loc 1 1431 3 view .LVU266
	.loc 1 1431 10 is_stmt 0 view .LVU267
	testq	%rax, %rax
	je	.L109
	.loc 1 1430 15 view .LVU268
	movq	8(%rdi), %rdx
	.loc 1 1432 13 view .LVU269
	cmpq	$1, %rax
	je	.L116
	movl	$1, %r8d
	.loc 1 1431 10 view .LVU270
	cmpq	$2, %rax
	je	.L117
.L109:
	.loc 1 1434 1 view .LVU271
	movl	%r8d, %eax
.LVL76:
	.loc 1 1434 1 view .LVU272
	ret
.LVL77:
	.p2align 4,,10
	.p2align 3
.L116:
	.loc 1 1432 26 discriminator 1 view .LVU273
	cmpb	$48, (%rdx)
	setne	%r8b
	.loc 1 1434 1 discriminator 1 view .LVU274
	movl	%r8d, %eax
.LVL78:
	.loc 1 1434 1 discriminator 1 view .LVU275
	ret
.LVL79:
	.p2align 4,,10
	.p2align 3
.L117:
	.loc 1 1433 29 view .LVU276
	movzbl	(%rdx), %eax
.LVL80:
	.loc 1 1433 29 view .LVU277
	subl	$48, %eax
	jne	.L112
	movzbl	1(%rdx), %eax
	subl	$48, %eax
.L112:
	.loc 1 1433 26 view .LVU278
	testl	%eax, %eax
	setne	%r8b
	.loc 1 1434 1 view .LVU279
	movl	%r8d, %eax
	ret
	.cfi_endproc
.LFE211:
	.size	is_colored, .-is_colored
	.section	.rodata.str1.1
.LC2:
	.string	"%s"
.LC3:
	.string	"%.*s%s%s"
	.text
	.p2align 4
	.type	abformat_init, @function
abformat_init:
.LFB205:
	.loc 1 1324 1 is_stmt 1 view -0
	.cfi_startproc
	pushq	%r15
	.cfi_def_cfa_offset 16
	.cfi_offset 15, -16
	xorl	%esi, %esi
	pushq	%r14
	.cfi_def_cfa_offset 24
	.cfi_offset 14, -24
	pushq	%r13
	.cfi_def_cfa_offset 32
	.cfi_offset 13, -32
	pushq	%r12
	.cfi_def_cfa_offset 40
	.cfi_offset 12, -40
	pushq	%rbp
	.cfi_def_cfa_offset 48
	.cfi_offset 6, -48
	pushq	%rbx
	.cfi_def_cfa_offset 56
	.cfi_offset 3, -56
	subq	$1624, %rsp
	.cfi_def_cfa_offset 1680
	.loc 1 1324 1 is_stmt 0 view .LVU281
	movq	%fs:40, %rax
	movq	%rax, 1608(%rsp)
	xorl	%eax, %eax
	.loc 1 1325 3 is_stmt 1 view .LVU282
	.loc 1 1326 3 view .LVU283
.LBB929:
	.loc 1 1326 8 view .LVU284
.LVL81:
	.loc 1 1326 24 view .LVU285
	leaq	48(%rsp), %rdi
	movq	%rdi, 24(%rsp)
.LVL82:
.L123:
	.loc 1 1327 5 discriminator 3 view .LVU286
	.loc 1 1327 18 is_stmt 0 discriminator 3 view .LVU287
	leaq	long_time_format(%rip), %rax
	movq	(%rax,%rsi), %rax
.LVL83:
.LBB930:
.LBI930:
	.loc 1 1242 1 is_stmt 1 discriminator 3 view .LVU288
.LBB931:
	.loc 1 1244 3 discriminator 3 view .LVU289
	.loc 1 1244 10 discriminator 3 view .LVU290
	movzbl	(%rax), %edx
	.loc 1 1244 3 is_stmt 0 discriminator 3 view .LVU291
	testb	%dl, %dl
	je	.L137
	.p2align 4,,10
	.p2align 3
.L122:
	.loc 1 1245 5 is_stmt 1 view .LVU292
	movzbl	1(%rax), %ecx
	.loc 1 1245 8 is_stmt 0 view .LVU293
	cmpb	$37, %dl
	je	.L150
.L138:
	.loc 1 1251 3 view .LVU294
	movl	%ecx, %edx
.L120:
	.loc 1 1244 16 is_stmt 1 view .LVU295
	.loc 1 1244 19 is_stmt 0 view .LVU296
	addq	$1, %rax
.LVL84:
	.loc 1 1244 10 is_stmt 1 view .LVU297
	.loc 1 1244 3 is_stmt 0 view .LVU298
	testb	%dl, %dl
	jne	.L122
.L137:
	.loc 1 1251 10 view .LVU299
	xorl	%eax, %eax
.LVL85:
	.loc 1 1251 10 view .LVU300
	jmp	.L119
.LVL86:
	.p2align 4,,10
	.p2align 3
.L150:
	.loc 1 1246 7 is_stmt 1 view .LVU301
	cmpb	$37, %cl
	je	.L121
	cmpb	$98, %cl
	jne	.L138
.LVL87:
.L119:
	.loc 1 1246 7 is_stmt 0 view .LVU302
.LBE931:
.LBE930:
	.loc 1 1327 16 view .LVU303
	movq	%rax, (%rdi,%rsi)
	.loc 1 1326 36 is_stmt 1 view .LVU304
	.loc 1 1326 24 view .LVU305
	addq	$8, %rsi
	.loc 1 1326 3 is_stmt 0 view .LVU306
	cmpq	$16, %rsi
	jne	.L123
.LBE929:
	.loc 1 1328 3 is_stmt 1 view .LVU307
	.loc 1 1328 6 is_stmt 0 view .LVU308
	cmpq	$0, 48(%rsp)
	movl	$12, %r14d
	je	.L151
.L124:
	leaq	64(%rsp), %rax
.LBB934:
.LBB935:
.LBB936:
.LBB937:
	.loc 1 1307 24 view .LVU309
	leaq	40(%rsp), %r15
	movq	%rax, 8(%rsp)
	leaq	1600(%rsp), %rax
	movq	%rax, (%rsp)
.L130:
.LVL88:
	.loc 1 1307 24 view .LVU310
.LBE937:
.LBE936:
	.loc 1 1294 3 is_stmt 1 view .LVU311
	.loc 1 1295 3 view .LVU312
	.loc 1 1297 7 view .LVU313
	.loc 1 1298 7 view .LVU314
	.loc 1 1299 7 view .LVU315
.LBB941:
	.loc 1 1299 12 view .LVU316
	.loc 1 1299 23 view .LVU317
.LBE941:
	movq	8(%rsp), %rbx
	movl	$131086, %r12d
	.loc 1 1298 26 is_stmt 0 view .LVU318
	xorl	%ebp, %ebp
.LVL89:
	.p2align 4,,10
	.p2align 3
.L127:
.LBB942:
.LBB940:
	.loc 1 1301 11 is_stmt 1 view .LVU319
	.loc 1 1302 30 is_stmt 0 view .LVU320
	movl	%r12d, %edi
	.loc 1 1301 18 view .LVU321
	movq	%r14, 40(%rsp)
	.loc 1 1302 11 is_stmt 1 view .LVU322
	.loc 1 1302 30 is_stmt 0 view .LVU323
	call	nl_langinfo@PLT
.LVL90:
	.loc 1 1303 15 view .LVU324
	movl	$37, %esi
	movq	%rax, %rdi
	.loc 1 1302 30 view .LVU325
	movq	%rax, %r13
.LVL91:
	.loc 1 1303 11 is_stmt 1 view .LVU326
	.loc 1 1303 15 is_stmt 0 view .LVU327
	call	strchr@PLT
.LVL92:
	.loc 1 1303 14 view .LVU328
	testq	%rax, %rax
	jne	.L118
	.loc 1 1305 11 is_stmt 1 view .LVU329
	.loc 1 1305 35 is_stmt 0 view .LVU330
	call	__ctype_b_loc@PLT
.LVL93:
.LBB938:
.LBI938:
	.file 2 "src/system.h"
	.loc 2 156 29 is_stmt 1 view .LVU331
.LBB939:
	.loc 2 156 50 view .LVU332
	.loc 2 156 50 is_stmt 0 view .LVU333
.LBE939:
.LBE938:
	.loc 1 1307 11 is_stmt 1 view .LVU334
	.loc 1 1305 35 is_stmt 0 view .LVU335
	movzbl	0(%r13), %edx
	.loc 1 1307 24 view .LVU336
	xorl	%r9d, %r9d
	movq	%r15, %rcx
	.loc 1 1305 35 view .LVU337
	movq	(%rax), %rax
.LVL94:
	.loc 1 1307 24 view .LVU338
	movq	%rbx, %rsi
	movq	%r13, %rdi
	.loc 1 1306 53 view .LVU339
	movzwl	(%rax,%rdx,2), %r8d
	.loc 1 1307 24 view .LVU340
	movl	$128, %edx
	.loc 1 1306 53 view .LVU341
	shrw	$11, %r8w
	.loc 1 1307 24 view .LVU342
	andl	$1, %r8d
	call	mbsalign@PLT
.LVL95:
	.loc 1 1309 11 is_stmt 1 view .LVU343
	.loc 1 1309 14 is_stmt 0 view .LVU344
	cmpq	$127, %rax
	ja	.L118
	.loc 1 1311 11 is_stmt 1 view .LVU345
	.loc 1 1311 30 is_stmt 0 view .LVU346
	movq	40(%rsp), %rax
.LVL96:
	.loc 1 1311 30 view .LVU347
	cmpq	%rax, %rbp
	cmovb	%rax, %rbp
.LVL97:
	.loc 1 1311 30 view .LVU348
.LBE940:
	.loc 1 1299 31 is_stmt 1 view .LVU349
	.loc 1 1299 23 view .LVU350
	addl	$1, %r12d
.LVL98:
	.loc 1 1299 23 is_stmt 0 view .LVU351
	subq	$-128, %rbx
	.loc 1 1299 7 view .LVU352
	cmpq	(%rsp), %rbx
	jne	.L127
.LBE942:
	.loc 1 1314 9 is_stmt 1 view .LVU353
	.loc 1 1314 3 is_stmt 0 view .LVU354
	cmpq	%rbp, %r14
	jbe	.L152
	movq	%rbp, %r14
.LVL99:
	.loc 1 1314 3 view .LVU355
	jmp	.L130
.LVL100:
	.p2align 4,,10
	.p2align 3
.L121:
	.loc 1 1314 3 view .LVU356
.LBE935:
.LBE934:
.LBB944:
.LBB933:
.LBB932:
	.loc 1 1249 19 is_stmt 1 view .LVU357
	.loc 1 1249 26 view .LVU358
	movzbl	2(%rax), %edx
	.loc 1 1249 22 is_stmt 0 view .LVU359
	addq	$1, %rax
.LVL101:
	.loc 1 1249 9 view .LVU360
	jmp	.L120
.LVL102:
.L155:
	.loc 1 1249 9 view .LVU361
.LBE932:
.LBE933:
.LBE944:
	.loc 1 1359 3 is_stmt 1 view .LVU362
	.loc 1 1359 16 is_stmt 0 view .LVU363
	movb	$1, use_abformat(%rip)
.LVL103:
.L118:
	.loc 1 1360 1 view .LVU364
	movq	1608(%rsp), %rax
	xorq	%fs:40, %rax
	jne	.L153
	addq	$1624, %rsp
	.cfi_remember_state
	.cfi_def_cfa_offset 56
	popq	%rbx
	.cfi_def_cfa_offset 48
	popq	%rbp
	.cfi_def_cfa_offset 40
	popq	%r12
	.cfi_def_cfa_offset 32
	popq	%r13
	.cfi_def_cfa_offset 24
	popq	%r14
	.cfi_def_cfa_offset 16
	popq	%r15
	.cfi_def_cfa_offset 8
	ret
.L151:
	.cfi_restore_state
	.loc 1 1328 7 discriminator 1 view .LVU365
	cmpq	$0, 56(%rsp)
	jne	.L124
	jmp	.L118
.LVL104:
.L152:
.LBB945:
.LBB943:
	.loc 1 1328 7 discriminator 1 view .LVU366
	movq	$0, 16(%rsp)
	leaq	abformat(%rip), %r13
.LVL105:
.L134:
	.loc 1 1328 7 discriminator 1 view .LVU367
.LBE943:
.LBE945:
.LBB946:
.LBB947:
	.loc 1 1337 7 is_stmt 1 view .LVU368
	.loc 1 1337 19 is_stmt 0 view .LVU369
	movq	16(%rsp), %rax
	leaq	long_time_format(%rip), %rsi
	movq	8(%rsp), %r14
	movq	(%rsi,%rax,8), %rbp
.LVL106:
	.loc 1 1338 7 is_stmt 1 view .LVU370
.LBB948:
	.loc 1 1338 12 view .LVU371
	.loc 1 1338 23 view .LVU372
	movq	24(%rsp), %rsi
	imulq	$1536, %rax, %rdi
	movq	(%rsi,%rax,8), %r15
	leaq	0(%r13,%rdi), %r12
.LBB949:
.LBB950:
	.loc 1 1347 33 is_stmt 0 view .LVU373
	movq	%r15, %rbx
	subq	%rbp, %rbx
	jmp	.L133
.LVL107:
	.p2align 4,,10
	.p2align 3
.L131:
	.loc 1 1347 15 is_stmt 1 view .LVU374
	.loc 1 1347 18 is_stmt 0 view .LVU375
	cmpq	$128, %rbx
	jg	.L118
	.loc 1 1349 15 is_stmt 1 view .LVU376
.LVL108:
	.loc 1 1350 15 view .LVU377
.LBB951:
.LBI951:
	.file 3 "/usr/include/x86_64-linux-gnu/bits/stdio2.h"
	.loc 3 64 1 view .LVU378
.LBB952:
	.loc 3 67 3 view .LVU379
	.loc 3 67 10 is_stmt 0 view .LVU380
	subq	$8, %rsp
	.cfi_def_cfa_offset 1688
.LBE952:
.LBE951:
	.loc 1 1350 24 view .LVU381
	leaq	2(%r15), %rax
.LBB954:
.LBB953:
	.loc 3 67 10 view .LVU382
	movl	%ebx, %r9d
	movl	$1, %edx
	pushq	%rax
	.cfi_def_cfa_offset 1696
	leaq	.LC3(%rip), %r8
	movl	$128, %esi
	movq	%r12, %rdi
	pushq	%r14
	.cfi_def_cfa_offset 1704
	movq	$-1, %rcx
	xorl	%eax, %eax
	pushq	%rbp
	.cfi_def_cfa_offset 1712
	call	__snprintf_chk@PLT
.LVL109:
	.loc 3 67 10 view .LVU383
	addq	$32, %rsp
	.cfi_def_cfa_offset 1680
.LVL110:
.L132:
	.loc 3 67 10 view .LVU384
.LBE953:
.LBE954:
.LBE950:
	.loc 1 1354 11 is_stmt 1 view .LVU385
	.loc 1 1354 14 is_stmt 0 view .LVU386
	cmpl	$127, %eax
	ja	.L118
	.loc 1 1354 14 view .LVU387
.LBE949:
	.loc 1 1338 31 is_stmt 1 discriminator 2 view .LVU388
	.loc 1 1338 23 discriminator 2 view .LVU389
	subq	$-128, %r12
.LVL111:
	.loc 1 1338 23 is_stmt 0 discriminator 2 view .LVU390
	subq	$-128, %r14
	.loc 1 1338 7 discriminator 2 view .LVU391
	cmpq	(%rsp), %r14
	je	.L154
.LVL112:
.L133:
.LBB957:
	.loc 1 1340 11 is_stmt 1 view .LVU392
	.loc 1 1341 11 view .LVU393
	.loc 1 1343 11 view .LVU394
	.loc 1 1343 14 is_stmt 0 view .LVU395
	testq	%r15, %r15
	jne	.L131
	.loc 1 1344 13 is_stmt 1 view .LVU396
.LVL113:
.LBB955:
.LBI955:
	.loc 3 64 1 view .LVU397
.LBB956:
	.loc 3 67 3 view .LVU398
	.loc 3 67 10 is_stmt 0 view .LVU399
	movq	%rbp, %rcx
	leaq	.LC2(%rip), %rdx
	movq	%r12, %rdi
	xorl	%eax, %eax
	movl	$128, %esi
	call	snprintf@PLT
.LVL114:
	.loc 3 67 10 view .LVU400
.LBE956:
.LBE955:
	jmp	.L132
.LVL115:
	.p2align 4,,10
	.p2align 3
.L154:
	.loc 3 67 10 view .LVU401
.LBE957:
.LBE948:
.LBE947:
	.loc 1 1335 36 is_stmt 1 discriminator 2 view .LVU402
	.loc 1 1335 24 discriminator 2 view .LVU403
	.loc 1 1335 3 is_stmt 0 discriminator 2 view .LVU404
	cmpq	$1, 16(%rsp)
	je	.L155
	movq	$1, 16(%rsp)
.LVL116:
	.loc 1 1335 3 discriminator 2 view .LVU405
	jmp	.L134
.LVL117:
.L153:
	.loc 1 1335 3 discriminator 2 view .LVU406
.LBE946:
	.loc 1 1360 1 view .LVU407
	call	__stack_chk_fail@PLT
.LVL118:
	.cfi_endproc
.LFE205:
	.size	abformat_init, .-abformat_init
	.p2align 4
	.type	queue_directory, @function
queue_directory:
.LVL119:
.LFB229:
	.loc 1 2886 1 is_stmt 1 view -0
	.cfi_startproc
	.loc 1 2887 3 view .LVU409
	.loc 1 2886 1 is_stmt 0 view .LVU410
	pushq	%r13
	.cfi_def_cfa_offset 16
	.cfi_offset 13, -16
	movl	%edx, %r13d
	pushq	%r12
	.cfi_def_cfa_offset 24
	.cfi_offset 12, -24
	movq	%rsi, %r12
	pushq	%rbp
	.cfi_def_cfa_offset 32
	.cfi_offset 6, -32
	movq	%rdi, %rbp
	.loc 1 2887 25 view .LVU411
	movl	$32, %edi
.LVL120:
	.loc 1 2886 1 view .LVU412
	pushq	%rbx
	.cfi_def_cfa_offset 40
	.cfi_offset 3, -40
	subq	$8, %rsp
	.cfi_def_cfa_offset 48
	.loc 1 2887 25 view .LVU413
	call	xmalloc@PLT
.LVL121:
	.loc 1 2887 25 view .LVU414
	movq	%rax, %rbx
.LVL122:
	.loc 1 2888 3 is_stmt 1 view .LVU415
	.loc 1 2888 49 is_stmt 0 view .LVU416
	testq	%r12, %r12
	je	.L157
	.loc 1 2888 30 discriminator 1 view .LVU417
	movq	%r12, %rdi
	call	xstrdup@PLT
.LVL123:
	.loc 1 2888 30 discriminator 1 view .LVU418
	movq	%rax, %r12
.LVL124:
.L157:
	.loc 1 2888 17 discriminator 4 view .LVU419
	movq	%r12, 8(%rbx)
	.loc 1 2889 3 is_stmt 1 discriminator 4 view .LVU420
	.loc 1 2889 37 is_stmt 0 discriminator 4 view .LVU421
	testq	%rbp, %rbp
	je	.L158
	.loc 1 2889 22 discriminator 1 view .LVU422
	movq	%rbp, %rdi
	call	xstrdup@PLT
.LVL125:
	movq	%rax, %rbp
.LVL126:
.L158:
	.loc 1 2891 13 discriminator 4 view .LVU423
	movq	pending_dirs(%rip), %rax
	.loc 1 2889 13 discriminator 4 view .LVU424
	movq	%rbp, (%rbx)
	.loc 1 2890 3 is_stmt 1 discriminator 4 view .LVU425
	.loc 1 2890 25 is_stmt 0 discriminator 4 view .LVU426
	movb	%r13b, 16(%rbx)
	.loc 1 2891 3 is_stmt 1 discriminator 4 view .LVU427
	.loc 1 2891 13 is_stmt 0 discriminator 4 view .LVU428
	movq	%rax, 24(%rbx)
	.loc 1 2892 3 is_stmt 1 discriminator 4 view .LVU429
	.loc 1 2892 16 is_stmt 0 discriminator 4 view .LVU430
	movq	%rbx, pending_dirs(%rip)
	.loc 1 2893 1 discriminator 4 view .LVU431
	addq	$8, %rsp
	.cfi_def_cfa_offset 40
	popq	%rbx
	.cfi_def_cfa_offset 32
.LVL127:
	.loc 1 2893 1 discriminator 4 view .LVU432
	popq	%rbp
	.cfi_def_cfa_offset 24
	popq	%r12
	.cfi_def_cfa_offset 16
	popq	%r13
	.cfi_def_cfa_offset 8
	ret
	.cfi_endproc
.LFE229:
	.size	queue_directory, .-queue_directory
	.p2align 4
	.type	strcmp_name, @function
strcmp_name:
.LVL128:
.LFB299:
	.loc 1 3885 1 is_stmt 1 view -0
	.cfi_startproc
	.loc 1 3885 1 is_stmt 0 view .LVU434
	endbr64
	.loc 1 3885 1 is_stmt 1 view .LVU435
.LVL129:
.LBB958:
.LBI958:
	.loc 1 3861 1 view .LVU436
.LBB959:
	.loc 1 3864 3 view .LVU437
	.loc 1 3864 10 is_stmt 0 view .LVU438
	movq	(%rsi), %rsi
.LVL130:
	.loc 1 3864 10 view .LVU439
	movq	(%rdi), %rdi
.LVL131:
	.loc 1 3864 10 view .LVU440
	jmp	strcmp@PLT
.LVL132:
.LBE959:
.LBE958:
	.cfi_endproc
.LFE299:
	.size	strcmp_name, .-strcmp_name
	.p2align 4
	.type	rev_strcmp_name, @function
rev_strcmp_name:
.LVL133:
.LFB301:
	.loc 1 3885 1 is_stmt 1 view -0
	.cfi_startproc
	.loc 1 3885 1 is_stmt 0 view .LVU442
	endbr64
	.loc 1 3885 1 is_stmt 1 view .LVU443
	movq	%rsi, %r8
.LVL134:
.LBB960:
.LBI960:
	.loc 1 3861 1 view .LVU444
.LBB961:
	.loc 1 3864 3 view .LVU445
	.loc 1 3864 10 is_stmt 0 view .LVU446
	movq	(%rdi), %rsi
.LVL135:
	.loc 1 3864 10 view .LVU447
	movq	(%r8), %rdi
.LVL136:
	.loc 1 3864 10 view .LVU448
	jmp	strcmp@PLT
.LVL137:
	.loc 1 3864 10 view .LVU449
.LBE961:
.LBE960:
	.cfi_endproc
.LFE301:
	.size	rev_strcmp_name, .-rev_strcmp_name
	.p2align 4
	.type	free_ent, @function
free_ent:
.LVL138:
.LFB236:
	.loc 1 3156 1 is_stmt 1 view -0
	.cfi_startproc
	.loc 1 3157 3 view .LVU451
	.loc 1 3156 1 is_stmt 0 view .LVU452
	pushq	%rbx
	.cfi_def_cfa_offset 16
	.cfi_offset 3, -16
	.loc 1 3156 1 view .LVU453
	movq	%rdi, %rbx
	.loc 1 3157 3 view .LVU454
	movq	(%rdi), %rdi
.LVL139:
	.loc 1 3157 3 view .LVU455
	call	free@PLT
.LVL140:
	.loc 1 3158 3 is_stmt 1 view .LVU456
	movq	8(%rbx), %rdi
	call	free@PLT
.LVL141:
	.loc 1 3159 3 view .LVU457
	movq	16(%rbx), %rdi
	call	free@PLT
.LVL142:
	.loc 1 3160 3 view .LVU458
	.loc 1 3160 8 is_stmt 0 view .LVU459
	movq	176(%rbx), %rdi
	.loc 1 3160 6 view .LVU460
	leaq	UNKNOWN_SECURITY_CONTEXT(%rip), %rax
	cmpq	%rax, %rdi
	je	.L168
	.loc 1 3162 7 is_stmt 1 view .LVU461
	.file 4 "./lib/smack.h"
	.loc 4 44 3 view .LVU462
	.loc 1 3165 9 view .LVU463
	.loc 1 3167 1 is_stmt 0 view .LVU464
	popq	%rbx
	.cfi_remember_state
	.cfi_def_cfa_offset 8
.LVL143:
	.loc 1 3165 9 view .LVU465
	jmp	freecon@PLT
.LVL144:
	.p2align 4,,10
	.p2align 3
.L168:
	.cfi_restore_state
	.loc 1 3167 1 view .LVU466
	popq	%rbx
	.cfi_def_cfa_offset 8
.LVL145:
	.loc 1 3167 1 view .LVU467
	ret
	.cfi_endproc
.LFE236:
	.size	free_ent, .-free_ent
	.p2align 4
	.type	clear_files, @function
clear_files:
.LFB237:
	.loc 1 3172 1 is_stmt 1 view -0
	.cfi_startproc
	.loc 1 3173 3 view .LVU469
.LBB962:
	.loc 1 3173 8 view .LVU470
.LVL146:
	.loc 1 3173 22 view .LVU471
	.loc 1 3173 3 is_stmt 0 view .LVU472
	cmpq	$0, cwd_n_used(%rip)
.LBE962:
	.loc 1 3172 1 view .LVU473
	pushq	%rbx
	.cfi_def_cfa_offset 16
	.cfi_offset 3, -16
.LBB965:
	.loc 1 3173 3 view .LVU474
	je	.L172
	.loc 1 3173 15 view .LVU475
	xorl	%ebx, %ebx
.LVL147:
	.p2align 4,,10
	.p2align 3
.L173:
.LBB963:
	.loc 1 3175 7 is_stmt 1 discriminator 3 view .LVU476
	.loc 1 3176 7 discriminator 3 view .LVU477
	.loc 1 3175 24 is_stmt 0 discriminator 3 view .LVU478
	movq	sorted_file(%rip), %rax
	.loc 1 3176 7 discriminator 3 view .LVU479
	movq	(%rax,%rbx,8), %rdi
.LBE963:
	.loc 1 3173 39 discriminator 3 view .LVU480
	addq	$1, %rbx
.LVL148:
.LBB964:
	.loc 1 3176 7 discriminator 3 view .LVU481
	call	free_ent
.LVL149:
	.loc 1 3176 7 discriminator 3 view .LVU482
.LBE964:
	.loc 1 3173 38 is_stmt 1 discriminator 3 view .LVU483
	.loc 1 3173 22 discriminator 3 view .LVU484
	.loc 1 3173 3 is_stmt 0 discriminator 3 view .LVU485
	cmpq	%rbx, cwd_n_used(%rip)
	ja	.L173
.LVL150:
.L172:
	.loc 1 3173 3 discriminator 3 view .LVU486
.LBE965:
	.loc 1 3179 3 is_stmt 1 view .LVU487
	.loc 1 3179 14 is_stmt 0 view .LVU488
	movq	$0, cwd_n_used(%rip)
	.loc 1 3180 3 is_stmt 1 view .LVU489
	.loc 1 3192 1 is_stmt 0 view .LVU490
	popq	%rbx
	.cfi_def_cfa_offset 8
	.loc 1 3180 19 view .LVU491
	movb	$0, cwd_some_quoted(%rip)
	.loc 1 3181 3 is_stmt 1 view .LVU492
	.loc 1 3181 15 is_stmt 0 view .LVU493
	movb	$0, any_has_acl(%rip)
	.loc 1 3182 3 is_stmt 1 view .LVU494
	.loc 1 3182 22 is_stmt 0 view .LVU495
	movl	$0, inode_number_width(%rip)
	.loc 1 3183 3 is_stmt 1 view .LVU496
	.loc 1 3183 20 is_stmt 0 view .LVU497
	movl	$0, block_size_width(%rip)
	.loc 1 3184 3 is_stmt 1 view .LVU498
	.loc 1 3184 15 is_stmt 0 view .LVU499
	movl	$0, nlink_width(%rip)
	.loc 1 3185 3 is_stmt 1 view .LVU500
	.loc 1 3185 15 is_stmt 0 view .LVU501
	movl	$0, owner_width(%rip)
	.loc 1 3186 3 is_stmt 1 view .LVU502
	.loc 1 3186 15 is_stmt 0 view .LVU503
	movl	$0, group_width(%rip)
	.loc 1 3187 3 is_stmt 1 view .LVU504
	.loc 1 3187 16 is_stmt 0 view .LVU505
	movl	$0, author_width(%rip)
	.loc 1 3188 3 is_stmt 1 view .LVU506
	.loc 1 3188 18 is_stmt 0 view .LVU507
	movl	$0, scontext_width(%rip)
	.loc 1 3189 3 is_stmt 1 view .LVU508
	.loc 1 3189 29 is_stmt 0 view .LVU509
	movl	$0, major_device_number_width(%rip)
	.loc 1 3190 3 is_stmt 1 view .LVU510
	.loc 1 3190 29 is_stmt 0 view .LVU511
	movl	$0, minor_device_number_width(%rip)
	.loc 1 3191 3 is_stmt 1 view .LVU512
	.loc 1 3191 19 is_stmt 0 view .LVU513
	movl	$0, file_size_width(%rip)
	.loc 1 3192 1 view .LVU514
	ret
	.cfi_endproc
.LFE237:
	.size	clear_files, .-clear_files
	.p2align 4
	.type	do_statx, @function
do_statx:
.LVL151:
.LFB196:
	.loc 1 1154 1 is_stmt 1 view -0
	.cfi_startproc
	.loc 1 1154 1 is_stmt 0 view .LVU516
	pushq	%rbp
	.cfi_def_cfa_offset 16
	.cfi_offset 6, -16
	movl	%r8d, %ebp
	pushq	%rbx
	.cfi_def_cfa_offset 24
	.cfi_offset 3, -24
	movq	%rdx, %rbx
	movl	%ecx, %edx
.LVL152:
	.loc 1 1157 13 view .LVU517
	movl	%ebp, %ecx
.LVL153:
	.loc 1 1154 1 view .LVU518
	subq	$280, %rsp
	.cfi_def_cfa_offset 304
	.loc 1 1154 1 view .LVU519
	movq	%fs:40, %rax
	movq	%rax, 264(%rsp)
	xorl	%eax, %eax
	.loc 1 1155 3 is_stmt 1 view .LVU520
	.loc 1 1156 3 view .LVU521
.LVL154:
	.loc 1 1157 3 view .LVU522
	.loc 1 1157 13 is_stmt 0 view .LVU523
	movq	%rsp, %r8
.LVL155:
	.loc 1 1157 13 view .LVU524
	call	statx@PLT
.LVL156:
	.loc 1 1158 3 is_stmt 1 view .LVU525
	.loc 1 1158 6 is_stmt 0 view .LVU526
	testl	%eax, %eax
	jns	.L186
.LVL157:
.L176:
	.loc 1 1173 1 view .LVU527
	movq	264(%rsp), %rdi
	xorq	%fs:40, %rdi
	jne	.L187
	addq	$280, %rsp
	.cfi_remember_state
	.cfi_def_cfa_offset 24
	popq	%rbx
	.cfi_def_cfa_offset 16
.LVL158:
	.loc 1 1173 1 view .LVU528
	popq	%rbp
	.cfi_def_cfa_offset 8
	ret
.LVL159:
	.p2align 4,,10
	.p2align 3
.L186:
	.cfi_restore_state
	.loc 1 1160 7 is_stmt 1 view .LVU529
.LBB980:
.LBI980:
	.file 5 "src/statx.h"
	.loc 5 33 1 view .LVU530
.LBB981:
	.loc 5 35 3 view .LVU531
.LBB982:
.LBB983:
	.file 6 "/usr/include/x86_64-linux-gnu/sys/sysmacros.h"
	.loc 6 43 1 is_stmt 0 view .LVU532
	movl	136(%rsp), %edx
.LBE983:
.LBE982:
	.loc 5 35 18 view .LVU533
	movl	140(%rsp), %esi
.LVL160:
.LBB987:
.LBI982:
	.loc 6 43 1 is_stmt 1 view .LVU534
.LBB984:
	.loc 6 43 1 view .LVU535
	.loc 6 43 1 view .LVU536
	movabsq	$-17592186044416, %r8
	movabsq	$17592184995840, %rdi
	movq	%rdx, %rcx
	salq	$32, %rdx
	salq	$8, %rcx
	andq	%r8, %rdx
	andl	$1048320, %ecx
.LVL161:
	.loc 6 43 1 view .LVU537
	orq	%rcx, %rdx
.LVL162:
	.loc 6 43 1 view .LVU538
	movzbl	%sil, %ecx
	salq	$12, %rsi
.LVL163:
	.loc 6 43 1 is_stmt 0 view .LVU539
	orq	%rcx, %rdx
.LVL164:
	.loc 6 43 1 is_stmt 1 view .LVU540
	.loc 6 43 1 view .LVU541
	.loc 6 43 1 is_stmt 0 view .LVU542
	andq	%rdi, %rsi
.LBE984:
.LBE987:
	.loc 5 38 23 view .LVU543
	movl	16(%rsp), %ecx
.LBB988:
.LBB985:
	.loc 6 43 1 view .LVU544
	orq	%rdx, %rsi
.LBE985:
.LBE988:
	.loc 5 36 16 view .LVU545
	movq	32(%rsp), %rdx
	.loc 5 38 23 view .LVU546
	movq	%rcx, 16(%rbx)
.LBB989:
.LBB990:
	.loc 6 43 1 view .LVU547
	movl	128(%rsp), %ecx
.LBE990:
.LBE989:
	.loc 5 36 16 view .LVU548
	movq	%rdx, 8(%rbx)
	.loc 5 37 22 view .LVU549
	movzwl	28(%rsp), %edx
.LBB996:
.LBB986:
	.loc 6 43 1 view .LVU550
	movq	%rsi, (%rbx)
.LBE986:
.LBE996:
	.loc 5 36 3 is_stmt 1 view .LVU551
	.loc 5 37 3 view .LVU552
.LBB997:
.LBB991:
	.loc 6 43 1 is_stmt 0 view .LVU553
	movq	%rcx, %rsi
	salq	$32, %rcx
.LBE991:
.LBE997:
	.loc 5 37 22 view .LVU554
	movl	%edx, 24(%rbx)
	.loc 5 38 3 is_stmt 1 view .LVU555
	.loc 5 39 3 view .LVU556
	.loc 5 40 3 view .LVU557
	.loc 5 39 16 is_stmt 0 view .LVU558
	movq	20(%rsp), %rdx
.LBB998:
.LBB992:
	.loc 6 43 1 view .LVU559
	salq	$8, %rsi
	andq	%r8, %rcx
	andl	$1048320, %esi
.LBE992:
.LBE998:
	.loc 5 39 16 view .LVU560
	movq	%rdx, 28(%rbx)
	.loc 5 41 3 is_stmt 1 view .LVU561
	.loc 5 41 19 is_stmt 0 view .LVU562
	movl	132(%rsp), %edx
.LVL165:
.LBB999:
.LBI989:
	.loc 6 43 1 is_stmt 1 view .LVU563
.LBB993:
	.loc 6 43 1 view .LVU564
	.loc 6 43 1 view .LVU565
	.loc 6 43 1 view .LVU566
	orq	%rsi, %rcx
.LVL166:
	.loc 6 43 1 view .LVU567
	movzbl	%dl, %esi
	salq	$12, %rdx
.LVL167:
	.loc 6 43 1 is_stmt 0 view .LVU568
	andq	%rdi, %rdx
	orq	%rsi, %rcx
.LVL168:
	.loc 6 43 1 is_stmt 1 view .LVU569
	.loc 6 43 1 view .LVU570
	.loc 6 43 1 is_stmt 0 view .LVU571
.LBE993:
.LBE999:
	.loc 5 43 25 view .LVU572
	movl	4(%rsp), %edi
.LBB1000:
.LBB994:
	.loc 6 43 1 view .LVU573
	orq	%rcx, %rdx
.LBE994:
.LBE1000:
.LBE981:
.LBE980:
	.loc 1 1163 10 view .LVU574
	andl	$2048, %ebp
.LVL169:
.LBB1010:
.LBB1008:
.LBB1001:
.LBB995:
	.loc 6 43 1 view .LVU575
	movq	%rdx, 40(%rbx)
.LBE995:
.LBE1001:
	.loc 5 42 3 is_stmt 1 view .LVU576
	.loc 5 42 17 is_stmt 0 view .LVU577
	movq	40(%rsp), %rdx
	.loc 5 43 25 view .LVU578
	movq	%rdi, 56(%rbx)
	.loc 5 47 19 view .LVU579
	movl	72(%rsp), %edi
	.loc 5 42 17 view .LVU580
	movq	%rdx, 48(%rbx)
	.loc 5 43 3 is_stmt 1 view .LVU581
	.loc 5 46 3 view .LVU582
	.loc 5 46 22 is_stmt 0 view .LVU583
	movq	48(%rsp), %rdx
	.loc 5 47 19 view .LVU584
	movq	%rdi, 80(%rbx)
	.loc 5 48 19 view .LVU585
	movl	120(%rsp), %edi
	.loc 5 46 22 view .LVU586
	movq	%rdx, 64(%rbx)
	.loc 5 47 3 is_stmt 1 view .LVU587
.LBB1002:
.LBI1002:
	.loc 5 23 1 view .LVU588
.LBB1003:
	.loc 5 25 3 view .LVU589
	.loc 5 27 3 view .LVU590
.LVL170:
	.loc 5 28 3 view .LVU591
	.loc 5 29 3 view .LVU592
	.loc 5 29 3 is_stmt 0 view .LVU593
.LBE1003:
.LBE1002:
	.loc 5 48 3 is_stmt 1 view .LVU594
.LBB1004:
.LBI1004:
	.loc 5 23 1 view .LVU595
.LBB1005:
	.loc 5 25 3 view .LVU596
	.loc 5 27 3 view .LVU597
	.loc 5 28 3 view .LVU598
	.loc 5 29 3 view .LVU599
	.loc 5 29 3 is_stmt 0 view .LVU600
.LBE1005:
.LBE1004:
	.loc 5 47 19 view .LVU601
	movq	64(%rsp), %rdx
	.loc 5 48 19 view .LVU602
	movq	%rdi, 96(%rbx)
	.loc 5 49 3 is_stmt 1 view .LVU603
.LBB1006:
.LBI1006:
	.loc 5 23 1 view .LVU604
.LBB1007:
	.loc 5 25 3 view .LVU605
	.loc 5 27 3 view .LVU606
.LVL171:
	.loc 5 28 3 view .LVU607
	.loc 5 29 3 view .LVU608
	.loc 5 29 3 is_stmt 0 view .LVU609
.LBE1007:
.LBE1006:
	.loc 5 49 19 view .LVU610
	movl	104(%rsp), %edi
	.loc 5 47 19 view .LVU611
	movq	%rdx, 72(%rbx)
	.loc 5 48 19 view .LVU612
	movq	112(%rsp), %rdx
	.loc 5 49 19 view .LVU613
	movq	%rdi, 112(%rbx)
.LVL172:
	.loc 5 49 19 view .LVU614
.LBE1008:
.LBE1010:
	.loc 1 1163 7 is_stmt 1 view .LVU615
.LBB1011:
.LBB1009:
	.loc 5 48 19 is_stmt 0 view .LVU616
	movq	%rdx, 88(%rbx)
	.loc 5 49 19 view .LVU617
	movq	96(%rsp), %rdx
	movq	%rdx, 104(%rbx)
.LBE1009:
.LBE1011:
	.loc 1 1163 10 view .LVU618
	je	.L176
	.loc 1 1165 11 is_stmt 1 view .LVU619
	.loc 1 1165 14 is_stmt 0 view .LVU620
	testb	$8, 1(%rsp)
	je	.L180
	.loc 1 1166 13 is_stmt 1 view .LVU621
.LBB1012:
.LBI1012:
	.loc 5 23 1 view .LVU622
.LBB1013:
	.loc 5 25 3 view .LVU623
	.loc 5 27 3 view .LVU624
.LVL173:
	.loc 5 28 3 view .LVU625
	.loc 5 29 3 view .LVU626
	.loc 5 29 3 is_stmt 0 view .LVU627
.LBE1013:
.LBE1012:
	.loc 1 1166 27 view .LVU628
	movq	80(%rsp), %rdx
	movl	88(%rsp), %edi
	movq	%rdx, 88(%rbx)
	movq	%rdi, 96(%rbx)
	jmp	.L176
	.p2align 4,,10
	.p2align 3
.L180:
	.loc 1 1168 13 is_stmt 1 view .LVU629
	.loc 1 1168 54 is_stmt 0 view .LVU630
	movq	$-1, 96(%rbx)
	.loc 1 1168 32 view .LVU631
	movq	$-1, 88(%rbx)
	.loc 1 1172 3 is_stmt 1 view .LVU632
	.loc 1 1172 10 is_stmt 0 view .LVU633
	jmp	.L176
.L187:
	.loc 1 1173 1 view .LVU634
	call	__stack_chk_fail@PLT
.LVL174:
	.loc 1 1173 1 view .LVU635
	.cfi_endproc
.LFE196:
	.size	do_statx, .-do_statx
	.p2align 4
	.type	needs_quoting, @function
needs_quoting:
.LVL175:
.LFB242:
	.loc 1 3281 1 is_stmt 1 view -0
	.cfi_startproc
	.loc 1 3281 1 is_stmt 0 view .LVU637
	pushq	%rbp
	.cfi_def_cfa_offset 16
	.cfi_offset 6, -16
	movq	%rdi, %rbp
	.loc 1 3283 16 view .LVU638
	movq	$-1, %rcx
	movl	$2, %esi
	.loc 1 3281 1 view .LVU639
	pushq	%rbx
	.cfi_def_cfa_offset 24
	.cfi_offset 3, -24
	.loc 1 3283 16 view .LVU640
	movq	%rbp, %rdx
	.loc 1 3281 1 view .LVU641
	subq	$24, %rsp
	.cfi_def_cfa_offset 48
	.loc 1 3283 16 view .LVU642
	movq	filename_quoting_options(%rip), %r8
	.loc 1 3281 1 view .LVU643
	movq	%fs:40, %rax
	movq	%rax, 8(%rsp)
	xorl	%eax, %eax
	.loc 1 3282 3 is_stmt 1 view .LVU644
	.loc 1 3283 3 view .LVU645
	.loc 1 3283 16 is_stmt 0 view .LVU646
	leaq	6(%rsp), %rdi
.LVL176:
	.loc 1 3283 16 view .LVU647
	call	quotearg_buffer@PLT
.LVL177:
	.loc 1 3285 3 is_stmt 1 view .LVU648
	.loc 1 3285 25 is_stmt 0 view .LVU649
	movzbl	6(%rsp), %edx
	cmpb	%dl, 0(%rbp)
	je	.L194
	movl	$1, %eax
.LVL178:
.L188:
	.loc 1 3286 1 view .LVU650
	movq	8(%rsp), %rcx
	xorq	%fs:40, %rcx
	jne	.L195
	addq	$24, %rsp
	.cfi_remember_state
	.cfi_def_cfa_offset 24
	popq	%rbx
	.cfi_def_cfa_offset 16
	popq	%rbp
	.cfi_def_cfa_offset 8
.LVL179:
	.loc 1 3286 1 view .LVU651
	ret
.LVL180:
	.p2align 4,,10
	.p2align 3
.L194:
	.cfi_restore_state
	.loc 1 3285 28 discriminator 2 view .LVU652
	movq	%rbp, %rdi
	movq	%rax, %rbx
	call	strlen@PLT
.LVL181:
	.loc 1 3285 25 discriminator 2 view .LVU653
	cmpq	%rbx, %rax
	setne	%al
	jmp	.L188
.LVL182:
.L195:
	.loc 1 3286 1 view .LVU654
	call	__stack_chk_fail@PLT
.LVL183:
	.cfi_endproc
.LFE242:
	.size	needs_quoting, .-needs_quoting
	.section	.rodata.str1.1
.LC4:
	.string	"%%%02x"
	.text
	.p2align 4
	.type	file_escape, @function
file_escape:
.LVL184:
.LFB334:
	.loc 1 4657 1 is_stmt 1 view -0
	.cfi_startproc
	.loc 1 4658 3 view .LVU656
	.loc 1 4657 1 is_stmt 0 view .LVU657
	pushq	%r14
	.cfi_def_cfa_offset 16
	.cfi_offset 14, -16
	pushq	%r13
	.cfi_def_cfa_offset 24
	.cfi_offset 13, -24
	pushq	%r12
	.cfi_def_cfa_offset 32
	.cfi_offset 12, -32
	movl	%esi, %r12d
	pushq	%rbp
	.cfi_def_cfa_offset 40
	.cfi_offset 6, -40
	pushq	%rbx
	.cfi_def_cfa_offset 48
	.cfi_offset 3, -48
	.loc 1 4657 1 view .LVU658
	movq	%rdi, %rbx
	.loc 1 4658 28 view .LVU659
	call	strlen@PLT
.LVL185:
	.loc 1 4658 15 view .LVU660
	leaq	1(%rax), %rcx
.LVL186:
.LBB1014:
.LBI1014:
	.file 7 "./lib/xalloc.h"
	.loc 7 99 1 is_stmt 1 view .LVU661
.LBB1015:
	.loc 7 101 3 view .LVU662
	.loc 7 101 7 is_stmt 0 view .LVU663
	movl	$3, %eax
	mulq	%rcx
	seto	%dl
	testq	%rax, %rax
	js	.L214
	movzbl	%dl, %edx
	.loc 7 101 6 view .LVU664
	testq	%rdx, %rdx
	jne	.L214
	.loc 7 103 3 is_stmt 1 view .LVU665
	.loc 7 103 10 is_stmt 0 view .LVU666
	leaq	(%rcx,%rcx,2), %rdi
	call	xmalloc@PLT
.LVL187:
	.loc 7 103 10 view .LVU667
	movq	%rax, %r13
.LVL188:
	.loc 7 103 10 view .LVU668
.LBE1015:
.LBE1014:
	.loc 1 4659 3 is_stmt 1 view .LVU669
	.loc 1 4660 3 view .LVU670
	.loc 1 4660 9 view .LVU671
	.loc 1 4660 10 is_stmt 0 view .LVU672
	movzbl	(%rbx), %eax
.LVL189:
	.loc 1 4659 9 view .LVU673
	movq	%r13, %rbp
	.loc 1 4660 9 view .LVU674
	testb	%al, %al
	je	.L201
	.loc 1 4667 23 view .LVU675
	leaq	RFC3986(%rip), %r14
	jmp	.L205
.LVL190:
	.p2align 4,,10
	.p2align 3
.L217:
	.loc 1 4668 9 is_stmt 1 view .LVU676
	.loc 1 4668 14 is_stmt 0 view .LVU677
	movb	%al, 0(%rbp)
	.loc 1 4668 11 view .LVU678
	addq	$1, %rbp
.LVL191:
.L203:
	.loc 1 4660 9 is_stmt 1 view .LVU679
	.loc 1 4660 10 is_stmt 0 view .LVU680
	movzbl	(%rbx), %eax
	.loc 1 4660 9 view .LVU681
	testb	%al, %al
	je	.L201
.L205:
	.loc 1 4662 7 is_stmt 1 discriminator 1 view .LVU682
	addq	$1, %rbx
.LVL192:
	.loc 1 4662 16 is_stmt 0 discriminator 1 view .LVU683
	cmpb	$47, %al
	jne	.L202
	.loc 1 4662 16 discriminator 1 view .LVU684
	testb	%r12b, %r12b
	jne	.L216
.L202:
	.loc 1 4667 12 is_stmt 1 view .LVU685
.LVL193:
.LBB1017:
.LBI1017:
	.loc 2 156 29 view .LVU686
.LBB1018:
	.loc 2 156 50 view .LVU687
	.loc 2 156 50 is_stmt 0 view .LVU688
.LBE1018:
.LBE1017:
	.loc 1 4667 23 view .LVU689
	movzbl	%al, %edx
	.loc 1 4667 24 view .LVU690
	movzbl	%al, %r8d
	.loc 1 4667 15 view .LVU691
	cmpb	$0, (%r14,%rdx)
	jne	.L217
	.loc 1 4670 9 is_stmt 1 view .LVU692
.LVL194:
	.loc 2 156 50 view .LVU693
.LBB1019:
.LBI1019:
	.loc 3 34 1 view .LVU694
.LBB1020:
	.loc 3 36 3 view .LVU695
	.loc 3 36 10 is_stmt 0 view .LVU696
	movq	%rbp, %rdi
	movl	$1, %esi
	xorl	%eax, %eax
.LBE1020:
.LBE1019:
	.loc 1 4670 11 view .LVU697
	addq	$3, %rbp
.LVL195:
.LBB1022:
.LBB1021:
	.loc 3 36 10 view .LVU698
	leaq	.LC4(%rip), %rcx
	movq	$-1, %rdx
	call	__sprintf_chk@PLT
.LVL196:
	.loc 3 36 10 view .LVU699
.LBE1021:
.LBE1022:
	.loc 1 4660 9 is_stmt 1 view .LVU700
	.loc 1 4660 10 is_stmt 0 view .LVU701
	movzbl	(%rbx), %eax
	.loc 1 4660 9 view .LVU702
	testb	%al, %al
	jne	.L205
.L201:
	.loc 1 4672 3 is_stmt 1 view .LVU703
	.loc 1 4672 6 is_stmt 0 view .LVU704
	movb	$0, 0(%rbp)
	.loc 1 4673 3 is_stmt 1 view .LVU705
	.loc 1 4674 1 is_stmt 0 view .LVU706
	movq	%r13, %rax
	popq	%rbx
	.cfi_remember_state
	.cfi_def_cfa_offset 40
.LVL197:
	.loc 1 4674 1 view .LVU707
	popq	%rbp
	.cfi_def_cfa_offset 32
.LVL198:
	.loc 1 4674 1 view .LVU708
	popq	%r12
	.cfi_def_cfa_offset 24
.LVL199:
	.loc 1 4674 1 view .LVU709
	popq	%r13
	.cfi_def_cfa_offset 16
.LVL200:
	.loc 1 4674 1 view .LVU710
	popq	%r14
	.cfi_def_cfa_offset 8
	ret
.LVL201:
	.p2align 4,,10
	.p2align 3
.L216:
	.cfi_restore_state
	.loc 1 4664 11 is_stmt 1 view .LVU711
	.loc 1 4664 16 is_stmt 0 view .LVU712
	movb	$47, 0(%rbp)
	.loc 1 4665 11 is_stmt 1 view .LVU713
.LVL202:
	.loc 1 4664 13 is_stmt 0 view .LVU714
	addq	$1, %rbp
.LVL203:
	.loc 1 4665 14 view .LVU715
	jmp	.L203
.LVL204:
.L214:
.LBB1023:
.LBB1016:
	.loc 7 102 5 is_stmt 1 view .LVU716
	call	xalloc_die@PLT
.LVL205:
	.loc 7 102 5 is_stmt 0 view .LVU717
.LBE1016:
.LBE1023:
	.cfi_endproc
.LFE334:
	.size	file_escape, .-file_escape
	.section	.rodata.str1.1
.LC5:
	.string	"src/ls.c"
.LC6:
	.string	"sort_type != sort_version"
	.text
	.p2align 4
	.type	sort_files, @function
sort_files:
.LFB320:
	.loc 1 3988 1 is_stmt 1 view -0
	.cfi_startproc
	.loc 1 3989 3 view .LVU719
	.loc 1 3991 3 view .LVU720
	.loc 1 3988 1 is_stmt 0 view .LVU721
	pushq	%rbx
	.cfi_def_cfa_offset 16
	.cfi_offset 3, -16
	.loc 1 3991 51 view .LVU722
	movq	cwd_n_used(%rip), %rbx
	movq	%rbx, %rax
	shrq	%rax
	.loc 1 3991 38 view .LVU723
	addq	%rbx, %rax
	.loc 1 3991 6 view .LVU724
	cmpq	sorted_file_alloc(%rip), %rax
	ja	.L242
.L219:
.LVL206:
.LBB1024:
.LBB1025:
	.loc 1 3980 22 is_stmt 1 view .LVU725
	.loc 1 3980 3 is_stmt 0 view .LVU726
	testq	%rbx, %rbx
	je	.L228
	movq	sorted_file(%rip), %rax
	movq	cwd_file(%rip), %rdx
	leaq	(%rax,%rbx,8), %rcx
.LVL207:
	.p2align 4,,10
	.p2align 3
.L227:
	.loc 1 3981 5 is_stmt 1 view .LVU727
	.loc 1 3981 20 is_stmt 0 view .LVU728
	movq	%rdx, (%rax)
	.loc 1 3980 38 is_stmt 1 view .LVU729
	.loc 1 3980 22 view .LVU730
	addq	$8, %rax
	addq	$200, %rdx
	.loc 1 3980 3 is_stmt 0 view .LVU731
	cmpq	%rax, %rcx
	jne	.L227
.L228:
.LBE1025:
.LBE1024:
	.loc 1 4000 3 is_stmt 1 view .LVU732
	.loc 1 4000 6 is_stmt 0 view .LVU733
	cmpl	$-1, sort_type(%rip)
	je	.L218
	.loc 1 4008 9 view .LVU734
	leaq	failed_strcoll(%rip), %rdi
	call	_setjmp@PLT
.LVL208:
	endbr64
	movl	sort_type(%rip), %esi
	.loc 1 4008 6 view .LVU735
	testl	%eax, %eax
	je	.L230
	.loc 1 4012 7 is_stmt 1 view .LVU736
.LVL209:
	.loc 1 4013 7 view .LVU737
	cmpl	$3, %esi
	je	.L231
.LVL210:
.LBB1026:
.LBB1027:
	.loc 1 3980 22 view .LVU738
	.loc 1 3980 24 is_stmt 0 view .LVU739
	movq	cwd_n_used(%rip), %r8
	movq	sorted_file(%rip), %rdi
	.loc 1 3980 3 view .LVU740
	testq	%r8, %r8
	je	.L241
	movq	cwd_file(%rip), %rdx
	movq	%rdi, %rax
	leaq	(%rdi,%r8,8), %rcx
.LVL211:
	.p2align 4,,10
	.p2align 3
.L234:
	.loc 1 3981 5 is_stmt 1 view .LVU741
	.loc 1 3981 20 is_stmt 0 view .LVU742
	movq	%rdx, (%rax)
	.loc 1 3980 38 is_stmt 1 view .LVU743
	.loc 1 3980 22 view .LVU744
	addq	$8, %rax
	addq	$200, %rdx
	.loc 1 3980 3 is_stmt 0 view .LVU745
	cmpq	%rcx, %rax
	jne	.L234
.L241:
	movl	$1, %eax
.LVL212:
.L233:
	.loc 1 3980 3 view .LVU746
.LBE1027:
.LBE1026:
	.loc 1 4018 3 is_stmt 1 view .LVU747
	.loc 1 4019 74 is_stmt 0 view .LVU748
	cmpl	$4, %esi
	movl	$0, %edx
	.loc 1 4021 25 view .LVU749
	cltq
	.loc 1 4019 74 view .LVU750
	cmove	time_type(%rip), %edx
	.loc 1 4021 25 view .LVU751
	movzbl	directories_first(%rip), %ecx
	addl	%esi, %edx
	.loc 1 4018 3 view .LVU752
	movq	%r8, %rsi
	.loc 1 4021 25 view .LVU753
	leaq	(%rax,%rdx,2), %rdx
	movzbl	sort_reverse(%rip), %eax
	leaq	(%rax,%rdx,2), %rax
	leaq	(%rcx,%rax,2), %rdx
	.loc 1 4018 3 view .LVU754
	leaq	sort_functions(%rip), %rax
	movq	(%rax,%rdx,8), %rdx
	call	mpsort@PLT
.LVL213:
.L218:
	.loc 1 4022 1 view .LVU755
	popq	%rbx
	.cfi_remember_state
	.cfi_def_cfa_offset 8
	ret
	.p2align 4,,10
	.p2align 3
.L230:
	.cfi_restore_state
	movq	sorted_file(%rip), %rdi
	movq	cwd_n_used(%rip), %r8
	jmp	.L233
	.p2align 4,,10
	.p2align 3
.L242:
	.loc 1 3993 7 is_stmt 1 view .LVU756
	movq	sorted_file(%rip), %rdi
	call	free@PLT
.LVL214:
	.loc 1 3994 7 view .LVU757
.LBB1028:
.LBI1028:
	.loc 7 99 1 view .LVU758
.LBB1029:
	.loc 7 101 3 view .LVU759
	.loc 7 101 7 is_stmt 0 view .LVU760
	movl	$24, %edx
	movq	%rdx, %rax
	mulq	%rbx
	seto	%dl
	testq	%rax, %rax
	movl	$1, %eax
	movzbl	%dl, %edx
	cmovs	%rax, %rdx
	.loc 7 101 6 view .LVU761
	testq	%rdx, %rdx
	jne	.L243
	.loc 7 103 3 is_stmt 1 view .LVU762
	.loc 7 103 10 is_stmt 0 view .LVU763
	leaq	(%rbx,%rbx,2), %rdi
	salq	$3, %rdi
	call	xmalloc@PLT
.LVL215:
	.loc 7 103 10 view .LVU764
.LBE1029:
.LBE1028:
	.loc 1 3995 29 view .LVU765
	movq	cwd_n_used(%rip), %rbx
	.loc 1 3994 19 view .LVU766
	movq	%rax, sorted_file(%rip)
	.loc 1 3995 7 is_stmt 1 view .LVU767
	.loc 1 3995 29 is_stmt 0 view .LVU768
	leaq	(%rbx,%rbx,2), %rax
	.loc 1 3995 25 view .LVU769
	movq	%rax, sorted_file_alloc(%rip)
	jmp	.L219
.LVL216:
.L243:
.LBB1031:
.LBB1030:
	.loc 7 102 5 is_stmt 1 view .LVU770
	call	xalloc_die@PLT
.LVL217:
.L231:
	.loc 7 102 5 is_stmt 0 view .LVU771
.LBE1030:
.LBE1031:
	.loc 1 4013 7 is_stmt 1 discriminator 1 view .LVU772
	leaq	__PRETTY_FUNCTION__.11481(%rip), %rcx
	movl	$4013, %edx
	leaq	.LC5(%rip), %rsi
	leaq	.LC6(%rip), %rdi
	call	__assert_fail@PLT
.LVL218:
	.cfi_endproc
.LFE320:
	.size	sort_files, .-sort_files
	.p2align 4
	.type	xstrcoll, @function
xstrcoll:
.LVL219:
.LFB250:
	.loc 1 3752 1 view -0
	.cfi_startproc
	.loc 1 3753 3 view .LVU774
	.loc 1 3754 3 view .LVU775
	.loc 1 3752 1 is_stmt 0 view .LVU776
	pushq	%r12
	.cfi_def_cfa_offset 16
	.cfi_offset 12, -16
	movq	%rsi, %r12
	pushq	%rbp
	.cfi_def_cfa_offset 24
	.cfi_offset 6, -24
	movq	%rdi, %rbp
	subq	$8, %rsp
	.cfi_def_cfa_offset 32
	.loc 1 3754 3 view .LVU777
	call	__errno_location@PLT
.LVL220:
	.loc 1 3755 10 view .LVU778
	movq	%r12, %rsi
	movq	%rbp, %rdi
	.loc 1 3754 9 view .LVU779
	movl	$0, (%rax)
	.loc 1 3755 3 is_stmt 1 view .LVU780
	.loc 1 3764 1 is_stmt 0 view .LVU781
	addq	$8, %rsp
	.cfi_def_cfa_offset 24
	popq	%rbp
	.cfi_def_cfa_offset 16
.LVL221:
	.loc 1 3764 1 view .LVU782
	popq	%r12
	.cfi_def_cfa_offset 8
.LVL222:
	.loc 1 3755 10 view .LVU783
	jmp	strcoll@PLT
.LVL223:
	.loc 1 3755 10 view .LVU784
	.cfi_endproc
.LFE250:
	.size	xstrcoll, .-xstrcoll
	.p2align 4
	.type	xstrcoll_name, @function
xstrcoll_name:
.LVL224:
.LFB298:
	.loc 1 3885 1 is_stmt 1 view -0
	.cfi_startproc
	.loc 1 3885 1 is_stmt 0 view .LVU786
	endbr64
	.loc 1 3885 1 is_stmt 1 view .LVU787
.LVL225:
.LBB1032:
.LBI1032:
	.loc 1 3861 1 view .LVU788
.LBB1033:
	.loc 1 3864 3 view .LVU789
	.loc 1 3864 10 is_stmt 0 view .LVU790
	movq	(%rsi), %rsi
.LVL226:
	.loc 1 3864 10 view .LVU791
	movq	(%rdi), %rdi
.LVL227:
	.loc 1 3864 10 view .LVU792
	jmp	xstrcoll
.LVL228:
.LBE1033:
.LBE1032:
	.cfi_endproc
.LFE298:
	.size	xstrcoll_name, .-xstrcoll_name
	.p2align 4
	.type	rev_xstrcoll_name, @function
rev_xstrcoll_name:
.LVL229:
.LFB300:
	.loc 1 3885 1 is_stmt 1 view -0
	.cfi_startproc
	.loc 1 3885 1 is_stmt 0 view .LVU794
	endbr64
	.loc 1 3885 1 is_stmt 1 view .LVU795
	movq	%rsi, %r8
.LVL230:
.LBB1034:
.LBI1034:
	.loc 1 3861 1 view .LVU796
.LBB1035:
	.loc 1 3864 3 view .LVU797
	.loc 1 3864 10 is_stmt 0 view .LVU798
	movq	(%rdi), %rsi
.LVL231:
	.loc 1 3864 10 view .LVU799
	movq	(%r8), %rdi
.LVL232:
	.loc 1 3864 10 view .LVU800
	jmp	xstrcoll
.LVL233:
	.loc 1 3864 10 view .LVU801
.LBE1035:
.LBE1034:
	.cfi_endproc
.LFE300:
	.size	rev_xstrcoll_name, .-rev_xstrcoll_name
	.p2align 4
	.type	rev_xstrcoll_version, @function
rev_xstrcoll_version:
.LVL234:
.LFB316:
	.loc 1 3906 1 is_stmt 1 view -0
	.cfi_startproc
	.loc 1 3906 1 is_stmt 0 view .LVU803
	endbr64
	.loc 1 3906 3 is_stmt 1 view .LVU804
	.loc 1 3906 1 is_stmt 0 view .LVU805
	movq	%rsi, %r8
.LBB1036:
.LBI1036:
	.loc 1 3898 1 is_stmt 1 view .LVU806
.LVL235:
.LBB1037:
	.loc 1 3900 3 view .LVU807
	.loc 1 3900 10 is_stmt 0 view .LVU808
	movq	(%rdi), %rsi
.LVL236:
	.loc 1 3900 10 view .LVU809
	movq	(%r8), %rdi
.LVL237:
	.loc 1 3900 10 view .LVU810
	jmp	filevercmp@PLT
.LVL238:
	.loc 1 3900 10 view .LVU811
.LBE1037:
.LBE1036:
	.cfi_endproc
.LFE316:
	.size	rev_xstrcoll_version, .-rev_xstrcoll_version
	.p2align 4
	.type	xstrcoll_version, @function
xstrcoll_version:
.LVL239:
.LFB315:
	.loc 1 3904 1 is_stmt 1 view -0
	.cfi_startproc
	.loc 1 3904 1 is_stmt 0 view .LVU813
	endbr64
	.loc 1 3904 3 is_stmt 1 view .LVU814
.LBB1038:
.LBI1038:
	.loc 1 3898 1 view .LVU815
.LVL240:
.LBB1039:
	.loc 1 3900 3 view .LVU816
	.loc 1 3900 10 is_stmt 0 view .LVU817
	movq	(%rsi), %rsi
.LVL241:
	.loc 1 3900 10 view .LVU818
	movq	(%rdi), %rdi
.LVL242:
	.loc 1 3900 10 view .LVU819
	jmp	filevercmp@PLT
.LVL243:
.LBE1039:
.LBE1038:
	.cfi_endproc
.LFE315:
	.size	xstrcoll_version, .-xstrcoll_version
	.p2align 4
	.type	extract_dirs_from_files, @function
extract_dirs_from_files:
.LVL244:
.LFB249:
	.loc 1 3697 1 is_stmt 1 view -0
	.cfi_startproc
	.loc 1 3698 3 view .LVU821
	.loc 1 3699 3 view .LVU822
	.loc 1 3700 3 view .LVU823
	.loc 1 3702 3 view .LVU824
	.loc 1 3697 1 is_stmt 0 view .LVU825
	pushq	%r14
	.cfi_def_cfa_offset 16
	.cfi_offset 14, -16
	pushq	%r13
	.cfi_def_cfa_offset 24
	.cfi_offset 13, -24
	movzbl	%sil, %r13d
	pushq	%r12
	.cfi_def_cfa_offset 32
	.cfi_offset 12, -32
	movq	%rdi, %r12
	pushq	%rbp
	.cfi_def_cfa_offset 40
	.cfi_offset 6, -40
	pushq	%rbx
	.cfi_def_cfa_offset 48
	.cfi_offset 3, -48
	.loc 1 3702 6 view .LVU826
	testq	%rdi, %rdi
	je	.L251
	.loc 1 3702 15 discriminator 1 view .LVU827
	cmpq	$0, active_dir_set(%rip)
	je	.L251
	.loc 1 3707 7 is_stmt 1 view .LVU828
	movq	%rdi, %rsi
.LVL245:
	.loc 1 3707 7 is_stmt 0 view .LVU829
	xorl	%edx, %edx
	xorl	%edi, %edi
.LVL246:
	.loc 1 3707 7 view .LVU830
	call	queue_directory
.LVL247:
.L251:
	.loc 1 3712 3 is_stmt 1 view .LVU831
	.loc 1 3712 10 is_stmt 0 view .LVU832
	movq	cwd_n_used(%rip), %rax
.LVL248:
	.loc 1 3712 24 is_stmt 1 view .LVU833
	.loc 1 3712 25 is_stmt 0 view .LVU834
	leaq	-1(%rax), %rbx
.LVL249:
	.loc 1 3712 3 view .LVU835
	testq	%rax, %rax
	jne	.L252
	jmp	.L262
.LVL250:
	.p2align 4,,10
	.p2align 3
.L255:
	.loc 1 3712 24 is_stmt 1 discriminator 1 view .LVU836
	.loc 1 3712 25 is_stmt 0 discriminator 1 view .LVU837
	subq	$1, %rbx
.LVL251:
	.loc 1 3712 3 discriminator 1 view .LVU838
	cmpq	$-1, %rbx
	je	.L275
.LVL252:
.L252:
.LBB1050:
	.loc 1 3714 7 is_stmt 1 view .LVU839
	.loc 1 3714 24 is_stmt 0 view .LVU840
	movq	sorted_file(%rip), %rax
	movq	(%rax,%rbx,8), %rbp
.LVL253:
	.loc 1 3716 7 is_stmt 1 view .LVU841
	.loc 1 3716 11 is_stmt 0 view .LVU842
	movl	168(%rbp), %eax
.LBB1051:
.LBI1051:
	.loc 1 3619 1 is_stmt 1 view .LVU843
.LVL254:
.LBB1052:
	.loc 1 3621 3 view .LVU844
.LBE1052:
.LBE1051:
	.loc 1 3716 10 is_stmt 0 view .LVU845
	cmpl	$3, %eax
	je	.L254
	.loc 1 3716 10 view .LVU846
	cmpl	$9, %eax
	jne	.L255
.L254:
	movq	0(%rbp), %r14
	.loc 1 3717 11 view .LVU847
	testq	%r12, %r12
	je	.L261
.LVL255:
.LBB1053:
.LBI1053:
	.loc 1 3681 1 is_stmt 1 view .LVU848
.LBB1054:
	.loc 1 3683 3 view .LVU849
	.loc 1 3683 22 is_stmt 0 view .LVU850
	movq	%r14, %rdi
	call	last_component@PLT
.LVL256:
	.loc 1 3684 3 is_stmt 1 view .LVU851
.LBB1055:
.LBI1055:
	.loc 2 265 1 view .LVU852
.LBB1056:
	.loc 2 267 3 view .LVU853
	.loc 2 267 6 is_stmt 0 view .LVU854
	cmpb	$46, (%rax)
	je	.L276
.LVL257:
.L258:
	.loc 2 267 6 view .LVU855
.LBE1056:
.LBE1055:
.LBE1054:
.LBE1053:
	.loc 1 3720 11 is_stmt 1 discriminator 1 view .LVU856
	.loc 1 3720 24 is_stmt 0 discriminator 1 view .LVU857
	cmpb	$47, (%r14)
	je	.L261
.LBB1061:
	.loc 1 3724 15 is_stmt 1 view .LVU858
	.loc 1 3724 28 is_stmt 0 view .LVU859
	movq	%r14, %rsi
	xorl	%edx, %edx
	movq	%r12, %rdi
	call	file_name_concat@PLT
.LVL258:
	.loc 1 3725 15 view .LVU860
	movq	8(%rbp), %rsi
	movl	%r13d, %edx
	.loc 1 3724 28 view .LVU861
	movq	%rax, %r14
.LVL259:
	.loc 1 3725 15 is_stmt 1 view .LVU862
	movq	%rax, %rdi
	call	queue_directory
.LVL260:
	.loc 1 3726 15 view .LVU863
	movq	%r14, %rdi
	call	free@PLT
.LVL261:
.L257:
	.loc 1 3726 15 is_stmt 0 view .LVU864
.LBE1061:
	.loc 1 3728 11 is_stmt 1 view .LVU865
	.loc 1 3728 14 is_stmt 0 view .LVU866
	cmpl	$9, 168(%rbp)
	jne	.L255
	.loc 1 3729 13 is_stmt 1 view .LVU867
	movq	%rbp, %rdi
.LBE1050:
	.loc 1 3712 25 is_stmt 0 view .LVU868
	subq	$1, %rbx
.LVL262:
.LBB1063:
	.loc 1 3729 13 view .LVU869
	call	free_ent
.LVL263:
	.loc 1 3729 13 view .LVU870
.LBE1063:
	.loc 1 3712 24 is_stmt 1 view .LVU871
	.loc 1 3712 3 is_stmt 0 view .LVU872
	cmpq	$-1, %rbx
	jne	.L252
	.p2align 4,,10
	.p2align 3
.L275:
.LVL264:
	.loc 1 3736 22 is_stmt 1 view .LVU873
	.loc 1 3736 24 is_stmt 0 view .LVU874
	movq	cwd_n_used(%rip), %rdx
	.loc 1 3736 3 view .LVU875
	testq	%rdx, %rdx
	je	.L262
.LBB1064:
	.loc 1 3738 39 view .LVU876
	movq	sorted_file(%rip), %rsi
	leaq	(%rsi,%rdx,8), %rdi
	movq	%rsi, %rax
.LBE1064:
	.loc 1 3736 17 view .LVU877
	xorl	%edx, %edx
.LVL265:
	.p2align 4,,10
	.p2align 3
.L263:
.LBB1065:
	.loc 1 3738 7 is_stmt 1 discriminator 3 view .LVU878
	.loc 1 3738 24 is_stmt 0 discriminator 3 view .LVU879
	movq	(%rax), %rcx
.LVL266:
	.loc 1 3739 7 is_stmt 1 discriminator 3 view .LVU880
	.loc 1 3740 25 is_stmt 0 discriminator 3 view .LVU881
	cmpl	$9, 168(%rcx)
	.loc 1 3739 22 discriminator 3 view .LVU882
	movq	%rcx, (%rsi,%rdx,8)
	.loc 1 3740 7 is_stmt 1 discriminator 3 view .LVU883
	.loc 1 3740 25 is_stmt 0 discriminator 3 view .LVU884
	setne	%cl
.LVL267:
	.loc 1 3740 25 discriminator 3 view .LVU885
	addq	$8, %rax
	movzbl	%cl, %ecx
	.loc 1 3740 9 discriminator 3 view .LVU886
	addq	%rcx, %rdx
.LVL268:
	.loc 1 3740 9 discriminator 3 view .LVU887
.LBE1065:
	.loc 1 3736 38 is_stmt 1 discriminator 3 view .LVU888
	.loc 1 3736 22 discriminator 3 view .LVU889
	.loc 1 3736 3 is_stmt 0 discriminator 3 view .LVU890
	cmpq	%rax, %rdi
	jne	.L263
.LVL269:
	.loc 1 3742 3 is_stmt 1 view .LVU891
	.loc 1 3743 1 is_stmt 0 view .LVU892
	popq	%rbx
	.cfi_remember_state
	.cfi_def_cfa_offset 40
	popq	%rbp
	.cfi_def_cfa_offset 32
.LVL270:
	.loc 1 3742 14 view .LVU893
	movq	%rdx, cwd_n_used(%rip)
	.loc 1 3743 1 view .LVU894
	popq	%r12
	.cfi_def_cfa_offset 24
.LVL271:
	.loc 1 3743 1 view .LVU895
	popq	%r13
	.cfi_def_cfa_offset 16
.LVL272:
	.loc 1 3743 1 view .LVU896
	popq	%r14
	.cfi_def_cfa_offset 8
	ret
.LVL273:
	.p2align 4,,10
	.p2align 3
.L261:
	.cfi_restore_state
.LBB1066:
	.loc 1 3721 13 is_stmt 1 view .LVU897
	movq	8(%rbp), %rsi
	movl	%r13d, %edx
	movq	%r14, %rdi
	call	queue_directory
.LVL274:
	jmp	.L257
.LVL275:
	.p2align 4,,10
	.p2align 3
.L276:
.LBB1062:
.LBB1060:
.LBB1059:
.LBB1058:
.LBB1057:
	.loc 2 269 7 view .LVU898
	.loc 2 269 27 is_stmt 0 view .LVU899
	xorl	%edx, %edx
	cmpb	$46, 1(%rax)
	sete	%dl
	.loc 2 269 12 view .LVU900
	movzbl	1(%rax,%rdx), %eax
.LVL276:
	.loc 2 270 7 is_stmt 1 view .LVU901
	.loc 2 270 7 is_stmt 0 view .LVU902
.LBE1057:
.LBE1058:
.LBE1059:
.LBE1060:
.LBE1062:
	.loc 1 3718 15 view .LVU903
	testb	%al, %al
	je	.L255
	cmpb	$47, %al
	je	.L255
	jmp	.L258
.LVL277:
	.p2align 4,,10
	.p2align 3
.L262:
	.loc 1 3718 15 view .LVU904
.LBE1066:
	.loc 1 3736 17 view .LVU905
	xorl	%edx, %edx
	.loc 1 3742 3 is_stmt 1 view .LVU906
	.loc 1 3743 1 is_stmt 0 view .LVU907
	popq	%rbx
	.cfi_def_cfa_offset 40
	popq	%rbp
	.cfi_def_cfa_offset 32
	.loc 1 3742 14 view .LVU908
	movq	%rdx, cwd_n_used(%rip)
	.loc 1 3743 1 view .LVU909
	popq	%r12
	.cfi_def_cfa_offset 24
.LVL278:
	.loc 1 3743 1 view .LVU910
	popq	%r13
	.cfi_def_cfa_offset 16
	popq	%r14
	.cfi_def_cfa_offset 8
	ret
	.cfi_endproc
.LFE249:
	.size	extract_dirs_from_files, .-extract_dirs_from_files
	.p2align 4
	.type	indent, @function
indent:
.LVL279:
.LFB348:
	.loc 1 5167 1 is_stmt 1 view -0
	.cfi_startproc
	.loc 1 5168 3 view .LVU912
	.loc 1 5168 9 view .LVU913
	cmpq	%rsi, %rdi
	jnb	.L292
	.loc 1 5167 1 is_stmt 0 view .LVU914
	pushq	%r12
	.cfi_def_cfa_offset 16
	.cfi_offset 12, -16
	movq	%rsi, %r12
	pushq	%rbp
	.cfi_def_cfa_offset 24
	.cfi_offset 6, -24
	pushq	%rbx
	.cfi_def_cfa_offset 32
	.cfi_offset 3, -32
	movq	%rdi, %rbx
	jmp	.L278
.LVL280:
	.p2align 4,,10
	.p2align 3
.L297:
	.loc 1 5170 30 discriminator 1 view .LVU915
	movq	%r12, %rax
	xorl	%edx, %edx
	divq	%rcx
	.loc 1 5170 53 discriminator 1 view .LVU916
	xorl	%edx, %edx
	.loc 1 5170 30 discriminator 1 view .LVU917
	movq	%rax, %r9
	.loc 1 5170 53 discriminator 1 view .LVU918
	movq	%rbp, %rax
	divq	%rcx
	.loc 1 5170 24 discriminator 1 view .LVU919
	cmpq	%rax, %r9
	jbe	.L279
	.loc 1 5172 11 is_stmt 1 view .LVU920
.LVL281:
.LBB1067:
.LBI1067:
	.file 8 "/usr/include/x86_64-linux-gnu/bits/stdio.h"
	.loc 8 108 1 view .LVU921
.LBB1068:
	.loc 8 110 3 view .LVU922
	.loc 8 110 10 is_stmt 0 view .LVU923
	cmpq	%r8, %rsi
	jnb	.L295
	leaq	1(%rsi), %rax
	movq	%rax, 40(%rdi)
	movb	$9, (%rsi)
.L281:
.LVL282:
	.loc 8 110 10 view .LVU924
.LBE1068:
.LBE1067:
	.loc 1 5173 11 is_stmt 1 view .LVU925
	.loc 1 5173 34 is_stmt 0 view .LVU926
	movq	%rbx, %rax
	xorl	%edx, %edx
	divq	%rcx
	addq	%rbx, %rcx
.LVL283:
	.loc 1 5173 16 view .LVU927
	movq	%rcx, %rbx
	subq	%rdx, %rbx
.LVL284:
	.loc 1 5168 9 is_stmt 1 view .LVU928
	cmpq	%r12, %rbx
	jnb	.L296
.L278:
	.loc 1 5170 7 view .LVU929
	movq	stdout(%rip), %rdi
	.loc 1 5170 19 is_stmt 0 view .LVU930
	movq	tabsize(%rip), %rcx
	leaq	1(%rbx), %rbp
	movq	40(%rdi), %rsi
	movq	48(%rdi), %r8
	.loc 1 5170 10 view .LVU931
	testq	%rcx, %rcx
	jne	.L297
.L279:
	.loc 1 5177 11 is_stmt 1 view .LVU932
.LVL285:
.LBB1070:
.LBI1070:
	.loc 8 108 1 view .LVU933
.LBB1071:
	.loc 8 110 3 view .LVU934
	.loc 8 110 10 is_stmt 0 view .LVU935
	cmpq	%r8, %rsi
	jnb	.L298
	leaq	1(%rsi), %rax
	movq	%rax, 40(%rdi)
	movb	$32, (%rsi)
.L284:
.LVL286:
	.loc 8 110 10 view .LVU936
.LBE1071:
.LBE1070:
	.loc 1 5178 11 is_stmt 1 view .LVU937
	.loc 1 5178 15 is_stmt 0 view .LVU938
	movq	%rbp, %rbx
.LVL287:
	.loc 1 5168 9 is_stmt 1 view .LVU939
	cmpq	%r12, %rbx
	jb	.L278
.LVL288:
.L296:
	.loc 1 5181 1 is_stmt 0 view .LVU940
	popq	%rbx
	.cfi_remember_state
	.cfi_def_cfa_offset 24
.LVL289:
	.loc 1 5181 1 view .LVU941
	popq	%rbp
	.cfi_def_cfa_offset 16
	popq	%r12
	.cfi_def_cfa_offset 8
.LVL290:
	.loc 1 5181 1 view .LVU942
	ret
.LVL291:
	.p2align 4,,10
	.p2align 3
.L298:
	.cfi_restore_state
.LBB1073:
.LBB1072:
	.loc 8 110 10 view .LVU943
	movl	$32, %esi
	call	__overflow@PLT
.LVL292:
	jmp	.L284
.LVL293:
	.p2align 4,,10
	.p2align 3
.L295:
	.loc 8 110 10 view .LVU944
.LBE1072:
.LBE1073:
.LBB1074:
.LBB1069:
	movl	$9, %esi
	call	__overflow@PLT
.LVL294:
	movq	tabsize(%rip), %rcx
	jmp	.L281
.LVL295:
	.p2align 4,,10
	.p2align 3
.L292:
	.cfi_def_cfa_offset 8
	.cfi_restore 3
	.cfi_restore 6
	.cfi_restore 12
	.loc 8 110 10 view .LVU945
	ret
.LBE1069:
.LBE1074:
	.cfi_endproc
.LFE348:
	.size	indent, .-indent
	.section	.rodata.str1.1
.LC7:
	.string	" %lu"
	.text
	.p2align 4
	.type	dired_dump_obstack, @function
dired_dump_obstack:
.LVL296:
.LFB192:
	.loc 1 1060 1 is_stmt 1 view -0
	.cfi_startproc
	.loc 1 1061 3 view .LVU947
	.loc 1 1063 3 view .LVU948
.LBB1075:
	.loc 1 1063 11 view .LVU949
	.loc 1 1063 11 view .LVU950
.LBE1075:
	.loc 1 1060 1 is_stmt 0 view .LVU951
	pushq	%r12
	.cfi_def_cfa_offset 16
	.cfi_offset 12, -16
	pushq	%rbp
	.cfi_def_cfa_offset 24
	.cfi_offset 6, -24
	pushq	%rbx
	.cfi_def_cfa_offset 32
	.cfi_offset 3, -32
.LBB1076:
	.loc 1 1063 11 view .LVU952
	movq	24(%rsi), %rax
	movq	16(%rsi), %rbx
	movq	%rax, %rbp
	subq	%rbx, %rbp
.LVL297:
	.loc 1 1063 11 view .LVU953
.LBE1076:
	.loc 1 1064 3 is_stmt 1 view .LVU954
	.loc 1 1064 6 is_stmt 0 view .LVU955
	cmpq	$7, %rbp
	jbe	.L299
.LBB1077:
	.loc 1 1066 7 is_stmt 1 view .LVU956
.LBB1078:
	.loc 1 1066 32 view .LVU957
.LVL298:
	.loc 1 1066 32 view .LVU958
	.loc 1 1066 32 view .LVU959
	cmpq	%rbx, %rax
	je	.L307
.L301:
	.loc 1 1066 32 discriminator 3 view .LVU960
	movq	48(%rsi), %rdx
	movq	8(%rsi), %rcx
.LBE1078:
.LBB1079:
.LBB1080:
.LBB1081:
	.loc 3 107 10 is_stmt 0 discriminator 3 view .LVU961
	leaq	.LC7(%rip), %r12
.LBE1081:
.LBE1080:
.LBE1079:
.LBB1084:
	.loc 1 1066 32 discriminator 3 view .LVU962
	addq	%rdx, %rax
	notq	%rdx
	andq	%rdx, %rax
	.loc 1 1066 32 is_stmt 1 discriminator 3 view .LVU963
	movq	32(%rsi), %rdx
	movq	%rax, %r8
	movq	%rdx, %r9
	subq	%rcx, %r8
	subq	%rcx, %r9
	cmpq	%r9, %r8
	cmova	%rdx, %rax
	andq	$-8, %rbp
.LVL299:
	.loc 1 1066 32 is_stmt 0 discriminator 3 view .LVU964
	addq	%rbx, %rbp
	movq	%rax, 24(%rsi)
.LVL300:
	.loc 1 1066 32 is_stmt 1 discriminator 3 view .LVU965
	movq	%rax, 16(%rsi)
	.loc 1 1066 32 discriminator 3 view .LVU966
.LVL301:
	.loc 1 1066 32 is_stmt 0 discriminator 3 view .LVU967
.LBE1084:
	.loc 1 1067 7 is_stmt 1 discriminator 3 view .LVU968
	movq	stdout(%rip), %rsi
.LVL302:
	.loc 1 1067 7 is_stmt 0 discriminator 3 view .LVU969
	call	fputs_unlocked@PLT
.LVL303:
	.loc 1 1068 7 is_stmt 1 discriminator 3 view .LVU970
.LBB1085:
	.loc 1 1068 12 discriminator 3 view .LVU971
	.loc 1 1068 26 discriminator 3 view .LVU972
	.p2align 4,,10
	.p2align 3
.L303:
	.loc 1 1069 9 discriminator 3 view .LVU973
.LBB1083:
.LBI1080:
	.loc 3 105 1 discriminator 3 view .LVU974
.LBB1082:
	.loc 3 107 3 discriminator 3 view .LVU975
	.loc 3 107 10 is_stmt 0 discriminator 3 view .LVU976
	movq	(%rbx), %rdx
	movq	%r12, %rsi
	movl	$1, %edi
	xorl	%eax, %eax
	addq	$8, %rbx
	call	__printf_chk@PLT
.LVL304:
	.loc 3 107 10 discriminator 3 view .LVU977
.LBE1082:
.LBE1083:
	.loc 1 1068 37 is_stmt 1 discriminator 3 view .LVU978
	.loc 1 1068 26 discriminator 3 view .LVU979
	.loc 1 1068 7 is_stmt 0 discriminator 3 view .LVU980
	cmpq	%rbp, %rbx
	jne	.L303
.LBE1085:
	.loc 1 1070 7 is_stmt 1 view .LVU981
.LVL305:
.LBB1086:
.LBI1086:
	.loc 8 108 1 view .LVU982
.LBB1087:
	.loc 8 110 3 view .LVU983
	.loc 8 110 10 is_stmt 0 view .LVU984
	movq	stdout(%rip), %rdi
	movq	40(%rdi), %rax
	cmpq	48(%rdi), %rax
	jnb	.L308
	leaq	1(%rax), %rdx
	movq	%rdx, 40(%rdi)
	movb	$10, (%rax)
.LVL306:
.L299:
	.loc 8 110 10 view .LVU985
.LBE1087:
.LBE1086:
.LBE1077:
	.loc 1 1072 1 view .LVU986
	popq	%rbx
	.cfi_remember_state
	.cfi_def_cfa_offset 24
	popq	%rbp
	.cfi_def_cfa_offset 16
	popq	%r12
	.cfi_def_cfa_offset 8
	ret
.LVL307:
.L307:
	.cfi_restore_state
.LBB1093:
.LBB1090:
	.loc 1 1066 32 is_stmt 1 discriminator 1 view .LVU987
	orb	$2, 80(%rsi)
	jmp	.L301
.LVL308:
.L308:
	.loc 1 1066 32 is_stmt 0 discriminator 1 view .LVU988
.LBE1090:
.LBE1093:
	.loc 1 1072 1 view .LVU989
	popq	%rbx
	.cfi_def_cfa_offset 24
.LBB1094:
.LBB1091:
.LBB1088:
	.loc 8 110 10 view .LVU990
	movl	$10, %esi
.LBE1088:
.LBE1091:
.LBE1094:
	.loc 1 1072 1 view .LVU991
	popq	%rbp
	.cfi_def_cfa_offset 16
	popq	%r12
	.cfi_def_cfa_offset 8
.LBB1095:
.LBB1092:
.LBB1089:
	.loc 8 110 10 view .LVU992
	jmp	__overflow@PLT
.LVL309:
.LBE1089:
.LBE1092:
.LBE1095:
	.cfi_endproc
.LFE192:
	.size	dired_dump_obstack, .-dired_dump_obstack
	.section	.rodata.str1.1
.LC8:
	.string	"%*lu "
	.text
	.p2align 4
	.type	format_user_or_group, @function
format_user_or_group:
.LVL310:
.LFB324:
	.loc 1 4125 1 is_stmt 1 view -0
	.cfi_startproc
	.loc 1 4126 3 view .LVU994
	.loc 1 4128 3 view .LVU995
	.loc 1 4125 1 is_stmt 0 view .LVU996
	pushq	%rbp
	.cfi_def_cfa_offset 16
	.cfi_offset 6, -16
	pushq	%rbx
	.cfi_def_cfa_offset 24
	.cfi_offset 3, -24
	movl	%edx, %ebx
	subq	$8, %rsp
	.cfi_def_cfa_offset 32
	.loc 1 4128 6 view .LVU997
	testq	%rdi, %rdi
	je	.L310
.LBB1096:
	.loc 1 4130 31 view .LVU998
	xorl	%esi, %esi
.LVL311:
	.loc 1 4130 31 view .LVU999
	movq	%rdi, %rbp
	.loc 1 4130 7 is_stmt 1 view .LVU1000
	.loc 1 4130 31 is_stmt 0 view .LVU1001
	call	gnu_mbswidth@PLT
.LVL312:
	.loc 1 4131 7 is_stmt 1 view .LVU1002
	.loc 1 4132 7 is_stmt 0 view .LVU1003
	movq	stdout(%rip), %rsi
	movq	%rbp, %rdi
	.loc 1 4131 11 view .LVU1004
	subl	%eax, %ebx
.LVL313:
	.loc 1 4131 11 view .LVU1005
	movl	$0, %eax
	cmovs	%eax, %ebx
.LVL314:
	.loc 1 4132 7 is_stmt 1 view .LVU1006
	call	fputs_unlocked@PLT
.LVL315:
	.loc 1 4133 7 view .LVU1007
	.loc 1 4133 13 is_stmt 0 view .LVU1008
	movq	%rbp, %rdi
	call	strlen@PLT
.LVL316:
	.loc 1 4133 27 view .LVU1009
	movslq	%ebx, %rbp
.LVL317:
	.loc 1 4133 11 view .LVU1010
	addq	%rax, %rbp
.LVL318:
	.p2align 4,,10
	.p2align 3
.L313:
	.loc 1 4135 7 is_stmt 1 discriminator 1 view .LVU1011
	.loc 1 4136 9 discriminator 1 view .LVU1012
.LBB1097:
.LBI1097:
	.loc 8 108 1 discriminator 1 view .LVU1013
.LBB1098:
	.loc 8 110 3 discriminator 1 view .LVU1014
	.loc 8 110 10 is_stmt 0 discriminator 1 view .LVU1015
	movq	stdout(%rip), %rdi
	movq	40(%rdi), %rax
	cmpq	48(%rdi), %rax
	jnb	.L317
	.loc 8 110 10 view .LVU1016
	leaq	1(%rax), %rdx
	movq	%rdx, 40(%rdi)
	movb	$32, (%rax)
.L312:
.LVL319:
	.loc 8 110 10 view .LVU1017
.LBE1098:
.LBE1097:
	.loc 1 4137 13 is_stmt 1 view .LVU1018
	.loc 1 4137 17 is_stmt 0 view .LVU1019
	subl	$1, %ebx
.LVL320:
	.loc 1 4137 7 view .LVU1020
	cmpl	$-1, %ebx
	jne	.L313
.LVL321:
.L314:
	.loc 1 4137 7 view .LVU1021
.LBE1096:
	.loc 1 4145 3 is_stmt 1 view .LVU1022
	.loc 1 4145 13 is_stmt 0 view .LVU1023
	movq	dired_pos(%rip), %rax
	leaq	1(%rbp,%rax), %rax
	movq	%rax, dired_pos(%rip)
	.loc 1 4146 1 view .LVU1024
	addq	$8, %rsp
	.cfi_remember_state
	.cfi_def_cfa_offset 24
	popq	%rbx
	.cfi_def_cfa_offset 16
	popq	%rbp
	.cfi_def_cfa_offset 8
.LVL322:
	.loc 1 4146 1 view .LVU1025
	ret
.LVL323:
	.p2align 4,,10
	.p2align 3
.L317:
	.cfi_restore_state
.LBB1101:
.LBB1100:
.LBB1099:
	.loc 8 110 10 view .LVU1026
	movl	$32, %esi
	call	__overflow@PLT
.LVL324:
	jmp	.L312
.LVL325:
	.p2align 4,,10
	.p2align 3
.L310:
	.loc 8 110 10 view .LVU1027
.LBE1099:
.LBE1100:
.LBE1101:
	.loc 1 4141 7 is_stmt 1 view .LVU1028
.LBB1102:
.LBI1102:
	.loc 3 105 1 view .LVU1029
.LBB1103:
	.loc 3 107 3 view .LVU1030
	.loc 3 107 10 is_stmt 0 view .LVU1031
	movq	%rsi, %rcx
	movl	$1, %edi
.LVL326:
	.loc 3 107 10 view .LVU1032
	xorl	%eax, %eax
.LBE1103:
.LBE1102:
	.loc 1 4142 11 view .LVU1033
	movslq	%ebx, %rbp
.LBB1105:
.LBB1104:
	.loc 3 107 10 view .LVU1034
	leaq	.LC8(%rip), %rsi
.LVL327:
	.loc 3 107 10 view .LVU1035
	call	__printf_chk@PLT
.LVL328:
	.loc 3 107 10 view .LVU1036
.LBE1104:
.LBE1105:
	.loc 1 4142 7 is_stmt 1 view .LVU1037
	.loc 1 4142 7 is_stmt 0 view .LVU1038
	jmp	.L314
	.cfi_endproc
.LFE324:
	.size	format_user_or_group, .-format_user_or_group
	.section	.rodata.str1.1
.LC9:
	.string	"?"
	.text
	.p2align 4
	.type	format_user, @function
format_user:
.LVL329:
.LFB325:
	.loc 1 4153 1 is_stmt 1 view -0
	.cfi_startproc
	.loc 1 4154 3 view .LVU1040
	.loc 1 4153 1 is_stmt 0 view .LVU1041
	pushq	%r12
	.cfi_def_cfa_offset 16
	.cfi_offset 12, -16
	.loc 1 4154 3 view .LVU1042
	leaq	.LC9(%rip), %r8
	.loc 1 4153 1 view .LVU1043
	movl	%esi, %r12d
	.loc 1 4154 3 view .LVU1044
	movl	%edi, %esi
.LVL330:
	.loc 1 4153 1 view .LVU1045
	subq	$16, %rsp
	.cfi_def_cfa_offset 32
	.loc 1 4154 3 view .LVU1046
	testb	%dl, %dl
	je	.L319
	.loc 1 4155 45 view .LVU1047
	xorl	%r8d, %r8d
	cmpb	$0, numeric_ids(%rip)
	je	.L323
.LVL331:
.L319:
	.loc 1 4156 1 discriminator 2 view .LVU1048
	addq	$16, %rsp
	.cfi_remember_state
	.cfi_def_cfa_offset 16
	.loc 1 4154 3 discriminator 2 view .LVU1049
	movl	%r12d, %edx
	movq	%r8, %rdi
	.loc 1 4156 1 discriminator 2 view .LVU1050
	popq	%r12
	.cfi_def_cfa_offset 8
.LVL332:
	.loc 1 4154 3 discriminator 2 view .LVU1051
	jmp	format_user_or_group
.LVL333:
	.p2align 4,,10
	.p2align 3
.L323:
	.cfi_restore_state
	.loc 1 4154 3 discriminator 2 view .LVU1052
	movq	%rsi, 8(%rsp)
	.loc 1 4155 47 discriminator 1 view .LVU1053
	call	getuser@PLT
.LVL334:
	.loc 1 4155 47 discriminator 1 view .LVU1054
	movq	8(%rsp), %rsi
	movq	%rax, %r8
	jmp	.L319
	.cfi_endproc
.LFE325:
	.size	format_user, .-format_user
	.p2align 4
	.type	stophandler, @function
stophandler:
.LVL335:
.LFB215:
	.loc 1 1469 1 is_stmt 1 view -0
	.cfi_startproc
	.loc 1 1469 1 is_stmt 0 view .LVU1056
	endbr64
	.loc 1 1470 3 is_stmt 1 view .LVU1057
	.loc 1 1472 3 view .LVU1058
	.loc 1 1472 7 is_stmt 0 view .LVU1059
	movl	interrupt_signal(%rip), %eax
	.loc 1 1472 6 view .LVU1060
	testl	%eax, %eax
	jne	.L324
.LBB1108:
.LBI1108:
	.loc 1 1468 1 is_stmt 1 view .LVU1061
.LVL336:
.LBB1109:
	.loc 1 1473 5 view .LVU1062
	.loc 1 1473 22 is_stmt 0 view .LVU1063
	movl	stop_signal_count(%rip), %eax
	addl	$1, %eax
	movl	%eax, stop_signal_count(%rip)
.LVL337:
.L324:
	.loc 1 1473 22 view .LVU1064
.LBE1109:
.LBE1108:
	.loc 1 1474 1 view .LVU1065
	ret
	.cfi_endproc
.LFE215:
	.size	stophandler, .-stophandler
	.p2align 4
	.type	file_failure, @function
file_failure:
.LVL338:
.LFB228:
	.loc 1 2869 1 is_stmt 1 view -0
	.cfi_startproc
	.loc 1 2870 3 view .LVU1067
	.loc 1 2869 1 is_stmt 0 view .LVU1068
	pushq	%r13
	.cfi_def_cfa_offset 16
	.cfi_offset 13, -16
	pushq	%r12
	.cfi_def_cfa_offset 24
	.cfi_offset 12, -24
	movq	%rsi, %r12
	movq	%rdx, %rsi
.LVL339:
	.loc 1 2869 1 view .LVU1069
	pushq	%rbx
	.cfi_def_cfa_offset 32
	.cfi_offset 3, -32
	.loc 1 2869 1 view .LVU1070
	movl	%edi, %ebx
	.loc 1 2870 3 view .LVU1071
	movl	$4, %edi
.LVL340:
	.loc 1 2870 3 view .LVU1072
	call	quotearg_style@PLT
.LVL341:
	.loc 1 2870 3 view .LVU1073
	movq	%rax, %r13
	.loc 1 2870 13 view .LVU1074
	call	__errno_location@PLT
.LVL342:
	.loc 1 2870 3 view .LVU1075
	xorl	%edi, %edi
	movq	%r13, %rcx
	movq	%r12, %rdx
	movl	(%rax), %esi
	xorl	%eax, %eax
	call	error@PLT
.LVL343:
	.loc 1 2871 3 is_stmt 1 view .LVU1076
.LBB1114:
.LBI1114:
	.loc 1 2855 1 view .LVU1077
.LBB1115:
	.loc 1 2857 3 view .LVU1078
	.loc 1 2857 6 is_stmt 0 view .LVU1079
	testb	%bl, %bl
	je	.L327
	.loc 1 2858 5 is_stmt 1 view .LVU1080
	.loc 1 2858 17 is_stmt 0 view .LVU1081
	movl	$2, exit_status(%rip)
.L326:
.LBE1115:
.LBE1114:
	.loc 1 2872 1 view .LVU1082
	popq	%rbx
	.cfi_remember_state
	.cfi_def_cfa_offset 24
.LVL344:
	.loc 1 2872 1 view .LVU1083
	popq	%r12
	.cfi_def_cfa_offset 16
.LVL345:
	.loc 1 2872 1 view .LVU1084
	popq	%r13
	.cfi_def_cfa_offset 8
	ret
.LVL346:
	.p2align 4,,10
	.p2align 3
.L327:
	.cfi_restore_state
.LBB1119:
.LBB1118:
.LBB1116:
.LBI1116:
	.loc 1 2855 1 is_stmt 1 view .LVU1085
.LBB1117:
	.loc 1 2859 8 view .LVU1086
	.loc 1 2859 11 is_stmt 0 view .LVU1087
	movl	exit_status(%rip), %eax
	testl	%eax, %eax
	jne	.L326
	.loc 1 2860 5 is_stmt 1 view .LVU1088
	.loc 1 2860 17 is_stmt 0 view .LVU1089
	movl	$1, exit_status(%rip)
.LVL347:
	.loc 1 2860 17 view .LVU1090
.LBE1117:
.LBE1116:
.LBE1118:
.LBE1119:
	.loc 1 2872 1 view .LVU1091
	popq	%rbx
	.cfi_def_cfa_offset 24
	popq	%r12
	.cfi_def_cfa_offset 16
.LVL348:
	.loc 1 2872 1 view .LVU1092
	popq	%r13
	.cfi_def_cfa_offset 8
	ret
	.cfi_endproc
.LFE228:
	.size	file_failure, .-file_failure
	.p2align 4
	.type	strcmp_size, @function
strcmp_size:
.LVL349:
.LFB291:
	.loc 1 3884 1 is_stmt 1 view -0
	.cfi_startproc
	.loc 1 3884 1 is_stmt 0 view .LVU1094
	endbr64
	.loc 1 3884 1 is_stmt 1 view .LVU1095
.LVL350:
.LBB1124:
.LBI1124:
	.loc 1 3853 1 view .LVU1096
.LBB1125:
	.loc 1 3856 3 view .LVU1097
	.loc 1 3856 14 is_stmt 0 view .LVU1098
	movq	72(%rsi), %rax
	cmpq	%rax, 72(%rdi)
	jg	.L333
.LVL351:
	.loc 1 3857 3 is_stmt 1 view .LVU1099
	.loc 1 3857 22 is_stmt 0 view .LVU1100
	jne	.L334
.LVL352:
.LBB1126:
.LBI1126:
	.loc 1 3853 1 is_stmt 1 view .LVU1101
.LBB1127:
	.loc 1 3857 24 is_stmt 0 view .LVU1102
	movq	(%rsi), %rsi
.LVL353:
	.loc 1 3857 24 view .LVU1103
	movq	(%rdi), %rdi
.LVL354:
	.loc 1 3857 24 view .LVU1104
	jmp	strcmp@PLT
.LVL355:
	.p2align 4,,10
	.p2align 3
.L334:
	.loc 1 3857 24 view .LVU1105
.LBE1127:
.LBE1126:
	.loc 1 3856 14 view .LVU1106
	setl	%al
.LVL356:
	.loc 1 3856 14 view .LVU1107
	movzbl	%al, %eax
	ret
.LVL357:
	.p2align 4,,10
	.p2align 3
.L333:
	.loc 1 3856 14 view .LVU1108
	movl	$-1, %eax
.LVL358:
	.loc 1 3856 14 view .LVU1109
.LBE1125:
.LBE1124:
	.loc 1 3884 1 view .LVU1110
	ret
	.cfi_endproc
.LFE291:
	.size	strcmp_size, .-strcmp_size
	.p2align 4
	.type	rev_strcmp_df_btime, @function
rev_strcmp_df_btime:
.LVL359:
.LFB289:
	.loc 1 3883 1 is_stmt 1 view -0
	.cfi_startproc
	.loc 1 3883 1 is_stmt 0 view .LVU1112
	endbr64
	.loc 1 3883 1 is_stmt 1 view .LVU1113
.LBB1152:
	.loc 1 3883 1 view .LVU1114
.LBE1152:
	movq	%rsi, %rax
.LBB1161:
	movl	168(%rdi), %esi
.LVL360:
.LBB1153:
.LBI1153:
	.loc 1 3626 1 view .LVU1115
.LBB1154:
	.loc 1 3628 3 view .LVU1116
	movl	168(%rax), %ecx
	cmpl	$9, %ecx
	sete	%dl
	cmpl	$3, %ecx
	sete	%cl
	orl	%ecx, %edx
	.loc 1 3629 10 is_stmt 0 view .LVU1117
	cmpl	$3, %esi
	je	.L336
	cmpl	$9, %esi
	je	.L336
	.loc 1 3629 13 view .LVU1118
	movl	172(%rdi), %ecx
	andl	$61440, %ecx
.LVL361:
	.loc 1 3629 13 view .LVU1119
.LBE1154:
.LBE1153:
	.loc 1 3883 1 is_stmt 1 view .LVU1120
.LBB1155:
.LBI1155:
	.loc 1 3626 1 view .LVU1121
.LBB1156:
	.loc 1 3628 3 view .LVU1122
	.loc 1 3629 10 is_stmt 0 view .LVU1123
	testb	%dl, %dl
	je	.L353
.L337:
.LVL362:
	.loc 1 3629 10 view .LVU1124
.LBE1156:
.LBE1155:
	.loc 1 3883 1 is_stmt 1 view .LVU1125
	.loc 1 3883 1 view .LVU1126
	cmpl	$16384, %ecx
	je	.L340
	movl	$1, %r8d
.LVL363:
.L335:
	.loc 1 3883 1 is_stmt 0 view .LVU1127
.LBE1161:
	movl	%r8d, %eax
.LVL364:
	.loc 1 3883 1 view .LVU1128
	ret
.LVL365:
	.p2align 4,,10
	.p2align 3
.L336:
.LBB1162:
	.loc 1 3883 1 is_stmt 1 view .LVU1129
.LBB1159:
	.loc 1 3626 1 view .LVU1130
.LBB1157:
	.loc 1 3628 3 view .LVU1131
	.loc 1 3629 10 is_stmt 0 view .LVU1132
	testb	%dl, %dl
	jne	.L340
	.loc 1 3629 13 view .LVU1133
	movl	172(%rax), %edx
	andl	$61440, %edx
	.loc 1 3629 10 view .LVU1134
	cmpl	$16384, %edx
	je	.L340
.LVL366:
.L352:
	.loc 1 3629 10 view .LVU1135
.LBE1157:
.LBE1159:
	.loc 1 3883 1 view .LVU1136
	movl	$-1, %r8d
.LBE1162:
	movl	%r8d, %eax
.LVL367:
	.loc 1 3883 1 view .LVU1137
	ret
.LVL368:
	.p2align 4,,10
	.p2align 3
.L353:
.LBB1163:
.LBB1160:
.LBB1158:
	.loc 1 3629 13 view .LVU1138
	movl	172(%rax), %edx
	andl	$61440, %edx
	.loc 1 3629 10 view .LVU1139
	cmpl	$16384, %edx
	je	.L337
.LVL369:
	.loc 1 3629 10 view .LVU1140
.LBE1158:
.LBE1160:
	.loc 1 3883 1 is_stmt 1 view .LVU1141
	cmpl	$16384, %ecx
	je	.L352
.LVL370:
.L340:
	.loc 1 3883 1 is_stmt 0 view .LVU1142
.LBE1163:
.LBB1164:
.LBI1164:
	.loc 1 3883 1 is_stmt 1 view .LVU1143
.LBB1165:
	.loc 1 3883 1 view .LVU1144
	.loc 1 3883 1 view .LVU1145
.LBB1166:
.LBI1166:
	.loc 1 3844 1 view .LVU1146
.LBB1167:
	.loc 1 3847 3 view .LVU1147
	.loc 1 3847 3 is_stmt 0 view .LVU1148
.LBE1167:
.LBE1166:
.LBE1165:
.LBE1164:
	.loc 1 1081 3 is_stmt 1 view .LVU1149
	.loc 1 1084 3 view .LVU1150
	movq	112(%rdi), %rdx
	movq	112(%rax), %r9
.LBB1180:
.LBB1178:
.LBB1176:
.LBB1174:
.LBB1168:
.LBB1169:
	.file 9 "./lib/timespec.h"
	.loc 9 66 14 is_stmt 0 view .LVU1151
	xorl	%ecx, %ecx
	movq	120(%rax), %r8
.LVL371:
	.loc 9 66 14 view .LVU1152
.LBE1169:
.LBE1168:
.LBE1174:
.LBE1176:
.LBE1178:
.LBE1180:
	.file 10 "./lib/stat-time.h"
	.loc 10 149 3 is_stmt 1 view .LVU1153
	.loc 1 1089 3 view .LVU1154
	.loc 1 1081 3 view .LVU1155
	.loc 1 1084 3 view .LVU1156
	.loc 1 1084 3 is_stmt 0 view .LVU1157
	movq	120(%rdi), %rsi
	.loc 10 149 3 is_stmt 1 view .LVU1158
.LVL372:
	.loc 1 1089 3 view .LVU1159
.LBB1181:
.LBB1179:
.LBB1177:
.LBB1175:
.LBB1171:
.LBI1168:
	.loc 9 64 1 view .LVU1160
.LBB1170:
	.loc 9 66 3 view .LVU1161
	.loc 9 66 14 is_stmt 0 view .LVU1162
	cmpq	%rdx, %r9
	setg	%dl
.LVL373:
	.loc 9 66 14 view .LVU1163
	setl	%cl
	movzbl	%dl, %edx
	subl	%edx, %ecx
	.loc 9 66 45 view .LVU1164
	xorl	%edx, %edx
	cmpq	%rsi, %r8
	setg	%sil
.LVL374:
	.loc 9 66 45 view .LVU1165
	setl	%dl
	movzbl	%sil, %esi
	subl	%esi, %edx
	.loc 9 66 43 view .LVU1166
	leal	(%rdx,%rcx,2), %r8d
.LVL375:
	.loc 9 66 43 view .LVU1167
.LBE1170:
.LBE1171:
	.loc 1 3849 3 is_stmt 1 view .LVU1168
	.loc 1 3849 22 is_stmt 0 view .LVU1169
	testl	%r8d, %r8d
	jne	.L335
.LVL376:
.LBB1172:
.LBI1172:
	.loc 1 3817 1 is_stmt 1 view .LVU1170
.LBB1173:
	.loc 1 3822 24 is_stmt 0 view .LVU1171
	movq	(%rdi), %rsi
	movq	(%rax), %rdi
.LVL377:
	.loc 1 3822 24 view .LVU1172
	jmp	strcmp@PLT
.LVL378:
	.loc 1 3822 24 view .LVU1173
.LBE1173:
.LBE1172:
.LBE1175:
.LBE1177:
.LBE1179:
.LBE1181:
	.cfi_endproc
.LFE289:
	.size	rev_strcmp_df_btime, .-rev_strcmp_df_btime
	.p2align 4
	.type	xstrcoll_df_name, @function
xstrcoll_df_name:
.LVL379:
.LFB302:
	.loc 1 3885 1 is_stmt 1 view -0
	.cfi_startproc
	.loc 1 3885 1 is_stmt 0 view .LVU1175
	endbr64
	.loc 1 3885 1 is_stmt 1 view .LVU1176
.LBB1196:
	.loc 1 3885 1 view .LVU1177
	movl	168(%rsi), %edx
	movl	168(%rdi), %ecx
.LBB1197:
.LBI1197:
	.loc 1 3626 1 view .LVU1178
.LVL380:
.LBB1198:
	.loc 1 3628 3 view .LVU1179
	cmpl	$9, %edx
	sete	%al
	cmpl	$3, %edx
	sete	%dl
	orl	%edx, %eax
	.loc 1 3629 10 is_stmt 0 view .LVU1180
	cmpl	$3, %ecx
	je	.L355
	cmpl	$9, %ecx
	je	.L355
	.loc 1 3629 13 view .LVU1181
	movl	172(%rdi), %edx
	andl	$61440, %edx
.LVL381:
	.loc 1 3629 13 view .LVU1182
.LBE1198:
.LBE1197:
	.loc 1 3885 1 is_stmt 1 view .LVU1183
.LBB1199:
.LBI1199:
	.loc 1 3626 1 view .LVU1184
.LBB1200:
	.loc 1 3628 3 view .LVU1185
	.loc 1 3629 10 is_stmt 0 view .LVU1186
	testb	%al, %al
	je	.L372
.L356:
.LVL382:
	.loc 1 3629 10 view .LVU1187
.LBE1200:
.LBE1199:
	.loc 1 3885 1 is_stmt 1 view .LVU1188
	.loc 1 3885 1 view .LVU1189
	cmpl	$16384, %edx
	je	.L358
	movl	$1, %eax
	ret
.LVL383:
	.p2align 4,,10
	.p2align 3
.L355:
	.loc 1 3885 1 view .LVU1190
.LBB1203:
	.loc 1 3626 1 view .LVU1191
.LBB1201:
	.loc 1 3628 3 view .LVU1192
	.loc 1 3629 10 is_stmt 0 view .LVU1193
	testb	%al, %al
	jne	.L358
	.loc 1 3629 13 view .LVU1194
	movl	172(%rsi), %eax
	andl	$61440, %eax
	.loc 1 3629 10 view .LVU1195
	cmpl	$16384, %eax
	je	.L358
.LVL384:
.L371:
	.loc 1 3629 10 view .LVU1196
.LBE1201:
.LBE1203:
	.loc 1 3885 1 view .LVU1197
	movl	$-1, %eax
.LBE1196:
	ret
.LVL385:
	.p2align 4,,10
	.p2align 3
.L372:
.LBB1205:
.LBB1204:
.LBB1202:
	.loc 1 3629 13 view .LVU1198
	movl	172(%rsi), %eax
	andl	$61440, %eax
	.loc 1 3629 10 view .LVU1199
	cmpl	$16384, %eax
	je	.L356
.LVL386:
	.loc 1 3629 10 view .LVU1200
.LBE1202:
.LBE1204:
	.loc 1 3885 1 is_stmt 1 view .LVU1201
	cmpl	$16384, %edx
	je	.L371
.LVL387:
.L358:
	.loc 1 3885 1 is_stmt 0 view .LVU1202
.LBE1205:
.LBB1206:
.LBI1206:
	.loc 1 3885 1 is_stmt 1 view .LVU1203
.LBB1207:
	.loc 1 3885 1 view .LVU1204
	.loc 1 3885 1 view .LVU1205
.LBB1208:
.LBI1208:
	.loc 1 3861 1 view .LVU1206
.LBB1209:
	.loc 1 3864 3 view .LVU1207
	.loc 1 3864 10 is_stmt 0 view .LVU1208
	movq	(%rsi), %rsi
.LVL388:
	.loc 1 3864 10 view .LVU1209
	movq	(%rdi), %rdi
.LVL389:
	.loc 1 3864 10 view .LVU1210
	jmp	xstrcoll
.LVL390:
.LBE1209:
.LBE1208:
.LBE1207:
.LBE1206:
	.cfi_endproc
.LFE302:
	.size	xstrcoll_df_name, .-xstrcoll_df_name
	.p2align 4
	.type	strcmp_df_name, @function
strcmp_df_name:
.LVL391:
.LFB303:
	.loc 1 3885 1 is_stmt 1 view -0
	.cfi_startproc
	.loc 1 3885 1 is_stmt 0 view .LVU1212
	endbr64
	.loc 1 3885 1 is_stmt 1 view .LVU1213
.LBB1224:
	.loc 1 3885 1 view .LVU1214
	movl	168(%rsi), %edx
	movl	168(%rdi), %ecx
.LBB1225:
.LBI1225:
	.loc 1 3626 1 view .LVU1215
.LVL392:
.LBB1226:
	.loc 1 3628 3 view .LVU1216
	cmpl	$9, %edx
	sete	%al
	cmpl	$3, %edx
	sete	%dl
	orl	%edx, %eax
	.loc 1 3629 10 is_stmt 0 view .LVU1217
	cmpl	$3, %ecx
	je	.L374
	cmpl	$9, %ecx
	je	.L374
	.loc 1 3629 13 view .LVU1218
	movl	172(%rdi), %edx
	andl	$61440, %edx
.LVL393:
	.loc 1 3629 13 view .LVU1219
.LBE1226:
.LBE1225:
	.loc 1 3885 1 is_stmt 1 view .LVU1220
.LBB1227:
.LBI1227:
	.loc 1 3626 1 view .LVU1221
.LBB1228:
	.loc 1 3628 3 view .LVU1222
	.loc 1 3629 10 is_stmt 0 view .LVU1223
	testb	%al, %al
	je	.L392
.L375:
.LVL394:
	.loc 1 3629 10 view .LVU1224
.LBE1228:
.LBE1227:
	.loc 1 3885 1 is_stmt 1 view .LVU1225
	.loc 1 3885 1 view .LVU1226
	cmpl	$16384, %edx
	je	.L377
	movl	$1, %eax
	ret
.LVL395:
	.p2align 4,,10
	.p2align 3
.L374:
	.loc 1 3885 1 view .LVU1227
.LBB1232:
	.loc 1 3626 1 view .LVU1228
.LBB1229:
	.loc 1 3628 3 view .LVU1229
	.loc 1 3629 10 is_stmt 0 view .LVU1230
	testb	%al, %al
	je	.L393
.LVL396:
.L377:
	.loc 1 3629 10 view .LVU1231
.LBE1229:
.LBE1232:
.LBE1224:
.LBB1235:
.LBI1235:
	.loc 1 3885 1 is_stmt 1 view .LVU1232
.LBB1236:
	.loc 1 3885 1 view .LVU1233
	.loc 1 3885 1 view .LVU1234
.LBB1237:
.LBI1237:
	.loc 1 3861 1 view .LVU1235
.LBB1238:
	.loc 1 3864 3 view .LVU1236
	.loc 1 3864 10 is_stmt 0 view .LVU1237
	movq	(%rsi), %rsi
.LVL397:
	.loc 1 3864 10 view .LVU1238
	movq	(%rdi), %rdi
.LVL398:
	.loc 1 3864 10 view .LVU1239
	jmp	strcmp@PLT
.LVL399:
	.p2align 4,,10
	.p2align 3
.L393:
	.loc 1 3864 10 view .LVU1240
.LBE1238:
.LBE1237:
.LBE1236:
.LBE1235:
.LBB1242:
.LBB1233:
.LBB1230:
	.loc 1 3629 13 view .LVU1241
	movl	172(%rsi), %eax
	andl	$61440, %eax
	.loc 1 3629 10 view .LVU1242
	cmpl	$16384, %eax
	je	.L377
.LVL400:
.L390:
	.loc 1 3629 10 view .LVU1243
.LBE1230:
.LBE1233:
	.loc 1 3885 1 view .LVU1244
	movl	$-1, %eax
.LBE1242:
	ret
.LVL401:
	.p2align 4,,10
	.p2align 3
.L392:
.LBB1243:
.LBB1234:
.LBB1231:
	.loc 1 3629 13 view .LVU1245
	movl	172(%rsi), %eax
	andl	$61440, %eax
	.loc 1 3629 10 view .LVU1246
	cmpl	$16384, %eax
	je	.L375
.LVL402:
	.loc 1 3629 10 view .LVU1247
.LBE1231:
.LBE1234:
	.loc 1 3885 1 is_stmt 1 view .LVU1248
	cmpl	$16384, %edx
	je	.L390
.LVL403:
	.loc 1 3885 1 is_stmt 0 view .LVU1249
.LBE1243:
.LBB1244:
	.loc 1 3885 1 is_stmt 1 view .LVU1250
.LBB1241:
	.loc 1 3885 1 view .LVU1251
	.loc 1 3885 1 view .LVU1252
.LBB1240:
	.loc 1 3861 1 view .LVU1253
.LBB1239:
	.loc 1 3864 3 view .LVU1254
	.loc 1 3864 10 is_stmt 0 view .LVU1255
	movq	(%rsi), %rsi
.LVL404:
	.loc 1 3864 10 view .LVU1256
	movq	(%rdi), %rdi
.LVL405:
	.loc 1 3864 10 view .LVU1257
	jmp	strcmp@PLT
.LVL406:
	.loc 1 3864 10 view .LVU1258
.LBE1239:
.LBE1240:
.LBE1241:
.LBE1244:
	.cfi_endproc
.LFE303:
	.size	strcmp_df_name, .-strcmp_df_name
	.p2align 4
	.type	rev_xstrcoll_df_name, @function
rev_xstrcoll_df_name:
.LVL407:
.LFB304:
	.loc 1 3885 1 is_stmt 1 view -0
	.cfi_startproc
	.loc 1 3885 1 is_stmt 0 view .LVU1260
	endbr64
	.loc 1 3885 1 is_stmt 1 view .LVU1261
.LBB1259:
	.loc 1 3885 1 view .LVU1262
.LBE1259:
	movq	%rsi, %rax
.LBB1268:
	movl	168(%rdi), %esi
.LVL408:
.LBB1260:
.LBI1260:
	.loc 1 3626 1 view .LVU1263
.LBB1261:
	.loc 1 3628 3 view .LVU1264
	movl	168(%rax), %ecx
	cmpl	$9, %ecx
	sete	%dl
	cmpl	$3, %ecx
	sete	%cl
	orl	%ecx, %edx
	.loc 1 3629 10 is_stmt 0 view .LVU1265
	cmpl	$3, %esi
	je	.L395
	cmpl	$9, %esi
	je	.L395
	.loc 1 3629 13 view .LVU1266
	movl	172(%rdi), %ecx
	andl	$61440, %ecx
.LVL409:
	.loc 1 3629 13 view .LVU1267
.LBE1261:
.LBE1260:
	.loc 1 3885 1 is_stmt 1 view .LVU1268
.LBB1262:
.LBI1262:
	.loc 1 3626 1 view .LVU1269
.LBB1263:
	.loc 1 3628 3 view .LVU1270
	.loc 1 3629 10 is_stmt 0 view .LVU1271
	testb	%dl, %dl
	je	.L412
.L396:
.LVL410:
	.loc 1 3629 10 view .LVU1272
.LBE1263:
.LBE1262:
	.loc 1 3885 1 is_stmt 1 view .LVU1273
	.loc 1 3885 1 view .LVU1274
	cmpl	$16384, %ecx
	je	.L398
	movl	$1, %eax
.LVL411:
	.loc 1 3885 1 is_stmt 0 view .LVU1275
	ret
.LVL412:
	.p2align 4,,10
	.p2align 3
.L395:
	.loc 1 3885 1 is_stmt 1 view .LVU1276
.LBB1266:
	.loc 1 3626 1 view .LVU1277
.LBB1264:
	.loc 1 3628 3 view .LVU1278
	.loc 1 3629 10 is_stmt 0 view .LVU1279
	testb	%dl, %dl
	jne	.L398
	.loc 1 3629 13 view .LVU1280
	movl	172(%rax), %edx
	andl	$61440, %edx
	.loc 1 3629 10 view .LVU1281
	cmpl	$16384, %edx
	je	.L398
.LVL413:
.L411:
	.loc 1 3629 10 view .LVU1282
.LBE1264:
.LBE1266:
	.loc 1 3885 1 view .LVU1283
	movl	$-1, %eax
.LVL414:
	.loc 1 3885 1 view .LVU1284
.LBE1268:
	ret
.LVL415:
	.p2align 4,,10
	.p2align 3
.L412:
.LBB1269:
.LBB1267:
.LBB1265:
	.loc 1 3629 13 view .LVU1285
	movl	172(%rax), %edx
	andl	$61440, %edx
	.loc 1 3629 10 view .LVU1286
	cmpl	$16384, %edx
	je	.L396
.LVL416:
	.loc 1 3629 10 view .LVU1287
.LBE1265:
.LBE1267:
	.loc 1 3885 1 is_stmt 1 view .LVU1288
	cmpl	$16384, %ecx
	je	.L411
.LVL417:
.L398:
	.loc 1 3885 1 is_stmt 0 view .LVU1289
.LBE1269:
.LBB1270:
.LBI1270:
	.loc 1 3885 1 is_stmt 1 view .LVU1290
.LBB1271:
	.loc 1 3885 1 view .LVU1291
	.loc 1 3885 1 view .LVU1292
.LBB1272:
.LBI1272:
	.loc 1 3861 1 view .LVU1293
.LBB1273:
	.loc 1 3864 3 view .LVU1294
	.loc 1 3864 10 is_stmt 0 view .LVU1295
	movq	(%rdi), %rsi
	movq	(%rax), %rdi
.LVL418:
	.loc 1 3864 10 view .LVU1296
	jmp	xstrcoll
.LVL419:
	.loc 1 3864 10 view .LVU1297
.LBE1273:
.LBE1272:
.LBE1271:
.LBE1270:
	.cfi_endproc
.LFE304:
	.size	rev_xstrcoll_df_name, .-rev_xstrcoll_df_name
	.p2align 4
	.type	rev_strcmp_df_name, @function
rev_strcmp_df_name:
.LVL420:
.LFB305:
	.loc 1 3885 1 is_stmt 1 view -0
	.cfi_startproc
	.loc 1 3885 1 is_stmt 0 view .LVU1299
	endbr64
	.loc 1 3885 1 is_stmt 1 view .LVU1300
.LBB1288:
	.loc 1 3885 1 view .LVU1301
.LBE1288:
	movq	%rsi, %rax
.LBB1299:
	movl	168(%rdi), %esi
.LVL421:
.LBB1289:
.LBI1289:
	.loc 1 3626 1 view .LVU1302
.LBB1290:
	.loc 1 3628 3 view .LVU1303
	movl	168(%rax), %ecx
	cmpl	$9, %ecx
	sete	%dl
	cmpl	$3, %ecx
	sete	%cl
	orl	%ecx, %edx
	.loc 1 3629 10 is_stmt 0 view .LVU1304
	cmpl	$3, %esi
	je	.L414
	cmpl	$9, %esi
	je	.L414
	.loc 1 3629 13 view .LVU1305
	movl	172(%rdi), %ecx
	andl	$61440, %ecx
.LVL422:
	.loc 1 3629 13 view .LVU1306
.LBE1290:
.LBE1289:
	.loc 1 3885 1 is_stmt 1 view .LVU1307
.LBB1291:
.LBI1291:
	.loc 1 3626 1 view .LVU1308
.LBB1292:
	.loc 1 3628 3 view .LVU1309
	.loc 1 3629 10 is_stmt 0 view .LVU1310
	testb	%dl, %dl
	je	.L432
.L415:
.LVL423:
	.loc 1 3629 10 view .LVU1311
.LBE1292:
.LBE1291:
	.loc 1 3885 1 is_stmt 1 view .LVU1312
	.loc 1 3885 1 view .LVU1313
	cmpl	$16384, %ecx
	je	.L417
	movl	$1, %eax
.LVL424:
	.loc 1 3885 1 is_stmt 0 view .LVU1314
	ret
.LVL425:
	.p2align 4,,10
	.p2align 3
.L414:
	.loc 1 3885 1 is_stmt 1 view .LVU1315
.LBB1296:
	.loc 1 3626 1 view .LVU1316
.LBB1293:
	.loc 1 3628 3 view .LVU1317
	.loc 1 3629 10 is_stmt 0 view .LVU1318
	testb	%dl, %dl
	je	.L433
.LVL426:
.L417:
	.loc 1 3629 10 view .LVU1319
.LBE1293:
.LBE1296:
.LBE1299:
.LBB1300:
.LBI1300:
	.loc 1 3885 1 is_stmt 1 view .LVU1320
.LBB1301:
	.loc 1 3885 1 view .LVU1321
	.loc 1 3885 1 view .LVU1322
.LBB1302:
.LBI1302:
	.loc 1 3861 1 view .LVU1323
.LBB1303:
	.loc 1 3864 3 view .LVU1324
	.loc 1 3864 10 is_stmt 0 view .LVU1325
	movq	(%rdi), %rsi
	movq	(%rax), %rdi
.LVL427:
	.loc 1 3864 10 view .LVU1326
	jmp	strcmp@PLT
.LVL428:
	.p2align 4,,10
	.p2align 3
.L433:
	.loc 1 3864 10 view .LVU1327
.LBE1303:
.LBE1302:
.LBE1301:
.LBE1300:
.LBB1307:
.LBB1297:
.LBB1294:
	.loc 1 3629 13 view .LVU1328
	movl	172(%rax), %edx
	andl	$61440, %edx
	.loc 1 3629 10 view .LVU1329
	cmpl	$16384, %edx
	je	.L417
.LVL429:
.L430:
	.loc 1 3629 10 view .LVU1330
.LBE1294:
.LBE1297:
	.loc 1 3885 1 view .LVU1331
	movl	$-1, %eax
.LVL430:
	.loc 1 3885 1 view .LVU1332
.LBE1307:
	ret
.LVL431:
	.p2align 4,,10
	.p2align 3
.L432:
.LBB1308:
.LBB1298:
.LBB1295:
	.loc 1 3629 13 view .LVU1333
	movl	172(%rax), %edx
	andl	$61440, %edx
	.loc 1 3629 10 view .LVU1334
	cmpl	$16384, %edx
	je	.L415
.LVL432:
	.loc 1 3629 10 view .LVU1335
.LBE1295:
.LBE1298:
	.loc 1 3885 1 is_stmt 1 view .LVU1336
	cmpl	$16384, %ecx
	je	.L430
.LVL433:
	.loc 1 3885 1 is_stmt 0 view .LVU1337
.LBE1308:
.LBB1309:
	.loc 1 3885 1 is_stmt 1 view .LVU1338
.LBB1306:
	.loc 1 3885 1 view .LVU1339
	.loc 1 3885 1 view .LVU1340
.LBB1305:
	.loc 1 3861 1 view .LVU1341
.LBB1304:
	.loc 1 3864 3 view .LVU1342
	.loc 1 3864 10 is_stmt 0 view .LVU1343
	movq	(%rdi), %rsi
	movq	(%rax), %rdi
.LVL434:
	.loc 1 3864 10 view .LVU1344
	jmp	strcmp@PLT
.LVL435:
	.loc 1 3864 10 view .LVU1345
.LBE1304:
.LBE1305:
.LBE1306:
.LBE1309:
	.cfi_endproc
.LFE305:
	.size	rev_strcmp_df_name, .-rev_strcmp_df_name
	.p2align 4
	.type	get_type_indicator, @function
get_type_indicator:
.LVL436:
.LFB339:
	.loc 1 4826 1 is_stmt 1 view -0
	.cfi_startproc
	.loc 1 4827 3 view .LVU1347
	.loc 1 4829 3 view .LVU1348
	.loc 1 4829 7 is_stmt 0 view .LVU1349
	testb	%dil, %dil
	je	.L435
	.loc 1 4829 17 discriminator 1 view .LVU1350
	movl	%esi, %eax
	andl	$61440, %eax
	.loc 1 4829 6 discriminator 1 view .LVU1351
	cmpl	$32768, %eax
	jne	.L468
	.loc 1 4834 11 discriminator 1 view .LVU1352
	xorl	%eax, %eax
	.loc 1 4831 19 discriminator 1 view .LVU1353
	cmpl	$3, indicator_style(%rip)
	je	.L469
.L434:
	.loc 1 4854 1 view .LVU1354
	ret
	.p2align 4,,10
	.p2align 3
.L435:
	.loc 1 4834 11 discriminator 2 view .LVU1355
	xorl	%eax, %eax
	.loc 1 4829 6 discriminator 2 view .LVU1356
	cmpl	$5, %edx
	je	.L434
	.loc 1 4838 7 is_stmt 1 discriminator 2 view .LVU1357
	.loc 1 4838 43 is_stmt 0 discriminator 2 view .LVU1358
	cmpl	$3, %edx
	sete	%cl
	.loc 1 4838 64 discriminator 2 view .LVU1359
	cmpl	$9, %edx
	sete	%al
	.loc 1 4838 56 discriminator 2 view .LVU1360
	orl	%eax, %ecx
.L440:
	.loc 1 4839 11 discriminator 4 view .LVU1361
	movl	$47, %eax
	.loc 1 4838 10 discriminator 4 view .LVU1362
	testb	%cl, %cl
	jne	.L434
	.loc 1 4840 12 is_stmt 1 view .LVU1363
	.loc 1 4834 11 is_stmt 0 view .LVU1364
	xorl	%eax, %eax
	.loc 1 4840 15 view .LVU1365
	cmpl	$1, indicator_style(%rip)
	je	.L434
.LVL437:
.LBB1312:
.LBI1312:
	.loc 1 4825 1 is_stmt 1 view .LVU1366
.LBB1313:
	.loc 1 4842 12 view .LVU1367
	.loc 1 4842 16 is_stmt 0 view .LVU1368
	testb	%dil, %dil
	je	.L441
	.loc 1 4842 26 view .LVU1369
	andl	$61440, %esi
.LVL438:
	.loc 1 4843 11 view .LVU1370
	movl	$64, %eax
	.loc 1 4842 15 view .LVU1371
	cmpl	$40960, %esi
	je	.L470
	.loc 1 4845 11 view .LVU1372
	movl	$124, %eax
	.loc 1 4844 15 view .LVU1373
	cmpl	$4096, %esi
	je	.L471
	.loc 1 4846 16 view .LVU1374
	cmpl	$49152, %esi
	sete	%al
.L446:
	.loc 1 4847 11 view .LVU1375
	negl	%eax
	andl	$61, %eax
.LBE1313:
.LBE1312:
	.loc 1 4854 1 view .LVU1376
	ret
.LVL439:
	.p2align 4,,10
	.p2align 3
.L468:
	.loc 1 4838 7 is_stmt 1 discriminator 1 view .LVU1377
	.loc 1 4838 11 is_stmt 0 discriminator 1 view .LVU1378
	cmpl	$16384, %eax
	sete	%cl
	jmp	.L440
.LVL440:
	.p2align 4,,10
	.p2align 3
.L441:
.LBB1315:
.LBB1314:
	.loc 1 4843 11 view .LVU1379
	movl	$64, %eax
	.loc 1 4842 15 view .LVU1380
	cmpl	$6, %edx
	je	.L472
	.loc 1 4845 11 view .LVU1381
	movl	$124, %eax
	.loc 1 4844 15 view .LVU1382
	cmpl	$1, %edx
	je	.L473
	.loc 1 4846 16 view .LVU1383
	cmpl	$7, %edx
	sete	%al
	jmp	.L446
.LVL441:
	.p2align 4,,10
	.p2align 3
.L469:
	.loc 1 4846 16 view .LVU1384
.LBE1314:
.LBE1315:
	.loc 1 4831 59 discriminator 2 view .LVU1385
	andl	$73, %esi
.LVL442:
	.loc 1 4832 11 discriminator 2 view .LVU1386
	cmpl	$1, %esi
	sbbl	%eax, %eax
	notl	%eax
	andl	$42, %eax
	ret
.LVL443:
	.p2align 4,,10
	.p2align 3
.L471:
	.loc 1 4832 11 discriminator 2 view .LVU1387
	ret
.LVL444:
	.p2align 4,,10
	.p2align 3
.L473:
	.loc 1 4832 11 discriminator 2 view .LVU1388
	ret
.LVL445:
	.p2align 4,,10
	.p2align 3
.L470:
	.loc 1 4832 11 discriminator 2 view .LVU1389
	ret
.LVL446:
	.p2align 4,,10
	.p2align 3
.L472:
	.loc 1 4832 11 discriminator 2 view .LVU1390
	ret
	.cfi_endproc
.LFE339:
	.size	get_type_indicator, .-get_type_indicator
	.p2align 4
	.type	print_type_indicator, @function
print_type_indicator:
.LVL447:
.LFB340:
	.loc 1 4858 1 is_stmt 1 view -0
	.cfi_startproc
	.loc 1 4859 3 view .LVU1392
	.loc 1 4858 1 is_stmt 0 view .LVU1393
	pushq	%rbx
	.cfi_def_cfa_offset 16
	.cfi_offset 3, -16
	.loc 1 4859 12 view .LVU1394
	movzbl	%dil, %edi
	.loc 1 4859 12 view .LVU1395
	call	get_type_indicator
.LVL448:
	.loc 1 4859 12 view .LVU1396
	movl	%eax, %ebx
.LVL449:
	.loc 1 4860 3 is_stmt 1 view .LVU1397
	.loc 1 4860 6 is_stmt 0 view .LVU1398
	testb	%al, %al
	je	.L475
	.loc 1 4861 5 is_stmt 1 view .LVU1399
	.loc 1 4861 5 view .LVU1400
.LVL450:
.LBB1316:
.LBI1316:
	.loc 8 108 1 view .LVU1401
.LBB1317:
	.loc 8 110 3 view .LVU1402
	.loc 8 110 10 is_stmt 0 view .LVU1403
	movq	stdout(%rip), %rdi
.LVL451:
	.loc 8 110 10 view .LVU1404
	movq	40(%rdi), %rax
.LVL452:
	.loc 8 110 10 view .LVU1405
	cmpq	48(%rdi), %rax
	jnb	.L482
	leaq	1(%rax), %rdx
.LVL453:
	.loc 8 110 10 view .LVU1406
	movq	%rdx, 40(%rdi)
	movb	%bl, (%rax)
.L477:
.LVL454:
	.loc 8 110 10 view .LVU1407
.LBE1317:
.LBE1316:
	.loc 1 4861 5 is_stmt 1 view .LVU1408
	addq	$1, dired_pos(%rip)
.L475:
	.loc 1 4861 5 discriminator 1 view .LVU1409
	.loc 1 4862 3 discriminator 1 view .LVU1410
	.loc 1 4862 10 is_stmt 0 discriminator 1 view .LVU1411
	testb	%bl, %bl
	.loc 1 4863 1 discriminator 1 view .LVU1412
	popq	%rbx
	.cfi_remember_state
	.cfi_def_cfa_offset 8
.LVL455:
	.loc 1 4862 10 discriminator 1 view .LVU1413
	setne	%al
	.loc 1 4863 1 discriminator 1 view .LVU1414
	ret
.LVL456:
	.p2align 4,,10
	.p2align 3
.L482:
	.cfi_restore_state
.LBB1319:
.LBB1318:
	.loc 8 110 10 view .LVU1415
	movzbl	%bl, %esi
	call	__overflow@PLT
.LVL457:
	.loc 8 110 10 view .LVU1416
	jmp	.L477
.LBE1318:
.LBE1319:
	.cfi_endproc
.LFE340:
	.size	print_type_indicator, .-print_type_indicator
	.p2align 4
	.type	rev_xstrcoll_df_version, @function
rev_xstrcoll_df_version:
.LVL458:
.LFB318:
	.loc 1 3910 1 is_stmt 1 view -0
	.cfi_startproc
	.loc 1 3910 1 is_stmt 0 view .LVU1418
	endbr64
	.loc 1 3910 3 is_stmt 1 view .LVU1419
.LBB1334:
	.loc 1 3910 3 view .LVU1420
.LBE1334:
	.loc 1 3910 1 is_stmt 0 view .LVU1421
	movq	%rsi, %rax
.LBB1345:
	.loc 1 3910 3 view .LVU1422
	movl	168(%rdi), %esi
.LVL459:
.LBB1335:
.LBI1335:
	.loc 1 3626 1 is_stmt 1 view .LVU1423
.LBB1336:
	.loc 1 3628 3 view .LVU1424
	movl	168(%rax), %ecx
	cmpl	$9, %ecx
	sete	%dl
	cmpl	$3, %ecx
	sete	%cl
	orl	%ecx, %edx
	.loc 1 3629 10 is_stmt 0 view .LVU1425
	cmpl	$3, %esi
	je	.L484
	cmpl	$9, %esi
	je	.L484
	.loc 1 3629 13 view .LVU1426
	movl	172(%rdi), %ecx
	andl	$61440, %ecx
.LVL460:
	.loc 1 3629 13 view .LVU1427
.LBE1336:
.LBE1335:
	.loc 1 3910 3 is_stmt 1 view .LVU1428
.LBB1337:
.LBI1337:
	.loc 1 3626 1 view .LVU1429
.LBB1338:
	.loc 1 3628 3 view .LVU1430
	.loc 1 3629 10 is_stmt 0 view .LVU1431
	testb	%dl, %dl
	je	.L502
.L485:
.LVL461:
	.loc 1 3629 10 view .LVU1432
.LBE1338:
.LBE1337:
	.loc 1 3910 3 is_stmt 1 view .LVU1433
	.loc 1 3910 3 view .LVU1434
	cmpl	$16384, %ecx
	je	.L487
	movl	$1, %eax
.LVL462:
	.loc 1 3910 3 is_stmt 0 view .LVU1435
	ret
.LVL463:
	.p2align 4,,10
	.p2align 3
.L484:
	.loc 1 3910 3 is_stmt 1 view .LVU1436
.LBB1342:
	.loc 1 3626 1 view .LVU1437
.LBB1339:
	.loc 1 3628 3 view .LVU1438
	.loc 1 3629 10 is_stmt 0 view .LVU1439
	testb	%dl, %dl
	je	.L503
.LVL464:
.L487:
	.loc 1 3629 10 view .LVU1440
.LBE1339:
.LBE1342:
.LBE1345:
.LBB1346:
.LBI1346:
	.loc 1 3909 12 is_stmt 1 view .LVU1441
.LBB1347:
	.loc 1 3910 3 view .LVU1442
	.loc 1 3910 26 view .LVU1443
.LBB1348:
.LBI1348:
	.loc 1 3898 1 view .LVU1444
.LBB1349:
	.loc 1 3900 3 view .LVU1445
	.loc 1 3900 10 is_stmt 0 view .LVU1446
	movq	(%rdi), %rsi
	movq	(%rax), %rdi
.LVL465:
	.loc 1 3900 10 view .LVU1447
	jmp	filevercmp@PLT
.LVL466:
	.p2align 4,,10
	.p2align 3
.L503:
	.loc 1 3900 10 view .LVU1448
.LBE1349:
.LBE1348:
.LBE1347:
.LBE1346:
.LBB1353:
.LBB1343:
.LBB1340:
	.loc 1 3629 13 view .LVU1449
	movl	172(%rax), %edx
	andl	$61440, %edx
	.loc 1 3629 10 view .LVU1450
	cmpl	$16384, %edx
	je	.L487
.LVL467:
.L500:
	.loc 1 3629 10 view .LVU1451
.LBE1340:
.LBE1343:
	.loc 1 3910 3 view .LVU1452
	movl	$-1, %eax
.LVL468:
	.loc 1 3910 3 view .LVU1453
.LBE1353:
	.loc 1 3910 53 view .LVU1454
	ret
.LVL469:
	.p2align 4,,10
	.p2align 3
.L502:
.LBB1354:
.LBB1344:
.LBB1341:
	.loc 1 3629 13 view .LVU1455
	movl	172(%rax), %edx
	andl	$61440, %edx
	.loc 1 3629 10 view .LVU1456
	cmpl	$16384, %edx
	je	.L485
.LVL470:
	.loc 1 3629 10 view .LVU1457
.LBE1341:
.LBE1344:
	.loc 1 3910 3 is_stmt 1 view .LVU1458
	cmpl	$16384, %ecx
	je	.L500
.LVL471:
	.loc 1 3910 3 is_stmt 0 view .LVU1459
.LBE1354:
.LBB1355:
	.loc 1 3909 12 is_stmt 1 view .LVU1460
.LBB1352:
	.loc 1 3910 3 view .LVU1461
	.loc 1 3910 26 view .LVU1462
.LBB1351:
	.loc 1 3898 1 view .LVU1463
.LBB1350:
	.loc 1 3900 3 view .LVU1464
	.loc 1 3900 10 is_stmt 0 view .LVU1465
	movq	(%rdi), %rsi
	movq	(%rax), %rdi
.LVL472:
	.loc 1 3900 10 view .LVU1466
	jmp	filevercmp@PLT
.LVL473:
	.loc 1 3900 10 view .LVU1467
.LBE1350:
.LBE1351:
.LBE1352:
.LBE1355:
	.cfi_endproc
.LFE318:
	.size	rev_xstrcoll_df_version, .-rev_xstrcoll_df_version
	.p2align 4
	.type	xstrcoll_df_version, @function
xstrcoll_df_version:
.LVL474:
.LFB317:
	.loc 1 3908 1 is_stmt 1 view -0
	.cfi_startproc
	.loc 1 3908 1 is_stmt 0 view .LVU1469
	endbr64
	.loc 1 3908 3 is_stmt 1 view .LVU1470
.LBB1370:
	.loc 1 3908 3 view .LVU1471
	movl	168(%rsi), %edx
	movl	168(%rdi), %ecx
.LBB1371:
.LBI1371:
	.loc 1 3626 1 view .LVU1472
.LVL475:
.LBB1372:
	.loc 1 3628 3 view .LVU1473
	cmpl	$9, %edx
	sete	%al
	cmpl	$3, %edx
	sete	%dl
	orl	%edx, %eax
	.loc 1 3629 10 is_stmt 0 view .LVU1474
	cmpl	$3, %ecx
	je	.L505
	cmpl	$9, %ecx
	je	.L505
	.loc 1 3629 13 view .LVU1475
	movl	172(%rdi), %edx
	andl	$61440, %edx
.LVL476:
	.loc 1 3629 13 view .LVU1476
.LBE1372:
.LBE1371:
	.loc 1 3908 3 is_stmt 1 view .LVU1477
.LBB1373:
.LBI1373:
	.loc 1 3626 1 view .LVU1478
.LBB1374:
	.loc 1 3628 3 view .LVU1479
	.loc 1 3629 10 is_stmt 0 view .LVU1480
	testb	%al, %al
	je	.L523
.L506:
.LVL477:
	.loc 1 3629 10 view .LVU1481
.LBE1374:
.LBE1373:
	.loc 1 3908 3 is_stmt 1 view .LVU1482
	.loc 1 3908 3 view .LVU1483
	cmpl	$16384, %edx
	je	.L508
	movl	$1, %eax
	ret
.LVL478:
	.p2align 4,,10
	.p2align 3
.L505:
	.loc 1 3908 3 view .LVU1484
.LBB1378:
	.loc 1 3626 1 view .LVU1485
.LBB1375:
	.loc 1 3628 3 view .LVU1486
	.loc 1 3629 10 is_stmt 0 view .LVU1487
	testb	%al, %al
	je	.L524
.LVL479:
.L508:
	.loc 1 3629 10 view .LVU1488
.LBE1375:
.LBE1378:
.LBE1370:
.LBB1381:
.LBI1381:
	.loc 1 3907 12 is_stmt 1 view .LVU1489
.LBB1382:
	.loc 1 3908 3 view .LVU1490
	.loc 1 3908 26 view .LVU1491
.LBB1383:
.LBI1383:
	.loc 1 3898 1 view .LVU1492
.LBB1384:
	.loc 1 3900 3 view .LVU1493
	.loc 1 3900 10 is_stmt 0 view .LVU1494
	movq	(%rsi), %rsi
.LVL480:
	.loc 1 3900 10 view .LVU1495
	movq	(%rdi), %rdi
.LVL481:
	.loc 1 3900 10 view .LVU1496
	jmp	filevercmp@PLT
.LVL482:
	.p2align 4,,10
	.p2align 3
.L524:
	.loc 1 3900 10 view .LVU1497
.LBE1384:
.LBE1383:
.LBE1382:
.LBE1381:
.LBB1388:
.LBB1379:
.LBB1376:
	.loc 1 3629 13 view .LVU1498
	movl	172(%rsi), %eax
	andl	$61440, %eax
	.loc 1 3629 10 view .LVU1499
	cmpl	$16384, %eax
	je	.L508
.LVL483:
.L521:
	.loc 1 3629 10 view .LVU1500
.LBE1376:
.LBE1379:
	.loc 1 3908 3 view .LVU1501
	movl	$-1, %eax
.LBE1388:
	.loc 1 3908 53 view .LVU1502
	ret
.LVL484:
	.p2align 4,,10
	.p2align 3
.L523:
.LBB1389:
.LBB1380:
.LBB1377:
	.loc 1 3629 13 view .LVU1503
	movl	172(%rsi), %eax
	andl	$61440, %eax
	.loc 1 3629 10 view .LVU1504
	cmpl	$16384, %eax
	je	.L506
.LVL485:
	.loc 1 3629 10 view .LVU1505
.LBE1377:
.LBE1380:
	.loc 1 3908 3 is_stmt 1 view .LVU1506
	cmpl	$16384, %edx
	je	.L521
.LVL486:
	.loc 1 3908 3 is_stmt 0 view .LVU1507
.LBE1389:
.LBB1390:
	.loc 1 3907 12 is_stmt 1 view .LVU1508
.LBB1387:
	.loc 1 3908 3 view .LVU1509
	.loc 1 3908 26 view .LVU1510
.LBB1386:
	.loc 1 3898 1 view .LVU1511
.LBB1385:
	.loc 1 3900 3 view .LVU1512
	.loc 1 3900 10 is_stmt 0 view .LVU1513
	movq	(%rsi), %rsi
.LVL487:
	.loc 1 3900 10 view .LVU1514
	movq	(%rdi), %rdi
.LVL488:
	.loc 1 3900 10 view .LVU1515
	jmp	filevercmp@PLT
.LVL489:
	.loc 1 3900 10 view .LVU1516
.LBE1385:
.LBE1386:
.LBE1387:
.LBE1390:
	.cfi_endproc
.LFE317:
	.size	xstrcoll_df_version, .-xstrcoll_df_version
	.p2align 4
	.type	rev_strcmp_df_extension, @function
rev_strcmp_df_extension:
.LVL490:
.LFB313:
	.loc 1 3886 1 is_stmt 1 view -0
	.cfi_startproc
	.loc 1 3886 1 is_stmt 0 view .LVU1518
	endbr64
	.loc 1 3886 1 is_stmt 1 view .LVU1519
.LBB1407:
	.loc 1 3886 1 view .LVU1520
.LBE1407:
	pushq	%r13
	.cfi_def_cfa_offset 16
	.cfi_offset 13, -16
	pushq	%r12
	.cfi_def_cfa_offset 24
	.cfi_offset 12, -24
	pushq	%rbp
	.cfi_def_cfa_offset 32
	.cfi_offset 6, -32
	pushq	%rbx
	.cfi_def_cfa_offset 40
	.cfi_offset 3, -40
	movq	%rdi, %rbx
	subq	$8, %rsp
	.cfi_def_cfa_offset 48
	movl	168(%rsi), %edx
.LBB1416:
	.loc 1 3886 1 is_stmt 0 view .LVU1521
	movl	168(%rdi), %ecx
.LBB1408:
.LBI1408:
	.loc 1 3626 1 is_stmt 1 view .LVU1522
.LVL491:
.LBB1409:
	.loc 1 3628 3 view .LVU1523
	cmpl	$9, %edx
	sete	%al
	cmpl	$3, %edx
	sete	%dl
	orl	%edx, %eax
	.loc 1 3629 10 is_stmt 0 view .LVU1524
	cmpl	$3, %ecx
	je	.L526
	cmpl	$9, %ecx
	je	.L526
	.loc 1 3629 13 view .LVU1525
	movl	172(%rdi), %edx
	andl	$61440, %edx
.LVL492:
	.loc 1 3629 13 view .LVU1526
.LBE1409:
.LBE1408:
	.loc 1 3886 1 is_stmt 1 view .LVU1527
.LBB1410:
.LBI1410:
	.loc 1 3626 1 view .LVU1528
.LBB1411:
	.loc 1 3628 3 view .LVU1529
	.loc 1 3629 10 is_stmt 0 view .LVU1530
	testb	%al, %al
	je	.L550
.L527:
.LVL493:
	.loc 1 3629 10 view .LVU1531
.LBE1411:
.LBE1410:
	.loc 1 3886 1 is_stmt 1 view .LVU1532
	.loc 1 3886 1 view .LVU1533
	cmpl	$16384, %edx
	je	.L532
	movl	$1, %eax
.LVL494:
.L525:
	.loc 1 3886 1 is_stmt 0 view .LVU1534
.LBE1416:
	addq	$8, %rsp
	.cfi_remember_state
	.cfi_def_cfa_offset 40
	popq	%rbx
	.cfi_def_cfa_offset 32
.LVL495:
	.loc 1 3886 1 view .LVU1535
	popq	%rbp
	.cfi_def_cfa_offset 24
	popq	%r12
	.cfi_def_cfa_offset 16
	popq	%r13
	.cfi_def_cfa_offset 8
	ret
.LVL496:
	.p2align 4,,10
	.p2align 3
.L526:
	.cfi_restore_state
.LBB1417:
	.loc 1 3886 1 is_stmt 1 view .LVU1536
.LBB1414:
	.loc 1 3626 1 view .LVU1537
.LBB1412:
	.loc 1 3628 3 view .LVU1538
	.loc 1 3629 10 is_stmt 0 view .LVU1539
	testb	%al, %al
	jne	.L532
	.loc 1 3629 13 view .LVU1540
	movl	172(%rsi), %eax
	andl	$61440, %eax
	.loc 1 3629 10 view .LVU1541
	cmpl	$16384, %eax
	je	.L532
.LVL497:
.L549:
	.loc 1 3629 10 view .LVU1542
.LBE1412:
.LBE1414:
.LBE1417:
	.loc 1 3886 1 view .LVU1543
	addq	$8, %rsp
	.cfi_remember_state
	.cfi_def_cfa_offset 40
.LBB1418:
	movl	$-1, %eax
.LBE1418:
	popq	%rbx
	.cfi_def_cfa_offset 32
.LVL498:
	.loc 1 3886 1 view .LVU1544
	popq	%rbp
	.cfi_def_cfa_offset 24
	popq	%r12
	.cfi_def_cfa_offset 16
	popq	%r13
	.cfi_def_cfa_offset 8
	ret
.LVL499:
	.p2align 4,,10
	.p2align 3
.L550:
	.cfi_restore_state
.LBB1419:
.LBB1415:
.LBB1413:
	.loc 1 3629 13 view .LVU1545
	movl	172(%rsi), %eax
	andl	$61440, %eax
	.loc 1 3629 10 view .LVU1546
	cmpl	$16384, %eax
	je	.L527
.LVL500:
	.loc 1 3629 10 view .LVU1547
.LBE1413:
.LBE1415:
	.loc 1 3886 1 is_stmt 1 view .LVU1548
	cmpl	$16384, %edx
	je	.L549
.LVL501:
.L532:
	.loc 1 3886 1 is_stmt 0 view .LVU1549
.LBE1419:
.LBB1420:
.LBI1420:
	.loc 1 3886 1 is_stmt 1 view .LVU1550
.LBB1421:
	.loc 1 3886 1 view .LVU1551
	.loc 1 3886 1 view .LVU1552
.LBB1422:
.LBI1422:
	.loc 1 3871 1 view .LVU1553
.LBB1423:
	.loc 1 3874 3 view .LVU1554
	.loc 1 3874 33 is_stmt 0 view .LVU1555
	movq	(%rsi), %r12
	.loc 1 3874 23 view .LVU1556
	movl	$46, %esi
.LVL502:
	.loc 1 3874 23 view .LVU1557
	movq	%r12, %rdi
	call	strrchr@PLT
.LVL503:
	.loc 1 3875 33 view .LVU1558
	movq	(%rbx), %r13
	.loc 1 3875 23 view .LVU1559
	movl	$46, %esi
	.loc 1 3874 23 view .LVU1560
	movq	%rax, %rbp
.LVL504:
	.loc 1 3875 3 is_stmt 1 view .LVU1561
	.loc 1 3875 23 is_stmt 0 view .LVU1562
	movq	%r13, %rdi
	call	strrchr@PLT
.LVL505:
	.loc 1 3875 23 view .LVU1563
	movq	%rax, %rsi
.LVL506:
	.loc 1 3876 3 is_stmt 1 view .LVU1564
	.loc 1 3876 14 is_stmt 0 view .LVU1565
	testq	%rax, %rax
	je	.L529
	testq	%rbp, %rbp
	leaq	.LC1(%rip), %rax
.LVL507:
	.loc 1 3876 14 view .LVU1566
	cmove	%rax, %rbp
.LVL508:
.L530:
	.loc 1 3876 14 view .LVU1567
	movq	%rbp, %rdi
	call	strcmp@PLT
.LVL509:
	.loc 1 3877 3 is_stmt 1 view .LVU1568
	.loc 1 3877 22 is_stmt 0 view .LVU1569
	testl	%eax, %eax
	jne	.L525
.LVL510:
.L534:
.LBB1424:
.LBI1424:
	.loc 1 3871 1 is_stmt 1 view .LVU1570
.LBE1424:
.LBE1423:
.LBE1422:
.LBE1421:
.LBE1420:
	.loc 1 3886 1 is_stmt 0 view .LVU1571
	addq	$8, %rsp
	.cfi_remember_state
	.cfi_def_cfa_offset 40
.LBB1435:
.LBB1433:
.LBB1431:
.LBB1429:
.LBB1427:
.LBB1425:
	.loc 1 3877 24 view .LVU1572
	movq	%r13, %rsi
	movq	%r12, %rdi
.LBE1425:
.LBE1427:
.LBE1429:
.LBE1431:
.LBE1433:
.LBE1435:
	.loc 1 3886 1 view .LVU1573
	popq	%rbx
	.cfi_def_cfa_offset 32
.LVL511:
	.loc 1 3886 1 view .LVU1574
	popq	%rbp
	.cfi_def_cfa_offset 24
	popq	%r12
	.cfi_def_cfa_offset 16
	popq	%r13
	.cfi_def_cfa_offset 8
.LBB1436:
.LBB1434:
.LBB1432:
.LBB1430:
.LBB1428:
.LBB1426:
	.loc 1 3877 24 view .LVU1575
	jmp	strcmp@PLT
.LVL512:
	.p2align 4,,10
	.p2align 3
.L529:
	.cfi_restore_state
	.loc 1 3877 24 view .LVU1576
.LBE1426:
.LBE1428:
	.loc 1 3876 14 view .LVU1577
	leaq	.LC1(%rip), %rsi
	testq	%rbp, %rbp
	jne	.L530
	jmp	.L534
.LBE1430:
.LBE1432:
.LBE1434:
.LBE1436:
	.cfi_endproc
.LFE313:
	.size	rev_strcmp_df_extension, .-rev_strcmp_df_extension
	.p2align 4
	.type	signal_setup, @function
signal_setup:
.LVL513:
.LFB217:
	.loc 1 1527 1 is_stmt 1 view -0
	.cfi_startproc
	.loc 1 1527 1 is_stmt 0 view .LVU1579
	pushq	%r15
	.cfi_def_cfa_offset 16
	.cfi_offset 15, -16
	pushq	%r14
	.cfi_def_cfa_offset 24
	.cfi_offset 14, -24
	pushq	%r13
	.cfi_def_cfa_offset 32
	.cfi_offset 13, -32
	pushq	%r12
	.cfi_def_cfa_offset 40
	.cfi_offset 12, -40
	pushq	%rbp
	.cfi_def_cfa_offset 48
	.cfi_offset 6, -48
	pushq	%rbx
	.cfi_def_cfa_offset 56
	.cfi_offset 3, -56
	subq	$168, %rsp
	.cfi_def_cfa_offset 224
	.loc 1 1527 1 view .LVU1580
	movq	%fs:40, %rax
	movq	%rax, 152(%rsp)
	xorl	%eax, %eax
	.loc 1 1529 3 is_stmt 1 view .LVU1581
	.loc 1 1552 3 view .LVU1582
	.loc 1 1558 3 view .LVU1583
	.loc 1 1560 3 view .LVU1584
	.loc 1 1560 6 is_stmt 0 view .LVU1585
	testb	%dil, %dil
	jne	.L552
	leaq	4+sig.10624(%rip), %rbx
	movl	$20, %ebp
	.loc 1 1598 13 view .LVU1586
	leaq	caught_signals(%rip), %r12
	leaq	44(%rbx), %r13
	jmp	.L553
.LVL514:
	.p2align 4,,10
	.p2align 3
.L562:
	.loc 1 1597 30 is_stmt 1 discriminator 2 view .LVU1587
	.loc 1 1597 19 discriminator 2 view .LVU1588
	.loc 1 1597 7 is_stmt 0 discriminator 2 view .LVU1589
	cmpq	%r13, %rbx
	je	.L551
.L572:
	movl	(%rbx), %ebp
	addq	$4, %rbx
.L553:
	.loc 1 1598 9 is_stmt 1 view .LVU1590
	.loc 1 1598 13 is_stmt 0 view .LVU1591
	movl	%ebp, %esi
	movq	%r12, %rdi
	call	sigismember@PLT
.LVL515:
	.loc 1 1598 12 view .LVU1592
	testl	%eax, %eax
	je	.L562
	.loc 1 1599 11 is_stmt 1 view .LVU1593
	xorl	%esi, %esi
	movl	%ebp, %edi
	call	signal@PLT
.LVL516:
	.loc 1 1597 30 view .LVU1594
	.loc 1 1597 19 view .LVU1595
	.loc 1 1597 7 is_stmt 0 view .LVU1596
	cmpq	%r13, %rbx
	jne	.L572
.L551:
	.loc 1 1606 1 view .LVU1597
	movq	152(%rsp), %rax
	xorq	%fs:40, %rax
	jne	.L573
	addq	$168, %rsp
	.cfi_remember_state
	.cfi_def_cfa_offset 56
	popq	%rbx
	.cfi_def_cfa_offset 48
	popq	%rbp
	.cfi_def_cfa_offset 40
	popq	%r12
	.cfi_def_cfa_offset 32
	popq	%r13
	.cfi_def_cfa_offset 24
	popq	%r14
	.cfi_def_cfa_offset 16
	popq	%r15
	.cfi_def_cfa_offset 8
	ret
.LVL517:
	.p2align 4,,10
	.p2align 3
.L552:
	.cfi_restore_state
.LBB1440:
.LBI1440:
	.loc 1 1526 1 is_stmt 1 view .LVU1598
.LBB1441:
.LBB1442:
	.loc 1 1563 7 view .LVU1599
	.loc 1 1565 7 view .LVU1600
	leaq	4+sig.10624(%rip), %rbp
	leaq	caught_signals(%rip), %rdi
.LVL518:
	.loc 1 1565 7 is_stmt 0 view .LVU1601
	movl	$20, %r12d
	movq	%rsp, %r13
	call	sigemptyset@PLT
.LVL519:
	.loc 1 1566 7 is_stmt 1 view .LVU1602
	.loc 1 1566 19 view .LVU1603
	leaq	44(%rbp), %r14
	.loc 1 1565 7 is_stmt 0 view .LVU1604
	movq	%rbp, %rbx
	.loc 1 1570 13 view .LVU1605
	leaq	caught_signals(%rip), %r15
	jmp	.L556
.LVL520:
	.p2align 4,,10
	.p2align 3
.L574:
	.loc 1 1570 13 view .LVU1606
	movl	(%rbx), %r12d
	addq	$4, %rbx
.L556:
	.loc 1 1568 11 is_stmt 1 view .LVU1607
	xorl	%esi, %esi
	movq	%r13, %rdx
	movl	%r12d, %edi
	call	sigaction@PLT
.LVL521:
	.loc 1 1569 11 view .LVU1608
	.loc 1 1569 14 is_stmt 0 view .LVU1609
	cmpq	$1, (%rsp)
	je	.L554
	.loc 1 1570 13 is_stmt 1 view .LVU1610
	movl	%r12d, %esi
	movq	%r15, %rdi
	call	sigaddset@PLT
.LVL522:
.L554:
	.loc 1 1566 30 view .LVU1611
	.loc 1 1566 19 view .LVU1612
	.loc 1 1566 7 is_stmt 0 view .LVU1613
	cmpq	%r14, %rbx
	jne	.L574
	.loc 1 1573 7 is_stmt 1 view .LVU1614
	.loc 1 1573 19 is_stmt 0 view .LVU1615
	movdqa	caught_signals(%rip), %xmm0
	movdqa	16+caught_signals(%rip), %xmm1
	.loc 1 1574 20 view .LVU1616
	movl	$268435456, 136(%rsp)
	movl	$20, %r12d
	.loc 1 1573 19 view .LVU1617
	movdqa	32+caught_signals(%rip), %xmm2
	movdqa	48+caught_signals(%rip), %xmm3
	.loc 1 1579 62 view .LVU1618
	leaq	stophandler(%rip), %r15
	leaq	sighandler(%rip), %r14
	.loc 1 1573 19 view .LVU1619
	movdqa	64+caught_signals(%rip), %xmm4
	movdqa	80+caught_signals(%rip), %xmm5
	movups	%xmm0, 8(%rsp)
	movdqa	96+caught_signals(%rip), %xmm6
	movdqa	112+caught_signals(%rip), %xmm7
	movups	%xmm1, 24(%rsp)
	movups	%xmm2, 40(%rsp)
	movups	%xmm3, 56(%rsp)
	movups	%xmm4, 72(%rsp)
	movups	%xmm5, 88(%rsp)
	movups	%xmm6, 104(%rsp)
	movups	%xmm7, 120(%rsp)
	.loc 1 1574 7 is_stmt 1 view .LVU1620
	.loc 1 1576 7 view .LVU1621
.LVL523:
	.loc 1 1576 19 view .LVU1622
	jmp	.L560
.LVL524:
	.p2align 4,,10
	.p2align 3
.L575:
	.loc 1 1576 19 is_stmt 0 view .LVU1623
	movl	0(%rbp), %r12d
	addq	$4, %rbp
.L560:
	.loc 1 1577 9 is_stmt 1 view .LVU1624
	.loc 1 1577 13 is_stmt 0 view .LVU1625
	movl	%r12d, %esi
	leaq	caught_signals(%rip), %rdi
	call	sigismember@PLT
.LVL525:
	.loc 1 1577 12 view .LVU1626
	testl	%eax, %eax
	je	.L557
	.loc 1 1579 13 is_stmt 1 view .LVU1627
	.loc 1 1579 62 is_stmt 0 view .LVU1628
	cmpl	$20, %r12d
	movq	%r14, %rax
	.loc 1 1580 13 view .LVU1629
	movq	%r13, %rsi
	movl	%r12d, %edi
	.loc 1 1579 62 view .LVU1630
	cmove	%r15, %rax
	.loc 1 1580 13 view .LVU1631
	xorl	%edx, %edx
	.loc 1 1579 28 view .LVU1632
	movq	%rax, (%rsp)
	.loc 1 1580 13 is_stmt 1 view .LVU1633
	call	sigaction@PLT
.LVL526:
.L557:
	.loc 1 1576 30 view .LVU1634
	.loc 1 1576 19 view .LVU1635
	.loc 1 1576 7 is_stmt 0 view .LVU1636
	cmpq	%rbx, %rbp
	jne	.L575
	jmp	.L551
.LVL527:
.L573:
	.loc 1 1576 7 view .LVU1637
.LBE1442:
.LBE1441:
.LBE1440:
	.loc 1 1606 1 view .LVU1638
	call	__stack_chk_fail@PLT
.LVL528:
	.cfi_endproc
.LFE217:
	.size	signal_setup, .-signal_setup
	.p2align 4
	.type	prep_non_filename_text, @function
prep_non_filename_text:
.LFB337:
	.loc 1 4779 1 is_stmt 1 view -0
	.cfi_startproc
	.loc 1 4780 3 view .LVU1640
	.loc 1 4780 6 is_stmt 0 view .LVU1641
	cmpq	$0, 40+color_indicator(%rip)
	je	.L577
	.loc 1 4781 5 is_stmt 1 view .LVU1642
	leaq	40+color_indicator(%rip), %rsi
	leaq	-8(%rsi), %rdi
	jmp	put_indicator.isra.0
.LVL529:
	.p2align 4,,10
	.p2align 3
.L577:
.LBB1445:
.LBI1445:
	.loc 1 4778 1 view .LVU1643
.LBB1446:
	.loc 1 4784 7 view .LVU1644
	leaq	8+color_indicator(%rip), %rsi
.LBE1446:
.LBE1445:
	.loc 1 4779 1 is_stmt 0 view .LVU1645
	subq	$8, %rsp
	.cfi_def_cfa_offset 16
.LBB1449:
.LBB1447:
	.loc 1 4784 7 view .LVU1646
	leaq	-8(%rsi), %rdi
	call	put_indicator.isra.0
.LVL530:
	.loc 1 4785 7 is_stmt 1 view .LVU1647
	leaq	56+color_indicator(%rip), %rsi
	leaq	-8(%rsi), %rdi
	call	put_indicator.isra.0
.LVL531:
	.loc 1 4786 7 view .LVU1648
	leaq	24+color_indicator(%rip), %rsi
.LBE1447:
.LBE1449:
	.loc 1 4788 1 is_stmt 0 view .LVU1649
	addq	$8, %rsp
	.cfi_def_cfa_offset 8
.LBB1450:
.LBB1448:
	.loc 1 4786 7 view .LVU1650
	leaq	-8(%rsi), %rdi
	jmp	put_indicator.isra.0
.LVL532:
.LBE1448:
.LBE1450:
	.cfi_endproc
.LFE337:
	.size	prep_non_filename_text, .-prep_non_filename_text
	.p2align 4
	.type	put_indicator.isra.0, @function
put_indicator.isra.0:
.LFB408:
	.loc 1 4995 1 is_stmt 1 view -0
	.cfi_startproc
	.loc 1 4997 3 view .LVU1652
	.loc 1 4995 1 is_stmt 0 view .LVU1653
	pushq	%rbp
	.cfi_def_cfa_offset 16
	.cfi_offset 6, -16
	movq	%rdi, %rbp
	pushq	%rbx
	.cfi_def_cfa_offset 24
	.cfi_offset 3, -24
	movq	%rsi, %rbx
	subq	$8, %rsp
	.cfi_def_cfa_offset 32
	.loc 1 4997 6 view .LVU1654
	cmpb	$0, used_color(%rip)
	je	.L584
.L581:
	.loc 1 5011 3 is_stmt 1 view .LVU1655
	movq	0(%rbp), %rsi
	movq	(%rbx), %rdi
	movl	$1, %edx
	movq	stdout(%rip), %rcx
	.loc 1 5012 1 is_stmt 0 view .LVU1656
	addq	$8, %rsp
	.cfi_remember_state
	.cfi_def_cfa_offset 24
	popq	%rbx
	.cfi_def_cfa_offset 16
	popq	%rbp
	.cfi_def_cfa_offset 8
	.loc 1 5011 3 view .LVU1657
	jmp	fwrite_unlocked@PLT
.LVL533:
	.p2align 4,,10
	.p2align 3
.L584:
	.cfi_restore_state
	.loc 1 4999 7 is_stmt 1 view .LVU1658
	.loc 1 5005 16 is_stmt 0 view .LVU1659
	movl	$1, %edi
	.loc 1 4999 18 view .LVU1660
	movb	$1, used_color(%rip)
	.loc 1 5005 7 is_stmt 1 view .LVU1661
	.loc 1 5005 16 is_stmt 0 view .LVU1662
	call	tcgetpgrp@PLT
.LVL534:
	.loc 1 5005 10 view .LVU1663
	testl	%eax, %eax
	jns	.L585
	.loc 1 5008 7 is_stmt 1 view .LVU1664
	call	prep_non_filename_text
.LVL535:
	jmp	.L581
	.p2align 4,,10
	.p2align 3
.L585:
	.loc 1 5006 9 view .LVU1665
.LBB1451:
.LBI1451:
	.loc 1 1609 1 view .LVU1666
.LBB1452:
	.loc 1 1611 3 view .LVU1667
	movl	$1, %edi
	call	signal_setup
.LVL536:
.LBE1452:
.LBE1451:
	.loc 1 5008 7 view .LVU1668
	call	prep_non_filename_text
.LVL537:
	jmp	.L581
	.cfi_endproc
.LFE408:
	.size	put_indicator.isra.0, .-put_indicator.isra.0
	.p2align 4
	.type	restore_default_color, @function
restore_default_color:
.LFB212:
	.loc 1 1438 1 view -0
	.cfi_startproc
	.loc 1 1439 3 view .LVU1670
	leaq	8+color_indicator(%rip), %rsi
	.loc 1 1438 1 is_stmt 0 view .LVU1671
	subq	$8, %rsp
	.cfi_def_cfa_offset 16
	.loc 1 1439 3 view .LVU1672
	leaq	-8(%rsi), %rdi
	call	put_indicator.isra.0
.LVL538:
	.loc 1 1440 3 is_stmt 1 view .LVU1673
	leaq	24+color_indicator(%rip), %rsi
	.loc 1 1441 1 is_stmt 0 view .LVU1674
	addq	$8, %rsp
	.cfi_def_cfa_offset 8
	.loc 1 1440 3 view .LVU1675
	leaq	-8(%rsi), %rdi
	jmp	put_indicator.isra.0
.LVL539:
	.cfi_endproc
.LFE212:
	.size	restore_default_color, .-restore_default_color
	.p2align 4
	.type	process_signals, @function
process_signals:
.LFB216:
	.loc 1 1484 1 is_stmt 1 view -0
	.cfi_startproc
	pushq	%rbp
	.cfi_def_cfa_offset 16
	.cfi_offset 6, -16
	pushq	%rbx
	.cfi_def_cfa_offset 24
	.cfi_offset 3, -24
	subq	$152, %rsp
	.cfi_def_cfa_offset 176
	.loc 1 1484 1 is_stmt 0 view .LVU1677
	movq	%fs:40, %rax
	movq	%rax, 136(%rsp)
	xorl	%eax, %eax
	.loc 1 1485 3 is_stmt 1 view .LVU1678
.LBB1453:
	.loc 1 1495 7 is_stmt 0 view .LVU1679
	movq	%rsp, %rbx
.LBE1453:
	.loc 1 1485 9 view .LVU1680
	jmp	.L589
	.p2align 4,,10
	.p2align 3
.L590:
.LBB1454:
	.loc 1 1493 7 is_stmt 1 view .LVU1681
	movq	stdout(%rip), %rdi
	call	fflush_unlocked@PLT
.LVL540:
	.loc 1 1495 7 view .LVU1682
	movq	%rbx, %rdx
	leaq	caught_signals(%rip), %rsi
	xorl	%edi, %edi
	call	sigprocmask@PLT
.LVL541:
	.loc 1 1499 7 view .LVU1683
	.loc 1 1499 11 is_stmt 0 view .LVU1684
	movl	interrupt_signal(%rip), %ebp
.LVL542:
	.loc 1 1500 7 is_stmt 1 view .LVU1685
	.loc 1 1500 13 is_stmt 0 view .LVU1686
	movl	stop_signal_count(%rip), %eax
.LVL543:
	.loc 1 1505 7 is_stmt 1 view .LVU1687
	.loc 1 1505 10 is_stmt 0 view .LVU1688
	testl	%eax, %eax
	je	.L591
	.loc 1 1507 11 is_stmt 1 view .LVU1689
	.loc 1 1507 37 is_stmt 0 view .LVU1690
	subl	$1, %eax
.LVL544:
	.loc 1 1508 15 view .LVU1691
	movl	$19, %ebp
.LVL545:
	.loc 1 1507 29 view .LVU1692
	movl	%eax, stop_signal_count(%rip)
	.loc 1 1508 11 is_stmt 1 view .LVU1693
.LVL546:
.L592:
	.loc 1 1514 7 view .LVU1694
	movl	%ebp, %edi
	call	raise@PLT
.LVL547:
	.loc 1 1515 7 view .LVU1695
	xorl	%edx, %edx
	movq	%rbx, %rsi
	movl	$2, %edi
	call	sigprocmask@PLT
.LVL548:
.L589:
	.loc 1 1515 7 is_stmt 0 view .LVU1696
.LBE1454:
	.loc 1 1485 9 is_stmt 1 view .LVU1697
	.loc 1 1485 10 is_stmt 0 view .LVU1698
	movl	interrupt_signal(%rip), %eax
	.loc 1 1485 9 view .LVU1699
	testl	%eax, %eax
	jne	.L593
	.loc 1 1485 27 discriminator 1 view .LVU1700
	movl	stop_signal_count(%rip), %eax
	testl	%eax, %eax
	je	.L596
.L593:
.LBB1455:
	.loc 1 1487 7 is_stmt 1 view .LVU1701
	.loc 1 1488 7 view .LVU1702
	.loc 1 1489 7 view .LVU1703
	.loc 1 1491 7 view .LVU1704
	.loc 1 1491 10 is_stmt 0 view .LVU1705
	cmpb	$0, used_color(%rip)
	je	.L590
	.loc 1 1492 9 is_stmt 1 view .LVU1706
	call	restore_default_color
.LVL549:
	jmp	.L590
.LVL550:
	.p2align 4,,10
	.p2align 3
.L591:
	.loc 1 1511 9 view .LVU1707
	xorl	%esi, %esi
	movl	%ebp, %edi
	call	signal@PLT
.LVL551:
	.loc 1 1511 9 is_stmt 0 view .LVU1708
	jmp	.L592
.LVL552:
	.p2align 4,,10
	.p2align 3
.L596:
	.loc 1 1511 9 view .LVU1709
.LBE1455:
	.loc 1 1520 1 view .LVU1710
	movq	136(%rsp), %rax
	xorq	%fs:40, %rax
	jne	.L597
	addq	$152, %rsp
	.cfi_remember_state
	.cfi_def_cfa_offset 24
	popq	%rbx
	.cfi_def_cfa_offset 16
	popq	%rbp
	.cfi_def_cfa_offset 8
	ret
.L597:
	.cfi_restore_state
	call	__stack_chk_fail@PLT
.LVL553:
	.cfi_endproc
.LFE216:
	.size	process_signals, .-process_signals
	.p2align 4
	.type	set_normal_color, @function
set_normal_color:
.LFB213:
	.loc 1 1445 1 is_stmt 1 view -0
	.cfi_startproc
	.loc 1 1446 3 view .LVU1712
	.loc 1 1446 6 is_stmt 0 view .LVU1713
	cmpb	$0, print_with_color(%rip)
	jne	.L607
	ret
	.p2align 4,,10
	.p2align 3
.L607:
	.loc 1 1445 1 discriminator 1 view .LVU1714
	subq	$8, %rsp
	.cfi_def_cfa_offset 16
	.loc 1 1446 27 discriminator 1 view .LVU1715
	movl	$4, %edi
	call	is_colored
.LVL554:
	.loc 1 1446 24 discriminator 1 view .LVU1716
	testb	%al, %al
	jne	.L608
	.loc 1 1452 1 view .LVU1717
	addq	$8, %rsp
	.cfi_remember_state
	.cfi_def_cfa_offset 8
	ret
	.p2align 4,,10
	.p2align 3
.L608:
	.cfi_restore_state
.LBB1458:
.LBI1458:
	.loc 1 1444 1 is_stmt 1 view .LVU1718
.LBB1459:
	.loc 1 1448 7 view .LVU1719
	leaq	8+color_indicator(%rip), %rsi
	leaq	-8(%rsi), %rdi
	call	put_indicator.isra.0
.LVL555:
	.loc 1 1449 7 view .LVU1720
	leaq	72+color_indicator(%rip), %rsi
	leaq	-8(%rsi), %rdi
	call	put_indicator.isra.0
.LVL556:
	.loc 1 1450 7 view .LVU1721
	leaq	24+color_indicator(%rip), %rsi
.LBE1459:
.LBE1458:
	.loc 1 1452 1 is_stmt 0 view .LVU1722
	addq	$8, %rsp
	.cfi_def_cfa_offset 8
.LBB1461:
.LBB1460:
	.loc 1 1450 7 view .LVU1723
	leaq	-8(%rsi), %rdi
	jmp	put_indicator.isra.0
.LVL557:
.LBE1460:
.LBE1461:
	.cfi_endproc
.LFE213:
	.size	set_normal_color, .-set_normal_color
	.p2align 4
	.type	quote_name_buf.constprop.0, @function
quote_name_buf.constprop.0:
.LVL558:
.LFB411:
	.loc 1 4442 1 is_stmt 1 view -0
	.cfi_startproc
	.loc 1 4442 1 is_stmt 0 view .LVU1725
	pushq	%r15
	.cfi_def_cfa_offset 16
	.cfi_offset 15, -16
	pushq	%r14
	.cfi_def_cfa_offset 24
	.cfi_offset 14, -24
	pushq	%r13
	.cfi_def_cfa_offset 32
	.cfi_offset 13, -32
	pushq	%r12
	.cfi_def_cfa_offset 40
	.cfi_offset 12, -40
	movl	%ecx, %r12d
	pushq	%rbp
	.cfi_def_cfa_offset 48
	.cfi_offset 6, -48
	movq	%rsi, %rbp
	pushq	%rbx
	.cfi_def_cfa_offset 56
	.cfi_offset 3, -56
	movq	%rdx, %rbx
	subq	$104, %rsp
	.cfi_def_cfa_offset 160
	.loc 1 4442 1 view .LVU1726
	movq	%rdi, 48(%rsp)
	movq	%r8, 32(%rsp)
	movq	%r9, 56(%rsp)
	movq	%fs:40, %rax
	movq	%rax, 88(%rsp)
	xorl	%eax, %eax
.LVL559:
	.loc 1 4446 3 is_stmt 1 view .LVU1727
	.loc 1 4446 9 is_stmt 0 view .LVU1728
	movq	(%rdi), %rax
	.loc 1 4451 27 view .LVU1729
	movq	%rdx, %rdi
.LVL560:
	.loc 1 4446 9 view .LVU1730
	movq	%rax, 24(%rsp)
.LVL561:
	.loc 1 4447 3 is_stmt 1 view .LVU1731
	.loc 1 4448 3 view .LVU1732
	.loc 1 4449 3 view .LVU1733
	.loc 1 4451 3 view .LVU1734
	.loc 1 4451 27 is_stmt 0 view .LVU1735
	call	get_quoting_style@PLT
.LVL562:
	.loc 1 4452 3 is_stmt 1 view .LVU1736
	.loc 1 4453 32 is_stmt 0 view .LVU1737
	cmpl	$2, %eax
	setbe	%al
.LVL563:
	.loc 1 4453 32 view .LVU1738
	andb	qmark_funny_chars(%rip), %al
	movb	%al, 47(%rsp)
	jne	.L680
.LVL564:
	.loc 1 4457 3 is_stmt 1 view .LVU1739
	.loc 1 4453 32 is_stmt 0 view .LVU1740
	xorl	%r13d, %r13d
	.loc 1 4457 6 view .LVU1741
	testl	%r12d, %r12d
	je	.L681
.LVL565:
.L647:
	.loc 1 4459 7 is_stmt 1 view .LVU1742
	.loc 1 4459 13 is_stmt 0 view .LVU1743
	movq	24(%rsp), %rdi
	movq	%rbx, %r8
	movq	%rbp, %rdx
	movl	$8192, %esi
	movq	$-1, %rcx
	call	quotearg_buffer@PLT
.LVL566:
	movq	%rax, %r12
.LVL567:
	.loc 1 4460 7 is_stmt 1 view .LVU1744
	.loc 1 4460 10 is_stmt 0 view .LVU1745
	cmpq	$8191, %rax
	ja	.L682
.LVL568:
.L612:
	.loc 1 4466 7 is_stmt 1 view .LVU1746
	.loc 1 4466 32 is_stmt 0 view .LVU1747
	movq	24(%rsp), %rax
	movb	$1, 47(%rsp)
	movzbl	(%rax), %eax
	cmpb	%al, 0(%rbp)
	jne	.L613
	.loc 1 4466 35 view .LVU1748
	movq	%rbp, %rdi
	call	strlen@PLT
.LVL569:
	.loc 1 4466 32 view .LVU1749
	cmpq	%rax, %r12
	setne	47(%rsp)
.L613:
	.loc 1 4484 3 is_stmt 1 view .LVU1750
	.loc 1 4484 6 is_stmt 0 view .LVU1751
	testl	%r13d, %r13d
	je	.L615
	.loc 1 4459 13 view .LVU1752
	movq	%r12, %rbx
.LVL570:
	.loc 1 4459 13 view .LVU1753
	jmp	.L614
.LVL571:
	.p2align 4,,10
	.p2align 3
.L681:
	.loc 1 4479 7 is_stmt 1 view .LVU1754
	.loc 1 4479 13 is_stmt 0 view .LVU1755
	movq	%rbp, %rdi
	call	strlen@PLT
.LVL572:
	movq	%rbp, 24(%rsp)
.LVL573:
	.loc 1 4479 13 view .LVU1756
	movq	%rax, %r12
.LVL574:
	.loc 1 4480 7 is_stmt 1 view .LVU1757
	.loc 1 4481 7 view .LVU1758
	.loc 1 4484 3 view .LVU1759
.L615:
	.loc 1 4601 8 view .LVU1760
	.loc 1 4601 11 is_stmt 0 view .LVU1761
	cmpq	$0, 32(%rsp)
	je	.L636
	.loc 1 4603 7 is_stmt 1 view .LVU1762
	.loc 1 4603 11 is_stmt 0 view .LVU1763
	call	__ctype_get_mb_cur_max@PLT
.LVL575:
	.loc 1 4603 10 view .LVU1764
	cmpq	$1, %rax
	ja	.L683
.LBB1462:
	.loc 1 4607 11 is_stmt 1 view .LVU1765
.LVL576:
	.loc 1 4608 11 view .LVU1766
	.loc 1 4608 23 is_stmt 0 view .LVU1767
	movq	24(%rsp), %rbx
.LVL577:
	.loc 1 4608 23 view .LVU1768
	leaq	(%rbx,%r12), %rbp
.LVL578:
	.loc 1 4610 11 is_stmt 1 view .LVU1769
	.loc 1 4611 11 view .LVU1770
	.loc 1 4611 17 view .LVU1771
	cmpq	%rbx, %rbp
	jbe	.L655
	.loc 1 4613 19 is_stmt 0 view .LVU1772
	call	__ctype_b_loc@PLT
.LVL579:
	movq	(%rax), %rcx
	movq	%rbx, %rax
	.loc 1 4610 27 view .LVU1773
	xorl	%ebx, %ebx
.LVL580:
	.p2align 4,,10
	.p2align 3
.L640:
	.loc 1 4613 15 is_stmt 1 view .LVU1774
.LBB1463:
.LBI1463:
	.loc 2 156 29 view .LVU1775
.LBB1464:
	.loc 2 156 50 view .LVU1776
	.loc 2 156 50 is_stmt 0 view .LVU1777
.LBE1464:
.LBE1463:
	.loc 1 4613 19 view .LVU1778
	movzbl	(%rax), %edx
	.loc 1 4613 18 view .LVU1779
	movzwl	(%rcx,%rdx,2), %edx
	andw	$16384, %dx
	.loc 1 4614 32 view .LVU1780
	cmpw	$1, %dx
	sbbq	$-1, %rbx
	.loc 1 4615 15 is_stmt 1 view .LVU1781
	.loc 1 4615 16 is_stmt 0 view .LVU1782
	addq	$1, %rax
.LVL581:
	.loc 1 4611 17 is_stmt 1 view .LVU1783
	cmpq	%rax, %rbp
	jne	.L640
.LVL582:
.L638:
	.loc 1 4611 17 is_stmt 0 view .LVU1784
.LBE1462:
	.loc 1 4623 3 is_stmt 1 view .LVU1785
	.loc 1 4623 58 is_stmt 0 view .LVU1786
	cmpb	$0, align_variable_outer_quotes(%rip)
	jne	.L644
	.loc 1 4623 8 view .LVU1787
	movq	56(%rsp), %rax
	movb	$0, (%rax)
	.loc 1 4625 3 is_stmt 1 view .LVU1788
.L643:
	.loc 1 4626 5 view .LVU1789
	.loc 1 4626 12 is_stmt 0 view .LVU1790
	movq	32(%rsp), %rax
	movq	%rbx, (%rax)
.L642:
	.loc 1 4628 3 is_stmt 1 view .LVU1791
	.loc 1 4628 10 is_stmt 0 view .LVU1792
	movq	48(%rsp), %rax
	movq	24(%rsp), %rsi
	movq	%rsi, (%rax)
	.loc 1 4630 3 is_stmt 1 view .LVU1793
	.loc 1 4631 1 is_stmt 0 view .LVU1794
	movq	88(%rsp), %rax
	xorq	%fs:40, %rax
	jne	.L684
	addq	$104, %rsp
	.cfi_remember_state
	.cfi_def_cfa_offset 56
	movq	%r12, %rax
	popq	%rbx
	.cfi_def_cfa_offset 48
	popq	%rbp
	.cfi_def_cfa_offset 40
	popq	%r12
	.cfi_def_cfa_offset 32
.LVL583:
	.loc 1 4631 1 view .LVU1795
	popq	%r13
	.cfi_def_cfa_offset 24
	popq	%r14
	.cfi_def_cfa_offset 16
	popq	%r15
	.cfi_def_cfa_offset 8
	ret
.LVL584:
	.p2align 4,,10
	.p2align 3
.L636:
	.cfi_restore_state
	.loc 1 4623 3 is_stmt 1 view .LVU1796
	.loc 1 4623 58 is_stmt 0 view .LVU1797
	cmpb	$0, align_variable_outer_quotes(%rip)
	jne	.L685
	.loc 1 4623 8 view .LVU1798
	movq	56(%rsp), %rax
	movb	$0, (%rax)
	.loc 1 4625 3 is_stmt 1 view .LVU1799
	jmp	.L642
.LVL585:
	.p2align 4,,10
	.p2align 3
.L680:
	.loc 1 4457 3 view .LVU1800
	.loc 1 4457 6 is_stmt 0 view .LVU1801
	testl	%r12d, %r12d
	jne	.L686
	.loc 1 4470 7 is_stmt 1 view .LVU1802
	.loc 1 4470 13 is_stmt 0 view .LVU1803
	movq	%rbp, %rdi
	call	strlen@PLT
.LVL586:
	movq	%rax, %rbx
.LVL587:
	.loc 1 4471 7 is_stmt 1 view .LVU1804
	leaq	1(%rax), %r12
.LVL588:
	.loc 1 4471 10 is_stmt 0 view .LVU1805
	cmpq	$8191, %rax
	ja	.L687
.LVL589:
.L616:
	.loc 1 4473 7 is_stmt 1 view .LVU1806
.LBB1465:
.LBI1465:
	.file 11 "/usr/include/x86_64-linux-gnu/bits/string_fortified.h"
	.loc 11 31 1 view .LVU1807
.LBB1466:
	.loc 11 34 3 view .LVU1808
	.loc 11 34 10 is_stmt 0 view .LVU1809
	movq	24(%rsp), %rdi
	movq	%r12, %rdx
	movq	%rbp, %rsi
	call	memcpy@PLT
.LVL590:
	.loc 11 34 10 view .LVU1810
.LBE1466:
.LBE1465:
	.loc 1 4475 7 is_stmt 1 view .LVU1811
	.loc 1 4484 3 view .LVU1812
	.loc 1 4475 14 is_stmt 0 view .LVU1813
	movb	$0, 47(%rsp)
.LVL591:
.L614:
	.loc 1 4486 7 is_stmt 1 view .LVU1814
	.loc 1 4486 11 is_stmt 0 view .LVU1815
	call	__ctype_get_mb_cur_max@PLT
.LVL592:
	movq	24(%rsp), %rsi
	leaq	(%rsi,%rbx), %rdi
	movq	%rdi, 16(%rsp)
	.loc 1 4486 10 view .LVU1816
	cmpq	$1, %rax
	jbe	.L617
.LBB1467:
	.loc 1 4488 11 is_stmt 1 view .LVU1817
.LVL593:
	.loc 1 4489 11 view .LVU1818
	.loc 1 4490 11 view .LVU1819
	.loc 1 4491 11 view .LVU1820
	.loc 1 4493 11 view .LVU1821
	.loc 1 4493 17 view .LVU1822
	cmpq	%rsi, %rdi
	jbe	.L653
	movq	%rsi, %r12
.LVL594:
	.loc 1 4491 27 is_stmt 0 view .LVU1823
	xorl	%ebx, %ebx
	leaq	80(%rsp), %rbp
.LVL595:
	.loc 1 4491 27 view .LVU1824
	movq	%rsi, %r13
	leaq	76(%rsp), %r15
.LVL596:
	.p2align 4,,10
	.p2align 3
.L632:
	.loc 1 4494 13 is_stmt 1 view .LVU1825
	.loc 1 4494 21 is_stmt 0 view .LVU1826
	movzbl	0(%r13), %eax
	.loc 1 4494 13 view .LVU1827
	cmpb	$95, %al
	jg	.L619
	.loc 1 4494 13 view .LVU1828
	cmpb	$64, %al
	jg	.L620
	cmpb	$35, %al
	jg	.L621
	cmpb	$31, %al
	jg	.L620
.L622:
.LBB1468:
	.loc 1 4525 21 is_stmt 1 view .LVU1829
	.loc 1 4525 31 is_stmt 0 view .LVU1830
	movq	$0, 80(%rsp)
	movq	%r13, %r14
	jmp	.L630
.LVL597:
	.p2align 4,,10
	.p2align 3
.L627:
.LBB1469:
	.loc 1 4574 29 is_stmt 1 view .LVU1831
	.loc 1 4575 34 is_stmt 0 view .LVU1832
	movb	$63, (%r12)
.LBE1469:
	.loc 1 4579 30 view .LVU1833
	movq	%rbp, %rdi
.LBB1470:
	.loc 1 4574 31 view .LVU1834
	addq	%r13, %r14
.LVL598:
	.loc 1 4575 29 is_stmt 1 view .LVU1835
	.loc 1 4576 29 view .LVU1836
	.loc 1 4576 45 is_stmt 0 view .LVU1837
	addq	$1, %rbx
.LVL599:
	.loc 1 4576 45 view .LVU1838
	movq	8(%rsp), %r12
.LVL600:
	.loc 1 4576 45 view .LVU1839
.LBE1470:
	.loc 1 4579 27 is_stmt 1 view .LVU1840
	.loc 1 4579 30 is_stmt 0 view .LVU1841
	call	mbsinit@PLT
.LVL601:
	.loc 1 4579 21 view .LVU1842
	testl	%eax, %eax
	jne	.L688
.LVL602:
.L630:
	.loc 1 4526 21 is_stmt 1 view .LVU1843
.LBB1471:
	.loc 1 4528 25 view .LVU1844
	.loc 1 4529 25 view .LVU1845
	.loc 1 4530 25 view .LVU1846
	.loc 1 4532 25 view .LVU1847
	.loc 1 4532 57 is_stmt 0 view .LVU1848
	movq	16(%rsp), %rdx
	.loc 1 4532 33 view .LVU1849
	movq	%r14, %rsi
	movq	%rbp, %rcx
	movq	%r15, %rdi
	.loc 1 4532 57 view .LVU1850
	subq	%r14, %rdx
	.loc 1 4532 33 view .LVU1851
	call	rpl_mbrtowc@PLT
.LVL603:
	.loc 1 4534 25 is_stmt 1 view .LVU1852
	leaq	1(%r12), %rsi
	movq	%rsi, 8(%rsp)
	.loc 1 4534 28 is_stmt 0 view .LVU1853
	cmpq	$-1, %rax
	je	.L689
	.loc 1 4545 25 is_stmt 1 view .LVU1854
	.loc 1 4545 28 is_stmt 0 view .LVU1855
	cmpq	$-2, %rax
	je	.L690
	.loc 1 4556 25 is_stmt 1 view .LVU1856
	.loc 1 4560 29 is_stmt 0 view .LVU1857
	movl	76(%rsp), %edi
	testq	%rax, %rax
	movl	$1, %r13d
	cmovne	%rax, %r13
.LVL604:
	.loc 1 4560 25 is_stmt 1 view .LVU1858
	.loc 1 4560 29 is_stmt 0 view .LVU1859
	call	wcwidth@PLT
.LVL605:
	.loc 1 4561 25 is_stmt 1 view .LVU1860
	.loc 1 4561 28 is_stmt 0 view .LVU1861
	testl	%eax, %eax
	js	.L627
	xorl	%edx, %edx
.LVL606:
	.p2align 4,,10
	.p2align 3
.L628:
	.loc 1 4566 31 is_stmt 1 view .LVU1862
	.loc 1 4566 38 is_stmt 0 view .LVU1863
	movzbl	(%r14,%rdx), %ecx
	.loc 1 4566 36 view .LVU1864
	movb	%cl, (%r12,%rdx)
	.loc 1 4565 47 is_stmt 1 view .LVU1865
.LVL607:
	.loc 1 4565 36 view .LVU1866
	addq	$1, %rdx
.LVL608:
	.loc 1 4565 29 is_stmt 0 view .LVU1867
	cmpq	%rdx, %r13
	jne	.L628
	.loc 1 4567 45 view .LVU1868
	cltq
	.loc 1 4567 45 view .LVU1869
.LBE1471:
	.loc 1 4579 30 view .LVU1870
	movq	%rbp, %rdi
	addq	%r13, %r14
.LVL609:
	.loc 1 4579 30 view .LVU1871
	addq	%r13, %r12
.LVL610:
.LBB1472:
	.loc 1 4567 29 is_stmt 1 view .LVU1872
	.loc 1 4567 45 is_stmt 0 view .LVU1873
	addq	%rax, %rbx
.LVL611:
	.loc 1 4567 45 view .LVU1874
.LBE1472:
	.loc 1 4579 27 is_stmt 1 view .LVU1875
	.loc 1 4579 30 is_stmt 0 view .LVU1876
	call	mbsinit@PLT
.LVL612:
	.loc 1 4579 21 view .LVU1877
	testl	%eax, %eax
	je	.L630
.L688:
	.loc 1 4579 21 view .LVU1878
	movq	%r14, %r13
	jmp	.L623
.LVL613:
	.p2align 4,,10
	.p2align 3
.L685:
	.loc 1 4579 21 view .LVU1879
.LBE1468:
.LBE1467:
	.loc 1 4447 10 view .LVU1880
	xorl	%ebx, %ebx
.LVL614:
.L644:
	.loc 1 4623 58 view .LVU1881
	movzbl	47(%rsp), %eax
	xorl	$1, %eax
	andb	cwd_some_quoted(%rip), %al
.L641:
	.loc 1 4623 8 view .LVU1882
	movq	56(%rsp), %rsi
	.loc 1 4625 6 view .LVU1883
	cmpq	$0, 32(%rsp)
	.loc 1 4623 8 view .LVU1884
	movb	%al, (%rsi)
	.loc 1 4625 3 is_stmt 1 view .LVU1885
	.loc 1 4625 6 is_stmt 0 view .LVU1886
	jne	.L643
	jmp	.L642
.LVL615:
	.p2align 4,,10
	.p2align 3
.L617:
.LBB1477:
	.loc 1 4589 11 is_stmt 1 view .LVU1887
	.loc 1 4590 11 view .LVU1888
	.loc 1 4592 11 view .LVU1889
	.loc 1 4592 17 view .LVU1890
	movq	16(%rsp), %r15
	movq	24(%rsp), %r14
	cmpq	%r14, %r15
	jbe	.L654
	.loc 1 4594 21 is_stmt 0 view .LVU1891
	call	__ctype_b_loc@PLT
.LVL616:
	movq	%r14, %rdx
	movq	%r15, %rdi
.LVL617:
	.p2align 4,,10
	.p2align 3
.L635:
	.loc 1 4594 15 is_stmt 1 view .LVU1892
.LBB1478:
.LBI1478:
	.loc 2 156 29 view .LVU1893
.LBB1479:
	.loc 2 156 50 view .LVU1894
	.loc 2 156 50 is_stmt 0 view .LVU1895
.LBE1479:
.LBE1478:
	.loc 1 4594 21 view .LVU1896
	movzbl	(%rdx), %esi
	movq	(%rax), %rcx
	.loc 1 4594 18 view .LVU1897
	testb	$64, 1(%rcx,%rsi,2)
	jne	.L634
	.loc 1 4595 17 is_stmt 1 view .LVU1898
	.loc 1 4595 20 is_stmt 0 view .LVU1899
	movb	$63, (%rdx)
.L634:
	.loc 1 4596 15 is_stmt 1 view .LVU1900
	.loc 1 4596 16 is_stmt 0 view .LVU1901
	addq	$1, %rdx
.LVL618:
	.loc 1 4592 17 is_stmt 1 view .LVU1902
	cmpq	%rdi, %rdx
	jne	.L635
.LVL619:
.L654:
	.loc 1 4592 17 is_stmt 0 view .LVU1903
	movq	%rbx, %r12
.LVL620:
.L633:
	.loc 1 4592 17 view .LVU1904
.LBE1477:
	.loc 1 4623 3 is_stmt 1 view .LVU1905
	.loc 1 4623 11 is_stmt 0 view .LVU1906
	movzbl	align_variable_outer_quotes(%rip), %eax
	.loc 1 4623 58 view .LVU1907
	testb	%al, %al
	je	.L641
	jmp	.L644
.LVL621:
	.p2align 4,,10
	.p2align 3
.L621:
.LBB1480:
	.loc 1 4494 13 view .LVU1908
	leal	-37(%rax), %edx
	cmpb	$26, %dl
	ja	.L622
.L620:
	.loc 1 4517 19 is_stmt 1 view .LVU1909
	.loc 1 4517 24 is_stmt 0 view .LVU1910
	movb	%al, (%r12)
	.loc 1 4517 28 view .LVU1911
	addq	$1, %r13
.LVL622:
	.loc 1 4518 19 is_stmt 1 view .LVU1912
	.loc 1 4518 35 is_stmt 0 view .LVU1913
	addq	$1, %rbx
.LVL623:
	.loc 1 4519 19 is_stmt 1 view .LVU1914
	.loc 1 4517 21 is_stmt 0 view .LVU1915
	addq	$1, %r12
.LVL624:
.L623:
	.loc 1 4493 17 is_stmt 1 view .LVU1916
	cmpq	%r13, 16(%rsp)
	ja	.L632
	.loc 1 4493 17 is_stmt 0 view .LVU1917
	movq	%r12, %r14
	subq	24(%rsp), %r14
	movq	%r14, %r12
.LVL625:
	.loc 1 4493 17 view .LVU1918
	jmp	.L633
.LVL626:
	.p2align 4,,10
	.p2align 3
.L619:
	.loc 1 4494 13 view .LVU1919
	leal	-97(%rax), %edx
	cmpb	$29, %dl
	jbe	.L620
	jmp	.L622
.LVL627:
	.p2align 4,,10
	.p2align 3
.L683:
	.loc 1 4494 13 view .LVU1920
.LBE1480:
	.loc 1 4604 9 is_stmt 1 view .LVU1921
	.loc 1 4604 27 is_stmt 0 view .LVU1922
	movq	24(%rsp), %rdi
	xorl	%edx, %edx
	movq	%r12, %rsi
	call	mbsnwidth@PLT
.LVL628:
	.loc 1 4604 25 view .LVU1923
	movslq	%eax, %rbx
.LVL629:
	.loc 1 4604 25 view .LVU1924
	jmp	.L638
.LVL630:
	.p2align 4,,10
	.p2align 3
.L689:
.LBB1481:
.LBB1475:
.LBB1473:
	.loc 1 4540 34 view .LVU1925
	movb	$63, (%r12)
	movq	%r14, %r13
	.loc 1 4539 29 is_stmt 1 view .LVU1926
	.loc 1 4541 45 is_stmt 0 view .LVU1927
	addq	$1, %rbx
	.loc 1 4539 30 view .LVU1928
	addq	$1, %r13
.LVL631:
	.loc 1 4540 29 is_stmt 1 view .LVU1929
	.loc 1 4541 29 view .LVU1930
	.loc 1 4542 29 view .LVU1931
.L625:
	.loc 1 4542 29 is_stmt 0 view .LVU1932
	movq	8(%rsp), %r12
	.loc 1 4542 29 view .LVU1933
.LBE1473:
.LBE1475:
	.loc 1 4581 19 is_stmt 1 view .LVU1934
	jmp	.L623
.LVL632:
	.p2align 4,,10
	.p2align 3
.L690:
.LBB1476:
.LBB1474:
	.loc 1 4550 29 view .LVU1935
	.loc 1 4551 29 view .LVU1936
	.loc 1 4551 34 is_stmt 0 view .LVU1937
	movb	$63, (%r12)
	.loc 1 4552 29 is_stmt 1 view .LVU1938
.LVL633:
	.loc 1 4553 29 is_stmt 0 view .LVU1939
	movq	16(%rsp), %r13
	.loc 1 4552 45 view .LVU1940
	addq	$1, %rbx
.LVL634:
	.loc 1 4553 29 is_stmt 1 view .LVU1941
	jmp	.L625
.LVL635:
.L687:
	.loc 1 4553 29 is_stmt 0 view .LVU1942
.LBE1474:
.LBE1476:
.LBE1481:
	.loc 1 4472 9 is_stmt 1 view .LVU1943
	.loc 1 4472 15 is_stmt 0 view .LVU1944
	movq	%r12, %rdi
	call	xmalloc@PLT
.LVL636:
	.loc 1 4472 15 view .LVU1945
	movq	%rax, 24(%rsp)
.LVL637:
	.loc 1 4472 15 view .LVU1946
	jmp	.L616
.LVL638:
.L682:
	.loc 1 4462 11 is_stmt 1 view .LVU1947
	.loc 1 4462 17 is_stmt 0 view .LVU1948
	leaq	1(%rax), %r15
	movq	%r15, %rdi
	call	xmalloc@PLT
.LVL639:
	.loc 1 4463 11 view .LVU1949
	movq	%rbx, %r8
	movq	%rbp, %rdx
	movq	%r15, %rsi
	movq	$-1, %rcx
	movq	%rax, %rdi
	.loc 1 4462 17 view .LVU1950
	movq	%rax, 24(%rsp)
.LVL640:
	.loc 1 4463 11 is_stmt 1 view .LVU1951
	call	quotearg_buffer@PLT
.LVL641:
	.loc 1 4463 11 is_stmt 0 view .LVU1952
	jmp	.L612
.LVL642:
.L655:
.LBB1482:
	.loc 1 4610 27 view .LVU1953
	xorl	%ebx, %ebx
.LVL643:
	.loc 1 4610 27 view .LVU1954
	jmp	.L638
.LVL644:
.L653:
	.loc 1 4610 27 view .LVU1955
.LBE1482:
.LBB1483:
	.loc 1 4493 17 view .LVU1956
	xorl	%r12d, %r12d
.LVL645:
	.loc 1 4491 27 view .LVU1957
	xorl	%ebx, %ebx
	.loc 1 4585 11 is_stmt 1 view .LVU1958
.LVL646:
	.loc 1 4585 11 is_stmt 0 view .LVU1959
	jmp	.L633
.LVL647:
.L684:
	.loc 1 4585 11 view .LVU1960
.LBE1483:
	.loc 1 4631 1 view .LVU1961
	call	__stack_chk_fail@PLT
.LVL648:
.L686:
	.loc 1 4453 32 view .LVU1962
	movl	$1, %r13d
	jmp	.L647
	.cfi_endproc
.LFE411:
	.size	quote_name_buf.constprop.0, .-quote_name_buf.constprop.0
	.section	.rodata.str1.1
.LC10:
	.string	"/"
.LC11:
	.string	"\033]8;;file://%s%s%s\007"
.LC12:
	.string	"\033]8;;\007"
	.text
	.p2align 4
	.type	quote_name, @function
quote_name:
.LVL649:
.LFB335:
	.loc 1 4680 1 is_stmt 1 view -0
	.cfi_startproc
	.loc 1 4680 1 is_stmt 0 view .LVU1964
	pushq	%r15
	.cfi_def_cfa_offset 16
	.cfi_offset 15, -16
	pushq	%r14
	.cfi_def_cfa_offset 24
	.cfi_offset 14, -24
	pushq	%r13
	.cfi_def_cfa_offset 32
	.cfi_offset 13, -32
	pushq	%r12
	.cfi_def_cfa_offset 40
	.cfi_offset 12, -40
	pushq	%rbp
	.cfi_def_cfa_offset 48
	.cfi_offset 6, -48
	pushq	%rbx
	.cfi_def_cfa_offset 56
	.cfi_offset 3, -56
	subq	$4096, %rsp
	.cfi_def_cfa_offset 4152
	orq	$0, (%rsp)
	subq	$4096, %rsp
	.cfi_def_cfa_offset 8248
	orq	$0, (%rsp)
	subq	$72, %rsp
	.cfi_def_cfa_offset 8320
	.loc 1 4680 1 view .LVU1965
	movq	8320(%rsp), %r14
	movq	%rdi, %r13
	movq	%rcx, %r12
	movl	%r8d, %r15d
	.loc 1 4686 9 view .LVU1966
	movl	%edx, %ecx
.LVL650:
	.loc 1 4680 1 view .LVU1967
	movq	%fs:40, %rax
	movq	%rax, 8248(%rsp)
	xorl	%eax, %eax
	.loc 1 4681 3 is_stmt 1 view .LVU1968
	.loc 1 4682 3 view .LVU1969
	.loc 1 4686 9 is_stmt 0 view .LVU1970
	xorl	%r8d, %r8d
.LVL651:
	.loc 1 4682 9 view .LVU1971
	leaq	48(%rsp), %rax
	.loc 1 4686 9 view .LVU1972
	movq	%rsi, %rdx
.LVL652:
	.loc 1 4680 1 view .LVU1973
	movq	%r9, %rbx
	.loc 1 4686 9 view .LVU1974
	leaq	40(%rsp), %rdi
.LVL653:
	.loc 1 4686 9 view .LVU1975
	leaq	39(%rsp), %r9
.LVL654:
	.loc 1 4686 9 view .LVU1976
	movq	%r13, %rsi
.LVL655:
	.loc 1 4682 9 view .LVU1977
	movq	%rax, (%rsp)
	movq	%rax, 40(%rsp)
	.loc 1 4683 3 is_stmt 1 view .LVU1978
	.loc 1 4684 3 view .LVU1979
	.loc 1 4686 3 view .LVU1980
	.loc 1 4686 9 is_stmt 0 view .LVU1981
	call	quote_name_buf.constprop.0
.LVL656:
	.loc 1 4689 11 view .LVU1982
	cmpb	$0, 39(%rsp)
	.loc 1 4686 9 view .LVU1983
	movq	%rax, %rbp
.LVL657:
	.loc 1 4689 3 is_stmt 1 view .LVU1984
	.loc 1 4689 11 is_stmt 0 view .LVU1985
	je	.L692
	testb	%r15b, %r15b
	jne	.L735
.LVL658:
.L692:
	.loc 1 4690 7 is_stmt 1 discriminator 1 view .LVU1986
	.loc 1 4692 3 discriminator 1 view .LVU1987
	.loc 1 4692 6 is_stmt 0 discriminator 1 view .LVU1988
	testq	%r12, %r12
	je	.L695
	.loc 1 4693 5 is_stmt 1 view .LVU1989
.LVL659:
.LBB1506:
.LBI1506:
	.loc 1 4867 1 view .LVU1990
.LBB1507:
	.loc 1 4869 3 view .LVU1991
	.loc 1 4872 7 view .LVU1992
	.loc 1 4872 11 is_stmt 0 view .LVU1993
	movl	$4, %edi
	call	is_colored
.LVL660:
	.loc 1 4872 10 view .LVU1994
	testb	%al, %al
	jne	.L736
.L696:
	.loc 1 4874 7 is_stmt 1 view .LVU1995
	leaq	8+color_indicator(%rip), %rsi
	leaq	-8(%rsi), %rdi
	call	put_indicator.isra.0
.LVL661:
	.loc 1 4875 7 view .LVU1996
	leaq	8(%r12), %rsi
	movq	%r12, %rdi
	call	put_indicator.isra.0
.LVL662:
	.loc 1 4876 7 view .LVU1997
	leaq	24+color_indicator(%rip), %rsi
	leaq	-8(%rsi), %rdi
	call	put_indicator.isra.0
.LVL663:
	.loc 1 4879 3 view .LVU1998
.L695:
	.loc 1 4879 3 is_stmt 0 view .LVU1999
.LBE1507:
.LBE1506:
	.loc 1 4697 3 is_stmt 1 view .LVU2000
	.loc 1 4699 3 view .LVU2001
	.loc 1 4699 6 is_stmt 0 view .LVU2002
	testq	%r14, %r14
	je	.L713
.LBB1509:
	.loc 1 4701 7 is_stmt 1 view .LVU2003
	.loc 1 4701 11 is_stmt 0 view .LVU2004
	movzbl	align_variable_outer_quotes(%rip), %r12d
.LVL664:
	.loc 1 4701 10 view .LVU2005
	testb	%r12b, %r12b
	jne	.L737
.L715:
	movq	%rbp, %r10
	xorl	%r9d, %r9d
.LVL665:
.L698:
	.loc 1 4706 17 view .LVU2006
	movq	hostname(%rip), %rdi
	xorl	%esi, %esi
	movq	%r10, 24(%rsp)
	movq	%r9, 16(%rsp)
.LVL666:
	.loc 1 4706 7 is_stmt 1 view .LVU2007
	.loc 1 4706 17 is_stmt 0 view .LVU2008
	call	file_escape
.LVL667:
	.loc 1 4707 17 view .LVU2009
	movl	$1, %esi
	movq	%r14, %rdi
	.loc 1 4706 17 view .LVU2010
	movq	%rax, %r15
.LVL668:
	.loc 1 4707 7 is_stmt 1 view .LVU2011
	.loc 1 4707 17 is_stmt 0 view .LVU2012
	call	file_escape
.LVL669:
	.loc 1 4713 7 view .LVU2013
	leaq	.LC1(%rip), %rcx
.LBB1510:
.LBB1511:
	.loc 3 107 10 view .LVU2014
	movq	%r15, %rdx
	leaq	.LC11(%rip), %rsi
.LBE1511:
.LBE1510:
	.loc 1 4713 7 view .LVU2015
	cmpb	$47, (%rax)
	.loc 1 4707 17 view .LVU2016
	movq	%rax, %r8
.LVL670:
	.loc 1 4713 7 is_stmt 1 view .LVU2017
	leaq	.LC10(%rip), %rax
.LVL671:
.LBB1514:
.LBB1512:
	.loc 3 107 10 is_stmt 0 view .LVU2018
	movl	$1, %edi
.LBE1512:
.LBE1514:
	.loc 1 4713 7 view .LVU2019
	cmovne	%rax, %rcx
.LVL672:
.LBB1515:
.LBI1510:
	.loc 3 105 1 is_stmt 1 view .LVU2020
.LBB1513:
	.loc 3 107 3 view .LVU2021
	.loc 3 107 10 is_stmt 0 view .LVU2022
	xorl	%eax, %eax
	movq	%r8, 8(%rsp)
	call	__printf_chk@PLT
.LVL673:
	.loc 3 107 10 view .LVU2023
.LBE1513:
.LBE1515:
	.loc 1 4714 7 is_stmt 1 view .LVU2024
	movq	%r15, %rdi
	call	free@PLT
.LVL674:
	.loc 1 4715 7 view .LVU2025
	movq	8(%rsp), %r8
	movq	%r8, %rdi
	call	free@PLT
.LVL675:
	movq	16(%rsp), %r9
	movq	24(%rsp), %r10
	.loc 1 4715 7 is_stmt 0 view .LVU2026
.LBE1509:
	.loc 1 4718 3 is_stmt 1 view .LVU2027
	.loc 1 4718 6 is_stmt 0 view .LVU2028
	testq	%rbx, %rbx
	je	.L701
.LVL676:
.L744:
	.loc 1 4719 5 is_stmt 1 view .LVU2029
	.loc 1 4719 5 view .LVU2030
	cmpb	$0, dired(%rip)
	je	.L702
	.loc 1 4719 5 discriminator 1 view .LVU2031
.LBB1522:
	.loc 1 4719 5 discriminator 1 view .LVU2032
.LVL677:
	.loc 1 4719 5 discriminator 1 view .LVU2033
	.loc 1 4719 5 discriminator 1 view .LVU2034
.LBB1523:
	.loc 1 4719 5 discriminator 1 view .LVU2035
	.loc 1 4719 5 discriminator 1 view .LVU2036
	movq	24(%rbx), %rdx
	movq	32(%rbx), %rax
	subq	%rdx, %rax
.LBE1523:
	cmpq	$7, %rax
	jbe	.L738
.L703:
	.loc 1 4719 5 discriminator 5 view .LVU2037
.LVL678:
.LBB1524:
.LBI1524:
	.loc 11 31 1 discriminator 5 view .LVU2038
.LBB1525:
	.loc 11 34 3 discriminator 5 view .LVU2039
	movq	dired_pos(%rip), %rax
	.loc 11 34 10 is_stmt 0 discriminator 5 view .LVU2040
	movq	%rax, (%rdx)
.LVL679:
	.loc 11 34 10 discriminator 5 view .LVU2041
.LBE1525:
.LBE1524:
	.loc 1 4719 5 is_stmt 1 discriminator 5 view .LVU2042
	addq	$8, 24(%rbx)
.LVL680:
.L702:
	.loc 1 4719 5 view .LVU2043
.LBE1522:
	.loc 1 4719 5 view .LVU2044
	.loc 1 4721 3 view .LVU2045
	movq	40(%rsp), %rdi
	movq	stdout(%rip), %rcx
	movq	%r10, %rdx
	movl	$1, %esi
	addq	%r9, %rdi
	call	fwrite_unlocked@PLT
.LVL681:
	.loc 1 4723 3 view .LVU2046
	.loc 1 4723 13 is_stmt 0 view .LVU2047
	movq	dired_pos(%rip), %rax
	addq	%rbp, %rax
	.loc 1 4726 5 view .LVU2048
	cmpb	$0, dired(%rip)
	.loc 1 4723 13 view .LVU2049
	movq	%rax, dired_pos(%rip)
	.loc 1 4725 3 is_stmt 1 view .LVU2050
	.loc 1 4726 5 view .LVU2051
	.loc 1 4726 5 view .LVU2052
	je	.L710
	.loc 1 4726 5 discriminator 1 view .LVU2053
.LBB1526:
	.loc 1 4726 5 discriminator 1 view .LVU2054
.LVL682:
	.loc 1 4726 5 discriminator 1 view .LVU2055
	.loc 1 4726 5 discriminator 1 view .LVU2056
.LBB1527:
	.loc 1 4726 5 discriminator 1 view .LVU2057
	.loc 1 4726 5 discriminator 1 view .LVU2058
	movq	24(%rbx), %rcx
	movq	32(%rbx), %rdx
	subq	%rcx, %rdx
.LBE1527:
	cmpq	$7, %rdx
	jbe	.L739
.L704:
	.loc 1 4726 5 discriminator 5 view .LVU2059
.LVL683:
.LBB1528:
.LBI1528:
	.loc 11 31 1 discriminator 5 view .LVU2060
.LBB1529:
	.loc 11 34 3 discriminator 5 view .LVU2061
	.loc 11 34 10 is_stmt 0 discriminator 5 view .LVU2062
	movq	%rax, (%rcx)
.LVL684:
	.loc 11 34 10 discriminator 5 view .LVU2063
.LBE1529:
.LBE1528:
	.loc 1 4726 5 is_stmt 1 discriminator 5 view .LVU2064
	addq	$8, 24(%rbx)
.LVL685:
.L710:
	.loc 1 4726 5 discriminator 6 view .LVU2065
.LBE1526:
	.loc 1 4726 5 discriminator 6 view .LVU2066
	.loc 1 4728 3 discriminator 6 view .LVU2067
	.loc 1 4728 6 is_stmt 0 discriminator 6 view .LVU2068
	testq	%r14, %r14
	je	.L706
	.loc 1 4730 7 is_stmt 1 view .LVU2069
	movq	stdout(%rip), %rcx
	movl	$6, %edx
	movl	$1, %esi
	leaq	.LC12(%rip), %rdi
	call	fwrite_unlocked@PLT
.LVL686:
	.loc 1 4731 7 view .LVU2070
	.loc 1 4731 10 is_stmt 0 view .LVU2071
	testb	%r12b, %r12b
	je	.L706
	.loc 1 4732 9 is_stmt 1 view .LVU2072
	movq	40(%rsp), %rax
.LBB1530:
.LBB1531:
	.loc 8 110 10 is_stmt 0 view .LVU2073
	movq	stdout(%rip), %rdi
.LBE1531:
.LBE1530:
	.loc 1 4732 9 view .LVU2074
	movzbl	-1(%rax,%rbp), %edx
.LVL687:
.LBB1534:
.LBI1530:
	.loc 8 108 1 is_stmt 1 view .LVU2075
.LBB1532:
	.loc 8 110 3 view .LVU2076
	.loc 8 110 10 is_stmt 0 view .LVU2077
	movq	40(%rdi), %rax
	cmpq	48(%rdi), %rax
	jnb	.L740
	leaq	1(%rax), %rcx
	movq	%rcx, 40(%rdi)
	movb	%dl, (%rax)
.LVL688:
.L706:
	.loc 8 110 10 view .LVU2078
.LBE1532:
.LBE1534:
	.loc 1 4735 3 is_stmt 1 view .LVU2079
	.loc 1 4735 11 is_stmt 0 view .LVU2080
	movq	40(%rsp), %rdi
	.loc 1 4735 23 view .LVU2081
	cmpq	%r13, %rdi
	je	.L709
	cmpq	(%rsp), %rdi
	je	.L709
	.loc 1 4736 5 is_stmt 1 view .LVU2082
	call	free@PLT
.LVL689:
.L709:
	.loc 1 4738 3 view .LVU2083
	.loc 1 4738 14 is_stmt 0 view .LVU2084
	movzbl	39(%rsp), %eax
	addq	%rbp, %rax
	.loc 1 4739 1 view .LVU2085
	movq	8248(%rsp), %rbx
	xorq	%fs:40, %rbx
.LVL690:
	.loc 1 4739 1 view .LVU2086
	jne	.L741
	addq	$8264, %rsp
	.cfi_remember_state
	.cfi_def_cfa_offset 56
	popq	%rbx
	.cfi_def_cfa_offset 48
	popq	%rbp
	.cfi_def_cfa_offset 40
.LVL691:
	.loc 1 4739 1 view .LVU2087
	popq	%r12
	.cfi_def_cfa_offset 32
.LVL692:
	.loc 1 4739 1 view .LVU2088
	popq	%r13
	.cfi_def_cfa_offset 24
.LVL693:
	.loc 1 4739 1 view .LVU2089
	popq	%r14
	.cfi_def_cfa_offset 16
	popq	%r15
	.cfi_def_cfa_offset 8
	ret
.LVL694:
	.p2align 4,,10
	.p2align 3
.L737:
	.cfi_restore_state
.LBB1535:
	.loc 1 4701 39 discriminator 1 view .LVU2090
	movzbl	cwd_some_quoted(%rip), %r12d
	testb	%r12b, %r12b
	je	.L715
	.loc 1 4701 58 discriminator 2 view .LVU2091
	cmpb	$0, 39(%rsp)
	jne	.L716
	.loc 1 4703 11 is_stmt 1 view .LVU2092
.LVL695:
	.loc 1 4704 11 view .LVU2093
	movq	40(%rsp), %rax
.LBB1516:
.LBB1517:
	.loc 8 110 10 is_stmt 0 view .LVU2094
	movq	stdout(%rip), %rdi
	leaq	-2(%rbp), %r10
.LBE1517:
.LBE1516:
	.loc 1 4704 11 view .LVU2095
	movzbl	(%rax), %edx
.LVL696:
.LBB1520:
.LBI1516:
	.loc 8 108 1 is_stmt 1 view .LVU2096
.LBB1518:
	.loc 8 110 3 view .LVU2097
	.loc 8 110 10 is_stmt 0 view .LVU2098
	movq	40(%rdi), %rax
	cmpq	48(%rdi), %rax
	jnb	.L742
	leaq	1(%rax), %rcx
	movl	$1, %r9d
	movq	%rcx, 40(%rdi)
	movb	%dl, (%rax)
	jmp	.L698
.LVL697:
	.p2align 4,,10
	.p2align 3
.L735:
	.loc 8 110 10 view .LVU2099
.LBE1518:
.LBE1520:
.LBE1535:
	.loc 1 4690 7 is_stmt 1 view .LVU2100
	.loc 1 4690 7 view .LVU2101
.LBB1536:
.LBI1536:
	.loc 8 108 1 view .LVU2102
.LBB1537:
	.loc 8 110 3 view .LVU2103
	.loc 8 110 10 is_stmt 0 view .LVU2104
	movq	stdout(%rip), %rdi
	movq	40(%rdi), %rax
.LVL698:
	.loc 8 110 10 view .LVU2105
	cmpq	48(%rdi), %rax
	jnb	.L743
	leaq	1(%rax), %rdx
	movq	%rdx, 40(%rdi)
	movb	$32, (%rax)
.L694:
.LVL699:
	.loc 8 110 10 view .LVU2106
.LBE1537:
.LBE1536:
	.loc 1 4690 7 is_stmt 1 view .LVU2107
	addq	$1, dired_pos(%rip)
	jmp	.L692
.LVL700:
	.p2align 4,,10
	.p2align 3
.L713:
	.loc 1 4690 7 is_stmt 0 view .LVU2108
	movq	%rbp, %r10
	xorl	%r9d, %r9d
	.loc 1 4697 8 view .LVU2109
	xorl	%r12d, %r12d
.LVL701:
	.loc 1 4718 3 is_stmt 1 view .LVU2110
	.loc 1 4718 6 is_stmt 0 view .LVU2111
	testq	%rbx, %rbx
	jne	.L744
.L701:
.LBB1539:
	.loc 1 4719 5 is_stmt 1 view .LVU2112
.LBE1539:
	.loc 1 4719 5 view .LVU2113
	.loc 1 4721 3 view .LVU2114
	movq	40(%rsp), %rdi
	movq	stdout(%rip), %rcx
	movq	%r10, %rdx
	movl	$1, %esi
	addq	%r9, %rdi
	call	fwrite_unlocked@PLT
.LVL702:
	.loc 1 4723 3 view .LVU2115
	.loc 1 4723 13 is_stmt 0 view .LVU2116
	addq	%rbp, dired_pos(%rip)
	.loc 1 4725 3 is_stmt 1 view .LVU2117
	jmp	.L710
.LVL703:
	.p2align 4,,10
	.p2align 3
.L736:
.LBB1540:
.LBB1508:
	.loc 1 4873 9 view .LVU2118
	call	restore_default_color
.LVL704:
	jmp	.L696
.LVL705:
	.p2align 4,,10
	.p2align 3
.L738:
	.loc 1 4873 9 is_stmt 0 view .LVU2119
.LBE1508:
.LBE1540:
.LBB1541:
	.loc 1 4719 5 discriminator 3 view .LVU2120
	movl	$8, %esi
	movq	%rbx, %rdi
	movq	%r10, 16(%rsp)
	movq	%r9, 8(%rsp)
	.loc 1 4719 5 is_stmt 1 discriminator 3 view .LVU2121
	call	_obstack_newchunk@PLT
.LVL706:
	movq	24(%rbx), %rdx
	movq	16(%rsp), %r10
	movq	8(%rsp), %r9
	jmp	.L703
.LVL707:
	.p2align 4,,10
	.p2align 3
.L739:
	.loc 1 4719 5 is_stmt 0 discriminator 3 view .LVU2122
.LBE1541:
.LBB1542:
	.loc 1 4726 5 is_stmt 1 discriminator 3 view .LVU2123
	movl	$8, %esi
	movq	%rbx, %rdi
	call	_obstack_newchunk@PLT
.LVL708:
	movq	24(%rbx), %rcx
	movq	dired_pos(%rip), %rax
	jmp	.L704
.LVL709:
	.p2align 4,,10
	.p2align 3
.L716:
	.loc 1 4726 5 is_stmt 0 discriminator 3 view .LVU2124
.LBE1542:
.LBB1543:
	movq	%rbp, %r10
	xorl	%r9d, %r9d
.LBE1543:
	.loc 1 4697 8 view .LVU2125
	xorl	%r12d, %r12d
	jmp	.L698
.LVL710:
	.p2align 4,,10
	.p2align 3
.L740:
.LBB1544:
.LBB1533:
	.loc 8 110 10 view .LVU2126
	movzbl	%dl, %esi
	call	__overflow@PLT
.LVL711:
	.loc 8 110 10 view .LVU2127
	jmp	.L706
.LVL712:
	.p2align 4,,10
	.p2align 3
.L743:
	.loc 8 110 10 view .LVU2128
.LBE1533:
.LBE1544:
.LBB1545:
.LBB1538:
	movl	$32, %esi
	call	__overflow@PLT
.LVL713:
	jmp	.L694
.LVL714:
.L742:
	.loc 8 110 10 view .LVU2129
.LBE1538:
.LBE1545:
.LBB1546:
.LBB1521:
.LBB1519:
	movzbl	%dl, %esi
	movq	%r10, 8(%rsp)
	call	__overflow@PLT
.LVL715:
	.loc 8 110 10 view .LVU2130
	movq	8(%rsp), %r10
	movl	$1, %r9d
	jmp	.L698
.LVL716:
.L741:
	.loc 8 110 10 view .LVU2131
.LBE1519:
.LBE1521:
.LBE1546:
	.loc 1 4739 1 view .LVU2132
	call	__stack_chk_fail@PLT
.LVL717:
	.cfi_endproc
.LFE335:
	.size	quote_name, .-quote_name
	.p2align 4
	.type	print_name_with_quoting, @function
print_name_with_quoting:
.LVL718:
.LFB336:
	.loc 1 4746 1 is_stmt 1 view -0
	.cfi_startproc
	.loc 1 4747 3 view .LVU2134
	.loc 1 4746 1 is_stmt 0 view .LVU2135
	pushq	%r15
	.cfi_def_cfa_offset 16
	.cfi_offset 15, -16
	movq	%rdx, %r15
	pushq	%r14
	.cfi_def_cfa_offset 24
	.cfi_offset 14, -24
	movl	%esi, %r14d
	pushq	%r13
	.cfi_def_cfa_offset 32
	.cfi_offset 13, -32
	pushq	%r12
	.cfi_def_cfa_offset 40
	.cfi_offset 12, -40
	movq	%rdi, %r12
	pushq	%rbp
	.cfi_def_cfa_offset 48
	.cfi_offset 6, -48
	movq	%rcx, %rbp
	pushq	%rbx
	.cfi_def_cfa_offset 56
	.cfi_offset 3, -56
	subq	$24, %rsp
	.cfi_def_cfa_offset 80
	movzbl	print_with_color(%rip), %eax
	.loc 1 4747 15 view .LVU2136
	testb	%sil, %sil
	je	.L746
	.loc 1 4747 15 discriminator 1 view .LVU2137
	movq	8(%rdi), %r13
.LVL719:
	.loc 1 4749 3 is_stmt 1 discriminator 1 view .LVU2138
	.loc 1 4750 73 is_stmt 0 discriminator 1 view .LVU2139
	testb	%al, %al
	jne	.L747
.LVL720:
.L748:
	.loc 1 4755 3 is_stmt 1 view .LVU2140
	.loc 1 4755 16 is_stmt 0 view .LVU2141
	subq	$8, %rsp
	.cfi_def_cfa_offset 88
	movq	filename_quoting_options(%rip), %rsi
	xorl	%ecx, %ecx
	movq	%r15, %r9
	movl	196(%r12), %edx
	pushq	16(%r12)
	.cfi_def_cfa_offset 96
	.loc 1 4756 28 view .LVU2142
	xorl	$1, %r14d
	.loc 1 4755 16 view .LVU2143
	movq	%r13, %rdi
	movzbl	%r14b, %r8d
	call	quote_name
.LVL721:
	movq	%rax, %r12
.LVL722:
	.loc 1 4758 3 is_stmt 1 view .LVU2144
	call	process_signals
.LVL723:
	.loc 1 4759 3 view .LVU2145
	.loc 1 4758 3 is_stmt 0 view .LVU2146
	popq	%rcx
	.cfi_def_cfa_offset 88
	popq	%rsi
	.cfi_def_cfa_offset 80
.LVL724:
.L745:
	.loc 1 4775 1 view .LVU2147
	addq	$24, %rsp
	.cfi_remember_state
	.cfi_def_cfa_offset 56
	movq	%r12, %rax
	popq	%rbx
	.cfi_def_cfa_offset 48
	popq	%rbp
	.cfi_def_cfa_offset 40
.LVL725:
	.loc 1 4775 1 view .LVU2148
	popq	%r12
	.cfi_def_cfa_offset 32
.LVL726:
	.loc 1 4775 1 view .LVU2149
	popq	%r13
	.cfi_def_cfa_offset 24
.LVL727:
	.loc 1 4775 1 view .LVU2150
	popq	%r14
	.cfi_def_cfa_offset 16
	popq	%r15
	.cfi_def_cfa_offset 8
.LVL728:
	.loc 1 4775 1 view .LVU2151
	ret
.LVL729:
	.p2align 4,,10
	.p2align 3
.L747:
	.cfi_restore_state
.LBB1550:
.LBI1550:
	.loc 1 4884 1 is_stmt 1 view .LVU2152
.LBB1551:
	.loc 1 4886 3 view .LVU2153
	.loc 1 4887 3 view .LVU2154
	.loc 1 4888 3 view .LVU2155
	.loc 1 4890 3 view .LVU2156
	.loc 1 4891 3 view .LVU2157
	.loc 1 4892 3 view .LVU2158
	.loc 1 4893 3 view .LVU2159
	.loc 1 4895 7 view .LVU2160
	.loc 1 4896 7 view .LVU2161
	.loc 1 4897 30 is_stmt 0 view .LVU2162
	cmpb	$0, 185(%rdi)
	.loc 1 4896 12 view .LVU2163
	movl	172(%rdi), %esi
.LVL730:
	.loc 1 4897 7 is_stmt 1 view .LVU2164
	.loc 1 4897 30 is_stmt 0 view .LVU2165
	jne	.L797
.LVL731:
	.loc 1 4908 3 is_stmt 1 view .LVU2166
	.loc 1 4908 23 is_stmt 0 view .LVU2167
	movl	$12, %edi
.LVL732:
	.loc 1 4908 23 view .LVU2168
	call	is_colored
.LVL733:
	.loc 1 4908 23 view .LVU2169
	movl	$-1, %edx
	.loc 1 4908 20 view .LVU2170
	testb	%al, %al
	je	.L751
	movl	$192, %ecx
.LVL734:
	.loc 1 4908 20 view .LVU2171
	jmp	.L750
.LVL735:
	.p2align 4,,10
	.p2align 3
.L746:
	.loc 1 4908 20 view .LVU2172
.LBE1551:
.LBE1550:
	.loc 1 4747 15 discriminator 2 view .LVU2173
	movq	(%rdi), %r13
.LVL736:
	.loc 1 4749 3 is_stmt 1 discriminator 2 view .LVU2174
	.loc 1 4750 73 is_stmt 0 discriminator 2 view .LVU2175
	testb	%al, %al
	je	.L748
.LVL737:
.LBB1555:
	.loc 1 4884 1 is_stmt 1 view .LVU2176
.LBB1553:
	.loc 1 4886 3 view .LVU2177
	.loc 1 4887 3 view .LVU2178
	.loc 1 4888 3 view .LVU2179
	.loc 1 4890 3 view .LVU2180
	.loc 1 4891 3 view .LVU2181
	.loc 1 4892 3 view .LVU2182
	.loc 1 4893 3 view .LVU2183
	.loc 1 4901 7 view .LVU2184
	.loc 1 4902 7 view .LVU2185
	.loc 1 4902 14 is_stmt 0 view .LVU2186
	cmpb	$0, color_symlink_as_referent(%rip)
	movzbl	185(%rdi), %edx
.LVL738:
	.loc 1 4902 14 view .LVU2187
	jne	.L777
.L752:
	.loc 1 4902 14 view .LVU2188
	movl	48(%r12), %esi
.LVL739:
	.loc 1 4903 7 is_stmt 1 view .LVU2189
	.loc 1 4908 3 view .LVU2190
.L751:
	.loc 1 4910 8 view .LVU2191
	.loc 1 4910 14 is_stmt 0 view .LVU2192
	movzbl	184(%r12), %ecx
.LVL740:
	.loc 1 4910 11 view .LVU2193
	testb	%cl, %cl
	jne	.L754
.L832:
.LBB1552:
	.loc 1 4912 7 is_stmt 1 view .LVU2194
	.loc 1 4913 7 view .LVU2195
	.loc 1 4913 12 is_stmt 0 view .LVU2196
	movl	168(%r12), %ecx
	leaq	filetype_indicator.11823(%rip), %rax
	movl	(%rax,%rcx,4), %eax
.LVL741:
	.loc 1 4913 12 view .LVU2197
.LBE1552:
	.loc 1 4964 3 is_stmt 1 view .LVU2198
	.loc 1 4965 3 view .LVU2199
	cmpl	$7, %eax
	sete	%cl
	.loc 1 4965 6 is_stmt 0 view .LVU2200
	cmpl	$5, %eax
	je	.L755
.LVL742:
.L765:
	.loc 1 4981 3 is_stmt 1 view .LVU2201
	.loc 1 4981 6 is_stmt 0 view .LVU2202
	testl	%edx, %edx
	jne	.L798
	testb	%cl, %cl
	je	.L798
	.loc 1 4983 7 is_stmt 1 view .LVU2203
	.loc 1 4983 10 is_stmt 0 view .LVU2204
	cmpb	$0, color_symlink_as_referent(%rip)
	movl	$208, %ecx
	jne	.L750
	.loc 1 4983 40 view .LVU2205
	movl	$13, %edi
	call	is_colored
.LVL743:
	.loc 1 4983 37 view .LVU2206
	cmpb	$1, %al
	sbbq	%rcx, %rcx
	andq	$-96, %rcx
	addq	$208, %rcx
.LVL744:
.L750:
	.loc 1 4987 31 view .LVU2207
	leaq	color_indicator(%rip), %rbx
	addq	%rbx, %rcx
.L769:
.LVL745:
	.loc 1 4990 3 is_stmt 1 view .LVU2208
	.loc 1 4990 24 is_stmt 0 view .LVU2209
	cmpq	$0, 8(%rcx)
	jne	.L770
.LVL746:
	.loc 1 4990 24 view .LVU2210
.LBE1553:
.LBE1555:
	.loc 1 4752 3 is_stmt 1 discriminator 4 view .LVU2211
	.loc 1 4753 45 is_stmt 0 discriminator 4 view .LVU2212
	movl	$4, %edi
	call	is_colored
.LVL747:
	.loc 1 4753 42 discriminator 4 view .LVU2213
	testb	%al, %al
	je	.L748
	xorl	%ecx, %ecx
.LVL748:
.L770:
	.loc 1 4755 3 is_stmt 1 view .LVU2214
	.loc 1 4755 16 is_stmt 0 view .LVU2215
	subq	$8, %rsp
	.cfi_def_cfa_offset 88
	.loc 1 4756 28 view .LVU2216
	xorl	$1, %r14d
	.loc 1 4755 16 view .LVU2217
	movq	%r15, %r9
	movq	%r13, %rdi
	movl	196(%r12), %edx
	pushq	16(%r12)
	.cfi_def_cfa_offset 96
	movzbl	%r14b, %r8d
	movq	filename_quoting_options(%rip), %rsi
	call	quote_name
.LVL749:
	movq	%rax, %r12
.LVL750:
	.loc 1 4758 3 is_stmt 1 view .LVU2218
	call	process_signals
.LVL751:
	.loc 1 4759 3 view .LVU2219
	.loc 1 4761 7 view .LVU2220
	call	prep_non_filename_text
.LVL752:
	.loc 1 4769 7 view .LVU2221
	.loc 1 4769 11 is_stmt 0 view .LVU2222
	movq	line_length(%rip), %rcx
	.loc 1 4769 10 view .LVU2223
	popq	%rax
	.cfi_def_cfa_offset 88
	popq	%rdx
	.cfi_def_cfa_offset 80
	testq	%rcx, %rcx
	je	.L745
	.loc 1 4770 25 view .LVU2224
	movq	%rbp, %rax
	xorl	%edx, %edx
	divq	%rcx
	.loc 1 4770 64 view .LVU2225
	xorl	%edx, %edx
	.loc 1 4770 25 view .LVU2226
	movq	%rax, %rsi
	.loc 1 4770 59 view .LVU2227
	leaq	-1(%r12,%rbp), %rax
	.loc 1 4770 64 view .LVU2228
	divq	%rcx
	.loc 1 4770 11 view .LVU2229
	cmpq	%rax, %rsi
	je	.L745
	.loc 1 4771 9 is_stmt 1 view .LVU2230
	leaq	376+color_indicator(%rip), %rsi
	leaq	-8(%rsi), %rdi
	call	put_indicator.isra.0
.LVL753:
	.loc 1 4774 3 view .LVU2231
	.loc 1 4774 10 is_stmt 0 view .LVU2232
	jmp	.L745
.LVL754:
	.p2align 4,,10
	.p2align 3
.L797:
.LBB1556:
.LBB1554:
	.loc 1 4910 14 view .LVU2233
	movzbl	184(%r12), %ecx
.LVL755:
	.loc 1 4897 30 view .LVU2234
	xorl	%edx, %edx
.LVL756:
	.loc 1 4910 8 is_stmt 1 view .LVU2235
	.loc 1 4910 11 is_stmt 0 view .LVU2236
	testb	%cl, %cl
	je	.L832
.LVL757:
.L754:
	.loc 1 4917 7 is_stmt 1 view .LVU2237
	.loc 1 4917 11 is_stmt 0 view .LVU2238
	movl	%esi, %eax
	andl	$61440, %eax
	.loc 1 4917 10 view .LVU2239
	cmpl	$32768, %eax
	je	.L833
	.loc 1 4932 12 is_stmt 1 view .LVU2240
	.loc 1 4932 15 is_stmt 0 view .LVU2241
	cmpl	$16384, %eax
	je	.L834
	.loc 1 4944 12 is_stmt 1 view .LVU2242
	.loc 1 4944 15 is_stmt 0 view .LVU2243
	cmpl	$40960, %eax
	je	.L788
	.loc 1 4946 12 is_stmt 1 view .LVU2244
	movl	$128, %ecx
	.loc 1 4946 15 is_stmt 0 view .LVU2245
	cmpl	$4096, %eax
	je	.L750
	.loc 1 4948 12 is_stmt 1 view .LVU2246
	movl	$144, %ecx
	.loc 1 4948 15 is_stmt 0 view .LVU2247
	cmpl	$49152, %eax
	je	.L750
	.loc 1 4950 12 is_stmt 1 view .LVU2248
	movl	$160, %ecx
	.loc 1 4950 15 is_stmt 0 view .LVU2249
	cmpl	$24576, %eax
	je	.L750
	.loc 1 4952 12 is_stmt 1 view .LVU2250
	.loc 1 4952 15 is_stmt 0 view .LVU2251
	cmpl	$8192, %eax
	movl	$176, %ecx
	movl	$208, %ebx
	cmovne	%rbx, %rcx
	jmp	.L750
.LVL758:
	.p2align 4,,10
	.p2align 3
.L777:
	.loc 1 4902 14 view .LVU2252
	testb	%dl, %dl
	je	.L752
	movl	172(%r12), %esi
.LVL759:
	.loc 1 4902 14 view .LVU2253
	jmp	.L751
.LVL760:
	.p2align 4,,10
	.p2align 3
.L755:
	.loc 1 4969 7 is_stmt 1 view .LVU2254
	.loc 1 4969 13 is_stmt 0 view .LVU2255
	movq	%r13, %rdi
	call	strlen@PLT
.LVL761:
	.loc 1 4971 16 view .LVU2256
	movq	color_ext_list(%rip), %rbx
	.loc 1 4969 13 view .LVU2257
	movq	%rax, %rcx
.LVL762:
	.loc 1 4970 7 is_stmt 1 view .LVU2258
	.loc 1 4971 7 view .LVU2259
	.loc 1 4971 34 view .LVU2260
	.loc 1 4971 7 is_stmt 0 view .LVU2261
	testq	%rbx, %rbx
	je	.L793
.LVL763:
	.p2align 4,,10
	.p2align 3
.L768:
	.loc 1 4973 11 is_stmt 1 view .LVU2262
	.loc 1 4973 23 is_stmt 0 view .LVU2263
	movq	(%rbx), %rdx
	.loc 1 4973 14 view .LVU2264
	cmpq	%rdx, %rcx
	jb	.L766
	.loc 1 4974 18 view .LVU2265
	movq	%rcx, %rdi
	movq	8(%rbx), %rsi
	movq	%rcx, 8(%rsp)
	subq	%rdx, %rdi
	addq	%r13, %rdi
	call	c_strncasecmp@PLT
.LVL764:
	.loc 1 4974 15 view .LVU2266
	movq	8(%rsp), %rcx
	testl	%eax, %eax
	je	.L767
.LVL765:
.L766:
	.loc 1 4971 47 is_stmt 1 view .LVU2267
	.loc 1 4971 51 is_stmt 0 view .LVU2268
	movq	32(%rbx), %rbx
.LVL766:
	.loc 1 4971 34 is_stmt 1 view .LVU2269
	.loc 1 4971 7 is_stmt 0 view .LVU2270
	testq	%rbx, %rbx
	jne	.L768
.L793:
	.loc 1 4971 7 view .LVU2271
	movl	$80, %ecx
.LVL767:
	.loc 1 4971 7 view .LVU2272
	jmp	.L750
.LVL768:
	.p2align 4,,10
	.p2align 3
.L767:
	.loc 1 4987 3 is_stmt 1 view .LVU2273
	.loc 1 4987 31 is_stmt 0 view .LVU2274
	leaq	16(%rbx), %rcx
.LVL769:
	.loc 1 4987 31 view .LVU2275
	jmp	.L769
.LVL770:
	.p2align 4,,10
	.p2align 3
.L833:
	.loc 1 4919 11 is_stmt 1 view .LVU2276
	.loc 1 4921 11 view .LVU2277
	.loc 1 4921 14 is_stmt 0 view .LVU2278
	testl	$2048, %esi
	je	.L758
	.loc 1 4921 40 view .LVU2279
	movl	$16, %edi
	call	is_colored
.LVL771:
	.loc 1 4921 37 view .LVU2280
	testb	%al, %al
	je	.L758
	movl	$256, %ecx
	jmp	.L750
	.p2align 4,,10
	.p2align 3
.L758:
	.loc 1 4923 16 is_stmt 1 view .LVU2281
	.loc 1 4923 19 is_stmt 0 view .LVU2282
	testl	$1024, %esi
	jne	.L835
.L759:
	.loc 1 4925 16 is_stmt 1 view .LVU2283
	.loc 1 4925 20 is_stmt 0 view .LVU2284
	movl	$21, %edi
	call	is_colored
.LVL772:
	.loc 1 4925 19 view .LVU2285
	testb	%al, %al
	je	.L760
	.loc 1 4925 39 view .LVU2286
	cmpb	$0, 192(%r12)
	je	.L760
	movl	$336, %ecx
	jmp	.L750
	.p2align 4,,10
	.p2align 3
.L835:
	.loc 1 4923 45 view .LVU2287
	movl	$17, %edi
	call	is_colored
.LVL773:
	.loc 1 4923 42 view .LVU2288
	testb	%al, %al
	je	.L759
	movl	$272, %ecx
	jmp	.L750
.LVL774:
	.p2align 4,,10
	.p2align 3
.L834:
	.loc 1 4934 11 is_stmt 1 view .LVU2289
	.loc 1 4936 11 view .LVU2290
	.loc 1 4936 32 is_stmt 0 view .LVU2291
	movl	%esi, %eax
	andl	$514, %eax
	.loc 1 4936 14 view .LVU2292
	cmpl	$514, %eax
	je	.L836
.L763:
	.loc 1 4939 16 is_stmt 1 view .LVU2293
	.loc 1 4939 19 is_stmt 0 view .LVU2294
	testb	$2, %sil
	je	.L764
	.loc 1 4939 45 view .LVU2295
	movl	$19, %edi
	call	is_colored
.LVL775:
	movl	$304, %ecx
	.loc 1 4939 42 view .LVU2296
	testb	%al, %al
	jne	.L750
.L764:
	.loc 1 4941 16 is_stmt 1 view .LVU2297
	.loc 1 4941 19 is_stmt 0 view .LVU2298
	andl	$512, %esi
	movl	$96, %ecx
	je	.L750
	.loc 1 4941 45 view .LVU2299
	movl	$18, %edi
	call	is_colored
.LVL776:
	.loc 1 4941 42 view .LVU2300
	cmpb	$1, %al
	sbbq	%rcx, %rcx
	andb	$64, %cl
	addq	$288, %rcx
	jmp	.L750
.LVL777:
	.p2align 4,,10
	.p2align 3
.L788:
	.loc 1 4945 14 view .LVU2301
	movl	$7, %eax
	jmp	.L765
.LVL778:
	.p2align 4,,10
	.p2align 3
.L760:
	.loc 1 4927 16 is_stmt 1 view .LVU2302
	.loc 1 4927 19 is_stmt 0 view .LVU2303
	andl	$73, %esi
	je	.L761
	.loc 1 4927 45 view .LVU2304
	movl	$14, %edi
	call	is_colored
.LVL779:
	.loc 1 4927 42 view .LVU2305
	testb	%al, %al
	je	.L761
	movl	$224, %ecx
	jmp	.L750
	.p2align 4,,10
	.p2align 3
.L761:
	.loc 1 4929 16 is_stmt 1 view .LVU2306
	.loc 1 4929 19 is_stmt 0 view .LVU2307
	cmpq	$1, 40(%r12)
	jbe	.L755
	.loc 1 4929 46 view .LVU2308
	movl	$22, %edi
	call	is_colored
.LVL780:
	.loc 1 4929 43 view .LVU2309
	testb	%al, %al
	je	.L755
	movl	$352, %ecx
	jmp	.L750
.LVL781:
	.p2align 4,,10
	.p2align 3
.L836:
	.loc 1 4937 18 view .LVU2310
	movl	$20, %edi
	call	is_colored
.LVL782:
	movl	$320, %ecx
	.loc 1 4937 15 view .LVU2311
	testb	%al, %al
	jne	.L750
	jmp	.L763
.LVL783:
.L798:
	.loc 1 4937 15 view .LVU2312
	salq	$4, %rax
	movq	%rax, %rcx
	jmp	.L750
.LBE1554:
.LBE1556:
	.cfi_endproc
.LFE336:
	.size	print_name_with_quoting, .-print_name_with_quoting
	.section	.rodata.str1.1
.LC13:
	.string	"%*s "
	.text
	.p2align 4
	.type	print_file_name_and_frills, @function
print_file_name_and_frills:
.LVL784:
.LFB338:
	.loc 1 4796 1 is_stmt 1 view -0
	.cfi_startproc
	.loc 1 4796 1 is_stmt 0 view .LVU2314
	pushq	%r12
	.cfi_def_cfa_offset 16
	.cfi_offset 12, -16
	movq	%rsi, %r12
	pushq	%rbx
	.cfi_def_cfa_offset 24
	.cfi_offset 3, -24
	movq	%rdi, %rbx
	subq	$680, %rsp
	.cfi_def_cfa_offset 704
	.loc 1 4796 1 view .LVU2315
	movq	%fs:40, %rax
	movq	%rax, 664(%rsp)
	xorl	%eax, %eax
	.loc 1 4797 3 is_stmt 1 view .LVU2316
	.loc 1 4799 3 view .LVU2317
	call	set_normal_color
.LVL785:
	.loc 1 4801 3 view .LVU2318
	.loc 1 4801 6 is_stmt 0 view .LVU2319
	cmpb	$0, print_inode(%rip)
	je	.L838
	.loc 1 4802 5 is_stmt 1 view .LVU2320
.LVL786:
.LBB1557:
.LBI1557:
	.loc 1 4205 1 view .LVU2321
.LBB1558:
	.loc 1 4207 3 view .LVU2322
	.loc 1 4208 3 view .LVU2323
	.loc 1 4210 11 is_stmt 0 view .LVU2324
	cmpb	$0, 184(%rbx)
	leaq	.LC9(%rip), %rcx
	je	.L839
	.loc 1 4208 32 view .LVU2325
	movq	32(%rbx), %rdi
	.loc 1 4208 22 view .LVU2326
	testq	%rdi, %rdi
	jne	.L856
.L839:
.LVL787:
	.loc 1 4208 22 view .LVU2327
.LBE1558:
.LBE1557:
	.loc 1 4802 5 view .LVU2328
	xorl	%edx, %edx
	cmpl	$4, format(%rip)
	je	.L840
	.loc 1 4802 5 discriminator 1 view .LVU2329
	movl	inode_number_width(%rip), %edx
.L840:
.LVL788:
.LBB1560:
.LBI1560:
	.loc 3 105 1 is_stmt 1 discriminator 4 view .LVU2330
.LBB1561:
	.loc 3 107 3 discriminator 4 view .LVU2331
	.loc 3 107 10 is_stmt 0 discriminator 4 view .LVU2332
	leaq	.LC13(%rip), %rsi
	movl	$1, %edi
	xorl	%eax, %eax
	call	__printf_chk@PLT
.LVL789:
.L838:
	.loc 3 107 10 discriminator 4 view .LVU2333
.LBE1561:
.LBE1560:
	.loc 1 4805 3 is_stmt 1 view .LVU2334
	.loc 1 4805 6 is_stmt 0 view .LVU2335
	cmpb	$0, print_block_size(%rip)
	je	.L841
	.loc 1 4806 5 is_stmt 1 view .LVU2336
	cmpb	$0, 184(%rbx)
	leaq	.LC9(%rip), %rcx
	jne	.L857
	.loc 1 4806 5 is_stmt 0 discriminator 2 view .LVU2337
	xorl	%edx, %edx
	cmpl	$4, format(%rip)
	je	.L843
.L860:
	.loc 1 4806 5 discriminator 3 view .LVU2338
	movl	block_size_width(%rip), %edx
.L843:
.LVL790:
.LBB1562:
.LBI1562:
	.loc 3 105 1 is_stmt 1 discriminator 6 view .LVU2339
.LBB1563:
	.loc 3 107 3 discriminator 6 view .LVU2340
	.loc 3 107 10 is_stmt 0 discriminator 6 view .LVU2341
	leaq	.LC13(%rip), %rsi
	movl	$1, %edi
	xorl	%eax, %eax
	call	__printf_chk@PLT
.LVL791:
.L841:
	.loc 3 107 10 discriminator 6 view .LVU2342
.LBE1563:
.LBE1562:
	.loc 1 4811 3 is_stmt 1 view .LVU2343
	.loc 1 4811 6 is_stmt 0 view .LVU2344
	cmpb	$0, print_scontext(%rip)
	je	.L844
	.loc 1 4812 5 is_stmt 1 view .LVU2345
	xorl	%edx, %edx
	cmpl	$4, format(%rip)
	movq	176(%rbx), %rcx
	je	.L845
	.loc 1 4812 5 is_stmt 0 discriminator 1 view .LVU2346
	movl	scontext_width(%rip), %edx
.L845:
.LVL792:
.LBB1564:
.LBI1564:
	.loc 3 105 1 is_stmt 1 discriminator 4 view .LVU2347
.LBB1565:
	.loc 3 107 3 discriminator 4 view .LVU2348
	.loc 3 107 10 is_stmt 0 discriminator 4 view .LVU2349
	leaq	.LC13(%rip), %rsi
	movl	$1, %edi
	xorl	%eax, %eax
	call	__printf_chk@PLT
.LVL793:
.L844:
	.loc 3 107 10 discriminator 4 view .LVU2350
.LBE1565:
.LBE1564:
	.loc 1 4814 3 is_stmt 1 view .LVU2351
	.loc 1 4814 18 is_stmt 0 view .LVU2352
	movq	%r12, %rcx
	xorl	%edx, %edx
	xorl	%esi, %esi
	movq	%rbx, %rdi
	call	print_name_with_quoting
.LVL794:
	movq	%rax, %r12
.LVL795:
	.loc 1 4816 3 is_stmt 1 view .LVU2353
	.loc 1 4816 6 is_stmt 0 view .LVU2354
	movl	indicator_style(%rip), %eax
.LVL796:
	.loc 1 4816 6 view .LVU2355
	testl	%eax, %eax
	jne	.L858
.L837:
	.loc 1 4820 1 view .LVU2356
	movq	664(%rsp), %rax
	xorq	%fs:40, %rax
	jne	.L859
	addq	$680, %rsp
	.cfi_remember_state
	.cfi_def_cfa_offset 24
	movq	%r12, %rax
	popq	%rbx
	.cfi_def_cfa_offset 16
.LVL797:
	.loc 1 4820 1 view .LVU2357
	popq	%r12
	.cfi_def_cfa_offset 8
.LVL798:
	.loc 1 4820 1 view .LVU2358
	ret
.LVL799:
	.p2align 4,,10
	.p2align 3
.L858:
	.cfi_restore_state
	.loc 1 4817 5 is_stmt 1 view .LVU2359
	.loc 1 4817 14 is_stmt 0 view .LVU2360
	movl	168(%rbx), %edx
	movl	48(%rbx), %esi
	movzbl	184(%rbx), %edi
	call	print_type_indicator
.LVL800:
	movzbl	%al, %eax
	.loc 1 4817 11 view .LVU2361
	addq	%rax, %r12
.LVL801:
	.loc 1 4819 3 is_stmt 1 view .LVU2362
	.loc 1 4819 10 is_stmt 0 view .LVU2363
	jmp	.L837
.LVL802:
	.p2align 4,,10
	.p2align 3
.L857:
	.loc 1 4808 15 view .LVU2364
	movl	human_output_opts(%rip), %edx
	movq	88(%rbx), %rdi
	movl	$512, %ecx
	movq	%rsp, %rsi
	movq	output_block_size(%rip), %r8
	call	human_readable@PLT
.LVL803:
	.loc 1 4806 5 view .LVU2365
	xorl	%edx, %edx
	cmpl	$4, format(%rip)
	.loc 1 4808 15 view .LVU2366
	movq	%rax, %rcx
	.loc 1 4806 5 view .LVU2367
	jne	.L860
	jmp	.L843
.LVL804:
	.p2align 4,,10
	.p2align 3
.L856:
.LBB1566:
.LBB1559:
	.loc 1 4209 13 view .LVU2368
	movq	%rsp, %rsi
	call	umaxtostr@PLT
.LVL805:
	movq	%rax, %rcx
	.loc 1 4210 11 view .LVU2369
	jmp	.L839
.LVL806:
.L859:
	.loc 1 4210 11 view .LVU2370
.LBE1559:
.LBE1566:
	.loc 1 4820 1 view .LVU2371
	call	__stack_chk_fail@PLT
.LVL807:
	.cfi_endproc
.LFE338:
	.size	print_file_name_and_frills, .-print_file_name_and_frills
	.section	.rodata.str1.1
.LC14:
	.string	"%s %*s "
.LC15:
	.string	"  "
.LC16:
	.string	"%*s, %*s "
.LC17:
	.string	" -> "
	.section	.text.unlikely
.LCOLDB18:
	.text
.LHOTB18:
	.p2align 4
	.type	print_long_format, @function
print_long_format:
.LVL808:
.LFB331:
	.loc 1 4216 1 is_stmt 1 view -0
	.cfi_startproc
	.loc 1 4216 1 is_stmt 0 view .LVU2373
	pushq	%r15
	.cfi_def_cfa_offset 16
	.cfi_offset 15, -16
	pushq	%r14
	.cfi_def_cfa_offset 24
	.cfi_offset 14, -24
	pushq	%r13
	.cfi_def_cfa_offset 32
	.cfi_offset 13, -32
	pushq	%r12
	.cfi_def_cfa_offset 40
	.cfi_offset 12, -40
	pushq	%rbp
	.cfi_def_cfa_offset 48
	.cfi_offset 6, -48
	pushq	%rbx
	.cfi_def_cfa_offset 56
	.cfi_offset 3, -56
	subq	$4096, %rsp
	.cfi_def_cfa_offset 4152
	orq	$0, (%rsp)
	subq	$808, %rsp
	.cfi_def_cfa_offset 4960
	.loc 1 4216 1 view .LVU2374
	movq	%fs:40, %rax
	movq	%rax, 4888(%rsp)
	xorl	%eax, %eax
	.loc 1 4217 3 is_stmt 1 view .LVU2375
	.loc 1 4218 3 view .LVU2376
	.loc 1 4227 3 view .LVU2377
	.loc 1 4228 3 view .LVU2378
	.loc 1 4229 3 view .LVU2379
	.loc 1 4230 3 view .LVU2380
	.loc 1 4231 3 view .LVU2381
.LVL809:
	.loc 1 4235 3 view .LVU2382
	.loc 1 4235 6 is_stmt 0 view .LVU2383
	cmpb	$0, 184(%rdi)
	.loc 1 4216 1 view .LVU2384
	movq	%rdi, %rbp
	.loc 1 4235 6 view .LVU2385
	je	.L862
	.loc 1 4236 5 is_stmt 1 view .LVU2386
	leaq	180(%rsp), %rsi
	leaq	24(%rdi), %rdi
.LVL810:
	.loc 1 4236 5 is_stmt 0 view .LVU2387
	call	filemodestring@PLT
.LVL811:
.L863:
	.loc 1 4243 3 is_stmt 1 view .LVU2388
	.loc 1 4243 6 is_stmt 0 view .LVU2389
	cmpb	$0, any_has_acl(%rip)
	jne	.L864
	.loc 1 4244 5 is_stmt 1 view .LVU2390
	.loc 1 4244 17 is_stmt 0 view .LVU2391
	movb	$0, 190(%rsp)
.L865:
	.loc 1 4250 3 is_stmt 1 view .LVU2392
	movl	time_type(%rip), %eax
	cmpl	$2, %eax
	je	.L867
.L965:
	ja	.L868
	testl	%eax, %eax
	je	.L869
	.loc 1 4253 7 view .LVU2393
	movq	136(%rbp), %rax
.LVL812:
	.loc 10 135 3 view .LVU2394
	.loc 1 4253 23 is_stmt 0 view .LVU2395
	movq	128(%rbp), %rdx
	.loc 1 4231 8 view .LVU2396
	movl	$1, %r13d
	.loc 1 4253 23 view .LVU2397
	movq	%rdx, 32(%rsp)
	movq	%rax, 40(%rsp)
	.loc 1 4254 7 is_stmt 1 view .LVU2398
.LVL813:
.L873:
	.loc 1 4270 3 view .LVU2399
	.loc 1 4272 3 view .LVU2400
	.loc 1 4272 6 is_stmt 0 view .LVU2401
	cmpb	$0, print_inode(%rip)
	movzbl	184(%rbp), %edx
	je	.L918
.L963:
.LBB1610:
	.loc 1 4274 7 is_stmt 1 view .LVU2402
	.loc 1 4275 7 view .LVU2403
.LVL814:
.LBB1611:
.LBI1611:
	.loc 1 4205 1 view .LVU2404
.LBB1612:
	.loc 1 4207 3 view .LVU2405
	.loc 1 4208 3 view .LVU2406
	.loc 1 4210 11 is_stmt 0 view .LVU2407
	leaq	.LC9(%rip), %r9
	testb	%dl, %dl
	jne	.L952
.L875:
.LVL815:
	.loc 1 4210 11 view .LVU2408
.LBE1612:
.LBE1611:
.LBB1614:
.LBI1614:
	.loc 3 34 1 is_stmt 1 view .LVU2409
.LBB1615:
	.loc 3 36 3 view .LVU2410
	.loc 3 36 10 is_stmt 0 view .LVU2411
	leaq	1232(%rsp), %r12
.LVL816:
	.loc 3 36 10 view .LVU2412
	movl	inode_number_width(%rip), %r8d
	movl	$3643, %edx
	xorl	%eax, %eax
	leaq	.LC13(%rip), %rcx
	movl	$1, %esi
	movq	%r12, %rdi
.LBE1615:
.LBE1614:
	.loc 1 4279 12 view .LVU2413
	movq	%r12, %rbx
.LBB1617:
.LBB1616:
	.loc 3 36 10 view .LVU2414
	call	__sprintf_chk@PLT
.LVL817:
	.loc 3 36 10 view .LVU2415
.LBE1616:
.LBE1617:
	.loc 1 4279 7 is_stmt 1 view .LVU2416
.L876:
	.loc 1 4279 12 is_stmt 0 view .LVU2417
	movl	(%rbx), %eax
	addq	$4, %rbx
	leal	-16843009(%rax), %edx
	notl	%eax
	andl	%eax, %edx
	andl	$-2139062144, %edx
	je	.L876
	movl	%edx, %eax
	shrl	$16, %eax
	testl	$32896, %edx
	cmove	%eax, %edx
	leaq	2(%rbx), %rax
	cmove	%rax, %rbx
	movl	%edx, %eax
	addb	%dl, %al
	movzbl	184(%rbp), %edx
	.loc 1 4279 9 view .LVU2418
	sbbq	$3, %rbx
.LVL818:
.L874:
	.loc 1 4279 9 view .LVU2419
.LBE1610:
	.loc 1 4282 3 is_stmt 1 view .LVU2420
	.loc 1 4282 6 is_stmt 0 view .LVU2421
	cmpb	$0, print_block_size(%rip)
	je	.L878
.LBB1619:
	.loc 1 4284 7 is_stmt 1 view .LVU2422
	.loc 1 4285 7 view .LVU2423
	.loc 1 4288 10 is_stmt 0 view .LVU2424
	leaq	.LC9(%rip), %r15
	testb	%dl, %dl
	jne	.L953
.L879:
.LVL819:
	.loc 1 4290 7 is_stmt 1 view .LVU2425
	.loc 1 4291 7 view .LVU2426
	.loc 1 4291 35 is_stmt 0 view .LVU2427
	movl	block_size_width(%rip), %r14d
	.loc 1 4291 37 view .LVU2428
	xorl	%esi, %esi
	movq	%r15, %rdi
	call	gnu_mbswidth@PLT
.LVL820:
	.loc 1 4291 16 view .LVU2429
	subl	%eax, %r14d
	movl	%r14d, %eax
.LVL821:
	.loc 1 4291 59 is_stmt 1 view .LVU2430
	.loc 1 4291 7 is_stmt 0 view .LVU2431
	testl	%r14d, %r14d
	jle	.L882
	subl	$1, %eax
.LVL822:
	.loc 1 4291 7 view .LVU2432
	movq	%rax, %rdx
	leaq	1(%rbx,%rax), %rcx
	movq	%rbx, %rax
.LVL823:
	.p2align 4,,10
	.p2align 3
.L881:
	.loc 1 4292 9 is_stmt 1 discriminator 3 view .LVU2433
	.loc 1 4292 11 is_stmt 0 discriminator 3 view .LVU2434
	addq	$1, %rax
.LVL824:
	.loc 1 4292 14 discriminator 3 view .LVU2435
	movb	$32, -1(%rax)
	.loc 1 4291 68 is_stmt 1 discriminator 3 view .LVU2436
.LVL825:
	.loc 1 4291 59 discriminator 3 view .LVU2437
	.loc 1 4291 7 is_stmt 0 discriminator 3 view .LVU2438
	cmpq	%rcx, %rax
	jne	.L881
	movslq	%edx, %rax
.LVL826:
	.loc 1 4291 7 discriminator 3 view .LVU2439
	leaq	1(%rbx,%rax), %rbx
.L882:
.LVL827:
	.loc 1 4293 13 is_stmt 1 view .LVU2440
	.loc 1 4293 22 is_stmt 0 view .LVU2441
	movzbl	(%r15), %eax
	.loc 1 4293 29 view .LVU2442
	addq	$1, %r15
.LVL828:
	.loc 1 4293 17 view .LVU2443
	addq	$1, %rbx
.LVL829:
	.loc 1 4293 20 view .LVU2444
	movb	%al, -1(%rbx)
	.loc 1 4293 13 view .LVU2445
	testb	%al, %al
	jne	.L882
	.loc 1 4295 7 is_stmt 1 view .LVU2446
	.loc 1 4295 13 is_stmt 0 view .LVU2447
	movb	$32, -1(%rbx)
	movzbl	184(%rbp), %edx
.LVL830:
.L878:
	.loc 1 4295 13 view .LVU2448
.LBE1619:
.LBB1620:
	.loc 1 4301 5 is_stmt 1 view .LVU2449
	.loc 1 4302 5 view .LVU2450
	leaq	.LC9(%rip), %rax
	testb	%dl, %dl
	jne	.L954
.L883:
.LVL831:
.LBB1621:
.LBI1621:
	.loc 3 34 1 discriminator 2 view .LVU2451
.LBB1622:
	.loc 3 36 3 discriminator 2 view .LVU2452
	.loc 3 36 10 is_stmt 0 discriminator 2 view .LVU2453
	subq	$8, %rsp
	.cfi_def_cfa_offset 4968
	movq	%rbx, %rdi
	movl	nlink_width(%rip), %r9d
	leaq	.LC14(%rip), %rcx
	pushq	%rax
	.cfi_def_cfa_offset 4976
	movq	$-1, %rdx
	movl	$1, %esi
	xorl	%eax, %eax
	leaq	196(%rsp), %r8
	call	__sprintf_chk@PLT
.LVL832:
	.loc 3 36 10 discriminator 2 view .LVU2454
.LBE1622:
.LBE1621:
.LBE1620:
	.loc 1 4308 3 is_stmt 1 discriminator 2 view .LVU2455
	.loc 1 4308 8 is_stmt 0 discriminator 2 view .LVU2456
	movq	%rbx, %rdi
	call	strlen@PLT
.LVL833:
	.loc 1 4310 3 discriminator 2 view .LVU2457
	popq	%r8
	.cfi_def_cfa_offset 4968
	popq	%r9
	.cfi_def_cfa_offset 4960
	.loc 1 4308 5 discriminator 2 view .LVU2458
	addq	%rax, %rbx
.LVL834:
	.loc 1 4310 3 is_stmt 1 discriminator 2 view .LVU2459
	.loc 1 4310 3 discriminator 2 view .LVU2460
	cmpb	$0, dired(%rip)
	jne	.L955
.L884:
	.loc 1 4310 3 discriminator 3 view .LVU2461
	.loc 1 4310 3 discriminator 3 view .LVU2462
	.loc 1 4312 3 discriminator 3 view .LVU2463
	.loc 1 4312 6 is_stmt 0 discriminator 3 view .LVU2464
	cmpb	$0, print_owner(%rip)
	jne	.L885
	.loc 1 4312 19 discriminator 1 view .LVU2465
	cmpb	$0, print_group(%rip)
	je	.L956
.L885:
	.loc 1 4314 7 is_stmt 1 view .LVU2466
	.loc 1 4314 7 view .LVU2467
	movq	stdout(%rip), %rsi
	movq	%r12, %rdi
	subq	%r12, %rbx
.LVL835:
	.loc 1 4314 7 is_stmt 0 view .LVU2468
	call	fputs_unlocked@PLT
.LVL836:
	.loc 1 4314 7 is_stmt 1 view .LVU2469
	addq	%rbx, dired_pos(%rip)
	.loc 1 4314 7 view .LVU2470
	.loc 1 4316 7 view .LVU2471
	.loc 1 4316 10 is_stmt 0 view .LVU2472
	cmpb	$0, print_owner(%rip)
	jne	.L957
.L887:
	.loc 1 4319 7 is_stmt 1 view .LVU2473
	.loc 1 4319 10 is_stmt 0 view .LVU2474
	cmpb	$0, print_group(%rip)
	jne	.L958
.L888:
	.loc 1 4322 7 is_stmt 1 view .LVU2475
	.loc 1 4322 10 is_stmt 0 view .LVU2476
	cmpb	$0, print_author(%rip)
	jne	.L959
	.loc 1 4325 7 is_stmt 1 view .LVU2477
	.loc 1 4325 10 is_stmt 0 view .LVU2478
	cmpb	$0, print_scontext(%rip)
	.loc 1 4328 9 view .LVU2479
	movq	%r12, %rbx
	.loc 1 4325 10 view .LVU2480
	jne	.L960
.L886:
.LVL837:
	.loc 1 4331 3 is_stmt 1 view .LVU2481
	.loc 1 4331 6 is_stmt 0 view .LVU2482
	cmpb	$0, 184(%rbp)
	je	.L926
	.loc 1 4332 37 view .LVU2483
	movl	48(%rbp), %eax
	andl	$45056, %eax
	.loc 1 4332 7 view .LVU2484
	cmpl	$8192, %eax
	je	.L961
.LBB1623:
	.loc 1 4348 7 is_stmt 1 discriminator 2 view .LVU2485
	.loc 1 4349 7 discriminator 2 view .LVU2486
.LVL838:
.LBB1624:
.LBI1624:
	.loc 1 3115 1 discriminator 2 view .LVU2487
.LBB1625:
	.loc 1 3117 3 discriminator 2 view .LVU2488
	.loc 1 3117 3 is_stmt 0 discriminator 2 view .LVU2489
.LBE1625:
.LBE1624:
	.loc 1 4352 12 discriminator 2 view .LVU2490
	movq	72(%rbp), %rdi
	movq	file_output_block_size(%rip), %r8
	leaq	224(%rsp), %rsi
	movl	$1, %ecx
	movl	file_human_output_opts(%rip), %edx
	call	human_readable@PLT
.LVL839:
	movq	%rax, %r15
	jmp	.L891
.LVL840:
	.p2align 4,,10
	.p2align 3
.L868:
	.loc 1 4352 12 discriminator 2 view .LVU2491
.LBE1623:
	.loc 1 4250 3 view .LVU2492
	cmpl	$3, %eax
	jne	.L962
	.loc 1 4262 7 is_stmt 1 view .LVU2493
.LVL841:
	.loc 1 1081 3 view .LVU2494
	.loc 1 1084 3 view .LVU2495
	movq	120(%rbp), %rdx
.LVL842:
	.loc 10 149 3 view .LVU2496
	movq	112(%rbp), %rax
.LVL843:
	.loc 1 1089 3 view .LVU2497
	.loc 1 4262 23 is_stmt 0 view .LVU2498
	movq	%rax, 32(%rsp)
	.loc 1 4263 38 view .LVU2499
	andq	%rdx, %rax
	cmpq	$-1, %rax
	.loc 1 4262 23 view .LVU2500
	movq	%rdx, 40(%rsp)
	.loc 1 4263 7 is_stmt 1 view .LVU2501
	movzbl	184(%rbp), %edx
	.loc 1 4263 38 is_stmt 0 view .LVU2502
	setne	%r13b
.LVL844:
	.loc 1 4270 3 is_stmt 1 view .LVU2503
	.loc 1 4272 3 view .LVU2504
	.loc 1 4272 6 is_stmt 0 view .LVU2505
	cmpb	$0, print_inode(%rip)
	jne	.L963
.LVL845:
.L918:
	.loc 1 4270 5 view .LVU2506
	leaq	1232(%rsp), %r12
.LVL846:
	.loc 1 4270 5 view .LVU2507
	movq	%r12, %rbx
	jmp	.L874
.LVL847:
	.p2align 4,,10
	.p2align 3
.L864:
	.loc 1 4245 8 is_stmt 1 view .LVU2508
	.loc 1 4245 13 is_stmt 0 view .LVU2509
	movl	188(%rbp), %eax
	.loc 1 4245 11 view .LVU2510
	cmpl	$1, %eax
	je	.L964
	.loc 1 4247 8 is_stmt 1 view .LVU2511
	.loc 1 4247 11 is_stmt 0 view .LVU2512
	cmpl	$2, %eax
	jne	.L865
	.loc 1 4248 5 is_stmt 1 view .LVU2513
	.loc 1 4250 3 is_stmt 0 view .LVU2514
	movl	time_type(%rip), %eax
	.loc 1 4248 17 view .LVU2515
	movb	$43, 190(%rsp)
	.loc 1 4250 3 is_stmt 1 view .LVU2516
	cmpl	$2, %eax
	jne	.L965
	.p2align 4,,10
	.p2align 3
.L867:
	.loc 1 4259 7 view .LVU2517
	movq	104(%rbp), %rax
.LVL848:
	.loc 10 121 3 view .LVU2518
	.loc 1 4259 23 is_stmt 0 view .LVU2519
	movq	96(%rbp), %rdx
	.loc 1 4231 8 view .LVU2520
	movl	$1, %r13d
	.loc 1 4259 23 view .LVU2521
	movq	%rdx, 32(%rsp)
	movq	%rax, 40(%rsp)
	.loc 1 4260 7 is_stmt 1 view .LVU2522
	jmp	.L873
.LVL849:
	.p2align 4,,10
	.p2align 3
.L862:
	.loc 1 4239 7 view .LVU2523
	.loc 1 4239 35 is_stmt 0 view .LVU2524
	movl	168(%rdi), %eax
	.loc 1 4239 18 view .LVU2525
	leaq	filetype_letter(%rip), %rdx
.LBB1626:
.LBB1627:
	.loc 11 71 10 view .LVU2526
	movl	$16191, %r10d
.LBE1627:
.LBE1626:
	.loc 1 4241 19 view .LVU2527
	movb	$0, 191(%rsp)
.LBB1631:
.LBB1628:
	.loc 11 71 10 view .LVU2528
	movw	%r10w, 189(%rsp)
.LBE1628:
.LBE1631:
	.loc 1 4239 18 view .LVU2529
	movzbl	(%rdx,%rax), %eax
	movb	%al, 180(%rsp)
	.loc 1 4240 7 is_stmt 1 view .LVU2530
.LVL850:
.LBB1632:
.LBI1626:
	.loc 11 59 1 view .LVU2531
.LBB1629:
	.loc 11 71 3 view .LVU2532
	.loc 11 71 3 is_stmt 0 view .LVU2533
.LBE1629:
.LBE1632:
	.loc 1 4241 7 is_stmt 1 view .LVU2534
.LBB1633:
.LBB1630:
	.loc 11 71 10 is_stmt 0 view .LVU2535
	movabsq	$4557430888798830399, %rax
	movq	%rax, 181(%rsp)
	jmp	.L863
.LVL851:
	.p2align 4,,10
	.p2align 3
.L926:
	.loc 11 71 10 view .LVU2536
.LBE1630:
.LBE1633:
.LBB1634:
	.loc 1 4352 10 view .LVU2537
	leaq	.LC9(%rip), %r15
.L891:
.LVL852:
	.loc 1 4355 7 is_stmt 1 view .LVU2538
	.loc 1 4356 7 view .LVU2539
	.loc 1 4356 34 is_stmt 0 view .LVU2540
	movl	file_size_width(%rip), %r14d
	.loc 1 4356 36 view .LVU2541
	xorl	%esi, %esi
	movq	%r15, %rdi
	call	gnu_mbswidth@PLT
.LVL853:
	.loc 1 4356 16 view .LVU2542
	subl	%eax, %r14d
	movl	%r14d, %eax
.LVL854:
	.loc 1 4356 56 is_stmt 1 view .LVU2543
	.loc 1 4356 7 is_stmt 0 view .LVU2544
	testl	%r14d, %r14d
	jle	.L896
	subl	$1, %eax
.LVL855:
	.loc 1 4356 7 view .LVU2545
	movq	%rax, %rdx
	leaq	1(%rbx,%rax), %rcx
	movq	%rbx, %rax
.LVL856:
	.p2align 4,,10
	.p2align 3
.L895:
	.loc 1 4357 9 is_stmt 1 discriminator 3 view .LVU2546
	.loc 1 4357 11 is_stmt 0 discriminator 3 view .LVU2547
	addq	$1, %rax
.LVL857:
	.loc 1 4357 14 discriminator 3 view .LVU2548
	movb	$32, -1(%rax)
	.loc 1 4356 65 is_stmt 1 discriminator 3 view .LVU2549
.LVL858:
	.loc 1 4356 56 discriminator 3 view .LVU2550
	.loc 1 4356 7 is_stmt 0 discriminator 3 view .LVU2551
	cmpq	%rcx, %rax
	jne	.L895
	movslq	%edx, %rax
.LVL859:
	.loc 1 4356 7 discriminator 3 view .LVU2552
	leaq	1(%rbx,%rax), %rbx
.L896:
.LVL860:
	.loc 1 4358 13 is_stmt 1 view .LVU2553
	.loc 1 4358 22 is_stmt 0 view .LVU2554
	movzbl	(%r15), %eax
	.loc 1 4358 27 view .LVU2555
	addq	$1, %r15
.LVL861:
	.loc 1 4358 17 view .LVU2556
	addq	$1, %rbx
.LVL862:
	.loc 1 4358 20 view .LVU2557
	movb	%al, -1(%rbx)
	.loc 1 4358 13 view .LVU2558
	testb	%al, %al
	jne	.L896
	.loc 1 4360 7 is_stmt 1 view .LVU2559
	.loc 1 4360 13 is_stmt 0 view .LVU2560
	movb	$32, -1(%rbx)
.LVL863:
.L893:
	.loc 1 4360 13 view .LVU2561
.LBE1634:
	.loc 1 4363 3 is_stmt 1 view .LVU2562
	.loc 1 4364 3 view .LVU2563
	.loc 1 4364 6 is_stmt 0 view .LVU2564
	movb	$1, (%rbx)
	.loc 1 4366 3 is_stmt 1 view .LVU2565
	.loc 1 4366 18 is_stmt 0 view .LVU2566
	cmpb	$0, 184(%rbp)
	je	.L927
	.loc 1 4366 18 view .LVU2567
	testb	%r13b, %r13b
	jne	.L966
.LVL864:
.L927:
.LBB1635:
	.loc 1 4407 7 view .LVU2568
	leaq	.LC9(%rip), %r13
.L897:
.LBB1636:
.LBI1636:
	.loc 1 4088 1 is_stmt 1 discriminator 2 view .LVU2569
.LBB1637:
	.loc 1 4090 3 discriminator 2 view .LVU2570
	.loc 1 4092 3 discriminator 2 view .LVU2571
	.loc 1 4092 13 is_stmt 0 discriminator 2 view .LVU2572
	movl	width.11510(%rip), %r8d
	.loc 1 4092 6 discriminator 2 view .LVU2573
	testl	%r8d, %r8d
	js	.L967
.L906:
	.loc 1 4117 3 is_stmt 1 view .LVU2574
.LVL865:
	.loc 1 4117 3 is_stmt 0 view .LVU2575
.LBE1637:
.LBE1636:
.LBB1653:
.LBI1653:
	.loc 3 34 1 is_stmt 1 view .LVU2576
.LBB1654:
	.loc 3 36 3 view .LVU2577
	.loc 3 36 10 is_stmt 0 view .LVU2578
	movq	%r13, %r9
	leaq	.LC13(%rip), %rcx
	movq	%rbx, %rdi
	xorl	%eax, %eax
	movq	$-1, %rdx
	movl	$1, %esi
	call	__sprintf_chk@PLT
.LVL866:
	.loc 3 36 10 view .LVU2579
.LBE1654:
.LBE1653:
	.loc 1 4412 7 is_stmt 1 view .LVU2580
	.loc 1 4412 12 is_stmt 0 view .LVU2581
	movq	%rbx, %rdi
	call	strlen@PLT
.LVL867:
	.loc 1 4412 9 view .LVU2582
	leaq	(%rbx,%rax), %r13
.LVL868:
.L905:
	.loc 1 4412 9 view .LVU2583
.LBE1635:
	.loc 1 4415 3 is_stmt 1 view .LVU2584
	.loc 1 4415 3 view .LVU2585
	movq	stdout(%rip), %rsi
	movq	%r12, %rdi
	subq	%r12, %r13
.LVL869:
	.loc 1 4415 3 is_stmt 0 view .LVU2586
	call	fputs_unlocked@PLT
.LVL870:
	.loc 1 4415 3 is_stmt 1 view .LVU2587
	.loc 1 4416 14 is_stmt 0 view .LVU2588
	movq	%r13, %rcx
	xorl	%esi, %esi
	movq	%rbp, %rdi
	leaq	dired_obstack(%rip), %rdx
	.loc 1 4415 3 view .LVU2589
	addq	%r13, dired_pos(%rip)
	.loc 1 4415 3 is_stmt 1 view .LVU2590
	.loc 1 4416 3 view .LVU2591
	.loc 1 4416 14 is_stmt 0 view .LVU2592
	call	print_name_with_quoting
.LVL871:
	.loc 1 4418 8 view .LVU2593
	movl	168(%rbp), %edx
	.loc 1 4416 14 view .LVU2594
	movq	%rax, %r12
.LVL872:
	.loc 1 4418 3 is_stmt 1 view .LVU2595
	.loc 1 4418 6 is_stmt 0 view .LVU2596
	cmpl	$6, %edx
	je	.L968
	.loc 1 4428 8 is_stmt 1 view .LVU2597
	.loc 1 4428 11 is_stmt 0 view .LVU2598
	movl	indicator_style(%rip), %eax
.LVL873:
	.loc 1 4428 11 view .LVU2599
	testl	%eax, %eax
	jne	.L969
.L861:
	.loc 1 4430 1 view .LVU2600
	movq	4888(%rsp), %rax
	xorq	%fs:40, %rax
	jne	.L970
	addq	$4904, %rsp
	.cfi_remember_state
	.cfi_def_cfa_offset 56
	popq	%rbx
	.cfi_def_cfa_offset 48
	popq	%rbp
	.cfi_def_cfa_offset 40
.LVL874:
	.loc 1 4430 1 view .LVU2601
	popq	%r12
	.cfi_def_cfa_offset 32
.LVL875:
	.loc 1 4430 1 view .LVU2602
	popq	%r13
	.cfi_def_cfa_offset 24
	popq	%r14
	.cfi_def_cfa_offset 16
	popq	%r15
	.cfi_def_cfa_offset 8
	ret
.LVL876:
	.p2align 4,,10
	.p2align 3
.L956:
	.cfi_restore_state
	.loc 1 4312 34 discriminator 2 view .LVU2603
	cmpb	$0, print_author(%rip)
	jne	.L885
	.loc 1 4312 50 discriminator 3 view .LVU2604
	cmpb	$0, print_scontext(%rip)
	je	.L886
	jmp	.L885
.LVL877:
	.p2align 4,,10
	.p2align 3
.L952:
.LBB1660:
.LBB1618:
.LBB1613:
	.loc 1 4208 32 view .LVU2605
	movq	32(%rbp), %rdi
	.loc 1 4208 22 view .LVU2606
	testq	%rdi, %rdi
	je	.L875
	.loc 1 4209 13 view .LVU2607
	leaq	224(%rsp), %rsi
.LVL878:
	.loc 1 4209 13 view .LVU2608
	call	umaxtostr@PLT
.LVL879:
	.loc 1 4209 13 view .LVU2609
	movq	%rax, %r9
	.loc 1 4210 11 view .LVU2610
	jmp	.L875
.LVL880:
	.p2align 4,,10
	.p2align 3
.L968:
	.loc 1 4210 11 view .LVU2611
.LBE1613:
.LBE1618:
.LBE1660:
	.loc 1 4420 7 is_stmt 1 view .LVU2612
	.loc 1 4420 10 is_stmt 0 view .LVU2613
	cmpq	$0, 8(%rbp)
	je	.L861
	.loc 1 4422 11 is_stmt 1 view .LVU2614
	.loc 1 4422 11 view .LVU2615
	movq	stdout(%rip), %rcx
	movl	$4, %edx
	movl	$1, %esi
	leaq	.LC17(%rip), %rdi
	call	fwrite_unlocked@PLT
.LVL881:
	.loc 1 4422 11 view .LVU2616
	.loc 1 4423 11 is_stmt 0 view .LVU2617
	xorl	%edx, %edx
	leaq	4(%r13,%r12), %rcx
	movq	%rbp, %rdi
	movl	$1, %esi
	.loc 1 4422 11 view .LVU2618
	addq	$4, dired_pos(%rip)
	.loc 1 4422 11 is_stmt 1 view .LVU2619
	.loc 1 4423 11 view .LVU2620
	call	print_name_with_quoting
.LVL882:
	.loc 1 4424 11 view .LVU2621
	.loc 1 4424 14 is_stmt 0 view .LVU2622
	movl	indicator_style(%rip), %edx
	testl	%edx, %edx
	je	.L861
	.loc 1 4425 13 is_stmt 1 view .LVU2623
	movl	172(%rbp), %esi
	xorl	%edx, %edx
	movl	$1, %edi
	call	print_type_indicator
.LVL883:
	jmp	.L861
.LVL884:
	.p2align 4,,10
	.p2align 3
.L955:
	.loc 1 4310 3 discriminator 1 view .LVU2624
	.loc 1 4310 3 discriminator 1 view .LVU2625
	movq	stdout(%rip), %rcx
	movl	$2, %edx
	movl	$1, %esi
	leaq	.LC15(%rip), %rdi
	call	fwrite_unlocked@PLT
.LVL885:
	.loc 1 4310 3 discriminator 1 view .LVU2626
	addq	$2, dired_pos(%rip)
	jmp	.L884
	.p2align 4,,10
	.p2align 3
.L954:
.LBB1661:
	.loc 1 4303 35 is_stmt 0 view .LVU2627
	movq	40(%rbp), %rdi
	leaq	224(%rsp), %rsi
	call	umaxtostr@PLT
.LVL886:
	jmp	.L883
.LVL887:
	.p2align 4,,10
	.p2align 3
.L959:
	.loc 1 4303 35 view .LVU2628
.LBE1661:
	.loc 1 4323 9 is_stmt 1 view .LVU2629
	movzbl	184(%rbp), %edx
	movl	52(%rbp), %edi
	.loc 1 4328 9 is_stmt 0 view .LVU2630
	movq	%r12, %rbx
	.loc 1 4323 9 view .LVU2631
	movl	author_width(%rip), %esi
	call	format_user
.LVL888:
	.loc 1 4325 7 is_stmt 1 view .LVU2632
	.loc 1 4325 10 is_stmt 0 view .LVU2633
	cmpb	$0, print_scontext(%rip)
	je	.L886
.L960:
	.loc 1 4326 9 is_stmt 1 view .LVU2634
	movq	176(%rbp), %rdi
	movl	scontext_width(%rip), %edx
	xorl	%esi, %esi
	call	format_user_or_group
.LVL889:
	jmp	.L886
	.p2align 4,,10
	.p2align 3
.L958:
	.loc 1 4320 9 view .LVU2635
	movl	group_width(%rip), %edx
.LBB1662:
.LBB1663:
	.loc 1 4163 3 is_stmt 0 view .LVU2636
	cmpb	$0, 184(%rbp)
	leaq	.LC9(%rip), %rdi
.LBE1663:
.LBE1662:
	.loc 1 4320 9 view .LVU2637
	movl	56(%rbp), %esi
.LVL890:
.LBB1666:
.LBI1662:
	.loc 1 4161 1 is_stmt 1 view .LVU2638
.LBB1664:
	.loc 1 4163 3 view .LVU2639
	jne	.L971
.LVL891:
.L889:
	.loc 1 4163 3 is_stmt 0 view .LVU2640
	call	format_user_or_group
.LVL892:
	.loc 1 4165 1 view .LVU2641
	jmp	.L888
	.p2align 4,,10
	.p2align 3
.L957:
	.loc 1 4165 1 view .LVU2642
.LBE1664:
.LBE1666:
	.loc 1 4317 9 is_stmt 1 view .LVU2643
	movzbl	184(%rbp), %edx
	movl	52(%rbp), %edi
	movl	owner_width(%rip), %esi
	call	format_user
.LVL893:
	jmp	.L887
.LVL894:
	.p2align 4,,10
	.p2align 3
.L869:
	.loc 1 4256 7 view .LVU2644
	movq	120(%rbp), %rax
.LVL895:
	.loc 10 149 3 view .LVU2645
	.loc 1 4256 23 is_stmt 0 view .LVU2646
	movq	112(%rbp), %rdx
	.loc 1 4231 8 view .LVU2647
	movl	$1, %r13d
	.loc 1 4256 23 view .LVU2648
	movq	%rdx, 32(%rsp)
	movq	%rax, 40(%rsp)
	.loc 1 4257 7 is_stmt 1 view .LVU2649
	jmp	.L873
.LVL896:
	.p2align 4,,10
	.p2align 3
.L969:
	.loc 1 4429 5 view .LVU2650
	movl	48(%rbp), %esi
	movzbl	184(%rbp), %edi
	call	print_type_indicator
.LVL897:
	.loc 1 4430 1 is_stmt 0 view .LVU2651
	jmp	.L861
.LVL898:
	.p2align 4,,10
	.p2align 3
.L964:
	.loc 1 4246 5 is_stmt 1 view .LVU2652
	.loc 1 4246 17 is_stmt 0 view .LVU2653
	movb	$46, 190(%rsp)
	jmp	.L865
.LVL899:
	.p2align 4,,10
	.p2align 3
.L961:
.LBB1667:
	.loc 1 4334 7 is_stmt 1 view .LVU2654
	.loc 1 4335 7 view .LVU2655
	.loc 1 4336 7 view .LVU2656
	.loc 1 4338 30 is_stmt 0 view .LVU2657
	movl	major_device_number_width(%rip), %edx
	movl	minor_device_number_width(%rip), %eax
	.loc 1 4339 7 view .LVU2658
	leaq	224(%rsp), %rsi
	.loc 1 4336 11 view .LVU2659
	movl	file_size_width(%rip), %r14d
	.loc 1 4338 30 view .LVU2660
	leal	2(%rdx,%rax), %eax
	.loc 1 4336 11 view .LVU2661
	subl	%eax, %r14d
.LVL900:
	.loc 1 4339 7 is_stmt 1 view .LVU2662
	.loc 1 4343 27 is_stmt 0 view .LVU2663
	movq	64(%rbp), %rax
.LVL901:
.LBB1668:
.LBI1668:
	.loc 6 42 1 is_stmt 1 view .LVU2664
.LBB1669:
	.loc 6 42 1 view .LVU2665
	.loc 6 42 1 view .LVU2666
	movzbl	%al, %edx
.LVL902:
	.loc 6 42 1 view .LVU2667
	.loc 6 42 1 view .LVU2668
	.loc 6 42 1 is_stmt 0 view .LVU2669
	shrq	$12, %rax
	movq	%rax, %rdi
	xorb	%dil, %dil
.LBE1669:
.LBE1668:
	.loc 1 4339 7 view .LVU2670
	orl	%edx, %edi
	call	umaxtostr@PLT
.LVL903:
	movl	minor_device_number_width(%rip), %edx
	leaq	192(%rsp), %rsi
	movq	%rax, %r15
	.loc 1 4341 27 view .LVU2671
	movq	64(%rbp), %rax
.LVL904:
.LBB1670:
.LBI1670:
	.loc 6 41 1 is_stmt 1 view .LVU2672
.LBB1671:
	.loc 6 41 1 view .LVU2673
	.loc 6 41 1 view .LVU2674
.LBE1671:
.LBE1670:
	.loc 1 4339 7 is_stmt 0 view .LVU2675
	movl	%edx, 4(%rsp)
.LBB1673:
.LBB1672:
	.loc 6 41 1 view .LVU2676
	movq	%rax, %rdi
	shrq	$32, %rax
.LVL905:
	.loc 6 41 1 view .LVU2677
	shrq	$8, %rdi
.LVL906:
	.loc 6 41 1 view .LVU2678
	movl	%edi, %ecx
	movq	%rax, %rdi
	andl	$4095, %ecx
.LVL907:
	.loc 6 41 1 is_stmt 1 view .LVU2679
	.loc 6 41 1 view .LVU2680
	.loc 6 41 1 is_stmt 0 view .LVU2681
	andl	$-4096, %edi
.LBE1672:
.LBE1673:
	.loc 1 4339 7 view .LVU2682
	orl	%ecx, %edi
	call	umaxtostr@PLT
.LVL908:
.LBB1674:
.LBI1674:
	.loc 3 34 1 is_stmt 1 view .LVU2683
.LBB1675:
	.loc 3 36 3 view .LVU2684
	.loc 3 36 10 is_stmt 0 view .LVU2685
	pushq	%r15
	.cfi_def_cfa_offset 4968
	movl	12(%rsp), %edx
.LBE1675:
.LBE1674:
	.loc 1 4340 44 view .LVU2686
	testl	%r14d, %r14d
	movl	$0, %r8d
.LBB1679:
.LBB1676:
	.loc 3 36 10 view .LVU2687
	movq	%rbx, %rdi
.LBE1676:
.LBE1679:
	.loc 1 4339 7 view .LVU2688
	movq	%rax, %r9
.LBB1680:
.LBB1677:
	.loc 3 36 10 view .LVU2689
	movl	$1, %esi
	pushq	%rdx
	.cfi_def_cfa_offset 4976
.LBE1677:
.LBE1680:
	.loc 1 4340 44 view .LVU2690
	cmovns	%r14d, %r8d
.LBB1681:
.LBB1678:
	.loc 3 36 10 view .LVU2691
	leaq	.LC16(%rip), %rcx
	addl	major_device_number_width(%rip), %r8d
	movq	$-1, %rdx
	xorl	%eax, %eax
	call	__sprintf_chk@PLT
.LVL909:
	.loc 3 36 10 view .LVU2692
.LBE1678:
.LBE1681:
	.loc 1 4344 7 is_stmt 1 view .LVU2693
	.loc 1 4344 9 is_stmt 0 view .LVU2694
	movslq	file_size_width(%rip), %rax
.LBE1667:
	.loc 1 4333 5 view .LVU2695
	popq	%rsi
	.cfi_def_cfa_offset 4968
	popq	%rdi
	.cfi_def_cfa_offset 4960
.LBB1682:
	.loc 1 4344 9 view .LVU2696
	leaq	1(%rbx,%rax), %rbx
.LVL910:
	.loc 1 4344 9 view .LVU2697
.LBE1682:
	.loc 1 4333 5 view .LVU2698
	jmp	.L893
.LVL911:
	.p2align 4,,10
	.p2align 3
.L966:
	.loc 1 4367 10 view .LVU2699
	leaq	48(%rsp), %r13
.LVL912:
	.loc 1 4367 10 view .LVU2700
	movq	localtz(%rip), %rdi
	leaq	32(%rsp), %rsi
	movq	%r13, %rdx
	call	localtime_rz@PLT
.LVL913:
	.loc 1 4367 7 view .LVU2701
	testq	%rax, %rax
	je	.L898
.LBB1683:
	.loc 1 4369 7 is_stmt 1 view .LVU2702
	.loc 1 4370 7 view .LVU2703
	.loc 1 4375 7 view .LVU2704
	movq	8+current_time(%rip), %rdx
	movq	40(%rsp), %r9
.LBB1684:
.LBB1685:
	.loc 9 66 45 is_stmt 0 view .LVU2705
	xorl	%r8d, %r8d
	movq	current_time(%rip), %rcx
.LVL914:
	.loc 9 66 45 view .LVU2706
	movq	32(%rsp), %rax
.LVL915:
	.loc 9 66 45 view .LVU2707
.LBE1685:
.LBI1684:
	.loc 9 64 1 is_stmt 1 view .LVU2708
.LBB1686:
	.loc 9 66 3 view .LVU2709
	.loc 9 66 45 is_stmt 0 view .LVU2710
	cmpq	%r9, %rdx
	setg	%r8b
	setl	%sil
	.loc 9 66 14 view .LVU2711
	xorl	%edx, %edx
.LVL916:
	.loc 9 66 45 view .LVU2712
	movzbl	%sil, %esi
	movl	%r8d, %edi
	subl	%esi, %edi
.LVL917:
	.loc 9 66 14 view .LVU2713
	cmpq	%rax, %rcx
	setl	%r10b
	setg	%dl
	movzbl	%r10b, %r10d
	subl	%r10d, %edx
	.loc 9 66 43 view .LVU2714
	leal	(%rdi,%rdx,2), %edx
.LBE1686:
.LBE1684:
	.loc 1 4375 10 view .LVU2715
	testl	%edx, %edx
	js	.L972
.L899:
	.loc 1 4382 7 is_stmt 1 view .LVU2716
	.loc 1 4382 51 is_stmt 0 view .LVU2717
	leaq	-15778476(%rcx), %r10
.LVL918:
	.loc 1 4383 7 is_stmt 1 view .LVU2718
	.loc 1 4385 7 view .LVU2719
.LBB1687:
.LBI1687:
	.loc 9 64 1 view .LVU2720
.LBB1688:
	.loc 9 66 3 view .LVU2721
	.loc 9 66 14 is_stmt 0 view .LVU2722
	xorl	%edx, %edx
	cmpq	%rax, %r10
	setl	%r10b
.LVL919:
	.loc 9 66 14 view .LVU2723
	setg	%dl
	movzbl	%r10b, %r10d
	subl	%r10d, %edx
	.loc 9 66 43 view .LVU2724
	leal	(%rdi,%rdx,2), %edi
.LBE1688:
.LBE1687:
	.loc 1 4386 17 view .LVU2725
	xorl	%edx, %edx
	testl	%edi, %edi
	jns	.L900
.LVL920:
.LBB1689:
.LBI1689:
	.loc 9 64 1 is_stmt 1 discriminator 1 view .LVU2726
.LBB1690:
	.loc 9 66 3 discriminator 1 view .LVU2727
	.loc 9 66 14 is_stmt 0 discriminator 1 view .LVU2728
	xorl	%edx, %edx
	cmpq	%rax, %rcx
	setg	%al
	setl	%dl
	.loc 9 66 45 discriminator 1 view .LVU2729
	subl	%r8d, %esi
	.loc 9 66 14 discriminator 1 view .LVU2730
	movzbl	%al, %eax
	subl	%eax, %edx
	.loc 9 66 43 discriminator 1 view .LVU2731
	leal	(%rsi,%rdx,2), %edx
.LBE1690:
.LBE1689:
	.loc 1 4386 17 discriminator 1 view .LVU2732
	shrl	$31, %edx
.L900:
.LVL921:
	.loc 1 4390 7 is_stmt 1 view .LVU2733
.LBB1691:
.LBB1692:
	.loc 1 4080 23 is_stmt 0 view .LVU2734
	cmpb	$0, use_abformat(%rip)
.LBE1692:
.LBE1691:
	.loc 1 4390 11 view .LVU2735
	movq	localtz(%rip), %r8
.LVL922:
.LBB1695:
.LBI1691:
	.loc 1 4075 1 is_stmt 1 view .LVU2736
.LBB1693:
	.loc 1 4078 3 view .LVU2737
	.loc 1 4080 23 is_stmt 0 view .LVU2738
	je	.L901
	leaq	(%rdx,%rdx), %rax
	addq	%rax, %rdx
.LVL923:
	.loc 1 4080 23 view .LVU2739
	movslq	64(%rsp), %rax
	leaq	(%rax,%rdx,4), %rdx
	leaq	abformat(%rip), %rax
	salq	$7, %rdx
	addq	%rax, %rdx
.L902:
.LVL924:
	.loc 1 4081 3 is_stmt 1 view .LVU2740
	.loc 1 4081 10 is_stmt 0 view .LVU2741
	movq	%r13, %rcx
.LVL925:
	.loc 1 4081 10 view .LVU2742
	movl	$1001, %esi
	movq	%rbx, %rdi
	call	nstrftime@PLT
.LVL926:
	.loc 1 4081 10 view .LVU2743
.LBE1693:
.LBE1695:
.LBE1683:
	.loc 1 4394 3 is_stmt 1 view .LVU2744
	.loc 1 4394 6 is_stmt 0 view .LVU2745
	testq	%rax, %rax
	je	.L898
	addq	%rax, %rbx
.LVL927:
	.p2align 4,,10
	.p2align 3
.L903:
	.loc 1 4396 7 is_stmt 1 view .LVU2746
	.loc 1 4397 7 view .LVU2747
	.loc 1 4397 12 is_stmt 0 view .LVU2748
	movl	$32, %ecx
	.loc 1 4397 9 view .LVU2749
	leaq	1(%rbx), %r13
.LVL928:
	.loc 1 4400 7 is_stmt 1 view .LVU2750
	.loc 1 4397 12 is_stmt 0 view .LVU2751
	movw	%cx, (%rbx)
	.loc 1 4400 10 view .LVU2752
	jmp	.L905
.LVL929:
	.p2align 4,,10
	.p2align 3
.L953:
.LBB1697:
	.loc 1 4288 12 discriminator 2 view .LVU2753
	movq	88(%rbp), %rdi
	movq	output_block_size(%rip), %r8
	leaq	224(%rsp), %rsi
	movl	$512, %ecx
	movl	human_output_opts(%rip), %edx
	call	human_readable@PLT
.LVL930:
	movq	%rax, %r15
	jmp	.L879
.LVL931:
	.p2align 4,,10
	.p2align 3
.L971:
	.loc 1 4288 12 discriminator 2 view .LVU2754
.LBE1697:
.LBB1698:
.LBB1665:
	.loc 1 4164 45 view .LVU2755
	xorl	%edi, %edi
	cmpb	$0, numeric_ids(%rip)
	jne	.L889
	.loc 1 4164 47 view .LVU2756
	movl	%esi, %edi
	movq	%rsi, 8(%rsp)
	movl	%edx, 4(%rsp)
	call	getgroup@PLT
.LVL932:
	.loc 1 4164 47 view .LVU2757
	movq	8(%rsp), %rsi
	movl	4(%rsp), %edx
	movq	%rax, %rdi
	jmp	.L889
.LVL933:
	.p2align 4,,10
	.p2align 3
.L967:
	.loc 1 4164 47 view .LVU2758
.LBE1665:
.LBE1698:
.LBB1699:
.LBB1655:
.LBB1650:
.LBB1638:
	.loc 1 4094 7 is_stmt 1 view .LVU2759
	.loc 1 4105 11 is_stmt 0 view .LVU2760
	leaq	112(%rsp), %r14
	movq	localtz(%rip), %rdi
	leaq	24(%rsp), %rsi
	.loc 1 4094 14 view .LVU2761
	movq	$0, 24(%rsp)
	.loc 1 4095 7 is_stmt 1 view .LVU2762
	.loc 1 4096 7 view .LVU2763
	.loc 1 4105 7 view .LVU2764
	.loc 1 4105 11 is_stmt 0 view .LVU2765
	movq	%r14, %rdx
	call	localtime_rz@PLT
.LVL934:
	.loc 1 4105 10 view .LVU2766
	testq	%rax, %rax
	je	.L951
.LBB1639:
	.loc 1 4107 11 is_stmt 1 view .LVU2767
.LBB1640:
.LBB1641:
	.loc 1 4080 23 is_stmt 0 view .LVU2768
	cmpb	$0, use_abformat(%rip)
.LBE1641:
.LBE1640:
	.loc 1 4107 24 view .LVU2769
	movq	localtz(%rip), %r8
.LVL935:
.LBB1644:
.LBI1640:
	.loc 1 4075 1 is_stmt 1 view .LVU2770
.LBB1642:
	.loc 1 4078 3 view .LVU2771
	.loc 1 4080 23 is_stmt 0 view .LVU2772
	movq	long_time_format(%rip), %rdx
	jne	.L973
.L910:
.LVL936:
	.loc 1 4081 3 is_stmt 1 view .LVU2773
	.loc 1 4081 10 is_stmt 0 view .LVU2774
	leaq	224(%rsp), %r15
.LVL937:
	.loc 1 4081 10 view .LVU2775
	xorl	%r9d, %r9d
	movq	%r14, %rcx
	movl	$1001, %esi
	movq	%r15, %rdi
	call	nstrftime@PLT
.LVL938:
	.loc 1 4081 10 view .LVU2776
.LBE1642:
.LBE1644:
	.loc 1 4109 11 is_stmt 1 view .LVU2777
	.loc 1 4109 14 is_stmt 0 view .LVU2778
	testq	%rax, %rax
	jne	.L911
.LVL939:
.L951:
	.loc 1 4109 14 view .LVU2779
	movl	width.11510(%rip), %r8d
.L908:
.LBE1639:
	.loc 1 4113 7 is_stmt 1 view .LVU2780
	.loc 1 4113 10 is_stmt 0 view .LVU2781
	testl	%r8d, %r8d
	jns	.L906
	.loc 1 4114 9 is_stmt 1 view .LVU2782
	.loc 1 4114 15 is_stmt 0 view .LVU2783
	movl	$0, width.11510(%rip)
	xorl	%r8d, %r8d
	jmp	.L906
	.p2align 4,,10
	.p2align 3
.L898:
	.loc 1 4114 15 view .LVU2784
.LBE1638:
.LBE1650:
.LBE1655:
.LBE1699:
	.loc 1 4394 9 view .LVU2785
	cmpb	$0, (%rbx)
	je	.L903
.LBB1700:
	.loc 1 4406 7 is_stmt 1 view .LVU2786
	.loc 1 4407 7 view .LVU2787
	.loc 1 4408 30 is_stmt 0 view .LVU2788
	cmpb	$0, 184(%rbp)
	je	.L927
.LVL940:
.LBB1656:
.LBI1656:
	.loc 2 690 1 is_stmt 1 view .LVU2789
.LBB1657:
	.loc 2 692 3 view .LVU2790
	.loc 2 694 11 is_stmt 0 view .LVU2791
	movq	32(%rsp), %rdi
	leaq	192(%rsp), %rsi
.LVL941:
	.loc 2 694 11 view .LVU2792
	call	imaxtostr@PLT
.LVL942:
	.loc 2 694 11 view .LVU2793
	movq	%rax, %r13
.LVL943:
	.loc 2 694 11 view .LVU2794
.LBE1657:
.LBE1656:
	.loc 1 4407 7 view .LVU2795
	jmp	.L897
.LVL944:
.L901:
	.loc 1 4407 7 view .LVU2796
.LBE1700:
.LBB1701:
.LBB1696:
.LBB1694:
	.loc 1 4080 23 view .LVU2797
	leaq	long_time_format(%rip), %rax
	movq	(%rax,%rdx,8), %rdx
.LVL945:
	.loc 1 4080 23 view .LVU2798
	jmp	.L902
.LVL946:
.L973:
	.loc 1 4080 23 view .LVU2799
.LBE1694:
.LBE1696:
.LBE1701:
.LBB1702:
.LBB1658:
.LBB1651:
.LBB1648:
.LBB1646:
.LBB1645:
.LBB1643:
	movslq	128(%rsp), %rdx
	leaq	abformat(%rip), %rax
	salq	$7, %rdx
	addq	%rax, %rdx
	jmp	.L910
.LVL947:
.L972:
	.loc 1 4080 23 view .LVU2800
.LBE1643:
.LBE1645:
.LBE1646:
.LBE1648:
.LBE1651:
.LBE1658:
.LBE1702:
.LBB1703:
	.loc 1 4376 9 is_stmt 1 view .LVU2801
	leaq	current_time(%rip), %rdi
	call	gettime@PLT
.LVL948:
	movq	8+current_time(%rip), %rdx
	xorl	%r8d, %r8d
	movq	40(%rsp), %r9
	movq	current_time(%rip), %rcx
	movq	32(%rsp), %rax
	cmpq	%r9, %rdx
	setg	%r8b
	setl	%sil
	movzbl	%sil, %esi
	movl	%r8d, %edi
	subl	%esi, %edi
	jmp	.L899
.LVL949:
.L911:
	.loc 1 4376 9 is_stmt 0 view .LVU2802
.LBE1703:
.LBB1704:
.LBB1659:
.LBB1652:
.LBB1649:
.LBB1647:
	.loc 1 4110 13 is_stmt 1 view .LVU2803
	.loc 1 4110 21 is_stmt 0 view .LVU2804
	xorl	%edx, %edx
	movq	%rax, %rsi
	movq	%r15, %rdi
	call	mbsnwidth@PLT
.LVL950:
	.loc 1 4110 19 view .LVU2805
	movl	%eax, width.11510(%rip)
	.loc 1 4110 21 view .LVU2806
	movl	%eax, %r8d
	jmp	.L908
.LVL951:
.L970:
	.loc 1 4110 21 view .LVU2807
.LBE1647:
.LBE1649:
.LBE1652:
.LBE1659:
.LBE1704:
	.loc 1 4430 1 view .LVU2808
	call	__stack_chk_fail@PLT
.LVL952:
.L962:
	.loc 1 4430 1 view .LVU2809
	jmp	.L948
	.cfi_endproc
	.section	.text.unlikely
	.cfi_startproc
	.type	print_long_format.cold, @function
print_long_format.cold:
.LFSB331:
.L948:
	.cfi_def_cfa_offset 4960
	.cfi_offset 3, -56
	.cfi_offset 6, -48
	.cfi_offset 12, -40
	.cfi_offset 13, -32
	.cfi_offset 14, -24
	.cfi_offset 15, -16
	.loc 1 4267 7 is_stmt 1 view .LVU241
	call	abort@PLT
.LVL953:
	.cfi_endproc
.LFE331:
	.text
	.size	print_long_format, .-print_long_format
	.section	.text.unlikely
	.size	print_long_format.cold, .-print_long_format.cold
.LCOLDE18:
	.text
.LHOTE18:
	.p2align 4
	.type	quote_name_width, @function
quote_name_width:
.LVL954:
.LFB333:
	.loc 1 4636 1 view -0
	.cfi_startproc
	.loc 1 4636 1 is_stmt 0 view .LVU2812
	pushq	%rbp
	.cfi_def_cfa_offset 16
	.cfi_offset 6, -16
	pushq	%rbx
	.cfi_def_cfa_offset 24
	.cfi_offset 3, -24
	subq	$4096, %rsp
	.cfi_def_cfa_offset 4120
	orq	$0, (%rsp)
	subq	$4096, %rsp
	.cfi_def_cfa_offset 8216
	orq	$0, (%rsp)
	subq	$56, %rsp
	.cfi_def_cfa_offset 8272
	.loc 1 4636 1 view .LVU2813
	movq	%rdi, %rbx
	.loc 1 4638 9 view .LVU2814
	leaq	32(%rsp), %rbp
	.loc 1 4642 3 view .LVU2815
	leaq	16(%rsp), %rdi
.LVL955:
	.loc 1 4636 1 view .LVU2816
	movl	%edx, %ecx
	movq	%fs:40, %rax
	movq	%rax, 8232(%rsp)
	xorl	%eax, %eax
	.loc 1 4637 3 is_stmt 1 view .LVU2817
	.loc 1 4638 3 view .LVU2818
	.loc 1 4642 3 is_stmt 0 view .LVU2819
	movq	%rsi, %rdx
.LVL956:
	.loc 1 4642 3 view .LVU2820
	leaq	15(%rsp), %r9
	leaq	24(%rsp), %r8
	movq	%rbx, %rsi
.LVL957:
	.loc 1 4638 9 view .LVU2821
	movq	%rbp, 16(%rsp)
	.loc 1 4639 3 is_stmt 1 view .LVU2822
	.loc 1 4640 3 view .LVU2823
	.loc 1 4642 3 view .LVU2824
	call	quote_name_buf.constprop.0
.LVL958:
	.loc 1 4645 3 view .LVU2825
	.loc 1 4645 11 is_stmt 0 view .LVU2826
	movq	16(%rsp), %rdi
	.loc 1 4645 23 view .LVU2827
	cmpq	%rbp, %rdi
	je	.L975
	cmpq	%rbx, %rdi
	je	.L975
	.loc 1 4646 5 is_stmt 1 view .LVU2828
	call	free@PLT
.LVL959:
.L975:
	.loc 1 4648 3 view .LVU2829
	.loc 1 4648 9 is_stmt 0 view .LVU2830
	movzbl	15(%rsp), %eax
	addq	24(%rsp), %rax
	.loc 1 4650 3 is_stmt 1 view .LVU2831
	.loc 1 4651 1 is_stmt 0 view .LVU2832
	movq	8232(%rsp), %rbx
	xorq	%fs:40, %rbx
.LVL960:
	.loc 1 4651 1 view .LVU2833
	jne	.L984
	addq	$8248, %rsp
	.cfi_remember_state
	.cfi_def_cfa_offset 24
	popq	%rbx
	.cfi_def_cfa_offset 16
	popq	%rbp
	.cfi_def_cfa_offset 8
	ret
.L984:
	.cfi_restore_state
	call	__stack_chk_fail@PLT
.LVL961:
	.cfi_endproc
.LFE333:
	.size	quote_name_width, .-quote_name_width
	.p2align 4
	.type	length_of_file_name_and_frills, @function
length_of_file_name_and_frills:
.LVL962:
.LFB344:
	.loc 1 5016 1 is_stmt 1 view -0
	.cfi_startproc
	.loc 1 5016 1 is_stmt 0 view .LVU2835
	pushq	%rbp
	.cfi_def_cfa_offset 16
	.cfi_offset 6, -16
	movq	%rdi, %rbp
	pushq	%rbx
	.cfi_def_cfa_offset 24
	.cfi_offset 3, -24
	subq	$680, %rsp
	.cfi_def_cfa_offset 704
	.loc 1 5016 1 view .LVU2836
	movq	%fs:40, %rax
	movq	%rax, 664(%rsp)
	xorl	%eax, %eax
	.loc 1 5017 3 is_stmt 1 view .LVU2837
.LVL963:
	.loc 1 5018 3 view .LVU2838
	.loc 1 5020 3 view .LVU2839
	.loc 1 5020 6 is_stmt 0 view .LVU2840
	cmpb	$0, print_inode(%rip)
	je	.L998
	.loc 1 5021 5 is_stmt 1 view .LVU2841
	.loc 1 5021 14 is_stmt 0 view .LVU2842
	cmpl	$4, format(%rip)
	je	.L1002
	.loc 1 5021 14 discriminator 2 view .LVU2843
	movslq	inode_number_width(%rip), %rbx
	addq	$1, %rbx
.LVL964:
	.loc 1 5025 3 is_stmt 1 discriminator 2 view .LVU2844
	.loc 1 5025 6 is_stmt 0 discriminator 2 view .LVU2845
	cmpb	$0, print_block_size(%rip)
	je	.L1003
.LVL965:
.L988:
	.loc 1 5026 14 discriminator 1 view .LVU2846
	movslq	block_size_width(%rip), %rax
	addq	$1, %rax
.L992:
	.loc 1 5026 9 discriminator 3 view .LVU2847
	addq	%rax, %rbx
.LVL966:
.L990:
	.loc 1 5033 3 is_stmt 1 view .LVU2848
	.loc 1 5033 6 is_stmt 0 view .LVU2849
	cmpb	$0, print_scontext(%rip)
	jne	.L1004
.L993:
	.loc 1 5036 3 is_stmt 1 view .LVU2850
	.loc 1 5036 10 is_stmt 0 view .LVU2851
	movl	196(%rbp), %edx
	movq	filename_quoting_options(%rip), %rsi
	movq	0(%rbp), %rdi
	call	quote_name_width
.LVL967:
	.loc 1 5036 7 view .LVU2852
	leaq	(%rbx,%rax), %r8
.LVL968:
	.loc 1 5038 3 is_stmt 1 view .LVU2853
	.loc 1 5038 6 is_stmt 0 view .LVU2854
	movl	indicator_style(%rip), %eax
	testl	%eax, %eax
	je	.L985
.LBB1705:
	.loc 1 5040 7 is_stmt 1 view .LVU2855
	.loc 1 5040 16 is_stmt 0 view .LVU2856
	movl	168(%rbp), %edx
	movl	48(%rbp), %esi
	movzbl	184(%rbp), %edi
	call	get_type_indicator
.LVL969:
	.loc 1 5041 7 is_stmt 1 view .LVU2857
	.loc 1 5041 17 is_stmt 0 view .LVU2858
	testb	%al, %al
	setne	%al
.LVL970:
	.loc 1 5041 17 view .LVU2859
	movzbl	%al, %eax
	.loc 1 5041 11 view .LVU2860
	addq	%rax, %r8
.LVL971:
	.loc 1 5041 11 view .LVU2861
.LBE1705:
	.loc 1 5044 3 is_stmt 1 view .LVU2862
.L985:
	.loc 1 5045 1 is_stmt 0 view .LVU2863
	movq	664(%rsp), %rax
	xorq	%fs:40, %rax
	jne	.L1005
	addq	$680, %rsp
	.cfi_remember_state
	.cfi_def_cfa_offset 24
	movq	%r8, %rax
	popq	%rbx
	.cfi_def_cfa_offset 16
	popq	%rbp
	.cfi_def_cfa_offset 8
.LVL972:
	.loc 1 5045 1 view .LVU2864
	ret
.LVL973:
	.p2align 4,,10
	.p2align 3
.L998:
	.cfi_restore_state
	.loc 1 5017 10 view .LVU2865
	xorl	%ebx, %ebx
.LVL974:
.L986:
	.loc 1 5025 3 is_stmt 1 view .LVU2866
	.loc 1 5025 6 is_stmt 0 view .LVU2867
	cmpb	$0, print_block_size(%rip)
	je	.L990
	.loc 1 5026 5 is_stmt 1 view .LVU2868
	.loc 1 5026 14 is_stmt 0 view .LVU2869
	cmpl	$4, format(%rip)
	jne	.L988
	.loc 1 5027 19 view .LVU2870
	cmpb	$0, 184(%rbp)
	movl	$2, %eax
	je	.L992
	.loc 1 5028 29 view .LVU2871
	movq	88(%rbp), %rdi
	movq	output_block_size(%rip), %r8
	movq	%rsp, %rsi
	movl	$512, %ecx
	movl	human_output_opts(%rip), %edx
	call	human_readable@PLT
.LVL975:
	movq	%rax, %rdi
	call	strlen@PLT
.LVL976:
	addq	$1, %rax
	jmp	.L992
	.p2align 4,,10
	.p2align 3
.L1004:
	.loc 1 5034 5 is_stmt 1 view .LVU2872
	.loc 1 5034 14 is_stmt 0 view .LVU2873
	cmpl	$4, format(%rip)
	je	.L1006
.L994:
	.loc 1 5034 14 discriminator 2 view .LVU2874
	movslq	scontext_width(%rip), %rax
	addq	$1, %rax
.L995:
	.loc 1 5034 9 discriminator 4 view .LVU2875
	addq	%rax, %rbx
.LVL977:
	.loc 1 5034 9 discriminator 4 view .LVU2876
	jmp	.L993
.LVL978:
	.p2align 4,,10
	.p2align 3
.L1003:
	.loc 1 5033 3 is_stmt 1 view .LVU2877
	.loc 1 5033 6 is_stmt 0 view .LVU2878
	cmpb	$0, print_scontext(%rip)
	jne	.L994
	jmp	.L993
.LVL979:
	.p2align 4,,10
	.p2align 3
.L1002:
	.loc 1 5022 27 discriminator 1 view .LVU2879
	movq	32(%rdi), %rdi
.LVL980:
	.loc 1 5022 27 discriminator 1 view .LVU2880
	movq	%rsp, %rsi
	call	umaxtostr@PLT
.LVL981:
	movq	%rax, %rdi
	.loc 1 5022 19 discriminator 1 view .LVU2881
	call	strlen@PLT
.LVL982:
	.loc 1 5021 14 discriminator 1 view .LVU2882
	leaq	1(%rax), %rbx
	jmp	.L986
.LVL983:
	.p2align 4,,10
	.p2align 3
.L1006:
	.loc 1 5034 41 discriminator 1 view .LVU2883
	movq	176(%rbp), %rdi
	call	strlen@PLT
.LVL984:
	.loc 1 5034 14 discriminator 1 view .LVU2884
	addq	$1, %rax
	jmp	.L995
.LVL985:
.L1005:
	.loc 1 5045 1 view .LVU2885
	call	__stack_chk_fail@PLT
.LVL986:
	.loc 1 5045 1 view .LVU2886
	.cfi_endproc
.LFE344:
	.size	length_of_file_name_and_frills, .-length_of_file_name_and_frills
	.p2align 4
	.type	calculate_columns, @function
calculate_columns:
.LVL987:
.LFB351:
	.loc 1 5280 1 is_stmt 1 view -0
	.cfi_startproc
	.loc 1 5281 3 view .LVU2888
	.loc 1 5282 3 view .LVU2889
	.loc 1 5287 3 view .LVU2890
	.loc 1 5280 1 is_stmt 0 view .LVU2891
	pushq	%r13
	.cfi_def_cfa_offset 16
	.cfi_offset 13, -16
	pushq	%r12
	.cfi_def_cfa_offset 24
	.cfi_offset 12, -24
	pushq	%rbp
	.cfi_def_cfa_offset 32
	.cfi_offset 6, -32
	movl	%edi, %ebp
	pushq	%rbx
	.cfi_def_cfa_offset 40
	.cfi_offset 3, -40
	subq	$8, %rsp
	.cfi_def_cfa_offset 48
	.loc 1 5287 21 view .LVU2892
	movq	cwd_n_used(%rip), %r9
	movq	max_idx(%rip), %rcx
	.loc 1 5287 10 view .LVU2893
	cmpq	%rcx, %r9
	movq	%rcx, %r12
	cmovbe	%r9, %r12
.LVL988:
	.loc 1 5289 3 is_stmt 1 view .LVU2894
.LBB1720:
.LBI1720:
	.loc 1 5211 1 view .LVU2895
.LBB1721:
	.loc 1 5213 3 view .LVU2896
	.loc 1 5214 3 view .LVU2897
	.loc 1 5217 3 view .LVU2898
	.loc 1 5219 3 view .LVU2899
	.loc 1 5219 6 is_stmt 0 view .LVU2900
	cmpq	column_info_alloc.11911(%rip), %r12
	jbe	.L1008
.LBB1722:
	.loc 1 5221 7 is_stmt 1 view .LVU2901
	.loc 1 5222 7 view .LVU2902
	.loc 1 5224 7 view .LVU2903
	.loc 1 5224 30 is_stmt 0 view .LVU2904
	movq	%rcx, %rax
	movq	column_info(%rip), %rdi
.LVL989:
	.loc 1 5224 30 view .LVU2905
	shrq	%rax
	.loc 1 5224 10 view .LVU2906
	cmpq	%rax, %r12
	jb	.L1057
	.loc 1 5237 11 is_stmt 1 view .LVU2907
.LVL990:
.LBB1723:
.LBI1723:
	.loc 7 112 1 view .LVU2908
.LBB1724:
	.loc 7 114 3 view .LVU2909
	.loc 7 114 7 is_stmt 0 view .LVU2910
	movl	$24, %edx
	movq	%rdx, %rax
	mulq	%rcx
	seto	%dl
	movzbl	%dl, %edx
	testq	%rax, %rax
	js	.L1018
	.loc 7 114 6 view .LVU2911
	testq	%rdx, %rdx
	jne	.L1018
	.loc 7 116 3 is_stmt 1 view .LVU2912
	.loc 7 116 10 is_stmt 0 view .LVU2913
	leaq	(%rcx,%rcx,2), %rsi
	salq	$3, %rsi
	call	xrealloc@PLT
.LVL991:
	.loc 7 116 10 view .LVU2914
.LBE1724:
.LBE1723:
	.loc 1 5238 33 view .LVU2915
	movq	max_idx(%rip), %rbx
	.loc 1 5237 23 view .LVU2916
	movq	%rax, column_info(%rip)
	.loc 1 5238 11 is_stmt 1 view .LVU2917
.LVL992:
.L1014:
.LBB1725:
	.loc 1 5246 9 view .LVU2918
	.loc 1 5246 59 is_stmt 0 view .LVU2919
	movq	column_info_alloc.11911(%rip), %rcx
	.loc 1 5246 16 view .LVU2920
	movq	%rbx, %rdi
	xorl	%eax, %eax
	subq	%rcx, %rdi
.LVL993:
	.loc 1 5247 9 is_stmt 1 view .LVU2921
	addq	$1, %rcx
	addq	%rbx, %rcx
	.loc 1 5248 16 is_stmt 0 view .LVU2922
	movq	%rdi, %rsi
	setc	%al
.LVL994:
	.loc 1 5248 9 is_stmt 1 view .LVU2923
	.loc 1 5248 16 is_stmt 0 view .LVU2924
	imulq	%rcx, %rsi
.LVL995:
	.loc 1 5249 9 is_stmt 1 view .LVU2925
	.loc 1 5249 12 is_stmt 0 view .LVU2926
	testq	%rax, %rax
	jne	.L1018
	.loc 1 5249 44 view .LVU2927
	movq	%rsi, %rax
	xorl	%edx, %edx
	divq	%rdi
	.loc 1 5249 39 view .LVU2928
	cmpq	%rax, %rcx
	jne	.L1018
	.loc 1 5251 9 is_stmt 1 view .LVU2929
	.loc 1 5251 13 is_stmt 0 view .LVU2930
	movq	%rsi, %rdi
.LVL996:
.LBB1726:
.LBB1727:
	.loc 7 101 7 view .LVU2931
	xorl	%eax, %eax
.LBE1727:
.LBE1726:
	.loc 1 5251 13 view .LVU2932
	shrq	%rdi
.LVL997:
.LBB1729:
.LBI1726:
	.loc 7 99 1 is_stmt 1 view .LVU2933
.LBB1728:
	.loc 7 101 3 view .LVU2934
	.loc 7 101 7 is_stmt 0 view .LVU2935
	shrq	$62, %rsi
.LVL998:
	.loc 7 101 7 view .LVU2936
	setne	%al
	salq	$3, %rdi
.LVL999:
	.loc 7 101 7 view .LVU2937
	js	.L1018
	.loc 7 101 6 view .LVU2938
	testq	%rax, %rax
	jne	.L1018
	.loc 7 103 3 is_stmt 1 view .LVU2939
	.loc 7 103 10 is_stmt 0 view .LVU2940
	call	xmalloc@PLT
.LVL1000:
	.loc 7 103 10 view .LVU2941
	movq	%rax, %rdx
.LVL1001:
	.loc 7 103 10 view .LVU2942
.LBE1728:
.LBE1729:
.LBE1725:
	.loc 1 5255 7 is_stmt 1 view .LVU2943
	.loc 1 5255 14 is_stmt 0 view .LVU2944
	movq	column_info_alloc.11911(%rip), %rax
.LVL1002:
	.loc 1 5255 35 is_stmt 1 view .LVU2945
	.loc 1 5255 7 is_stmt 0 view .LVU2946
	cmpq	%rax, %rbx
	jbe	.L1026
	.loc 1 5257 22 view .LVU2947
	movq	column_info(%rip), %rdi
	leaq	8(,%rax,8), %rax
.LVL1003:
	.loc 1 5257 22 view .LVU2948
	leaq	8(,%rbx,8), %rsi
.LVL1004:
	.p2align 4,,10
	.p2align 3
.L1025:
	.loc 1 5257 11 is_stmt 1 view .LVU2949
	.loc 1 5257 34 is_stmt 0 view .LVU2950
	leaq	(%rax,%rax,2), %rcx
	movq	%rdx, -8(%rdi,%rcx)
	.loc 1 5258 11 is_stmt 1 view .LVU2951
	.loc 1 5258 13 is_stmt 0 view .LVU2952
	addq	%rax, %rdx
.LVL1005:
	.loc 1 5255 62 is_stmt 1 view .LVU2953
	.loc 1 5255 35 view .LVU2954
	addq	$8, %rax
	.loc 1 5255 7 is_stmt 0 view .LVU2955
	cmpq	%rsi, %rax
	jne	.L1025
.L1026:
	.loc 1 5261 7 is_stmt 1 view .LVU2956
	.loc 1 5261 25 is_stmt 0 view .LVU2957
	movq	%rbx, column_info_alloc.11911(%rip)
	movq	cwd_n_used(%rip), %r9
.LVL1006:
.L1008:
	.loc 1 5261 25 view .LVU2958
.LBE1722:
	.loc 1 5264 15 is_stmt 1 view .LVU2959
	.loc 1 5264 3 is_stmt 0 view .LVU2960
	testq	%r12, %r12
	je	.L1033
.LBB1734:
	.loc 1 5268 18 view .LVU2961
	movq	column_info(%rip), %rdi
	leaq	3(%r12,%r12,2), %r8
	xorl	%esi, %esi
	movl	$3, %ecx
.LVL1007:
	.p2align 4,,10
	.p2align 3
.L1032:
	.loc 1 5266 7 is_stmt 1 view .LVU2962
	.loc 1 5268 7 view .LVU2963
	movq	-8(%rdi,%rcx,8), %rax
	.loc 1 5268 32 is_stmt 0 view .LVU2964
	movb	$1, -24(%rdi,%rcx,8)
	.loc 1 5269 7 is_stmt 1 view .LVU2965
	addq	$8, %rsi
	.loc 1 5269 31 is_stmt 0 view .LVU2966
	movq	%rcx, -16(%rdi,%rcx,8)
	.loc 1 5270 7 is_stmt 1 view .LVU2967
.LVL1008:
	.loc 1 5270 19 view .LVU2968
	leaq	(%rax,%rsi), %rdx
.LVL1009:
	.p2align 4,,10
	.p2align 3
.L1027:
	.loc 1 5271 9 view .LVU2969
	.loc 1 5271 35 is_stmt 0 view .LVU2970
	movq	$3, (%rax)
	.loc 1 5270 27 is_stmt 1 view .LVU2971
	.loc 1 5270 19 view .LVU2972
	addq	$8, %rax
	.loc 1 5270 7 is_stmt 0 view .LVU2973
	cmpq	%rax, %rdx
	jne	.L1027
.LBE1734:
	.loc 1 5264 15 is_stmt 1 view .LVU2974
	addq	$3, %rcx
	.loc 1 5264 3 is_stmt 0 view .LVU2975
	cmpq	%rcx, %r8
	jne	.L1032
.L1033:
.LVL1010:
	.loc 1 5264 3 view .LVU2976
.LBE1721:
.LBE1720:
	.loc 1 5292 21 is_stmt 1 view .LVU2977
	.loc 1 5292 16 is_stmt 0 view .LVU2978
	xorl	%ebx, %ebx
	.loc 1 5292 3 view .LVU2979
	testq	%r9, %r9
	je	.L1031
.LVL1011:
	.p2align 4,,10
	.p2align 3
.L1030:
.LBB1737:
	.loc 1 5294 7 is_stmt 1 view .LVU2980
	.loc 1 5295 7 view .LVU2981
	.loc 1 5294 30 is_stmt 0 view .LVU2982
	movq	sorted_file(%rip), %rax
	.loc 1 5295 28 view .LVU2983
	movq	(%rax,%rbx,8), %rdi
	call	length_of_file_name_and_frills
.LVL1012:
.LBB1738:
.LBB1739:
	.loc 1 5302 54 view .LVU2984
	movq	cwd_n_used(%rip), %r10
.LBE1739:
.LBE1738:
	.loc 1 5295 28 view .LVU2985
	movq	%rax, %r8
.LVL1013:
	.loc 1 5297 7 is_stmt 1 view .LVU2986
.LBB1743:
	.loc 1 5297 12 view .LVU2987
	.loc 1 5297 26 view .LVU2988
	.loc 1 5297 7 is_stmt 0 view .LVU2989
	testq	%r12, %r12
	je	.L1042
.LBB1740:
	.loc 1 5312 47 view .LVU2990
	movq	line_length(%rip), %r11
	movq	column_info(%rip), %rsi
.LBE1740:
	.loc 1 5297 19 view .LVU2991
	xorl	%ecx, %ecx
	leaq	2(%rax), %r9
	jmp	.L1041
.LVL1014:
	.p2align 4,,10
	.p2align 3
.L1058:
.LBB1741:
	.loc 1 5302 59 discriminator 1 view .LVU2992
	leaq	-1(%r10,%rcx), %rax
	xorl	%edx, %edx
	divq	%rcx
	.loc 1 5303 29 discriminator 1 view .LVU2993
	xorl	%edx, %edx
	.loc 1 5302 59 discriminator 1 view .LVU2994
	movq	%rax, %r13
	.loc 1 5303 29 discriminator 1 view .LVU2995
	movq	%rbx, %rax
	divq	%r13
	movq	%rax, %r13
.L1039:
.LVL1015:
	.loc 1 5304 15 is_stmt 1 view .LVU2996
	.loc 1 5306 41 is_stmt 0 view .LVU2997
	movq	16(%rsi), %rdx
	cmpq	%rdi, %r13
	movq	%r8, %rax
	cmovne	%r9, %rax
	.loc 1 5306 15 is_stmt 1 view .LVU2998
	.loc 1 5306 41 is_stmt 0 view .LVU2999
	leaq	(%rdx,%r13,8), %rdi
.LVL1016:
	.loc 1 5306 41 view .LVU3000
	movq	(%rdi), %rdx
	.loc 1 5306 18 view .LVU3001
	cmpq	%rax, %rdx
	jnb	.L1037
	.loc 1 5308 19 is_stmt 1 view .LVU3002
	.loc 1 5308 43 is_stmt 0 view .LVU3003
	movq	8(%rsi), %r13
.LVL1017:
	.loc 1 5308 43 view .LVU3004
	subq	%rdx, %r13
	movq	%r13, %rdx
	addq	%rax, %rdx
	movq	%rdx, 8(%rsi)
	.loc 1 5310 19 is_stmt 1 view .LVU3005
	.loc 1 5310 47 is_stmt 0 view .LVU3006
	movq	%rax, (%rdi)
	.loc 1 5311 19 is_stmt 1 view .LVU3007
	.loc 1 5312 47 is_stmt 0 view .LVU3008
	cmpq	%r11, 8(%rsi)
	.loc 1 5311 44 view .LVU3009
	setb	(%rsi)
.L1037:
	.loc 1 5311 44 view .LVU3010
.LBE1741:
	.loc 1 5297 40 is_stmt 1 discriminator 2 view .LVU3011
.LVL1018:
	.loc 1 5297 26 discriminator 2 view .LVU3012
	addq	$24, %rsi
	.loc 1 5297 7 is_stmt 0 discriminator 2 view .LVU3013
	cmpq	%rcx, %r12
	je	.L1042
.LVL1019:
.L1041:
	.loc 1 5299 11 is_stmt 1 view .LVU3014
	movq	%rcx, %rdi
	addq	$1, %rcx
.LVL1020:
	.loc 1 5299 14 is_stmt 0 view .LVU3015
	cmpb	$0, (%rsi)
	je	.L1037
.LBB1742:
	.loc 1 5301 15 is_stmt 1 view .LVU3016
	.loc 1 5303 29 is_stmt 0 view .LVU3017
	testb	%bpl, %bpl
	jne	.L1058
	.loc 1 5303 29 discriminator 2 view .LVU3018
	movq	%rbx, %rax
	xorl	%edx, %edx
	divq	%rcx
	movq	%rdx, %r13
	jmp	.L1039
.LVL1021:
	.p2align 4,,10
	.p2align 3
.L1042:
	.loc 1 5303 29 discriminator 2 view .LVU3019
.LBE1742:
.LBE1743:
.LBE1737:
	.loc 1 5292 43 is_stmt 1 discriminator 2 view .LVU3020
	addq	$1, %rbx
.LVL1022:
	.loc 1 5292 21 discriminator 2 view .LVU3021
	.loc 1 5292 3 is_stmt 0 discriminator 2 view .LVU3022
	cmpq	%r10, %rbx
	jb	.L1030
.LVL1023:
.L1031:
	.loc 1 5319 25 is_stmt 1 view .LVU3023
	.loc 1 5319 3 is_stmt 0 view .LVU3024
	cmpq	$1, %r12
	jbe	.L1007
	movq	column_info(%rip), %rdx
	leaq	(%r12,%r12,2), %rax
	leaq	-24(%rdx,%rax,8), %rax
	jmp	.L1043
.LVL1024:
	.p2align 4,,10
	.p2align 3
.L1059:
	.loc 1 5319 35 is_stmt 1 discriminator 2 view .LVU3025
	subq	$1, %r12
.LVL1025:
	.loc 1 5319 25 discriminator 2 view .LVU3026
	subq	$24, %rax
	.loc 1 5319 3 is_stmt 0 discriminator 2 view .LVU3027
	cmpq	$1, %r12
	je	.L1007
.L1043:
	.loc 1 5321 7 is_stmt 1 view .LVU3028
	.loc 1 5321 10 is_stmt 0 view .LVU3029
	cmpb	$0, (%rax)
	je	.L1059
.L1007:
	.loc 1 5326 1 view .LVU3030
	addq	$8, %rsp
	.cfi_remember_state
	.cfi_def_cfa_offset 40
	movq	%r12, %rax
	popq	%rbx
	.cfi_def_cfa_offset 32
	popq	%rbp
	.cfi_def_cfa_offset 24
.LVL1026:
	.loc 1 5326 1 view .LVU3031
	popq	%r12
	.cfi_def_cfa_offset 16
.LVL1027:
	.loc 1 5326 1 view .LVU3032
	popq	%r13
	.cfi_def_cfa_offset 8
	ret
.LVL1028:
.L1057:
	.cfi_restore_state
.LBB1744:
.LBB1736:
.LBB1735:
	.loc 1 5231 11 is_stmt 1 view .LVU3033
.LBB1730:
.LBI1730:
	.loc 7 112 1 view .LVU3034
.LBB1731:
	.loc 7 114 3 view .LVU3035
	.loc 7 114 7 is_stmt 0 view .LVU3036
	movl	$48, %edx
	movq	%rdx, %rax
	mulq	%r12
	seto	%dl
	movzbl	%dl, %edx
	testq	%rax, %rax
	js	.L1018
	.loc 7 114 6 view .LVU3037
	testq	%rdx, %rdx
	jne	.L1018
	.loc 7 116 3 is_stmt 1 view .LVU3038
	.loc 7 116 10 is_stmt 0 view .LVU3039
	leaq	(%r12,%r12), %rbx
	leaq	(%rbx,%r12), %rsi
	salq	$4, %rsi
	call	xrealloc@PLT
.LVL1029:
	.loc 7 116 10 view .LVU3040
.LBE1731:
.LBE1730:
	.loc 1 5231 23 view .LVU3041
	movq	%rax, column_info(%rip)
	.loc 1 5233 11 is_stmt 1 view .LVU3042
.LVL1030:
	.loc 1 5233 11 is_stmt 0 view .LVU3043
	jmp	.L1014
.LVL1031:
.L1018:
.LBB1733:
.LBB1732:
	.loc 7 115 5 is_stmt 1 view .LVU3044
	call	xalloc_die@PLT
.LVL1032:
.LBE1732:
.LBE1733:
.LBE1735:
.LBE1736:
.LBE1744:
	.cfi_endproc
.LFE351:
	.size	calculate_columns, .-calculate_columns
	.p2align 4
	.type	print_with_separator, @function
print_with_separator:
.LVL1033:
.LFB347:
	.loc 1 5126 1 view -0
	.cfi_startproc
	.loc 1 5127 3 view .LVU3046
	.loc 1 5128 3 view .LVU3047
	.loc 1 5130 3 view .LVU3048
	.loc 1 5130 21 view .LVU3049
	.loc 1 5126 1 is_stmt 0 view .LVU3050
	pushq	%r15
	.cfi_def_cfa_offset 16
	.cfi_offset 15, -16
	pushq	%r14
	.cfi_def_cfa_offset 24
	.cfi_offset 14, -24
	pushq	%r13
	.cfi_def_cfa_offset 32
	.cfi_offset 13, -32
	pushq	%r12
	.cfi_def_cfa_offset 40
	.cfi_offset 12, -40
	pushq	%rbp
	.cfi_def_cfa_offset 48
	.cfi_offset 6, -48
	pushq	%rbx
	.cfi_def_cfa_offset 56
	.cfi_offset 3, -56
	subq	$24, %rsp
	.cfi_def_cfa_offset 80
	.loc 1 5130 3 view .LVU3051
	cmpq	$0, cwd_n_used(%rip)
	je	.L1072
	movsbl	%dil, %r15d
	xorl	%r13d, %r13d
	xorl	%ebx, %ebx
	movl	%r15d, %r14d
	jmp	.L1061
.LVL1034:
	.p2align 4,,10
	.p2align 3
.L1064:
.LBB1745:
	.loc 1 5135 7 is_stmt 1 view .LVU3052
	.loc 1 5135 10 is_stmt 0 view .LVU3053
	movq	%r13, %rbp
	testq	%rbx, %rbx
	jne	.L1085
.LVL1035:
.L1066:
	.loc 1 5156 7 is_stmt 1 discriminator 2 view .LVU3054
	movq	%rbp, %rsi
	movq	%r12, %rdi
.LBE1745:
	.loc 1 5130 50 is_stmt 0 discriminator 2 view .LVU3055
	addq	$1, %rbx
.LVL1036:
.LBB1757:
	.loc 1 5156 7 discriminator 2 view .LVU3056
	call	print_file_name_and_frills
.LVL1037:
	.loc 1 5157 7 is_stmt 1 discriminator 2 view .LVU3057
	.loc 1 5157 7 is_stmt 0 discriminator 2 view .LVU3058
.LBE1757:
	.loc 1 5130 43 is_stmt 1 discriminator 2 view .LVU3059
	.loc 1 5130 21 discriminator 2 view .LVU3060
	.loc 1 5130 3 is_stmt 0 discriminator 2 view .LVU3061
	cmpq	%rbx, cwd_n_used(%rip)
	jbe	.L1072
.LVL1038:
.L1061:
.LBB1758:
	.loc 1 5132 7 is_stmt 1 view .LVU3062
	.loc 1 5132 30 is_stmt 0 view .LVU3063
	movq	sorted_file(%rip), %rax
	.loc 1 5133 69 view .LVU3064
	cmpq	$0, line_length(%rip)
	.loc 1 5132 30 view .LVU3065
	movq	(%rax,%rbx,8), %r12
.LVL1039:
	.loc 1 5133 7 is_stmt 1 view .LVU3066
	.loc 1 5133 69 is_stmt 0 view .LVU3067
	je	.L1064
	.loc 1 5133 34 discriminator 1 view .LVU3068
	movq	%r12, %rdi
	call	length_of_file_name_and_frills
.LVL1040:
	.loc 1 5135 7 is_stmt 1 discriminator 1 view .LVU3069
	.loc 1 5135 10 is_stmt 0 discriminator 1 view .LVU3070
	testq	%rbx, %rbx
	je	.L1086
.LBB1746:
	.loc 1 5137 11 is_stmt 1 view .LVU3071
	.loc 1 5139 11 view .LVU3072
	.loc 1 5139 15 is_stmt 0 view .LVU3073
	movq	line_length(%rip), %rdx
	leaq	2(%r13), %rbp
	leaq	(%rax,%rbp), %rcx
	.loc 1 5139 14 view .LVU3074
	testq	%rdx, %rdx
	je	.L1074
	.loc 1 5140 15 view .LVU3075
	cmpq	%rcx, %rdx
	jbe	.L1076
	.loc 1 5141 45 view .LVU3076
	movq	$-3, %rdx
	subq	%rax, %rdx
	.loc 1 5141 19 view .LVU3077
	cmpq	%r13, %rdx
	jb	.L1076
.L1074:
	movq	%rcx, %r13
.LVL1041:
	.p2align 4,,10
	.p2align 3
.L1067:
	.loc 1 5143 15 is_stmt 1 view .LVU3078
	.loc 1 5144 15 view .LVU3079
	.loc 1 5144 25 is_stmt 0 view .LVU3080
	movl	$32, %r8d
	movl	$32, %edx
.LVL1042:
.L1068:
	.loc 1 5152 11 is_stmt 1 view .LVU3081
.LBB1747:
.LBI1747:
	.loc 8 108 1 view .LVU3082
.LBB1748:
	.loc 8 110 3 view .LVU3083
	.loc 8 110 10 is_stmt 0 view .LVU3084
	movq	stdout(%rip), %rdi
	movq	40(%rdi), %rax
	cmpq	48(%rdi), %rax
	jnb	.L1087
	leaq	1(%rax), %rcx
	movq	%rcx, 40(%rdi)
	movb	%r14b, (%rax)
.LVL1043:
.L1070:
	.loc 8 110 10 view .LVU3085
.LBE1748:
.LBE1747:
	.loc 1 5153 11 is_stmt 1 view .LVU3086
.LBB1750:
.LBI1750:
	.loc 8 108 1 view .LVU3087
.LBB1751:
	.loc 8 110 3 view .LVU3088
	.loc 8 110 10 is_stmt 0 view .LVU3089
	movq	stdout(%rip), %rdi
	movq	40(%rdi), %rax
	cmpq	48(%rdi), %rax
	jnb	.L1088
	leaq	1(%rax), %rcx
	movq	%rcx, 40(%rdi)
	movb	%dl, (%rax)
	jmp	.L1066
.LVL1044:
	.p2align 4,,10
	.p2align 3
.L1085:
	.loc 8 110 10 view .LVU3090
	leaq	2(%r13), %rbp
.LVL1045:
	.loc 8 110 10 view .LVU3091
.LBE1751:
.LBE1750:
.LBE1746:
	.loc 1 5135 10 view .LVU3092
	movq	%rbp, %r13
.LVL1046:
	.loc 1 5135 10 view .LVU3093
	jmp	.L1067
.LVL1047:
	.p2align 4,,10
	.p2align 3
.L1076:
.LBB1755:
	.loc 1 5135 10 view .LVU3094
	movq	%rax, %r13
.LVL1048:
	.loc 1 5135 10 view .LVU3095
	movl	$10, %r8d
	.loc 1 5149 25 view .LVU3096
	movl	$10, %edx
	.loc 1 5148 19 view .LVU3097
	xorl	%ebp, %ebp
.LVL1049:
	.loc 1 5148 19 view .LVU3098
	jmp	.L1068
.LVL1050:
	.p2align 4,,10
	.p2align 3
.L1072:
	.loc 1 5148 19 view .LVU3099
.LBE1755:
.LBE1758:
	.loc 1 5159 3 is_stmt 1 view .LVU3100
.LBB1759:
.LBI1759:
	.loc 8 108 1 view .LVU3101
.LBB1760:
	.loc 8 110 3 view .LVU3102
	.loc 8 110 10 is_stmt 0 view .LVU3103
	movq	stdout(%rip), %rdi
	movq	40(%rdi), %rax
	cmpq	48(%rdi), %rax
	jnb	.L1089
	leaq	1(%rax), %rdx
	movq	%rdx, 40(%rdi)
	movb	$10, (%rax)
.LVL1051:
	.loc 8 110 10 view .LVU3104
.LBE1760:
.LBE1759:
	.loc 1 5160 1 view .LVU3105
	addq	$24, %rsp
	.cfi_remember_state
	.cfi_def_cfa_offset 56
	popq	%rbx
	.cfi_def_cfa_offset 48
	popq	%rbp
	.cfi_def_cfa_offset 40
	popq	%r12
	.cfi_def_cfa_offset 32
	popq	%r13
	.cfi_def_cfa_offset 24
	popq	%r14
	.cfi_def_cfa_offset 16
	popq	%r15
	.cfi_def_cfa_offset 8
	ret
.LVL1052:
	.p2align 4,,10
	.p2align 3
.L1086:
	.cfi_restore_state
.LBB1763:
	.loc 1 5135 10 view .LVU3106
	movq	%r13, %rbp
	addq	%rax, %r13
.LVL1053:
	.loc 1 5135 10 view .LVU3107
	jmp	.L1066
.LVL1054:
	.p2align 4,,10
	.p2align 3
.L1087:
.LBB1756:
.LBB1753:
.LBB1749:
	.loc 8 110 10 view .LVU3108
	movl	%r15d, %esi
	movl	%r8d, 12(%rsp)
	movb	%dl, 11(%rsp)
	call	__overflow@PLT
.LVL1055:
	.loc 8 110 10 view .LVU3109
	movzbl	11(%rsp), %edx
	movl	12(%rsp), %r8d
	jmp	.L1070
.LVL1056:
	.p2align 4,,10
	.p2align 3
.L1088:
	.loc 8 110 10 view .LVU3110
.LBE1749:
.LBE1753:
.LBB1754:
.LBB1752:
	movl	%r8d, %esi
	call	__overflow@PLT
.LVL1057:
	.loc 8 110 10 view .LVU3111
	jmp	.L1066
.LVL1058:
	.p2align 4,,10
	.p2align 3
.L1089:
	.loc 8 110 10 view .LVU3112
.LBE1752:
.LBE1754:
.LBE1756:
.LBE1763:
	.loc 1 5160 1 view .LVU3113
	addq	$24, %rsp
	.cfi_def_cfa_offset 56
.LBB1764:
.LBB1761:
	.loc 8 110 10 view .LVU3114
	movl	$10, %esi
.LBE1761:
.LBE1764:
	.loc 1 5160 1 view .LVU3115
	popq	%rbx
	.cfi_def_cfa_offset 48
	popq	%rbp
	.cfi_def_cfa_offset 40
	popq	%r12
	.cfi_def_cfa_offset 32
	popq	%r13
	.cfi_def_cfa_offset 24
	popq	%r14
	.cfi_def_cfa_offset 16
	popq	%r15
	.cfi_def_cfa_offset 8
.LBB1765:
.LBB1762:
	.loc 8 110 10 view .LVU3116
	jmp	__overflow@PLT
.LVL1059:
.LBE1762:
.LBE1765:
	.cfi_endproc
.LFE347:
	.size	print_with_separator, .-print_with_separator
	.p2align 4
	.type	print_current_files, @function
print_current_files:
.LFB321:
	.loc 1 4028 1 is_stmt 1 view -0
	.cfi_startproc
	.loc 1 4029 3 view .LVU3118
	.loc 1 4031 3 view .LVU3119
	cmpl	$4, format(%rip)
	ja	.L1128
	.loc 1 4028 1 is_stmt 0 view .LVU3120
	pushq	%r15
	.cfi_def_cfa_offset 16
	.cfi_offset 15, -16
	leaq	.L1093(%rip), %rdx
	pushq	%r14
	.cfi_def_cfa_offset 24
	.cfi_offset 14, -24
	pushq	%r13
	.cfi_def_cfa_offset 32
	.cfi_offset 13, -32
	pushq	%r12
	.cfi_def_cfa_offset 40
	.cfi_offset 12, -40
	pushq	%rbp
	.cfi_def_cfa_offset 48
	.cfi_offset 6, -48
	pushq	%rbx
	.cfi_def_cfa_offset 56
	.cfi_offset 3, -56
	subq	$40, %rsp
	.cfi_def_cfa_offset 96
	movl	format(%rip), %eax
	movslq	(%rdx,%rax,4), %rax
	addq	%rdx, %rax
	notrack jmp	*%rax
	.section	.rodata
	.align 4
	.align 4
.L1093:
	.long	.L1097-.L1093
	.long	.L1096-.L1093
	.long	.L1095-.L1093
	.long	.L1094-.L1093
	.long	.L1092-.L1093
	.text
	.p2align 4,,10
	.p2align 3
.L1094:
	.loc 1 4049 7 is_stmt 1 view .LVU3121
	.loc 1 4049 10 is_stmt 0 view .LVU3122
	cmpq	$0, line_length(%rip)
	je	.L1109
	.loc 1 4052 9 is_stmt 1 view .LVU3123
.LBB1783:
.LBI1783:
	.loc 1 5084 1 view .LVU3124
.LBB1784:
	.loc 1 5086 3 view .LVU3125
	.loc 1 5087 3 view .LVU3126
.LVL1060:
	.loc 1 5088 3 view .LVU3127
	.loc 1 5088 17 is_stmt 0 view .LVU3128
	xorl	%edi, %edi
	call	calculate_columns
.LVL1061:
	.loc 1 5089 52 view .LVU3129
	leaq	(%rax,%rax,2), %rdx
	.loc 1 5088 17 view .LVU3130
	movq	%rax, 8(%rsp)
.LVL1062:
	.loc 1 5089 3 is_stmt 1 view .LVU3131
	.loc 1 5089 29 is_stmt 0 view .LVU3132
	movq	column_info(%rip), %rax
.LVL1063:
	.loc 1 5089 29 view .LVU3133
	leaq	-24(%rax,%rdx,8), %r14
.LVL1064:
	.loc 1 5090 3 is_stmt 1 view .LVU3134
	.loc 1 5090 26 is_stmt 0 view .LVU3135
	movq	sorted_file(%rip), %rax
	movq	(%rax), %rbp
.LVL1065:
	.loc 1 5091 3 is_stmt 1 view .LVU3136
	.loc 1 5091 24 is_stmt 0 view .LVU3137
	movq	%rbp, %rdi
	call	length_of_file_name_and_frills
.LVL1066:
	.loc 1 5095 3 view .LVU3138
	xorl	%esi, %esi
	movq	%rbp, %rdi
	.loc 1 5091 24 view .LVU3139
	movq	%rax, %r15
.LVL1067:
	.loc 1 5092 3 is_stmt 1 view .LVU3140
	.loc 1 5092 10 is_stmt 0 view .LVU3141
	movq	16(%r14), %rax
.LVL1068:
	.loc 1 5092 10 view .LVU3142
	movq	(%rax), %r12
.LVL1069:
	.loc 1 5095 3 is_stmt 1 view .LVU3143
	call	print_file_name_and_frills
.LVL1070:
	.loc 1 5098 3 view .LVU3144
	.loc 1 5098 21 view .LVU3145
	.loc 1 5098 3 is_stmt 0 view .LVU3146
	cmpq	$1, cwd_n_used(%rip)
	jbe	.L1110
	.loc 1 5087 10 view .LVU3147
	xorl	%r13d, %r13d
	.loc 1 5098 16 view .LVU3148
	movl	$1, %ebx
	jmp	.L1114
.LVL1071:
	.p2align 4,,10
	.p2align 3
.L1133:
.LBB1785:
	.loc 1 5104 11 is_stmt 1 view .LVU3149
.LBB1786:
.LBI1786:
	.loc 8 108 1 view .LVU3150
.LBB1787:
	.loc 8 110 3 view .LVU3151
	.loc 8 110 10 is_stmt 0 view .LVU3152
	movq	stdout(%rip), %rdi
	movq	40(%rdi), %rax
	cmpq	48(%rdi), %rax
	jnb	.L1132
	leaq	1(%rax), %rdx
.LVL1072:
	.loc 8 110 10 view .LVU3153
.LBE1787:
.LBE1786:
	.loc 1 5105 15 view .LVU3154
	xorl	%r13d, %r13d
.LVL1073:
.LBB1791:
.LBB1788:
	.loc 8 110 10 view .LVU3155
	movq	%rdx, 40(%rdi)
	movb	$10, (%rax)
.LVL1074:
.L1113:
	.loc 8 110 10 view .LVU3156
.LBE1788:
.LBE1791:
	.loc 1 5113 7 is_stmt 1 view .LVU3157
	.loc 1 5113 9 is_stmt 0 view .LVU3158
	movq	sorted_file(%rip), %rax
	.loc 1 5114 7 view .LVU3159
	movq	%r13, %rsi
	.loc 1 5113 9 view .LVU3160
	movq	(%rax,%rbx,8), %r12
.LVL1075:
	.loc 1 5114 7 is_stmt 1 view .LVU3161
.LBE1785:
	.loc 1 5098 43 is_stmt 0 view .LVU3162
	addq	$1, %rbx
.LVL1076:
.LBB1794:
	.loc 1 5114 7 view .LVU3163
	movq	%r12, %rdi
	call	print_file_name_and_frills
.LVL1077:
	.loc 1 5116 7 is_stmt 1 view .LVU3164
	.loc 1 5116 21 is_stmt 0 view .LVU3165
	movq	%r12, %rdi
	call	length_of_file_name_and_frills
.LVL1078:
	.loc 1 5117 23 view .LVU3166
	movq	16(%r14), %rdx
.LBE1794:
	.loc 1 5098 3 view .LVU3167
	cmpq	cwd_n_used(%rip), %rbx
.LBB1795:
	.loc 1 5116 21 view .LVU3168
	movq	%rax, %r15
.LVL1079:
	.loc 1 5117 7 is_stmt 1 view .LVU3169
	.loc 1 5117 23 is_stmt 0 view .LVU3170
	movq	(%rdx,%rbp,8), %r12
.LVL1080:
	.loc 1 5117 23 view .LVU3171
.LBE1795:
	.loc 1 5098 43 is_stmt 1 view .LVU3172
	.loc 1 5098 21 view .LVU3173
	.loc 1 5098 3 is_stmt 0 view .LVU3174
	jnb	.L1110
.LVL1081:
.L1114:
.LBB1796:
	.loc 1 5100 7 is_stmt 1 view .LVU3175
	.loc 1 5100 14 is_stmt 0 view .LVU3176
	movq	%rbx, %rax
	xorl	%edx, %edx
	divq	8(%rsp)
	movq	%rdx, %rbp
.LVL1082:
	.loc 1 5102 7 is_stmt 1 view .LVU3177
	.loc 1 5102 10 is_stmt 0 view .LVU3178
	testq	%rdx, %rdx
	je	.L1133
	.loc 1 5109 11 is_stmt 1 view .LVU3179
	addq	%r13, %r12
.LVL1083:
	.loc 1 5109 11 is_stmt 0 view .LVU3180
	leaq	(%r15,%r13), %rdi
	movq	%r12, %rsi
	.loc 1 5110 15 view .LVU3181
	movq	%r12, %r13
.LVL1084:
	.loc 1 5109 11 view .LVU3182
	call	indent
.LVL1085:
	.loc 1 5110 11 is_stmt 1 view .LVU3183
	.loc 1 5110 11 is_stmt 0 view .LVU3184
	jmp	.L1113
.LVL1086:
	.p2align 4,,10
	.p2align 3
.L1092:
	.loc 1 5110 11 view .LVU3185
.LBE1796:
.LBE1784:
.LBE1783:
	.loc 1 4056 7 is_stmt 1 view .LVU3186
	movl	$44, %edi
.L1131:
	.loc 1 4068 1 is_stmt 0 view .LVU3187
	addq	$40, %rsp
	.cfi_remember_state
	.cfi_def_cfa_offset 56
	popq	%rbx
	.cfi_restore 3
	.cfi_def_cfa_offset 48
	popq	%rbp
	.cfi_restore 6
	.cfi_def_cfa_offset 40
	popq	%r12
	.cfi_restore 12
	.cfi_def_cfa_offset 32
	popq	%r13
	.cfi_restore 13
	.cfi_def_cfa_offset 24
	popq	%r14
	.cfi_restore 14
	.cfi_def_cfa_offset 16
	popq	%r15
	.cfi_restore 15
	.cfi_def_cfa_offset 8
	.loc 1 4056 7 view .LVU3188
	jmp	print_with_separator
.LVL1087:
	.p2align 4,,10
	.p2align 3
.L1097:
	.cfi_restore_state
	.loc 1 4060 19 is_stmt 1 view .LVU3189
	.loc 1 4060 14 is_stmt 0 view .LVU3190
	xorl	%ebx, %ebx
	.loc 1 4060 7 view .LVU3191
	cmpq	$0, cwd_n_used(%rip)
	je	.L1090
.LVL1088:
	.p2align 4,,10
	.p2align 3
.L1099:
	.loc 1 4062 11 is_stmt 1 discriminator 3 view .LVU3192
	call	set_normal_color
.LVL1089:
	.loc 1 4063 11 discriminator 3 view .LVU3193
	movq	sorted_file(%rip), %rax
	movq	(%rax,%rbx,8), %rdi
	call	print_long_format
.LVL1090:
	.loc 1 4064 11 discriminator 3 view .LVU3194
	.loc 1 4064 11 discriminator 3 view .LVU3195
.LBB1808:
.LBI1808:
	.loc 8 108 1 discriminator 3 view .LVU3196
.LBB1809:
	.loc 8 110 3 discriminator 3 view .LVU3197
	.loc 8 110 10 is_stmt 0 discriminator 3 view .LVU3198
	movq	stdout(%rip), %rdi
	movq	40(%rdi), %rax
	cmpq	48(%rdi), %rax
	jnb	.L1134
	.loc 8 110 10 view .LVU3199
	leaq	1(%rax), %rdx
	movq	%rdx, 40(%rdi)
	movb	$10, (%rax)
.L1117:
.LVL1091:
	.loc 8 110 10 view .LVU3200
.LBE1809:
.LBE1808:
	.loc 1 4064 11 is_stmt 1 view .LVU3201
	addq	$1, dired_pos(%rip)
	.loc 1 4064 11 view .LVU3202
	.loc 1 4060 35 view .LVU3203
	.loc 1 4060 36 is_stmt 0 view .LVU3204
	addq	$1, %rbx
.LVL1092:
	.loc 1 4060 19 is_stmt 1 view .LVU3205
	.loc 1 4060 7 is_stmt 0 view .LVU3206
	cmpq	%rbx, cwd_n_used(%rip)
	ja	.L1099
	jmp	.L1090
.LVL1093:
	.p2align 4,,10
	.p2align 3
.L1096:
	.loc 1 4034 19 is_stmt 1 view .LVU3207
	.loc 1 4034 14 is_stmt 0 view .LVU3208
	xorl	%ebx, %ebx
	.loc 1 4034 7 view .LVU3209
	cmpq	$0, cwd_n_used(%rip)
	je	.L1090
.LVL1094:
	.p2align 4,,10
	.p2align 3
.L1098:
	.loc 1 4036 11 is_stmt 1 discriminator 3 view .LVU3210
	movq	sorted_file(%rip), %rax
	xorl	%esi, %esi
	movq	(%rax,%rbx,8), %rdi
	call	print_file_name_and_frills
.LVL1095:
	.loc 1 4037 11 discriminator 3 view .LVU3211
.LBB1811:
.LBI1811:
	.loc 8 108 1 discriminator 3 view .LVU3212
.LBB1812:
	.loc 8 110 3 discriminator 3 view .LVU3213
	.loc 8 110 10 is_stmt 0 discriminator 3 view .LVU3214
	movq	stdout(%rip), %rdi
	movq	40(%rdi), %rax
	cmpq	48(%rdi), %rax
	jnb	.L1135
	.loc 8 110 10 view .LVU3215
	leaq	1(%rax), %rdx
	movq	%rdx, 40(%rdi)
	movb	$10, (%rax)
.L1102:
.LVL1096:
	.loc 8 110 10 view .LVU3216
.LBE1812:
.LBE1811:
	.loc 1 4034 35 is_stmt 1 view .LVU3217
	.loc 1 4034 36 is_stmt 0 view .LVU3218
	addq	$1, %rbx
.LVL1097:
	.loc 1 4034 19 is_stmt 1 view .LVU3219
	.loc 1 4034 7 is_stmt 0 view .LVU3220
	cmpq	%rbx, cwd_n_used(%rip)
	ja	.L1098
	jmp	.L1090
.LVL1098:
	.p2align 4,,10
	.p2align 3
.L1095:
	.loc 1 4042 7 is_stmt 1 view .LVU3221
	.loc 1 4042 10 is_stmt 0 view .LVU3222
	cmpq	$0, line_length(%rip)
	je	.L1109
	.loc 1 4045 9 is_stmt 1 view .LVU3223
.LBB1814:
.LBI1814:
	.loc 1 5048 1 view .LVU3224
.LBB1815:
	.loc 1 5050 3 view .LVU3225
	.loc 1 5051 3 view .LVU3226
	.loc 1 5051 17 is_stmt 0 view .LVU3227
	movl	$1, %edi
	.loc 1 5056 56 view .LVU3228
	xorl	%r14d, %r14d
	.loc 1 5051 17 view .LVU3229
	call	calculate_columns
.LVL1099:
	.loc 1 5058 12 view .LVU3230
	movq	$0, 16(%rsp)
	.loc 1 5052 52 view .LVU3231
	leaq	(%rax,%rax,2), %rdx
	.loc 1 5051 17 view .LVU3232
	movq	%rax, %rcx
.LVL1100:
	.loc 1 5052 3 is_stmt 1 view .LVU3233
	.loc 1 5052 29 is_stmt 0 view .LVU3234
	movq	column_info(%rip), %rax
.LVL1101:
	.loc 1 5052 29 view .LVU3235
	leaq	-24(%rax,%rdx,8), %r15
.LVL1102:
	.loc 1 5056 3 is_stmt 1 view .LVU3236
	movq	cwd_n_used(%rip), %rax
	xorl	%edx, %edx
	divq	%rcx
	.loc 1 5056 56 is_stmt 0 view .LVU3237
	testq	%rdx, %rdx
	setne	%r14b
.LVL1103:
	.loc 1 5058 3 is_stmt 1 view .LVU3238
	.loc 1 5058 17 view .LVU3239
	.loc 1 5058 3 is_stmt 0 view .LVU3240
	addq	%rax, %r14
.LVL1104:
	.loc 1 5058 3 view .LVU3241
	movq	%r14, 24(%rsp)
	je	.L1090
.LVL1105:
	.p2align 4,,10
	.p2align 3
.L1104:
.LBB1816:
.LBB1817:
	.loc 1 5077 15 view .LVU3242
	movq	16(%rsp), %r13
	xorl	%r12d, %r12d
.LBE1817:
	.loc 1 5062 14 view .LVU3243
	xorl	%r14d, %r14d
	jmp	.L1106
.LVL1106:
	.p2align 4,,10
	.p2align 3
.L1136:
.LBB1818:
	.loc 1 5076 11 is_stmt 1 view .LVU3244
	addq	%r14, %rbp
.LVL1107:
	.loc 1 5076 11 is_stmt 0 view .LVU3245
	leaq	(%rbx,%r14), %rdi
	movq	%rbp, %rsi
	.loc 1 5077 15 view .LVU3246
	movq	%rbp, %r14
.LVL1108:
	.loc 1 5076 11 view .LVU3247
	call	indent
.LVL1109:
	.loc 1 5077 11 is_stmt 1 view .LVU3248
	.loc 1 5077 11 is_stmt 0 view .LVU3249
.LBE1818:
	.loc 1 5065 13 is_stmt 1 view .LVU3250
.L1106:
	.loc 1 5065 7 view .LVU3251
.LBB1819:
	.loc 1 5067 11 view .LVU3252
	.loc 1 5067 34 is_stmt 0 view .LVU3253
	movq	sorted_file(%rip), %rax
	movq	(%rax,%r13,8), %rdi
.LVL1110:
	.loc 1 5068 11 is_stmt 1 view .LVU3254
	.loc 1 5068 32 is_stmt 0 view .LVU3255
	movq	%rdi, 8(%rsp)
	call	length_of_file_name_and_frills
.LVL1111:
	.loc 1 5070 11 view .LVU3256
	movq	8(%rsp), %rdi
	movq	%r14, %rsi
	.loc 1 5068 32 view .LVU3257
	movq	%rax, %rbx
.LVL1112:
	.loc 1 5069 11 is_stmt 1 view .LVU3258
	.loc 1 5069 18 is_stmt 0 view .LVU3259
	movq	16(%r15), %rax
.LVL1113:
	.loc 1 5069 18 view .LVU3260
	movq	(%rax,%r12), %rbp
.LVL1114:
	.loc 1 5070 11 is_stmt 1 view .LVU3261
	addq	$8, %r12
	call	print_file_name_and_frills
.LVL1115:
	.loc 1 5072 11 view .LVU3262
	.loc 1 5072 19 is_stmt 0 view .LVU3263
	addq	24(%rsp), %r13
.LVL1116:
	.loc 1 5073 11 is_stmt 1 view .LVU3264
	.loc 1 5073 14 is_stmt 0 view .LVU3265
	cmpq	cwd_n_used(%rip), %r13
	jb	.L1136
.LBE1819:
	.loc 1 5079 7 is_stmt 1 view .LVU3266
.LVL1117:
.LBB1820:
.LBI1820:
	.loc 8 108 1 view .LVU3267
.LBB1821:
	.loc 8 110 3 view .LVU3268
	.loc 8 110 10 is_stmt 0 view .LVU3269
	movq	stdout(%rip), %rdi
	movq	40(%rdi), %rax
	cmpq	48(%rdi), %rax
	jnb	.L1137
	leaq	1(%rax), %rdx
	movq	%rdx, 40(%rdi)
	movb	$10, (%rax)
.L1108:
.LVL1118:
	.loc 8 110 10 view .LVU3270
.LBE1821:
.LBE1820:
.LBE1816:
	.loc 1 5058 29 is_stmt 1 view .LVU3271
	.loc 1 5058 32 is_stmt 0 view .LVU3272
	addq	$1, 16(%rsp)
.LVL1119:
	.loc 1 5058 32 view .LVU3273
	movq	16(%rsp), %rax
.LVL1120:
	.loc 1 5058 17 is_stmt 1 view .LVU3274
	.loc 1 5058 3 is_stmt 0 view .LVU3275
	cmpq	%rax, 24(%rsp)
	jne	.L1104
.LVL1121:
.L1090:
	.loc 1 5058 3 view .LVU3276
.LBE1815:
.LBE1814:
	.loc 1 4068 1 view .LVU3277
	addq	$40, %rsp
	.cfi_remember_state
	.cfi_def_cfa_offset 56
	popq	%rbx
	.cfi_def_cfa_offset 48
	popq	%rbp
	.cfi_def_cfa_offset 40
	popq	%r12
	.cfi_def_cfa_offset 32
	popq	%r13
	.cfi_def_cfa_offset 24
	popq	%r14
	.cfi_def_cfa_offset 16
	popq	%r15
	.cfi_def_cfa_offset 8
	ret
	.p2align 4,,10
	.p2align 3
.L1109:
	.cfi_restore_state
	.loc 1 4043 9 is_stmt 1 view .LVU3278
	movl	$32, %edi
	jmp	.L1131
.LVL1122:
	.p2align 4,,10
	.p2align 3
.L1135:
.LBB1826:
.LBB1813:
	.loc 8 110 10 is_stmt 0 view .LVU3279
	movl	$10, %esi
	call	__overflow@PLT
.LVL1123:
	jmp	.L1102
.LVL1124:
	.p2align 4,,10
	.p2align 3
.L1134:
	.loc 8 110 10 view .LVU3280
.LBE1813:
.LBE1826:
.LBB1827:
.LBB1810:
	movl	$10, %esi
	call	__overflow@PLT
.LVL1125:
	jmp	.L1117
.LVL1126:
	.p2align 4,,10
	.p2align 3
.L1110:
	.loc 8 110 10 view .LVU3281
.LBE1810:
.LBE1827:
.LBB1828:
.LBB1804:
	.loc 1 5119 3 is_stmt 1 view .LVU3282
.LBB1797:
.LBI1797:
	.loc 8 108 1 view .LVU3283
.LBB1798:
	.loc 8 110 3 view .LVU3284
	.loc 8 110 10 is_stmt 0 view .LVU3285
	movq	stdout(%rip), %rdi
	movq	40(%rdi), %rax
	cmpq	48(%rdi), %rax
	jnb	.L1138
	leaq	1(%rax), %rdx
	movq	%rdx, 40(%rdi)
	movb	$10, (%rax)
	jmp	.L1090
.LVL1127:
	.p2align 4,,10
	.p2align 3
.L1137:
	.loc 8 110 10 view .LVU3286
.LBE1798:
.LBE1797:
.LBE1804:
.LBE1828:
.LBB1829:
.LBB1825:
.LBB1824:
.LBB1823:
.LBB1822:
	movl	$10, %esi
	call	__overflow@PLT
.LVL1128:
	jmp	.L1108
.LVL1129:
	.p2align 4,,10
	.p2align 3
.L1132:
	.loc 8 110 10 view .LVU3287
.LBE1822:
.LBE1823:
.LBE1824:
.LBE1825:
.LBE1829:
.LBB1830:
.LBB1805:
.LBB1801:
.LBB1792:
.LBB1789:
	movl	$10, %esi
.LBE1789:
.LBE1792:
	.loc 1 5105 15 view .LVU3288
	xorl	%r13d, %r13d
.LVL1130:
.LBB1793:
.LBB1790:
	.loc 8 110 10 view .LVU3289
	call	__overflow@PLT
.LVL1131:
	.loc 8 110 10 view .LVU3290
	jmp	.L1113
.LVL1132:
.L1138:
	.loc 8 110 10 view .LVU3291
.LBE1790:
.LBE1793:
.LBE1801:
.LBE1805:
.LBE1830:
	.loc 1 4068 1 view .LVU3292
	addq	$40, %rsp
	.cfi_def_cfa_offset 56
.LBB1831:
.LBB1806:
.LBB1802:
.LBB1799:
	.loc 8 110 10 view .LVU3293
	movl	$10, %esi
.LBE1799:
.LBE1802:
.LBE1806:
.LBE1831:
	.loc 1 4068 1 view .LVU3294
	popq	%rbx
	.cfi_restore 3
	.cfi_def_cfa_offset 48
	popq	%rbp
	.cfi_restore 6
	.cfi_def_cfa_offset 40
	popq	%r12
	.cfi_restore 12
	.cfi_def_cfa_offset 32
.LVL1133:
	.loc 1 4068 1 view .LVU3295
	popq	%r13
	.cfi_restore 13
	.cfi_def_cfa_offset 24
	popq	%r14
	.cfi_restore 14
	.cfi_def_cfa_offset 16
.LVL1134:
	.loc 1 4068 1 view .LVU3296
	popq	%r15
	.cfi_restore 15
	.cfi_def_cfa_offset 8
.LVL1135:
.LBB1832:
.LBB1807:
.LBB1803:
.LBB1800:
	.loc 8 110 10 view .LVU3297
	jmp	__overflow@PLT
.LVL1136:
.L1128:
	.loc 8 110 10 view .LVU3298
	ret
.LBE1800:
.LBE1803:
.LBE1807:
.LBE1832:
	.cfi_endproc
.LFE321:
	.size	print_current_files, .-print_current_files
	.p2align 4
	.type	rev_strcmp_df_size, @function
rev_strcmp_df_size:
.LVL1137:
.LFB297:
	.loc 1 3884 1 is_stmt 1 view -0
	.cfi_startproc
	.loc 1 3884 1 is_stmt 0 view .LVU3300
	endbr64
	.loc 1 3884 1 is_stmt 1 view .LVU3301
.LBB1849:
	.loc 1 3884 1 view .LVU3302
.LBE1849:
	movq	%rsi, %rax
.LBB1860:
	movl	168(%rdi), %esi
.LVL1138:
.LBB1850:
.LBI1850:
	.loc 1 3626 1 view .LVU3303
.LBB1851:
	.loc 1 3628 3 view .LVU3304
	movl	168(%rax), %ecx
	cmpl	$9, %ecx
	sete	%dl
	cmpl	$3, %ecx
	sete	%cl
	orl	%ecx, %edx
	.loc 1 3629 10 is_stmt 0 view .LVU3305
	cmpl	$3, %esi
	je	.L1140
	cmpl	$9, %esi
	je	.L1140
	.loc 1 3629 13 view .LVU3306
	movl	172(%rdi), %ecx
	andl	$61440, %ecx
.LVL1139:
	.loc 1 3629 13 view .LVU3307
.LBE1851:
.LBE1850:
	.loc 1 3884 1 is_stmt 1 view .LVU3308
.LBB1852:
.LBI1852:
	.loc 1 3626 1 view .LVU3309
.LBB1853:
	.loc 1 3628 3 view .LVU3310
	.loc 1 3629 10 is_stmt 0 view .LVU3311
	testb	%dl, %dl
	je	.L1159
.L1141:
.LVL1140:
	.loc 1 3629 10 view .LVU3312
.LBE1853:
.LBE1852:
	.loc 1 3884 1 is_stmt 1 view .LVU3313
	.loc 1 3884 1 view .LVU3314
	cmpl	$16384, %ecx
	je	.L1145
	movl	$1, %eax
.LVL1141:
	.loc 1 3884 1 is_stmt 0 view .LVU3315
	ret
.LVL1142:
	.p2align 4,,10
	.p2align 3
.L1140:
	.loc 1 3884 1 is_stmt 1 view .LVU3316
.LBB1857:
	.loc 1 3626 1 view .LVU3317
.LBB1854:
	.loc 1 3628 3 view .LVU3318
	.loc 1 3629 10 is_stmt 0 view .LVU3319
	testb	%dl, %dl
	je	.L1160
.LVL1143:
.L1145:
	.loc 1 3629 10 view .LVU3320
.LBE1854:
.LBE1857:
.LBE1860:
.LBB1861:
.LBI1861:
	.loc 1 3884 1 is_stmt 1 view .LVU3321
.LBB1862:
	.loc 1 3884 1 view .LVU3322
	.loc 1 3884 1 view .LVU3323
.LBB1863:
.LBI1863:
	.loc 1 3853 1 view .LVU3324
.LBB1864:
	.loc 1 3856 3 view .LVU3325
	.loc 1 3856 14 is_stmt 0 view .LVU3326
	movq	72(%rdi), %rdx
	cmpq	%rdx, 72(%rax)
	jg	.L1158
.LVL1144:
	.loc 1 3857 3 is_stmt 1 view .LVU3327
	.loc 1 3857 22 is_stmt 0 view .LVU3328
	jne	.L1161
.LVL1145:
.LBB1865:
.LBI1865:
	.loc 1 3853 1 is_stmt 1 view .LVU3329
.LBB1866:
	.loc 1 3857 24 is_stmt 0 view .LVU3330
	movq	(%rdi), %rsi
	movq	(%rax), %rdi
.LVL1146:
	.loc 1 3857 24 view .LVU3331
	jmp	strcmp@PLT
.LVL1147:
	.p2align 4,,10
	.p2align 3
.L1161:
	.loc 1 3857 24 view .LVU3332
.LBE1866:
.LBE1865:
	.loc 1 3856 14 view .LVU3333
	setl	%al
.LVL1148:
	.loc 1 3856 14 view .LVU3334
	movzbl	%al, %eax
	ret
.LVL1149:
	.p2align 4,,10
	.p2align 3
.L1159:
	.loc 1 3856 14 view .LVU3335
.LBE1864:
.LBE1863:
.LBE1862:
.LBE1861:
.LBB1873:
.LBB1858:
.LBB1855:
	.loc 1 3629 13 view .LVU3336
	movl	172(%rax), %edx
	andl	$61440, %edx
	.loc 1 3629 10 view .LVU3337
	cmpl	$16384, %edx
	je	.L1141
.LVL1150:
	.loc 1 3629 10 view .LVU3338
.LBE1855:
.LBE1858:
	.loc 1 3884 1 is_stmt 1 view .LVU3339
	cmpl	$16384, %ecx
	jne	.L1145
.LVL1151:
.L1158:
	.loc 1 3884 1 is_stmt 0 view .LVU3340
.LBE1873:
.LBB1874:
.LBB1871:
.LBB1869:
.LBB1867:
	.loc 1 3856 14 view .LVU3341
	movl	$-1, %eax
.LVL1152:
	.loc 1 3856 14 view .LVU3342
.LBE1867:
.LBE1869:
.LBE1871:
.LBE1874:
	.loc 1 3884 1 view .LVU3343
	ret
.LVL1153:
	.p2align 4,,10
	.p2align 3
.L1160:
.LBB1875:
.LBB1859:
.LBB1856:
	.loc 1 3629 13 view .LVU3344
	movl	172(%rax), %edx
	andl	$61440, %edx
	.loc 1 3629 10 view .LVU3345
	cmpl	$16384, %edx
	je	.L1145
.LBE1856:
.LBE1859:
.LBE1875:
.LBB1876:
.LBB1872:
.LBB1870:
.LBB1868:
	.loc 1 3856 14 view .LVU3346
	movl	$-1, %eax
.LVL1154:
	.loc 1 3856 14 view .LVU3347
.LBE1868:
.LBE1870:
.LBE1872:
.LBE1876:
	.loc 1 3884 1 view .LVU3348
	ret
	.cfi_endproc
.LFE297:
	.size	rev_strcmp_df_size, .-rev_strcmp_df_size
	.p2align 4
	.type	xstrcoll_size, @function
xstrcoll_size:
.LVL1155:
.LFB290:
	.loc 1 3884 1 is_stmt 1 view -0
	.cfi_startproc
	.loc 1 3884 1 is_stmt 0 view .LVU3350
	endbr64
	.loc 1 3884 1 is_stmt 1 view .LVU3351
.LVL1156:
.LBB1881:
.LBI1881:
	.loc 1 3853 1 view .LVU3352
.LBB1882:
	.loc 1 3856 3 view .LVU3353
	.loc 1 3856 14 is_stmt 0 view .LVU3354
	movq	72(%rsi), %rax
	cmpq	%rax, 72(%rdi)
	jg	.L1165
.LVL1157:
	.loc 1 3857 3 is_stmt 1 view .LVU3355
	.loc 1 3857 22 is_stmt 0 view .LVU3356
	jne	.L1166
.LVL1158:
.LBB1883:
.LBI1883:
	.loc 1 3853 1 is_stmt 1 view .LVU3357
.LBB1884:
	.loc 1 3857 24 is_stmt 0 view .LVU3358
	movq	(%rsi), %rsi
.LVL1159:
	.loc 1 3857 24 view .LVU3359
	movq	(%rdi), %rdi
.LVL1160:
	.loc 1 3857 24 view .LVU3360
	jmp	xstrcoll
.LVL1161:
	.p2align 4,,10
	.p2align 3
.L1166:
	.loc 1 3857 24 view .LVU3361
.LBE1884:
.LBE1883:
	.loc 1 3856 14 view .LVU3362
	setl	%al
.LVL1162:
	.loc 1 3856 14 view .LVU3363
	movzbl	%al, %eax
	ret
.LVL1163:
	.p2align 4,,10
	.p2align 3
.L1165:
	.loc 1 3856 14 view .LVU3364
	movl	$-1, %eax
.LVL1164:
	.loc 1 3856 14 view .LVU3365
.LBE1882:
.LBE1881:
	.loc 1 3884 1 view .LVU3366
	ret
	.cfi_endproc
.LFE290:
	.size	xstrcoll_size, .-xstrcoll_size
	.p2align 4
	.type	xstrcoll_df_size, @function
xstrcoll_df_size:
.LVL1165:
.LFB294:
	.loc 1 3884 1 is_stmt 1 view -0
	.cfi_startproc
	.loc 1 3884 1 is_stmt 0 view .LVU3368
	endbr64
	.loc 1 3884 1 is_stmt 1 view .LVU3369
.LBB1901:
	.loc 1 3884 1 view .LVU3370
	movl	168(%rsi), %edx
	movl	168(%rdi), %ecx
.LBB1902:
.LBI1902:
	.loc 1 3626 1 view .LVU3371
.LVL1166:
.LBB1903:
	.loc 1 3628 3 view .LVU3372
	cmpl	$3, %edx
	sete	%al
	cmpl	$9, %edx
	sete	%dl
	orl	%edx, %eax
	.loc 1 3629 10 is_stmt 0 view .LVU3373
	cmpl	$3, %ecx
	je	.L1168
	cmpl	$9, %ecx
	je	.L1168
	.loc 1 3629 13 view .LVU3374
	movl	172(%rdi), %edx
	andl	$61440, %edx
.LVL1167:
	.loc 1 3629 13 view .LVU3375
.LBE1903:
.LBE1902:
	.loc 1 3884 1 is_stmt 1 view .LVU3376
.LBB1904:
.LBI1904:
	.loc 1 3626 1 view .LVU3377
.LBB1905:
	.loc 1 3628 3 view .LVU3378
	.loc 1 3629 10 is_stmt 0 view .LVU3379
	testb	%al, %al
	je	.L1187
.L1169:
.LVL1168:
	.loc 1 3629 10 view .LVU3380
.LBE1905:
.LBE1904:
	.loc 1 3884 1 is_stmt 1 view .LVU3381
	.loc 1 3884 1 view .LVU3382
	cmpl	$16384, %edx
	je	.L1173
	movl	$1, %eax
	ret
.LVL1169:
	.p2align 4,,10
	.p2align 3
.L1168:
	.loc 1 3884 1 view .LVU3383
.LBB1909:
	.loc 1 3626 1 view .LVU3384
.LBB1906:
	.loc 1 3628 3 view .LVU3385
	.loc 1 3629 10 is_stmt 0 view .LVU3386
	testb	%al, %al
	je	.L1188
.LVL1170:
.L1173:
	.loc 1 3629 10 view .LVU3387
.LBE1906:
.LBE1909:
.LBE1901:
.LBB1912:
.LBI1912:
	.loc 1 3884 1 is_stmt 1 view .LVU3388
.LBB1913:
	.loc 1 3884 1 view .LVU3389
	.loc 1 3884 1 view .LVU3390
.LBB1914:
.LBI1914:
	.loc 1 3853 1 view .LVU3391
.LBB1915:
	.loc 1 3856 3 view .LVU3392
	.loc 1 3856 14 is_stmt 0 view .LVU3393
	movq	72(%rsi), %rax
	cmpq	%rax, 72(%rdi)
	jg	.L1186
.LVL1171:
	.loc 1 3857 3 is_stmt 1 view .LVU3394
	.loc 1 3857 22 is_stmt 0 view .LVU3395
	jne	.L1189
.LVL1172:
.LBB1916:
.LBI1916:
	.loc 1 3853 1 is_stmt 1 view .LVU3396
.LBB1917:
	.loc 1 3857 24 is_stmt 0 view .LVU3397
	movq	(%rsi), %rsi
.LVL1173:
	.loc 1 3857 24 view .LVU3398
	movq	(%rdi), %rdi
.LVL1174:
	.loc 1 3857 24 view .LVU3399
	jmp	xstrcoll
.LVL1175:
	.p2align 4,,10
	.p2align 3
.L1189:
	.loc 1 3857 24 view .LVU3400
.LBE1917:
.LBE1916:
	.loc 1 3856 14 view .LVU3401
	setl	%al
.LVL1176:
	.loc 1 3856 14 view .LVU3402
	movzbl	%al, %eax
	ret
.LVL1177:
	.p2align 4,,10
	.p2align 3
.L1187:
	.loc 1 3856 14 view .LVU3403
.LBE1915:
.LBE1914:
.LBE1913:
.LBE1912:
.LBB1924:
.LBB1910:
.LBB1907:
	.loc 1 3629 13 view .LVU3404
	movl	172(%rsi), %eax
	andl	$61440, %eax
	.loc 1 3629 10 view .LVU3405
	cmpl	$16384, %eax
	je	.L1169
.LVL1178:
	.loc 1 3629 10 view .LVU3406
.LBE1907:
.LBE1910:
	.loc 1 3884 1 is_stmt 1 view .LVU3407
	cmpl	$16384, %edx
	jne	.L1173
.LVL1179:
.L1186:
	.loc 1 3884 1 is_stmt 0 view .LVU3408
.LBE1924:
.LBB1925:
.LBB1922:
.LBB1920:
.LBB1918:
	.loc 1 3856 14 view .LVU3409
	movl	$-1, %eax
.LBE1918:
.LBE1920:
.LBE1922:
.LBE1925:
	.loc 1 3884 1 view .LVU3410
	ret
.LVL1180:
	.p2align 4,,10
	.p2align 3
.L1188:
.LBB1926:
.LBB1911:
.LBB1908:
	.loc 1 3629 13 view .LVU3411
	movl	172(%rsi), %eax
	andl	$61440, %eax
	.loc 1 3629 10 view .LVU3412
	cmpl	$16384, %eax
	je	.L1173
.LBE1908:
.LBE1911:
.LBE1926:
.LBB1927:
.LBB1923:
.LBB1921:
.LBB1919:
	.loc 1 3856 14 view .LVU3413
	movl	$-1, %eax
.LBE1919:
.LBE1921:
.LBE1923:
.LBE1927:
	.loc 1 3884 1 view .LVU3414
	ret
	.cfi_endproc
.LFE294:
	.size	xstrcoll_df_size, .-xstrcoll_df_size
	.p2align 4
	.type	strcmp_df_size, @function
strcmp_df_size:
.LVL1181:
.LFB295:
	.loc 1 3884 1 is_stmt 1 view -0
	.cfi_startproc
	.loc 1 3884 1 is_stmt 0 view .LVU3416
	endbr64
	.loc 1 3884 1 is_stmt 1 view .LVU3417
.LBB1944:
	.loc 1 3884 1 view .LVU3418
	movl	168(%rsi), %edx
	movl	168(%rdi), %ecx
.LBB1945:
.LBI1945:
	.loc 1 3626 1 view .LVU3419
.LVL1182:
.LBB1946:
	.loc 1 3628 3 view .LVU3420
	cmpl	$9, %edx
	sete	%al
	cmpl	$3, %edx
	sete	%dl
	orl	%edx, %eax
	.loc 1 3629 10 is_stmt 0 view .LVU3421
	cmpl	$3, %ecx
	je	.L1191
	cmpl	$9, %ecx
	je	.L1191
	.loc 1 3629 13 view .LVU3422
	movl	172(%rdi), %edx
	andl	$61440, %edx
.LVL1183:
	.loc 1 3629 13 view .LVU3423
.LBE1946:
.LBE1945:
	.loc 1 3884 1 is_stmt 1 view .LVU3424
.LBB1947:
.LBI1947:
	.loc 1 3626 1 view .LVU3425
.LBB1948:
	.loc 1 3628 3 view .LVU3426
	.loc 1 3629 10 is_stmt 0 view .LVU3427
	testb	%al, %al
	je	.L1210
.L1192:
.LVL1184:
	.loc 1 3629 10 view .LVU3428
.LBE1948:
.LBE1947:
	.loc 1 3884 1 is_stmt 1 view .LVU3429
	.loc 1 3884 1 view .LVU3430
	cmpl	$16384, %edx
	je	.L1196
	movl	$1, %eax
	ret
.LVL1185:
	.p2align 4,,10
	.p2align 3
.L1191:
	.loc 1 3884 1 view .LVU3431
.LBB1952:
	.loc 1 3626 1 view .LVU3432
.LBB1949:
	.loc 1 3628 3 view .LVU3433
	.loc 1 3629 10 is_stmt 0 view .LVU3434
	testb	%al, %al
	je	.L1211
.LVL1186:
.L1196:
	.loc 1 3629 10 view .LVU3435
.LBE1949:
.LBE1952:
.LBE1944:
.LBB1955:
.LBI1955:
	.loc 1 3884 1 is_stmt 1 view .LVU3436
.LBB1956:
	.loc 1 3884 1 view .LVU3437
	.loc 1 3884 1 view .LVU3438
.LBB1957:
.LBI1957:
	.loc 1 3853 1 view .LVU3439
.LBB1958:
	.loc 1 3856 3 view .LVU3440
	.loc 1 3856 14 is_stmt 0 view .LVU3441
	movq	72(%rsi), %rax
	cmpq	%rax, 72(%rdi)
	jg	.L1209
.LVL1187:
	.loc 1 3857 3 is_stmt 1 view .LVU3442
	.loc 1 3857 22 is_stmt 0 view .LVU3443
	jne	.L1212
.LVL1188:
.LBB1959:
.LBI1959:
	.loc 1 3853 1 is_stmt 1 view .LVU3444
.LBB1960:
	.loc 1 3857 24 is_stmt 0 view .LVU3445
	movq	(%rsi), %rsi
.LVL1189:
	.loc 1 3857 24 view .LVU3446
	movq	(%rdi), %rdi
.LVL1190:
	.loc 1 3857 24 view .LVU3447
	jmp	strcmp@PLT
.LVL1191:
	.p2align 4,,10
	.p2align 3
.L1212:
	.loc 1 3857 24 view .LVU3448
.LBE1960:
.LBE1959:
	.loc 1 3856 14 view .LVU3449
	setl	%al
.LVL1192:
	.loc 1 3856 14 view .LVU3450
	movzbl	%al, %eax
	ret
.LVL1193:
	.p2align 4,,10
	.p2align 3
.L1210:
	.loc 1 3856 14 view .LVU3451
.LBE1958:
.LBE1957:
.LBE1956:
.LBE1955:
.LBB1967:
.LBB1953:
.LBB1950:
	.loc 1 3629 13 view .LVU3452
	movl	172(%rsi), %eax
	andl	$61440, %eax
	.loc 1 3629 10 view .LVU3453
	cmpl	$16384, %eax
	je	.L1192
.LVL1194:
	.loc 1 3629 10 view .LVU3454
.LBE1950:
.LBE1953:
	.loc 1 3884 1 is_stmt 1 view .LVU3455
	cmpl	$16384, %edx
	jne	.L1196
.LVL1195:
.L1209:
	.loc 1 3884 1 is_stmt 0 view .LVU3456
.LBE1967:
.LBB1968:
.LBB1965:
.LBB1963:
.LBB1961:
	.loc 1 3856 14 view .LVU3457
	movl	$-1, %eax
.LBE1961:
.LBE1963:
.LBE1965:
.LBE1968:
	.loc 1 3884 1 view .LVU3458
	ret
.LVL1196:
	.p2align 4,,10
	.p2align 3
.L1211:
.LBB1969:
.LBB1954:
.LBB1951:
	.loc 1 3629 13 view .LVU3459
	movl	172(%rsi), %eax
	andl	$61440, %eax
	.loc 1 3629 10 view .LVU3460
	cmpl	$16384, %eax
	je	.L1196
.LBE1951:
.LBE1954:
.LBE1969:
.LBB1970:
.LBB1966:
.LBB1964:
.LBB1962:
	.loc 1 3856 14 view .LVU3461
	movl	$-1, %eax
.LBE1962:
.LBE1964:
.LBE1966:
.LBE1970:
	.loc 1 3884 1 view .LVU3462
	ret
