	.file	"md5sum.c"
	.text
.Ltext0:
	.p2align 4
	.type	filename_unescape, @function
filename_unescape:
.LVL0:
.LFB140:
	.file 1 "src/md5sum.c"
	.loc 1 313 1 view -0
	.cfi_startproc
	.loc 1 314 3 view .LVU1
	.loc 1 316 3 view .LVU2
.LBB122:
	.loc 1 316 8 view .LVU3
	.loc 1 316 22 view .LVU4
	leaq	1(%rdi), %rcx
	.loc 1 316 15 is_stmt 0 view .LVU5
	xorl	%edx, %edx
	.loc 1 321 26 view .LVU6
	leaq	-1(%rsi), %r8
	.loc 1 316 3 view .LVU7
	testq	%rsi, %rsi
	je	.L14
.LVL1:
.L7:
	.loc 1 318 7 is_stmt 1 view .LVU8
	.loc 1 318 16 is_stmt 0 view .LVU9
	movzbl	(%rdi,%rdx), %eax
	.loc 1 318 7 view .LVU10
	testb	%al, %al
	je	.L11
	cmpb	$92, %al
	jne	.L4
	.loc 1 321 11 is_stmt 1 view .LVU11
	.loc 1 321 14 is_stmt 0 view .LVU12
	cmpq	%rdx, %r8
	je	.L11
	.loc 1 326 11 is_stmt 1 view .LVU13
	addq	$1, %rdx
.LVL2:
	.loc 1 327 11 view .LVU14
	.loc 1 327 20 is_stmt 0 view .LVU15
	movzbl	(%rdi,%rdx), %eax
	cmpb	$92, %al
	je	.L5
	cmpb	$110, %al
	je	.L16
.L11:
	.loc 1 327 20 view .LVU16
	xorl	%eax, %eax
.LBE122:
	.loc 1 354 1 view .LVU17
	ret
	.p2align 4,,10
	.p2align 3
.L4:
.LBB123:
	.loc 1 346 11 is_stmt 1 view .LVU18
	.loc 1 346 18 is_stmt 0 view .LVU19
	movb	%al, -1(%rcx)
	.loc 1 346 15 view .LVU20
	movq	%rcx, %r9
.LVL3:
	.loc 1 347 11 is_stmt 1 view .LVU21
.L6:
	.loc 1 316 33 discriminator 2 view .LVU22
	.loc 1 316 34 is_stmt 0 discriminator 2 view .LVU23
	addq	$1, %rdx
.LVL4:
	.loc 1 316 22 is_stmt 1 discriminator 2 view .LVU24
	addq	$1, %rcx
.LVL5:
	.loc 1 316 3 is_stmt 0 discriminator 2 view .LVU25
	cmpq	%rdx, %rsi
	ja	.L7
.LBE123:
	.loc 1 350 3 is_stmt 1 view .LVU26
	.loc 1 350 15 is_stmt 0 view .LVU27
	addq	%rdi, %rsi
.LVL6:
	.loc 1 350 6 view .LVU28
	cmpq	%rsi, %r9
	jnb	.L14
	.loc 1 351 5 is_stmt 1 view .LVU29
	.loc 1 351 10 is_stmt 0 view .LVU30
	movb	$0, (%r9)
.LVL7:
.L14:
	.loc 1 353 10 view .LVU31
	movq	%rdi, %rax
	ret
.LVL8:
	.p2align 4,,10
	.p2align 3
.L16:
.LBB124:
	.loc 1 330 15 is_stmt 1 view .LVU32
	.loc 1 330 22 is_stmt 0 view .LVU33
	movb	$10, -1(%rcx)
	.loc 1 330 19 view .LVU34
	movq	%rcx, %r9
.LVL9:
	.loc 1 331 15 is_stmt 1 view .LVU35
	jmp	.L6
.LVL10:
	.p2align 4,,10
	.p2align 3
.L5:
	.loc 1 333 15 view .LVU36
	.loc 1 333 22 is_stmt 0 view .LVU37
	movb	$92, -1(%rcx)
	.loc 1 333 19 view .LVU38
	movq	%rcx, %r9
.LVL11:
	.loc 1 334 15 is_stmt 1 view .LVU39
	jmp	.L6
.LBE124:
	.cfi_endproc
.LFE140:
	.size	filename_unescape, .-filename_unescape
	.p2align 4
	.type	hex_digits, @function
hex_digits:
.LVL12:
.LFB141:
	.loc 1 360 1 view -0
	.cfi_startproc
	.loc 1 361 3 view .LVU41
.LBB125:
	.loc 1 361 8 view .LVU42
	.loc 1 361 8 is_stmt 0 view .LVU43
.LBE125:
	.loc 1 360 1 view .LVU44
	pushq	%rbp
	.cfi_def_cfa_offset 16
	.cfi_offset 6, -16
	pushq	%rbx
	.cfi_def_cfa_offset 24
	.cfi_offset 3, -24
	movq	%rdi, %rbx
.LBB126:
	.loc 1 361 28 is_stmt 1 view .LVU45
.LBE126:
	.loc 1 360 1 is_stmt 0 view .LVU46
	subq	$8, %rsp
	.cfi_def_cfa_offset 32
.LBB127:
	.loc 1 361 30 view .LVU47
	movq	digest_hex_bytes(%rip), %rbp
	.loc 1 361 3 view .LVU48
	testq	%rbp, %rbp
	je	.L18
	.loc 1 363 12 view .LVU49
	call	__ctype_b_loc@PLT
.LVL13:
	.loc 1 363 12 view .LVU50
	movq	(%rax), %rcx
	.loc 1 361 21 view .LVU51
	xorl	%eax, %eax
	jmp	.L20
.LVL14:
	.p2align 4,,10
	.p2align 3
.L27:
	.loc 1 365 7 is_stmt 1 discriminator 2 view .LVU52
	.loc 1 361 51 is_stmt 0 discriminator 2 view .LVU53
	leal	1(%rax), %edx
	.loc 1 365 7 discriminator 2 view .LVU54
	addq	$1, %rbx
.LVL15:
	.loc 1 361 50 is_stmt 1 discriminator 2 view .LVU55
	.loc 1 361 51 is_stmt 0 discriminator 2 view .LVU56
	movq	%rdx, %rax
.LVL16:
	.loc 1 361 28 is_stmt 1 discriminator 2 view .LVU57
	.loc 1 361 3 is_stmt 0 discriminator 2 view .LVU58
	cmpq	%rbp, %rdx
	jnb	.L18
.LVL17:
.L20:
	.loc 1 363 7 is_stmt 1 view .LVU59
	.loc 1 363 12 is_stmt 0 view .LVU60
	movzbl	(%rbx), %edx
	.loc 1 363 10 view .LVU61
	testb	$16, 1(%rcx,%rdx,2)
	jne	.L27
	.loc 1 363 10 view .LVU62
.LBE127:
	.loc 1 368 1 view .LVU63
	addq	$8, %rsp
	.cfi_remember_state
	.cfi_def_cfa_offset 24
.LBB128:
	.loc 1 364 16 view .LVU64
	xorl	%eax, %eax
.LVL18:
	.loc 1 364 16 view .LVU65
.LBE128:
	.loc 1 368 1 view .LVU66
	popq	%rbx
	.cfi_def_cfa_offset 16
.LVL19:
	.loc 1 368 1 view .LVU67
	popq	%rbp
	.cfi_def_cfa_offset 8
	ret
.LVL20:
	.p2align 4,,10
	.p2align 3
.L18:
	.cfi_restore_state
	.loc 1 367 3 is_stmt 1 view .LVU68
	.loc 1 367 13 is_stmt 0 view .LVU69
	cmpb	$0, (%rbx)
	sete	%al
	.loc 1 368 1 view .LVU70
	addq	$8, %rsp
	.cfi_def_cfa_offset 24
	popq	%rbx
	.cfi_def_cfa_offset 16
.LVL21:
	.loc 1 368 1 view .LVU71
	popq	%rbp
	.cfi_def_cfa_offset 8
	ret
	.cfi_endproc
.LFE141:
	.size	hex_digits, .-hex_digits
	.section	.rodata.str1.1,"aMS",@progbits,1
.LC0:
	.string	"\\n"
.LC1:
	.string	"\\\\"
	.text
	.p2align 4
	.type	print_filename, @function
print_filename:
.LVL22:
.LFB144:
	.loc 1 551 1 is_stmt 1 view -0
	.cfi_startproc
	.loc 1 552 3 view .LVU73
	.loc 1 551 1 is_stmt 0 view .LVU74
	pushq	%rbp
	.cfi_def_cfa_offset 16
	.cfi_offset 6, -16
	movq	%rdi, %rbp
	pushq	%rbx
	.cfi_def_cfa_offset 24
	.cfi_offset 3, -24
	subq	$8, %rsp
	.cfi_def_cfa_offset 32
	.loc 1 552 6 view .LVU75
	testb	%sil, %sil
	je	.L29
.LVL23:
.LBB133:
.LBB134:
	.loc 1 558 9 is_stmt 1 view .LVU76
	.loc 1 558 10 is_stmt 0 view .LVU77
	movzbl	(%rdi), %esi
.LVL24:
	.loc 1 563 11 view .LVU78
	leaq	.LC0(%rip), %rbx
	.loc 1 558 9 view .LVU79
	testb	%sil, %sil
	jne	.L30
	jmp	.L28
.LVL25:
	.p2align 4,,10
	.p2align 3
.L43:
	.loc 1 571 11 is_stmt 1 view .LVU80
.LBB135:
.LBI135:
	.file 2 "/usr/include/x86_64-linux-gnu/bits/stdio.h"
	.loc 2 108 1 view .LVU81
.LBB136:
	.loc 2 110 3 view .LVU82
	.loc 2 110 10 is_stmt 0 view .LVU83
	movq	40(%rcx), %rax
	cmpq	48(%rcx), %rax
	jnb	.L42
	.loc 2 110 10 view .LVU84
	leaq	1(%rax), %rdx
	movq	%rdx, 40(%rcx)
	movb	%sil, (%rax)
.LVL26:
.L35:
	.loc 2 110 10 view .LVU85
.LBE136:
.LBE135:
	.loc 1 574 7 is_stmt 1 view .LVU86
	.loc 1 558 10 is_stmt 0 view .LVU87
	movzbl	1(%rbp), %esi
	.loc 1 574 11 view .LVU88
	addq	$1, %rbp
.LVL27:
	.loc 1 558 9 is_stmt 1 view .LVU89
	testb	%sil, %sil
	je	.L28
.L30:
	.loc 1 560 7 view .LVU90
	movq	stdout(%rip), %rcx
	cmpb	$10, %sil
	je	.L32
	.loc 1 560 7 is_stmt 0 view .LVU91
	cmpb	$92, %sil
	jne	.L43
	.loc 1 567 11 is_stmt 1 view .LVU92
	movl	$1, %esi
	movl	$2, %edx
	leaq	.LC1(%rip), %rdi
	.loc 1 574 11 is_stmt 0 view .LVU93
	addq	$1, %rbp
.LVL28:
	.loc 1 567 11 view .LVU94
	call	fwrite_unlocked@PLT
.LVL29:
	.loc 1 568 11 is_stmt 1 view .LVU95
	.loc 1 574 7 view .LVU96
	.loc 1 558 9 view .LVU97
	.loc 1 558 10 is_stmt 0 view .LVU98
	movzbl	0(%rbp), %esi
	.loc 1 558 9 view .LVU99
	testb	%sil, %sil
	jne	.L30
.L28:
	.loc 1 558 9 view .LVU100
.LBE134:
.LBE133:
	.loc 1 576 1 view .LVU101
	addq	$8, %rsp
	.cfi_remember_state
	.cfi_def_cfa_offset 24
	popq	%rbx
	.cfi_def_cfa_offset 16
	popq	%rbp
	.cfi_def_cfa_offset 8
.LVL30:
	.loc 1 576 1 view .LVU102
	ret
.LVL31:
	.p2align 4,,10
	.p2align 3
.L32:
	.cfi_restore_state
.LBB140:
.LBB139:
	.loc 1 563 11 is_stmt 1 view .LVU103
	movl	$2, %edx
	movl	$1, %esi
	movq	%rbx, %rdi
	call	fwrite_unlocked@PLT
.LVL32:
	.loc 1 564 11 view .LVU104
	jmp	.L35
.LVL33:
	.p2align 4,,10
	.p2align 3
.L42:
.LBB138:
.LBB137:
	.loc 2 110 10 is_stmt 0 view .LVU105
	movq	%rcx, %rdi
	call	__overflow@PLT
.LVL34:
	.loc 2 110 10 view .LVU106
	jmp	.L35
.LVL35:
	.p2align 4,,10
	.p2align 3
.L29:
	.loc 2 110 10 view .LVU107
.LBE137:
.LBE138:
.LBE139:
.LBE140:
	.loc 1 554 7 is_stmt 1 view .LVU108
	movq	stdout(%rip), %rsi
.LVL36:
	.loc 1 576 1 is_stmt 0 view .LVU109
	addq	$8, %rsp
	.cfi_def_cfa_offset 24
	popq	%rbx
	.cfi_def_cfa_offset 16
	popq	%rbp
	.cfi_def_cfa_offset 8
	.loc 1 554 7 view .LVU110
	jmp	fputs_unlocked@PLT
.LVL37:
	.loc 1 554 7 view .LVU111
	.cfi_endproc
.LFE144:
	.size	print_filename, .-print_filename
	.section	.rodata.str1.1
.LC2:
	.string	"r"
.LC3:
	.string	"%s"
	.text
	.p2align 4
	.type	digest_file.isra.0, @function
digest_file.isra.0:
.LVL38:
.LFB149:
	.loc 1 591 1 is_stmt 1 view -0
	.cfi_startproc
	.loc 1 594 3 view .LVU113
	.loc 1 595 3 view .LVU114
	.loc 1 596 3 view .LVU115
	.loc 1 591 1 is_stmt 0 view .LVU116
	pushq	%r13
	.cfi_def_cfa_offset 16
	.cfi_offset 13, -16
	movq	%rsi, %r13
	pushq	%r12
	.cfi_def_cfa_offset 24
	.cfi_offset 12, -24
	movq	%rdi, %r12
	pushq	%rbp
	.cfi_def_cfa_offset 32
	.cfi_offset 6, -32
	pushq	%rbx
	.cfi_def_cfa_offset 40
	.cfi_offset 3, -40
	movq	%rdx, %rbx
	subq	$8, %rsp
	.cfi_def_cfa_offset 48
	.loc 1 596 19 view .LVU117
	movzbl	(%rdi), %eax
	subl	$45, %eax
	jne	.L45
	movzbl	1(%rdi), %eax
.L45:
.LVL39:
	.loc 1 598 3 is_stmt 1 view .LVU118
	.loc 1 598 12 is_stmt 0 view .LVU119
	movb	$0, (%rbx)
	.loc 1 600 3 is_stmt 1 view .LVU120
	.loc 1 600 6 is_stmt 0 view .LVU121
	testl	%eax, %eax
	jne	.L46
	.loc 1 602 7 is_stmt 1 view .LVU122
	.loc 1 603 10 is_stmt 0 view .LVU123
	movq	stdin(%rip), %rbp
	.loc 1 627 3 view .LVU124
	movl	$2, %esi
.LVL40:
	.loc 1 602 23 view .LVU125
	movb	$1, have_read_stdin(%rip)
	.loc 1 603 7 is_stmt 1 view .LVU126
.LVL41:
	.loc 1 604 7 view .LVU127
	.loc 1 627 3 view .LVU128
	movq	%rbp, %rdi
.LVL42:
	.loc 1 627 3 is_stmt 0 view .LVU129
	call	fadvise@PLT
.LVL43:
	.loc 1 632 3 is_stmt 1 view .LVU130
	.loc 1 632 9 is_stmt 0 view .LVU131
	movq	%r13, %rsi
	movq	%rbp, %rdi
	call	md5_stream@PLT
.LVL44:
	.loc 1 634 3 is_stmt 1 view .LVU132
	.loc 1 634 6 is_stmt 0 view .LVU133
	testl	%eax, %eax
	jne	.L47
.LVL45:
.L51:
	.loc 1 648 10 view .LVU134
	movl	$1, %r13d
.LVL46:
.L44:
	.loc 1 649 1 view .LVU135
	addq	$8, %rsp
	.cfi_remember_state
	.cfi_def_cfa_offset 40
	movl	%r13d, %eax
	popq	%rbx
	.cfi_def_cfa_offset 32
.LVL47:
	.loc 1 649 1 view .LVU136
	popq	%rbp
	.cfi_def_cfa_offset 24
	popq	%r12
	.cfi_def_cfa_offset 16
	popq	%r13
	.cfi_def_cfa_offset 8
	ret
.LVL48:
	.p2align 4,,10
	.p2align 3
.L46:
	.cfi_restore_state
	.loc 1 614 7 is_stmt 1 view .LVU137
	.loc 1 614 12 is_stmt 0 view .LVU138
	leaq	.LC2(%rip), %rsi
.LVL49:
	.loc 1 614 12 view .LVU139
	movq	%r12, %rdi
.LVL50:
	.loc 1 614 12 view .LVU140
	call	fopen_safer@PLT
.LVL51:
	.loc 1 614 12 view .LVU141
	movq	%rax, %rbp
.LVL52:
	.loc 1 615 7 is_stmt 1 view .LVU142
	.loc 1 615 10 is_stmt 0 view .LVU143
	testq	%rax, %rax
	je	.L62
	.loc 1 627 3 is_stmt 1 view .LVU144
	movl	$2, %esi
	movq	%rax, %rdi
	call	fadvise@PLT
.LVL53:
	.loc 1 632 3 view .LVU145
	.loc 1 632 9 is_stmt 0 view .LVU146
	movq	%r13, %rsi
	movq	%rbp, %rdi
	call	md5_stream@PLT
.LVL54:
	.loc 1 634 3 is_stmt 1 view .LVU147
	.loc 1 634 6 is_stmt 0 view .LVU148
	testl	%eax, %eax
	jne	.L47
	.loc 1 642 20 view .LVU149
	movq	%rbp, %rdi
	call	rpl_fclose@PLT
.LVL55:
	.loc 1 642 17 view .LVU150
	testl	%eax, %eax
	je	.L51
	.loc 1 644 7 is_stmt 1 view .LVU151
	movq	%r12, %rdx
	movl	$3, %esi
	xorl	%edi, %edi
	.loc 1 645 14 is_stmt 0 view .LVU152
	xorl	%r13d, %r13d
.LVL56:
	.loc 1 644 7 view .LVU153
	call	quotearg_n_style_colon@PLT
.LVL57:
	movq	%rax, %r12
.LVL58:
	.loc 1 644 17 view .LVU154
	call	__errno_location@PLT
.LVL59:
	.loc 1 644 7 view .LVU155
	movq	%r12, %rcx
	leaq	.LC3(%rip), %rdx
	xorl	%edi, %edi
	movl	(%rax), %esi
	xorl	%eax, %eax
	call	error@PLT
.LVL60:
	.loc 1 645 7 is_stmt 1 view .LVU156
	.loc 1 645 14 is_stmt 0 view .LVU157
	jmp	.L44
.LVL61:
	.p2align 4,,10
	.p2align 3
.L47:
	.loc 1 636 7 is_stmt 1 view .LVU158
	movq	%r12, %rdx
	xorl	%edi, %edi
	movl	$3, %esi
	.loc 1 639 14 is_stmt 0 view .LVU159
	xorl	%r13d, %r13d
.LVL62:
	.loc 1 636 7 view .LVU160
	call	quotearg_n_style_colon@PLT
.LVL63:
	.loc 1 636 7 view .LVU161
	movq	%rax, %r12
.LVL64:
	.loc 1 636 17 view .LVU162
	call	__errno_location@PLT
.LVL65:
	.loc 1 636 7 view .LVU163
	xorl	%edi, %edi
	movq	%r12, %rcx
	leaq	.LC3(%rip), %rdx
	movl	(%rax), %esi
	xorl	%eax, %eax
	call	error@PLT
.LVL66:
	.loc 1 637 7 is_stmt 1 view .LVU164
	.loc 1 637 10 is_stmt 0 view .LVU165
	cmpq	%rbp, stdin(%rip)
	je	.L44
	.loc 1 638 9 is_stmt 1 view .LVU166
	movq	%rbp, %rdi
	call	rpl_fclose@PLT
.LVL67:
	jmp	.L44
.LVL68:
	.p2align 4,,10
	.p2align 3
.L62:
	.loc 1 617 11 view .LVU167
	call	__errno_location@PLT
.LVL69:
	.loc 1 617 15 is_stmt 0 view .LVU168
	movzbl	ignore_missing(%rip), %r13d
.LVL70:
	.loc 1 617 15 view .LVU169
	movq	%rax, %rbp
.LVL71:
	.loc 1 617 14 view .LVU170
	testb	%r13b, %r13b
	je	.L50
	.loc 1 617 30 view .LVU171
	cmpl	$2, (%rax)
	je	.L63
.L50:
	.loc 1 622 11 is_stmt 1 view .LVU172
	movq	%r12, %rdx
	movl	$3, %esi
	xorl	%edi, %edi
	.loc 1 623 18 is_stmt 0 view .LVU173
	xorl	%r13d, %r13d
	.loc 1 622 11 view .LVU174
	call	quotearg_n_style_colon@PLT
.LVL72:
	movl	0(%rbp), %esi
	leaq	.LC3(%rip), %rdx
	xorl	%edi, %edi
	movq	%rax, %rcx
	xorl	%eax, %eax
	call	error@PLT
.LVL73:
	.loc 1 623 11 is_stmt 1 view .LVU175
	.loc 1 623 18 is_stmt 0 view .LVU176
	jmp	.L44
	.p2align 4,,10
	.p2align 3
.L63:
	.loc 1 619 15 is_stmt 1 view .LVU177
	.loc 1 619 24 is_stmt 0 view .LVU178
	movb	$1, (%rbx)
	.loc 1 620 15 is_stmt 1 view .LVU179
	.loc 1 620 22 is_stmt 0 view .LVU180
	jmp	.L44
	.cfi_endproc
.LFE149:
	.size	digest_file.isra.0, .-digest_file.isra.0
	.section	.rodata.str1.1
.LC4:
	.string	"md5sum"
.LC5:
	.string	" invocation"
.LC6:
	.string	""
	.section	.rodata.str1.8,"aMS",@progbits,1
	.align 8
.LC7:
	.string	"Try '%s --help' for more information.\n"
	.align 8
.LC8:
	.string	"Usage: %s [OPTION]... [FILE]...\nPrint or check %s (%d-bit) checksums.\n"
	.section	.rodata.str1.1
.LC9:
	.string	"MD5"
	.section	.rodata.str1.8
	.align 8
.LC10:
	.string	"\nWith no FILE, or when FILE is -, read standard input.\n"
	.align 8
.LC11:
	.string	"\n  -b, --binary         read in binary mode\n"
	.align 8
.LC12:
	.string	"  -c, --check          read %s sums from the FILEs and check them\n"
	.align 8
.LC13:
	.string	"      --tag            create a BSD-style checksum\n"
	.align 8
.LC14:
	.string	"  -t, --text           read in text mode (default)\n"
	.align 8
.LC15:
	.string	"  -z, --zero           end each output line with NUL, not newline,\n                       and disable file name escaping\n"
	.align 8
.LC16:
	.ascii	"\nThe following five options are useful only when verifying "
	.ascii	"checksums:\n      --ignore-missing  don't fail or report sta"
	.ascii	"tus for missing files\n      --quiet          don't print OK"
	.ascii	" "
	.string	"for each successfully verified file\n      --status         don't output anything, status code shows success\n      --strict         exit non-zero for improperly formatted checksum lines\n  -w, --warn           warn about improperly formatted checksum lines\n\n"
	.align 8
.LC17:
	.string	"      --help     display this help and exit\n"
	.align 8
.LC18:
	.string	"      --version  output version information and exit\n"
	.align 8
.LC19:
	.ascii	"\nThe sums are computed as described in %s.  When checking, "
	.ascii	"the input\nshould be a former output of this program.  The d"
	.ascii	"ef"
	.string	"ault mode is to print a\nline with checksum, a space, a character indicating input mode ('*' for binary,\n' ' for text or where binary is insignificant), and name for each FILE.\n\nNote: There is no difference between binary mode and text mode on GNU systems.\n"
	.section	.rodata.str1.1
.LC20:
	.string	"RFC 1321"
.LC21:
	.string	"["
.LC22:
	.string	"test invocation"
.LC23:
	.string	"coreutils"
.LC24:
	.string	"Multi-call invocation"
.LC25:
	.string	"sha224sum"
.LC26:
	.string	"sha2 utilities"
.LC27:
	.string	"sha256sum"
.LC28:
	.string	"sha384sum"
.LC29:
	.string	"sha512sum"
.LC30:
	.string	"\n%s online help: <%s>\n"
	.section	.rodata.str1.8
	.align 8
.LC31:
	.string	"https://www.gnu.org/software/coreutils/"
	.section	.rodata.str1.1
.LC32:
	.string	"GNU coreutils"
.LC33:
	.string	"en_"
	.section	.rodata.str1.8
	.align 8
.LC34:
	.string	"Report any translation bugs to <https://translationproject.org/team/>\n"
	.section	.rodata.str1.1
.LC35:
	.string	"Full documentation <%s%s>\n"
	.section	.rodata.str1.8
	.align 8
.LC36:
	.string	"or available locally via: info '(coreutils) %s%s'\n"
	.text
	.p2align 4
	.globl	usage
	.type	usage, @function
usage:
.LVL74:
.LFB139:
	.loc 1 224 1 is_stmt 1 view -0
	.cfi_startproc
	.loc 1 224 1 is_stmt 0 view .LVU182
	endbr64
	pushq	%r13
	.cfi_def_cfa_offset 16
	.cfi_offset 13, -16
	.loc 1 226 5 view .LVU183
	movl	$5, %edx
	.loc 1 224 1 view .LVU184
	pushq	%r12
	.cfi_def_cfa_offset 24
	.cfi_offset 12, -24
	pushq	%rbp
	.cfi_def_cfa_offset 32
	.cfi_offset 6, -32
	movl	%edi, %ebp
	pushq	%rbx
	.cfi_def_cfa_offset 40
	.cfi_offset 3, -40
	subq	$136, %rsp
	.cfi_def_cfa_offset 176
	movq	program_name(%rip), %r12
	.loc 1 224 1 view .LVU185
	movq	%fs:40, %rax
	movq	%rax, 120(%rsp)
	xorl	%eax, %eax
	.loc 1 225 3 is_stmt 1 view .LVU186
	.loc 1 225 6 is_stmt 0 view .LVU187
	testl	%edi, %edi
	je	.L65
	.loc 1 226 5 is_stmt 1 view .LVU188
	.loc 1 226 5 view .LVU189
	leaq	.LC7(%rip), %rsi
	xorl	%edi, %edi
.LVL75:
	.loc 1 226 5 is_stmt 0 view .LVU190
	call	dcgettext@PLT
.LVL76:
.LBB159:
.LBB160:
	.file 3 "/usr/include/x86_64-linux-gnu/bits/stdio2.h"
	.loc 3 100 10 view .LVU191
	movq	stderr(%rip), %rdi
	movq	%r12, %rcx
	movl	$1, %esi
.LBE160:
.LBE159:
	.loc 1 226 5 view .LVU192
	movq	%rax, %rdx
.LVL77:
.LBB162:
.LBI159:
	.loc 3 98 1 is_stmt 1 view .LVU193
.LBB161:
	.loc 3 100 3 view .LVU194
	.loc 3 100 10 is_stmt 0 view .LVU195
	xorl	%eax, %eax
.LVL78:
	.loc 3 100 10 view .LVU196
	call	__fprintf_chk@PLT
.LVL79:
.L66:
	.loc 3 100 10 view .LVU197
.LBE161:
.LBE162:
	.loc 1 298 3 is_stmt 1 view .LVU198
	movl	%ebp, %edi
	call	exit@PLT
.LVL80:
.L65:
	.loc 1 229 7 view .LVU199
	.loc 1 229 15 is_stmt 0 view .LVU200
	xorl	%edi, %edi
.LVL81:
	.loc 1 229 15 view .LVU201
	leaq	.LC8(%rip), %rsi
.LBB163:
.LBB164:
	.file 4 "src/system.h"
	.loc 4 636 67 view .LVU202
	leaq	.LC27(%rip), %rbx
.LBE164:
.LBE163:
	.loc 1 229 15 view .LVU203
	call	dcgettext@PLT
.LVL82:
.LBB190:
.LBB191:
	.loc 3 107 10 view .LVU204
	movl	$128, %r8d
	movq	%r12, %rdx
	leaq	.LC9(%rip), %rcx
.LBE191:
.LBE190:
	.loc 1 229 15 view .LVU205
	movq	%rax, %rsi
.LVL83:
.LBB193:
.LBI190:
	.loc 3 105 1 is_stmt 1 view .LVU206
.LBB192:
	.loc 3 107 3 view .LVU207
	.loc 3 107 10 is_stmt 0 view .LVU208
	movl	$1, %edi
	xorl	%eax, %eax
.LVL84:
	.loc 3 107 10 view .LVU209
	call	__printf_chk@PLT
.LVL85:
	.loc 3 107 10 view .LVU210
.LBE192:
.LBE193:
	.loc 1 237 7 is_stmt 1 view .LVU211
.LBB194:
.LBI194:
	.loc 4 581 1 view .LVU212
.LBB195:
	.loc 4 583 3 view .LVU213
	movq	stdout(%rip), %r12
	xorl	%edi, %edi
	movl	$5, %edx
	leaq	.LC10(%rip), %rsi
	call	dcgettext@PLT
.LVL86:
	movq	%r12, %rsi
	movq	%rax, %rdi
	call	fputs_unlocked@PLT
.LVL87:
.LBE195:
.LBE194:
	.loc 1 238 7 view .LVU214
	.loc 1 244 9 view .LVU215
	movq	stdout(%rip), %r12
	xorl	%edi, %edi
	movl	$5, %edx
	leaq	.LC11(%rip), %rsi
	call	dcgettext@PLT
.LVL88:
	movq	%r12, %rsi
	movq	%rax, %rdi
	call	fputs_unlocked@PLT
.LVL89:
	.loc 1 249 7 view .LVU216
	.loc 1 249 15 is_stmt 0 view .LVU217
	xorl	%edi, %edi
	movl	$5, %edx
	leaq	.LC12(%rip), %rsi
	call	dcgettext@PLT
.LVL90:
.LBB196:
.LBB197:
	.loc 3 107 10 view .LVU218
	leaq	.LC9(%rip), %rdx
	movl	$1, %edi
.LBE197:
.LBE196:
	.loc 1 249 15 view .LVU219
	movq	%rax, %rsi
.LVL91:
.LBB199:
.LBI196:
	.loc 3 105 1 is_stmt 1 view .LVU220
.LBB198:
	.loc 3 107 3 view .LVU221
	.loc 3 107 10 is_stmt 0 view .LVU222
	xorl	%eax, %eax
.LVL92:
	.loc 3 107 10 view .LVU223
	call	__printf_chk@PLT
.LVL93:
	.loc 3 107 10 view .LVU224
.LBE198:
.LBE199:
	.loc 1 258 7 is_stmt 1 view .LVU225
	movq	stdout(%rip), %r12
	xorl	%edi, %edi
	movl	$5, %edx
	leaq	.LC13(%rip), %rsi
	call	dcgettext@PLT
.LVL94:
	movq	%r12, %rsi
	movq	%rax, %rdi
	call	fputs_unlocked@PLT
.LVL95:
	.loc 1 261 7 view .LVU226
	.loc 1 266 9 view .LVU227
	movq	stdout(%rip), %r12
	xorl	%edi, %edi
	movl	$5, %edx
	leaq	.LC14(%rip), %rsi
	call	dcgettext@PLT
.LVL96:
	movq	%r12, %rsi
	movq	%rax, %rdi
	call	fputs_unlocked@PLT
.LVL97:
	.loc 1 269 7 view .LVU228
	movq	stdout(%rip), %r12
	xorl	%edi, %edi
	movl	$5, %edx
	leaq	.LC15(%rip), %rsi
	call	dcgettext@PLT
.LVL98:
	movq	%r12, %rsi
	movq	%rax, %rdi
	call	fputs_unlocked@PLT
.LVL99:
	.loc 1 273 7 view .LVU229
	movq	stdout(%rip), %r12
	xorl	%edi, %edi
	movl	$5, %edx
	leaq	.LC16(%rip), %rsi
	call	dcgettext@PLT
.LVL100:
	movq	%r12, %rsi
	movq	%rax, %rdi
	call	fputs_unlocked@PLT
.LVL101:
	.loc 1 283 7 view .LVU230
	movq	stdout(%rip), %r12
	xorl	%edi, %edi
	movl	$5, %edx
	leaq	.LC17(%rip), %rsi
	call	dcgettext@PLT
.LVL102:
	movq	%r12, %rsi
	movq	%rax, %rdi
	call	fputs_unlocked@PLT
.LVL103:
	.loc 1 284 7 view .LVU231
	movl	$5, %edx
	xorl	%edi, %edi
	movq	stdout(%rip), %r12
	leaq	.LC18(%rip), %rsi
	call	dcgettext@PLT
.LVL104:
	movq	%r12, %rsi
	movq	%rax, %rdi
	call	fputs_unlocked@PLT
.LVL105:
	.loc 1 285 7 view .LVU232
	.loc 1 285 15 is_stmt 0 view .LVU233
	xorl	%edi, %edi
	movl	$5, %edx
	leaq	.LC19(%rip), %rsi
	call	dcgettext@PLT
.LVL106:
.LBB200:
.LBB201:
	.loc 3 107 10 view .LVU234
	leaq	.LC20(%rip), %rdx
	movl	$1, %edi
.LBE201:
.LBE200:
	.loc 1 285 15 view .LVU235
	movq	%rax, %rsi
.LVL107:
.LBB203:
.LBI200:
	.loc 3 105 1 is_stmt 1 view .LVU236
.LBB202:
	.loc 3 107 3 view .LVU237
	.loc 3 107 10 is_stmt 0 view .LVU238
	xorl	%eax, %eax
.LVL108:
	.loc 3 107 10 view .LVU239
	call	__printf_chk@PLT
.LVL109:
	.loc 3 107 10 view .LVU240
.LBE202:
.LBE203:
	.loc 1 295 7 is_stmt 1 view .LVU241
.LBB204:
.LBI163:
	.loc 4 634 1 view .LVU242
.LBB189:
	.loc 4 636 3 view .LVU243
	.loc 4 636 67 is_stmt 0 view .LVU244
	leaq	.LC21(%rip), %rax
	movq	%rbx, 48(%rsp)
	leaq	.LC28(%rip), %rbx
	movq	%rax, (%rsp)
	leaq	.LC22(%rip), %rax
	movq	%rax, 8(%rsp)
	leaq	.LC23(%rip), %rax
	movq	%rax, 16(%rsp)
	leaq	.LC24(%rip), %rax
	movq	%rax, 24(%rsp)
	leaq	.LC25(%rip), %rax
	movq	$0, 96(%rsp)
	movq	$0, 104(%rsp)
	.loc 4 646 3 is_stmt 1 view .LVU245
.LVL110:
	.loc 4 647 3 view .LVU246
	.loc 4 649 3 view .LVU247
	.loc 4 649 9 view .LVU248
	.loc 4 636 67 is_stmt 0 view .LVU249
	movq	%rax, 32(%rsp)
	leaq	.LC26(%rip), %rax
	movq	%rbx, 64(%rsp)
	leaq	.LC29(%rip), %rbx
	movq	%rax, 40(%rsp)
	movq	%rax, 56(%rsp)
	movq	%rax, 72(%rsp)
	movq	%rbx, 80(%rsp)
	leaq	.LC4(%rip), %rbx
	movq	%rax, 88(%rsp)
	.loc 4 647 25 view .LVU250
	movq	%rsp, %rax
.LVL111:
	.p2align 4,,10
	.p2align 3
.L68:
	.loc 4 650 5 is_stmt 1 view .LVU251
	.loc 4 649 18 is_stmt 0 view .LVU252
	movq	16(%rax), %rdi
	.loc 4 650 13 view .LVU253
	addq	$16, %rax
.LVL112:
	.loc 4 649 9 is_stmt 1 view .LVU254
	testq	%rdi, %rdi
	je	.L67
	.loc 4 649 33 is_stmt 0 view .LVU255
	movl	$7, %ecx
	movq	%rbx, %rsi
	repz cmpsb
	seta	%dl
	sbbb	$0, %dl
	.loc 4 649 28 view .LVU256
	testb	%dl, %dl
	jne	.L68
.L67:
	.loc 4 652 3 is_stmt 1 view .LVU257
	.loc 4 652 15 is_stmt 0 view .LVU258
	movq	8(%rax), %r12
	.loc 4 655 11 view .LVU259
	movl	$5, %edx
	leaq	.LC30(%rip), %rsi
	xorl	%edi, %edi
	.loc 4 652 6 view .LVU260
	testq	%r12, %r12
	je	.L69
	.loc 4 653 5 is_stmt 1 view .LVU261
.LVL113:
	.loc 4 655 3 view .LVU262
	.loc 4 655 11 is_stmt 0 view .LVU263
	call	dcgettext@PLT
.LVL114:
.LBB165:
.LBB166:
	.loc 3 107 10 view .LVU264
	leaq	.LC31(%rip), %rcx
	movl	$1, %edi
	leaq	.LC32(%rip), %rdx
.LBE166:
.LBE165:
	.loc 4 655 11 view .LVU265
	movq	%rax, %rsi
.LVL115:
.LBB170:
.LBI165:
	.loc 3 105 1 is_stmt 1 view .LVU266
.LBB167:
	.loc 3 107 3 view .LVU267
	.loc 3 107 10 is_stmt 0 view .LVU268
	xorl	%eax, %eax
.LVL116:
	.loc 3 107 10 view .LVU269
	call	__printf_chk@PLT
.LVL117:
	.loc 3 107 10 view .LVU270
.LBE167:
.LBE170:
	.loc 4 659 3 is_stmt 1 view .LVU271
	.loc 4 659 29 is_stmt 0 view .LVU272
	movl	$5, %edi
	xorl	%esi, %esi
	call	setlocale@PLT
.LVL118:
	movq	%rax, %rdi
.LVL119:
	.loc 4 660 3 is_stmt 1 view .LVU273
	.loc 4 660 6 is_stmt 0 view .LVU274
	testq	%rax, %rax
	je	.L70
	.loc 4 660 22 view .LVU275
	movl	$3, %edx
	leaq	.LC33(%rip), %rsi
	call	strncmp@PLT
.LVL120:
	.loc 4 660 19 view .LVU276
	testl	%eax, %eax
	jne	.L73
.LVL121:
.L70:
	.loc 4 669 3 is_stmt 1 view .LVU277
	.loc 4 669 11 is_stmt 0 view .LVU278
	xorl	%edi, %edi
	movl	$5, %edx
	leaq	.LC35(%rip), %rsi
	call	dcgettext@PLT
.LVL122:
.LBB171:
.LBB172:
	.loc 3 107 10 view .LVU279
	leaq	.LC4(%rip), %rcx
	leaq	.LC31(%rip), %rdx
	movl	$1, %edi
.LBE172:
.LBE171:
	.loc 4 669 11 view .LVU280
	movq	%rax, %rsi
.LVL123:
.LBB178:
.LBI171:
	.loc 3 105 1 is_stmt 1 view .LVU281
.LBB173:
	.loc 3 107 3 view .LVU282
	.loc 3 107 10 is_stmt 0 view .LVU283
	xorl	%eax, %eax
.LVL124:
	.loc 3 107 10 view .LVU284
.LBE173:
.LBE178:
	.loc 4 671 3 view .LVU285
	leaq	.LC5(%rip), %r13
.LBB179:
.LBB174:
	.loc 3 107 10 view .LVU286
	call	__printf_chk@PLT
.LVL125:
	.loc 3 107 10 view .LVU287
.LBE174:
.LBE179:
	.loc 4 671 3 is_stmt 1 view .LVU288
	cmpq	%rbx, %r12
	leaq	.LC6(%rip), %rcx
	cmovne	%rcx, %r13
.L71:
	.loc 4 671 11 is_stmt 0 view .LVU289
	xorl	%edi, %edi
	leaq	.LC36(%rip), %rsi
	movl	$5, %edx
	call	dcgettext@PLT
.LVL126:
.LBB180:
.LBB181:
	.loc 3 107 10 view .LVU290
	movq	%r13, %rcx
	movq	%r12, %rdx
	movl	$1, %edi
.LBE181:
.LBE180:
	.loc 4 671 11 view .LVU291
	movq	%rax, %rsi
.LVL127:
.LBB183:
.LBI180:
	.loc 3 105 1 is_stmt 1 view .LVU292
.LBB182:
	.loc 3 107 3 view .LVU293
	.loc 3 107 10 is_stmt 0 view .LVU294
	xorl	%eax, %eax
.LVL128:
	.loc 3 107 10 view .LVU295
	call	__printf_chk@PLT
.LVL129:
	.loc 3 107 10 view .LVU296
.LBE182:
.LBE183:
	.loc 4 673 1 view .LVU297
	jmp	.L66
.LVL130:
.L69:
	.loc 4 655 3 is_stmt 1 view .LVU298
	.loc 4 655 11 is_stmt 0 view .LVU299
	call	dcgettext@PLT
.LVL131:
.LBB184:
.LBB168:
	.loc 3 107 10 view .LVU300
	leaq	.LC31(%rip), %rcx
	movl	$1, %edi
	leaq	.LC32(%rip), %rdx
.LBE168:
.LBE184:
	.loc 4 655 11 view .LVU301
	movq	%rax, %rsi
.LVL132:
.LBB185:
	.loc 3 105 1 is_stmt 1 view .LVU302
.LBB169:
	.loc 3 107 3 view .LVU303
	.loc 3 107 10 is_stmt 0 view .LVU304
	xorl	%eax, %eax
.LVL133:
	.loc 3 107 10 view .LVU305
	call	__printf_chk@PLT
.LVL134:
	.loc 3 107 10 view .LVU306
.LBE169:
.LBE185:
	.loc 4 659 3 is_stmt 1 view .LVU307
	.loc 4 659 29 is_stmt 0 view .LVU308
	movl	$5, %edi
	xorl	%esi, %esi
	call	setlocale@PLT
.LVL135:
	movq	%rax, %rdi
.LVL136:
	.loc 4 660 3 is_stmt 1 view .LVU309
	.loc 4 660 6 is_stmt 0 view .LVU310
	testq	%rax, %rax
	je	.L72
	.loc 4 660 22 view .LVU311
	movl	$3, %edx
	leaq	.LC33(%rip), %rsi
	call	strncmp@PLT
.LVL137:
	.loc 4 660 19 view .LVU312
	testl	%eax, %eax
	jne	.L91
.L72:
	.loc 4 669 3 is_stmt 1 view .LVU313
	.loc 4 669 11 is_stmt 0 view .LVU314
	movl	$5, %edx
	leaq	.LC35(%rip), %rsi
	xorl	%edi, %edi
	call	dcgettext@PLT
.LVL138:
.LBB186:
.LBB175:
	.loc 3 107 10 view .LVU315
	leaq	.LC4(%rip), %rcx
	leaq	.LC31(%rip), %rdx
	movl	$1, %edi
.LBE175:
.LBE186:
	.loc 4 669 11 view .LVU316
	movq	%rax, %rsi
.LVL139:
.LBB187:
	.loc 3 105 1 is_stmt 1 view .LVU317
.LBB176:
	.loc 3 107 3 view .LVU318
	.loc 3 107 10 is_stmt 0 view .LVU319
	xorl	%eax, %eax
.LVL140:
	.loc 3 107 10 view .LVU320
.LBE176:
.LBE187:
	.loc 4 646 15 view .LVU321
	leaq	.LC4(%rip), %r12
.LBB188:
.LBB177:
	.loc 3 107 10 view .LVU322
	call	__printf_chk@PLT
.LVL141:
	.loc 3 107 10 view .LVU323
.LBE177:
.LBE188:
	.loc 4 671 3 is_stmt 1 view .LVU324
	leaq	.LC5(%rip), %r13
	jmp	.L71
.L91:
	.loc 4 646 15 is_stmt 0 view .LVU325
	leaq	.LC4(%rip), %r12
.LVL142:
.L73:
	.loc 4 666 7 is_stmt 1 view .LVU326
	movq	stdout(%rip), %r13
	xorl	%edi, %edi
	movl	$5, %edx
	leaq	.LC34(%rip), %rsi
	call	dcgettext@PLT
.LVL143:
	movq	%rax, %rdi
	movq	%r13, %rsi
	call	fputs_unlocked@PLT
.LVL144:
	jmp	.L70
.LBE189:
.LBE204:
	.cfi_endproc
.LFE139:
	.size	usage, .-usage
	.section	.rodata.str1.1
.LC37:
	.string	"/usr/local/share/locale"
.LC38:
	.string	"Scott Miller"
.LC39:
	.string	"Ulrich Drepper"
.LC40:
	.string	"David Madore"
.LC41:
	.string	"bctwz"
	.section	.rodata.str1.8
	.align 8
.LC42:
	.string	"--tag does not support --text mode"
	.align 8
.LC43:
	.string	"the --zero option is not supported when verifying checksums"
	.align 8
.LC44:
	.string	"the --tag option is meaningless when verifying checksums"
	.align 8
.LC45:
	.string	"the --binary and --text options are meaningless when verifying checksums"
	.align 8
.LC46:
	.string	"the --ignore-missing option is meaningful only when verifying checksums"
	.align 8
.LC47:
	.string	"the --status option is meaningful only when verifying checksums"
	.align 8
.LC48:
	.string	"the --warn option is meaningful only when verifying checksums"
	.align 8
.LC49:
	.string	"the --quiet option is meaningful only when verifying checksums"
	.align 8
.LC50:
	.string	"the --strict option is meaningful only when verifying checksums"
	.section	.rodata.str1.1
.LC51:
	.string	"-"
.LC52:
	.string	"standard input"
.LC53:
	.string	"%s: too many checksum lines"
	.section	.rodata.str1.8
	.align 8
.LC54:
	.string	"%s: %lu: improperly formatted %s checksum line"
	.section	.rodata.str1.1
.LC55:
	.string	"FAILED open or read"
.LC56:
	.string	": %s\n"
.LC57:
	.string	"FAILED"
.LC58:
	.string	"OK"
.LC59:
	.string	"%s: read error"
	.section	.rodata.str1.8
	.align 8
.LC60:
	.string	"%s: no properly formatted %s checksum lines found"
	.align 8
.LC61:
	.string	"WARNING: %lu lines are improperly formatted"
	.align 8
.LC62:
	.string	"WARNING: %lu line is improperly formatted"
	.align 8
.LC63:
	.string	"WARNING: %lu listed files could not be read"
	.align 8
.LC64:
	.string	"WARNING: %lu listed file could not be read"
	.align 8
.LC65:
	.string	"WARNING: %lu computed checksums did NOT match"
	.align 8
.LC66:
	.string	"WARNING: %lu computed checksum did NOT match"
	.section	.rodata.str1.1
.LC67:
	.string	"%s: no file was verified"
.LC68:
	.string	"%02x"
.LC69:
	.string	" ("
.LC70:
	.string	") = "
	.section	.text.startup,"ax",@progbits
	.p2align 4
	.globl	main
	.type	main, @function
main:
.LVL145:
.LFB147:
	.loc 1 862 1 view -0
	.cfi_startproc
	.loc 1 862 1 is_stmt 0 view .LVU328
	endbr64
	pushq	%r15
	.cfi_def_cfa_offset 16
	.cfi_offset 15, -16
	pushq	%r14
	.cfi_def_cfa_offset 24
	.cfi_offset 14, -24
	.loc 1 866 8 view .LVU329
	xorl	%r14d, %r14d
	.loc 1 862 1 view .LVU330
	pushq	%r13
	.cfi_def_cfa_offset 32
	.cfi_offset 13, -32
	leaq	.L99(%rip), %r13
	pushq	%r12
	.cfi_def_cfa_offset 40
	.cfi_offset 12, -40
	movl	%edi, %r12d
	pushq	%rbp
	.cfi_def_cfa_offset 48
	.cfi_offset 6, -48
	.loc 1 869 7 view .LVU331
	movl	$-1, %ebp
	.loc 1 862 1 view .LVU332
	pushq	%rbx
	.cfi_def_cfa_offset 56
	.cfi_offset 3, -56
	movq	%rsi, %rbx
	subq	$200, %rsp
	.cfi_def_cfa_offset 256
	.loc 1 874 3 view .LVU333
	movq	(%rsi), %rdi
.LVL146:
	.loc 1 862 1 view .LVU334
	movq	%fs:40, %rax
	movq	%rax, 184(%rsp)
	xorl	%eax, %eax
	.loc 1 863 3 is_stmt 1 view .LVU335
	.loc 1 865 3 view .LVU336
.LVL147:
	.loc 4 503 3 view .LVU337
	.loc 4 504 3 view .LVU338
	.loc 4 505 3 view .LVU339
	.loc 1 866 3 view .LVU340
	.loc 1 867 3 view .LVU341
	.loc 1 868 3 view .LVU342
	.loc 1 869 3 view .LVU343
	.loc 1 870 3 view .LVU344
	.loc 1 873 33 view .LVU345
	.loc 1 874 3 view .LVU346
	call	set_program_name@PLT
.LVL148:
	.loc 1 875 3 view .LVU347
	leaq	.LC6(%rip), %rsi
	movl	$6, %edi
	call	setlocale@PLT
.LVL149:
	.loc 1 876 3 view .LVU348
	leaq	.LC37(%rip), %rsi
	leaq	.LC23(%rip), %rdi
	call	bindtextdomain@PLT
.LVL150:
	.loc 1 877 3 view .LVU349
	leaq	.LC23(%rip), %rdi
	call	textdomain@PLT
.LVL151:
	.loc 1 879 3 view .LVU350
	movq	close_stdout@GOTPCREL(%rip), %rdi
	call	atexit@PLT
.LVL152:
	.loc 1 883 3 view .LVU351
	movq	stdout(%rip), %rdi
	xorl	%ecx, %ecx
	xorl	%esi, %esi
	movl	$1, %edx
	call	setvbuf@PLT
.LVL153:
	.loc 1 889 3 view .LVU352
	.loc 1 892 3 view .LVU353
	.loc 1 870 8 is_stmt 0 view .LVU354
	movb	$0, 55(%rsp)
.LVL154:
.L93:
	.loc 1 892 9 is_stmt 1 view .LVU355
	.loc 1 892 17 is_stmt 0 view .LVU356
	xorl	%r8d, %r8d
	leaq	long_options(%rip), %rcx
	movq	%rbx, %rsi
	movl	%r12d, %edi
	leaq	.LC41(%rip), %rdx
	call	getopt_long@PLT
.LVL155:
	.loc 1 892 9 view .LVU357
	cmpl	$-1, %eax
	je	.L344
	.loc 1 893 5 is_stmt 1 view .LVU358
	cmpl	$132, %eax
	jg	.L342
	cmpl	$97, %eax
	jle	.L345
	subl	$98, %eax
.LVL156:
	.loc 1 893 5 is_stmt 0 view .LVU359
	cmpl	$34, %eax
	ja	.L342
	movslq	0(%r13,%rax,4), %rax
	addq	%r13, %rax
	notrack jmp	*%rax
	.section	.rodata
	.align 4
	.align 4
.L99:
	.long	.L108-.L99
	.long	.L107-.L99
	.long	.L342-.L99
	.long	.L342-.L99
	.long	.L342-.L99
	.long	.L342-.L99
	.long	.L342-.L99
	.long	.L342-.L99
	.long	.L342-.L99
	.long	.L342-.L99
	.long	.L342-.L99
	.long	.L342-.L99
	.long	.L342-.L99
	.long	.L342-.L99
	.long	.L342-.L99
	.long	.L342-.L99
	.long	.L342-.L99
	.long	.L342-.L99
	.long	.L220-.L99
	.long	.L342-.L99
	.long	.L342-.L99
	.long	.L105-.L99
	.long	.L342-.L99
	.long	.L342-.L99
	.long	.L104-.L99
	.long	.L342-.L99
	.long	.L342-.L99
	.long	.L342-.L99
	.long	.L342-.L99
	.long	.L342-.L99
	.long	.L103-.L99
	.long	.L102-.L99
	.long	.L101-.L99
	.long	.L100-.L99
	.long	.L98-.L99
	.section	.text.startup
.L220:
	.loc 1 919 16 view .LVU360
	xorl	%ebp, %ebp
.LVL157:
	.loc 1 919 16 view .LVU361
	jmp	.L93
.LVL158:
.L107:
	.loc 1 893 5 view .LVU362
	movl	$1, %r14d
.LVL159:
	.loc 1 893 5 view .LVU363
	jmp	.L93
.LVL160:
.L108:
	.loc 1 908 16 view .LVU364
	movl	$1, %ebp
.LVL161:
	.loc 1 908 16 view .LVU365
	jmp	.L93
.LVL162:
.L98:
	.loc 1 938 9 is_stmt 1 view .LVU366
	.loc 1 939 9 view .LVU367
	.loc 1 940 9 view .LVU368
	.loc 1 938 20 is_stmt 0 view .LVU369
	movb	$1, 55(%rsp)
	.loc 1 939 16 view .LVU370
	movl	$1, %ebp
	.loc 1 940 9 view .LVU371
	jmp	.L93
.LVL163:
.L100:
	.loc 1 935 9 is_stmt 1 view .LVU372
	.loc 1 935 16 is_stmt 0 view .LVU373
	movb	$1, strict(%rip)
	.loc 1 936 9 is_stmt 1 view .LVU374
	jmp	.L93
.L101:
	.loc 1 930 9 view .LVU375
	.loc 1 930 21 is_stmt 0 view .LVU376
	movb	$0, status_only(%rip)
	.loc 1 931 9 is_stmt 1 view .LVU377
	.loc 1 931 14 is_stmt 0 view .LVU378
	movb	$0, warn(%rip)
	.loc 1 932 9 is_stmt 1 view .LVU379
	.loc 1 932 15 is_stmt 0 view .LVU380
	movb	$1, quiet(%rip)
	.loc 1 933 9 is_stmt 1 view .LVU381
	jmp	.L93
.L102:
	.loc 1 914 9 view .LVU382
	.loc 1 914 21 is_stmt 0 view .LVU383
	movb	$1, status_only(%rip)
	.loc 1 915 9 is_stmt 1 view .LVU384
	.loc 1 915 14 is_stmt 0 view .LVU385
	movb	$0, warn(%rip)
	.loc 1 916 9 is_stmt 1 view .LVU386
	.loc 1 916 15 is_stmt 0 view .LVU387
	movb	$0, quiet(%rip)
	.loc 1 917 9 is_stmt 1 view .LVU388
	jmp	.L93
.L103:
	.loc 1 927 9 view .LVU389
	.loc 1 927 24 is_stmt 0 view .LVU390
	movb	$1, ignore_missing(%rip)
	.loc 1 928 9 is_stmt 1 view .LVU391
	jmp	.L93
.L104:
	.loc 1 942 9 view .LVU392
	.loc 1 942 15 is_stmt 0 view .LVU393
	movb	$0, delim(%rip)
	.loc 1 943 9 is_stmt 1 view .LVU394
	jmp	.L93
.L105:
	.loc 1 922 9 view .LVU395
	.loc 1 922 21 is_stmt 0 view .LVU396
	movb	$0, status_only(%rip)
	.loc 1 923 9 is_stmt 1 view .LVU397
	.loc 1 923 14 is_stmt 0 view .LVU398
	movb	$1, warn(%rip)
	.loc 1 924 9 is_stmt 1 view .LVU399
	.loc 1 924 15 is_stmt 0 view .LVU400
	movb	$0, quiet(%rip)
	.loc 1 925 9 is_stmt 1 view .LVU401
	jmp	.L93
.LVL164:
	.p2align 4,,10
	.p2align 3
.L345:
	.loc 1 893 5 is_stmt 0 view .LVU402
	cmpl	$-131, %eax
	jne	.L346
	.loc 1 944 7 is_stmt 1 view .LVU403
	.loc 1 944 28 view .LVU404
	.loc 1 945 7 view .LVU405
	leaq	.LC40(%rip), %rax
.LVL165:
	.loc 1 945 7 is_stmt 0 view .LVU406
	pushq	$0
	.cfi_remember_state
	.cfi_def_cfa_offset 264
	movq	stdout(%rip), %rdi
	leaq	.LC38(%rip), %r9
	pushq	%rax
	.cfi_def_cfa_offset 272
	movq	Version(%rip), %rcx
	xorl	%eax, %eax
	leaq	.LC39(%rip), %r8
	leaq	.LC32(%rip), %rdx
	leaq	.LC4(%rip), %rsi
	call	version_etc@PLT
.LVL166:
	.loc 1 945 7 is_stmt 1 view .LVU407
	xorl	%edi, %edi
	call	exit@PLT
.LVL167:
.L346:
	.cfi_restore_state
	.loc 1 893 5 is_stmt 0 view .LVU408
	cmpl	$-130, %eax
	jne	.L342
	.loc 1 944 7 is_stmt 1 view .LVU409
	xorl	%edi, %edi
	call	usage
.LVL168:
.L344:
	.loc 1 950 3 view .LVU410
	.loc 1 950 26 is_stmt 0 view .LVU411
	movq	$34, min_digest_line_length(%rip)
	.loc 1 964 3 is_stmt 1 view .LVU412
	.loc 1 967 21 is_stmt 0 view .LVU413
	testl	%ebp, %ebp
	.loc 1 964 20 view .LVU414
	movq	$32, digest_hex_bytes(%rip)
	.loc 1 967 3 is_stmt 1 view .LVU415
	.loc 1 967 21 is_stmt 0 view .LVU416
	sete	%al
.LVL169:
	.loc 1 967 6 view .LVU417
	testb	%al, 55(%rsp)
	jne	.L347
	.loc 1 978 3 is_stmt 1 view .LVU418
	.loc 1 978 6 is_stmt 0 view .LVU419
	cmpb	$10, delim(%rip)
	je	.L111
	.loc 1 980 20 discriminator 1 view .LVU420
	movl	$5, %edx
	leaq	.LC43(%rip), %rsi
	.loc 1 978 21 discriminator 1 view .LVU421
	testb	%r14b, %r14b
	jne	.L343
	.loc 1 999 3 is_stmt 1 view .LVU422
	.loc 1 999 6 is_stmt 0 view .LVU423
	cmpb	$0, ignore_missing(%rip)
	jne	.L216
	.loc 1 1007 3 is_stmt 1 view .LVU424
	.loc 1 1007 6 is_stmt 0 view .LVU425
	cmpb	$0, status_only(%rip)
	jne	.L218
.L117:
	.loc 1 1014 3 is_stmt 1 view .LVU426
	.loc 1 1014 6 is_stmt 0 view .LVU427
	cmpb	$0, warn(%rip)
	jne	.L348
	.loc 1 1021 3 is_stmt 1 view .LVU428
	.loc 1 1021 13 is_stmt 0 view .LVU429
	cmpb	$1, quiet(%rip)
	jne	.L121
	.loc 1 1024 8 view .LVU430
	movl	$5, %edx
	leaq	.LC49(%rip), %rsi
	.loc 1 1021 13 view .LVU431
	testb	%r14b, %r14b
	jne	.L121
	jmp	.L343
.L111:
	.loc 1 985 3 is_stmt 1 view .LVU432
	.loc 1 985 6 is_stmt 0 view .LVU433
	testb	%r14b, %r14b
	je	.L113
	cmpb	$0, 55(%rsp)
	.loc 1 987 20 view .LVU434
	movl	$5, %edx
	leaq	.LC44(%rip), %rsi
	.loc 1 985 6 view .LVU435
	jne	.L343
.L113:
	.loc 1 992 3 is_stmt 1 view .LVU436
	.loc 1 992 6 is_stmt 0 view .LVU437
	testl	%ebp, %ebp
	js	.L114
	.loc 1 994 20 view .LVU438
	movl	$5, %edx
	leaq	.LC45(%rip), %rsi
	.loc 1 992 6 view .LVU439
	testb	%r14b, %r14b
	je	.L114
.L343:
	.loc 1 974 19 view .LVU440
	xorl	%edi, %edi
	call	dcgettext@PLT
.LVL170:
	.loc 1 974 6 view .LVU441
	xorl	%esi, %esi
	xorl	%edi, %edi
	.loc 1 974 19 view .LVU442
	movq	%rax, %rdx
	.loc 1 974 6 view .LVU443
	xorl	%eax, %eax
	call	error@PLT
.LVL171:
.L342:
	.loc 1 975 6 is_stmt 1 view .LVU444
	movl	$1, %edi
	call	usage
.LVL172:
.L114:
	.loc 1 999 3 view .LVU445
	.loc 1 999 6 is_stmt 0 view .LVU446
	cmpb	$0, ignore_missing(%rip)
	je	.L115
	.loc 1 999 22 discriminator 1 view .LVU447
	testb	%r14b, %r14b
	je	.L216
.L330:
	.loc 1 1014 3 is_stmt 1 view .LVU448
	.loc 1 1014 6 is_stmt 0 view .LVU449
	cmpb	$0, warn(%rip)
	jne	.L120
.L121:
	.loc 1 1028 3 is_stmt 1 view .LVU450
	.loc 1 1028 6 is_stmt 0 view .LVU451
	cmpb	$0, strict(%rip)
	je	.L120
	.loc 1 1031 9 view .LVU452
	movl	$5, %edx
	leaq	.LC50(%rip), %rsi
	.loc 1 1028 6 view .LVU453
	testb	%r14b, %r14b
	je	.L343
.L120:
	.loc 1 1035 3 is_stmt 1 view .LVU454
.LVL173:
	.loc 1 1038 3 view .LVU455
	.loc 1 1038 29 is_stmt 0 view .LVU456
	movslq	%r12d, %rax
	.loc 1 1038 10 view .LVU457
	leaq	(%rbx,%rax,8), %rax
	movq	%rax, 72(%rsp)
.LVL174:
	.loc 1 1039 3 is_stmt 1 view .LVU458
	.loc 1 1039 14 is_stmt 0 view .LVU459
	movslq	optind(%rip), %rax
.LVL175:
	.loc 1 1039 6 view .LVU460
	cmpl	%r12d, %eax
	jne	.L122
	.loc 1 1040 5 is_stmt 1 view .LVU461
.LVL176:
	.loc 4 700 3 view .LVU462
	.loc 1 1040 20 is_stmt 0 view .LVU463
	movq	72(%rsp), %rsi
	leaq	.LC51(%rip), %rdi
	movq	%rdi, (%rsi)
	.loc 1 1040 17 view .LVU464
	addq	$8, %rsi
.LVL177:
	.loc 1 1040 17 view .LVU465
	movq	%rsi, 72(%rsp)
.LVL178:
.L122:
	.loc 1 1042 3 is_stmt 1 view .LVU466
.LBB259:
	.loc 1 1042 8 view .LVU467
	.loc 1 1042 15 is_stmt 0 view .LVU468
	leaq	(%rbx,%rax,8), %rax
	movq	%rax, 8(%rsp)
.LVL179:
	.loc 1 1042 41 is_stmt 1 view .LVU469
	.loc 1 1042 3 is_stmt 0 view .LVU470
	cmpq	%rax, 72(%rsp)
	jbe	.L221
	subl	$1, %ebp
.LVL180:
	.loc 1 1042 3 view .LVU471
	movl	$42, %edx
	movl	$32, %eax
.LVL181:
	.loc 1 1042 3 view .LVU472
.LBE259:
	.loc 1 868 8 view .LVU473
	movb	$1, 89(%rsp)
	cmove	%edx, %eax
	movb	%r14b, 27(%rsp)
.LBB423:
.LBB260:
.LBB261:
	.loc 1 1053 17 view .LVU474
	leaq	120(%rsp), %r15
	movl	%eax, 92(%rsp)
.LBB262:
.LBB263:
.LBB264:
	.loc 2 110 10 view .LVU475
	movb	%al, 91(%rsp)
.LVL182:
	.p2align 4,,10
	.p2align 3
.L204:
	.loc 2 110 10 view .LVU476
.LBE264:
.LBE263:
.LBE262:
.LBE261:
	.loc 1 1044 7 is_stmt 1 view .LVU477
	.loc 1 1044 13 is_stmt 0 view .LVU478
	movq	8(%rsp), %rax
	.loc 1 1046 10 view .LVU479
	cmpb	$0, 27(%rsp)
	.loc 1 1044 13 view .LVU480
	movq	(%rax), %rdi
	movq	%rdi, 16(%rsp)
.LVL183:
	.loc 1 1046 7 is_stmt 1 view .LVU481
	.loc 1 1046 10 is_stmt 0 view .LVU482
	je	.L124
	.loc 1 1047 9 is_stmt 1 view .LVU483
.LVL184:
.LBB308:
.LBI308:
	.loc 1 652 1 view .LVU484
.LBB309:
	.loc 1 654 3 view .LVU485
	.loc 1 655 3 view .LVU486
	.loc 1 656 3 view .LVU487
	.loc 1 657 3 view .LVU488
	.loc 1 658 3 view .LVU489
	.loc 1 659 3 view .LVU490
	.loc 1 660 3 view .LVU491
	.loc 1 661 3 view .LVU492
	.loc 1 663 3 view .LVU493
	.loc 1 663 3 is_stmt 0 view .LVU494
.LBE309:
.LBE308:
.LBE260:
.LBE423:
	.loc 4 503 3 is_stmt 1 view .LVU495
	.loc 4 504 3 view .LVU496
	.loc 4 505 3 view .LVU497
.LBB424:
.LBB416:
.LBB398:
.LBB388:
	.loc 1 664 3 view .LVU498
	.loc 1 665 3 view .LVU499
	.loc 1 666 3 view .LVU500
	.loc 1 667 3 view .LVU501
	.loc 1 667 19 is_stmt 0 view .LVU502
	leaq	.LC51(%rip), %rsi
	call	strcmp@PLT
.LVL185:
	.loc 1 667 19 view .LVU503
	movl	%eax, 48(%rsp)
.LVL186:
	.loc 1 669 3 is_stmt 1 view .LVU504
	.loc 1 669 6 is_stmt 0 view .LVU505
	testl	%eax, %eax
	jne	.L125
	.loc 1 671 7 is_stmt 1 view .LVU506
	.loc 1 672 24 is_stmt 0 view .LVU507
	movl	$5, %edx
	leaq	.LC52(%rip), %rsi
	xorl	%edi, %edi
	.loc 1 671 23 view .LVU508
	movb	$1, have_read_stdin(%rip)
	.loc 1 672 7 is_stmt 1 view .LVU509
	.loc 1 672 24 is_stmt 0 view .LVU510
	call	dcgettext@PLT
.LVL187:
	.loc 1 673 24 view .LVU511
	movq	stdin(%rip), %r12
	.loc 1 672 24 view .LVU512
	movq	%rax, 16(%rsp)
.LVL188:
	.loc 1 673 7 is_stmt 1 view .LVU513
.L126:
	.loc 1 685 3 view .LVU514
	.loc 1 686 3 view .LVU515
	.loc 1 660 8 is_stmt 0 view .LVU516
	movb	$0, 90(%rsp)
	.loc 1 655 13 view .LVU517
	xorl	%r14d, %r14d
.LBB310:
	.loc 1 695 7 view .LVU518
	movl	$1, %ebx
	leaq	112(%rsp), %r13
.LBE310:
	.loc 1 686 8 view .LVU519
	movq	$0, 112(%rsp)
	.loc 1 687 3 is_stmt 1 view .LVU520
	.loc 1 687 24 is_stmt 0 view .LVU521
	movq	$0, 120(%rsp)
	.loc 1 688 3 is_stmt 1 view .LVU522
.LBB364:
	.loc 1 690 7 view .LVU523
.LVL189:
	.loc 1 691 7 view .LVU524
	.loc 1 692 7 view .LVU525
	.loc 1 693 7 view .LVU526
	.loc 1 695 7 view .LVU527
	.loc 1 696 7 view .LVU528
.LBE364:
	.loc 1 659 8 is_stmt 0 view .LVU529
	movb	$0, 28(%rsp)
	.loc 1 657 13 view .LVU530
	movq	$0, 80(%rsp)
	.loc 1 658 13 view .LVU531
	movq	$0, 56(%rsp)
.LVL190:
	.p2align 4,,10
	.p2align 3
.L128:
.LBB365:
	.loc 1 700 7 is_stmt 1 view .LVU532
.LBB311:
.LBI311:
	.loc 2 118 1 view .LVU533
.LBB312:
	.loc 2 120 3 view .LVU534
	.loc 2 120 10 is_stmt 0 view .LVU535
	movq	%r12, %rcx
	movl	$10, %edx
	movq	%r15, %rsi
	movq	%r13, %rdi
	call	__getdelim@PLT
.LVL191:
	.loc 2 120 10 view .LVU536
.LBE312:
.LBE311:
	.loc 1 701 7 is_stmt 1 view .LVU537
	.loc 1 701 10 is_stmt 0 view .LVU538
	testq	%rax, %rax
	jle	.L129
	.loc 1 705 7 is_stmt 1 view .LVU539
	.loc 1 705 15 is_stmt 0 view .LVU540
	movq	112(%rsp), %rbp
	movzbl	0(%rbp), %ecx
	.loc 1 705 10 view .LVU541
	cmpb	$35, %cl
	je	.L130
	.loc 1 709 7 is_stmt 1 view .LVU542
	.loc 1 709 15 is_stmt 0 view .LVU543
	movq	%rax, %rsi
	leaq	-1(%rax), %rax
.LVL192:
	.loc 1 709 15 view .LVU544
	leaq	0(%rbp,%rax), %rdx
	.loc 1 709 10 view .LVU545
	cmpb	$10, (%rdx)
	jne	.L131
	.loc 1 710 9 is_stmt 1 view .LVU546
.LVL193:
	.loc 1 710 29 is_stmt 0 view .LVU547
	movb	$0, (%rdx)
	movq	112(%rsp), %rbp
	movq	%rax, %rsi
	movzbl	0(%rbp), %ecx
.L131:
	.loc 1 712 7 is_stmt 1 view .LVU548
.LVL194:
.LBB313:
.LBI313:
	.loc 1 419 1 view .LVU549
.LBB314:
	.loc 1 422 3 view .LVU550
	.loc 1 423 3 view .LVU551
	.loc 1 425 3 view .LVU552
	.loc 1 426 3 view .LVU553
	.loc 1 426 9 view .LVU554
	.loc 1 425 10 is_stmt 0 view .LVU555
	xorl	%edx, %edx
	.loc 1 426 9 view .LVU556
	cmpb	$9, %cl
	je	.L294
	cmpb	$32, %cl
	jne	.L132
.LVL195:
	.p2align 4,,10
	.p2align 3
.L294:
	.loc 1 427 5 is_stmt 1 view .LVU557
	addq	$1, %rdx
.LVL196:
	.loc 1 426 9 view .LVU558
	.loc 1 426 10 is_stmt 0 view .LVU559
	movzbl	0(%rbp,%rdx), %ecx
	.loc 1 426 9 view .LVU560
	cmpb	$32, %cl
	je	.L294
	cmpb	$9, %cl
	je	.L294
.LVL197:
.L132:
	.loc 1 429 3 is_stmt 1 view .LVU561
	.loc 1 422 8 is_stmt 0 view .LVU562
	xorl	%r8d, %r8d
	.loc 1 429 6 view .LVU563
	cmpb	$92, %cl
	jne	.L135
	.loc 1 431 7 is_stmt 1 view .LVU564
	.loc 1 432 24 is_stmt 0 view .LVU565
	movzbl	27(%rsp), %r8d
	.loc 1 431 7 view .LVU566
	addq	$1, %rdx
.LVL198:
	.loc 1 432 7 is_stmt 1 view .LVU567
.L135:
	.loc 1 437 3 view .LVU568
	.loc 1 438 3 view .LVU569
	.loc 1 438 7 is_stmt 0 view .LVU570
	leaq	0(%rbp,%rdx), %rcx
	cmpb	$77, (%rcx)
	jne	.L137
	cmpb	$68, 1(%rcx)
	jne	.L137
	.loc 1 438 6 view .LVU571
	cmpb	$53, 2(%rcx)
	jne	.L137
	.loc 1 440 7 is_stmt 1 view .LVU572
	.loc 1 473 12 is_stmt 0 view .LVU573
	movzbl	3(%rbp,%rdx), %eax
	.loc 1 440 9 view .LVU574
	leaq	3(%rdx), %rcx
.LVL199:
	.loc 1 473 7 is_stmt 1 view .LVU575
	.loc 1 473 10 is_stmt 0 view .LVU576
	cmpb	$32, %al
	jne	.L138
	.loc 1 474 9 is_stmt 1 view .LVU577
	movzbl	4(%rbp,%rdx), %eax
	leaq	4(%rdx), %rcx
.LVL200:
.L138:
	.loc 1 475 7 view .LVU578
	.loc 1 475 10 is_stmt 0 view .LVU579
	cmpb	$40, %al
	je	.L139
.LVL201:
.L141:
	.loc 1 475 10 view .LVU580
.LBE314:
.LBE313:
	.loc 1 715 11 is_stmt 1 view .LVU581
	addq	$1, %r14
.LVL202:
	.loc 1 717 11 view .LVU582
	.loc 1 717 14 is_stmt 0 view .LVU583
	cmpb	$0, warn(%rip)
	jne	.L349
.LVL203:
.L130:
	.loc 1 717 14 view .LVU584
.LBE365:
	.loc 1 797 9 is_stmt 1 view .LVU585
.LBB366:
.LBI366:
	.loc 2 128 1 view .LVU586
.LBB367:
	.loc 2 130 3 view .LVU587
	.loc 2 130 3 is_stmt 0 view .LVU588
.LBE367:
.LBE366:
.LBE388:
.LBE398:
.LBE416:
.LBE424:
	.loc 2 137 3 is_stmt 1 view .LVU589
.LBB425:
.LBB417:
.LBB399:
.LBB389:
	.loc 1 797 35 is_stmt 0 view .LVU590
	testb	$48, (%r12)
	jne	.L129
.L175:
	.loc 1 688 3 is_stmt 1 view .LVU591
.LBB369:
	.loc 1 690 7 view .LVU592
.LVL204:
	.loc 1 691 7 view .LVU593
	.loc 1 692 7 view .LVU594
	.loc 1 693 7 view .LVU595
	.loc 1 695 7 view .LVU596
	.loc 1 696 7 view .LVU597
	.loc 1 696 10 is_stmt 0 view .LVU598
	addq	$1, %rbx
.LVL205:
	.loc 1 696 10 view .LVU599
	jne	.L128
.LBB329:
	.loc 1 697 9 is_stmt 1 view .LVU600
	movq	16(%rsp), %rdx
	movl	$3, %esi
	xorl	%edi, %edi
	call	quotearg_n_style_colon@PLT
.LVL206:
	movl	$5, %edx
	leaq	.LC53(%rip), %rsi
	xorl	%edi, %edi
	movq	%rax, %r12
.LVL207:
	.loc 1 697 9 is_stmt 0 view .LVU601
	call	dcgettext@PLT
.LVL208:
	movq	%r12, %rcx
	xorl	%esi, %esi
	movl	$1, %edi
	movq	%rax, %rdx
	xorl	%eax, %eax
	call	error@PLT
.LVL209:
	.p2align 4,,10
	.p2align 3
.L137:
	.loc 1 697 9 view .LVU602
.LBE329:
.LBB330:
.LBB323:
	.loc 1 489 3 is_stmt 1 view .LVU603
	.loc 1 489 13 is_stmt 0 view .LVU604
	movq	%rsi, %rdi
	.loc 1 489 50 view .LVU605
	xorl	%eax, %eax
	.loc 1 489 13 view .LVU606
	subq	%rdx, %rdi
	.loc 1 489 50 view .LVU607
	cmpb	$92, (%rcx)
	sete	%al
	.loc 1 489 42 view .LVU608
	addq	min_digest_line_length(%rip), %rax
	.loc 1 489 6 view .LVU609
	cmpq	%rax, %rdi
	jb	.L141
	.loc 1 492 3 is_stmt 1 view .LVU610
.LVL210:
	.loc 1 509 3 view .LVU611
	.loc 1 509 5 is_stmt 0 view .LVU612
	addq	digest_hex_bytes(%rip), %rdx
.LVL211:
	.loc 1 510 3 is_stmt 1 view .LVU613
	.loc 1 510 8 is_stmt 0 view .LVU614
	leaq	0(%rbp,%rdx), %rdi
	movzbl	(%rdi), %eax
	.loc 1 510 6 view .LVU615
	cmpb	$32, %al
	je	.L233
	cmpb	$9, %al
	jne	.L141
.L233:
	.loc 1 513 10 view .LVU616
	movb	$0, (%rdi)
.LVL212:
	.loc 1 515 9 view .LVU617
	movq	%rcx, %rdi
	movq	%rdx, 64(%rsp)
	movb	%r8b, 88(%rsp)
	movq	%rsi, 40(%rsp)
	.loc 1 513 3 is_stmt 1 view .LVU618
.LVL213:
	.loc 1 515 3 view .LVU619
	.loc 1 515 9 is_stmt 0 view .LVU620
	movq	%rcx, 32(%rsp)
	call	hex_digits
.LVL214:
	.loc 1 515 6 view .LVU621
	testb	%al, %al
	je	.L141
	.loc 1 513 6 view .LVU622
	movq	64(%rsp), %rdx
	.loc 1 519 14 view .LVU623
	movq	40(%rsp), %rsi
	movl	bsd_reversed(%rip), %edi
	.loc 1 519 6 view .LVU624
	movq	32(%rsp), %rcx
	.loc 1 513 6 view .LVU625
	leaq	1(%rdx), %rax
.LVL215:
	.loc 1 519 3 is_stmt 1 view .LVU626
	.loc 1 519 14 is_stmt 0 view .LVU627
	movq	%rsi, %r9
	.loc 1 519 6 view .LVU628
	movzbl	88(%rsp), %r8d
	.loc 1 519 14 view .LVU629
	subq	%rax, %r9
	.loc 1 519 6 view .LVU630
	cmpq	$1, %r9
	je	.L155
.LVL216:
	.loc 1 519 29 view .LVU631
	movzbl	1(%rbp,%rdx), %r9d
	.loc 1 519 24 view .LVU632
	cmpb	$32, %r9b
	je	.L156
	cmpb	$42, %r9b
	je	.L156
.L155:
	.loc 1 527 7 is_stmt 1 view .LVU633
	.loc 1 527 10 is_stmt 0 view .LVU634
	testl	%edi, %edi
	je	.L141
	.loc 1 529 7 is_stmt 1 view .LVU635
	.loc 1 529 20 is_stmt 0 view .LVU636
	movl	$1, bsd_reversed(%rip)
.L157:
	.loc 1 539 3 is_stmt 1 view .LVU637
	.loc 1 539 16 is_stmt 0 view .LVU638
	addq	%rax, %rbp
.LVL217:
	.loc 1 541 3 is_stmt 1 view .LVU639
	.loc 1 541 6 is_stmt 0 view .LVU640
	testb	%r8b, %r8b
	jne	.L350
.LVL218:
.L158:
	.loc 1 541 6 view .LVU641
.LBE323:
.LBE330:
	.loc 1 712 11 view .LVU642
	movl	48(%rsp), %eax
	testl	%eax, %eax
	jne	.L159
	.loc 1 713 32 view .LVU643
	cmpb	$45, 0(%rbp)
	jne	.L159
	.loc 1 713 17 view .LVU644
	cmpb	$0, 1(%rbp)
	je	.L141
	.p2align 4,,10
	.p2align 3
.L159:
.LBB331:
	.loc 1 730 11 is_stmt 1 view .LVU645
	.loc 1 734 11 view .LVU646
	.loc 1 735 11 view .LVU647
	.loc 1 738 11 view .LVU648
	.loc 1 738 45 is_stmt 0 view .LVU649
	cmpb	$0, status_only(%rip)
	movl	$0, 28(%rsp)
.LVL219:
	.loc 1 738 45 view .LVU650
	jne	.L161
	.loc 1 738 48 view .LVU651
	movl	$10, %esi
	movq	%rbp, %rdi
	movq	%rcx, 32(%rsp)
	call	strchr@PLT
.LVL220:
	.loc 1 738 45 view .LVU652
	movq	32(%rsp), %rcx
	testq	%rax, %rax
	setne	%al
	movzbl	%al, %eax
	movl	%eax, 28(%rsp)
.L161:
	.loc 1 742 16 view .LVU653
	leaq	160(%rsp), %rsi
.LVL221:
	.loc 1 742 16 view .LVU654
	leaq	111(%rsp), %rdx
	movq	%rbp, %rdi
	movq	%rcx, 40(%rsp)
.LVL222:
	.loc 1 740 11 is_stmt 1 view .LVU655
	.loc 1 742 11 view .LVU656
	.loc 1 742 16 is_stmt 0 view .LVU657
	movq	%rsi, 32(%rsp)
	call	digest_file.isra.0
.LVL223:
	.loc 1 744 14 view .LVU658
	movq	32(%rsp), %rsi
	movq	40(%rsp), %rcx
	testb	%al, %al
	.loc 1 742 16 view .LVU659
	movl	%eax, %r8d
.LVL224:
	.loc 1 744 11 is_stmt 1 view .LVU660
	.loc 1 744 14 is_stmt 0 view .LVU661
	jne	.L162
	.loc 1 746 15 is_stmt 1 view .LVU662
	.loc 1 747 15 view .LVU663
	.loc 1 746 15 is_stmt 0 view .LVU664
	addq	$1, 56(%rsp)
.LVL225:
	.loc 1 747 18 view .LVU665
	cmpb	$0, status_only(%rip)
	jne	.L163
	.loc 1 749 19 is_stmt 1 view .LVU666
	.loc 1 749 22 is_stmt 0 view .LVU667
	cmpl	$0, 28(%rsp)
	je	.L164
	.loc 1 750 21 is_stmt 1 view .LVU668
.LVL226:
.LBB332:
.LBI332:
	.loc 2 108 1 view .LVU669
.LBB333:
	.loc 2 110 3 view .LVU670
	.loc 2 110 10 is_stmt 0 view .LVU671
	movq	stdout(%rip), %rdi
	movq	40(%rdi), %rax
.LVL227:
	.loc 2 110 10 view .LVU672
	cmpq	48(%rdi), %rax
	jnb	.L351
	leaq	1(%rax), %rdx
	movq	%rdx, 40(%rdi)
	movb	$92, (%rax)
.LVL228:
.L164:
	.loc 2 110 10 view .LVU673
.LBE333:
.LBE332:
	.loc 1 751 19 is_stmt 1 view .LVU674
	movl	28(%rsp), %esi
	movq	%rbp, %rdi
	call	print_filename
.LVL229:
	.loc 1 752 19 view .LVU675
	movl	$5, %edx
	leaq	.LC55(%rip), %rsi
.LVL230:
.L340:
.LBB335:
	.loc 1 792 21 is_stmt 0 view .LVU676
	xorl	%edi, %edi
	call	dcgettext@PLT
.LVL231:
.LBB336:
.LBB337:
	.loc 3 107 10 view .LVU677
	leaq	.LC56(%rip), %rsi
	movl	$1, %edi
.LBE337:
.LBE336:
	.loc 1 792 21 view .LVU678
	movq	%rax, %rdx
.LVL232:
.LBB339:
.LBI336:
	.loc 3 105 1 is_stmt 1 view .LVU679
.LBB338:
	.loc 3 107 3 view .LVU680
	.loc 3 107 10 is_stmt 0 view .LVU681
	xorl	%eax, %eax
	call	__printf_chk@PLT
.LVL233:
.L163:
	.loc 3 107 10 view .LVU682
.LBE338:
.LBE339:
.LBE335:
	.loc 1 740 36 view .LVU683
	movzbl	27(%rsp), %eax
	movb	%al, 28(%rsp)
.LVL234:
	.loc 1 740 36 view .LVU684
.LBE331:
.LBE369:
	.loc 1 797 9 is_stmt 1 view .LVU685
.LBB370:
	.loc 2 128 1 view .LVU686
.LBB368:
	.loc 2 130 3 view .LVU687
	.loc 2 130 3 is_stmt 0 view .LVU688
.LBE368:
.LBE370:
.LBE389:
.LBE399:
.LBE417:
.LBE425:
	.loc 2 137 3 is_stmt 1 view .LVU689
.LBB426:
.LBB418:
.LBB400:
.LBB390:
	.loc 1 797 35 is_stmt 0 view .LVU690
	testb	$48, (%r12)
	je	.L175
.LVL235:
.L129:
	.loc 1 799 3 is_stmt 1 view .LVU691
	movq	112(%rsp), %rdi
	call	free@PLT
.LVL236:
	.loc 1 801 3 view .LVU692
.LBB371:
.LBI371:
	.loc 2 135 1 view .LVU693
.LBB372:
	.loc 2 137 3 view .LVU694
	.loc 2 137 3 is_stmt 0 view .LVU695
.LBE372:
.LBE371:
	.loc 1 801 6 view .LVU696
	movl	(%r12), %ebx
.LVL237:
	.loc 1 801 6 view .LVU697
	andl	$32, %ebx
	jne	.L352
	.loc 1 807 3 is_stmt 1 view .LVU698
	.loc 1 807 6 is_stmt 0 view .LVU699
	cmpl	$0, 48(%rsp)
	jne	.L353
.L177:
	.loc 1 813 3 is_stmt 1 view .LVU700
	.loc 1 813 6 is_stmt 0 view .LVU701
	cmpb	$0, 28(%rsp)
	je	.L354
	.loc 1 821 7 is_stmt 1 view .LVU702
	.loc 1 821 10 is_stmt 0 view .LVU703
	cmpb	$0, status_only(%rip)
	jne	.L180
	.loc 1 823 11 is_stmt 1 view .LVU704
	.loc 1 823 14 is_stmt 0 view .LVU705
	testq	%r14, %r14
	jne	.L355
.L181:
	.loc 1 831 11 is_stmt 1 view .LVU706
	.loc 1 831 14 is_stmt 0 view .LVU707
	cmpq	$0, 56(%rsp)
	jne	.L356
.L182:
	.loc 1 839 11 is_stmt 1 view .LVU708
	.loc 1 839 14 is_stmt 0 view .LVU709
	cmpq	$0, 80(%rsp)
	jne	.L357
.L183:
	.loc 1 847 11 is_stmt 1 view .LVU710
	.loc 1 847 14 is_stmt 0 view .LVU711
	cmpb	$0, ignore_missing(%rip)
	je	.L180
	.loc 1 847 30 view .LVU712
	cmpb	$0, 90(%rsp)
	je	.L184
.L187:
	.loc 1 856 11 view .LVU713
	movq	56(%rsp), %rax
	orq	80(%rsp), %rax
.LVL238:
	.loc 1 856 11 view .LVU714
	jne	.L179
	.loc 1 857 11 view .LVU715
	movzbl	strict(%rip), %eax
	xorl	$1, %eax
	.loc 1 857 23 view .LVU716
	testq	%r14, %r14
	sete	%bl
	.loc 1 857 11 view .LVU717
	orl	%ebx, %eax
	movzbl	%al, %ebx
.LVL239:
.L179:
	.loc 1 857 11 view .LVU718
	movl	%ebx, %eax
	andl	$1, %eax
.LVL240:
.L127:
	.loc 1 857 11 view .LVU719
	andb	%al, 89(%rsp)
.LVL241:
	.loc 1 857 11 view .LVU720
.LBE390:
.LBE400:
	jmp	.L188
.LVL242:
	.p2align 4,,10
	.p2align 3
.L349:
.LBB401:
.LBB391:
.LBB373:
	.loc 1 719 15 is_stmt 1 view .LVU721
	movq	16(%rsp), %rdx
	xorl	%edi, %edi
	movl	$3, %esi
	call	quotearg_n_style_colon@PLT
.LVL243:
	.loc 1 720 22 is_stmt 0 view .LVU722
	xorl	%edi, %edi
	movl	$5, %edx
	leaq	.LC54(%rip), %rsi
	.loc 1 719 15 view .LVU723
	movq	%rax, %rbp
	.loc 1 720 22 view .LVU724
	call	dcgettext@PLT
.LVL244:
	.loc 1 719 15 view .LVU725
	leaq	.LC9(%rip), %r9
	xorl	%esi, %esi
	xorl	%edi, %edi
	.loc 1 720 22 view .LVU726
	movq	%rax, %rdx
	.loc 1 719 15 view .LVU727
	movq	%rbx, %r8
	movq	%rbp, %rcx
	xorl	%eax, %eax
	call	error@PLT
.LVL245:
	jmp	.L130
.LVL246:
	.p2align 4,,10
	.p2align 3
.L162:
.LBB354:
	.loc 1 755 16 is_stmt 1 view .LVU728
	.loc 1 755 19 is_stmt 0 view .LVU729
	cmpb	$0, ignore_missing(%rip)
	je	.L166
	.loc 1 755 35 view .LVU730
	cmpb	$0, 111(%rsp)
	jne	.L163
.L166:
.LBB349:
	.loc 1 767 15 view .LVU731
	movq	digest_hex_bytes(%rip), %r9
	movq	%rsi, 40(%rsp)
	movq	%rcx, 32(%rsp)
.LVL247:
	.loc 1 762 15 is_stmt 1 view .LVU732
	.loc 1 763 15 view .LVU733
	.loc 1 767 15 view .LVU734
	.loc 1 767 29 view .LVU735
	.loc 1 767 15 is_stmt 0 view .LVU736
	shrq	%r9
.LVL248:
	.loc 1 767 15 view .LVU737
	je	.L225
	movq	%r9, 64(%rsp)
	movb	%r8b, 88(%rsp)
.LBB340:
	.loc 1 769 23 view .LVU738
	call	__ctype_tolower_loc@PLT
.LVL249:
	.loc 1 769 23 view .LVU739
.LBE340:
	.loc 1 767 24 view .LVU740
	movq	64(%rsp), %r9
	movq	32(%rsp), %rcx
	xorl	%edx, %edx
.LBB341:
	.loc 1 769 23 view .LVU741
	movq	(%rax), %r10
.LBE341:
	.loc 1 767 24 view .LVU742
	movq	40(%rsp), %rsi
	jmp	.L169
.LVL250:
	.p2align 4,,10
	.p2align 3
.L359:
.LBB342:
	.loc 1 771 27 is_stmt 1 view .LVU743
	.loc 1 771 27 view .LVU744
	.loc 1 771 27 view .LVU745
	.loc 1 771 27 view .LVU746
	movzbl	1(%rcx,%rdx,2), %edi
.LBE342:
	.loc 1 772 38 is_stmt 0 view .LVU747
	andl	$15, %eax
	movsbl	(%r8,%rax), %eax
	.loc 1 771 23 view .LVU748
	cmpl	%eax, (%r10,%rdi,4)
	jne	.L168
	.loc 1 767 53 is_stmt 1 view .LVU749
	addq	$1, %rdx
.LVL251:
	.loc 1 767 29 view .LVU750
	.loc 1 767 15 is_stmt 0 view .LVU751
	cmpq	%rdx, %r9
	je	.L358
.LVL252:
.L169:
	.loc 1 769 19 is_stmt 1 view .LVU752
.LBB343:
	.loc 1 769 23 view .LVU753
	.loc 1 769 23 view .LVU754
	.loc 1 769 23 view .LVU755
	.loc 1 769 23 view .LVU756
.LBE343:
	.loc 1 770 44 is_stmt 0 view .LVU757
	movzbl	(%rsi,%rdx), %eax
.LBB344:
	.loc 1 769 23 view .LVU758
	movzbl	(%rcx,%rdx,2), %r11d
.LBE344:
	.loc 1 770 33 view .LVU759
	leaq	bin2hex.7353(%rip), %r8
	.loc 1 770 50 view .LVU760
	movl	%eax, %edi
	shrb	$4, %dil
	.loc 1 770 33 view .LVU761
	andl	$15, %edi
	movsbl	(%r8,%rdi), %edi
	.loc 1 769 22 view .LVU762
	cmpl	%edi, (%r10,%r11,4)
	je	.L359
.L168:
	.loc 1 776 17 is_stmt 1 view .LVU763
	.loc 1 780 15 view .LVU764
	.loc 1 776 17 is_stmt 0 view .LVU765
	addq	$1, 80(%rsp)
.LVL253:
	.loc 1 780 18 view .LVU766
	cmpb	$0, status_only(%rip)
	jne	.L163
	.loc 1 784 23 is_stmt 1 view .LVU767
	.loc 1 784 26 is_stmt 0 view .LVU768
	cmpl	$0, 28(%rsp)
	je	.L172
.LVL254:
.L212:
	.loc 1 785 25 is_stmt 1 view .LVU769
.LBB345:
.LBI345:
	.loc 2 108 1 view .LVU770
.LBB346:
	.loc 2 110 3 view .LVU771
	.loc 2 110 10 is_stmt 0 view .LVU772
	movq	stdout(%rip), %rdi
	movq	40(%rdi), %rax
	cmpq	48(%rdi), %rax
	jnb	.L360
	leaq	1(%rax), %rcx
	movq	%rcx, 40(%rdi)
	movb	$92, (%rax)
.LVL255:
.L172:
	.loc 2 110 10 view .LVU773
.LBE346:
.LBE345:
	.loc 1 786 23 view .LVU774
	movl	28(%rsp), %esi
	movq	%rbp, %rdi
	movq	%rdx, 40(%rsp)
	movq	%r9, 32(%rsp)
	.loc 1 786 23 is_stmt 1 view .LVU775
	call	print_filename
.LVL256:
	.loc 1 789 19 view .LVU776
	.loc 1 789 22 is_stmt 0 view .LVU777
	movq	32(%rsp), %r9
	movq	40(%rsp), %rdx
	cmpq	%rdx, %r9
	je	.L174
	.loc 1 790 21 is_stmt 1 view .LVU778
	movl	$5, %edx
	leaq	.LC57(%rip), %rsi
	jmp	.L340
.LVL257:
.L124:
	.loc 1 790 21 is_stmt 0 view .LVU779
.LBE349:
.LBE354:
.LBE373:
.LBE391:
.LBE401:
.LBB402:
	.loc 1 1050 11 is_stmt 1 view .LVU780
	.loc 1 1051 11 view .LVU781
	.loc 1 1053 11 view .LVU782
	.loc 1 1053 17 is_stmt 0 view .LVU783
	leaq	128(%rsp), %rbx
.LVL258:
	.loc 1 1053 17 view .LVU784
	movq	16(%rsp), %rdi
.LVL259:
	.loc 1 1053 17 view .LVU785
	movq	%r15, %rdx
	movq	%rbx, %rsi
	call	digest_file.isra.0
.LVL260:
	.loc 1 1053 14 view .LVU786
	testb	%al, %al
	jne	.L361
	.loc 1 1054 16 view .LVU787
	movb	$0, 89(%rsp)
.LVL261:
.L188:
	.loc 1 1054 16 view .LVU788
.LBE402:
.LBE418:
	.loc 1 1042 65 is_stmt 1 discriminator 2 view .LVU789
	.loc 1 1042 73 is_stmt 0 discriminator 2 view .LVU790
	addq	$8, 8(%rsp)
.LVL262:
	.loc 1 1042 73 discriminator 2 view .LVU791
	movq	8(%rsp), %rax
.LVL263:
	.loc 1 1042 41 is_stmt 1 discriminator 2 view .LVU792
	.loc 1 1042 3 is_stmt 0 discriminator 2 view .LVU793
	cmpq	%rax, 72(%rsp)
	ja	.L204
.LVL264:
.L123:
	.loc 1 1042 3 discriminator 2 view .LVU794
.LBE426:
	.loc 1 1106 3 is_stmt 1 view .LVU795
	.loc 1 1106 6 is_stmt 0 view .LVU796
	cmpb	$0, have_read_stdin(%rip)
	jne	.L362
.LVL265:
.L205:
	.loc 1 1109 3 is_stmt 1 view .LVU797
	.loc 1 1109 28 is_stmt 0 view .LVU798
	movzbl	89(%rsp), %eax
	xorl	$1, %eax
	.loc 1 1110 1 view .LVU799
	movq	184(%rsp), %rbx
	xorq	%fs:40, %rbx
	.loc 1 1109 28 view .LVU800
	movzbl	%al, %eax
	.loc 1 1110 1 view .LVU801
	jne	.L363
	addq	$200, %rsp
	.cfi_remember_state
	.cfi_def_cfa_offset 56
	popq	%rbx
	.cfi_def_cfa_offset 48
	popq	%rbp
	.cfi_def_cfa_offset 40
	popq	%r12
	.cfi_def_cfa_offset 32
	popq	%r13
	.cfi_def_cfa_offset 24
	popq	%r14
	.cfi_def_cfa_offset 16
	popq	%r15
	.cfi_def_cfa_offset 8
	ret
.LVL266:
.L139:
	.cfi_restore_state
.LBB427:
.LBB419:
.LBB403:
.LBB392:
.LBB374:
.LBB355:
.LBB324:
	.loc 1 477 11 is_stmt 1 view .LVU802
	addq	$1, %rcx
.LVL267:
	.loc 1 478 11 view .LVU803
	.loc 1 479 11 view .LVU804
.LBB315:
.LBI315:
	.loc 1 375 1 view .LVU805
.LBB316:
	.loc 1 378 3 view .LVU806
	.loc 1 380 3 view .LVU807
	.loc 1 380 6 is_stmt 0 view .LVU808
	movq	%rsi, %rax
	subq	%rcx, %rax
.LVL268:
	.loc 1 380 6 view .LVU809
	je	.L141
.LBE316:
.LBE315:
	.loc 1 479 18 view .LVU810
	addq	%rcx, %rbp
.LVL269:
.LBB320:
.LBB317:
	.loc 1 384 3 is_stmt 1 view .LVU811
	.loc 1 385 3 view .LVU812
	.loc 1 385 9 view .LVU813
	subq	$1, %rax
.LVL270:
	.loc 1 385 9 is_stmt 0 view .LVU814
	movq	%rax, %r10
	jne	.L142
	jmp	.L143
.LVL271:
	.p2align 4,,10
	.p2align 3
.L144:
	.loc 1 386 5 is_stmt 1 view .LVU815
	.loc 1 385 9 view .LVU816
	subq	$1, %r10
.LVL272:
	.loc 1 385 9 is_stmt 0 view .LVU817
	je	.L143
.L142:
	.loc 1 385 12 view .LVU818
	cmpb	$41, 0(%rbp,%r10)
	leaq	0(%rbp,%r10), %r11
	jne	.L144
.LVL273:
.L145:
	.loc 1 391 3 is_stmt 1 view .LVU819
	.loc 1 393 3 view .LVU820
	.loc 1 393 6 is_stmt 0 view .LVU821
	testb	%r8b, %r8b
	jne	.L146
.LVL274:
.L149:
	.loc 1 396 3 is_stmt 1 view .LVU822
	.loc 1 396 10 is_stmt 0 view .LVU823
	movb	$0, (%r11)
	.loc 1 398 10 view .LVU824
	movzbl	1(%rbp,%r10), %edx
	.loc 1 396 6 view .LVU825
	leaq	1(%r10), %rax
.LVL275:
	.loc 1 398 3 is_stmt 1 view .LVU826
	.loc 1 398 9 view .LVU827
	cmpb	$9, %dl
	je	.L295
	cmpb	$32, %dl
	jne	.L148
	.p2align 4,,10
	.p2align 3
.L295:
	.loc 1 399 5 view .LVU828
	.loc 1 399 6 is_stmt 0 view .LVU829
	addq	$1, %rax
.LVL276:
	.loc 1 398 9 is_stmt 1 view .LVU830
	.loc 1 398 10 is_stmt 0 view .LVU831
	movzbl	0(%rbp,%rax), %edx
	.loc 1 398 9 view .LVU832
	cmpb	$32, %dl
	je	.L295
	cmpb	$9, %dl
	je	.L295
.L148:
	.loc 1 401 3 is_stmt 1 view .LVU833
	.loc 1 401 6 is_stmt 0 view .LVU834
	cmpb	$61, %dl
	jne	.L141
	.loc 1 404 3 is_stmt 1 view .LVU835
.LVL277:
	.loc 1 406 3 view .LVU836
	.loc 1 406 9 view .LVU837
	.loc 1 406 10 is_stmt 0 view .LVU838
	leaq	1(%rbp,%rax), %rcx
	movzbl	(%rcx), %edx
	.loc 1 406 9 view .LVU839
	cmpb	$9, %dl
	je	.L232
	.loc 1 406 9 view .LVU840
	cmpb	$32, %dl
	jne	.L150
.L232:
	leaq	2(%rbp,%rax), %rax
.LVL278:
	.p2align 4,,10
	.p2align 3
.L296:
	.loc 1 407 5 is_stmt 1 view .LVU841
	.loc 1 406 9 view .LVU842
	.loc 1 406 10 is_stmt 0 view .LVU843
	movzbl	(%rax), %edx
	movq	%rax, %rcx
	addq	$1, %rax
.LVL279:
	.loc 1 406 9 view .LVU844
	cmpb	$32, %dl
	je	.L296
	cmpb	$9, %dl
	je	.L296
.LVL280:
.L150:
	.loc 1 409 3 is_stmt 1 view .LVU845
	.loc 1 411 3 view .LVU846
	.loc 1 411 10 is_stmt 0 view .LVU847
	movq	%rcx, %rdi
	movq	%rcx, 32(%rsp)
	call	hex_digits
.LVL281:
	.loc 1 411 10 view .LVU848
	movq	32(%rsp), %rcx
.LVL282:
.L153:
	.loc 1 411 10 view .LVU849
.LBE317:
.LBE320:
.LBE324:
.LBE355:
	.loc 1 712 10 view .LVU850
	testb	%al, %al
	jne	.L158
	jmp	.L141
.LVL283:
.L125:
	.loc 1 712 10 view .LVU851
.LBE374:
	.loc 1 677 7 is_stmt 1 view .LVU852
	.loc 1 677 26 is_stmt 0 view .LVU853
	movq	16(%rsp), %rdi
	leaq	.LC2(%rip), %rsi
	call	fopen_safer@PLT
.LVL284:
	.loc 1 677 26 view .LVU854
	movq	%rax, %r12
.LVL285:
	.loc 1 678 7 is_stmt 1 view .LVU855
	.loc 1 678 10 is_stmt 0 view .LVU856
	testq	%rax, %rax
	jne	.L126
.LVL286:
.L341:
	.loc 1 809 7 is_stmt 1 view .LVU857
	movq	16(%rsp), %rdx
	movl	$3, %esi
	xorl	%edi, %edi
	call	quotearg_n_style_colon@PLT
.LVL287:
	movq	%rax, %r12
.LVL288:
	.loc 1 809 17 is_stmt 0 view .LVU858
	call	__errno_location@PLT
.LVL289:
	.loc 1 809 7 view .LVU859
	movq	%r12, %rcx
	leaq	.LC3(%rip), %rdx
	xorl	%edi, %edi
	movl	(%rax), %esi
	xorl	%eax, %eax
	call	error@PLT
.LVL290:
	.loc 1 810 7 is_stmt 1 view .LVU860
	.loc 1 810 14 is_stmt 0 view .LVU861
	xorl	%eax, %eax
	jmp	.L127
.LVL291:
.L156:
.LBB375:
.LBB356:
.LBB325:
	.loc 1 531 8 is_stmt 1 view .LVU862
	.loc 1 531 11 is_stmt 0 view .LVU863
	subl	$1, %edi
	je	.L157
	.loc 1 533 7 is_stmt 1 view .LVU864
	.loc 1 533 20 is_stmt 0 view .LVU865
	movl	$0, bsd_reversed(%rip)
	.loc 1 534 7 is_stmt 1 view .LVU866
	.loc 1 534 21 is_stmt 0 view .LVU867
	leaq	2(%rdx), %rax
.LVL292:
	.loc 1 534 21 view .LVU868
	jmp	.L157
.LVL293:
.L180:
	.loc 1 534 21 view .LVU869
.LBE325:
.LBE356:
.LBE375:
	.loc 1 853 3 is_stmt 1 view .LVU870
	.loc 1 857 11 is_stmt 0 view .LVU871
	cmpb	$0, 90(%rsp)
	jne	.L187
	jmp	.L179
.LVL294:
.L143:
.LBB376:
.LBB357:
.LBB326:
.LBB321:
.LBB318:
	.loc 1 388 3 is_stmt 1 view .LVU872
	.loc 1 388 6 is_stmt 0 view .LVU873
	cmpb	$41, 0(%rbp)
	jne	.L141
	movq	%rbp, %r11
	xorl	%r10d, %r10d
.LVL295:
	.loc 1 388 6 view .LVU874
	jmp	.L145
.LVL296:
.L361:
	.loc 1 388 6 view .LVU875
.LBE318:
.LBE321:
.LBE326:
.LBE357:
.LBE376:
.LBE392:
.LBE403:
.LBB404:
.LBB301:
	.loc 1 1064 15 is_stmt 1 view .LVU876
	.loc 1 1064 36 is_stmt 0 view .LVU877
	movq	16(%rsp), %rdi
	movl	$92, %esi
	call	strchr@PLT
.LVL297:
	.loc 1 1065 35 view .LVU878
	testq	%rax, %rax
	je	.L364
.L190:
	.loc 1 1065 35 discriminator 1 view .LVU879
	cmpb	$10, delim(%rip)
	je	.L365
.L191:
.LVL298:
	.loc 1 1067 15 is_stmt 1 view .LVU880
	.loc 1 1067 18 is_stmt 0 view .LVU881
	cmpb	$0, 55(%rsp)
	jne	.L366
.LVL299:
.LBB267:
	.loc 1 1089 34 is_stmt 1 view .LVU882
	.loc 1 1089 15 is_stmt 0 view .LVU883
	movq	digest_hex_bytes(%rip), %rax
.LBE267:
	.loc 1 1065 35 view .LVU884
	xorl	%ebp, %ebp
.LBB274:
	.loc 1 1089 15 view .LVU885
	shrq	%rax
	je	.L215
.LVL300:
.L214:
	.loc 1 1089 15 view .LVU886
	xorl	%r12d, %r12d
.LVL301:
	.p2align 4,,10
	.p2align 3
.L197:
	.loc 1 1090 17 is_stmt 1 discriminator 3 view .LVU887
.LBB268:
.LBI268:
	.loc 3 105 1 discriminator 3 view .LVU888
.LBB269:
	.loc 3 107 3 discriminator 3 view .LVU889
.LBE269:
.LBE268:
	.loc 1 1090 17 is_stmt 0 discriminator 3 view .LVU890
	movzbl	(%rbx,%r12), %edx
.LBB272:
.LBB270:
	.loc 3 107 10 discriminator 3 view .LVU891
	leaq	.LC68(%rip), %rsi
	movl	$1, %edi
	xorl	%eax, %eax
.LBE270:
.LBE272:
	.loc 1 1089 62 discriminator 3 view .LVU892
	addq	$1, %r12
.LVL302:
.LBB273:
.LBB271:
	.loc 3 107 10 discriminator 3 view .LVU893
	call	__printf_chk@PLT
.LVL303:
	.loc 3 107 10 discriminator 3 view .LVU894
.LBE271:
.LBE273:
	.loc 1 1089 62 is_stmt 1 discriminator 3 view .LVU895
	.loc 1 1089 34 discriminator 3 view .LVU896
	.loc 1 1089 56 is_stmt 0 discriminator 3 view .LVU897
	movq	digest_hex_bytes(%rip), %rax
	shrq	%rax
	.loc 1 1089 15 discriminator 3 view .LVU898
	cmpq	%r12, %rax
	ja	.L197
.LBE274:
	.loc 1 1092 15 is_stmt 1 view .LVU899
	.loc 1 1092 18 is_stmt 0 view .LVU900
	cmpb	$0, 55(%rsp)
	je	.L215
.LVL304:
.L198:
	.loc 1 1101 15 is_stmt 1 view .LVU901
.LBB275:
.LBB276:
	.loc 2 110 10 is_stmt 0 view .LVU902
	movq	stdout(%rip), %rdi
.LBE276:
.LBE275:
	.loc 1 1101 15 view .LVU903
	movzbl	delim(%rip), %edx
.LVL305:
.LBB279:
.LBI275:
	.loc 2 108 1 is_stmt 1 view .LVU904
.LBB277:
	.loc 2 110 3 view .LVU905
	.loc 2 110 10 is_stmt 0 view .LVU906
	movq	40(%rdi), %rax
	cmpq	48(%rdi), %rax
	jnb	.L367
	leaq	1(%rax), %rcx
	movq	%rcx, 40(%rdi)
	movb	%dl, (%rax)
	jmp	.L188
.LVL306:
.L358:
	.loc 2 110 10 view .LVU907
	movzbl	88(%rsp), %r8d
.LBE277:
.LBE279:
.LBE301:
.LBE404:
.LBB405:
.LBB393:
.LBB377:
.LBB358:
.LBB350:
	movq	%r9, %rdx
.LVL307:
.L167:
	.loc 1 780 15 is_stmt 1 view .LVU908
	.loc 1 780 19 is_stmt 0 view .LVU909
	movzbl	status_only(%rip), %eax
	movb	%al, 90(%rsp)
	.loc 1 780 18 view .LVU910
	testb	%al, %al
	jne	.L163
	.loc 1 782 50 view .LVU911
	movzbl	quiet(%rip), %eax
	movb	%al, 90(%rsp)
	.loc 1 782 47 view .LVU912
	testb	%al, %al
	jne	.L163
	.loc 1 784 23 is_stmt 1 view .LVU913
	.loc 1 784 26 is_stmt 0 view .LVU914
	cmpl	$0, 28(%rsp)
	je	.L368
	.loc 1 778 35 view .LVU915
	movb	%r8b, 90(%rsp)
	jmp	.L212
.LVL308:
.L353:
	.loc 1 778 35 view .LVU916
.LBE350:
.LBE358:
.LBE377:
	.loc 1 807 20 view .LVU917
	movq	%r12, %rdi
	call	rpl_fclose@PLT
.LVL309:
	.loc 1 807 17 view .LVU918
	testl	%eax, %eax
	je	.L177
	jmp	.L341
.L354:
	.loc 1 816 7 is_stmt 1 view .LVU919
	movq	16(%rsp), %rdx
	xorl	%edi, %edi
	movl	$3, %esi
	call	quotearg_n_style_colon@PLT
.LVL310:
	.loc 1 816 20 is_stmt 0 view .LVU920
	xorl	%edi, %edi
	movl	$5, %edx
	leaq	.LC60(%rip), %rsi
	.loc 1 816 7 view .LVU921
	movq	%rax, %r12
.LVL311:
	.loc 1 816 20 view .LVU922
	call	dcgettext@PLT
.LVL312:
	.loc 1 816 7 view .LVU923
	leaq	.LC9(%rip), %r8
	xorl	%esi, %esi
	xorl	%edi, %edi
	.loc 1 816 20 view .LVU924
	movq	%rax, %rdx
	.loc 1 816 7 view .LVU925
	movq	%r12, %rcx
	xorl	%eax, %eax
	call	error@PLT
.LVL313:
	jmp	.L179
.LVL314:
.L350:
.LBB378:
.LBB359:
.LBB327:
	.loc 1 542 12 view .LVU926
	subq	%rax, %rsi
	movq	%rbp, %rdi
	movq	%rcx, 32(%rsp)
	.loc 1 542 5 is_stmt 1 view .LVU927
	.loc 1 542 12 is_stmt 0 view .LVU928
	call	filename_unescape
.LVL315:
	.loc 1 542 49 view .LVU929
	movq	32(%rsp), %rcx
	testq	%rax, %rax
	setne	%al
	jmp	.L153
.LVL316:
.L352:
	.loc 1 542 49 view .LVU930
.LBE327:
.LBE359:
.LBE378:
	.loc 1 803 7 is_stmt 1 view .LVU931
	movq	16(%rsp), %rdx
	movl	$3, %esi
	xorl	%edi, %edi
	call	quotearg_n_style_colon@PLT
.LVL317:
	.loc 1 803 20 is_stmt 0 view .LVU932
	movl	$5, %edx
	leaq	.LC59(%rip), %rsi
	xorl	%edi, %edi
	.loc 1 803 7 view .LVU933
	movq	%rax, %r12
.LVL318:
	.loc 1 803 20 view .LVU934
	call	dcgettext@PLT
.LVL319:
	.loc 1 803 7 view .LVU935
	movq	%r12, %rcx
	xorl	%esi, %esi
	xorl	%edi, %edi
	.loc 1 803 20 view .LVU936
	movq	%rax, %rdx
	.loc 1 803 7 view .LVU937
	xorl	%eax, %eax
	call	error@PLT
.LVL320:
	.loc 1 804 7 is_stmt 1 view .LVU938
	.loc 1 804 14 is_stmt 0 view .LVU939
	xorl	%eax, %eax
	jmp	.L127
.LVL321:
.L365:
	.loc 1 804 14 view .LVU940
.LBE393:
.LBE405:
.LBB406:
.LBB302:
	.loc 1 1067 15 is_stmt 1 view .LVU941
	.loc 1 1067 18 is_stmt 0 view .LVU942
	cmpb	$0, 55(%rsp)
	jne	.L208
	.loc 1 1087 17 is_stmt 1 view .LVU943
.LVL322:
.LBB280:
.LBI280:
	.loc 2 108 1 view .LVU944
.LBB281:
	.loc 2 110 3 view .LVU945
	.loc 2 110 10 is_stmt 0 view .LVU946
	movq	stdout(%rip), %rdi
	movq	40(%rdi), %rax
	cmpq	48(%rdi), %rax
	jnb	.L369
	leaq	1(%rax), %rdx
	movq	%rdx, 40(%rdi)
	movb	$92, (%rax)
.L196:
.LVL323:
	.loc 2 110 10 view .LVU947
.LBE281:
.LBE280:
.LBB283:
	.loc 1 1089 34 is_stmt 1 view .LVU948
	.loc 1 1089 15 is_stmt 0 view .LVU949
	movq	digest_hex_bytes(%rip), %rax
	movl	$1, %ebp
	shrq	%rax
	jne	.L214
.LVL324:
.L215:
	.loc 1 1089 15 view .LVU950
.LBE283:
	.loc 1 1094 19 is_stmt 1 view .LVU951
.LBB284:
.LBI284:
	.loc 2 108 1 view .LVU952
.LBB285:
	.loc 2 110 3 view .LVU953
	.loc 2 110 10 is_stmt 0 view .LVU954
	movq	stdout(%rip), %rdi
	movq	40(%rdi), %rax
	cmpq	48(%rdi), %rax
	jnb	.L370
	leaq	1(%rax), %rdx
	movq	%rdx, 40(%rdi)
	movb	$32, (%rax)
.L200:
.LVL325:
	.loc 2 110 10 view .LVU955
.LBE285:
.LBE284:
	.loc 1 1096 19 is_stmt 1 view .LVU956
.LBB287:
.LBI263:
	.loc 2 108 1 view .LVU957
.LBB265:
	.loc 2 110 3 view .LVU958
	.loc 2 110 10 is_stmt 0 view .LVU959
	movq	stdout(%rip), %rdi
	movq	40(%rdi), %rax
	cmpq	48(%rdi), %rax
	jnb	.L371
	movzbl	91(%rsp), %ebx
.LVL326:
	.loc 2 110 10 view .LVU960
	leaq	1(%rax), %rdx
	movq	%rdx, 40(%rdi)
	movb	%bl, (%rax)
.L202:
.LVL327:
	.loc 2 110 10 view .LVU961
.LBE265:
.LBE287:
	.loc 1 1098 19 is_stmt 1 view .LVU962
	movq	16(%rsp), %rdi
	movl	%ebp, %esi
	call	print_filename
.LVL328:
	jmp	.L198
.LVL329:
.L368:
	.loc 1 1098 19 is_stmt 0 view .LVU963
.LBE302:
.LBE406:
.LBB407:
.LBB394:
.LBB379:
.LBB360:
.LBB351:
	.loc 1 786 23 view .LVU964
	xorl	%esi, %esi
	movq	%rbp, %rdi
	movb	%r8b, 28(%rsp)
.LVL330:
	.loc 1 786 23 is_stmt 1 view .LVU965
	call	print_filename
.LVL331:
	.loc 1 789 19 view .LVU966
	.loc 1 778 35 is_stmt 0 view .LVU967
	movzbl	28(%rsp), %r8d
	movb	%r8b, 90(%rsp)
.LVL332:
.L174:
	.loc 1 791 24 is_stmt 1 view .LVU968
	.loc 1 791 27 is_stmt 0 view .LVU969
	cmpb	$0, quiet(%rip)
	jne	.L163
	.loc 1 792 21 is_stmt 1 view .LVU970
	movl	$5, %edx
	leaq	.LC58(%rip), %rsi
	jmp	.L340
.LVL333:
.L146:
	.loc 1 792 21 is_stmt 0 view .LVU971
.LBE351:
.LBE360:
.LBB361:
.LBB328:
.LBB322:
.LBB319:
	.loc 1 393 27 view .LVU972
	movq	%r10, %rsi
	movq	%rbp, %rdi
	call	filename_unescape
.LVL334:
	.loc 1 393 24 view .LVU973
	testq	%rax, %rax
	jne	.L149
.LVL335:
	.loc 1 393 24 view .LVU974
	jmp	.L141
.LVL336:
.L364:
	.loc 1 393 24 view .LVU975
.LBE319:
.LBE322:
.LBE328:
.LBE361:
.LBE379:
.LBE394:
.LBE407:
.LBB408:
.LBB303:
	.loc 1 1064 59 view .LVU976
	movq	16(%rsp), %rdi
	movl	$10, %esi
	call	strchr@PLT
.LVL337:
	.loc 1 1064 56 view .LVU977
	testq	%rax, %rax
	jne	.L190
	jmp	.L191
.LVL338:
.L362:
	.loc 1 1064 56 view .LVU978
.LBE303:
.LBE408:
.LBE419:
.LBE427:
	.loc 1 1106 26 discriminator 1 view .LVU979
	movq	stdin(%rip), %rdi
	call	rpl_fclose@PLT
.LVL339:
	.loc 1 1106 23 discriminator 1 view .LVU980
	addl	$1, %eax
	jne	.L205
.LBB428:
	.loc 1 1107 5 is_stmt 1 view .LVU981
	movl	$5, %edx
	leaq	.LC52(%rip), %rsi
	xorl	%edi, %edi
	call	dcgettext@PLT
.LVL340:
	movq	%rax, %r12
	call	__errno_location@PLT
.LVL341:
	movq	%r12, %rdx
	movl	$1, %edi
	movl	(%rax), %esi
	xorl	%eax, %eax
	call	error@PLT
.LVL342:
.L208:
	.loc 1 1107 5 is_stmt 0 view .LVU982
	movq	stdout(%rip), %rdi
	movq	40(%rdi), %rax
.LBE428:
.LBB429:
.LBB420:
.LBB409:
.LBB304:
	.loc 1 1069 19 is_stmt 1 view .LVU983
	.loc 1 1070 21 view .LVU984
.LVL343:
.LBB288:
.LBI288:
	.loc 2 108 1 view .LVU985
.LBB289:
	.loc 2 110 3 view .LVU986
	.loc 2 110 10 is_stmt 0 view .LVU987
	cmpq	%rax, 48(%rdi)
	jbe	.L372
	leaq	1(%rax), %rdx
.LBE289:
.LBE288:
	.loc 1 1065 35 view .LVU988
	movl	$1, %ebp
.LBB293:
.LBB290:
	.loc 2 110 10 view .LVU989
	movq	%rdx, 40(%rdi)
	movb	$92, (%rax)
.LVL344:
.L194:
	.loc 2 110 10 view .LVU990
.LBE290:
.LBE293:
	.loc 1 1077 19 is_stmt 1 view .LVU991
	movq	stdout(%rip), %rcx
	movl	$3, %edx
	movl	$1, %esi
	leaq	.LC9(%rip), %rdi
	call	fwrite_unlocked@PLT
.LVL345:
	.loc 1 1079 19 view .LVU992
	movl	$2, %edx
	movq	stdout(%rip), %rcx
	movl	$1, %esi
	leaq	.LC69(%rip), %rdi
	call	fwrite_unlocked@PLT
.LVL346:
	.loc 1 1080 19 view .LVU993
	movq	16(%rsp), %rdi
	movl	%ebp, %esi
	call	print_filename
.LVL347:
	.loc 1 1081 19 view .LVU994
	movl	$4, %edx
	movq	stdout(%rip), %rcx
	movl	$1, %esi
	leaq	.LC70(%rip), %rdi
	call	fwrite_unlocked@PLT
.LVL348:
	.loc 1 1086 15 view .LVU995
.LBB294:
	.loc 1 1089 34 view .LVU996
	.loc 1 1089 15 is_stmt 0 view .LVU997
	movq	digest_hex_bytes(%rip), %rax
	shrq	%rax
	jne	.L214
	jmp	.L198
.LVL349:
.L348:
	.loc 1 1089 15 view .LVU998
.LBE294:
.LBE304:
.LBE409:
.LBE420:
.LBE429:
	.loc 1 1017 8 discriminator 1 view .LVU999
	movl	$5, %edx
	leaq	.LC48(%rip), %rsi
	.loc 1 1014 12 discriminator 1 view .LVU1000
	testb	%r14b, %r14b
	jne	.L120
	jmp	.L343
.LVL350:
.L184:
.LBB430:
.LBB421:
.LBB410:
.LBB395:
	.loc 1 848 13 is_stmt 1 view .LVU1001
	movq	16(%rsp), %rdx
	xorl	%edi, %edi
	movl	$3, %esi
	call	quotearg_n_style_colon@PLT
.LVL351:
	.loc 1 848 26 is_stmt 0 view .LVU1002
	xorl	%edi, %edi
	movl	$5, %edx
	leaq	.LC67(%rip), %rsi
	.loc 1 848 13 view .LVU1003
	movq	%rax, %r12
.LVL352:
	.loc 1 848 26 view .LVU1004
	call	dcgettext@PLT
.LVL353:
	.loc 1 848 13 view .LVU1005
	movq	%r12, %rcx
	xorl	%esi, %esi
	xorl	%edi, %edi
	.loc 1 848 26 view .LVU1006
	movq	%rax, %rdx
	.loc 1 848 13 view .LVU1007
	xorl	%eax, %eax
	call	error@PLT
.LVL354:
	jmp	.L179
.LVL355:
.L357:
	.loc 1 840 13 is_stmt 1 view .LVU1008
.LBB380:
.LBI380:
	.loc 4 183 1 view .LVU1009
.LBB381:
	.loc 4 187 3 view .LVU1010
	.loc 4 188 3 view .LVU1011
	.loc 4 188 3 is_stmt 0 view .LVU1012
.LBE381:
.LBE380:
	.loc 1 841 21 view .LVU1013
	movq	80(%rsp), %rbp
	xorl	%edi, %edi
	movl	$5, %r8d
	leaq	.LC65(%rip), %rdx
	leaq	.LC66(%rip), %rsi
	movq	%rbp, %rcx
	call	dcngettext@PLT
.LVL356:
	.loc 1 840 13 view .LVU1014
	movq	%rbp, %rcx
	xorl	%esi, %esi
	xorl	%edi, %edi
	.loc 1 841 21 view .LVU1015
	movq	%rax, %rdx
	.loc 1 840 13 view .LVU1016
	xorl	%eax, %eax
	call	error@PLT
.LVL357:
	jmp	.L183
.L356:
	.loc 1 832 13 is_stmt 1 view .LVU1017
.LVL358:
.LBB382:
.LBI382:
	.loc 4 183 1 view .LVU1018
.LBB383:
	.loc 4 187 3 view .LVU1019
	.loc 4 188 3 view .LVU1020
	.loc 4 188 3 is_stmt 0 view .LVU1021
.LBE383:
.LBE382:
	.loc 1 833 21 view .LVU1022
	movq	56(%rsp), %rbp
	xorl	%edi, %edi
	movl	$5, %r8d
	leaq	.LC63(%rip), %rdx
	leaq	.LC64(%rip), %rsi
	movq	%rbp, %rcx
	call	dcngettext@PLT
.LVL359:
	.loc 1 832 13 view .LVU1023
	movq	%rbp, %rcx
	xorl	%esi, %esi
	xorl	%edi, %edi
	.loc 1 833 21 view .LVU1024
	movq	%rax, %rdx
	.loc 1 832 13 view .LVU1025
	xorl	%eax, %eax
	call	error@PLT
.LVL360:
	jmp	.L182
.L355:
	.loc 1 824 13 is_stmt 1 view .LVU1026
.LVL361:
.LBB384:
.LBI384:
	.loc 4 183 1 view .LVU1027
.LBB385:
	.loc 4 187 3 view .LVU1028
	.loc 4 188 3 view .LVU1029
	.loc 4 188 3 is_stmt 0 view .LVU1030
.LBE385:
.LBE384:
	.loc 1 825 21 view .LVU1031
	movq	%r14, %rcx
	xorl	%edi, %edi
	movl	$5, %r8d
	leaq	.LC61(%rip), %rdx
	leaq	.LC62(%rip), %rsi
	call	dcngettext@PLT
.LVL362:
	.loc 1 824 13 view .LVU1032
	movq	%r14, %rcx
	xorl	%esi, %esi
	xorl	%edi, %edi
	.loc 1 825 21 view .LVU1033
	movq	%rax, %rdx
	.loc 1 824 13 view .LVU1034
	xorl	%eax, %eax
	call	error@PLT
.LVL363:
	jmp	.L181
.LVL364:
.L366:
	.loc 1 824 13 view .LVU1035
.LBE395:
.LBE410:
.LBB411:
.LBB305:
	.loc 1 1065 35 view .LVU1036
	xorl	%ebp, %ebp
	jmp	.L194
.LVL365:
.L351:
	.loc 1 1065 35 view .LVU1037
.LBE305:
.LBE411:
.LBB412:
.LBB396:
.LBB386:
.LBB362:
.LBB352:
.LBB334:
	.loc 2 110 10 view .LVU1038
	movl	$92, %esi
	call	__overflow@PLT
.LVL366:
	.loc 2 110 10 view .LVU1039
	jmp	.L164
.LVL367:
.L221:
	.loc 2 110 10 view .LVU1040
.LBE334:
.LBE352:
.LBE362:
.LBE386:
.LBE396:
.LBE412:
.LBE421:
.LBE430:
	.loc 1 868 8 view .LVU1041
	movb	$1, 89(%rsp)
	jmp	.L123
.LVL368:
.L367:
.LBB431:
.LBB422:
.LBB413:
.LBB306:
	.loc 1 1101 15 view .LVU1042
	movzbl	%dl, %esi
.LBB295:
.LBB278:
	.loc 2 110 10 view .LVU1043
	call	__overflow@PLT
.LVL369:
	.loc 2 110 10 view .LVU1044
	jmp	.L188
.LVL370:
.L225:
	.loc 2 110 10 view .LVU1045
.LBE278:
.LBE295:
.LBE306:
.LBE413:
.LBB414:
.LBB397:
.LBB387:
.LBB363:
.LBB353:
	.loc 1 767 24 view .LVU1046
	xorl	%edx, %edx
	jmp	.L167
.LVL371:
.L360:
.LBB348:
.LBB347:
	.loc 2 110 10 view .LVU1047
	movl	$92, %esi
	movq	%rdx, 40(%rsp)
	movq	%r9, 32(%rsp)
	call	__overflow@PLT
.LVL372:
	.loc 2 110 10 view .LVU1048
	movq	32(%rsp), %r9
	movq	40(%rsp), %rdx
	jmp	.L172
.LVL373:
.L371:
	.loc 2 110 10 view .LVU1049
.LBE347:
.LBE348:
.LBE353:
.LBE363:
.LBE387:
.LBE397:
.LBE414:
.LBB415:
.LBB307:
.LBB296:
.LBB266:
	movl	92(%rsp), %esi
	call	__overflow@PLT
.LVL374:
	jmp	.L202
.LVL375:
.L370:
	.loc 2 110 10 view .LVU1050
.LBE266:
.LBE296:
.LBB297:
.LBB286:
	movl	$32, %esi
	call	__overflow@PLT
.LVL376:
	jmp	.L200
.LVL377:
.L369:
	.loc 2 110 10 view .LVU1051
.LBE286:
.LBE297:
.LBB298:
.LBB282:
	movl	$92, %esi
	call	__overflow@PLT
.LVL378:
	jmp	.L196
.LVL379:
.L372:
	.loc 2 110 10 view .LVU1052
.LBE282:
.LBE298:
.LBB299:
.LBB291:
	movl	$92, %esi
.LBE291:
.LBE299:
	.loc 1 1065 35 view .LVU1053
	movl	$1, %ebp
.LBB300:
.LBB292:
	.loc 2 110 10 view .LVU1054
	call	__overflow@PLT
.LVL380:
	jmp	.L194
.LVL381:
.L363:
	.loc 2 110 10 view .LVU1055
.LBE292:
.LBE300:
.LBE307:
.LBE415:
.LBE422:
.LBE431:
	.loc 1 1110 1 view .LVU1056
	call	__stack_chk_fail@PLT
.LVL382:
.L347:
	.loc 1 974 6 is_stmt 1 view .LVU1057
	.loc 1 974 19 is_stmt 0 view .LVU1058
	movl	$5, %edx
	leaq	.LC42(%rip), %rsi
	jmp	.L343
.L115:
	.loc 1 1007 3 is_stmt 1 view .LVU1059
	.loc 1 1007 6 is_stmt 0 view .LVU1060
	cmpb	$0, status_only(%rip)
	je	.L117
	.loc 1 1007 19 discriminator 1 view .LVU1061
	testb	%r14b, %r14b
	jne	.L330
.L218:
	.loc 1 1009 7 is_stmt 1 view .LVU1062
	.loc 1 1010 8 is_stmt 0 view .LVU1063
	movl	$5, %edx
	leaq	.LC47(%rip), %rsi
	jmp	.L343
.L216:
	.loc 1 1001 7 is_stmt 1 view .LVU1064
	.loc 1 1002 14 is_stmt 0 view .LVU1065
	movl	$5, %edx
	leaq	.LC46(%rip), %rsi
	jmp	.L343
	.cfi_endproc
.LFE147:
	.size	main, .-main
	.section	.rodata
	.align 16
	.type	bin2hex.7353, @object
	.size	bin2hex.7353, 16
bin2hex.7353:
	.ascii	"0123456789abcdef"
	.section	.rodata.str1.1
.LC71:
	.string	"binary"
.LC72:
	.string	"check"
.LC73:
	.string	"ignore-missing"
.LC74:
	.string	"quiet"
.LC75:
	.string	"status"
.LC76:
	.string	"text"
.LC77:
	.string	"warn"
.LC78:
	.string	"strict"
.LC79:
	.string	"tag"
.LC80:
	.string	"zero"
.LC81:
	.string	"help"
.LC82:
	.string	"version"
	.section	.data.rel.ro.local,"aw"
	.align 32
	.type	long_options, @object
	.size	long_options, 416
long_options:
	.quad	.LC71
	.long	0
	.zero	4
	.quad	0
	.long	98
	.zero	4
	.quad	.LC72
	.long	0
	.zero	4
	.quad	0
	.long	99
	.zero	4
	.quad	.LC73
	.long	0
	.zero	4
	.quad	0
	.long	128
	.zero	4
	.quad	.LC74
	.long	0
	.zero	4
	.quad	0
	.long	130
	.zero	4
	.quad	.LC75
	.long	0
	.zero	4
	.quad	0
	.long	129
	.zero	4
	.quad	.LC76
	.long	0
	.zero	4
	.quad	0
	.long	116
	.zero	4
	.quad	.LC77
	.long	0
	.zero	4
	.quad	0
	.long	119
	.zero	4
	.quad	.LC78
	.long	0
	.zero	4
	.quad	0
	.long	131
	.zero	4
	.quad	.LC79
	.long	0
	.zero	4
	.quad	0
	.long	132
	.zero	4
	.quad	.LC80
	.long	0
	.zero	4
	.quad	0
	.long	122
	.zero	4
	.quad	.LC81
	.long	0
	.zero	4
	.quad	0
	.long	-130
	.zero	4
	.quad	.LC82
	.long	0
	.zero	4
	.quad	0
	.long	-131
	.zero	4
	.quad	0
	.long	0
	.zero	4
	.quad	0
	.long	0
	.zero	4
	.data
	.type	delim, @object
	.size	delim, 1
delim:
	.byte	10
	.align 4
	.type	bsd_reversed, @object
	.size	bsd_reversed, 4
bsd_reversed:
	.long	-1
	.local	strict
	.comm	strict,1,1
	.local	quiet
	.comm	quiet,1,1
	.local	ignore_missing
	.comm	ignore_missing,1,1
	.local	warn
	.comm	warn,1,1
	.local	status_only
	.comm	status_only,1,1
	.local	digest_hex_bytes
	.comm	digest_hex_bytes,8,8
	.local	min_digest_line_length
	.comm	min_digest_line_length,8,8
	.local	have_read_stdin
	.comm	have_read_stdin,1,1
	.text
.Letext0:
	.file 5 "/usr/include/x86_64-linux-gnu/bits/getopt_core.h"
	.file 6 "/usr/include/x86_64-linux-gnu/bits/getopt_ext.h"
	.file 7 "/usr/include/x86_64-linux-gnu/bits/types.h"
	.file 8 "/usr/include/x86_64-linux-gnu/sys/types.h"
	.file 9 "/usr/include/x86_64-linux-gnu/bits/types/time_t.h"
	.file 10 "/usr/lib/gcc/x86_64-linux-gnu/9/include/stddef.h"
	.file 11 "./lib/sys/select.h"
	.file 12 "/usr/include/time.h"
	.file 13 "/usr/include/signal.h"
	.file 14 "/usr/include/unistd.h"
	.file 15 "/usr/include/errno.h"
	.file 16 "src/version.h"
	.file 17 "./lib/exitfail.h"
	.file 18 "/usr/include/stdint.h"
	.file 19 "./lib/timespec.h"
	.file 20 "/usr/include/ctype.h"
	.file 21 "/usr/include/x86_64-linux-gnu/bits/types/struct_FILE.h"
	.file 22 "/usr/include/x86_64-linux-gnu/bits/types/FILE.h"
	.file 23 "/usr/include/stdio.h"
	.file 24 "/usr/include/x86_64-linux-gnu/bits/sys_errlist.h"
	.file 25 "./lib/version-etc.h"
	.file 26 "./lib/progname.h"
	.file 27 "./lib/quotearg.h"
	.file 28 "./lib/quote.h"
	.file 29 "./lib/argmatch.h"
	.file 30 "./lib/error.h"
	.file 31 "./lib/fadvise.h"
	.file 32 "/usr/include/string.h"
	.file 33 "/usr/include/libintl.h"
	.file 34 "/usr/include/stdlib.h"
	.file 35 "./lib/stdio-safer.h"
	.file 36 "./lib/stdio.h"
	.file 37 "/usr/include/locale.h"
	.file 38 "./lib/md5.h"
	.file 39 "<built-in>"
	.section	.note.GNU-stack,"",@progbits
	.section	.note.gnu.property,"a"
	.align 8
	.long	 1f - 0f
	.long	 4f - 1f
	.long	 5
0:
	.string	 "GNU"
1:
	.align 8
	.long	 0xc0000002
	.long	 3f - 2f
2:
	.long	 0x3
3:
	.align 8
4:
