	.file	"mkfifo.c"
	.text
.Ltext0:
	.section	.rodata.str1.1,"aMS",@progbits,1
.LC0:
	.string	"mkfifo"
.LC1:
	.string	" invocation"
.LC2:
	.string	""
	.section	.rodata.str1.8,"aMS",@progbits,1
	.align 8
.LC3:
	.string	"Try '%s --help' for more information.\n"
	.align 8
.LC4:
	.string	"Usage: %s [OPTION]... NAME...\n"
	.align 8
.LC5:
	.string	"Create named pipes (FIFOs) with the given NAMEs.\n"
	.align 8
.LC6:
	.string	"\nMandatory arguments to long options are mandatory for short options too.\n"
	.align 8
.LC7:
	.string	"  -m, --mode=MODE    set file permission bits to MODE, not a=rw - umask\n"
	.align 8
.LC8:
	.string	"  -Z                   set the SELinux security context to default type\n      --context[=CTX]  like -Z, or if CTX is specified then set the SELinux\n                         or SMACK security context to CTX\n"
	.align 8
.LC9:
	.string	"      --help     display this help and exit\n"
	.align 8
.LC10:
	.string	"      --version  output version information and exit\n"
	.section	.rodata.str1.1
.LC11:
	.string	"["
.LC12:
	.string	"test invocation"
.LC13:
	.string	"coreutils"
.LC14:
	.string	"Multi-call invocation"
.LC15:
	.string	"sha224sum"
.LC16:
	.string	"sha2 utilities"
.LC17:
	.string	"sha256sum"
.LC18:
	.string	"sha384sum"
.LC19:
	.string	"sha512sum"
.LC20:
	.string	"\n%s online help: <%s>\n"
	.section	.rodata.str1.8
	.align 8
.LC21:
	.string	"https://www.gnu.org/software/coreutils/"
	.section	.rodata.str1.1
.LC22:
	.string	"GNU coreutils"
.LC23:
	.string	"en_"
	.section	.rodata.str1.8
	.align 8
.LC24:
	.string	"Report any translation bugs to <https://translationproject.org/team/>\n"
	.section	.rodata.str1.1
.LC25:
	.string	"Full documentation <%s%s>\n"
	.section	.rodata.str1.8
	.align 8
.LC26:
	.string	"or available locally via: info '(coreutils) %s%s'\n"
	.text
	.p2align 4
	.globl	usage
	.type	usage, @function
usage:
.LVL0:
.LFB139:
	.file 1 "src/mkfifo.c"
	.loc 1 49 1 view -0
	.cfi_startproc
	.loc 1 49 1 is_stmt 0 view .LVU1
	endbr64
	pushq	%r13
	.cfi_def_cfa_offset 16
	.cfi_offset 13, -16
	.loc 1 51 5 view .LVU2
	movl	$5, %edx
	.loc 1 49 1 view .LVU3
	pushq	%r12
	.cfi_def_cfa_offset 24
	.cfi_offset 12, -24
	pushq	%rbp
	.cfi_def_cfa_offset 32
	.cfi_offset 6, -32
	movl	%edi, %ebp
	pushq	%rbx
	.cfi_def_cfa_offset 40
	.cfi_offset 3, -40
	subq	$136, %rsp
	.cfi_def_cfa_offset 176
	movq	program_name(%rip), %r12
	.loc 1 49 1 view .LVU4
	movq	%fs:40, %rax
	movq	%rax, 120(%rsp)
	xorl	%eax, %eax
	.loc 1 50 3 is_stmt 1 view .LVU5
	.loc 1 50 6 is_stmt 0 view .LVU6
	testl	%edi, %edi
	je	.L2
	.loc 1 51 5 is_stmt 1 view .LVU7
	.loc 1 51 5 view .LVU8
	leaq	.LC3(%rip), %rsi
	xorl	%edi, %edi
.LVL1:
	.loc 1 51 5 is_stmt 0 view .LVU9
	call	dcgettext@PLT
.LVL2:
.LBB43:
.LBB44:
	.file 2 "/usr/include/x86_64-linux-gnu/bits/stdio2.h"
	.loc 2 100 10 view .LVU10
	movq	stderr(%rip), %rdi
	movq	%r12, %rcx
	movl	$1, %esi
.LBE44:
.LBE43:
	.loc 1 51 5 view .LVU11
	movq	%rax, %rdx
.LVL3:
.LBB46:
.LBI43:
	.loc 2 98 1 is_stmt 1 view .LVU12
.LBB45:
	.loc 2 100 3 view .LVU13
	.loc 2 100 10 is_stmt 0 view .LVU14
	xorl	%eax, %eax
.LVL4:
	.loc 2 100 10 view .LVU15
	call	__fprintf_chk@PLT
.LVL5:
.L3:
	.loc 2 100 10 view .LVU16
.LBE45:
.LBE46:
	.loc 1 73 3 is_stmt 1 view .LVU17
	movl	%ebp, %edi
	call	exit@PLT
.LVL6:
.L2:
	.loc 1 54 7 view .LVU18
	.loc 1 54 15 is_stmt 0 view .LVU19
	leaq	.LC4(%rip), %rsi
	xorl	%edi, %edi
.LVL7:
.LBB47:
.LBB48:
	.file 3 "src/system.h"
	.loc 3 636 67 view .LVU20
	leaq	.LC17(%rip), %rbx
.LBE48:
.LBE47:
	.loc 1 54 15 view .LVU21
	call	dcgettext@PLT
.LVL8:
.LBB74:
.LBB75:
	.loc 2 107 10 view .LVU22
	movq	%r12, %rdx
	movl	$1, %edi
.LBE75:
.LBE74:
	.loc 1 54 15 view .LVU23
	movq	%rax, %rsi
.LVL9:
.LBB77:
.LBI74:
	.loc 2 105 1 is_stmt 1 view .LVU24
.LBB76:
	.loc 2 107 3 view .LVU25
	.loc 2 107 10 is_stmt 0 view .LVU26
	xorl	%eax, %eax
.LVL10:
	.loc 2 107 10 view .LVU27
	call	__printf_chk@PLT
.LVL11:
	.loc 2 107 10 view .LVU28
.LBE76:
.LBE77:
	.loc 1 55 7 is_stmt 1 view .LVU29
	movq	stdout(%rip), %r12
	movl	$5, %edx
	xorl	%edi, %edi
	leaq	.LC5(%rip), %rsi
	call	dcgettext@PLT
.LVL12:
	movq	%r12, %rsi
	movq	%rax, %rdi
	call	fputs_unlocked@PLT
.LVL13:
	.loc 1 59 7 view .LVU30
.LBB78:
.LBI78:
	.loc 3 588 1 view .LVU31
.LBB79:
	.loc 3 590 3 view .LVU32
	movq	stdout(%rip), %r12
	movl	$5, %edx
	xorl	%edi, %edi
	leaq	.LC6(%rip), %rsi
	call	dcgettext@PLT
.LVL14:
	movq	%r12, %rsi
	movq	%rax, %rdi
	call	fputs_unlocked@PLT
.LVL15:
.LBE79:
.LBE78:
	.loc 1 61 7 view .LVU33
	movq	stdout(%rip), %r12
	movl	$5, %edx
	xorl	%edi, %edi
	leaq	.LC7(%rip), %rsi
	call	dcgettext@PLT
.LVL16:
	movq	%r12, %rsi
	movq	%rax, %rdi
	call	fputs_unlocked@PLT
.LVL17:
	.loc 1 64 7 view .LVU34
	movq	stdout(%rip), %r12
	movl	$5, %edx
	xorl	%edi, %edi
	leaq	.LC8(%rip), %rsi
	call	dcgettext@PLT
.LVL18:
	movq	%r12, %rsi
	movq	%rax, %rdi
	call	fputs_unlocked@PLT
.LVL19:
	.loc 1 69 7 view .LVU35
	movq	stdout(%rip), %r12
	movl	$5, %edx
	xorl	%edi, %edi
	leaq	.LC9(%rip), %rsi
	call	dcgettext@PLT
.LVL20:
	movq	%r12, %rsi
	movq	%rax, %rdi
	call	fputs_unlocked@PLT
.LVL21:
	.loc 1 70 7 view .LVU36
	movq	stdout(%rip), %r12
	movl	$5, %edx
	xorl	%edi, %edi
	leaq	.LC10(%rip), %rsi
	call	dcgettext@PLT
.LVL22:
	movq	%r12, %rsi
	movq	%rax, %rdi
	call	fputs_unlocked@PLT
.LVL23:
	.loc 1 71 7 view .LVU37
.LBB80:
.LBI47:
	.loc 3 634 1 view .LVU38
.LBB73:
	.loc 3 636 3 view .LVU39
	.loc 3 636 67 is_stmt 0 view .LVU40
	leaq	.LC11(%rip), %rax
	movq	%rbx, 48(%rsp)
	leaq	.LC18(%rip), %rbx
	movq	%rax, (%rsp)
	leaq	.LC12(%rip), %rax
	movq	%rax, 8(%rsp)
	leaq	.LC13(%rip), %rax
	movq	%rax, 16(%rsp)
	leaq	.LC14(%rip), %rax
	movq	%rax, 24(%rsp)
	leaq	.LC15(%rip), %rax
	movq	$0, 96(%rsp)
	movq	$0, 104(%rsp)
	.loc 3 646 3 is_stmt 1 view .LVU41
.LVL24:
	.loc 3 647 3 view .LVU42
	.loc 3 649 3 view .LVU43
	.loc 3 649 9 view .LVU44
	.loc 3 636 67 is_stmt 0 view .LVU45
	movq	%rax, 32(%rsp)
	leaq	.LC16(%rip), %rax
	movq	%rbx, 64(%rsp)
	leaq	.LC19(%rip), %rbx
	movq	%rax, 40(%rsp)
	movq	%rax, 56(%rsp)
	movq	%rax, 72(%rsp)
	movq	%rbx, 80(%rsp)
	leaq	.LC0(%rip), %rbx
	movq	%rax, 88(%rsp)
	.loc 3 647 25 view .LVU46
	movq	%rsp, %rax
.LVL25:
	.p2align 4,,10
	.p2align 3
.L5:
	.loc 3 650 5 is_stmt 1 view .LVU47
	.loc 3 649 18 is_stmt 0 view .LVU48
	movq	16(%rax), %rdi
	.loc 3 650 13 view .LVU49
	addq	$16, %rax
.LVL26:
	.loc 3 649 9 is_stmt 1 view .LVU50
	testq	%rdi, %rdi
	je	.L4
	.loc 3 649 33 is_stmt 0 view .LVU51
	movl	$7, %ecx
	movq	%rbx, %rsi
	repz cmpsb
	seta	%dl
	sbbb	$0, %dl
	.loc 3 649 28 view .LVU52
	testb	%dl, %dl
	jne	.L5
.L4:
	.loc 3 652 3 is_stmt 1 view .LVU53
	.loc 3 652 15 is_stmt 0 view .LVU54
	movq	8(%rax), %r12
	.loc 3 655 11 view .LVU55
	movl	$5, %edx
	leaq	.LC20(%rip), %rsi
	xorl	%edi, %edi
	.loc 3 652 6 view .LVU56
	testq	%r12, %r12
	je	.L6
	.loc 3 653 5 is_stmt 1 view .LVU57
.LVL27:
	.loc 3 655 3 view .LVU58
	.loc 3 655 11 is_stmt 0 view .LVU59
	call	dcgettext@PLT
.LVL28:
.LBB49:
.LBB50:
	.loc 2 107 10 view .LVU60
	leaq	.LC21(%rip), %rcx
	movl	$1, %edi
	leaq	.LC22(%rip), %rdx
.LBE50:
.LBE49:
	.loc 3 655 11 view .LVU61
	movq	%rax, %rsi
.LVL29:
.LBB54:
.LBI49:
	.loc 2 105 1 is_stmt 1 view .LVU62
.LBB51:
	.loc 2 107 3 view .LVU63
	.loc 2 107 10 is_stmt 0 view .LVU64
	xorl	%eax, %eax
.LVL30:
	.loc 2 107 10 view .LVU65
	call	__printf_chk@PLT
.LVL31:
	.loc 2 107 10 view .LVU66
.LBE51:
.LBE54:
	.loc 3 659 3 is_stmt 1 view .LVU67
	.loc 3 659 29 is_stmt 0 view .LVU68
	movl	$5, %edi
	xorl	%esi, %esi
	call	setlocale@PLT
.LVL32:
	movq	%rax, %rdi
.LVL33:
	.loc 3 660 3 is_stmt 1 view .LVU69
	.loc 3 660 6 is_stmt 0 view .LVU70
	testq	%rax, %rax
	je	.L7
	.loc 3 660 22 view .LVU71
	movl	$3, %edx
	leaq	.LC23(%rip), %rsi
	call	strncmp@PLT
.LVL34:
	.loc 3 660 19 view .LVU72
	testl	%eax, %eax
	jne	.L10
.LVL35:
.L7:
	.loc 3 669 3 is_stmt 1 view .LVU73
	.loc 3 669 11 is_stmt 0 view .LVU74
	xorl	%edi, %edi
	movl	$5, %edx
	leaq	.LC25(%rip), %rsi
	call	dcgettext@PLT
.LVL36:
.LBB55:
.LBB56:
	.loc 2 107 10 view .LVU75
	leaq	.LC0(%rip), %rcx
	leaq	.LC21(%rip), %rdx
	movl	$1, %edi
.LBE56:
.LBE55:
	.loc 3 669 11 view .LVU76
	movq	%rax, %rsi
.LVL37:
.LBB62:
.LBI55:
	.loc 2 105 1 is_stmt 1 view .LVU77
.LBB57:
	.loc 2 107 3 view .LVU78
	.loc 2 107 10 is_stmt 0 view .LVU79
	xorl	%eax, %eax
.LVL38:
	.loc 2 107 10 view .LVU80
.LBE57:
.LBE62:
	.loc 3 671 3 view .LVU81
	leaq	.LC1(%rip), %r13
.LBB63:
.LBB58:
	.loc 2 107 10 view .LVU82
	call	__printf_chk@PLT
.LVL39:
	.loc 2 107 10 view .LVU83
.LBE58:
.LBE63:
	.loc 3 671 3 is_stmt 1 view .LVU84
	cmpq	%rbx, %r12
	leaq	.LC2(%rip), %rcx
	cmovne	%rcx, %r13
.L8:
	.loc 3 671 11 is_stmt 0 view .LVU85
	xorl	%edi, %edi
	leaq	.LC26(%rip), %rsi
	movl	$5, %edx
	call	dcgettext@PLT
.LVL40:
.LBB64:
.LBB65:
	.loc 2 107 10 view .LVU86
	movq	%r13, %rcx
	movq	%r12, %rdx
	movl	$1, %edi
.LBE65:
.LBE64:
	.loc 3 671 11 view .LVU87
	movq	%rax, %rsi
.LVL41:
.LBB67:
.LBI64:
	.loc 2 105 1 is_stmt 1 view .LVU88
.LBB66:
	.loc 2 107 3 view .LVU89
	.loc 2 107 10 is_stmt 0 view .LVU90
	xorl	%eax, %eax
.LVL42:
	.loc 2 107 10 view .LVU91
	call	__printf_chk@PLT
.LVL43:
	.loc 2 107 10 view .LVU92
.LBE66:
.LBE67:
	.loc 3 673 1 view .LVU93
	jmp	.L3
.LVL44:
.L6:
	.loc 3 655 3 is_stmt 1 view .LVU94
	.loc 3 655 11 is_stmt 0 view .LVU95
	call	dcgettext@PLT
.LVL45:
.LBB68:
.LBB52:
	.loc 2 107 10 view .LVU96
	leaq	.LC21(%rip), %rcx
	movl	$1, %edi
	leaq	.LC22(%rip), %rdx
.LBE52:
.LBE68:
	.loc 3 655 11 view .LVU97
	movq	%rax, %rsi
.LVL46:
.LBB69:
	.loc 2 105 1 is_stmt 1 view .LVU98
.LBB53:
	.loc 2 107 3 view .LVU99
	.loc 2 107 10 is_stmt 0 view .LVU100
	xorl	%eax, %eax
.LVL47:
	.loc 2 107 10 view .LVU101
	call	__printf_chk@PLT
.LVL48:
	.loc 2 107 10 view .LVU102
.LBE53:
.LBE69:
	.loc 3 659 3 is_stmt 1 view .LVU103
	.loc 3 659 29 is_stmt 0 view .LVU104
	movl	$5, %edi
	xorl	%esi, %esi
	call	setlocale@PLT
.LVL49:
	movq	%rax, %rdi
.LVL50:
	.loc 3 660 3 is_stmt 1 view .LVU105
	.loc 3 660 6 is_stmt 0 view .LVU106
	testq	%rax, %rax
	je	.L9
	.loc 3 660 22 view .LVU107
	movl	$3, %edx
	leaq	.LC23(%rip), %rsi
	call	strncmp@PLT
.LVL51:
	.loc 3 660 19 view .LVU108
	testl	%eax, %eax
	jne	.L29
.L9:
	.loc 3 669 3 is_stmt 1 view .LVU109
	.loc 3 669 11 is_stmt 0 view .LVU110
	movl	$5, %edx
	leaq	.LC25(%rip), %rsi
	xorl	%edi, %edi
	call	dcgettext@PLT
.LVL52:
.LBB70:
.LBB59:
	.loc 2 107 10 view .LVU111
	leaq	.LC0(%rip), %rcx
	leaq	.LC21(%rip), %rdx
	movl	$1, %edi
.LBE59:
.LBE70:
	.loc 3 669 11 view .LVU112
	movq	%rax, %rsi
.LVL53:
.LBB71:
	.loc 2 105 1 is_stmt 1 view .LVU113
.LBB60:
	.loc 2 107 3 view .LVU114
	.loc 2 107 10 is_stmt 0 view .LVU115
	xorl	%eax, %eax
.LVL54:
	.loc 2 107 10 view .LVU116
.LBE60:
.LBE71:
	.loc 3 646 15 view .LVU117
	leaq	.LC0(%rip), %r12
.LBB72:
.LBB61:
	.loc 2 107 10 view .LVU118
	call	__printf_chk@PLT
.LVL55:
	.loc 2 107 10 view .LVU119
.LBE61:
.LBE72:
	.loc 3 671 3 is_stmt 1 view .LVU120
	leaq	.LC1(%rip), %r13
	jmp	.L8
.L29:
	.loc 3 646 15 is_stmt 0 view .LVU121
	leaq	.LC0(%rip), %r12
.LVL56:
.L10:
	.loc 3 666 7 is_stmt 1 view .LVU122
	movq	stdout(%rip), %r13
	xorl	%edi, %edi
	movl	$5, %edx
	leaq	.LC24(%rip), %rsi
	call	dcgettext@PLT
.LVL57:
	movq	%rax, %rdi
	movq	%r13, %rsi
	call	fputs_unlocked@PLT
.LVL58:
	jmp	.L7
.LBE73:
.LBE80:
	.cfi_endproc
.LFE139:
	.size	usage, .-usage
	.section	.rodata.str1.1
.LC27:
	.string	"/usr/local/share/locale"
.LC28:
	.string	"warning: ignoring --context"
	.section	.rodata.str1.8
	.align 8
.LC29:
	.string	"warning: ignoring --context; it requires an SELinux/SMACK-enabled kernel"
	.section	.rodata.str1.1
.LC30:
	.string	"David MacKenzie"
.LC31:
	.string	"m:Z"
.LC32:
	.string	"missing operand"
	.section	.rodata.str1.8
	.align 8
.LC33:
	.string	"failed to set default file creation context to %s"
	.section	.rodata.str1.1
.LC34:
	.string	"invalid mode"
	.section	.rodata.str1.8
	.align 8
.LC35:
	.string	"mode must specify only file permission bits"
	.section	.rodata.str1.1
.LC36:
	.string	"cannot create fifo %s"
.LC37:
	.string	"cannot set permissions of %s"
	.section	.text.startup,"ax",@progbits
	.p2align 4
	.globl	main
	.type	main, @function
main:
.LVL59:
.LFB140:
	.loc 1 78 1 view -0
	.cfi_startproc
	.loc 1 78 1 is_stmt 0 view .LVU124
	endbr64
	.loc 1 79 3 is_stmt 1 view .LVU125
	.loc 1 80 3 view .LVU126
.LVL60:
	.loc 1 81 3 view .LVU127
	.loc 1 82 3 view .LVU128
	.loc 1 83 3 view .LVU129
	.loc 1 84 3 view .LVU130
	.loc 1 86 33 view .LVU131
	.loc 1 87 3 view .LVU132
	.loc 1 78 1 is_stmt 0 view .LVU133
	pushq	%r15
	.cfi_def_cfa_offset 16
	.cfi_offset 15, -16
	.loc 1 83 15 view .LVU134
	xorl	%r15d, %r15d
	.loc 1 78 1 view .LVU135
	pushq	%r14
	.cfi_def_cfa_offset 24
	.cfi_offset 14, -24
	.loc 1 84 26 view .LVU136
	xorl	%r14d, %r14d
	.loc 1 78 1 view .LVU137
	pushq	%r13
	.cfi_def_cfa_offset 32
	.cfi_offset 13, -32
	.loc 1 80 15 view .LVU138
	xorl	%r13d, %r13d
	.loc 1 78 1 view .LVU139
	pushq	%r12
	.cfi_def_cfa_offset 40
	.cfi_offset 12, -40
	.loc 1 94 18 view .LVU140
	leaq	longopts(%rip), %r12
	.loc 1 78 1 view .LVU141
	pushq	%rbp
	.cfi_def_cfa_offset 48
	.cfi_offset 6, -48
	movl	%edi, %ebp
	pushq	%rbx
	.cfi_def_cfa_offset 56
	.cfi_offset 3, -56
	movq	%rsi, %rbx
	subq	$24, %rsp
	.cfi_def_cfa_offset 80
	.loc 1 87 3 view .LVU142
	movq	(%rsi), %rdi
.LVL61:
	.loc 1 87 3 view .LVU143
	call	set_program_name@PLT
.LVL62:
	.loc 1 88 3 is_stmt 1 view .LVU144
	leaq	.LC2(%rip), %rsi
	movl	$6, %edi
	call	setlocale@PLT
.LVL63:
	.loc 1 89 3 view .LVU145
	leaq	.LC27(%rip), %rsi
	leaq	.LC13(%rip), %rdi
	call	bindtextdomain@PLT
.LVL64:
	.loc 1 90 3 view .LVU146
	leaq	.LC13(%rip), %rdi
	call	textdomain@PLT
.LVL65:
	.loc 1 92 3 view .LVU147
	movq	close_stdout@GOTPCREL(%rip), %rdi
	call	atexit@PLT
.LVL66:
	.loc 1 94 3 view .LVU148
.L31:
	.loc 1 94 9 view .LVU149
	.loc 1 94 18 is_stmt 0 view .LVU150
	xorl	%r8d, %r8d
	movq	%r12, %rcx
	leaq	.LC31(%rip), %rdx
	movq	%rbx, %rsi
	movl	%ebp, %edi
	call	getopt_long@PLT
.LVL67:
	.loc 1 94 9 view .LVU151
	cmpl	$-1, %eax
	je	.L72
	.loc 1 96 7 is_stmt 1 view .LVU152
	cmpl	$90, %eax
	je	.L32
	jg	.L33
	cmpl	$-131, %eax
	jne	.L73
	.loc 1 126 9 view .LVU153
	.loc 1 126 30 view .LVU154
	.loc 1 127 9 view .LVU155
	movq	stdout(%rip), %rdi
	movq	Version(%rip), %rcx
	xorl	%eax, %eax
.LVL68:
	.loc 1 127 9 is_stmt 0 view .LVU156
	xorl	%r9d, %r9d
	leaq	.LC30(%rip), %r8
	leaq	.LC22(%rip), %rdx
	leaq	.LC0(%rip), %rsi
	call	version_etc@PLT
.LVL69:
	.loc 1 127 9 is_stmt 1 view .LVU157
	xorl	%edi, %edi
	call	exit@PLT
.LVL70:
	.p2align 4,,10
	.p2align 3
.L33:
	.loc 1 96 7 is_stmt 0 view .LVU158
	cmpl	$109, %eax
	jne	.L71
	.loc 1 99 11 is_stmt 1 view .LVU159
	.loc 1 99 26 is_stmt 0 view .LVU160
	movq	optarg(%rip), %r13
.LVL71:
	.loc 1 100 11 is_stmt 1 view .LVU161
	jmp	.L31
.L73:
	.loc 1 96 7 is_stmt 0 view .LVU162
	cmpl	$-130, %eax
	jne	.L71
	.loc 1 126 9 is_stmt 1 view .LVU163
	xorl	%edi, %edi
	call	usage
.LVL72:
	.p2align 4,,10
	.p2align 3
.L32:
	.loc 1 102 11 view .LVU164
	.file 4 "./lib/smack.h"
	.loc 4 44 3 view .LVU165
	.loc 1 107 16 view .LVU166
	.loc 1 107 20 is_stmt 0 view .LVU167
	call	is_selinux_enabled@PLT
.LVL73:
	.loc 1 107 19 view .LVU168
	testl	%eax, %eax
	jle	.L38
	.loc 1 109 15 is_stmt 1 view .LVU169
	.loc 1 109 19 is_stmt 0 view .LVU170
	movq	optarg(%rip), %rax
	.loc 1 109 18 view .LVU171
	testq	%rax, %rax
	je	.L74
	movq	%rax, %r15
.LVL74:
	.loc 1 109 18 view .LVU172
	jmp	.L31
.LVL75:
.L38:
	.loc 1 119 16 is_stmt 1 view .LVU173
	.loc 1 119 19 is_stmt 0 view .LVU174
	cmpq	$0, optarg(%rip)
	je	.L31
	.loc 1 121 15 is_stmt 1 view .LVU175
	.loc 1 122 22 is_stmt 0 view .LVU176
	xorl	%edi, %edi
	movl	$5, %edx
	leaq	.LC29(%rip), %rsi
	call	dcgettext@PLT
.LVL76:
	.loc 1 121 15 view .LVU177
	xorl	%esi, %esi
	xorl	%edi, %edi
	.loc 1 122 22 view .LVU178
	movq	%rax, %rdx
	.loc 1 121 15 view .LVU179
	xorl	%eax, %eax
	call	error@PLT
.LVL77:
	jmp	.L31
.L74:
	.loc 1 113 19 is_stmt 1 view .LVU180
	.loc 1 113 42 is_stmt 0 view .LVU181
	xorl	%edx, %edx
	xorl	%esi, %esi
	xorl	%edi, %edi
	call	selabel_open@PLT
.LVL78:
	movq	%rax, %r14
.LVL79:
	.loc 1 115 19 is_stmt 1 view .LVU182
	.loc 1 115 22 is_stmt 0 view .LVU183
	testq	%rax, %rax
	jne	.L31
	.loc 1 116 21 is_stmt 1 view .LVU184
	.loc 1 116 38 is_stmt 0 view .LVU185
	xorl	%edi, %edi
	movl	$5, %edx
	leaq	.LC28(%rip), %rsi
	call	dcgettext@PLT
.LVL80:
	.loc 1 116 38 view .LVU186
	movq	%rax, 8(%rsp)
	.loc 1 116 31 view .LVU187
	call	__errno_location@PLT
.LVL81:
	.loc 1 116 21 view .LVU188
	movq	8(%rsp), %rdx
	xorl	%edi, %edi
	movl	(%rax), %esi
	xorl	%eax, %eax
	call	error@PLT
.LVL82:
	jmp	.L31
.LVL83:
.L72:
	.loc 1 133 3 is_stmt 1 view .LVU189
	.loc 1 133 6 is_stmt 0 view .LVU190
	cmpl	%ebp, optind(%rip)
	je	.L75
	.loc 1 139 3 is_stmt 1 view .LVU191
	.loc 1 139 6 is_stmt 0 view .LVU192
	testq	%r15, %r15
	je	.L41
.LBB81:
	.loc 1 141 7 is_stmt 1 view .LVU193
.LVL84:
	.loc 1 142 7 view .LVU194
.LBE81:
	.loc 4 44 3 view .LVU195
.LBB83:
	.loc 1 145 9 view .LVU196
	.loc 1 145 15 is_stmt 0 view .LVU197
	movq	%r15, %rdi
	call	setfscreatecon@PLT
.LVL85:
	.loc 1 147 7 is_stmt 1 view .LVU198
	.loc 1 147 10 is_stmt 0 view .LVU199
	testl	%eax, %eax
	jns	.L41
.LBB82:
	.loc 1 148 9 is_stmt 1 view .LVU200
	movq	%r15, %rdi
	call	quote@PLT
.LVL86:
	.loc 1 148 9 is_stmt 0 view .LVU201
	movl	$5, %edx
	leaq	.LC33(%rip), %rsi
	xorl	%edi, %edi
	movq	%rax, %r13
.LVL87:
	.loc 1 148 9 view .LVU202
	call	dcgettext@PLT
.LVL88:
	movq	%rax, %r12
	call	__errno_location@PLT
.LVL89:
	movq	%r13, %rcx
	movq	%r12, %rdx
	movl	$1, %edi
	movl	(%rax), %esi
	xorl	%eax, %eax
	call	error@PLT
.LVL90:
.L41:
	.loc 1 148 9 view .LVU203
.LBE82:
.LBE83:
	.loc 1 153 3 is_stmt 1 view .LVU204
	.loc 1 154 3 view .LVU205
	.loc 1 154 6 is_stmt 0 view .LVU206
	testq	%r13, %r13
	je	.L50
.LBB84:
	.loc 1 156 7 is_stmt 1 view .LVU207
	.loc 1 157 7 view .LVU208
	.loc 1 157 36 is_stmt 0 view .LVU209
	movq	%r13, %rdi
	call	mode_compile@PLT
.LVL91:
	movq	%rax, %r15
.LVL92:
	.loc 1 158 7 is_stmt 1 view .LVU210
	.loc 1 158 10 is_stmt 0 view .LVU211
	testq	%rax, %rax
	je	.L76
	.loc 1 160 7 is_stmt 1 view .LVU212
	.loc 1 160 21 is_stmt 0 view .LVU213
	xorl	%edi, %edi
	call	umask@PLT
.LVL93:
	.loc 1 160 21 view .LVU214
	movl	%eax, %r12d
.LVL94:
	.loc 1 161 7 is_stmt 1 view .LVU215
	movl	%eax, %edi
	call	umask@PLT
.LVL95:
	.loc 1 162 7 view .LVU216
	.loc 1 162 17 is_stmt 0 view .LVU217
	xorl	%r8d, %r8d
	movl	%r12d, %edx
	xorl	%esi, %esi
	movl	$438, %edi
	movq	%r15, %rcx
	call	mode_adjust@PLT
.LVL96:
	.loc 1 163 7 view .LVU218
	movq	%r15, %rdi
	.loc 1 162 17 view .LVU219
	movl	%eax, %r12d
.LVL97:
	.loc 1 163 7 is_stmt 1 view .LVU220
	call	free@PLT
.LVL98:
	.loc 1 164 7 view .LVU221
	.loc 1 164 10 is_stmt 0 view .LVU222
	testl	$-512, %r12d
	jne	.L77
.LVL99:
.L42:
	.loc 1 164 10 view .LVU223
.LBE84:
	.loc 1 169 10 is_stmt 1 discriminator 1 view .LVU224
	.loc 1 169 17 is_stmt 0 discriminator 1 view .LVU225
	movl	optind(%rip), %eax
	.loc 1 169 3 discriminator 1 view .LVU226
	xorl	%r15d, %r15d
	cmpl	%ebp, %eax
	jl	.L47
	jmp	.L30
.LVL100:
.L45:
	.loc 1 178 12 is_stmt 1 view .LVU227
	.loc 1 178 15 is_stmt 0 view .LVU228
	testq	%r13, %r13
	je	.L46
	.loc 1 178 46 discriminator 1 view .LVU229
	movslq	optind(%rip), %rax
	.loc 1 178 34 discriminator 1 view .LVU230
	movl	%r12d, %esi
	movq	(%rbx,%rax,8), %rdi
	call	lchmod@PLT
.LVL101:
	.loc 1 178 31 discriminator 1 view .LVU231
	testl	%eax, %eax
	jne	.L78
.LVL102:
.L46:
	.loc 1 169 25 is_stmt 1 view .LVU232
	movl	optind(%rip), %eax
	addl	$1, %eax
	movl	%eax, optind(%rip)
	.loc 1 169 10 view .LVU233
	.loc 1 169 3 is_stmt 0 view .LVU234
	cmpl	%ebp, %eax
	jge	.L30
.LVL103:
.L47:
	.loc 1 171 7 is_stmt 1 view .LVU235
	.loc 1 171 10 is_stmt 0 view .LVU236
	testq	%r14, %r14
	je	.L44
	.loc 1 172 9 is_stmt 1 view .LVU237
	.loc 1 172 47 is_stmt 0 view .LVU238
	cltq
	.loc 1 172 9 view .LVU239
	movl	$4096, %edx
	movq	%r14, %rdi
	movq	(%rbx,%rax,8), %rsi
	call	defaultcon@PLT
.LVL104:
.L44:
	.loc 1 173 7 is_stmt 1 view .LVU240
	.loc 1 173 23 is_stmt 0 view .LVU241
	movslq	optind(%rip), %rax
	.loc 1 173 11 view .LVU242
	movl	%r12d, %esi
	movq	(%rbx,%rax,8), %rdi
	call	mkfifo@PLT
.LVL105:
	.loc 1 173 10 view .LVU243
	testl	%eax, %eax
	je	.L45
	.loc 1 175 11 is_stmt 1 view .LVU244
	.loc 1 175 56 is_stmt 0 view .LVU245
	movslq	optind(%rip), %rax
	.loc 1 175 11 view .LVU246
	movl	$4, %edi
	movq	(%rbx,%rax,8), %rsi
	call	quotearg_style@PLT
.LVL106:
	.loc 1 175 28 view .LVU247
	movl	$5, %edx
	leaq	.LC36(%rip), %rsi
	.loc 1 175 11 view .LVU248
	movq	%rax, 8(%rsp)
.L70:
	.loc 1 180 28 view .LVU249
	xorl	%edi, %edi
	call	dcgettext@PLT
.LVL107:
	movq	%rax, %r15
.LVL108:
	.loc 1 180 21 view .LVU250
	call	__errno_location@PLT
.LVL109:
	.loc 1 180 11 view .LVU251
	movq	8(%rsp), %rcx
	movq	%r15, %rdx
	xorl	%edi, %edi
	movl	(%rax), %esi
	xorl	%eax, %eax
	.loc 1 182 23 view .LVU252
	movl	$1, %r15d
	.loc 1 180 11 view .LVU253
	call	error@PLT
.LVL110:
	.loc 1 182 11 is_stmt 1 view .LVU254
	.loc 1 182 11 is_stmt 0 view .LVU255
	jmp	.L46
.LVL111:
.L50:
	.loc 1 153 11 view .LVU256
	movl	$438, %r12d
	jmp	.L42
.LVL112:
.L30:
	.loc 1 187 1 view .LVU257
	addq	$24, %rsp
	.cfi_remember_state
	.cfi_def_cfa_offset 56
	movl	%r15d, %eax
	popq	%rbx
	.cfi_def_cfa_offset 48
.LVL113:
	.loc 1 187 1 view .LVU258
	popq	%rbp
	.cfi_def_cfa_offset 40
.LVL114:
	.loc 1 187 1 view .LVU259
	popq	%r12
	.cfi_def_cfa_offset 32
.LVL115:
	.loc 1 187 1 view .LVU260
	popq	%r13
	.cfi_def_cfa_offset 24
.LVL116:
	.loc 1 187 1 view .LVU261
	popq	%r14
	.cfi_def_cfa_offset 16
.LVL117:
	.loc 1 187 1 view .LVU262
	popq	%r15
	.cfi_def_cfa_offset 8
	ret
.LVL118:
.L78:
	.cfi_restore_state
	.loc 1 180 11 is_stmt 1 view .LVU263
	.loc 1 181 18 is_stmt 0 view .LVU264
	movslq	optind(%rip), %rax
	.loc 1 180 11 view .LVU265
	movl	$4, %edi
	movq	(%rbx,%rax,8), %rsi
	call	quotearg_style@PLT
.LVL119:
	.loc 1 180 28 view .LVU266
	movl	$5, %edx
	leaq	.LC37(%rip), %rsi
	.loc 1 180 11 view .LVU267
	movq	%rax, 8(%rsp)
	jmp	.L70
.LVL120:
.L75:
	.loc 1 135 7 is_stmt 1 view .LVU268
	.loc 1 135 20 is_stmt 0 view .LVU269
	movl	$5, %edx
	leaq	.LC32(%rip), %rsi
	xorl	%edi, %edi
	call	dcgettext@PLT
.LVL121:
	.loc 1 135 7 view .LVU270
	xorl	%esi, %esi
	xorl	%edi, %edi
	.loc 1 135 20 view .LVU271
	movq	%rax, %rdx
	.loc 1 135 7 view .LVU272
	xorl	%eax, %eax
	call	error@PLT
.LVL122:
.L71:
	.loc 1 136 7 is_stmt 1 view .LVU273
	movl	$1, %edi
	call	usage
.LVL123:
.L77:
.LBB87:
.LBB85:
	.loc 1 165 9 view .LVU274
	movl	$5, %edx
	leaq	.LC35(%rip), %rsi
	xorl	%edi, %edi
	call	dcgettext@PLT
.LVL124:
	xorl	%esi, %esi
	movl	$1, %edi
	movq	%rax, %rdx
	xorl	%eax, %eax
	call	error@PLT
.LVL125:
.L76:
	.loc 1 165 9 is_stmt 0 view .LVU275
.LBE85:
.LBB86:
	.loc 1 159 9 is_stmt 1 view .LVU276
	movl	$5, %edx
	leaq	.LC34(%rip), %rsi
	xorl	%edi, %edi
	call	dcgettext@PLT
.LVL126:
	.loc 1 159 9 is_stmt 0 view .LVU277
	xorl	%esi, %esi
	movl	$1, %edi
	movq	%rax, %rdx
	xorl	%eax, %eax
	call	error@PLT
.LVL127:
.LBE86:
.LBE87:
	.cfi_endproc
.LFE140:
	.size	main, .-main
	.section	.rodata.str1.1
.LC38:
	.string	"context"
.LC39:
	.string	"mode"
.LC40:
	.string	"help"
.LC41:
	.string	"version"
	.section	.data.rel.ro.local,"aw"
	.align 32
	.type	longopts, @object
	.size	longopts, 160
longopts:
	.quad	.LC38
	.long	2
	.zero	4
	.quad	0
	.long	90
	.zero	4
	.quad	.LC39
	.long	1
	.zero	4
	.quad	0
	.long	109
	.zero	4
	.quad	.LC40
	.long	0
	.zero	4
	.quad	0
	.long	-130
	.zero	4
	.quad	.LC41
	.long	0
	.zero	4
	.quad	0
	.long	-131
	.zero	4
	.quad	0
	.long	0
	.zero	4
	.quad	0
	.long	0
	.zero	4
	.text
.Letext0:
	.file 5 "/usr/lib/gcc/x86_64-linux-gnu/9/include/stddef.h"
	.file 6 "/usr/include/x86_64-linux-gnu/bits/types.h"
	.file 7 "/usr/include/x86_64-linux-gnu/bits/types/struct_FILE.h"
	.file 8 "/usr/include/x86_64-linux-gnu/bits/types/FILE.h"
	.file 9 "/usr/include/stdio.h"
	.file 10 "/usr/include/x86_64-linux-gnu/bits/sys_errlist.h"
	.file 11 "/usr/include/x86_64-linux-gnu/sys/types.h"
	.file 12 "/usr/include/x86_64-linux-gnu/bits/types/time_t.h"
	.file 13 "./lib/sys/select.h"
	.file 14 "/usr/include/x86_64-linux-gnu/bits/getopt_core.h"
	.file 15 "/usr/include/x86_64-linux-gnu/bits/getopt_ext.h"
	.file 16 "/usr/include/time.h"
	.file 17 "/usr/include/signal.h"
	.file 18 "/usr/include/unistd.h"
	.file 19 "/usr/include/errno.h"
	.file 20 "src/version.h"
	.file 21 "./lib/exitfail.h"
	.file 22 "./lib/timespec.h"
	.file 23 "./lib/version-etc.h"
	.file 24 "./lib/progname.h"
	.file 25 "./lib/quotearg.h"
	.file 26 "./lib/error.h"
	.file 27 "./lib/quote.h"
	.file 28 "/usr/include/libintl.h"
	.file 29 "/usr/include/selinux/selinux.h"
	.file 30 "./lib/modechange.h"
	.file 31 "/usr/include/x86_64-linux-gnu/sys/stat.h"
	.file 32 "/usr/include/stdlib.h"
	.file 33 "/usr/include/locale.h"
	.file 34 "/usr/include/selinux/label.h"
	.file 35 "./lib/sys/stat.h"
	.file 36 "src/selinux.h"
	.file 37 "/usr/include/string.h"
	.section	.note.GNU-stack,"",@progbits
	.section	.note.gnu.property,"a"
	.align 8
	.long	 1f - 0f
	.long	 4f - 1f
	.long	 5
0:
	.string	 "GNU"
1:
	.align 8
	.long	 0xc0000002
	.long	 3f - 2f
2:
	.long	 0x3
3:
	.align 8
4:
