	.file	"mktemp.c"
	.text
.Ltext0:
	.p2align 4
	.type	maybe_close_stdout, @function
maybe_close_stdout:
.LFB139:
	.file 1 "src/mktemp.c"
	.loc 1 138 1 view -0
	.cfi_startproc
	endbr64
	.loc 1 139 3 view .LVU1
	.loc 1 139 6 is_stmt 0 view .LVU2
	cmpb	$0, stdout_closed(%rip)
	jne	.L2
	.loc 1 140 5 is_stmt 1 view .LVU3
	jmp	close_stdout@PLT
.LVL0:
	.p2align 4,,10
	.p2align 3
.L2:
.LBB58:
.LBI58:
	.loc 1 137 1 view .LVU4
.LBB59:
	.loc 1 141 8 view .LVU5
.LBE59:
.LBE58:
	.loc 1 138 1 is_stmt 0 view .LVU6
	subq	$8, %rsp
	.cfi_def_cfa_offset 16
.LBB62:
.LBB60:
	.loc 1 141 12 view .LVU7
	movq	stderr(%rip), %rdi
	call	close_stream@PLT
.LVL1:
	.loc 1 141 11 view .LVU8
	testl	%eax, %eax
	jne	.L7
.LBE60:
.LBE62:
	.loc 1 143 1 view .LVU9
	addq	$8, %rsp
	.cfi_remember_state
	.cfi_def_cfa_offset 8
	ret
.L7:
	.cfi_restore_state
.LBB63:
.LBB61:
	.loc 1 142 5 is_stmt 1 view .LVU10
	movl	$1, %edi
	call	_exit@PLT
.LVL2:
.LBE61:
.LBE63:
	.cfi_endproc
.LFE139:
	.size	maybe_close_stdout, .-maybe_close_stdout
	.section	.rodata.str1.1,"aMS",@progbits,1
.LC0:
	.string	"mktemp"
.LC1:
	.string	" invocation"
.LC2:
	.string	""
	.section	.rodata.str1.8,"aMS",@progbits,1
	.align 8
.LC3:
	.string	"Try '%s --help' for more information.\n"
	.align 8
.LC4:
	.string	"Usage: %s [OPTION]... [TEMPLATE]\n"
	.align 8
.LC5:
	.string	"Create a temporary file or directory, safely, and print its name.\nTEMPLATE must contain at least 3 consecutive 'X's in last component.\nIf TEMPLATE is not specified, use tmp.XXXXXXXXXX, and --tmpdir is implied.\n"
	.align 8
.LC6:
	.string	"Files are created u+rw, and directories u+rwx, minus umask restrictions.\n"
	.align 8
.LC7:
	.string	"  -d, --directory     create a directory, not a file\n  -u, --dry-run       do not create anything; merely print a name (unsafe)\n  -q, --quiet         suppress diagnostics about file/dir-creation failure\n"
	.align 8
.LC8:
	.string	"      --suffix=SUFF   append SUFF to TEMPLATE; SUFF must not contain a slash.\n                        This option is implied if TEMPLATE does not end in X\n"
	.align 8
.LC9:
	.ascii	"  -p DIR, --tmpdir[=DIR]  interpret TEMPLATE relative to DIR"
	.ascii	"; if DIR is not\n                        specif"
	.string	"ied, use $TMPDIR if set, else /tmp.  With\n                        this option, TEMPLATE must not be an absolute name;\n                        unlike with -t, TEMPLATE may contain slashes, but\n                        mktemp creates only the final component\n"
	.align 8
.LC10:
	.string	"  -t                  interpret TEMPLATE as a single file name component,\n                        relative to a directory: $TMPDIR, if set; else the\n                        directory specified via -p; else /tmp [deprecated]\n"
	.align 8
.LC11:
	.string	"      --help     display this help and exit\n"
	.align 8
.LC12:
	.string	"      --version  output version information and exit\n"
	.section	.rodata.str1.1
.LC13:
	.string	"["
.LC14:
	.string	"test invocation"
.LC15:
	.string	"coreutils"
.LC16:
	.string	"Multi-call invocation"
.LC17:
	.string	"sha224sum"
.LC18:
	.string	"sha2 utilities"
.LC19:
	.string	"sha256sum"
.LC20:
	.string	"sha384sum"
.LC21:
	.string	"sha512sum"
.LC22:
	.string	"\n%s online help: <%s>\n"
	.section	.rodata.str1.8
	.align 8
.LC23:
	.string	"https://www.gnu.org/software/coreutils/"
	.section	.rodata.str1.1
.LC24:
	.string	"GNU coreutils"
.LC25:
	.string	"en_"
	.section	.rodata.str1.8
	.align 8
.LC26:
	.string	"Report any translation bugs to <https://translationproject.org/team/>\n"
	.section	.rodata.str1.1
.LC27:
	.string	"Full documentation <%s%s>\n"
	.section	.rodata.str1.8
	.align 8
.LC28:
	.string	"or available locally via: info '(coreutils) %s%s'\n"
	.text
	.p2align 4
	.globl	usage
	.type	usage, @function
usage:
.LVL3:
.LFB135:
	.loc 1 62 1 view -0
	.cfi_startproc
	.loc 1 62 1 is_stmt 0 view .LVU12
	endbr64
	pushq	%r13
	.cfi_def_cfa_offset 16
	.cfi_offset 13, -16
	.loc 1 64 5 view .LVU13
	movl	$5, %edx
	.loc 1 62 1 view .LVU14
	pushq	%r12
	.cfi_def_cfa_offset 24
	.cfi_offset 12, -24
	pushq	%rbp
	.cfi_def_cfa_offset 32
	.cfi_offset 6, -32
	movl	%edi, %ebp
	pushq	%rbx
	.cfi_def_cfa_offset 40
	.cfi_offset 3, -40
	subq	$136, %rsp
	.cfi_def_cfa_offset 176
	movq	program_name(%rip), %r12
	.loc 1 62 1 view .LVU15
	movq	%fs:40, %rax
	movq	%rax, 120(%rsp)
	xorl	%eax, %eax
	.loc 1 63 3 is_stmt 1 view .LVU16
	.loc 1 63 6 is_stmt 0 view .LVU17
	testl	%edi, %edi
	je	.L9
	.loc 1 64 5 is_stmt 1 view .LVU18
	.loc 1 64 5 view .LVU19
	leaq	.LC3(%rip), %rsi
	xorl	%edi, %edi
.LVL4:
	.loc 1 64 5 is_stmt 0 view .LVU20
	call	dcgettext@PLT
.LVL5:
.LBB76:
.LBB77:
	.file 2 "/usr/include/x86_64-linux-gnu/bits/stdio2.h"
	.loc 2 100 10 view .LVU21
	movq	stderr(%rip), %rdi
	movq	%r12, %rcx
	movl	$1, %esi
.LBE77:
.LBE76:
	.loc 1 64 5 view .LVU22
	movq	%rax, %rdx
.LVL6:
.LBB79:
.LBI76:
	.loc 2 98 1 is_stmt 1 view .LVU23
.LBB78:
	.loc 2 100 3 view .LVU24
	.loc 2 100 10 is_stmt 0 view .LVU25
	xorl	%eax, %eax
.LVL7:
	.loc 2 100 10 view .LVU26
	call	__fprintf_chk@PLT
.LVL8:
.L10:
	.loc 2 100 10 view .LVU27
.LBE78:
.LBE79:
	.loc 1 103 3 is_stmt 1 view .LVU28
	movl	%ebp, %edi
	call	exit@PLT
.LVL9:
.L9:
	.loc 1 67 7 view .LVU29
	.loc 1 67 15 is_stmt 0 view .LVU30
	leaq	.LC4(%rip), %rsi
	xorl	%edi, %edi
.LVL10:
.LBB80:
.LBB81:
	.file 3 "src/system.h"
	.loc 3 636 67 view .LVU31
	leaq	.LC19(%rip), %rbx
.LBE81:
.LBE80:
	.loc 1 67 15 view .LVU32
	call	dcgettext@PLT
.LVL11:
.LBB107:
.LBB108:
	.loc 2 107 10 view .LVU33
	movq	%r12, %rdx
	movl	$1, %edi
.LBE108:
.LBE107:
	.loc 1 67 15 view .LVU34
	movq	%rax, %rsi
.LVL12:
.LBB110:
.LBI107:
	.loc 2 105 1 is_stmt 1 view .LVU35
.LBB109:
	.loc 2 107 3 view .LVU36
	.loc 2 107 10 is_stmt 0 view .LVU37
	xorl	%eax, %eax
.LVL13:
	.loc 2 107 10 view .LVU38
	call	__printf_chk@PLT
.LVL14:
	.loc 2 107 10 view .LVU39
.LBE109:
.LBE110:
	.loc 1 68 7 is_stmt 1 view .LVU40
	movq	stdout(%rip), %r12
	movl	$5, %edx
	xorl	%edi, %edi
	leaq	.LC5(%rip), %rsi
	call	dcgettext@PLT
.LVL15:
	movq	%r12, %rsi
	movq	%rax, %rdi
	call	fputs_unlocked@PLT
.LVL16:
	.loc 1 73 7 view .LVU41
	movl	$5, %edx
	movq	stdout(%rip), %r12
	xorl	%edi, %edi
	leaq	.LC6(%rip), %rsi
	call	dcgettext@PLT
.LVL17:
	movq	%r12, %rsi
	movq	%rax, %rdi
	call	fputs_unlocked@PLT
.LVL18:
	.loc 1 76 7 view .LVU42
	movq	stdout(%rip), %rsi
	movl	$10, %edi
	call	fputc_unlocked@PLT
.LVL19:
	.loc 1 77 7 view .LVU43
	movq	stdout(%rip), %r12
	movl	$5, %edx
	xorl	%edi, %edi
	leaq	.LC7(%rip), %rsi
	call	dcgettext@PLT
.LVL20:
	movq	%r12, %rsi
	movq	%rax, %rdi
	call	fputs_unlocked@PLT
.LVL21:
	.loc 1 82 7 view .LVU44
	movq	stdout(%rip), %r12
	movl	$5, %edx
	xorl	%edi, %edi
	leaq	.LC8(%rip), %rsi
	call	dcgettext@PLT
.LVL22:
	movq	%r12, %rsi
	movq	%rax, %rdi
	call	fputs_unlocked@PLT
.LVL23:
	.loc 1 86 7 view .LVU45
	movq	stdout(%rip), %r12
	movl	$5, %edx
	xorl	%edi, %edi
	leaq	.LC9(%rip), %rsi
	call	dcgettext@PLT
.LVL24:
	movq	%r12, %rsi
	movq	%rax, %rdi
	call	fputs_unlocked@PLT
.LVL25:
	.loc 1 93 7 view .LVU46
	movq	stdout(%rip), %r12
	movl	$5, %edx
	xorl	%edi, %edi
	leaq	.LC10(%rip), %rsi
	call	dcgettext@PLT
.LVL26:
	movq	%r12, %rsi
	movq	%rax, %rdi
	call	fputs_unlocked@PLT
.LVL27:
	.loc 1 98 7 view .LVU47
	movq	stdout(%rip), %r12
	movl	$5, %edx
	xorl	%edi, %edi
	leaq	.LC11(%rip), %rsi
	call	dcgettext@PLT
.LVL28:
	movq	%r12, %rsi
	movq	%rax, %rdi
	call	fputs_unlocked@PLT
.LVL29:
	.loc 1 99 7 view .LVU48
	movq	stdout(%rip), %r12
	movl	$5, %edx
	xorl	%edi, %edi
	leaq	.LC12(%rip), %rsi
	call	dcgettext@PLT
.LVL30:
	movq	%r12, %rsi
	movq	%rax, %rdi
	call	fputs_unlocked@PLT
.LVL31:
	.loc 1 100 7 view .LVU49
.LBB111:
.LBI80:
	.loc 3 634 1 view .LVU50
.LBB106:
	.loc 3 636 3 view .LVU51
	.loc 3 636 67 is_stmt 0 view .LVU52
	leaq	.LC13(%rip), %rax
	movq	%rbx, 48(%rsp)
	leaq	.LC20(%rip), %rbx
	movq	%rax, (%rsp)
	leaq	.LC14(%rip), %rax
	movq	%rax, 8(%rsp)
	leaq	.LC15(%rip), %rax
	movq	%rax, 16(%rsp)
	leaq	.LC16(%rip), %rax
	movq	%rax, 24(%rsp)
	leaq	.LC17(%rip), %rax
	movq	$0, 96(%rsp)
	movq	$0, 104(%rsp)
	.loc 3 646 3 is_stmt 1 view .LVU53
.LVL32:
	.loc 3 647 3 view .LVU54
	.loc 3 649 3 view .LVU55
	.loc 3 649 9 view .LVU56
	.loc 3 636 67 is_stmt 0 view .LVU57
	movq	%rax, 32(%rsp)
	leaq	.LC18(%rip), %rax
	movq	%rbx, 64(%rsp)
	leaq	.LC21(%rip), %rbx
	movq	%rax, 40(%rsp)
	movq	%rax, 56(%rsp)
	movq	%rax, 72(%rsp)
	movq	%rbx, 80(%rsp)
	leaq	.LC0(%rip), %rbx
	movq	%rax, 88(%rsp)
	.loc 3 647 25 view .LVU58
	movq	%rsp, %rax
.LVL33:
	.p2align 4,,10
	.p2align 3
.L12:
	.loc 3 650 5 is_stmt 1 view .LVU59
	.loc 3 649 18 is_stmt 0 view .LVU60
	movq	16(%rax), %rdi
	.loc 3 650 13 view .LVU61
	addq	$16, %rax
.LVL34:
	.loc 3 649 9 is_stmt 1 view .LVU62
	testq	%rdi, %rdi
	je	.L11
	.loc 3 649 33 is_stmt 0 view .LVU63
	movl	$7, %ecx
	movq	%rbx, %rsi
	repz cmpsb
	seta	%dl
	sbbb	$0, %dl
	.loc 3 649 28 view .LVU64
	testb	%dl, %dl
	jne	.L12
.L11:
	.loc 3 652 3 is_stmt 1 view .LVU65
	.loc 3 652 15 is_stmt 0 view .LVU66
	movq	8(%rax), %r12
	.loc 3 655 11 view .LVU67
	movl	$5, %edx
	leaq	.LC22(%rip), %rsi
	xorl	%edi, %edi
	.loc 3 652 6 view .LVU68
	testq	%r12, %r12
	je	.L13
	.loc 3 653 5 is_stmt 1 view .LVU69
.LVL35:
	.loc 3 655 3 view .LVU70
	.loc 3 655 11 is_stmt 0 view .LVU71
	call	dcgettext@PLT
.LVL36:
.LBB82:
.LBB83:
	.loc 2 107 10 view .LVU72
	leaq	.LC23(%rip), %rcx
	movl	$1, %edi
	leaq	.LC24(%rip), %rdx
.LBE83:
.LBE82:
	.loc 3 655 11 view .LVU73
	movq	%rax, %rsi
.LVL37:
.LBB87:
.LBI82:
	.loc 2 105 1 is_stmt 1 view .LVU74
.LBB84:
	.loc 2 107 3 view .LVU75
	.loc 2 107 10 is_stmt 0 view .LVU76
	xorl	%eax, %eax
.LVL38:
	.loc 2 107 10 view .LVU77
	call	__printf_chk@PLT
.LVL39:
	.loc 2 107 10 view .LVU78
.LBE84:
.LBE87:
	.loc 3 659 3 is_stmt 1 view .LVU79
	.loc 3 659 29 is_stmt 0 view .LVU80
	movl	$5, %edi
	xorl	%esi, %esi
	call	setlocale@PLT
.LVL40:
	movq	%rax, %rdi
.LVL41:
	.loc 3 660 3 is_stmt 1 view .LVU81
	.loc 3 660 6 is_stmt 0 view .LVU82
	testq	%rax, %rax
	je	.L14
	.loc 3 660 22 view .LVU83
	movl	$3, %edx
	leaq	.LC25(%rip), %rsi
	call	strncmp@PLT
.LVL42:
	.loc 3 660 19 view .LVU84
	testl	%eax, %eax
	jne	.L17
.LVL43:
.L14:
	.loc 3 669 3 is_stmt 1 view .LVU85
	.loc 3 669 11 is_stmt 0 view .LVU86
	xorl	%edi, %edi
	movl	$5, %edx
	leaq	.LC27(%rip), %rsi
	call	dcgettext@PLT
.LVL44:
.LBB88:
.LBB89:
	.loc 2 107 10 view .LVU87
	leaq	.LC0(%rip), %rcx
	leaq	.LC23(%rip), %rdx
	movl	$1, %edi
.LBE89:
.LBE88:
	.loc 3 669 11 view .LVU88
	movq	%rax, %rsi
.LVL45:
.LBB95:
.LBI88:
	.loc 2 105 1 is_stmt 1 view .LVU89
.LBB90:
	.loc 2 107 3 view .LVU90
	.loc 2 107 10 is_stmt 0 view .LVU91
	xorl	%eax, %eax
.LVL46:
	.loc 2 107 10 view .LVU92
.LBE90:
.LBE95:
	.loc 3 671 3 view .LVU93
	leaq	.LC1(%rip), %r13
.LBB96:
.LBB91:
	.loc 2 107 10 view .LVU94
	call	__printf_chk@PLT
.LVL47:
	.loc 2 107 10 view .LVU95
.LBE91:
.LBE96:
	.loc 3 671 3 is_stmt 1 view .LVU96
	cmpq	%rbx, %r12
	leaq	.LC2(%rip), %rcx
	cmovne	%rcx, %r13
.L15:
	.loc 3 671 11 is_stmt 0 view .LVU97
	xorl	%edi, %edi
	leaq	.LC28(%rip), %rsi
	movl	$5, %edx
	call	dcgettext@PLT
.LVL48:
.LBB97:
.LBB98:
	.loc 2 107 10 view .LVU98
	movq	%r13, %rcx
	movq	%r12, %rdx
	movl	$1, %edi
.LBE98:
.LBE97:
	.loc 3 671 11 view .LVU99
	movq	%rax, %rsi
.LVL49:
.LBB100:
.LBI97:
	.loc 2 105 1 is_stmt 1 view .LVU100
.LBB99:
	.loc 2 107 3 view .LVU101
	.loc 2 107 10 is_stmt 0 view .LVU102
	xorl	%eax, %eax
.LVL50:
	.loc 2 107 10 view .LVU103
	call	__printf_chk@PLT
.LVL51:
	.loc 2 107 10 view .LVU104
.LBE99:
.LBE100:
	.loc 3 673 1 view .LVU105
	jmp	.L10
.LVL52:
.L13:
	.loc 3 655 3 is_stmt 1 view .LVU106
	.loc 3 655 11 is_stmt 0 view .LVU107
	call	dcgettext@PLT
.LVL53:
.LBB101:
.LBB85:
	.loc 2 107 10 view .LVU108
	leaq	.LC23(%rip), %rcx
	movl	$1, %edi
	leaq	.LC24(%rip), %rdx
.LBE85:
.LBE101:
	.loc 3 655 11 view .LVU109
	movq	%rax, %rsi
.LVL54:
.LBB102:
	.loc 2 105 1 is_stmt 1 view .LVU110
.LBB86:
	.loc 2 107 3 view .LVU111
	.loc 2 107 10 is_stmt 0 view .LVU112
	xorl	%eax, %eax
.LVL55:
	.loc 2 107 10 view .LVU113
	call	__printf_chk@PLT
.LVL56:
	.loc 2 107 10 view .LVU114
.LBE86:
.LBE102:
	.loc 3 659 3 is_stmt 1 view .LVU115
	.loc 3 659 29 is_stmt 0 view .LVU116
	movl	$5, %edi
	xorl	%esi, %esi
	call	setlocale@PLT
.LVL57:
	movq	%rax, %rdi
.LVL58:
	.loc 3 660 3 is_stmt 1 view .LVU117
	.loc 3 660 6 is_stmt 0 view .LVU118
	testq	%rax, %rax
	je	.L16
	.loc 3 660 22 view .LVU119
	movl	$3, %edx
	leaq	.LC25(%rip), %rsi
	call	strncmp@PLT
.LVL59:
	.loc 3 660 19 view .LVU120
	testl	%eax, %eax
	jne	.L35
.L16:
	.loc 3 669 3 is_stmt 1 view .LVU121
	.loc 3 669 11 is_stmt 0 view .LVU122
	movl	$5, %edx
	leaq	.LC27(%rip), %rsi
	xorl	%edi, %edi
	call	dcgettext@PLT
.LVL60:
.LBB103:
.LBB92:
	.loc 2 107 10 view .LVU123
	leaq	.LC0(%rip), %rcx
	leaq	.LC23(%rip), %rdx
	movl	$1, %edi
.LBE92:
.LBE103:
	.loc 3 669 11 view .LVU124
	movq	%rax, %rsi
.LVL61:
.LBB104:
	.loc 2 105 1 is_stmt 1 view .LVU125
.LBB93:
	.loc 2 107 3 view .LVU126
	.loc 2 107 10 is_stmt 0 view .LVU127
	xorl	%eax, %eax
.LVL62:
	.loc 2 107 10 view .LVU128
.LBE93:
.LBE104:
	.loc 3 646 15 view .LVU129
	leaq	.LC0(%rip), %r12
.LBB105:
.LBB94:
	.loc 2 107 10 view .LVU130
	call	__printf_chk@PLT
.LVL63:
	.loc 2 107 10 view .LVU131
.LBE94:
.LBE105:
	.loc 3 671 3 is_stmt 1 view .LVU132
	leaq	.LC1(%rip), %r13
	jmp	.L15
.L35:
	.loc 3 646 15 is_stmt 0 view .LVU133
	leaq	.LC0(%rip), %r12
.LVL64:
.L17:
	.loc 3 666 7 is_stmt 1 view .LVU134
	movq	stdout(%rip), %r13
	xorl	%edi, %edi
	movl	$5, %edx
	leaq	.LC26(%rip), %rsi
	call	dcgettext@PLT
.LVL65:
	movq	%rax, %rdi
	movq	%r13, %rsi
	call	fputs_unlocked@PLT
.LVL66:
	jmp	.L14
.LBE106:
.LBE111:
	.cfi_endproc
.LFE135:
	.size	usage, .-usage
	.section	.rodata.str1.1
.LC29:
	.string	"tmp.XXXXXXXXXX"
.LC30:
	.string	"/tmp"
.LC31:
	.string	"/usr/local/share/locale"
.LC32:
	.string	"Eric Blake"
.LC33:
	.string	"Jim Meyering"
.LC34:
	.string	"dp:qtuV"
.LC35:
	.string	"too many templates"
	.section	.rodata.str1.8
	.align 8
.LC36:
	.string	"with --suffix, template %s must end in X"
	.align 8
.LC37:
	.string	"invalid suffix %s, contains directory separator"
	.section	.rodata.str1.1
.LC38:
	.string	"too few X's in template %s"
.LC39:
	.string	"TMPDIR"
	.section	.rodata.str1.8
	.align 8
.LC40:
	.string	"invalid template, %s, contains directory separator"
	.align 8
.LC41:
	.string	"invalid template, %s; with --tmpdir, it may not be absolute"
	.align 8
.LC42:
	.string	"failed to create directory via template %s"
	.align 8
.LC43:
	.string	"failed to create file via template %s"
	.section	.rodata.str1.1
.LC44:
	.string	"write error"
	.section	.text.startup,"ax",@progbits
	.p2align 4
	.globl	main
	.type	main, @function
main:
.LVL67:
.LFB140:
	.loc 1 147 1 view -0
	.cfi_startproc
	.loc 1 147 1 is_stmt 0 view .LVU136
	endbr64
	.loc 1 148 3 is_stmt 1 view .LVU137
	.loc 1 149 3 view .LVU138
.LVL68:
	.loc 1 150 3 view .LVU139
	.loc 1 151 3 view .LVU140
	.loc 1 152 3 view .LVU141
	.loc 1 153 3 view .LVU142
	.loc 1 154 3 view .LVU143
	.loc 1 155 3 view .LVU144
	.loc 1 156 3 view .LVU145
	.loc 1 157 3 view .LVU146
	.loc 1 158 3 view .LVU147
	.loc 1 159 3 view .LVU148
	.loc 1 160 3 view .LVU149
	.loc 1 161 3 view .LVU150
	.loc 1 162 3 view .LVU151
	.loc 1 164 33 view .LVU152
	.loc 1 165 3 view .LVU153
	.loc 1 147 1 is_stmt 0 view .LVU154
	pushq	%r15
	.cfi_def_cfa_offset 16
	.cfi_offset 15, -16
	leaq	.L43(%rip), %r15
	pushq	%r14
	.cfi_def_cfa_offset 24
	.cfi_offset 14, -24
	.loc 1 150 8 view .LVU155
	xorl	%r14d, %r14d
	.loc 1 147 1 view .LVU156
	pushq	%r13
	.cfi_def_cfa_offset 32
	.cfi_offset 13, -32
	.loc 1 156 8 view .LVU157
	xorl	%r13d, %r13d
	.loc 1 147 1 view .LVU158
	pushq	%r12
	.cfi_def_cfa_offset 40
	.cfi_offset 12, -40
	.loc 1 155 8 view .LVU159
	xorl	%r12d, %r12d
	.loc 1 147 1 view .LVU160
	pushq	%rbp
	.cfi_def_cfa_offset 48
	.cfi_offset 6, -48
	movl	%edi, %ebp
	pushq	%rbx
	.cfi_def_cfa_offset 56
	.cfi_offset 3, -56
	movq	%rsi, %rbx
	subq	$56, %rsp
	.cfi_def_cfa_offset 112
	.loc 1 165 3 view .LVU161
	movq	(%rsi), %rdi
.LVL69:
	.loc 1 165 3 view .LVU162
	call	set_program_name@PLT
.LVL70:
	.loc 1 166 3 is_stmt 1 view .LVU163
	leaq	.LC2(%rip), %rsi
	movl	$6, %edi
	call	setlocale@PLT
.LVL71:
	.loc 1 167 3 view .LVU164
	leaq	.LC31(%rip), %rsi
	leaq	.LC15(%rip), %rdi
	call	bindtextdomain@PLT
.LVL72:
	.loc 1 168 3 view .LVU165
	leaq	.LC15(%rip), %rdi
	call	textdomain@PLT
.LVL73:
	.loc 1 170 3 view .LVU166
	leaq	maybe_close_stdout(%rip), %rdi
	call	atexit@PLT
.LVL74:
	.loc 1 172 3 view .LVU167
	.loc 1 158 8 is_stmt 0 view .LVU168
	movb	$0, 15(%rsp)
	.loc 1 157 8 view .LVU169
	movb	$0, 14(%rsp)
	.loc 1 154 9 view .LVU170
	movq	$0, (%rsp)
	.loc 1 149 15 view .LVU171
	movq	$0, 16(%rsp)
.LVL75:
.L37:
	.loc 1 172 9 is_stmt 1 view .LVU172
	.loc 1 172 15 is_stmt 0 view .LVU173
	xorl	%r8d, %r8d
	leaq	longopts(%rip), %rcx
	movq	%rbx, %rsi
	movl	%ebp, %edi
	leaq	.LC34(%rip), %rdx
	call	getopt_long@PLT
.LVL76:
	.loc 1 172 9 view .LVU174
	cmpl	$-1, %eax
	je	.L135
	.loc 1 174 7 is_stmt 1 view .LVU175
	cmpl	$128, %eax
	jg	.L134
	cmpl	$85, %eax
	jle	.L136
	subl	$86, %eax
.LVL77:
	.loc 1 174 7 is_stmt 0 view .LVU176
	cmpl	$42, %eax
	ja	.L134
	movslq	(%r15,%rax,4), %rax
	addq	%r15, %rax
	notrack jmp	*%rax
	.section	.rodata
	.align 4
	.align 4
.L43:
	.long	.L40-.L43
	.long	.L134-.L43
	.long	.L134-.L43
	.long	.L134-.L43
	.long	.L134-.L43
	.long	.L134-.L43
	.long	.L134-.L43
	.long	.L134-.L43
	.long	.L134-.L43
	.long	.L134-.L43
	.long	.L134-.L43
	.long	.L134-.L43
	.long	.L134-.L43
	.long	.L134-.L43
	.long	.L48-.L43
	.long	.L134-.L43
	.long	.L134-.L43
	.long	.L134-.L43
	.long	.L134-.L43
	.long	.L134-.L43
	.long	.L134-.L43
	.long	.L134-.L43
	.long	.L134-.L43
	.long	.L134-.L43
	.long	.L134-.L43
	.long	.L134-.L43
	.long	.L47-.L43
	.long	.L46-.L43
	.long	.L134-.L43
	.long	.L134-.L43
	.long	.L87-.L43
	.long	.L44-.L43
	.long	.L134-.L43
	.long	.L134-.L43
	.long	.L134-.L43
	.long	.L134-.L43
	.long	.L134-.L43
	.long	.L134-.L43
	.long	.L134-.L43
	.long	.L134-.L43
	.long	.L134-.L43
	.long	.L134-.L43
	.long	.L42-.L43
	.section	.text.startup
.L87:
	.loc 1 188 31 view .LVU177
	movl	$1, %r13d
.LVL78:
	.loc 1 187 24 view .LVU178
	movl	$1, %r12d
.LVL79:
	.loc 1 187 24 view .LVU179
	jmp	.L37
.LVL80:
.L46:
	.loc 1 174 7 view .LVU180
	movl	$1, %r14d
.LVL81:
	.loc 1 174 7 view .LVU181
	jmp	.L37
.LVL82:
.L47:
	.loc 1 180 11 is_stmt 1 view .LVU182
	.loc 1 180 24 is_stmt 0 view .LVU183
	movq	optarg(%rip), %rax
	.loc 1 181 24 view .LVU184
	movl	$1, %r12d
.LVL83:
	.loc 1 180 24 view .LVU185
	movq	%rax, 16(%rsp)
.LVL84:
	.loc 1 181 11 is_stmt 1 view .LVU186
	.loc 1 182 11 view .LVU187
	jmp	.L37
.LVL85:
.L48:
	.loc 1 177 28 is_stmt 0 view .LVU188
	movb	$1, 14(%rsp)
.LVL86:
	.loc 1 177 28 view .LVU189
	jmp	.L37
.LVL87:
	.p2align 4,,10
	.p2align 3
.L136:
	.loc 1 174 7 view .LVU190
	cmpl	$-131, %eax
	jne	.L137
.LVL88:
.L40:
	.loc 1 198 9 is_stmt 1 view .LVU191
	.loc 1 198 30 view .LVU192
	.loc 1 202 9 view .LVU193
	subq	$8, %rsp
	.cfi_remember_state
	.cfi_def_cfa_offset 120
.LVL89:
	.loc 1 202 9 is_stmt 0 view .LVU194
	movq	stdout(%rip), %rdi
	xorl	%eax, %eax
	movq	Version(%rip), %rcx
	pushq	$0
	.cfi_def_cfa_offset 128
	leaq	.LC32(%rip), %r9
	leaq	.LC33(%rip), %r8
	leaq	.LC24(%rip), %rdx
	leaq	.LC0(%rip), %rsi
	call	version_etc@PLT
.LVL90:
	.loc 1 202 9 is_stmt 1 view .LVU195
	xorl	%edi, %edi
	call	exit@PLT
.LVL91:
.L42:
	.cfi_restore_state
	.loc 1 195 11 view .LVU196
	.loc 1 195 18 is_stmt 0 view .LVU197
	movq	optarg(%rip), %rax
	movq	%rax, (%rsp)
.LVL92:
	.loc 1 196 11 is_stmt 1 view .LVU198
	jmp	.L37
.LVL93:
.L44:
	.loc 1 191 11 view .LVU199
	.loc 1 192 11 view .LVU200
	.loc 1 191 19 is_stmt 0 view .LVU201
	movb	$1, 15(%rsp)
	.loc 1 192 11 view .LVU202
	jmp	.L37
.LVL94:
	.p2align 4,,10
	.p2align 3
.L137:
	.loc 1 174 7 view .LVU203
	cmpl	$-130, %eax
	jne	.L134
	.loc 1 198 9 is_stmt 1 view .LVU204
	xorl	%edi, %edi
	call	usage
.LVL95:
.L135:
	.loc 1 208 3 view .LVU205
	.loc 1 208 17 is_stmt 0 view .LVU206
	movslq	optind(%rip), %rax
.LVL96:
	.loc 1 208 17 view .LVU207
	subl	%eax, %ebp
.LVL97:
	.loc 1 209 3 is_stmt 1 view .LVU208
	.loc 1 209 6 is_stmt 0 view .LVU209
	cmpl	$1, %ebp
	ja	.L138
	.loc 1 215 3 is_stmt 1 view .LVU210
	.loc 1 215 6 is_stmt 0 view .LVU211
	testl	%ebp, %ebp
	je	.L51
	.loc 1 222 7 is_stmt 1 view .LVU212
	.loc 1 225 6 is_stmt 0 view .LVU213
	cmpq	$0, (%rsp)
	.loc 1 222 16 view .LVU214
	movq	(%rbx,%rax,8), %rsi
.LVL98:
	.loc 1 225 3 is_stmt 1 view .LVU215
	.loc 1 225 6 is_stmt 0 view .LVU216
	je	.L52
.LBB112:
	.loc 1 227 7 is_stmt 1 view .LVU217
	.loc 1 227 20 is_stmt 0 view .LVU218
	orq	$-1, %rcx
	xorl	%eax, %eax
	movq	%rsi, %rdi
	repnz scasb
.LVL99:
	.loc 1 227 20 view .LVU219
	notq	%rcx
.LVL100:
	.loc 1 228 7 is_stmt 1 view .LVU220
	.loc 1 228 10 is_stmt 0 view .LVU221
	subq	$1, %rcx
.LVL101:
	.loc 1 228 10 view .LVU222
	movq	%rcx, %rbp
.LVL102:
	.loc 1 228 10 view .LVU223
	je	.L53
	.loc 1 228 16 discriminator 1 view .LVU224
	cmpb	$88, -1(%rsi,%rcx)
	jne	.L53
.LVL103:
.L54:
	.loc 1 228 16 discriminator 1 view .LVU225
	movq	%rsi, 40(%rsp)
.LVL104:
	.loc 1 234 7 is_stmt 1 view .LVU226
	.loc 1 234 20 is_stmt 0 view .LVU227
	movq	(%rsp), %rdi
	xorl	%eax, %eax
	orq	$-1, %rcx
	repnz scasb
.LVL105:
	.loc 1 234 20 view .LVU228
	notq	%rcx
	.loc 1 235 19 view .LVU229
	leaq	0(%rbp,%rcx), %rdi
	.loc 1 234 20 view .LVU230
	leaq	-1(%rcx), %rax
	.loc 1 235 19 view .LVU231
	movq	%rcx, 32(%rsp)
	.loc 1 234 20 view .LVU232
	movq	%rax, 24(%rsp)
.LVL106:
	.loc 1 235 7 is_stmt 1 view .LVU233
.LBB113:
.LBI113:
	.file 4 "./lib/xalloc.h"
	.loc 4 216 1 view .LVU234
.LBB114:
	.loc 4 218 3 view .LVU235
	.loc 4 218 10 is_stmt 0 view .LVU236
	call	xmalloc@PLT
.LVL107:
	.loc 4 218 10 view .LVU237
.LBE114:
.LBE113:
.LBB116:
.LBB117:
	.file 5 "/usr/include/x86_64-linux-gnu/bits/string_fortified.h"
	.loc 5 34 10 view .LVU238
	movq	40(%rsp), %rsi
	movq	%rbp, %rdx
	movq	%rax, %rdi
.LBE117:
.LBE116:
.LBB119:
.LBB115:
	.loc 4 218 10 view .LVU239
	movq	%rax, %rbx
.LVL108:
	.loc 4 218 10 view .LVU240
.LBE115:
.LBE119:
	.loc 1 236 7 is_stmt 1 view .LVU241
.LBB120:
.LBI116:
	.loc 5 31 1 view .LVU242
.LBB118:
	.loc 5 34 3 view .LVU243
	.loc 5 34 10 is_stmt 0 view .LVU244
	call	memcpy@PLT
.LVL109:
	.loc 5 34 10 view .LVU245
.LBE118:
.LBE120:
	.loc 1 237 7 is_stmt 1 view .LVU246
.LBB121:
.LBB122:
	.loc 5 34 10 is_stmt 0 view .LVU247
	movq	32(%rsp), %r8
.LBE122:
.LBE121:
	.loc 1 237 25 view .LVU248
	addq	%rbx, %rbp
.LVL110:
.LBB124:
.LBI121:
	.loc 5 31 1 is_stmt 1 view .LVU249
.LBB123:
	.loc 5 34 3 view .LVU250
	.loc 5 34 10 is_stmt 0 view .LVU251
	movq	(%rsp), %rsi
	movq	%rbp, %rdi
	movq	%r8, %rdx
	call	memcpy@PLT
.LVL111:
	.loc 5 34 10 view .LVU252
.LBE123:
.LBE124:
	.loc 1 238 7 is_stmt 1 view .LVU253
	.loc 1 239 7 view .LVU254
.L55:
	.loc 1 239 7 is_stmt 0 view .LVU255
.LBE112:
	.loc 1 253 3 is_stmt 1 view .LVU256
	.loc 1 253 6 is_stmt 0 view .LVU257
	cmpq	$0, 24(%rsp)
	je	.L58
	.loc 1 253 21 discriminator 1 view .LVU258
	movq	%rbp, %rdi
	call	last_component@PLT
.LVL112:
	.loc 1 253 18 discriminator 1 view .LVU259
	cmpq	%rax, %rbp
	jne	.L139
.L58:
	.loc 1 259 3 is_stmt 1 view .LVU260
.LVL113:
.LBB126:
.LBI126:
	.loc 1 107 1 view .LVU261
.LBB127:
	.loc 1 109 3 view .LVU262
	.loc 1 110 3 view .LVU263
	.loc 1 110 11 view .LVU264
	.loc 1 110 3 is_stmt 0 view .LVU265
	movq	%rbp, %rdi
	.loc 1 109 10 view .LVU266
	xorl	%r15d, %r15d
	.loc 1 110 3 view .LVU267
	subq	%rbx, %rdi
.LVL114:
	.loc 1 110 3 view .LVU268
	jne	.L59
	jmp	.L60
.LVL115:
	.p2align 4,,10
	.p2align 3
.L62:
	.loc 1 111 5 is_stmt 1 view .LVU269
	addq	$1, %r15
.LVL116:
	.loc 1 110 35 view .LVU270
	.loc 1 110 11 view .LVU271
	.loc 1 110 3 is_stmt 0 view .LVU272
	testq	%rdi, %rdi
	je	.L61
.LVL117:
.L59:
	.loc 1 110 19 view .LVU273
	subq	$1, %rdi
.LVL118:
	.loc 1 110 15 view .LVU274
	cmpb	$88, (%rbx,%rdi)
	je	.L62
.LVL119:
.L61:
	.loc 1 112 3 is_stmt 1 view .LVU275
	.loc 1 112 3 is_stmt 0 view .LVU276
.LBE127:
.LBE126:
	.loc 1 260 3 is_stmt 1 view .LVU277
	.loc 1 260 6 is_stmt 0 view .LVU278
	cmpq	$2, %r15
	jbe	.L60
	.loc 1 263 3 is_stmt 1 view .LVU279
	.loc 1 263 6 is_stmt 0 view .LVU280
	testb	%r12b, %r12b
	je	.L64
	.loc 1 265 7 is_stmt 1 view .LVU281
	.loc 1 265 10 is_stmt 0 view .LVU282
	testb	%r13b, %r13b
	jne	.L140
	.loc 1 282 11 is_stmt 1 view .LVU283
	.loc 1 282 14 is_stmt 0 view .LVU284
	movq	16(%rsp), %rax
	testq	%rax, %rax
	je	.L69
	.loc 1 282 28 discriminator 1 view .LVU285
	cmpb	$0, (%rax)
	movq	%rax, %rbp
.LVL120:
	.loc 1 282 28 discriminator 1 view .LVU286
	je	.L69
.L70:
.LVL121:
	.loc 1 289 11 is_stmt 1 view .LVU287
	.loc 1 289 14 is_stmt 0 view .LVU288
	cmpb	$47, (%rbx)
	je	.L141
.L68:
	.loc 1 296 7 is_stmt 1 view .LVU289
	.loc 1 296 19 is_stmt 0 view .LVU290
	movq	%rbx, %rsi
	movq	%rbp, %rdi
	xorl	%edx, %edx
	call	file_name_concat@PLT
.LVL122:
	.loc 1 297 7 view .LVU291
	movq	%rbx, %rdi
	.loc 1 296 19 view .LVU292
	movq	%rax, %rbp
.LVL123:
	.loc 1 297 7 is_stmt 1 view .LVU293
	call	free@PLT
.LVL124:
	.loc 1 298 7 view .LVU294
	.loc 1 298 16 is_stmt 0 view .LVU295
	movq	%rbp, %rbx
.LVL125:
.L64:
	.loc 1 304 3 is_stmt 1 view .LVU296
	.loc 1 304 15 is_stmt 0 view .LVU297
	movq	%rbx, %rdi
	call	xstrdup@PLT
.LVL126:
	.loc 1 306 6 view .LVU298
	cmpb	$0, 14(%rsp)
	.loc 1 304 15 view .LVU299
	movq	%rax, %rbp
.LVL127:
	.loc 1 306 3 is_stmt 1 view .LVU300
	.loc 1 306 6 is_stmt 0 view .LVU301
	je	.L71
.LBB128:
	.loc 1 308 7 is_stmt 1 view .LVU302
.LVL128:
.LBB129:
.LBI129:
	.loc 1 123 1 view .LVU303
.LBB130:
	.loc 1 125 3 view .LVU304
	.loc 1 125 10 is_stmt 0 view .LVU305
	cmpb	$0, 15(%rsp)
	jne	.L72
	movl	24(%rsp), %esi
	xorl	%edx, %edx
	movq	%r15, %r8
	movl	$1, %ecx
	movq	%rax, %rdi
	call	gen_tempname_len@PLT
.LVL129:
	.loc 1 125 10 view .LVU306
.LBE130:
.LBE129:
	.loc 1 309 7 is_stmt 1 view .LVU307
	.loc 1 309 10 is_stmt 0 view .LVU308
	testl	%eax, %eax
	je	.L128
.L81:
	.loc 1 311 11 is_stmt 1 view .LVU309
	.loc 1 311 14 is_stmt 0 view .LVU310
	testb	%r14b, %r14b
	jne	.L133
	.loc 1 312 13 is_stmt 1 view .LVU311
	movq	%rbx, %rdi
	call	quote@PLT
.LVL130:
	.loc 1 312 30 is_stmt 0 view .LVU312
	movl	$5, %edx
	leaq	.LC42(%rip), %rsi
	.loc 1 312 13 view .LVU313
	movq	%rax, %r13
.LVL131:
.L132:
	.loc 1 312 13 view .LVU314
.LBE128:
.LBB133:
	.loc 1 323 30 view .LVU315
	xorl	%edi, %edi
	call	dcgettext@PLT
.LVL132:
	movq	%rax, %r12
	.loc 1 323 23 view .LVU316
	call	__errno_location@PLT
.LVL133:
	.loc 1 323 13 view .LVU317
	movq	%r12, %rdx
	movq	%r13, %rcx
	xorl	%edi, %edi
	movl	(%rax), %esi
	xorl	%eax, %eax
	.loc 1 325 18 view .LVU318
	movl	$1, %r12d
	.loc 1 323 13 view .LVU319
	call	error@PLT
.LVL134:
	jmp	.L75
.LVL135:
.L51:
	.loc 1 323 13 view .LVU320
.LBE133:
	.loc 1 225 3 is_stmt 1 view .LVU321
	.loc 1 225 6 is_stmt 0 view .LVU322
	cmpq	$0, (%rsp)
	.loc 1 217 20 view .LVU323
	movl	$1, %r12d
	.loc 1 218 16 view .LVU324
	leaq	.LC29(%rip), %rsi
	.loc 1 225 6 view .LVU325
	je	.L52
.LBB138:
	.loc 1 227 20 view .LVU326
	movl	$14, %ebp
.LVL136:
	.loc 1 227 20 view .LVU327
.LBE138:
	.loc 1 217 20 view .LVU328
	movl	$1, %r12d
	.loc 1 218 16 view .LVU329
	leaq	.LC29(%rip), %rsi
	jmp	.L54
.LVL137:
.L71:
.LBB139:
	.loc 1 319 7 is_stmt 1 view .LVU330
.LBB134:
.LBI134:
	.loc 1 116 1 view .LVU331
.LBB135:
	.loc 1 118 3 view .LVU332
	.loc 1 118 10 is_stmt 0 view .LVU333
	cmpb	$0, 15(%rsp)
	jne	.L76
	movl	24(%rsp), %esi
	xorl	%ecx, %ecx
	xorl	%edx, %edx
	movq	%r15, %r8
	movq	%rax, %rdi
	call	gen_tempname_len@PLT
.LVL138:
	.loc 1 118 10 view .LVU334
.LBE135:
.LBE134:
	.loc 1 320 7 is_stmt 1 view .LVU335
	.loc 1 320 10 is_stmt 0 view .LVU336
	testl	%eax, %eax
	jns	.L142
.LVL139:
.L84:
	.loc 1 322 11 is_stmt 1 view .LVU337
	.loc 1 322 14 is_stmt 0 view .LVU338
	testb	%r14b, %r14b
	je	.L143
.LVL140:
.L133:
	.loc 1 322 14 view .LVU339
.LBE139:
.LBB140:
	.loc 1 340 18 view .LVU340
	movl	$1, %r12d
.LVL141:
.L75:
	.loc 1 340 18 view .LVU341
.LBE140:
	.loc 1 345 3 is_stmt 1 view .LVU342
	movq	%rbp, %rdi
	call	free@PLT
.LVL142:
	.loc 1 346 3 view .LVU343
	movq	%rbx, %rdi
	call	free@PLT
.LVL143:
	.loc 1 349 3 view .LVU344
	.loc 1 350 1 is_stmt 0 view .LVU345
	addq	$56, %rsp
	.cfi_remember_state
	.cfi_def_cfa_offset 56
	movl	%r12d, %eax
	popq	%rbx
	.cfi_def_cfa_offset 48
.LVL144:
	.loc 1 350 1 view .LVU346
	popq	%rbp
	.cfi_def_cfa_offset 40
.LVL145:
	.loc 1 350 1 view .LVU347
	popq	%r12
	.cfi_def_cfa_offset 32
.LVL146:
	.loc 1 350 1 view .LVU348
	popq	%r13
	.cfi_def_cfa_offset 24
	popq	%r14
	.cfi_def_cfa_offset 16
.LVL147:
	.loc 1 350 1 view .LVU349
	popq	%r15
	.cfi_def_cfa_offset 8
.LVL148:
	.loc 1 350 1 view .LVU350
	ret
.LVL149:
.L138:
	.cfi_restore_state
	.loc 1 211 7 is_stmt 1 view .LVU351
	.loc 1 211 20 is_stmt 0 view .LVU352
	movl	$5, %edx
	leaq	.LC35(%rip), %rsi
	xorl	%edi, %edi
	call	dcgettext@PLT
.LVL150:
	.loc 1 211 7 view .LVU353
	xorl	%esi, %esi
	xorl	%edi, %edi
	.loc 1 211 20 view .LVU354
	movq	%rax, %rdx
	.loc 1 211 7 view .LVU355
	xorl	%eax, %eax
	call	error@PLT
.LVL151:
.L134:
	.loc 1 212 7 is_stmt 1 view .LVU356
	movl	$1, %edi
	call	usage
.LVL152:
.L76:
.LBB141:
.LBB137:
.LBB136:
	.loc 1 118 10 is_stmt 0 view .LVU357
	movl	24(%rsp), %esi
	xorl	%edx, %edx
	movq	%r15, %r8
	movl	$2, %ecx
	movq	%rax, %rdi
	call	gen_tempname_len@PLT
.LVL153:
	.loc 1 118 10 view .LVU358
.LBE136:
.LBE137:
	.loc 1 320 7 is_stmt 1 view .LVU359
	.loc 1 320 10 is_stmt 0 view .LVU360
	testl	%eax, %eax
	js	.L84
.LVL154:
	.loc 1 320 10 view .LVU361
.LBE141:
	.loc 1 331 7 is_stmt 1 view .LVU362
	movq	%rbp, %rdi
	xorl	%r12d, %r12d
	call	puts@PLT
.LVL155:
	.loc 1 334 7 view .LVU363
	jmp	.L75
.LVL156:
.L72:
.LBB142:
.LBB132:
.LBB131:
	.loc 1 125 10 is_stmt 0 view .LVU364
	movl	24(%rsp), %esi
	movq	%r15, %r8
	movl	$2, %ecx
	xorl	%edx, %edx
	movq	%rax, %rdi
	call	gen_tempname_len@PLT
.LVL157:
	.loc 1 125 10 view .LVU365
	movl	%eax, %r12d
.LVL158:
	.loc 1 125 10 view .LVU366
.LBE131:
.LBE132:
	.loc 1 309 7 is_stmt 1 view .LVU367
	.loc 1 309 10 is_stmt 0 view .LVU368
	testl	%eax, %eax
	jne	.L81
.LVL159:
	.loc 1 309 10 view .LVU369
.LBE142:
	.loc 1 331 7 is_stmt 1 view .LVU370
	movq	%rbp, %rdi
	call	puts@PLT
.LVL160:
	.loc 1 334 7 view .LVU371
	jmp	.L75
.LVL161:
.L69:
.LBB143:
	.loc 1 286 15 view .LVU372
	.loc 1 286 27 is_stmt 0 view .LVU373
	leaq	.LC39(%rip), %rdi
	call	getenv@PLT
.LVL162:
	movq	%rax, %rbp
.LVL163:
	.loc 1 287 15 is_stmt 1 view .LVU374
	.loc 1 287 45 is_stmt 0 view .LVU375
	testq	%rax, %rax
	je	.L93
	.loc 1 287 31 discriminator 1 view .LVU376
	cmpb	$0, (%rax)
	jne	.L70
.L93:
	.loc 1 287 45 view .LVU377
	leaq	.LC30(%rip), %rbp
	jmp	.L70
.LVL164:
.L140:
	.loc 1 287 45 view .LVU378
.LBE143:
.LBB144:
	.loc 1 267 11 is_stmt 1 view .LVU379
	.loc 1 267 23 is_stmt 0 view .LVU380
	leaq	.LC39(%rip), %rdi
	call	getenv@PLT
.LVL165:
	movq	%rax, %rbp
.LVL166:
	.loc 1 268 11 is_stmt 1 view .LVU381
	.loc 1 268 14 is_stmt 0 view .LVU382
	testq	%rax, %rax
	je	.L66
	.loc 1 268 19 discriminator 1 view .LVU383
	cmpb	$0, (%rax)
	jne	.L67
.L66:
	.loc 1 270 16 is_stmt 1 view .LVU384
	.loc 1 270 19 is_stmt 0 view .LVU385
	movq	16(%rsp), %rax
.LVL167:
	.loc 1 273 22 view .LVU386
	leaq	.LC30(%rip), %rbp
.LVL168:
	.loc 1 270 19 view .LVU387
	testq	%rax, %rax
	je	.L67
	.loc 1 270 33 discriminator 1 view .LVU388
	cmpb	$0, (%rax)
	cmovne	%rax, %rbp
.L67:
.LVL169:
	.loc 1 275 11 is_stmt 1 view .LVU389
	.loc 1 275 15 is_stmt 0 view .LVU390
	movq	%rbx, %rdi
	call	last_component@PLT
.LVL170:
	.loc 1 275 14 view .LVU391
	cmpq	%rax, %rbx
	je	.L68
.LBB145:
	.loc 1 276 13 is_stmt 1 view .LVU392
	movq	%rbx, %rdi
	call	quote@PLT
.LVL171:
	movl	$5, %edx
	leaq	.LC40(%rip), %rsi
	xorl	%edi, %edi
	movq	%rax, %r12
	call	dcgettext@PLT
.LVL172:
	movq	%r12, %rcx
	xorl	%esi, %esi
	movl	$1, %edi
	movq	%rax, %rdx
	xorl	%eax, %eax
	call	error@PLT
.LVL173:
.L52:
	.loc 1 276 13 is_stmt 0 view .LVU393
.LBE145:
.LBE144:
	.loc 1 243 7 is_stmt 1 view .LVU394
	.loc 1 243 18 is_stmt 0 view .LVU395
	movq	%rsi, %rdi
	call	xstrdup@PLT
.LVL174:
	.loc 1 244 16 view .LVU396
	movl	$88, %esi
	movq	%rax, %rdi
	.loc 1 243 18 view .LVU397
	movq	%rax, %rbx
.LVL175:
	.loc 1 244 7 is_stmt 1 view .LVU398
	.loc 1 244 16 is_stmt 0 view .LVU399
	call	strrchr@PLT
.LVL176:
	.loc 1 245 7 is_stmt 1 view .LVU400
	.loc 1 248 15 is_stmt 0 view .LVU401
	leaq	1(%rax), %rbp
.LVL177:
	.loc 1 245 10 view .LVU402
	testq	%rax, %rax
	je	.L144
.LVL178:
.L57:
	.loc 1 249 7 is_stmt 1 view .LVU403
	.loc 1 249 20 is_stmt 0 view .LVU404
	xorl	%eax, %eax
	orq	$-1, %rcx
	movq	%rbp, %rdi
	repnz scasb
	movq	%rcx, %rax
	notq	%rax
	subq	$1, %rax
	movq	%rax, 24(%rsp)
.LVL179:
	.loc 1 249 20 view .LVU405
	jmp	.L55
.LVL180:
.L142:
.LBB146:
	.loc 1 320 34 discriminator 2 view .LVU406
	movl	%eax, %edi
	call	close@PLT
.LVL181:
	.loc 1 320 31 discriminator 2 view .LVU407
	testl	%eax, %eax
	jne	.L84
.L128:
.LVL182:
	.loc 1 320 31 discriminator 2 view .LVU408
.LBE146:
	.loc 1 331 7 is_stmt 1 view .LVU409
	movq	%rbp, %rdi
	call	puts@PLT
.LVL183:
	.loc 1 334 7 view .LVU410
	.loc 1 334 48 is_stmt 0 view .LVU411
	movq	stdout(%rip), %rdi
	.loc 1 334 39 view .LVU412
	movb	$1, stdout_closed(%rip)
	.loc 1 334 48 view .LVU413
	call	close_stream@PLT
.LVL184:
	movl	%eax, %r12d
	.loc 1 334 20 view .LVU414
	testl	%eax, %eax
	je	.L75
.LBB147:
	.loc 1 336 11 is_stmt 1 view .LVU415
	.loc 1 336 29 is_stmt 0 view .LVU416
	call	__errno_location@PLT
.LVL185:
	.loc 1 337 11 view .LVU417
	movq	%rbp, %rdi
	.loc 1 336 15 view .LVU418
	movl	(%rax), %r12d
.LVL186:
	.loc 1 337 11 is_stmt 1 view .LVU419
	call	remove@PLT
.LVL187:
	.loc 1 338 11 view .LVU420
	.loc 1 338 14 is_stmt 0 view .LVU421
	testb	%r14b, %r14b
	jne	.L133
	.loc 1 339 13 is_stmt 1 view .LVU422
	.loc 1 339 36 is_stmt 0 view .LVU423
	xorl	%edi, %edi
	movl	$5, %edx
	leaq	.LC44(%rip), %rsi
	call	dcgettext@PLT
.LVL188:
	.loc 1 339 13 view .LVU424
	movl	%r12d, %esi
	xorl	%edi, %edi
	.loc 1 339 36 view .LVU425
	movq	%rax, %rdx
	.loc 1 339 13 view .LVU426
	xorl	%eax, %eax
	call	error@PLT
.LVL189:
	jmp	.L133
.LVL190:
.L143:
	.loc 1 339 13 view .LVU427
.LBE147:
.LBB148:
	.loc 1 323 13 is_stmt 1 view .LVU428
	movq	%rbx, %rdi
	call	quote@PLT
.LVL191:
	.loc 1 323 30 is_stmt 0 view .LVU429
	movl	$5, %edx
	leaq	.LC43(%rip), %rsi
	.loc 1 323 13 view .LVU430
	movq	%rax, %r13
.LVL192:
	.loc 1 323 13 view .LVU431
	jmp	.L132
.LVL193:
.L144:
	.loc 1 323 13 view .LVU432
.LBE148:
	.loc 1 246 9 is_stmt 1 view .LVU433
	.loc 1 246 18 is_stmt 0 view .LVU434
	orq	$-1, %rcx
	movq	%rbx, %rdi
	repnz scasb
.LVL194:
	.loc 1 246 18 view .LVU435
	movq	%rcx, %rax
.LVL195:
	.loc 1 246 18 view .LVU436
	notq	%rax
	leaq	-1(%rbx,%rax), %rbp
.LVL196:
	.loc 1 246 18 view .LVU437
	jmp	.L57
.LVL197:
.L141:
.LBB149:
	.loc 1 290 13 is_stmt 1 view .LVU438
	movq	%rbx, %rdi
	call	quote@PLT
.LVL198:
	movl	$5, %edx
	leaq	.LC41(%rip), %rsi
	xorl	%edi, %edi
	movq	%rax, %r12
	call	dcgettext@PLT
.LVL199:
	movq	%r12, %rcx
	xorl	%esi, %esi
	movl	$1, %edi
	movq	%rax, %rdx
	xorl	%eax, %eax
	call	error@PLT
.LVL200:
.L60:
	.loc 1 290 13 is_stmt 0 view .LVU439
.LBE149:
.LBB150:
	.loc 1 261 5 is_stmt 1 view .LVU440
	movq	%rbx, %rdi
	call	quote@PLT
.LVL201:
	movl	$5, %edx
	leaq	.LC38(%rip), %rsi
	xorl	%edi, %edi
	movq	%rax, %r12
	call	dcgettext@PLT
.LVL202:
	movq	%r12, %rcx
	xorl	%esi, %esi
	movl	$1, %edi
	movq	%rax, %rdx
	xorl	%eax, %eax
	call	error@PLT
.LVL203:
.L139:
	.loc 1 261 5 is_stmt 0 view .LVU441
.LBE150:
.LBB151:
	.loc 1 255 7 is_stmt 1 view .LVU442
	movq	%rbp, %rdi
	call	quote@PLT
.LVL204:
	movl	$5, %edx
	leaq	.LC37(%rip), %rsi
	xorl	%edi, %edi
	movq	%rax, %r12
	call	dcgettext@PLT
.LVL205:
	movq	%r12, %rcx
	xorl	%esi, %esi
	movl	$1, %edi
	movq	%rax, %rdx
	xorl	%eax, %eax
	call	error@PLT
.LVL206:
.L53:
	.loc 1 255 7 is_stmt 0 view .LVU443
.LBE151:
.LBB152:
.LBB125:
	.loc 1 230 11 is_stmt 1 view .LVU444
	movq	%rsi, %rdi
	call	quote@PLT
.LVL207:
	.loc 1 230 11 is_stmt 0 view .LVU445
	movl	$5, %edx
	leaq	.LC36(%rip), %rsi
	xorl	%edi, %edi
	movq	%rax, %r12
.LVL208:
	.loc 1 230 11 view .LVU446
	call	dcgettext@PLT
.LVL209:
	movq	%r12, %rcx
	xorl	%esi, %esi
	movl	$1, %edi
	movq	%rax, %rdx
	xorl	%eax, %eax
	call	error@PLT
.LVL210:
.LBE125:
.LBE152:
	.cfi_endproc
.LFE140:
	.size	main, .-main
	.local	stdout_closed
	.comm	stdout_closed,1,1
	.section	.rodata.str1.1
.LC45:
	.string	"directory"
.LC46:
	.string	"quiet"
.LC47:
	.string	"dry-run"
.LC48:
	.string	"suffix"
.LC49:
	.string	"tmpdir"
.LC50:
	.string	"help"
.LC51:
	.string	"version"
	.section	.data.rel.ro.local,"aw"
	.align 32
	.type	longopts, @object
	.size	longopts, 256
longopts:
	.quad	.LC45
	.long	0
	.zero	4
	.quad	0
	.long	100
	.zero	4
	.quad	.LC46
	.long	0
	.zero	4
	.quad	0
	.long	113
	.zero	4
	.quad	.LC47
	.long	0
	.zero	4
	.quad	0
	.long	117
	.zero	4
	.quad	.LC48
	.long	1
	.zero	4
	.quad	0
	.long	128
	.zero	4
	.quad	.LC49
	.long	2
	.zero	4
	.quad	0
	.long	112
	.zero	4
	.quad	.LC50
	.long	0
	.zero	4
	.quad	0
	.long	-130
	.zero	4
	.quad	.LC51
	.long	0
	.zero	4
	.quad	0
	.long	-131
	.zero	4
	.quad	0
	.long	0
	.zero	4
	.quad	0
	.long	0
	.zero	4
	.text
.Letext0:
	.file 6 "/usr/include/x86_64-linux-gnu/bits/types.h"
	.file 7 "/usr/include/x86_64-linux-gnu/bits/types/time_t.h"
	.file 8 "/usr/lib/gcc/x86_64-linux-gnu/9/include/stddef.h"
	.file 9 "./lib/sys/select.h"
	.file 10 "/usr/include/x86_64-linux-gnu/bits/getopt_core.h"
	.file 11 "/usr/include/x86_64-linux-gnu/bits/getopt_ext.h"
	.file 12 "/usr/include/time.h"
	.file 13 "/usr/include/signal.h"
	.file 14 "/usr/include/unistd.h"
	.file 15 "/usr/include/errno.h"
	.file 16 "src/version.h"
	.file 17 "./lib/exitfail.h"
	.file 18 "./lib/timespec.h"
	.file 19 "/usr/include/x86_64-linux-gnu/bits/types/struct_FILE.h"
	.file 20 "/usr/include/x86_64-linux-gnu/bits/types/FILE.h"
	.file 21 "/usr/include/stdio.h"
	.file 22 "/usr/include/x86_64-linux-gnu/bits/sys_errlist.h"
	.file 23 "./lib/version-etc.h"
	.file 24 "./lib/progname.h"
	.file 25 "./lib/quotearg.h"
	.file 26 "./lib/error.h"
	.file 27 "./lib/quote.h"
	.file 28 "/usr/include/libintl.h"
	.file 29 "/usr/include/stdlib.h"
	.file 30 "./lib/basename-lgpl.h"
	.file 31 "./lib/tempname.h"
	.file 32 "/usr/include/locale.h"
	.file 33 "./lib/filenamecat.h"
	.file 34 "/usr/include/string.h"
	.file 35 "./lib/close-stream.h"
	.file 36 "<built-in>"
	.file 37 "./lib/closeout.h"
	.section	.note.GNU-stack,"",@progbits
	.section	.note.gnu.property,"a"
	.align 8
	.long	 1f - 0f
	.long	 4f - 1f
	.long	 5
0:
	.string	 "GNU"
1:
	.align 8
	.long	 0xc0000002
	.long	 3f - 2f
2:
	.long	 0x3
3:
	.align 8
4:
