	.file	"mv.c"
	.text
.Ltext0:
	.section	.rodata.str1.1,"aMS",@progbits,1
.LC0:
	.string	"/"
	.section	.rodata.str1.8,"aMS",@progbits,1
	.align 8
.LC1:
	.string	"failed to get attributes of %s"
	.section	.rodata.str1.1
.LC2:
	.string	"src/mv.c"
.LC3:
	.string	"VALID_STATUS (status)"
	.text
	.p2align 4
	.type	do_move, @function
do_move:
.LVL0:
.LFB140:
	.file 1 "src/mv.c"
	.loc 1 170 1 view -0
	.cfi_startproc
	.loc 1 170 1 is_stmt 0 view .LVU1
	pushq	%r13
	.cfi_def_cfa_offset 16
	.cfi_offset 13, -16
	.loc 1 173 13 view .LVU2
	movq	%rdx, %rcx
	.loc 1 170 1 view .LVU3
	pushq	%r12
	.cfi_def_cfa_offset 24
	.cfi_offset 12, -24
	pushq	%rbp
	.cfi_def_cfa_offset 32
	.cfi_offset 6, -32
	movq	%rdx, %rbp
	.loc 1 173 13 view .LVU4
	xorl	%edx, %edx
.LVL1:
	.loc 1 170 1 view .LVU5
	pushq	%rbx
	.cfi_def_cfa_offset 40
	.cfi_offset 3, -40
	movq	%rdi, %rbx
	subq	$88, %rsp
	.cfi_def_cfa_offset 128
	.loc 1 170 1 view .LVU6
	movq	%fs:40, %rax
	movq	%rax, 72(%rsp)
	xorl	%eax, %eax
	.loc 1 171 3 is_stmt 1 view .LVU7
	.loc 1 172 3 view .LVU8
	.loc 1 173 3 view .LVU9
	.loc 1 173 13 is_stmt 0 view .LVU10
	leaq	15(%rsp), %r9
	leaq	14(%rsp), %r8
	call	copy@PLT
.LVL2:
	.loc 1 175 3 is_stmt 1 view .LVU11
	.loc 1 175 6 is_stmt 0 view .LVU12
	testb	%al, %al
	je	.L1
.LBB54:
	.loc 1 177 7 is_stmt 1 view .LVU13
	.loc 1 178 7 view .LVU14
	.loc 1 178 10 is_stmt 0 view .LVU15
	cmpb	$0, 14(%rsp)
	je	.L18
	xorl	%eax, %eax
.LVL3:
	.loc 1 178 10 view .LVU16
.LBE54:
	.loc 1 245 3 is_stmt 1 view .LVU17
.L1:
	.loc 1 246 1 is_stmt 0 view .LVU18
	movq	72(%rsp), %rcx
	xorq	%fs:40, %rcx
	jne	.L19
	addq	$88, %rsp
	.cfi_remember_state
	.cfi_def_cfa_offset 40
	popq	%rbx
	.cfi_def_cfa_offset 32
.LVL4:
	.loc 1 246 1 view .LVU19
	popq	%rbp
	.cfi_def_cfa_offset 24
.LVL5:
	.loc 1 246 1 view .LVU20
	popq	%r12
	.cfi_def_cfa_offset 16
	popq	%r13
	.cfi_def_cfa_offset 8
	ret
.LVL6:
	.p2align 4,,10
	.p2align 3
.L18:
	.cfi_restore_state
.LBB67:
	.loc 1 194 12 is_stmt 1 view .LVU21
	.loc 1 224 11 view .LVU22
	.loc 1 227 7 view .LVU23
	.loc 1 227 10 is_stmt 0 view .LVU24
	cmpb	$1, 15(%rsp)
	je	.L1
	testq	%rbx, %rbx
	je	.L1
.LBB55:
	.loc 1 229 11 is_stmt 1 view .LVU25
	.loc 1 230 11 view .LVU26
	.loc 1 231 11 view .LVU27
	.loc 1 233 11 view .LVU28
.LVL7:
.LBB56:
.LBI56:
	.loc 1 75 1 view .LVU29
.LBB57:
	.loc 1 77 3 view .LVU30
	.loc 1 80 22 is_stmt 0 view .LVU31
	movl	$256, %eax
	.loc 1 87 14 view .LVU32
	movl	$256, %edx
.LBB58:
	.loc 1 97 23 view .LVU33
	leaq	dev_ino_buf.7868(%rip), %rdi
.LBE58:
	.loc 1 77 27 view .LVU34
	movb	$0, 16(%rsp)
	.loc 1 78 3 is_stmt 1 view .LVU35
	.loc 1 79 3 view .LVU36
	.loc 1 80 3 view .LVU37
	.loc 1 84 3 view .LVU38
	.loc 1 84 18 is_stmt 0 view .LVU39
	movl	$5, 20(%rsp)
	.loc 1 80 22 view .LVU40
	movw	%ax, 24(%rsp)
	.loc 1 78 31 view .LVU41
	movb	$1, 26(%rsp)
	.loc 1 85 3 is_stmt 1 view .LVU42
	.loc 1 87 3 view .LVU43
	.loc 1 93 3 view .LVU44
	.loc 1 85 16 is_stmt 0 view .LVU45
	movb	$0, 41(%rsp)
	.loc 1 87 14 view .LVU46
	movw	%dx, 42(%rsp)
.LBB60:
	.loc 1 96 5 is_stmt 1 view .LVU47
	.loc 1 97 5 view .LVU48
	.loc 1 97 23 is_stmt 0 view .LVU49
	call	get_root_dev_ino@PLT
.LVL8:
	.loc 1 97 21 view .LVU50
	movq	%rax, 32(%rsp)
	.loc 1 98 5 is_stmt 1 view .LVU51
	.loc 1 98 8 is_stmt 0 view .LVU52
	testq	%rax, %rax
	je	.L20
.LBE60:
	.loc 1 103 3 is_stmt 1 view .LVU53
.LBE57:
.LBE56:
	.loc 1 234 30 is_stmt 0 view .LVU54
	movzbl	60(%rbp), %eax
	.loc 1 238 20 view .LVU55
	leaq	16(%rsp), %rsi
.LVL9:
	.loc 1 238 20 view .LVU56
	leaq	48(%rsp), %rdi
.LBB64:
.LBB62:
	.loc 1 103 24 view .LVU57
	movb	$0, 40(%rsp)
.LVL10:
	.loc 1 103 24 view .LVU58
.LBE62:
.LBE64:
	.loc 1 234 11 is_stmt 1 view .LVU59
	.loc 1 235 18 is_stmt 0 view .LVU60
	movq	%rbx, 48(%rsp)
	.loc 1 234 30 view .LVU61
	movb	%al, 42(%rsp)
	.loc 1 235 11 is_stmt 1 view .LVU62
	.loc 1 236 11 view .LVU63
	.loc 1 236 18 is_stmt 0 view .LVU64
	movq	$0, 56(%rsp)
	.loc 1 238 11 is_stmt 1 view .LVU65
	.loc 1 238 20 is_stmt 0 view .LVU66
	call	rm@PLT
.LVL11:
	.loc 1 239 11 is_stmt 1 view .LVU67
	leal	-2(%rax), %edx
	cmpl	$2, %edx
	ja	.L21
	.loc 1 240 11 view .LVU68
	.loc 1 240 14 is_stmt 0 view .LVU69
	cmpl	$4, %eax
	setne	%al
.LVL12:
	.loc 1 240 14 view .LVU70
	jmp	.L1
.LVL13:
.L19:
	.loc 1 240 14 view .LVU71
.LBE55:
.LBE67:
	.loc 1 246 1 view .LVU72
	call	__stack_chk_fail@PLT
.LVL14:
.L21:
.LBB68:
.LBI68:
	.loc 1 169 1 is_stmt 1 view .LVU73
.LBB69:
.LBB70:
.LBB71:
	.loc 1 239 11 view .LVU74
	leaq	__PRETTY_FUNCTION__.7895(%rip), %rcx
	movl	$239, %edx
	leaq	.LC2(%rip), %rsi
	leaq	.LC3(%rip), %rdi
	call	__assert_fail@PLT
.LVL15:
.L20:
	.loc 1 239 11 is_stmt 0 view .LVU75
.LBE71:
.LBE70:
.LBE69:
.LBE68:
.LBB72:
.LBB66:
.LBB65:
.LBB63:
.LBB61:
.LBB59:
	.loc 1 99 7 is_stmt 1 view .LVU76
	leaq	.LC0(%rip), %rsi
	movl	$4, %edi
	call	quotearg_style@PLT
.LVL16:
	movl	$5, %edx
	leaq	.LC1(%rip), %rsi
	xorl	%edi, %edi
	movq	%rax, %r13
	call	dcgettext@PLT
.LVL17:
	movq	%rax, %r12
	call	__errno_location@PLT
.LVL18:
	movq	%r13, %rcx
	movq	%r12, %rdx
	movl	$1, %edi
	movl	(%rax), %esi
	xorl	%eax, %eax
	call	error@PLT
.LVL19:
.LBE59:
.LBE61:
.LBE63:
.LBE65:
.LBE66:
.LBE72:
	.cfi_endproc
.LFE140:
	.size	do_move, .-do_move
	.p2align 4
	.type	movefile, @function
movefile:
.LVL20:
.LFB141:
	.loc 1 255 1 view -0
	.cfi_startproc
	.loc 1 256 3 view .LVU78
	.loc 1 265 3 view .LVU79
	.loc 1 255 1 is_stmt 0 view .LVU80
	pushq	%r13
	.cfi_def_cfa_offset 16
	.cfi_offset 13, -16
	movq	%rcx, %r13
	pushq	%r12
	.cfi_def_cfa_offset 24
	.cfi_offset 12, -24
	movq	%rsi, %r12
	pushq	%rbp
	.cfi_def_cfa_offset 32
	.cfi_offset 6, -32
	movq	%rdi, %rbp
	pushq	%rbx
	.cfi_def_cfa_offset 40
	.cfi_offset 3, -40
	movl	%edx, %ebx
	subq	$8, %rsp
	.cfi_def_cfa_offset 48
	.loc 1 265 6 view .LVU81
	cmpb	$0, remove_trailing_slashes(%rip)
	jne	.L29
.LVL21:
.L23:
	.loc 1 268 3 is_stmt 1 view .LVU82
	.loc 1 268 6 is_stmt 0 view .LVU83
	testb	%bl, %bl
	jne	.L27
	.loc 1 279 7 is_stmt 1 view .LVU84
	.loc 1 283 1 is_stmt 0 view .LVU85
	addq	$8, %rsp
	.cfi_remember_state
	.cfi_def_cfa_offset 40
	.loc 1 279 12 view .LVU86
	movq	%r13, %rdx
	movq	%r12, %rsi
	movq	%rbp, %rdi
	.loc 1 283 1 view .LVU87
	popq	%rbx
	.cfi_def_cfa_offset 32
	popq	%rbp
	.cfi_def_cfa_offset 24
.LVL22:
	.loc 1 283 1 view .LVU88
	popq	%r12
	.cfi_def_cfa_offset 16
.LVL23:
	.loc 1 283 1 view .LVU89
	popq	%r13
	.cfi_def_cfa_offset 8
.LVL24:
	.loc 1 279 12 view .LVU90
	jmp	do_move
.LVL25:
	.p2align 4,,10
	.p2align 3
.L27:
	.cfi_restore_state
.LBB76:
.LBI76:
	.loc 1 253 1 is_stmt 1 view .LVU91
.LBB77:
.LBB78:
	.loc 1 271 7 view .LVU92
	.loc 1 271 34 is_stmt 0 view .LVU93
	movq	%rbp, %rdi
	call	last_component@PLT
.LVL26:
	.loc 1 272 24 view .LVU94
	xorl	%edx, %edx
	movq	%r12, %rdi
	.loc 1 271 34 view .LVU95
	movq	%rax, %rsi
.LVL27:
	.loc 1 272 7 is_stmt 1 view .LVU96
	.loc 1 272 24 is_stmt 0 view .LVU97
	call	file_name_concat@PLT
.LVL28:
	.loc 1 272 24 view .LVU98
	movq	%rax, %r12
.LVL29:
	.loc 1 273 7 is_stmt 1 view .LVU99
	movq	%rax, %rdi
	call	strip_trailing_slashes@PLT
.LVL30:
	.loc 1 274 7 view .LVU100
	.loc 1 274 12 is_stmt 0 view .LVU101
	movq	%r13, %rdx
	movq	%r12, %rsi
	movq	%rbp, %rdi
	call	do_move
.LVL31:
	.loc 1 275 7 view .LVU102
	movq	%r12, %rdi
	.loc 1 274 12 view .LVU103
	movl	%eax, %r13d
.LVL32:
	.loc 1 275 7 is_stmt 1 view .LVU104
	call	free@PLT
.LVL33:
	.loc 1 275 7 is_stmt 0 view .LVU105
.LBE78:
	.loc 1 282 3 is_stmt 1 view .LVU106
	.loc 1 282 3 is_stmt 0 view .LVU107
.LBE77:
.LBE76:
	.loc 1 283 1 view .LVU108
	addq	$8, %rsp
	.cfi_remember_state
	.cfi_def_cfa_offset 40
	movl	%r13d, %eax
	popq	%rbx
	.cfi_def_cfa_offset 32
	popq	%rbp
	.cfi_def_cfa_offset 24
.LVL34:
	.loc 1 283 1 view .LVU109
	popq	%r12
	.cfi_def_cfa_offset 16
	popq	%r13
	.cfi_def_cfa_offset 8
	ret
.LVL35:
	.p2align 4,,10
	.p2align 3
.L29:
	.cfi_restore_state
	.loc 1 266 5 is_stmt 1 view .LVU110
	call	strip_trailing_slashes@PLT
.LVL36:
	.loc 1 266 5 is_stmt 0 view .LVU111
	jmp	.L23
	.cfi_endproc
.LFE141:
	.size	movefile, .-movefile
	.section	.rodata.str1.1
.LC4:
	.string	"mv"
.LC5:
	.string	" invocation"
.LC6:
	.string	""
	.section	.rodata.str1.8
	.align 8
.LC7:
	.string	"Try '%s --help' for more information.\n"
	.align 8
.LC8:
	.string	"Usage: %s [OPTION]... [-T] SOURCE DEST\n  or:  %s [OPTION]... SOURCE... DIRECTORY\n  or:  %s [OPTION]... -t DIRECTORY SOURCE...\n"
	.align 8
.LC9:
	.string	"Rename SOURCE to DEST, or move SOURCE(s) to DIRECTORY.\n"
	.align 8
.LC10:
	.string	"\nMandatory arguments to long options are mandatory for short options too.\n"
	.align 8
.LC11:
	.ascii	"      --backup[=CONTROL]       make a backup of each existin"
	.ascii	"g destination file\n  -b                           like --ba"
	.ascii	"ckup but does not accept an argument\n  -f,"
	.string	" --force                  do not prompt before overwriting\n  -i, --interactive            prompt before overwrite\n  -n, --no-clobber             do not overwrite an existing file\nIf you specify more than one of -i, -f, -n, only the final one takes effect.\n"
	.align 8
.LC12:
	.string	"      --strip-trailing-slashes  remove any trailing slashes from each SOURCE\n                                 argument\n  -S, --suffix=SUFFIX          override the usual backup suffix\n"
	.align 8
.LC13:
	.ascii	"  -t, --target-directory=DIRECTORY  move all SOURCE argument"
	.ascii	"s into DIRECTORY\n  -T, --no-target-directory    treat DEST "
	.ascii	"as a normal file\n  -u, --update                 move only w"
	.ascii	"hen the SOURCE file is newer\n                              "
	.ascii	"   than the destination file or w"
	.string	"hen the\n                                 destination file is missing\n  -v, --verbose                explain what is being done\n  -Z, --context                set SELinux security context of destination\n                                 file to default type\n"
	.align 8
.LC14:
	.string	"      --help     display this help and exit\n"
	.align 8
.LC15:
	.string	"      --version  output version information and exit\n"
	.align 8
.LC16:
	.string	"\nThe backup suffix is '~', unless set with --suffix or SIMPLE_BACKUP_SUFFIX.\nThe version control method may be selected via the --backup option or through\nthe VERSION_CONTROL environment variable.  Here are the values:\n\n"
	.align 8
.LC17:
	.string	"  none, off       never make backups (even if --backup is given)\n  numbered, t     make numbered backups\n  existing, nil   numbered if numbered backups exist, simple otherwise\n  simple, never   always make simple backups\n"
	.section	.rodata.str1.1
.LC18:
	.string	"["
.LC19:
	.string	"test invocation"
.LC20:
	.string	"coreutils"
.LC21:
	.string	"Multi-call invocation"
.LC22:
	.string	"sha224sum"
.LC23:
	.string	"sha2 utilities"
.LC24:
	.string	"sha256sum"
.LC25:
	.string	"sha384sum"
.LC26:
	.string	"sha512sum"
.LC27:
	.string	"\n%s online help: <%s>\n"
	.section	.rodata.str1.8
	.align 8
.LC28:
	.string	"https://www.gnu.org/software/coreutils/"
	.section	.rodata.str1.1
.LC29:
	.string	"GNU coreutils"
.LC30:
	.string	"en_"
	.section	.rodata.str1.8
	.align 8
.LC31:
	.string	"Report any translation bugs to <https://translationproject.org/team/>\n"
	.section	.rodata.str1.1
.LC32:
	.string	"Full documentation <%s%s>\n"
	.section	.rodata.str1.8
	.align 8
.LC33:
	.string	"or available locally via: info '(coreutils) %s%s'\n"
	.text
	.p2align 4
	.globl	usage
	.type	usage, @function
usage:
.LVL37:
.LFB142:
	.loc 1 287 1 is_stmt 1 view -0
	.cfi_startproc
	.loc 1 287 1 is_stmt 0 view .LVU113
	endbr64
	pushq	%r14
	.cfi_def_cfa_offset 16
	.cfi_offset 14, -16
	.loc 1 289 5 view .LVU114
	movl	$5, %edx
	.loc 1 287 1 view .LVU115
	pushq	%r13
	.cfi_def_cfa_offset 24
	.cfi_offset 13, -24
	pushq	%r12
	.cfi_def_cfa_offset 32
	.cfi_offset 12, -32
	pushq	%rbp
	.cfi_def_cfa_offset 40
	.cfi_offset 6, -40
	movl	%edi, %ebp
	subq	$136, %rsp
	.cfi_def_cfa_offset 176
	movq	program_name(%rip), %r12
	.loc 1 287 1 view .LVU116
	movq	%fs:40, %rax
	movq	%rax, 120(%rsp)
	xorl	%eax, %eax
	.loc 1 288 3 is_stmt 1 view .LVU117
	.loc 1 288 6 is_stmt 0 view .LVU118
	testl	%edi, %edi
	je	.L31
	.loc 1 289 5 is_stmt 1 view .LVU119
	.loc 1 289 5 view .LVU120
	leaq	.LC7(%rip), %rsi
	xorl	%edi, %edi
.LVL38:
	.loc 1 289 5 is_stmt 0 view .LVU121
	call	dcgettext@PLT
.LVL39:
.LBB95:
.LBB96:
	.file 2 "/usr/include/x86_64-linux-gnu/bits/stdio2.h"
	.loc 2 100 10 view .LVU122
	movq	stderr(%rip), %rdi
	movq	%r12, %rcx
	movl	$1, %esi
.LBE96:
.LBE95:
	.loc 1 289 5 view .LVU123
	movq	%rax, %rdx
.LVL40:
.LBB98:
.LBI95:
	.loc 2 98 1 is_stmt 1 view .LVU124
.LBB97:
	.loc 2 100 3 view .LVU125
	.loc 2 100 10 is_stmt 0 view .LVU126
	xorl	%eax, %eax
.LVL41:
	.loc 2 100 10 view .LVU127
	call	__fprintf_chk@PLT
.LVL42:
.L32:
	.loc 2 100 10 view .LVU128
.LBE97:
.LBE98:
	.loc 1 333 3 is_stmt 1 view .LVU129
	movl	%ebp, %edi
	call	exit@PLT
.LVL43:
.L31:
	.loc 1 292 7 view .LVU130
	.loc 1 292 15 is_stmt 0 view .LVU131
	leaq	.LC8(%rip), %rsi
	xorl	%edi, %edi
.LVL44:
	.loc 1 292 15 view .LVU132
	call	dcgettext@PLT
.LVL45:
.LBB99:
.LBB100:
	.loc 2 107 10 view .LVU133
	movq	%r12, %rcx
	movq	%r12, %r8
	movq	%r12, %rdx
.LBE100:
.LBE99:
	.loc 1 292 15 view .LVU134
	movq	%rax, %rsi
.LVL46:
.LBB102:
.LBI99:
	.loc 2 105 1 is_stmt 1 view .LVU135
.LBB101:
	.loc 2 107 3 view .LVU136
	.loc 2 107 10 is_stmt 0 view .LVU137
	movl	$1, %edi
	xorl	%eax, %eax
.LVL47:
	.loc 2 107 10 view .LVU138
	call	__printf_chk@PLT
.LVL48:
	.loc 2 107 10 view .LVU139
.LBE101:
.LBE102:
	.loc 1 298 7 is_stmt 1 view .LVU140
	movq	stdout(%rip), %r12
	movl	$5, %edx
	xorl	%edi, %edi
	leaq	.LC9(%rip), %rsi
	call	dcgettext@PLT
.LVL49:
	movq	%r12, %rsi
	movq	%rax, %rdi
	call	fputs_unlocked@PLT
.LVL50:
	.loc 1 302 7 view .LVU141
.LBB103:
.LBI103:
	.file 3 "src/system.h"
	.loc 3 588 1 view .LVU142
.LBB104:
	.loc 3 590 3 view .LVU143
	movq	stdout(%rip), %r12
	movl	$5, %edx
	xorl	%edi, %edi
	leaq	.LC10(%rip), %rsi
	call	dcgettext@PLT
.LVL51:
	movq	%r12, %rsi
	movq	%rax, %rdi
	call	fputs_unlocked@PLT
.LVL52:
.LBE104:
.LBE103:
	.loc 1 304 7 view .LVU144
	movq	stdout(%rip), %r12
	movl	$5, %edx
	xorl	%edi, %edi
	leaq	.LC11(%rip), %rsi
	call	dcgettext@PLT
.LVL53:
	movq	%r12, %rsi
	movq	%rax, %rdi
	call	fputs_unlocked@PLT
.LVL54:
	.loc 1 313 7 view .LVU145
	movq	stdout(%rip), %r12
	movl	$5, %edx
	xorl	%edi, %edi
	leaq	.LC12(%rip), %rsi
	call	dcgettext@PLT
.LVL55:
	movq	%r12, %rsi
	movq	%rax, %rdi
	call	fputs_unlocked@PLT
.LVL56:
	.loc 1 318 7 view .LVU146
	movq	stdout(%rip), %r12
	movl	$5, %edx
	xorl	%edi, %edi
	leaq	.LC13(%rip), %rsi
	call	dcgettext@PLT
.LVL57:
	movq	%r12, %rsi
	movq	%rax, %rdi
	call	fputs_unlocked@PLT
.LVL58:
	.loc 1 328 7 view .LVU147
	movq	stdout(%rip), %r12
	movl	$5, %edx
	xorl	%edi, %edi
	leaq	.LC14(%rip), %rsi
	call	dcgettext@PLT
.LVL59:
	movq	%r12, %rsi
	movq	%rax, %rdi
	call	fputs_unlocked@PLT
.LVL60:
	.loc 1 329 7 view .LVU148
	movq	stdout(%rip), %r12
	movl	$5, %edx
	xorl	%edi, %edi
	leaq	.LC15(%rip), %rsi
	call	dcgettext@PLT
.LVL61:
	movq	%r12, %rsi
	movq	%rax, %rdi
	call	fputs_unlocked@PLT
.LVL62:
	.loc 1 330 7 view .LVU149
.LBB105:
.LBI105:
	.loc 3 616 1 view .LVU150
.LBB106:
	.loc 3 618 3 view .LVU151
	movq	stdout(%rip), %r12
	movl	$5, %edx
	xorl	%edi, %edi
	leaq	.LC16(%rip), %rsi
	call	dcgettext@PLT
.LVL63:
	movq	%r12, %rsi
	movq	%rax, %rdi
	call	fputs_unlocked@PLT
.LVL64:
	.loc 3 625 3 view .LVU152
	movl	$5, %edx
	movq	stdout(%rip), %r12
	xorl	%edi, %edi
	leaq	.LC17(%rip), %rsi
	call	dcgettext@PLT
.LVL65:
	movq	%r12, %rsi
	movq	%rax, %rdi
	call	fputs_unlocked@PLT
.LVL66:
.LBE106:
.LBE105:
	.loc 1 331 7 view .LVU153
.LBB107:
.LBI107:
	.loc 3 634 1 view .LVU154
.LBB108:
	.loc 3 636 3 view .LVU155
	.loc 3 636 67 is_stmt 0 view .LVU156
	leaq	.LC18(%rip), %rax
	.loc 3 647 25 view .LVU157
	movq	%rsp, %rdx
	.loc 3 636 67 view .LVU158
	leaq	.LC24(%rip), %rcx
	movq	%rax, (%rsp)
	leaq	.LC19(%rip), %rax
	.loc 3 649 33 view .LVU159
	movl	$109, %edi
	movl	$118, %esi
	.loc 3 636 67 view .LVU160
	movq	%rax, 8(%rsp)
	leaq	.LC20(%rip), %rax
	movq	%rax, 16(%rsp)
	leaq	.LC21(%rip), %rax
	movq	%rax, 24(%rsp)
	leaq	.LC22(%rip), %rax
	movq	%rcx, 48(%rsp)
	leaq	.LC25(%rip), %rcx
	movq	%rax, 32(%rsp)
	leaq	.LC23(%rip), %rax
	movq	%rcx, 64(%rsp)
	leaq	.LC26(%rip), %rcx
	movq	%rax, 40(%rsp)
	movq	%rax, 56(%rsp)
	movq	%rax, 72(%rsp)
	movq	%rcx, 80(%rsp)
	movq	%rax, 88(%rsp)
	movq	$0, 96(%rsp)
	movq	$0, 104(%rsp)
	.loc 3 646 3 is_stmt 1 view .LVU161
.LVL67:
	.loc 3 647 3 view .LVU162
	.loc 3 649 3 view .LVU163
	.loc 3 649 9 view .LVU164
	.p2align 4,,10
	.p2align 3
.L52:
	.loc 3 650 5 view .LVU165
	.loc 3 649 18 is_stmt 0 view .LVU166
	movq	16(%rdx), %rax
	.loc 3 650 13 view .LVU167
	addq	$16, %rdx
.LVL68:
	.loc 3 649 9 is_stmt 1 view .LVU168
	testq	%rax, %rax
	je	.L33
	.loc 3 649 33 is_stmt 0 view .LVU169
	movzbl	(%rax), %ecx
	cmpl	%ecx, %edi
	jne	.L52
	movzbl	1(%rax), %ecx
	cmpl	%ecx, %esi
	jne	.L52
	.loc 3 649 28 view .LVU170
	cmpb	$0, 2(%rax)
	jne	.L52
.L33:
	.loc 3 652 3 is_stmt 1 view .LVU171
	.loc 3 652 15 is_stmt 0 view .LVU172
	movq	8(%rdx), %r12
	.loc 3 655 11 view .LVU173
	leaq	.LC27(%rip), %rsi
	movl	$5, %edx
.LVL69:
	.loc 3 655 11 view .LVU174
	xorl	%edi, %edi
	.loc 3 652 6 view .LVU175
	testq	%r12, %r12
	je	.L36
	.loc 3 653 5 is_stmt 1 view .LVU176
.LVL70:
	.loc 3 655 3 view .LVU177
	.loc 3 655 11 is_stmt 0 view .LVU178
	call	dcgettext@PLT
.LVL71:
.LBB109:
.LBB110:
	.loc 2 107 10 view .LVU179
	leaq	.LC28(%rip), %rcx
	leaq	.LC29(%rip), %rdx
	movl	$1, %edi
.LBE110:
.LBE109:
	.loc 3 655 11 view .LVU180
	movq	%rax, %rsi
.LVL72:
.LBB114:
.LBI109:
	.loc 2 105 1 is_stmt 1 view .LVU181
.LBB111:
	.loc 2 107 3 view .LVU182
	.loc 2 107 10 is_stmt 0 view .LVU183
	xorl	%eax, %eax
.LVL73:
	.loc 2 107 10 view .LVU184
	leaq	.LC4(%rip), %r13
	call	__printf_chk@PLT
.LVL74:
	.loc 2 107 10 view .LVU185
.LBE111:
.LBE114:
	.loc 3 659 3 is_stmt 1 view .LVU186
	.loc 3 659 29 is_stmt 0 view .LVU187
	movl	$5, %edi
	xorl	%esi, %esi
	call	setlocale@PLT
.LVL75:
	movq	%rax, %rdi
.LVL76:
	.loc 3 660 3 is_stmt 1 view .LVU188
	.loc 3 660 6 is_stmt 0 view .LVU189
	testq	%rax, %rax
	je	.L37
	.loc 3 660 22 view .LVU190
	movl	$3, %edx
	leaq	.LC30(%rip), %rsi
	call	strncmp@PLT
.LVL77:
	.loc 3 660 19 view .LVU191
	testl	%eax, %eax
	jne	.L40
.LVL78:
.L37:
	.loc 3 669 3 is_stmt 1 view .LVU192
	.loc 3 669 11 is_stmt 0 view .LVU193
	xorl	%edi, %edi
	movl	$5, %edx
	leaq	.LC32(%rip), %rsi
	call	dcgettext@PLT
.LVL79:
.LBB115:
.LBB116:
	.loc 2 107 10 view .LVU194
	leaq	.LC4(%rip), %rcx
	movl	$1, %edi
	leaq	.LC28(%rip), %rdx
.LBE116:
.LBE115:
	.loc 3 669 11 view .LVU195
	movq	%rax, %rsi
.LVL80:
.LBB121:
.LBI115:
	.loc 2 105 1 is_stmt 1 view .LVU196
.LBB117:
	.loc 2 107 3 view .LVU197
	.loc 2 107 10 is_stmt 0 view .LVU198
	xorl	%eax, %eax
.LVL81:
	.loc 2 107 10 view .LVU199
	call	__printf_chk@PLT
.LVL82:
	.loc 2 107 10 view .LVU200
.LBE117:
.LBE121:
	.loc 3 671 3 is_stmt 1 view .LVU201
	cmpq	%r13, %r12
	leaq	.LC6(%rip), %rcx
	leaq	.LC5(%rip), %r13
	cmovne	%rcx, %r13
.L38:
	.loc 3 671 11 is_stmt 0 view .LVU202
	xorl	%edi, %edi
	leaq	.LC33(%rip), %rsi
	movl	$5, %edx
	call	dcgettext@PLT
.LVL83:
.LBB122:
.LBB123:
	.loc 2 107 10 view .LVU203
	movq	%r13, %rcx
	movq	%r12, %rdx
	movl	$1, %edi
.LBE123:
.LBE122:
	.loc 3 671 11 view .LVU204
	movq	%rax, %rsi
.LVL84:
.LBB125:
.LBI122:
	.loc 2 105 1 is_stmt 1 view .LVU205
.LBB124:
	.loc 2 107 3 view .LVU206
	.loc 2 107 10 is_stmt 0 view .LVU207
	xorl	%eax, %eax
.LVL85:
	.loc 2 107 10 view .LVU208
	call	__printf_chk@PLT
.LVL86:
	.loc 2 107 10 view .LVU209
.LBE124:
.LBE125:
	.loc 3 673 1 view .LVU210
	jmp	.L32
.LVL87:
.L36:
	.loc 3 655 3 is_stmt 1 view .LVU211
	.loc 3 655 11 is_stmt 0 view .LVU212
	call	dcgettext@PLT
.LVL88:
.LBB126:
.LBB112:
	.loc 2 107 10 view .LVU213
	leaq	.LC28(%rip), %rcx
	movl	$1, %edi
	leaq	.LC29(%rip), %rdx
.LBE112:
.LBE126:
	.loc 3 655 11 view .LVU214
	movq	%rax, %rsi
.LVL89:
.LBB127:
	.loc 2 105 1 is_stmt 1 view .LVU215
.LBB113:
	.loc 2 107 3 view .LVU216
	.loc 2 107 10 is_stmt 0 view .LVU217
	xorl	%eax, %eax
.LVL90:
	.loc 2 107 10 view .LVU218
	call	__printf_chk@PLT
.LVL91:
	.loc 2 107 10 view .LVU219
.LBE113:
.LBE127:
	.loc 3 659 3 is_stmt 1 view .LVU220
	.loc 3 659 29 is_stmt 0 view .LVU221
	movl	$5, %edi
	xorl	%esi, %esi
	call	setlocale@PLT
.LVL92:
	movq	%rax, %rdi
.LVL93:
	.loc 3 660 3 is_stmt 1 view .LVU222
	.loc 3 660 6 is_stmt 0 view .LVU223
	testq	%rax, %rax
	je	.L39
	.loc 3 660 22 view .LVU224
	movl	$3, %edx
	leaq	.LC30(%rip), %rsi
	call	strncmp@PLT
.LVL94:
	.loc 3 660 19 view .LVU225
	testl	%eax, %eax
	jne	.L58
.L39:
	.loc 3 669 3 is_stmt 1 view .LVU226
	.loc 3 669 11 is_stmt 0 view .LVU227
	movl	$5, %edx
	leaq	.LC32(%rip), %rsi
	xorl	%edi, %edi
	call	dcgettext@PLT
.LVL95:
.LBB128:
.LBB118:
	.loc 2 107 10 view .LVU228
	leaq	.LC4(%rip), %rcx
	leaq	.LC28(%rip), %rdx
	movl	$1, %edi
.LBE118:
.LBE128:
	.loc 3 669 11 view .LVU229
	movq	%rax, %rsi
.LVL96:
.LBB129:
	.loc 2 105 1 is_stmt 1 view .LVU230
.LBB119:
	.loc 2 107 3 view .LVU231
	.loc 2 107 10 is_stmt 0 view .LVU232
	xorl	%eax, %eax
.LVL97:
	.loc 2 107 10 view .LVU233
.LBE119:
.LBE129:
	.loc 3 646 15 view .LVU234
	leaq	.LC4(%rip), %r12
.LBB130:
.LBB120:
	.loc 2 107 10 view .LVU235
	call	__printf_chk@PLT
.LVL98:
	.loc 2 107 10 view .LVU236
.LBE120:
.LBE130:
	.loc 3 671 3 is_stmt 1 view .LVU237
	leaq	.LC5(%rip), %r13
	jmp	.L38
.L58:
	.loc 3 646 15 is_stmt 0 view .LVU238
	leaq	.LC4(%rip), %r13
	movq	%r13, %r12
.LVL99:
.L40:
	.loc 3 666 7 is_stmt 1 view .LVU239
	movq	stdout(%rip), %r14
	xorl	%edi, %edi
	movl	$5, %edx
	leaq	.LC31(%rip), %rsi
	call	dcgettext@PLT
.LVL100:
	movq	%rax, %rdi
	movq	%r14, %rsi
	call	fputs_unlocked@PLT
.LVL101:
	jmp	.L37
.LBE108:
.LBE107:
	.cfi_endproc
.LFE142:
	.size	usage, .-usage
	.section	.rodata.str1.1
.LC34:
	.string	"/usr/local/share/locale"
	.section	.rodata.str1.8
	.align 8
.LC35:
	.string	"multiple target directories specified"
	.section	.rodata.str1.1
.LC36:
	.string	"failed to access %s"
.LC37:
	.string	"target %s is not a directory"
.LC38:
	.string	"warning: ignoring --context"
.LC39:
	.string	"David MacKenzie"
.LC40:
	.string	"Mike Parker"
.LC41:
	.string	"Jim Meyering"
.LC42:
	.string	"bfint:uvS:TZ"
.LC43:
	.string	"missing file operand"
	.section	.rodata.str1.8
	.align 8
.LC44:
	.string	"missing destination file operand after %s"
	.align 8
.LC45:
	.string	"cannot combine --target-directory (-t) and --no-target-directory (-T)"
	.section	.rodata.str1.1
.LC46:
	.string	"extra operand %s"
.LC47:
	.string	"2 <= n_files"
	.section	.rodata.str1.8
	.align 8
.LC48:
	.string	"options --backup and --no-clobber are mutually exclusive"
	.section	.rodata.str1.1
.LC49:
	.string	"backup type"
	.section	.text.startup,"ax",@progbits
	.p2align 4
	.globl	main
	.type	main, @function
main:
.LVL102:
.LFB143:
	.loc 1 338 1 view -0
	.cfi_startproc
	.loc 1 338 1 is_stmt 0 view .LVU241
	endbr64
	pushq	%r15
	.cfi_def_cfa_offset 16
	.cfi_offset 15, -16
	pushq	%r14
	.cfi_def_cfa_offset 24
	.cfi_offset 14, -24
	pushq	%r13
	.cfi_def_cfa_offset 32
	.cfi_offset 13, -32
	pushq	%r12
	.cfi_def_cfa_offset 40
	.cfi_offset 12, -40
	movl	%edi, %r12d
	pushq	%rbp
	.cfi_def_cfa_offset 48
	.cfi_offset 6, -48
	movq	%rsi, %rbp
	pushq	%rbx
	.cfi_def_cfa_offset 56
	.cfi_offset 3, -56
	subq	$312, %rsp
	.cfi_def_cfa_offset 368
	.loc 1 338 1 view .LVU242
	movq	%fs:40, %rax
	movq	%rax, 296(%rsp)
	xorl	%eax, %eax
	.loc 1 339 3 is_stmt 1 view .LVU243
	.loc 1 340 3 view .LVU244
	.loc 1 341 3 view .LVU245
.LVL103:
	.loc 1 342 3 view .LVU246
	.loc 1 343 3 view .LVU247
	.loc 1 344 3 view .LVU248
	.loc 1 345 3 view .LVU249
	.loc 1 346 3 view .LVU250
	.loc 1 347 3 view .LVU251
	.loc 1 348 3 view .LVU252
	.loc 1 349 3 view .LVU253
.LBB149:
.LBB150:
	.loc 1 111 3 is_stmt 0 view .LVU254
	leaq	48(%rsp), %r15
.LBE150:
.LBE149:
	.loc 1 349 31 view .LVU255
	call	is_selinux_enabled@PLT
.LVL104:
	.loc 1 352 3 view .LVU256
	movq	0(%rbp), %rdi
	.loc 1 349 31 view .LVU257
	movl	%eax, 36(%rsp)
.LVL105:
	.loc 1 351 33 is_stmt 1 view .LVU258
	.loc 1 352 3 view .LVU259
	call	set_program_name@PLT
.LVL106:
	.loc 1 353 3 view .LVU260
	leaq	.LC6(%rip), %rsi
	movl	$6, %edi
	call	setlocale@PLT
.LVL107:
	.loc 1 354 3 view .LVU261
	leaq	.LC34(%rip), %rsi
	leaq	.LC20(%rip), %rdi
	call	bindtextdomain@PLT
.LVL108:
	.loc 1 355 3 view .LVU262
	leaq	.LC20(%rip), %rdi
	call	textdomain@PLT
.LVL109:
	.loc 1 357 3 view .LVU263
	movq	close_stdin@GOTPCREL(%rip), %rdi
	call	atexit@PLT
.LVL110:
	.loc 1 359 3 view .LVU264
.LBB154:
.LBI149:
	.loc 1 107 1 view .LVU265
.LBB151:
	.loc 1 109 3 view .LVU266
	.loc 1 109 31 is_stmt 0 view .LVU267
	call	is_selinux_enabled@PLT
.LVL111:
	.loc 1 111 3 view .LVU268
	movq	%r15, %rdi
	.loc 1 109 31 view .LVU269
	movl	%eax, %ebx
.LVL112:
	.loc 1 111 3 is_stmt 1 view .LVU270
	call	cp_options_default@PLT
.LVL113:
	.loc 1 112 3 view .LVU271
	.loc 1 113 3 view .LVU272
	.loc 1 109 8 is_stmt 0 view .LVU273
	testl	%ebx, %ebx
	.loc 1 123 21 view .LVU274
	movl	$257, %edx
	.loc 1 135 16 view .LVU275
	movl	$1, %ecx
	.loc 1 127 32 view .LVU276
	setg	99(%rsp)
	.loc 1 119 16 view .LVU277
	movl	$1, %esi
	.loc 1 140 18 view .LVU278
	xorl	%edi, %edi
	.loc 1 118 18 view .LVU279
	movabsq	$8589934596, %rax
	.loc 1 113 19 view .LVU280
	movl	$1, 116(%rsp)
	.loc 1 114 3 is_stmt 1 view .LVU281
	.loc 1 115 3 view .LVU282
	.loc 1 116 3 view .LVU283
	.loc 1 117 3 view .LVU284
	.loc 1 118 3 view .LVU285
	.loc 1 119 3 view .LVU286
	.loc 1 120 3 view .LVU287
	.loc 1 121 3 view .LVU288
	.loc 1 122 3 view .LVU289
	.loc 1 123 3 view .LVU290
	.loc 1 124 3 view .LVU291
	.loc 1 125 3 view .LVU292
	.loc 1 126 3 view .LVU293
	leaq	.L66(%rip), %rbx
.LVL114:
	.loc 1 121 22 is_stmt 0 view .LVU294
	movl	$16843008, 76(%rsp)
	.loc 1 126 31 view .LVU295
	movb	$0, 80(%rsp)
	.loc 1 127 3 is_stmt 1 view .LVU296
	.loc 1 128 3 view .LVU297
	.loc 1 129 3 view .LVU298
	.loc 1 130 3 view .LVU299
	.loc 1 131 3 view .LVU300
	.loc 1 128 27 is_stmt 0 view .LVU301
	movq	$0, 88(%rsp)
	.loc 1 123 21 view .LVU302
	movw	%dx, 96(%rsp)
	.loc 1 131 23 view .LVU303
	movb	$0, 98(%rsp)
	.loc 1 132 3 is_stmt 1 view .LVU304
	.loc 1 133 3 view .LVU305
	.loc 1 134 3 view .LVU306
	.loc 1 135 3 view .LVU307
	.loc 1 136 3 view .LVU308
	.loc 1 137 3 view .LVU309
	.loc 1 138 3 view .LVU310
	.loc 1 132 31 is_stmt 0 view .LVU311
	movl	$256, 100(%rsp)
	.loc 1 135 16 view .LVU312
	movw	%cx, 104(%rsp)
	.loc 1 137 20 view .LVU313
	movb	$0, 106(%rsp)
	.loc 1 139 3 is_stmt 1 view .LVU314
	.loc 1 114 18 is_stmt 0 view .LVU315
	movl	$2, 52(%rsp)
	.loc 1 118 18 view .LVU316
	movq	%rax, 56(%rsp)
	.loc 1 139 11 view .LVU317
	movq	$0, 64(%rsp)
	.loc 1 119 16 view .LVU318
	movw	%si, 72(%rsp)
	.loc 1 140 3 is_stmt 1 view .LVU319
	.loc 1 140 18 is_stmt 0 view .LVU320
	call	isatty@PLT
.LVL115:
	.loc 1 142 33 view .LVU321
	movb	$0, 110(%rsp)
	.loc 1 140 18 view .LVU322
	testl	%eax, %eax
.LBE151:
.LBE154:
	.loc 1 341 8 view .LVU323
	movb	$0, 8(%rsp)
.LBB155:
.LBB152:
	.loc 1 140 16 view .LVU324
	setne	109(%rsp)
	.loc 1 142 3 is_stmt 1 view .LVU325
	.loc 1 143 3 view .LVU326
	.loc 1 144 3 view .LVU327
	.loc 1 143 13 is_stmt 0 view .LVU328
	xorl	%edi, %edi
.LBE152:
.LBE155:
	.loc 1 346 8 view .LVU329
	xorl	%r13d, %r13d
	.loc 1 345 9 view .LVU330
	xorl	%r14d, %r14d
.LBB156:
.LBB153:
	.loc 1 143 13 view .LVU331
	movw	%di, 107(%rsp)
	.loc 1 145 3 is_stmt 1 view .LVU332
	.loc 1 145 16 is_stmt 0 view .LVU333
	movq	$0, 120(%rsp)
	.loc 1 146 3 is_stmt 1 view .LVU334
	.loc 1 146 15 is_stmt 0 view .LVU335
	movq	$0, 128(%rsp)
.LBE153:
.LBE156:
	.loc 1 343 9 view .LVU336
	movq	$0, 16(%rsp)
	.loc 1 342 15 view .LVU337
	movq	$0, 24(%rsp)
.LVL116:
.L60:
	.loc 1 364 9 is_stmt 1 view .LVU338
	.loc 1 364 15 is_stmt 0 view .LVU339
	xorl	%r8d, %r8d
	leaq	long_options(%rip), %rcx
	movq	%rbp, %rsi
	movl	%r12d, %edi
	leaq	.LC42(%rip), %rdx
	call	getopt_long@PLT
.LVL117:
	.loc 1 364 9 view .LVU340
	cmpl	$-1, %eax
	je	.L126
	.loc 1 367 7 is_stmt 1 view .LVU341
	cmpl	$128, %eax
	jg	.L124
	cmpl	$82, %eax
	jle	.L127
	subl	$83, %eax
.LVL118:
	.loc 1 367 7 is_stmt 0 view .LVU342
	cmpl	$45, %eax
	ja	.L124
	movslq	(%rbx,%rax,4), %rax
	addq	%rbx, %rax
	notrack jmp	*%rax
	.section	.rodata
	.align 4
	.align 4
.L66:
	.long	.L76-.L66
	.long	.L109-.L66
	.long	.L124-.L66
	.long	.L124-.L66
	.long	.L124-.L66
	.long	.L124-.L66
	.long	.L124-.L66
	.long	.L74-.L66
	.long	.L124-.L66
	.long	.L124-.L66
	.long	.L124-.L66
	.long	.L124-.L66
	.long	.L124-.L66
	.long	.L124-.L66
	.long	.L124-.L66
	.long	.L73-.L66
	.long	.L124-.L66
	.long	.L124-.L66
	.long	.L124-.L66
	.long	.L72-.L66
	.long	.L124-.L66
	.long	.L124-.L66
	.long	.L71-.L66
	.long	.L124-.L66
	.long	.L124-.L66
	.long	.L124-.L66
	.long	.L124-.L66
	.long	.L70-.L66
	.long	.L124-.L66
	.long	.L124-.L66
	.long	.L124-.L66
	.long	.L124-.L66
	.long	.L124-.L66
	.long	.L69-.L66
	.long	.L68-.L66
	.long	.L67-.L66
	.long	.L124-.L66
	.long	.L124-.L66
	.long	.L124-.L66
	.long	.L124-.L66
	.long	.L124-.L66
	.long	.L124-.L66
	.long	.L124-.L66
	.long	.L124-.L66
	.long	.L124-.L66
	.long	.L65-.L66
	.section	.text.startup
.L109:
	movl	$1, %r13d
.LVL119:
	.loc 1 367 7 view .LVU343
	jmp	.L60
.LVL120:
.L76:
	.loc 1 411 11 is_stmt 1 view .LVU344
	.loc 1 412 11 view .LVU345
	.loc 1 412 25 is_stmt 0 view .LVU346
	movq	optarg(%rip), %rax
	.loc 1 411 24 view .LVU347
	movb	$1, 8(%rsp)
	.loc 1 412 25 view .LVU348
	movq	%rax, 24(%rsp)
.LVL121:
	.loc 1 413 11 is_stmt 1 view .LVU349
	jmp	.L60
.LVL122:
.L65:
	.loc 1 384 11 view .LVU350
	.loc 1 384 35 is_stmt 0 view .LVU351
	movb	$1, remove_trailing_slashes(%rip)
	.loc 1 385 11 is_stmt 1 view .LVU352
	jmp	.L60
.L67:
	.loc 1 408 11 view .LVU353
	.loc 1 408 21 is_stmt 0 view .LVU354
	movb	$1, 108(%rsp)
	.loc 1 409 11 is_stmt 1 view .LVU355
	jmp	.L60
.L68:
	.loc 1 405 11 view .LVU356
	.loc 1 405 20 is_stmt 0 view .LVU357
	movb	$1, 107(%rsp)
	.loc 1 406 11 is_stmt 1 view .LVU358
	jmp	.L60
.L69:
	.loc 1 387 11 view .LVU359
	.loc 1 387 14 is_stmt 0 view .LVU360
	testq	%r14, %r14
	jne	.L128
.LBB157:
	.loc 1 391 15 is_stmt 1 view .LVU361
	.loc 1 392 15 view .LVU362
.LVL123:
.LBB158:
.LBI158:
	.file 4 "/usr/include/x86_64-linux-gnu/sys/stat.h"
	.loc 4 453 1 view .LVU363
.LBB159:
	.loc 4 455 3 view .LVU364
	.loc 4 455 10 is_stmt 0 view .LVU365
	movq	optarg(%rip), %rsi
	leaq	144(%rsp), %rdx
.LVL124:
	.loc 4 455 10 view .LVU366
	movl	$1, %edi
	call	__xstat@PLT
.LVL125:
	.loc 4 455 10 view .LVU367
.LBE159:
.LBE158:
	.loc 1 392 18 view .LVU368
	testl	%eax, %eax
	jne	.L129
	.loc 1 395 15 is_stmt 1 view .LVU369
	.loc 1 395 21 is_stmt 0 view .LVU370
	movl	168(%rsp), %eax
	movq	optarg(%rip), %r14
.LVL126:
	.loc 1 395 21 view .LVU371
	andl	$61440, %eax
	.loc 1 395 18 view .LVU372
	cmpl	$16384, %eax
	je	.L60
.LBB160:
	.loc 1 396 17 is_stmt 1 view .LVU373
	movq	%r14, %rsi
	movl	$4, %edi
	call	quotearg_style@PLT
.LVL127:
	movl	$5, %edx
	leaq	.LC37(%rip), %rsi
	xorl	%edi, %edi
	movq	%rax, %r12
.LVL128:
	.loc 1 396 17 is_stmt 0 view .LVU374
	call	dcgettext@PLT
.LVL129:
	movq	%r12, %rcx
	xorl	%esi, %esi
	movl	$1, %edi
	movq	%rax, %rdx
	xorl	%eax, %eax
	call	error@PLT
.LVL130:
.L70:
	.loc 1 396 17 view .LVU375
.LBE160:
.LBE157:
	.loc 1 381 11 is_stmt 1 view .LVU376
	.loc 1 381 25 is_stmt 0 view .LVU377
	movl	$2, 56(%rsp)
	.loc 1 382 11 is_stmt 1 view .LVU378
	jmp	.L60
.L71:
	.loc 1 378 11 view .LVU379
	.loc 1 378 25 is_stmt 0 view .LVU380
	movl	$3, 56(%rsp)
	.loc 1 379 11 is_stmt 1 view .LVU381
	jmp	.L60
.L72:
	.loc 1 375 11 view .LVU382
	.loc 1 375 25 is_stmt 0 view .LVU383
	movl	$1, 56(%rsp)
	.loc 1 376 11 is_stmt 1 view .LVU384
	jmp	.L60
.L73:
	.loc 1 370 11 view .LVU385
.LVL131:
	.loc 1 371 11 view .LVU386
	.loc 1 371 15 is_stmt 0 view .LVU387
	movq	optarg(%rip), %rax
	.loc 1 371 14 view .LVU388
	movb	$1, 8(%rsp)
	testq	%rax, %rax
	cmove	16(%rsp), %rax
	movq	%rax, 16(%rsp)
.LVL132:
	.loc 1 371 14 view .LVU389
	jmp	.L60
.LVL133:
.L74:
	.loc 1 417 11 is_stmt 1 view .LVU390
	.loc 1 417 14 is_stmt 0 view .LVU391
	movl	36(%rsp), %eax
	testl	%eax, %eax
	jle	.L60
	.loc 1 419 15 is_stmt 1 view .LVU392
	.loc 1 420 40 is_stmt 0 view .LVU393
	xorl	%edx, %edx
	xorl	%esi, %esi
	xorl	%edi, %edi
	.loc 1 419 43 view .LVU394
	movb	$0, 99(%rsp)
	.loc 1 420 15 is_stmt 1 view .LVU395
	.loc 1 420 40 is_stmt 0 view .LVU396
	call	selabel_open@PLT
.LVL134:
	.loc 1 420 38 view .LVU397
	movq	%rax, 88(%rsp)
	.loc 1 421 15 is_stmt 1 view .LVU398
	.loc 1 421 18 is_stmt 0 view .LVU399
	testq	%rax, %rax
	jne	.L60
	.loc 1 422 17 is_stmt 1 view .LVU400
	.loc 1 422 34 is_stmt 0 view .LVU401
	xorl	%edi, %edi
	movl	$5, %edx
	leaq	.LC38(%rip), %rsi
	call	dcgettext@PLT
.LVL135:
	movq	%rax, 40(%rsp)
	.loc 1 422 27 view .LVU402
	call	__errno_location@PLT
.LVL136:
	.loc 1 422 17 view .LVU403
	movq	40(%rsp), %rdx
	xorl	%edi, %edi
	movl	(%rax), %esi
	xorl	%eax, %eax
	call	error@PLT
.LVL137:
	jmp	.L60
.LVL138:
	.p2align 4,,10
	.p2align 3
.L127:
	.loc 1 367 7 view .LVU404
	cmpl	$-131, %eax
	jne	.L130
	.loc 1 425 9 is_stmt 1 view .LVU405
	.loc 1 425 30 view .LVU406
	.loc 1 426 9 view .LVU407
	leaq	.LC41(%rip), %rax
.LVL139:
	.loc 1 426 9 is_stmt 0 view .LVU408
	pushq	$0
	.cfi_remember_state
	.cfi_def_cfa_offset 376
	movq	stdout(%rip), %rdi
	leaq	.LC39(%rip), %r9
	pushq	%rax
	.cfi_def_cfa_offset 384
	movq	Version(%rip), %rcx
	xorl	%eax, %eax
	leaq	.LC40(%rip), %r8
	leaq	.LC29(%rip), %rdx
	leaq	.LC4(%rip), %rsi
	call	version_etc@PLT
.LVL140:
	.loc 1 426 9 is_stmt 1 view .LVU409
	xorl	%edi, %edi
	call	exit@PLT
.LVL141:
.L130:
	.cfi_restore_state
	.loc 1 367 7 is_stmt 0 view .LVU410
	cmpl	$-130, %eax
	jne	.L124
	.loc 1 425 9 is_stmt 1 view .LVU411
	xorl	%edi, %edi
	call	usage
.LVL142:
.L126:
	.loc 1 432 3 view .LVU412
	.loc 1 432 18 is_stmt 0 view .LVU413
	movslq	optind(%rip), %rax
.LVL143:
	.loc 1 432 11 view .LVU414
	subl	%eax, %r12d
.LVL144:
	.loc 1 433 3 is_stmt 1 view .LVU415
	.loc 1 433 8 is_stmt 0 view .LVU416
	leaq	0(%rbp,%rax,8), %rbx
.LVL145:
	.loc 1 435 3 is_stmt 1 view .LVU417
	.loc 1 435 18 is_stmt 0 view .LVU418
	xorl	%eax, %eax
	testq	%r14, %r14
	sete	%al
	.loc 1 435 6 view .LVU419
	cmpl	%r12d, %eax
	jge	.L131
	.loc 1 445 3 is_stmt 1 view .LVU420
	.loc 1 445 6 is_stmt 0 view .LVU421
	testb	%r13b, %r13b
	je	.L84
	.loc 1 447 7 is_stmt 1 view .LVU422
	.loc 1 447 10 is_stmt 0 view .LVU423
	testq	%r14, %r14
	jne	.L132
	.loc 1 451 7 is_stmt 1 view .LVU424
	.loc 1 451 10 is_stmt 0 view .LVU425
	cmpl	$2, %r12d
	jg	.L133
.LVL146:
.L86:
	.loc 1 474 3 is_stmt 1 view .LVU426
	.loc 1 474 6 is_stmt 0 view .LVU427
	cmpl	$2, 56(%rsp)
	je	.L134
	.loc 1 477 3 is_stmt 1 view .LVU428
	.loc 1 477 6 is_stmt 0 view .LVU429
	cmpb	$0, 8(%rsp)
	je	.L100
	.loc 1 484 3 is_stmt 1 view .LVU430
	.loc 1 485 36 is_stmt 0 view .LVU431
	leaq	.LC49(%rip), %rsi
	xorl	%edi, %edi
	movl	$5, %edx
	call	dcgettext@PLT
.LVL147:
	.loc 1 485 22 view .LVU432
	movq	16(%rsp), %rsi
	.loc 1 485 36 view .LVU433
	movq	%rax, %rdi
	.loc 1 485 22 view .LVU434
	call	xget_version@PLT
.LVL148:
.L98:
	.loc 1 488 3 view .LVU435
	movq	24(%rsp), %rdi
	.loc 1 484 17 view .LVU436
	movl	%eax, 48(%rsp)
	.loc 1 488 3 is_stmt 1 view .LVU437
	call	set_simple_backup_suffix@PLT
.LVL149:
	.loc 1 490 3 view .LVU438
	call	hash_init@PLT
.LVL150:
	.loc 1 492 3 view .LVU439
	.loc 1 492 6 is_stmt 0 view .LVU440
	testq	%r14, %r14
	je	.L101
	.loc 1 497 7 is_stmt 1 view .LVU441
	.loc 1 497 10 is_stmt 0 view .LVU442
	cmpl	$1, %r12d
	je	.L102
	.loc 1 498 9 is_stmt 1 view .LVU443
	leal	-1(%r12), %r13d
	movq	%r15, %rdi
	movl	$1, %ebp
	call	dest_info_init@PLT
.LVL151:
	leaq	2(%r13), %rax
	movl	$1, %r13d
	movq	%rax, 8(%rsp)
.LVL152:
	.p2align 4,,10
	.p2align 3
.L103:
.LBB162:
	.loc 1 503 11 discriminator 3 view .LVU444
	.loc 1 504 17 is_stmt 0 discriminator 3 view .LVU445
	movq	-8(%rbx,%r13,8), %rdi
	.loc 1 503 31 discriminator 3 view .LVU446
	cmpl	%r13d, %r12d
	.loc 1 504 17 discriminator 3 view .LVU447
	movq	%r15, %rcx
	movl	$1, %edx
	movq	%r14, %rsi
	.loc 1 503 23 discriminator 3 view .LVU448
	sete	111(%rsp)
	.loc 1 504 11 is_stmt 1 discriminator 3 view .LVU449
	addq	$1, %r13
.LVL153:
	.loc 1 504 17 is_stmt 0 discriminator 3 view .LVU450
	call	movefile
.LVL154:
	andl	%eax, %ebp
.LVL155:
	.loc 1 501 36 is_stmt 1 discriminator 3 view .LVU451
	.loc 1 501 23 discriminator 3 view .LVU452
	.loc 1 501 7 is_stmt 0 discriminator 3 view .LVU453
	cmpq	%r13, 8(%rsp)
	jne	.L103
.L104:
	.loc 1 501 7 discriminator 3 view .LVU454
.LBE162:
	.loc 1 513 3 is_stmt 1 view .LVU455
	.loc 1 513 28 is_stmt 0 view .LVU456
	xorl	$1, %ebp
.LVL156:
	.loc 1 514 1 view .LVU457
	movq	296(%rsp), %rcx
	xorq	%fs:40, %rcx
	.loc 1 513 28 view .LVU458
	movzbl	%bpl, %eax
	.loc 1 514 1 view .LVU459
	jne	.L135
	addq	$312, %rsp
	.cfi_remember_state
	.cfi_def_cfa_offset 56
	popq	%rbx
	.cfi_def_cfa_offset 48
.LVL157:
	.loc 1 514 1 view .LVU460
	popq	%rbp
	.cfi_def_cfa_offset 40
	popq	%r12
	.cfi_def_cfa_offset 32
.LVL158:
	.loc 1 514 1 view .LVU461
	popq	%r13
	.cfi_def_cfa_offset 24
	popq	%r14
	.cfi_def_cfa_offset 16
.LVL159:
	.loc 1 514 1 view .LVU462
	popq	%r15
	.cfi_def_cfa_offset 8
	ret
.LVL160:
.L134:
	.cfi_restore_state
	.loc 1 475 5 is_stmt 1 view .LVU463
	.loc 1 477 6 is_stmt 0 view .LVU464
	cmpb	$0, 8(%rsp)
	.loc 1 475 14 view .LVU465
	movb	$0, 107(%rsp)
	.loc 1 477 3 is_stmt 1 view .LVU466
	.loc 1 477 6 is_stmt 0 view .LVU467
	jne	.L97
.L100:
	.loc 1 487 20 view .LVU468
	xorl	%eax, %eax
	jmp	.L98
.LVL161:
.L84:
	.loc 1 457 8 is_stmt 1 view .LVU469
	.loc 1 457 11 is_stmt 0 view .LVU470
	testq	%r14, %r14
	jne	.L86
	.loc 1 459 7 is_stmt 1 view .LVU471
	cmpl	$1, %r12d
	je	.L136
	.loc 1 460 7 view .LVU472
	.loc 1 460 10 is_stmt 0 view .LVU473
	cmpl	$2, %r12d
	je	.L137
	.loc 1 464 7 is_stmt 1 view .LVU474
	.loc 1 464 10 is_stmt 0 view .LVU475
	cmpl	$0, 112(%rsp)
	movslq	%r12d, %rbp
.LVL162:
	.loc 1 464 10 view .LVU476
	je	.L107
.L91:
	.loc 1 464 64 view .LVU477
	movslq	%r12d, %rbp
.LBB163:
.LBB164:
.LBB165:
.LBB166:
	.loc 4 455 10 view .LVU478
	leaq	144(%rsp), %rdx
	movl	$1, %edi
.LBE166:
.LBE165:
.LBE164:
.LBE163:
	.loc 1 464 34 view .LVU479
	movq	-8(%rbx,%rbp,8), %r13
.LVL163:
.LBB173:
.LBI163:
	.loc 1 154 1 is_stmt 1 view .LVU480
.LBB170:
	.loc 1 156 3 view .LVU481
	.loc 1 157 3 view .LVU482
.LBB168:
.LBI165:
	.loc 4 453 1 view .LVU483
.LBB167:
	.loc 4 455 3 view .LVU484
	.loc 4 455 10 is_stmt 0 view .LVU485
	movq	%r13, %rsi
	call	__xstat@PLT
.LVL164:
	.loc 4 455 10 view .LVU486
.LBE167:
.LBE168:
	.loc 1 157 40 view .LVU487
	testl	%eax, %eax
	je	.L92
	.loc 1 157 42 view .LVU488
	call	__errno_location@PLT
.LVL165:
	.loc 1 157 40 view .LVU489
	movl	(%rax), %r8d
.LVL166:
	.loc 1 158 3 is_stmt 1 view .LVU490
	.loc 1 158 24 is_stmt 0 view .LVU491
	testl	%r8d, %r8d
	je	.L92
.LVL167:
	.loc 1 159 3 is_stmt 1 view .LVU492
	.loc 1 159 6 is_stmt 0 view .LVU493
	cmpl	$2, %r8d
	jne	.L138
.LVL168:
.L95:
	.loc 1 159 6 view .LVU494
.LBE170:
.LBE173:
	.loc 1 469 12 is_stmt 1 view .LVU495
	.loc 1 469 15 is_stmt 0 view .LVU496
	cmpl	$2, %r12d
	jne	.L107
.L90:
	.loc 1 341 8 view .LVU497
	movl	$2, %r12d
.LVL169:
	.loc 1 341 8 view .LVU498
	jmp	.L86
.LVL170:
.L102:
.LBB174:
	.loc 1 503 11 is_stmt 1 view .LVU499
	.loc 1 504 17 is_stmt 0 view .LVU500
	movq	(%rbx), %rdi
	movq	%r15, %rcx
	movl	$1, %edx
	movq	%r14, %rsi
	.loc 1 503 23 view .LVU501
	movb	$1, 111(%rsp)
	.loc 1 504 11 is_stmt 1 view .LVU502
	.loc 1 504 17 is_stmt 0 view .LVU503
	call	movefile
.LVL171:
	movl	%eax, %ebp
.LVL172:
	.loc 1 501 36 is_stmt 1 view .LVU504
	.loc 1 501 23 view .LVU505
	jmp	.L104
.LVL173:
.L97:
	.loc 1 501 23 is_stmt 0 view .LVU506
.LBE174:
	.loc 1 479 7 is_stmt 1 view .LVU507
	.loc 1 480 14 is_stmt 0 view .LVU508
	movl	$5, %edx
	leaq	.LC48(%rip), %rsi
.LVL174:
.L125:
	.loc 1 480 14 view .LVU509
	xorl	%edi, %edi
	call	dcgettext@PLT
.LVL175:
	.loc 1 479 7 view .LVU510
	xorl	%esi, %esi
	xorl	%edi, %edi
	.loc 1 480 14 view .LVU511
	movq	%rax, %rdx
	.loc 1 479 7 view .LVU512
	xorl	%eax, %eax
	call	error@PLT
.LVL176:
.L124:
	.loc 1 481 7 is_stmt 1 view .LVU513
	movl	$1, %edi
	call	usage
.LVL177:
.L101:
	.loc 1 509 7 view .LVU514
	.loc 1 510 12 is_stmt 0 view .LVU515
	movq	8(%rbx), %rsi
	movq	(%rbx), %rdi
	movq	%r15, %rcx
	xorl	%edx, %edx
	.loc 1 509 19 view .LVU516
	movb	$1, 111(%rsp)
	.loc 1 510 7 is_stmt 1 view .LVU517
	.loc 1 510 12 is_stmt 0 view .LVU518
	call	movefile
.LVL178:
	movl	%eax, %ebp
.LVL179:
	.loc 1 510 12 view .LVU519
	jmp	.L104
.LVL180:
.L92:
.LBB175:
.LBB171:
	.loc 1 158 27 view .LVU520
	movl	168(%rsp), %eax
	andl	$61440, %eax
.LVL181:
	.loc 1 159 3 is_stmt 1 view .LVU521
	.loc 1 161 3 view .LVU522
	.loc 1 161 3 is_stmt 0 view .LVU523
.LBE171:
.LBE175:
	.loc 1 464 31 view .LVU524
	cmpl	$16384, %eax
	jne	.L95
	.loc 1 466 11 is_stmt 1 view .LVU525
	.loc 1 467 28 is_stmt 0 view .LVU526
	subl	$1, %r12d
.LVL182:
	.loc 1 466 26 view .LVU527
	movl	$-1, 112(%rsp)
	.loc 1 467 11 is_stmt 1 view .LVU528
.LVL183:
	.loc 1 467 35 is_stmt 0 view .LVU529
	movslq	%r12d, %rax
	.loc 1 467 28 view .LVU530
	movq	(%rbx,%rax,8), %r14
.LVL184:
	.loc 1 467 28 view .LVU531
	jmp	.L86
.LVL185:
.L137:
	.loc 1 461 9 is_stmt 1 view .LVU532
	.loc 1 461 27 is_stmt 0 view .LVU533
	movq	8(%rbx), %rcx
	movq	(%rbx), %rsi
	movl	$1, %r8d
	movl	$-100, %edx
	movl	$-100, %edi
	call	renameatu@PLT
.LVL186:
	.loc 1 463 35 view .LVU534
	testl	%eax, %eax
	jne	.L89
	.loc 1 461 24 view .LVU535
	movl	$0, 112(%rsp)
	.loc 1 464 7 is_stmt 1 view .LVU536
	jmp	.L90
.L89:
	.loc 1 463 29 is_stmt 0 discriminator 1 view .LVU537
	call	__errno_location@PLT
.LVL187:
	.loc 1 463 35 discriminator 1 view .LVU538
	movl	(%rax), %eax
	.loc 1 461 24 discriminator 1 view .LVU539
	movl	%eax, 112(%rsp)
	.loc 1 464 7 is_stmt 1 discriminator 1 view .LVU540
	.loc 1 464 10 is_stmt 0 discriminator 1 view .LVU541
	testl	%eax, %eax
	je	.L90
	jmp	.L91
.L136:
	.loc 1 459 7 is_stmt 1 discriminator 1 view .LVU542
	leaq	__PRETTY_FUNCTION__.7950(%rip), %rcx
	movl	$459, %edx
	leaq	.LC2(%rip), %rsi
	leaq	.LC47(%rip), %rdi
	call	__assert_fail@PLT
.LVL188:
.L135:
	.loc 1 514 1 is_stmt 0 view .LVU543
	call	__stack_chk_fail@PLT
.LVL189:
.L107:
.LBB176:
	.loc 1 470 9 is_stmt 1 view .LVU544
	movq	-8(%rbx,%rbp,8), %rsi
	movl	$4, %edi
	call	quotearg_style@PLT
.LVL190:
	movl	$5, %edx
	leaq	.LC37(%rip), %rsi
	xorl	%edi, %edi
	movq	%rax, %r12
.LVL191:
	.loc 1 470 9 is_stmt 0 view .LVU545
	call	dcgettext@PLT
.LVL192:
	movq	%r12, %rcx
	xorl	%esi, %esi
	movl	$1, %edi
	movq	%rax, %rdx
	xorl	%eax, %eax
	call	error@PLT
.LVL193:
.L129:
	.loc 1 470 9 view .LVU546
.LBE176:
.LBB177:
.LBB161:
	.loc 1 393 17 is_stmt 1 view .LVU547
	movq	optarg(%rip), %rsi
	movl	$4, %edi
	call	quotearg_style@PLT
.LVL194:
	movl	$5, %edx
	leaq	.LC36(%rip), %rsi
	xorl	%edi, %edi
	movq	%rax, %r13
.LVL195:
	.loc 1 393 17 is_stmt 0 view .LVU548
	call	dcgettext@PLT
.LVL196:
	movq	%rax, %r12
.LVL197:
	.loc 1 393 17 view .LVU549
	call	__errno_location@PLT
.LVL198:
	movq	%r13, %rcx
	movq	%r12, %rdx
	movl	$1, %edi
	movl	(%rax), %esi
	xorl	%eax, %eax
	call	error@PLT
.LVL199:
.L128:
	.loc 1 393 17 view .LVU550
.LBE161:
.LBE177:
.LBB178:
	.loc 1 388 13 is_stmt 1 view .LVU551
	movl	$5, %edx
	leaq	.LC35(%rip), %rsi
	xorl	%edi, %edi
	call	dcgettext@PLT
.LVL200:
	xorl	%esi, %esi
	movl	$1, %edi
	movq	%rax, %rdx
	xorl	%eax, %eax
	call	error@PLT
.LVL201:
.L132:
	.loc 1 388 13 is_stmt 0 view .LVU552
.LBE178:
.LBB179:
	.loc 1 448 9 is_stmt 1 view .LVU553
	movl	$5, %edx
	leaq	.LC45(%rip), %rsi
	xorl	%edi, %edi
	call	dcgettext@PLT
.LVL202:
	xorl	%esi, %esi
	movl	$1, %edi
	movq	%rax, %rdx
	xorl	%eax, %eax
	call	error@PLT
.LVL203:
.L131:
	.loc 1 448 9 is_stmt 0 view .LVU554
.LBE179:
	.loc 1 437 7 is_stmt 1 view .LVU555
	.loc 1 437 10 is_stmt 0 view .LVU556
	subl	$1, %r12d
.LVL204:
	.loc 1 437 10 view .LVU557
	je	.L82
	.loc 1 438 9 is_stmt 1 view .LVU558
	.loc 1 438 22 is_stmt 0 view .LVU559
	movl	$5, %edx
	leaq	.LC43(%rip), %rsi
	jmp	.L125
.LVL205:
.L133:
	.loc 1 453 11 is_stmt 1 view .LVU560
	movq	16(%rbx), %rsi
	movl	$4, %edi
	call	quotearg_style@PLT
.LVL206:
	.loc 1 453 24 is_stmt 0 view .LVU561
	movl	$5, %edx
	leaq	.LC46(%rip), %rsi
	.loc 1 453 11 view .LVU562
	movq	%rax, %r12
.LVL207:
.L123:
	.loc 1 440 22 view .LVU563
	xorl	%edi, %edi
	call	dcgettext@PLT
.LVL208:
	.loc 1 440 9 view .LVU564
	movq	%r12, %rcx
	xorl	%esi, %esi
	xorl	%edi, %edi
	.loc 1 440 22 view .LVU565
	movq	%rax, %rdx
	.loc 1 440 9 view .LVU566
	xorl	%eax, %eax
	call	error@PLT
.LVL209:
	.loc 1 442 7 is_stmt 1 view .LVU567
	jmp	.L124
.LVL210:
.L138:
.LBB180:
.LBB172:
.LBB169:
	.loc 1 160 5 is_stmt 0 view .LVU568
	movq	%r13, %rsi
	movl	$4, %edi
	movl	%r8d, 8(%rsp)
.LVL211:
	.loc 1 160 5 is_stmt 1 view .LVU569
	call	quotearg_style@PLT
.LVL212:
	.loc 1 160 5 is_stmt 0 view .LVU570
	movl	$5, %edx
	leaq	.LC36(%rip), %rsi
	xorl	%edi, %edi
	movq	%rax, %r12
.LVL213:
	.loc 1 160 5 view .LVU571
	call	dcgettext@PLT
.LVL214:
	movl	8(%rsp), %r8d
	movq	%r12, %rcx
	movl	$1, %edi
	movq	%rax, %rdx
	xorl	%eax, %eax
	movl	%r8d, %esi
	call	error@PLT
.LVL215:
.L82:
	.loc 1 160 5 view .LVU572
.LBE169:
.LBE172:
.LBE180:
	.loc 1 440 9 is_stmt 1 view .LVU573
	movq	(%rbx), %rsi
	movl	$4, %edi
	call	quotearg_style@PLT
.LVL216:
	.loc 1 440 22 is_stmt 0 view .LVU574
	movl	$5, %edx
	leaq	.LC44(%rip), %rsi
	.loc 1 440 9 view .LVU575
	movq	%rax, %r12
	jmp	.L123
	.cfi_endproc
.LFE143:
	.size	main, .-main
	.local	dev_ino_buf.7868
	.comm	dev_ino_buf.7868,16,16
	.section	.rodata
	.align 8
	.type	__PRETTY_FUNCTION__.7895, @object
	.size	__PRETTY_FUNCTION__.7895, 8
__PRETTY_FUNCTION__.7895:
	.string	"do_move"
	.type	__PRETTY_FUNCTION__.7950, @object
	.size	__PRETTY_FUNCTION__.7950, 5
__PRETTY_FUNCTION__.7950:
	.string	"main"
	.section	.rodata.str1.1
.LC50:
	.string	"backup"
.LC51:
	.string	"context"
.LC52:
	.string	"force"
.LC53:
	.string	"interactive"
.LC54:
	.string	"no-clobber"
.LC55:
	.string	"no-target-directory"
.LC56:
	.string	"strip-trailing-slashes"
.LC57:
	.string	"suffix"
.LC58:
	.string	"target-directory"
.LC59:
	.string	"update"
.LC60:
	.string	"verbose"
.LC61:
	.string	"help"
.LC62:
	.string	"version"
	.section	.data.rel.ro.local,"aw"
	.align 32
	.type	long_options, @object
	.size	long_options, 448
long_options:
	.quad	.LC50
	.long	2
	.zero	4
	.quad	0
	.long	98
	.zero	4
	.quad	.LC51
	.long	0
	.zero	4
	.quad	0
	.long	90
	.zero	4
	.quad	.LC52
	.long	0
	.zero	4
	.quad	0
	.long	102
	.zero	4
	.quad	.LC53
	.long	0
	.zero	4
	.quad	0
	.long	105
	.zero	4
	.quad	.LC54
	.long	0
	.zero	4
	.quad	0
	.long	110
	.zero	4
	.quad	.LC55
	.long	0
	.zero	4
	.quad	0
	.long	84
	.zero	4
	.quad	.LC56
	.long	0
	.zero	4
	.quad	0
	.long	128
	.zero	4
	.quad	.LC57
	.long	1
	.zero	4
	.quad	0
	.long	83
	.zero	4
	.quad	.LC58
	.long	1
	.zero	4
	.quad	0
	.long	116
	.zero	4
	.quad	.LC59
	.long	0
	.zero	4
	.quad	0
	.long	117
	.zero	4
	.quad	.LC60
	.long	0
	.zero	4
	.quad	0
	.long	118
	.zero	4
	.quad	.LC61
	.long	0
	.zero	4
	.quad	0
	.long	-130
	.zero	4
	.quad	.LC62
	.long	0
	.zero	4
	.quad	0
	.long	-131
	.zero	4
	.quad	0
	.long	0
	.zero	4
	.quad	0
	.long	0
	.zero	4
	.local	remove_trailing_slashes
	.comm	remove_trailing_slashes,1,1
	.text
.Letext0:
	.file 5 "/usr/lib/gcc/x86_64-linux-gnu/9/include/stddef.h"
	.file 6 "/usr/include/x86_64-linux-gnu/bits/types.h"
	.file 7 "/usr/include/x86_64-linux-gnu/bits/types/struct_FILE.h"
	.file 8 "/usr/include/x86_64-linux-gnu/bits/types/FILE.h"
	.file 9 "/usr/include/stdio.h"
	.file 10 "/usr/include/x86_64-linux-gnu/bits/sys_errlist.h"
	.file 11 "/usr/include/x86_64-linux-gnu/sys/types.h"
	.file 12 "/usr/include/x86_64-linux-gnu/bits/types/time_t.h"
	.file 13 "/usr/include/x86_64-linux-gnu/bits/types/struct_timespec.h"
	.file 14 "./lib/sys/select.h"
	.file 15 "/usr/include/x86_64-linux-gnu/bits/getopt_core.h"
	.file 16 "/usr/include/x86_64-linux-gnu/bits/getopt_ext.h"
	.file 17 "/usr/include/time.h"
	.file 18 "/usr/include/x86_64-linux-gnu/bits/stat.h"
	.file 19 "/usr/include/signal.h"
	.file 20 "/usr/include/unistd.h"
	.file 21 "/usr/include/errno.h"
	.file 22 "src/version.h"
	.file 23 "./lib/exitfail.h"
	.file 24 "./lib/timespec.h"
	.file 25 "./lib/version-etc.h"
	.file 26 "./lib/progname.h"
	.file 27 "./lib/quotearg.h"
	.file 28 "./lib/backupfile.h"
	.file 29 "./lib/hash.h"
	.file 30 "src/copy.h"
	.file 31 "./lib/error.h"
	.file 32 "./lib/dev-ino.h"
	.file 33 "src/remove.h"
	.file 34 "/usr/include/libintl.h"
	.file 35 "/usr/include/selinux/selinux.h"
	.file 36 "/usr/include/locale.h"
	.file 37 "/usr/include/stdlib.h"
	.file 38 "/usr/include/selinux/label.h"
	.file 39 "src/cp-hash.h"
	.file 40 "./lib/renameatu.h"
	.file 41 "/usr/include/assert.h"
	.file 42 "/usr/include/string.h"
	.file 43 "./lib/root-dev-ino.h"
	.file 44 "./lib/basename-lgpl.h"
	.file 45 "./lib/filenamecat.h"
	.file 46 "./lib/dirname.h"
	.file 47 "./lib/priv-set.h"
	.section	.note.GNU-stack,"",@progbits
	.section	.note.gnu.property,"a"
	.align 8
	.long	 1f - 0f
	.long	 4f - 1f
	.long	 5
0:
	.string	 "GNU"
1:
	.align 8
	.long	 0xc0000002
	.long	 3f - 2f
2:
	.long	 0x3
3:
	.align 8
4:
