	.file	"nice.c"
	.text
.Ltext0:
	.section	.rodata.str1.1,"aMS",@progbits,1
.LC0:
	.string	"nice"
.LC1:
	.string	" invocation"
.LC2:
	.string	""
	.section	.rodata.str1.8,"aMS",@progbits,1
	.align 8
.LC3:
	.string	"Try '%s --help' for more information.\n"
	.align 8
.LC4:
	.string	"Usage: %s [OPTION] [COMMAND [ARG]...]\n"
	.align 8
.LC5:
	.string	"Run COMMAND with an adjusted niceness, which affects process scheduling.\nWith no COMMAND, print the current niceness.  Niceness values range from\n%d (most favorable to the process) to %d (least favorable to the process).\n"
	.align 8
.LC6:
	.string	"\nMandatory arguments to long options are mandatory for short options too.\n"
	.align 8
.LC7:
	.string	"  -n, --adjustment=N   add integer N to the niceness (default 10)\n"
	.align 8
.LC8:
	.string	"      --help     display this help and exit\n"
	.align 8
.LC9:
	.string	"      --version  output version information and exit\n"
	.align 8
.LC10:
	.string	"\nNOTE: your shell may have its own version of %s, which usually supersedes\nthe version described here.  Please refer to your shell's documentation\nfor details about the options it supports.\n"
	.section	.rodata.str1.1
.LC11:
	.string	"["
.LC12:
	.string	"test invocation"
.LC13:
	.string	"coreutils"
.LC14:
	.string	"Multi-call invocation"
.LC15:
	.string	"sha224sum"
.LC16:
	.string	"sha2 utilities"
.LC17:
	.string	"sha256sum"
.LC18:
	.string	"sha384sum"
.LC19:
	.string	"sha512sum"
.LC20:
	.string	"\n%s online help: <%s>\n"
	.section	.rodata.str1.8
	.align 8
.LC21:
	.string	"https://www.gnu.org/software/coreutils/"
	.section	.rodata.str1.1
.LC22:
	.string	"GNU coreutils"
.LC23:
	.string	"en_"
	.section	.rodata.str1.8
	.align 8
.LC24:
	.string	"Report any translation bugs to <https://translationproject.org/team/>\n"
	.section	.rodata.str1.1
.LC25:
	.string	"Full documentation <%s%s>\n"
	.section	.rodata.str1.8
	.align 8
.LC26:
	.string	"or available locally via: info '(coreutils) %s%s'\n"
	.text
	.p2align 4
	.globl	usage
	.type	usage, @function
usage:
.LVL0:
.LFB135:
	.file 1 "src/nice.c"
	.loc 1 68 1 view -0
	.cfi_startproc
	.loc 1 68 1 is_stmt 0 view .LVU1
	endbr64
	pushq	%r13
	.cfi_def_cfa_offset 16
	.cfi_offset 13, -16
	.loc 1 70 5 view .LVU2
	movl	$5, %edx
	.loc 1 68 1 view .LVU3
	pushq	%r12
	.cfi_def_cfa_offset 24
	.cfi_offset 12, -24
	pushq	%rbp
	.cfi_def_cfa_offset 32
	.cfi_offset 6, -32
	movl	%edi, %ebp
	pushq	%rbx
	.cfi_def_cfa_offset 40
	.cfi_offset 3, -40
	subq	$136, %rsp
	.cfi_def_cfa_offset 176
	movq	program_name(%rip), %r12
	.loc 1 68 1 view .LVU4
	movq	%fs:40, %rax
	movq	%rax, 120(%rsp)
	xorl	%eax, %eax
	.loc 1 69 3 is_stmt 1 view .LVU5
	.loc 1 69 6 is_stmt 0 view .LVU6
	testl	%edi, %edi
	je	.L2
	.loc 1 70 5 is_stmt 1 view .LVU7
	.loc 1 70 5 view .LVU8
	leaq	.LC3(%rip), %rsi
	xorl	%edi, %edi
.LVL1:
	.loc 1 70 5 is_stmt 0 view .LVU9
	call	dcgettext@PLT
.LVL2:
.LBB64:
.LBB65:
	.file 2 "/usr/include/x86_64-linux-gnu/bits/stdio2.h"
	.loc 2 100 10 view .LVU10
	movq	stderr(%rip), %rdi
	movq	%r12, %rcx
	movl	$1, %esi
.LBE65:
.LBE64:
	.loc 1 70 5 view .LVU11
	movq	%rax, %rdx
.LVL3:
.LBB67:
.LBI64:
	.loc 2 98 1 is_stmt 1 view .LVU12
.LBB66:
	.loc 2 100 3 view .LVU13
	.loc 2 100 10 is_stmt 0 view .LVU14
	xorl	%eax, %eax
.LVL4:
	.loc 2 100 10 view .LVU15
	call	__fprintf_chk@PLT
.LVL5:
.L3:
	.loc 2 100 10 view .LVU16
.LBE66:
.LBE67:
	.loc 1 91 3 is_stmt 1 view .LVU17
	movl	%ebp, %edi
	call	exit@PLT
.LVL6:
.L2:
	.loc 1 73 7 view .LVU18
	.loc 1 73 15 is_stmt 0 view .LVU19
	leaq	.LC4(%rip), %rsi
	xorl	%edi, %edi
.LVL7:
.LBB68:
.LBB69:
	.file 3 "src/system.h"
	.loc 3 636 67 view .LVU20
	leaq	.LC17(%rip), %rbx
.LBE69:
.LBE68:
	.loc 1 73 15 view .LVU21
	call	dcgettext@PLT
.LVL8:
.LBB95:
.LBB96:
	.loc 2 107 10 view .LVU22
	movq	%r12, %rdx
	movl	$1, %edi
.LBE96:
.LBE95:
	.loc 1 73 15 view .LVU23
	movq	%rax, %rsi
.LVL9:
.LBB98:
.LBI95:
	.loc 2 105 1 is_stmt 1 view .LVU24
.LBB97:
	.loc 2 107 3 view .LVU25
	.loc 2 107 10 is_stmt 0 view .LVU26
	xorl	%eax, %eax
.LVL10:
	.loc 2 107 10 view .LVU27
	call	__printf_chk@PLT
.LVL11:
	.loc 2 107 10 view .LVU28
.LBE97:
.LBE98:
	.loc 1 74 7 is_stmt 1 view .LVU29
	.loc 1 74 15 is_stmt 0 view .LVU30
	movl	$5, %edx
	leaq	.LC5(%rip), %rsi
	xorl	%edi, %edi
	call	dcgettext@PLT
.LVL12:
.LBB99:
.LBB100:
	.loc 2 107 10 view .LVU31
	movl	$19, %ecx
	movl	$-20, %edx
	movl	$1, %edi
.LBE100:
.LBE99:
	.loc 1 74 15 view .LVU32
	movq	%rax, %rsi
.LVL13:
.LBB102:
.LBI99:
	.loc 2 105 1 is_stmt 1 view .LVU33
.LBB101:
	.loc 2 107 3 view .LVU34
	.loc 2 107 10 is_stmt 0 view .LVU35
	xorl	%eax, %eax
.LVL14:
	.loc 2 107 10 view .LVU36
	call	__printf_chk@PLT
.LVL15:
	.loc 2 107 10 view .LVU37
.LBE101:
.LBE102:
	.loc 1 81 7 is_stmt 1 view .LVU38
.LBB103:
.LBI103:
	.loc 3 588 1 view .LVU39
.LBB104:
	.loc 3 590 3 view .LVU40
	movq	stdout(%rip), %r12
	movl	$5, %edx
	xorl	%edi, %edi
	leaq	.LC6(%rip), %rsi
	call	dcgettext@PLT
.LVL16:
	movq	%r12, %rsi
	movq	%rax, %rdi
	call	fputs_unlocked@PLT
.LVL17:
.LBE104:
.LBE103:
	.loc 1 83 7 view .LVU41
	movq	stdout(%rip), %r12
	movl	$5, %edx
	xorl	%edi, %edi
	leaq	.LC7(%rip), %rsi
	call	dcgettext@PLT
.LVL18:
	movq	%r12, %rsi
	movq	%rax, %rdi
	call	fputs_unlocked@PLT
.LVL19:
	.loc 1 86 7 view .LVU42
	movq	stdout(%rip), %r12
	movl	$5, %edx
	xorl	%edi, %edi
	leaq	.LC8(%rip), %rsi
	call	dcgettext@PLT
.LVL20:
	movq	%r12, %rsi
	movq	%rax, %rdi
	call	fputs_unlocked@PLT
.LVL21:
	.loc 1 87 7 view .LVU43
	movl	$5, %edx
	movq	stdout(%rip), %r12
	xorl	%edi, %edi
	leaq	.LC9(%rip), %rsi
	call	dcgettext@PLT
.LVL22:
	movq	%r12, %rsi
	movq	%rax, %rdi
	call	fputs_unlocked@PLT
.LVL23:
	.loc 1 88 7 view .LVU44
	.loc 1 88 15 is_stmt 0 view .LVU45
	movl	$5, %edx
	leaq	.LC10(%rip), %rsi
	xorl	%edi, %edi
	call	dcgettext@PLT
.LVL24:
.LBB105:
.LBB106:
	.loc 2 107 10 view .LVU46
	leaq	.LC0(%rip), %rdx
	movl	$1, %edi
.LBE106:
.LBE105:
	.loc 1 88 15 view .LVU47
	movq	%rax, %rsi
.LVL25:
.LBB108:
.LBI105:
	.loc 2 105 1 is_stmt 1 view .LVU48
.LBB107:
	.loc 2 107 3 view .LVU49
	.loc 2 107 10 is_stmt 0 view .LVU50
	xorl	%eax, %eax
.LVL26:
	.loc 2 107 10 view .LVU51
	call	__printf_chk@PLT
.LVL27:
	.loc 2 107 10 view .LVU52
.LBE107:
.LBE108:
	.loc 1 89 7 is_stmt 1 view .LVU53
.LBB109:
.LBI68:
	.loc 3 634 1 view .LVU54
.LBB94:
	.loc 3 636 3 view .LVU55
	.loc 3 636 67 is_stmt 0 view .LVU56
	leaq	.LC11(%rip), %rax
	movq	%rbx, 48(%rsp)
	leaq	.LC18(%rip), %rbx
	movq	%rax, (%rsp)
	leaq	.LC12(%rip), %rax
	movq	%rax, 8(%rsp)
	leaq	.LC13(%rip), %rax
	movq	%rax, 16(%rsp)
	leaq	.LC14(%rip), %rax
	movq	%rax, 24(%rsp)
	leaq	.LC15(%rip), %rax
	movq	$0, 96(%rsp)
	movq	$0, 104(%rsp)
	.loc 3 646 3 is_stmt 1 view .LVU57
.LVL28:
	.loc 3 647 3 view .LVU58
	.loc 3 649 3 view .LVU59
	.loc 3 649 9 view .LVU60
	.loc 3 636 67 is_stmt 0 view .LVU61
	movq	%rax, 32(%rsp)
	leaq	.LC16(%rip), %rax
	movq	%rbx, 64(%rsp)
	leaq	.LC19(%rip), %rbx
	movq	%rax, 40(%rsp)
	movq	%rax, 56(%rsp)
	movq	%rax, 72(%rsp)
	movq	%rbx, 80(%rsp)
	leaq	.LC0(%rip), %rbx
	movq	%rax, 88(%rsp)
	.loc 3 647 25 view .LVU62
	movq	%rsp, %rax
.LVL29:
	.p2align 4,,10
	.p2align 3
.L5:
	.loc 3 650 5 is_stmt 1 view .LVU63
	.loc 3 649 18 is_stmt 0 view .LVU64
	movq	16(%rax), %rdi
	.loc 3 650 13 view .LVU65
	addq	$16, %rax
.LVL30:
	.loc 3 649 9 is_stmt 1 view .LVU66
	testq	%rdi, %rdi
	je	.L4
	.loc 3 649 33 is_stmt 0 view .LVU67
	movl	$5, %ecx
	movq	%rbx, %rsi
	repz cmpsb
	seta	%dl
	sbbb	$0, %dl
	.loc 3 649 28 view .LVU68
	testb	%dl, %dl
	jne	.L5
.L4:
	.loc 3 652 3 is_stmt 1 view .LVU69
	.loc 3 652 15 is_stmt 0 view .LVU70
	movq	8(%rax), %r12
	.loc 3 655 11 view .LVU71
	movl	$5, %edx
	leaq	.LC20(%rip), %rsi
	xorl	%edi, %edi
	.loc 3 652 6 view .LVU72
	testq	%r12, %r12
	je	.L6
	.loc 3 653 5 is_stmt 1 view .LVU73
.LVL31:
	.loc 3 655 3 view .LVU74
	.loc 3 655 11 is_stmt 0 view .LVU75
	call	dcgettext@PLT
.LVL32:
.LBB70:
.LBB71:
	.loc 2 107 10 view .LVU76
	leaq	.LC21(%rip), %rcx
	movl	$1, %edi
	leaq	.LC22(%rip), %rdx
.LBE71:
.LBE70:
	.loc 3 655 11 view .LVU77
	movq	%rax, %rsi
.LVL33:
.LBB75:
.LBI70:
	.loc 2 105 1 is_stmt 1 view .LVU78
.LBB72:
	.loc 2 107 3 view .LVU79
	.loc 2 107 10 is_stmt 0 view .LVU80
	xorl	%eax, %eax
.LVL34:
	.loc 2 107 10 view .LVU81
	call	__printf_chk@PLT
.LVL35:
	.loc 2 107 10 view .LVU82
.LBE72:
.LBE75:
	.loc 3 659 3 is_stmt 1 view .LVU83
	.loc 3 659 29 is_stmt 0 view .LVU84
	movl	$5, %edi
	xorl	%esi, %esi
	call	setlocale@PLT
.LVL36:
	movq	%rax, %rdi
.LVL37:
	.loc 3 660 3 is_stmt 1 view .LVU85
	.loc 3 660 6 is_stmt 0 view .LVU86
	testq	%rax, %rax
	je	.L7
	.loc 3 660 22 view .LVU87
	movl	$3, %edx
	leaq	.LC23(%rip), %rsi
	call	strncmp@PLT
.LVL38:
	.loc 3 660 19 view .LVU88
	testl	%eax, %eax
	jne	.L10
.LVL39:
.L7:
	.loc 3 669 3 is_stmt 1 view .LVU89
	.loc 3 669 11 is_stmt 0 view .LVU90
	xorl	%edi, %edi
	movl	$5, %edx
	leaq	.LC25(%rip), %rsi
	call	dcgettext@PLT
.LVL40:
.LBB76:
.LBB77:
	.loc 2 107 10 view .LVU91
	leaq	.LC0(%rip), %rcx
	leaq	.LC21(%rip), %rdx
	movl	$1, %edi
.LBE77:
.LBE76:
	.loc 3 669 11 view .LVU92
	movq	%rax, %rsi
.LVL41:
.LBB83:
.LBI76:
	.loc 2 105 1 is_stmt 1 view .LVU93
.LBB78:
	.loc 2 107 3 view .LVU94
	.loc 2 107 10 is_stmt 0 view .LVU95
	xorl	%eax, %eax
.LVL42:
	.loc 2 107 10 view .LVU96
.LBE78:
.LBE83:
	.loc 3 671 3 view .LVU97
	leaq	.LC1(%rip), %r13
.LBB84:
.LBB79:
	.loc 2 107 10 view .LVU98
	call	__printf_chk@PLT
.LVL43:
	.loc 2 107 10 view .LVU99
.LBE79:
.LBE84:
	.loc 3 671 3 is_stmt 1 view .LVU100
	cmpq	%rbx, %r12
	leaq	.LC2(%rip), %rcx
	cmovne	%rcx, %r13
.L8:
	.loc 3 671 11 is_stmt 0 view .LVU101
	xorl	%edi, %edi
	leaq	.LC26(%rip), %rsi
	movl	$5, %edx
	call	dcgettext@PLT
.LVL44:
.LBB85:
.LBB86:
	.loc 2 107 10 view .LVU102
	movq	%r13, %rcx
	movq	%r12, %rdx
	movl	$1, %edi
.LBE86:
.LBE85:
	.loc 3 671 11 view .LVU103
	movq	%rax, %rsi
.LVL45:
.LBB88:
.LBI85:
	.loc 2 105 1 is_stmt 1 view .LVU104
.LBB87:
	.loc 2 107 3 view .LVU105
	.loc 2 107 10 is_stmt 0 view .LVU106
	xorl	%eax, %eax
.LVL46:
	.loc 2 107 10 view .LVU107
	call	__printf_chk@PLT
.LVL47:
	.loc 2 107 10 view .LVU108
.LBE87:
.LBE88:
	.loc 3 673 1 view .LVU109
	jmp	.L3
.LVL48:
.L6:
	.loc 3 655 3 is_stmt 1 view .LVU110
	.loc 3 655 11 is_stmt 0 view .LVU111
	call	dcgettext@PLT
.LVL49:
.LBB89:
.LBB73:
	.loc 2 107 10 view .LVU112
	leaq	.LC21(%rip), %rcx
	movl	$1, %edi
	leaq	.LC22(%rip), %rdx
.LBE73:
.LBE89:
	.loc 3 655 11 view .LVU113
	movq	%rax, %rsi
.LVL50:
.LBB90:
	.loc 2 105 1 is_stmt 1 view .LVU114
.LBB74:
	.loc 2 107 3 view .LVU115
	.loc 2 107 10 is_stmt 0 view .LVU116
	xorl	%eax, %eax
.LVL51:
	.loc 2 107 10 view .LVU117
	call	__printf_chk@PLT
.LVL52:
	.loc 2 107 10 view .LVU118
.LBE74:
.LBE90:
	.loc 3 659 3 is_stmt 1 view .LVU119
	.loc 3 659 29 is_stmt 0 view .LVU120
	movl	$5, %edi
	xorl	%esi, %esi
	call	setlocale@PLT
.LVL53:
	movq	%rax, %rdi
.LVL54:
	.loc 3 660 3 is_stmt 1 view .LVU121
	.loc 3 660 6 is_stmt 0 view .LVU122
	testq	%rax, %rax
	je	.L9
	.loc 3 660 22 view .LVU123
	movl	$3, %edx
	leaq	.LC23(%rip), %rsi
	call	strncmp@PLT
.LVL55:
	.loc 3 660 19 view .LVU124
	testl	%eax, %eax
	jne	.L29
.L9:
	.loc 3 669 3 is_stmt 1 view .LVU125
	.loc 3 669 11 is_stmt 0 view .LVU126
	movl	$5, %edx
	leaq	.LC25(%rip), %rsi
	xorl	%edi, %edi
	call	dcgettext@PLT
.LVL56:
.LBB91:
.LBB80:
	.loc 2 107 10 view .LVU127
	leaq	.LC0(%rip), %rcx
	leaq	.LC21(%rip), %rdx
	movl	$1, %edi
.LBE80:
.LBE91:
	.loc 3 669 11 view .LVU128
	movq	%rax, %rsi
.LVL57:
.LBB92:
	.loc 2 105 1 is_stmt 1 view .LVU129
.LBB81:
	.loc 2 107 3 view .LVU130
	.loc 2 107 10 is_stmt 0 view .LVU131
	xorl	%eax, %eax
.LVL58:
	.loc 2 107 10 view .LVU132
.LBE81:
.LBE92:
	.loc 3 646 15 view .LVU133
	leaq	.LC0(%rip), %r12
.LBB93:
.LBB82:
	.loc 2 107 10 view .LVU134
	call	__printf_chk@PLT
.LVL59:
	.loc 2 107 10 view .LVU135
.LBE82:
.LBE93:
	.loc 3 671 3 is_stmt 1 view .LVU136
	leaq	.LC1(%rip), %r13
	jmp	.L8
.L29:
	.loc 3 646 15 is_stmt 0 view .LVU137
	leaq	.LC0(%rip), %r12
.LVL60:
.L10:
	.loc 3 666 7 is_stmt 1 view .LVU138
	movq	stdout(%rip), %r13
	xorl	%edi, %edi
	movl	$5, %edx
	leaq	.LC24(%rip), %rsi
	call	dcgettext@PLT
.LVL61:
	movq	%rax, %rdi
	movq	%r13, %rsi
	call	fputs_unlocked@PLT
.LVL62:
	jmp	.L7
.LBE94:
.LBE109:
	.cfi_endproc
.LFE135:
	.size	usage, .-usage
	.section	.rodata.str1.1
.LC27:
	.string	"/usr/local/share/locale"
.LC28:
	.string	"+n:"
.LC29:
	.string	"David MacKenzie"
.LC30:
	.string	"invalid adjustment %s"
	.section	.rodata.str1.8
	.align 8
.LC31:
	.string	"a command must be given with an adjustment"
	.section	.rodata.str1.1
.LC32:
	.string	"cannot get niceness"
.LC33:
	.string	"%d\n"
.LC34:
	.string	"cannot set niceness"
.LC35:
	.string	"%s"
	.section	.text.startup,"ax",@progbits
	.p2align 4
	.globl	main
	.type	main, @function
main:
.LVL63:
.LFB137:
	.loc 1 102 1 view -0
	.cfi_startproc
	.loc 1 102 1 is_stmt 0 view .LVU140
	endbr64
	pushq	%r14
	.cfi_def_cfa_offset 16
	.cfi_offset 14, -16
	pushq	%r13
	.cfi_def_cfa_offset 24
	.cfi_offset 13, -24
	pushq	%r12
	.cfi_def_cfa_offset 32
	.cfi_offset 12, -32
	movl	%edi, %r12d
	pushq	%rbp
	.cfi_def_cfa_offset 40
	.cfi_offset 6, -40
	movq	%rsi, %rbp
	pushq	%rbx
	.cfi_def_cfa_offset 48
	.cfi_offset 3, -48
	.loc 1 118 10 view .LVU141
	movl	$1, %ebx
	.loc 1 102 1 view .LVU142
	subq	$16, %rsp
	.cfi_def_cfa_offset 64
	.loc 1 110 3 view .LVU143
	movq	(%rsi), %rdi
.LVL64:
	.loc 1 102 1 view .LVU144
	movq	%fs:40, %rax
	movq	%rax, 8(%rsp)
	xorl	%eax, %eax
	.loc 1 103 3 is_stmt 1 view .LVU145
	.loc 1 104 3 view .LVU146
.LVL65:
	.loc 1 105 3 view .LVU147
	.loc 1 106 3 view .LVU148
	.loc 1 107 3 view .LVU149
	.loc 1 109 33 view .LVU150
	.loc 1 110 3 view .LVU151
	call	set_program_name@PLT
.LVL66:
	.loc 1 111 3 view .LVU152
	leaq	.LC2(%rip), %rsi
	movl	$6, %edi
	call	setlocale@PLT
.LVL67:
	.loc 1 112 3 view .LVU153
	leaq	.LC27(%rip), %rsi
	leaq	.LC13(%rip), %rdi
	call	bindtextdomain@PLT
.LVL68:
	.loc 1 113 3 view .LVU154
	leaq	.LC13(%rip), %rdi
	call	textdomain@PLT
.LVL69:
	.loc 1 115 3 view .LVU155
.LBB110:
.LBI110:
	.loc 3 99 1 view .LVU156
.LBB111:
	.loc 3 101 3 view .LVU157
	.loc 3 102 5 view .LVU158
.LBE111:
.LBE110:
	.loc 1 116 3 is_stmt 0 view .LVU159
	movq	close_stdout@GOTPCREL(%rip), %rdi
.LBB113:
.LBB112:
	.loc 3 102 18 view .LVU160
	movl	$125, exit_failure(%rip)
.LVL70:
	.loc 3 102 18 view .LVU161
.LBE112:
.LBE113:
	.loc 1 116 3 is_stmt 1 view .LVU162
	call	atexit@PLT
.LVL71:
	.loc 1 118 3 view .LVU163
	.loc 1 118 15 view .LVU164
	.loc 1 118 3 is_stmt 0 view .LVU165
	cmpl	$1, %r12d
	jle	.L31
	.loc 1 105 15 view .LVU166
	xorl	%r13d, %r13d
.LBB114:
.LBB115:
	.loc 1 139 15 view .LVU167
	leaq	longopts(%rip), %r14
.LVL72:
.L39:
	.loc 1 139 15 view .LVU168
.LBE115:
	.loc 1 120 7 is_stmt 1 view .LVU169
	.loc 1 120 27 is_stmt 0 view .LVU170
	movslq	%ebx, %rax
	leaq	0(,%rax,8), %rcx
	.loc 1 120 19 view .LVU171
	movq	0(%rbp,%rax,8), %rax
.LVL73:
	.loc 1 122 7 is_stmt 1 view .LVU172
	.loc 1 122 10 is_stmt 0 view .LVU173
	cmpb	$45, (%rax)
	jne	.L32
	.loc 1 122 26 discriminator 1 view .LVU174
	movzbl	1(%rax), %esi
	leal	-43(%rsi), %edx
	andl	$253, %edx
	sete	%dl
	movzbl	%dl, %edx
	addl	$1, %edx
	movslq	%edx, %rdx
	movsbl	(%rax,%rdx), %edx
	subl	$48, %edx
	.loc 1 122 23 discriminator 1 view .LVU175
	cmpl	$9, %edx
	ja	.L32
	.loc 1 124 11 is_stmt 1 view .LVU176
	.loc 1 124 28 is_stmt 0 view .LVU177
	leaq	1(%rax), %r13
.LVL74:
	.loc 1 125 11 is_stmt 1 view .LVU178
	addl	$1, %ebx
.LVL75:
.L33:
	.loc 1 125 11 is_stmt 0 view .LVU179
.LBE114:
	.loc 1 118 15 is_stmt 1 discriminator 1 view .LVU180
	.loc 1 118 3 is_stmt 0 discriminator 1 view .LVU181
	cmpl	%r12d, %ebx
	jl	.L39
.L34:
	.loc 1 165 3 is_stmt 1 view .LVU182
	.loc 1 165 6 is_stmt 0 view .LVU183
	testq	%r13, %r13
	je	.L31
.LBB117:
	.loc 1 170 7 is_stmt 1 view .LVU184
	.loc 1 171 7 view .LVU185
	.loc 1 172 7 view .LVU186
	.loc 1 172 30 is_stmt 0 view .LVU187
	xorl	%esi, %esi
	movq	%rsp, %rcx
	leaq	.LC2(%rip), %r8
	movq	%r13, %rdi
	movl	$10, %edx
	call	xstrtol@PLT
.LVL76:
	.loc 1 172 10 view .LVU188
	cmpl	$1, %eax
	ja	.L70
	.loc 1 175 7 is_stmt 1 view .LVU189
	.loc 1 175 20 is_stmt 0 view .LVU190
	movq	(%rsp), %rax
	.loc 1 175 18 view .LVU191
	movl	$-39, %r13d
.LVL77:
	.loc 1 175 18 view .LVU192
	cmpq	$-39, %rax
	jge	.L71
.L41:
.LVL78:
	.loc 1 175 18 view .LVU193
.LBE117:
	.loc 1 178 3 is_stmt 1 discriminator 4 view .LVU194
	.loc 1 178 6 is_stmt 0 discriminator 4 view .LVU195
	cmpl	%r12d, %ebx
	je	.L72
.LVL79:
.L42:
	.loc 1 194 3 is_stmt 1 view .LVU196
	call	__errno_location@PLT
.LVL80:
	.loc 1 198 22 is_stmt 0 view .LVU197
	xorl	%esi, %esi
	xorl	%edi, %edi
	.loc 1 194 9 view .LVU198
	movl	$0, (%rax)
	.loc 1 198 3 is_stmt 1 view .LVU199
	.loc 1 194 3 is_stmt 0 view .LVU200
	movq	%rax, %r12
.LVL81:
	.loc 1 198 22 view .LVU201
	call	getpriority@PLT
.LVL82:
	.loc 1 199 3 is_stmt 1 view .LVU202
	.loc 1 199 6 is_stmt 0 view .LVU203
	cmpl	$-1, %eax
	jne	.L45
	.loc 1 199 30 discriminator 1 view .LVU204
	cmpl	$0, (%r12)
	je	.L45
.LBB119:
	.loc 1 200 5 is_stmt 1 view .LVU205
	movl	$5, %edx
	leaq	.LC32(%rip), %rsi
	xorl	%edi, %edi
	call	dcgettext@PLT
.LVL83:
	.loc 1 200 5 is_stmt 0 view .LVU206
	movl	(%r12), %esi
	movl	$125, %edi
	movq	%rax, %rdx
	xorl	%eax, %eax
	call	error@PLT
.LVL84:
	.p2align 4,,10
	.p2align 3
.L32:
	.loc 1 200 5 view .LVU207
.LBE119:
.LBB120:
.LBB116:
	.loc 1 129 11 is_stmt 1 view .LVU208
	.loc 1 130 11 view .LVU209
	.loc 1 131 11 view .LVU210
	.loc 1 134 30 is_stmt 0 view .LVU211
	movq	0(%rbp), %rax
.LVL85:
	.loc 1 131 18 view .LVU212
	leaq	-8(%rbp,%rcx), %rsi
.LVL86:
	.loc 1 134 11 is_stmt 1 view .LVU213
	.loc 1 130 15 is_stmt 0 view .LVU214
	movl	%r12d, %edi
	.loc 1 139 15 view .LVU215
	xorl	%r8d, %r8d
	leaq	.LC28(%rip), %rdx
	movq	%r14, %rcx
	.loc 1 134 24 view .LVU216
	movq	%rax, (%rsi)
.LVL87:
	.loc 1 137 11 is_stmt 1 view .LVU217
	.loc 1 130 37 is_stmt 0 view .LVU218
	leal	-1(%rbx), %eax
	.loc 1 137 18 view .LVU219
	movl	$0, optind(%rip)
	.loc 1 139 11 is_stmt 1 view .LVU220
	.loc 1 130 15 is_stmt 0 view .LVU221
	subl	%eax, %edi
	.loc 1 139 15 view .LVU222
	call	getopt_long@PLT
.LVL88:
	.loc 1 140 11 is_stmt 1 view .LVU223
	.loc 1 140 13 is_stmt 0 view .LVU224
	movl	optind(%rip), %edx
	leal	-1(%rbx,%rdx), %ebx
.LVL89:
	.loc 1 142 11 is_stmt 1 view .LVU225
	cmpl	$-1, %eax
	je	.L34
	testl	%eax, %eax
	jns	.L35
	cmpl	$-131, %eax
	jne	.L73
	.loc 1 151 13 view .LVU226
	.loc 1 151 34 view .LVU227
	.loc 1 153 13 view .LVU228
	movq	stdout(%rip), %rdi
	movq	Version(%rip), %rcx
	xorl	%eax, %eax
.LVL90:
	.loc 1 153 13 is_stmt 0 view .LVU229
	xorl	%r9d, %r9d
	leaq	.LC29(%rip), %r8
	leaq	.LC22(%rip), %rdx
	leaq	.LC0(%rip), %rsi
	call	version_etc@PLT
.LVL91:
	.loc 1 153 13 is_stmt 1 view .LVU230
	xorl	%edi, %edi
	call	exit@PLT
.LVL92:
	.p2align 4,,10
	.p2align 3
.L35:
	.loc 1 142 11 is_stmt 0 view .LVU231
	cmpl	$110, %eax
	jne	.L69
	.loc 1 145 15 is_stmt 1 view .LVU232
	.loc 1 145 32 is_stmt 0 view .LVU233
	movq	optarg(%rip), %r13
.LVL93:
	.loc 1 146 15 is_stmt 1 view .LVU234
	.loc 1 157 15 view .LVU235
	.loc 1 160 11 view .LVU236
	jmp	.L33
.L73:
	.loc 1 142 11 is_stmt 0 view .LVU237
	cmpl	$-130, %eax
	jne	.L69
	.loc 1 151 13 is_stmt 1 view .LVU238
	xorl	%edi, %edi
	call	usage
.LVL94:
.L45:
	.loc 1 151 13 is_stmt 0 view .LVU239
.LBE116:
.LBE120:
	.loc 1 201 3 is_stmt 1 view .LVU240
	.loc 1 201 9 is_stmt 0 view .LVU241
	xorl	%esi, %esi
	xorl	%edi, %edi
	leal	(%rax,%r13), %edx
	call	setpriority@PLT
.LVL95:
	.loc 1 203 3 is_stmt 1 view .LVU242
	.loc 1 203 6 is_stmt 0 view .LVU243
	testl	%eax, %eax
	je	.L51
	.loc 1 205 7 is_stmt 1 view .LVU244
	.loc 1 206 38 is_stmt 0 view .LVU245
	movl	$5, %edx
	leaq	.LC34(%rip), %rsi
	xorl	%edi, %edi
	call	dcgettext@PLT
.LVL96:
	.loc 1 205 7 view .LVU246
	movl	(%r12), %esi
.LVL97:
.LBB121:
.LBI121:
	.loc 1 95 1 is_stmt 1 view .LVU247
.LBB122:
	.loc 1 97 3 view .LVU248
	.loc 1 97 3 is_stmt 0 view .LVU249
.LBE122:
.LBE121:
	.loc 1 206 38 view .LVU250
	movq	%rax, %rdx
	.loc 1 205 7 view .LVU251
	cmpl	$13, %esi
	je	.L59
	movl	$125, %edi
	cmpl	$1, %esi
	je	.L59
.L49:
	.loc 1 205 7 discriminator 4 view .LVU252
	xorl	%eax, %eax
	.loc 1 213 16 discriminator 4 view .LVU253
	movl	$125, %r13d
	.loc 1 205 7 discriminator 4 view .LVU254
	call	error@PLT
.LVL98:
	.loc 1 212 7 is_stmt 1 discriminator 4 view .LVU255
.LBB123:
.LBI123:
	.file 4 "/usr/include/x86_64-linux-gnu/bits/stdio.h"
	.loc 4 135 1 discriminator 4 view .LVU256
.LBB124:
	.loc 4 137 3 discriminator 4 view .LVU257
	.loc 4 137 3 is_stmt 0 discriminator 4 view .LVU258
.LBE124:
.LBE123:
	.loc 1 212 10 discriminator 4 view .LVU259
	movq	stderr(%rip), %rax
	testb	$32, (%rax)
	jne	.L30
.L51:
	.loc 1 216 3 is_stmt 1 view .LVU260
	.loc 1 216 25 is_stmt 0 view .LVU261
	movslq	%ebx, %rbx
	.loc 1 218 51 view .LVU262
	xorl	%r13d, %r13d
	.loc 1 216 20 view .LVU263
	leaq	0(%rbp,%rbx,8), %rbx
	.loc 1 216 3 view .LVU264
	movq	(%rbx), %rdi
	movq	%rbx, %rsi
	call	execvp@PLT
.LVL99:
	.loc 1 218 3 is_stmt 1 view .LVU265
	.loc 1 219 3 is_stmt 0 view .LVU266
	movq	(%rbx), %rdi
	.loc 1 218 51 view .LVU267
	cmpl	$2, (%r12)
	sete	%r13b
	.loc 1 219 3 view .LVU268
	call	quote@PLT
.LVL100:
	movl	(%r12), %esi
	xorl	%edi, %edi
	.loc 1 218 51 view .LVU269
	addl	$126, %r13d
.LVL101:
	.loc 1 219 3 is_stmt 1 view .LVU270
	movq	%rax, %rcx
	leaq	.LC35(%rip), %rdx
	xorl	%eax, %eax
	call	error@PLT
.LVL102:
	.loc 1 220 3 view .LVU271
.L30:
	.loc 1 221 1 is_stmt 0 view .LVU272
	movq	8(%rsp), %rax
	xorq	%fs:40, %rax
	jne	.L74
	addq	$16, %rsp
	.cfi_remember_state
	.cfi_def_cfa_offset 48
	movl	%r13d, %eax
	popq	%rbx
	.cfi_def_cfa_offset 40
	popq	%rbp
	.cfi_def_cfa_offset 32
.LVL103:
	.loc 1 221 1 view .LVU273
	popq	%r12
	.cfi_def_cfa_offset 24
	popq	%r13
	.cfi_def_cfa_offset 16
	popq	%r14
	.cfi_def_cfa_offset 8
	ret
.LVL104:
.L31:
	.cfi_restore_state
	.loc 1 178 3 is_stmt 1 view .LVU274
	call	__errno_location@PLT
.LVL105:
	movq	%rax, %r13
	.loc 1 178 6 is_stmt 0 view .LVU275
	cmpl	%ebx, %r12d
	jne	.L75
	.loc 1 186 7 is_stmt 1 view .LVU276
	.loc 1 186 13 is_stmt 0 view .LVU277
	movl	$0, 0(%r13)
	.loc 1 187 7 is_stmt 1 view .LVU278
	.loc 1 187 26 is_stmt 0 view .LVU279
	xorl	%esi, %esi
	xorl	%edi, %edi
	call	getpriority@PLT
.LVL106:
	movl	%eax, %edx
.LVL107:
	.loc 1 188 7 is_stmt 1 view .LVU280
	.loc 1 188 10 is_stmt 0 view .LVU281
	cmpl	$-1, %eax
	jne	.L43
	.loc 1 188 34 discriminator 1 view .LVU282
	cmpl	$0, 0(%r13)
	je	.L43
.LBB125:
	.loc 1 189 9 is_stmt 1 view .LVU283
	movl	$5, %edx
	leaq	.LC32(%rip), %rsi
	xorl	%edi, %edi
	call	dcgettext@PLT
.LVL108:
	.loc 1 189 9 is_stmt 0 view .LVU284
	movl	0(%r13), %esi
	movl	$125, %edi
	movq	%rax, %rdx
	xorl	%eax, %eax
	call	error@PLT
.LVL109:
.L43:
	.loc 1 189 9 view .LVU285
.LBE125:
	.loc 1 190 7 is_stmt 1 view .LVU286
.LBB126:
.LBI126:
	.loc 2 105 1 view .LVU287
.LBB127:
	.loc 2 107 3 view .LVU288
	.loc 2 107 10 is_stmt 0 view .LVU289
	leaq	.LC33(%rip), %rsi
	movl	$1, %edi
	xorl	%eax, %eax
.LVL110:
	.loc 2 107 10 view .LVU290
.LBE127:
.LBE126:
	.loc 1 191 14 view .LVU291
	xorl	%r13d, %r13d
.LBB129:
.LBB128:
	.loc 2 107 10 view .LVU292
	call	__printf_chk@PLT
.LVL111:
	.loc 2 107 10 view .LVU293
.LBE128:
.LBE129:
	.loc 1 191 7 is_stmt 1 view .LVU294
	.loc 1 191 14 is_stmt 0 view .LVU295
	jmp	.L30
.LVL112:
.L71:
.LBB130:
	.loc 1 175 20 discriminator 1 view .LVU296
	cmpq	$39, %rax
	.loc 1 175 18 discriminator 1 view .LVU297
	movl	$39, %edx
	cmovle	%rax, %rdx
	movq	%rdx, %r13
	jmp	.L41
.LVL113:
.L59:
	.loc 1 175 18 discriminator 1 view .LVU298
.LBE130:
	.loc 1 205 7 view .LVU299
	xorl	%edi, %edi
	jmp	.L49
.LVL114:
.L72:
	.loc 1 182 11 is_stmt 1 view .LVU300
	.loc 1 182 24 is_stmt 0 view .LVU301
	movl	$5, %edx
	leaq	.LC31(%rip), %rsi
	xorl	%edi, %edi
	call	dcgettext@PLT
.LVL115:
	.loc 1 182 11 view .LVU302
	xorl	%esi, %esi
	xorl	%edi, %edi
	.loc 1 182 24 view .LVU303
	movq	%rax, %rdx
	.loc 1 182 11 view .LVU304
	xorl	%eax, %eax
	call	error@PLT
.LVL116:
.L69:
	.loc 1 183 11 is_stmt 1 view .LVU305
	movl	$125, %edi
	call	usage
.LVL117:
.L70:
.LBB131:
.LBB118:
	.loc 1 173 9 view .LVU306
	movq	%r13, %rdi
	call	quote@PLT
.LVL118:
	movl	$5, %edx
	leaq	.LC30(%rip), %rsi
	xorl	%edi, %edi
	movq	%rax, %r12
.LVL119:
	.loc 1 173 9 is_stmt 0 view .LVU307
	call	dcgettext@PLT
.LVL120:
	movq	%r12, %rcx
	xorl	%esi, %esi
	movl	$125, %edi
	movq	%rax, %rdx
	xorl	%eax, %eax
	call	error@PLT
.LVL121:
.L75:
	.loc 1 173 9 view .LVU308
.LBE118:
.LBE131:
	.loc 1 104 7 view .LVU309
	movl	$10, %r13d
	jmp	.L42
.LVL122:
.L74:
	.loc 1 221 1 view .LVU310
	call	__stack_chk_fail@PLT
.LVL123:
	.cfi_endproc
.LFE137:
	.size	main, .-main
	.section	.rodata.str1.1
.LC36:
	.string	"adjustment"
.LC37:
	.string	"help"
.LC38:
	.string	"version"
	.section	.data.rel.ro.local,"aw"
	.align 32
	.type	longopts, @object
	.size	longopts, 128
longopts:
	.quad	.LC36
	.long	1
	.zero	4
	.quad	0
	.long	110
	.zero	4
	.quad	.LC37
	.long	0
	.zero	4
	.quad	0
	.long	-130
	.zero	4
	.quad	.LC38
	.long	0
	.zero	4
	.quad	0
	.long	-131
	.zero	4
	.quad	0
	.long	0
	.zero	4
	.quad	0
	.long	0
	.zero	4
	.text
.Letext0:
	.file 5 "/usr/lib/gcc/x86_64-linux-gnu/9/include/stddef.h"
	.file 6 "/usr/include/x86_64-linux-gnu/bits/types.h"
	.file 7 "/usr/include/x86_64-linux-gnu/bits/types/struct_FILE.h"
	.file 8 "/usr/include/x86_64-linux-gnu/bits/types/FILE.h"
	.file 9 "/usr/include/stdio.h"
	.file 10 "/usr/include/x86_64-linux-gnu/bits/sys_errlist.h"
	.file 11 "/usr/include/x86_64-linux-gnu/bits/types/time_t.h"
	.file 12 "./lib/sys/select.h"
	.file 13 "/usr/include/x86_64-linux-gnu/bits/getopt_core.h"
	.file 14 "/usr/include/x86_64-linux-gnu/bits/getopt_ext.h"
	.file 15 "/usr/include/time.h"
	.file 16 "/usr/include/signal.h"
	.file 17 "/usr/include/unistd.h"
	.file 18 "/usr/include/errno.h"
	.file 19 "src/version.h"
	.file 20 "./lib/exitfail.h"
	.file 21 "./lib/timespec.h"
	.file 22 "./lib/version-etc.h"
	.file 23 "./lib/progname.h"
	.file 24 "./lib/quotearg.h"
	.file 25 "/usr/include/x86_64-linux-gnu/bits/resource.h"
	.file 26 "./lib/error.h"
	.file 27 "./lib/quote.h"
	.file 28 "./lib/xstrtol.h"
	.file 29 "/usr/include/stdlib.h"
	.file 30 "/usr/include/libintl.h"
	.file 31 "/usr/include/locale.h"
	.file 32 "/usr/include/x86_64-linux-gnu/sys/resource.h"
	.file 33 "/usr/include/string.h"
	.section	.note.GNU-stack,"",@progbits
	.section	.note.gnu.property,"a"
	.align 8
	.long	 1f - 0f
	.long	 4f - 1f
	.long	 5
0:
	.string	 "GNU"
1:
	.align 8
	.long	 0xc0000002
	.long	 3f - 2f
2:
	.long	 0x3
3:
	.align 8
4:
