	.file	"nohup.c"
	.text
.Ltext0:
	.section	.rodata.str1.1,"aMS",@progbits,1
.LC0:
	.string	"nohup"
.LC1:
	.string	" invocation"
.LC2:
	.string	""
	.section	.rodata.str1.8,"aMS",@progbits,1
	.align 8
.LC3:
	.string	"Try '%s --help' for more information.\n"
	.align 8
.LC4:
	.string	"Usage: %s COMMAND [ARG]...\n  or:  %s OPTION\n"
	.align 8
.LC5:
	.string	"Run COMMAND, ignoring hangup signals.\n\n"
	.align 8
.LC6:
	.string	"      --help     display this help and exit\n"
	.align 8
.LC7:
	.string	"      --version  output version information and exit\n"
	.align 8
.LC8:
	.ascii	"\nIf standard input is a terminal, "
	.string	"redirect it from an unreadable file.\nIf standard output is a terminal, append output to 'nohup.out' if possible,\n'$HOME/nohup.out' otherwise.\nIf standard error is a terminal, redirect it to standard output.\nTo save output to FILE, use '%s COMMAND > FILE'.\n"
	.align 8
.LC9:
	.string	"\nNOTE: your shell may have its own version of %s, which usually supersedes\nthe version described here.  Please refer to your shell's documentation\nfor details about the options it supports.\n"
	.section	.rodata.str1.1
.LC10:
	.string	"["
.LC11:
	.string	"test invocation"
.LC12:
	.string	"coreutils"
.LC13:
	.string	"Multi-call invocation"
.LC14:
	.string	"sha224sum"
.LC15:
	.string	"sha2 utilities"
.LC16:
	.string	"sha256sum"
.LC17:
	.string	"sha384sum"
.LC18:
	.string	"sha512sum"
.LC19:
	.string	"\n%s online help: <%s>\n"
	.section	.rodata.str1.8
	.align 8
.LC20:
	.string	"https://www.gnu.org/software/coreutils/"
	.section	.rodata.str1.1
.LC21:
	.string	"GNU coreutils"
.LC22:
	.string	"en_"
	.section	.rodata.str1.8
	.align 8
.LC23:
	.string	"Report any translation bugs to <https://translationproject.org/team/>\n"
	.section	.rodata.str1.1
.LC24:
	.string	"Full documentation <%s%s>\n"
	.section	.rodata.str1.8
	.align 8
.LC25:
	.string	"or available locally via: info '(coreutils) %s%s'\n"
	.text
	.p2align 4
	.globl	usage
	.type	usage, @function
usage:
.LVL0:
.LFB135:
	.file 1 "src/nohup.c"
	.loc 1 45 1 view -0
	.cfi_startproc
	.loc 1 45 1 is_stmt 0 view .LVU1
	endbr64
	pushq	%r13
	.cfi_def_cfa_offset 16
	.cfi_offset 13, -16
	.loc 1 47 5 view .LVU2
	movl	$5, %edx
	.loc 1 45 1 view .LVU3
	pushq	%r12
	.cfi_def_cfa_offset 24
	.cfi_offset 12, -24
	pushq	%rbp
	.cfi_def_cfa_offset 32
	.cfi_offset 6, -32
	movl	%edi, %ebp
	pushq	%rbx
	.cfi_def_cfa_offset 40
	.cfi_offset 3, -40
	subq	$136, %rsp
	.cfi_def_cfa_offset 176
	movq	program_name(%rip), %r12
	.loc 1 45 1 view .LVU4
	movq	%fs:40, %rax
	movq	%rax, 120(%rsp)
	xorl	%eax, %eax
	.loc 1 46 3 is_stmt 1 view .LVU5
	.loc 1 46 6 is_stmt 0 view .LVU6
	testl	%edi, %edi
	je	.L2
	.loc 1 47 5 is_stmt 1 view .LVU7
	.loc 1 47 5 view .LVU8
	leaq	.LC3(%rip), %rsi
	xorl	%edi, %edi
.LVL1:
	.loc 1 47 5 is_stmt 0 view .LVU9
	call	dcgettext@PLT
.LVL2:
.LBB58:
.LBB59:
	.file 2 "/usr/include/x86_64-linux-gnu/bits/stdio2.h"
	.loc 2 100 10 view .LVU10
	movq	stderr(%rip), %rdi
	movq	%r12, %rcx
	movl	$1, %esi
.LBE59:
.LBE58:
	.loc 1 47 5 view .LVU11
	movq	%rax, %rdx
.LVL3:
.LBB61:
.LBI58:
	.loc 2 98 1 is_stmt 1 view .LVU12
.LBB60:
	.loc 2 100 3 view .LVU13
	.loc 2 100 10 is_stmt 0 view .LVU14
	xorl	%eax, %eax
.LVL4:
	.loc 2 100 10 view .LVU15
	call	__fprintf_chk@PLT
.LVL5:
.L3:
	.loc 2 100 10 view .LVU16
.LBE60:
.LBE61:
	.loc 1 72 3 is_stmt 1 view .LVU17
	movl	%ebp, %edi
	call	exit@PLT
.LVL6:
.L2:
	.loc 1 50 7 view .LVU18
	.loc 1 50 15 is_stmt 0 view .LVU19
	leaq	.LC4(%rip), %rsi
	xorl	%edi, %edi
.LVL7:
.LBB62:
.LBB63:
	.file 3 "src/system.h"
	.loc 3 636 67 view .LVU20
	leaq	.LC16(%rip), %rbx
.LBE63:
.LBE62:
	.loc 1 50 15 view .LVU21
	call	dcgettext@PLT
.LVL8:
.LBB89:
.LBB90:
	.loc 2 107 10 view .LVU22
	movq	%r12, %rcx
	movq	%r12, %rdx
	movl	$1, %edi
.LBE90:
.LBE89:
	.loc 1 50 15 view .LVU23
	movq	%rax, %rsi
.LVL9:
.LBB92:
.LBI89:
	.loc 2 105 1 is_stmt 1 view .LVU24
.LBB91:
	.loc 2 107 3 view .LVU25
	.loc 2 107 10 is_stmt 0 view .LVU26
	xorl	%eax, %eax
.LVL10:
	.loc 2 107 10 view .LVU27
	call	__printf_chk@PLT
.LVL11:
	.loc 2 107 10 view .LVU28
.LBE91:
.LBE92:
	.loc 1 56 7 is_stmt 1 view .LVU29
	movq	stdout(%rip), %r12
	movl	$5, %edx
	xorl	%edi, %edi
	leaq	.LC5(%rip), %rsi
	call	dcgettext@PLT
.LVL12:
	movq	%r12, %rsi
	movq	%rax, %rdi
	call	fputs_unlocked@PLT
.LVL13:
	.loc 1 60 7 view .LVU30
	movq	stdout(%rip), %r12
	movl	$5, %edx
	xorl	%edi, %edi
	leaq	.LC6(%rip), %rsi
	call	dcgettext@PLT
.LVL14:
	movq	%r12, %rsi
	movq	%rax, %rdi
	call	fputs_unlocked@PLT
.LVL15:
	.loc 1 61 7 view .LVU31
	movq	stdout(%rip), %r12
	movl	$5, %edx
	xorl	%edi, %edi
	leaq	.LC7(%rip), %rsi
	call	dcgettext@PLT
.LVL16:
	movq	%r12, %rsi
	movq	%rax, %rdi
	call	fputs_unlocked@PLT
.LVL17:
	.loc 1 62 7 view .LVU32
	movq	program_name(%rip), %r12
	.loc 1 62 15 is_stmt 0 view .LVU33
	movl	$5, %edx
	xorl	%edi, %edi
	leaq	.LC8(%rip), %rsi
	call	dcgettext@PLT
.LVL18:
.LBB93:
.LBB94:
	.loc 2 107 10 view .LVU34
	movq	%r12, %rdx
	movl	$1, %edi
.LBE94:
.LBE93:
	.loc 1 62 15 view .LVU35
	movq	%rax, %rsi
.LVL19:
.LBB96:
.LBI93:
	.loc 2 105 1 is_stmt 1 view .LVU36
.LBB95:
	.loc 2 107 3 view .LVU37
	.loc 2 107 10 is_stmt 0 view .LVU38
	xorl	%eax, %eax
.LVL20:
	.loc 2 107 10 view .LVU39
	call	__printf_chk@PLT
.LVL21:
	.loc 2 107 10 view .LVU40
.LBE95:
.LBE96:
	.loc 1 69 7 is_stmt 1 view .LVU41
	.loc 1 69 15 is_stmt 0 view .LVU42
	movl	$5, %edx
	leaq	.LC9(%rip), %rsi
	xorl	%edi, %edi
	call	dcgettext@PLT
.LVL22:
.LBB97:
.LBB98:
	.loc 2 107 10 view .LVU43
	leaq	.LC0(%rip), %rdx
	movl	$1, %edi
.LBE98:
.LBE97:
	.loc 1 69 15 view .LVU44
	movq	%rax, %rsi
.LVL23:
.LBB100:
.LBI97:
	.loc 2 105 1 is_stmt 1 view .LVU45
.LBB99:
	.loc 2 107 3 view .LVU46
	.loc 2 107 10 is_stmt 0 view .LVU47
	xorl	%eax, %eax
.LVL24:
	.loc 2 107 10 view .LVU48
	call	__printf_chk@PLT
.LVL25:
	.loc 2 107 10 view .LVU49
.LBE99:
.LBE100:
	.loc 1 70 7 is_stmt 1 view .LVU50
.LBB101:
.LBI62:
	.loc 3 634 1 view .LVU51
.LBB88:
	.loc 3 636 3 view .LVU52
	.loc 3 636 67 is_stmt 0 view .LVU53
	leaq	.LC10(%rip), %rax
	movq	%rbx, 48(%rsp)
	leaq	.LC17(%rip), %rbx
	movq	%rax, (%rsp)
	leaq	.LC11(%rip), %rax
	movq	%rax, 8(%rsp)
	leaq	.LC12(%rip), %rax
	movq	%rax, 16(%rsp)
	leaq	.LC13(%rip), %rax
	movq	%rax, 24(%rsp)
	leaq	.LC14(%rip), %rax
	movq	$0, 96(%rsp)
	movq	$0, 104(%rsp)
	.loc 3 646 3 is_stmt 1 view .LVU54
.LVL26:
	.loc 3 647 3 view .LVU55
	.loc 3 649 3 view .LVU56
	.loc 3 649 9 view .LVU57
	.loc 3 636 67 is_stmt 0 view .LVU58
	movq	%rax, 32(%rsp)
	leaq	.LC15(%rip), %rax
	movq	%rbx, 64(%rsp)
	leaq	.LC18(%rip), %rbx
	movq	%rax, 40(%rsp)
	movq	%rax, 56(%rsp)
	movq	%rax, 72(%rsp)
	movq	%rbx, 80(%rsp)
	leaq	.LC0(%rip), %rbx
	movq	%rax, 88(%rsp)
	.loc 3 647 25 view .LVU59
	movq	%rsp, %rax
.LVL27:
	.p2align 4,,10
	.p2align 3
.L5:
	.loc 3 650 5 is_stmt 1 view .LVU60
	.loc 3 649 18 is_stmt 0 view .LVU61
	movq	16(%rax), %rdi
	.loc 3 650 13 view .LVU62
	addq	$16, %rax
.LVL28:
	.loc 3 649 9 is_stmt 1 view .LVU63
	testq	%rdi, %rdi
	je	.L4
	.loc 3 649 33 is_stmt 0 view .LVU64
	movl	$6, %ecx
	movq	%rbx, %rsi
	repz cmpsb
	seta	%dl
	sbbb	$0, %dl
	.loc 3 649 28 view .LVU65
	testb	%dl, %dl
	jne	.L5
.L4:
	.loc 3 652 3 is_stmt 1 view .LVU66
	.loc 3 652 15 is_stmt 0 view .LVU67
	movq	8(%rax), %r12
	.loc 3 655 11 view .LVU68
	movl	$5, %edx
	leaq	.LC19(%rip), %rsi
	xorl	%edi, %edi
	.loc 3 652 6 view .LVU69
	testq	%r12, %r12
	je	.L6
	.loc 3 653 5 is_stmt 1 view .LVU70
.LVL29:
	.loc 3 655 3 view .LVU71
	.loc 3 655 11 is_stmt 0 view .LVU72
	call	dcgettext@PLT
.LVL30:
.LBB64:
.LBB65:
	.loc 2 107 10 view .LVU73
	leaq	.LC20(%rip), %rcx
	movl	$1, %edi
	leaq	.LC21(%rip), %rdx
.LBE65:
.LBE64:
	.loc 3 655 11 view .LVU74
	movq	%rax, %rsi
.LVL31:
.LBB69:
.LBI64:
	.loc 2 105 1 is_stmt 1 view .LVU75
.LBB66:
	.loc 2 107 3 view .LVU76
	.loc 2 107 10 is_stmt 0 view .LVU77
	xorl	%eax, %eax
.LVL32:
	.loc 2 107 10 view .LVU78
	call	__printf_chk@PLT
.LVL33:
	.loc 2 107 10 view .LVU79
.LBE66:
.LBE69:
	.loc 3 659 3 is_stmt 1 view .LVU80
	.loc 3 659 29 is_stmt 0 view .LVU81
	movl	$5, %edi
	xorl	%esi, %esi
	call	setlocale@PLT
.LVL34:
	movq	%rax, %rdi
.LVL35:
	.loc 3 660 3 is_stmt 1 view .LVU82
	.loc 3 660 6 is_stmt 0 view .LVU83
	testq	%rax, %rax
	je	.L7
	.loc 3 660 22 view .LVU84
	movl	$3, %edx
	leaq	.LC22(%rip), %rsi
	call	strncmp@PLT
.LVL36:
	.loc 3 660 19 view .LVU85
	testl	%eax, %eax
	jne	.L10
.LVL37:
.L7:
	.loc 3 669 3 is_stmt 1 view .LVU86
	.loc 3 669 11 is_stmt 0 view .LVU87
	xorl	%edi, %edi
	movl	$5, %edx
	leaq	.LC24(%rip), %rsi
	call	dcgettext@PLT
.LVL38:
.LBB70:
.LBB71:
	.loc 2 107 10 view .LVU88
	leaq	.LC0(%rip), %rcx
	leaq	.LC20(%rip), %rdx
	movl	$1, %edi
.LBE71:
.LBE70:
	.loc 3 669 11 view .LVU89
	movq	%rax, %rsi
.LVL39:
.LBB77:
.LBI70:
	.loc 2 105 1 is_stmt 1 view .LVU90
.LBB72:
	.loc 2 107 3 view .LVU91
	.loc 2 107 10 is_stmt 0 view .LVU92
	xorl	%eax, %eax
.LVL40:
	.loc 2 107 10 view .LVU93
.LBE72:
.LBE77:
	.loc 3 671 3 view .LVU94
	leaq	.LC1(%rip), %r13
.LBB78:
.LBB73:
	.loc 2 107 10 view .LVU95
	call	__printf_chk@PLT
.LVL41:
	.loc 2 107 10 view .LVU96
.LBE73:
.LBE78:
	.loc 3 671 3 is_stmt 1 view .LVU97
	cmpq	%rbx, %r12
	leaq	.LC2(%rip), %rcx
	cmovne	%rcx, %r13
.L8:
	.loc 3 671 11 is_stmt 0 view .LVU98
	xorl	%edi, %edi
	leaq	.LC25(%rip), %rsi
	movl	$5, %edx
	call	dcgettext@PLT
.LVL42:
.LBB79:
.LBB80:
	.loc 2 107 10 view .LVU99
	movq	%r13, %rcx
	movq	%r12, %rdx
	movl	$1, %edi
.LBE80:
.LBE79:
	.loc 3 671 11 view .LVU100
	movq	%rax, %rsi
.LVL43:
.LBB82:
.LBI79:
	.loc 2 105 1 is_stmt 1 view .LVU101
.LBB81:
	.loc 2 107 3 view .LVU102
	.loc 2 107 10 is_stmt 0 view .LVU103
	xorl	%eax, %eax
.LVL44:
	.loc 2 107 10 view .LVU104
	call	__printf_chk@PLT
.LVL45:
	.loc 2 107 10 view .LVU105
.LBE81:
.LBE82:
	.loc 3 673 1 view .LVU106
	jmp	.L3
.LVL46:
.L6:
	.loc 3 655 3 is_stmt 1 view .LVU107
	.loc 3 655 11 is_stmt 0 view .LVU108
	call	dcgettext@PLT
.LVL47:
.LBB83:
.LBB67:
	.loc 2 107 10 view .LVU109
	leaq	.LC20(%rip), %rcx
	movl	$1, %edi
	leaq	.LC21(%rip), %rdx
.LBE67:
.LBE83:
	.loc 3 655 11 view .LVU110
	movq	%rax, %rsi
.LVL48:
.LBB84:
	.loc 2 105 1 is_stmt 1 view .LVU111
.LBB68:
	.loc 2 107 3 view .LVU112
	.loc 2 107 10 is_stmt 0 view .LVU113
	xorl	%eax, %eax
.LVL49:
	.loc 2 107 10 view .LVU114
	call	__printf_chk@PLT
.LVL50:
	.loc 2 107 10 view .LVU115
.LBE68:
.LBE84:
	.loc 3 659 3 is_stmt 1 view .LVU116
	.loc 3 659 29 is_stmt 0 view .LVU117
	movl	$5, %edi
	xorl	%esi, %esi
	call	setlocale@PLT
.LVL51:
	movq	%rax, %rdi
.LVL52:
	.loc 3 660 3 is_stmt 1 view .LVU118
	.loc 3 660 6 is_stmt 0 view .LVU119
	testq	%rax, %rax
	je	.L9
	.loc 3 660 22 view .LVU120
	movl	$3, %edx
	leaq	.LC22(%rip), %rsi
	call	strncmp@PLT
.LVL53:
	.loc 3 660 19 view .LVU121
	testl	%eax, %eax
	jne	.L29
.L9:
	.loc 3 669 3 is_stmt 1 view .LVU122
	.loc 3 669 11 is_stmt 0 view .LVU123
	movl	$5, %edx
	leaq	.LC24(%rip), %rsi
	xorl	%edi, %edi
	call	dcgettext@PLT
.LVL54:
.LBB85:
.LBB74:
	.loc 2 107 10 view .LVU124
	leaq	.LC0(%rip), %rcx
	leaq	.LC20(%rip), %rdx
	movl	$1, %edi
.LBE74:
.LBE85:
	.loc 3 669 11 view .LVU125
	movq	%rax, %rsi
.LVL55:
.LBB86:
	.loc 2 105 1 is_stmt 1 view .LVU126
.LBB75:
	.loc 2 107 3 view .LVU127
	.loc 2 107 10 is_stmt 0 view .LVU128
	xorl	%eax, %eax
.LVL56:
	.loc 2 107 10 view .LVU129
.LBE75:
.LBE86:
	.loc 3 646 15 view .LVU130
	leaq	.LC0(%rip), %r12
.LBB87:
.LBB76:
	.loc 2 107 10 view .LVU131
	call	__printf_chk@PLT
.LVL57:
	.loc 2 107 10 view .LVU132
.LBE76:
.LBE87:
	.loc 3 671 3 is_stmt 1 view .LVU133
	leaq	.LC1(%rip), %r13
	jmp	.L8
.L29:
	.loc 3 646 15 is_stmt 0 view .LVU134
	leaq	.LC0(%rip), %r12
.LVL58:
.L10:
	.loc 3 666 7 is_stmt 1 view .LVU135
	movq	stdout(%rip), %r13
	xorl	%edi, %edi
	movl	$5, %edx
	leaq	.LC23(%rip), %rsi
	call	dcgettext@PLT
.LVL59:
	movq	%rax, %rdi
	movq	%r13, %rsi
	call	fputs_unlocked@PLT
.LVL60:
	jmp	.L7
.LBE88:
.LBE101:
	.cfi_endproc
.LFE135:
	.size	usage, .-usage
	.section	.rodata.str1.1
.LC26:
	.string	"nohup.out"
	.section	.rodata.str1.8
	.align 8
.LC27:
	.string	"ignoring input and appending output to %s"
	.section	.rodata.str1.1
.LC28:
	.string	"appending output to %s"
	.section	.rodata.str1.8
	.align 8
.LC29:
	.string	"ignoring input and redirecting stderr to stdout"
	.section	.rodata.str1.1
.LC30:
	.string	"redirecting stderr to stdout"
.LC31:
	.string	"/usr/local/share/locale"
.LC32:
	.string	"POSIXLY_CORRECT"
.LC33:
	.string	"Jim Meyering"
.LC34:
	.string	"missing operand"
.LC35:
	.string	"/dev/null"
	.section	.rodata.str1.8
	.align 8
.LC36:
	.string	"failed to render standard input unusable"
	.section	.rodata.str1.1
.LC37:
	.string	"ignoring input"
.LC38:
	.string	"HOME"
.LC39:
	.string	"failed to open %s"
	.section	.rodata.str1.8
	.align 8
.LC40:
	.string	"failed to redirect standard error"
	.section	.rodata.str1.1
.LC41:
	.string	"failed to run command %s"
	.section	.text.startup,"ax",@progbits
	.p2align 4
	.globl	main
	.type	main, @function
main:
.LVL61:
.LFB136:
	.loc 1 77 1 view -0
	.cfi_startproc
	.loc 1 77 1 is_stmt 0 view .LVU137
	endbr64
	.loc 1 78 3 is_stmt 1 view .LVU138
.LVL62:
	.loc 1 79 3 view .LVU139
	.loc 1 80 3 view .LVU140
	.loc 1 81 3 view .LVU141
	.loc 1 82 3 view .LVU142
	.loc 1 83 3 view .LVU143
	.loc 1 84 3 view .LVU144
	.loc 1 86 33 view .LVU145
	.loc 1 87 3 view .LVU146
	.loc 1 77 1 is_stmt 0 view .LVU147
	pushq	%r15
	.cfi_def_cfa_offset 16
	.cfi_offset 15, -16
	pushq	%r14
	.cfi_def_cfa_offset 24
	.cfi_offset 14, -24
	pushq	%r13
	.cfi_def_cfa_offset 32
	.cfi_offset 13, -32
	pushq	%r12
	.cfi_def_cfa_offset 40
	.cfi_offset 12, -40
	pushq	%rbp
	.cfi_def_cfa_offset 48
	.cfi_offset 6, -48
	movl	%edi, %ebp
	pushq	%rbx
	.cfi_def_cfa_offset 56
	.cfi_offset 3, -56
	movq	%rsi, %rbx
	subq	$56, %rsp
	.cfi_def_cfa_offset 112
	.loc 1 87 3 view .LVU148
	movq	(%rsi), %rdi
.LVL63:
	.loc 1 87 3 view .LVU149
	call	set_program_name@PLT
.LVL64:
	.loc 1 88 3 is_stmt 1 view .LVU150
	leaq	.LC2(%rip), %rsi
	movl	$6, %edi
	call	setlocale@PLT
.LVL65:
	.loc 1 89 3 view .LVU151
	leaq	.LC31(%rip), %rsi
	leaq	.LC12(%rip), %rdi
	call	bindtextdomain@PLT
.LVL66:
	.loc 1 90 3 view .LVU152
	leaq	.LC12(%rip), %rdi
	call	textdomain@PLT
.LVL67:
	.loc 1 96 3 view .LVU153
	.loc 1 96 28 is_stmt 0 view .LVU154
	leaq	.LC32(%rip), %rdi
	call	getenv@PLT
.LVL68:
	.loc 1 99 3 view .LVU155
	movq	close_stdout@GOTPCREL(%rip), %rdi
	.loc 1 97 50 view .LVU156
	cmpq	$1, %rax
	sbbl	%r12d, %r12d
	andl	$-2, %r12d
	addl	$127, %r12d
.LVL69:
	.loc 1 98 3 is_stmt 1 view .LVU157
.LBB102:
.LBI102:
	.loc 3 99 1 view .LVU158
.LBB103:
	.loc 3 101 3 view .LVU159
	.loc 3 102 5 view .LVU160
	.loc 3 102 18 is_stmt 0 view .LVU161
	movl	%r12d, exit_failure(%rip)
.LVL70:
	.loc 3 102 18 view .LVU162
.LBE103:
.LBE102:
	.loc 1 99 3 is_stmt 1 view .LVU163
	call	atexit@PLT
.LVL71:
	.loc 1 101 3 view .LVU164
	subq	$8, %rsp
	.cfi_def_cfa_offset 120
	xorl	%r9d, %r9d
	movq	%rbx, %rsi
	leaq	.LC33(%rip), %rax
	pushq	$0
	.cfi_def_cfa_offset 128
	movl	%ebp, %edi
	movq	Version(%rip), %r8
	pushq	%rax
	.cfi_def_cfa_offset 136
	leaq	usage(%rip), %rax
	leaq	.LC21(%rip), %rcx
	pushq	%rax
	.cfi_def_cfa_offset 144
	leaq	.LC0(%rip), %rdx
	xorl	%eax, %eax
	call	parse_gnu_standard_options_only@PLT
.LVL72:
	.loc 1 105 3 view .LVU165
	.loc 1 105 6 is_stmt 0 view .LVU166
	addq	$32, %rsp
	.cfi_def_cfa_offset 112
	cmpl	%ebp, optind(%rip)
	jge	.L77
	.loc 1 111 3 is_stmt 1 view .LVU167
	.loc 1 111 20 is_stmt 0 view .LVU168
	xorl	%edi, %edi
	call	isatty@PLT
.LVL73:
	.loc 1 112 24 view .LVU169
	movl	$1, %edi
	.loc 1 111 20 view .LVU170
	movl	%eax, %r13d
.LVL74:
	.loc 1 112 3 is_stmt 1 view .LVU171
	.loc 1 112 24 is_stmt 0 view .LVU172
	call	isatty@PLT
.LVL75:
	.loc 1 112 24 view .LVU173
	movl	%eax, %ebp
.LVL76:
	.loc 1 113 3 is_stmt 1 view .LVU174
	.loc 1 113 43 is_stmt 0 view .LVU175
	testl	%eax, %eax
	je	.L78
.LVL77:
.L33:
	.loc 1 114 3 is_stmt 1 discriminator 6 view .LVU176
	.loc 1 114 24 is_stmt 0 discriminator 6 view .LVU177
	movl	$2, %edi
	call	isatty@PLT
.LVL78:
	.loc 1 114 22 discriminator 6 view .LVU178
	testl	%eax, %eax
	.loc 1 114 24 discriminator 6 view .LVU179
	movl	%eax, %r15d
	.loc 1 114 22 discriminator 6 view .LVU180
	setne	%r8b
.LVL79:
	.loc 1 119 3 is_stmt 1 discriminator 6 view .LVU181
	.loc 1 119 6 is_stmt 0 discriminator 6 view .LVU182
	testl	%r13d, %r13d
	jne	.L79
	.loc 1 132 3 is_stmt 1 view .LVU183
	.loc 1 113 43 is_stmt 0 view .LVU184
	movl	$0, 8(%rsp)
	.loc 1 132 6 view .LVU185
	testl	%ebp, %ebp
	je	.L80
.LVL80:
.L39:
.LBB104:
	.loc 1 138 28 view .LVU186
	movl	$-385, %edi
	movb	%r8b, 16(%rsp)
	.loc 1 134 7 is_stmt 1 view .LVU187
.LVL81:
	.loc 1 135 7 view .LVU188
	.loc 1 136 7 view .LVU189
	.loc 1 137 7 view .LVU190
	.loc 1 138 7 view .LVU191
	.loc 1 138 28 is_stmt 0 view .LVU192
	call	umask@PLT
.LVL82:
	.loc 1 140 19 view .LVU193
	movl	$384, %ecx
	movl	$1089, %edx
	leaq	.LC26(%rip), %rsi
	movl	$1, %edi
	.loc 1 138 28 view .LVU194
	movl	%eax, 32(%rsp)
.LVL83:
	.loc 1 139 7 is_stmt 1 view .LVU195
	.loc 1 140 19 is_stmt 0 view .LVU196
	call	fd_reopen@PLT
.LVL84:
	.loc 1 140 19 view .LVU197
	movl	%eax, %r14d
.L58:
.LVL85:
	.loc 1 143 7 is_stmt 1 view .LVU198
	.loc 1 135 19 is_stmt 0 view .LVU199
	leaq	.LC26(%rip), %r15
	.loc 1 134 13 view .LVU200
	xorl	%r8d, %r8d
	.loc 1 143 10 view .LVU201
	testl	%r14d, %r14d
	js	.L81
.LVL86:
.L42:
	.loc 1 166 7 view .LVU202
	movl	32(%rsp), %edi
	movq	%r8, 24(%rsp)
.LVL87:
	.loc 1 166 7 is_stmt 1 view .LVU203
	call	umask@PLT
.LVL88:
	.loc 1 167 7 view .LVU204
	movq	%r15, %rsi
	movl	$4, %edi
	call	quotearg_style@PLT
.LVL89:
	.loc 1 168 14 is_stmt 0 view .LVU205
	testl	%r13d, %r13d
	movl	$5, %edx
	leaq	.LC27(%rip), %rsi
	.loc 1 167 7 view .LVU206
	movq	%rax, %r15
.LVL90:
	.loc 1 168 14 view .LVU207
	leaq	.LC28(%rip), %rax
	cmove	%rax, %rsi
	xorl	%edi, %edi
	call	dcgettext@PLT
.LVL91:
	.loc 1 167 7 view .LVU208
	xorl	%esi, %esi
	xorl	%edi, %edi
	movq	%r15, %rcx
	.loc 1 168 14 view .LVU209
	movq	%rax, %rdx
	.loc 1 167 7 view .LVU210
	xorl	%eax, %eax
	call	error@PLT
.LVL92:
	.loc 1 172 7 is_stmt 1 view .LVU211
	movq	24(%rsp), %r8
	movq	%r8, %rdi
	call	free@PLT
.LVL93:
	.loc 1 172 7 is_stmt 0 view .LVU212
.LBE104:
	.loc 1 176 3 is_stmt 1 view .LVU213
	.loc 1 176 6 is_stmt 0 view .LVU214
	cmpb	$0, 16(%rsp)
	jne	.L49
.LVL94:
.L56:
	.loc 1 79 7 view .LVU215
	movl	$2, %r15d
.LVL95:
.L38:
	.loc 1 205 3 is_stmt 1 view .LVU216
.LBB120:
.LBI120:
	.file 4 "/usr/include/x86_64-linux-gnu/bits/stdio.h"
	.loc 4 135 1 view .LVU217
.LBB121:
	.loc 4 137 3 view .LVU218
	.loc 4 137 3 is_stmt 0 view .LVU219
.LBE121:
.LBE120:
	.loc 1 205 6 view .LVU220
	movq	stderr(%rip), %rax
	testb	$32, (%rax)
	jne	.L30
	.loc 1 208 3 is_stmt 1 view .LVU221
	movl	$1, %esi
	movl	$1, %edi
	.loc 1 212 51 is_stmt 0 view .LVU222
	xorl	%r12d, %r12d
.LVL96:
	.loc 1 208 3 view .LVU223
	call	signal@PLT
.LVL97:
	.loc 1 210 3 is_stmt 1 view .LVU224
	.loc 1 210 21 is_stmt 0 view .LVU225
	movslq	optind(%rip), %rax
	.loc 1 210 10 view .LVU226
	leaq	(%rbx,%rax,8), %rbx
.LVL98:
	.loc 1 211 3 is_stmt 1 view .LVU227
	movq	(%rbx), %rdi
	movq	%rbx, %rsi
	call	execvp@PLT
.LVL99:
	.loc 1 212 3 view .LVU228
	.loc 1 212 21 is_stmt 0 view .LVU229
	call	__errno_location@PLT
.LVL100:
	.loc 1 221 7 view .LVU230
	movl	$2, %esi
	movl	%r15d, %edi
	.loc 1 212 21 view .LVU231
	movl	(%rax), %ebp
.LVL101:
	.loc 1 212 51 view .LVU232
	cmpl	$2, %ebp
	sete	%r12b
	addl	$126, %r12d
.LVL102:
	.loc 1 213 3 is_stmt 1 view .LVU233
	.loc 1 221 3 view .LVU234
	.loc 1 221 7 is_stmt 0 view .LVU235
	call	dup2@PLT
.LVL103:
	.loc 1 221 6 view .LVU236
	cmpl	$2, %eax
	je	.L82
.LVL104:
.L30:
	.loc 1 225 1 view .LVU237
	addq	$56, %rsp
	.cfi_remember_state
	.cfi_def_cfa_offset 56
	movl	%r12d, %eax
	popq	%rbx
	.cfi_def_cfa_offset 48
	popq	%rbp
	.cfi_def_cfa_offset 40
	popq	%r12
	.cfi_def_cfa_offset 32
	popq	%r13
	.cfi_def_cfa_offset 24
	popq	%r14
	.cfi_def_cfa_offset 16
	popq	%r15
	.cfi_def_cfa_offset 8
	ret
.LVL105:
.L78:
	.cfi_restore_state
	.loc 1 113 46 discriminator 1 view .LVU238
	call	__errno_location@PLT
.LVL106:
	.loc 1 113 43 discriminator 1 view .LVU239
	cmpl	$9, (%rax)
	jne	.L33
.LVL107:
	.loc 1 114 3 is_stmt 1 view .LVU240
	.loc 1 114 24 is_stmt 0 view .LVU241
	movl	$2, %edi
	.loc 1 113 20 view .LVU242
	movl	$1, %r14d
	.loc 1 114 24 view .LVU243
	call	isatty@PLT
.LVL108:
	.loc 1 113 43 view .LVU244
	movl	$1, 8(%rsp)
	.loc 1 114 22 view .LVU245
	testl	%eax, %eax
	.loc 1 114 24 view .LVU246
	movl	%eax, %r15d
	.loc 1 114 22 view .LVU247
	setne	%r8b
.LVL109:
	.loc 1 119 3 is_stmt 1 view .LVU248
	.loc 1 119 6 is_stmt 0 view .LVU249
	testl	%r13d, %r13d
	je	.L60
	jmp	.L59
.LVL110:
.L80:
	.loc 1 113 43 view .LVU250
	movl	%r13d, 8(%rsp)
.LVL111:
.L41:
	.loc 1 176 3 is_stmt 1 view .LVU251
	.loc 1 176 6 is_stmt 0 view .LVU252
	testb	%r8b, %r8b
	je	.L56
	.loc 1 182 7 is_stmt 1 view .LVU253
	.loc 1 182 25 is_stmt 0 view .LVU254
	movl	$3, %edx
	movl	$1030, %esi
	movl	$2, %edi
	xorl	%eax, %eax
	call	rpl_fcntl@PLT
.LVL112:
	.loc 1 78 7 view .LVU255
	movl	$1, %r14d
	.loc 1 182 25 view .LVU256
	movl	%eax, %r15d
.LVL113:
	.loc 1 185 7 is_stmt 1 view .LVU257
.L54:
	.loc 1 186 9 view .LVU258
	.loc 1 187 16 is_stmt 0 view .LVU259
	testl	%r13d, %r13d
	leaq	.LC30(%rip), %rax
.LVL114:
	.loc 1 187 16 view .LVU260
	movl	$5, %edx
	leaq	.LC29(%rip), %rsi
	cmove	%rax, %rsi
	xorl	%edi, %edi
	call	dcgettext@PLT
.LVL115:
	.loc 1 186 9 view .LVU261
	xorl	%esi, %esi
	xorl	%edi, %edi
	.loc 1 187 16 view .LVU262
	movq	%rax, %rdx
	.loc 1 186 9 view .LVU263
	xorl	%eax, %eax
	call	error@PLT
.LVL116:
.L50:
	.loc 1 191 7 is_stmt 1 view .LVU264
	.loc 1 191 11 is_stmt 0 view .LVU265
	movl	$2, %esi
	movl	%r14d, %edi
	call	dup2@PLT
.LVL117:
	.loc 1 191 10 view .LVU266
	testl	%eax, %eax
	js	.L83
.LVL118:
.L52:
	.loc 1 195 7 is_stmt 1 view .LVU267
	.loc 1 195 10 is_stmt 0 view .LVU268
	cmpl	$0, 8(%rsp)
	je	.L38
	.loc 1 196 9 is_stmt 1 view .LVU269
	movl	%r14d, %edi
	call	close@PLT
.LVL119:
	jmp	.L38
.LVL120:
.L79:
	.loc 1 113 43 is_stmt 0 view .LVU270
	movl	$0, 8(%rsp)
	.loc 1 113 20 view .LVU271
	xorl	%r14d, %r14d
.LVL121:
.L59:
	.loc 1 121 11 view .LVU272
	xorl	%ecx, %ecx
	xorl	%edi, %edi
	movl	$1, %edx
	movb	%r8b, 16(%rsp)
	.loc 1 121 7 is_stmt 1 view .LVU273
	.loc 1 121 11 is_stmt 0 view .LVU274
	leaq	.LC35(%rip), %rsi
	call	fd_reopen@PLT
.LVL122:
	.loc 1 121 10 view .LVU275
	movzbl	16(%rsp), %r8d
	testl	%eax, %eax
	js	.L84
.LVL123:
.L36:
	.loc 1 124 7 is_stmt 1 view .LVU276
	.loc 1 124 10 is_stmt 0 view .LVU277
	orl	%ebp, %r15d
	je	.L85
	.loc 1 132 3 is_stmt 1 view .LVU278
	.loc 1 132 6 is_stmt 0 view .LVU279
	testl	%ebp, %ebp
	jne	.L39
.L60:
	.loc 1 132 26 discriminator 1 view .LVU280
	andb	%r8b, %r14b
	movb	%r14b, 16(%rsp)
	je	.L41
.LBB122:
	.loc 1 134 7 is_stmt 1 view .LVU281
.LVL124:
	.loc 1 135 7 view .LVU282
	.loc 1 136 7 view .LVU283
	.loc 1 137 7 view .LVU284
	.loc 1 138 7 view .LVU285
	.loc 1 138 28 is_stmt 0 view .LVU286
	movl	$-385, %edi
	call	umask@PLT
.LVL125:
.LBB105:
.LBB106:
	.file 5 "/usr/include/x86_64-linux-gnu/bits/fcntl2.h"
	.loc 5 53 14 view .LVU287
	movl	$384, %edx
	movl	$1089, %esi
	leaq	.LC26(%rip), %rdi
.LBE106:
.LBE105:
	.loc 1 138 28 view .LVU288
	movl	%eax, 32(%rsp)
.LVL126:
	.loc 1 139 7 is_stmt 1 view .LVU289
.LBB108:
.LBI105:
	.loc 5 41 1 view .LVU290
.LBB107:
	.loc 5 43 3 view .LVU291
	.loc 5 46 3 view .LVU292
	.loc 5 48 7 view .LVU293
	.loc 5 53 7 view .LVU294
	.loc 5 53 14 is_stmt 0 view .LVU295
	xorl	%eax, %eax
.LVL127:
	.loc 5 53 14 view .LVU296
	call	open@PLT
.LVL128:
	movl	%eax, %r14d
.LVL129:
	.loc 5 53 14 view .LVU297
	jmp	.L58
.LVL130:
.L81:
	.loc 5 53 14 view .LVU298
.LBE107:
.LBE108:
.LBB109:
	.loc 1 145 11 is_stmt 1 view .LVU299
	.loc 1 145 29 is_stmt 0 view .LVU300
	call	__errno_location@PLT
.LVL131:
	.loc 1 146 30 view .LVU301
	leaq	.LC38(%rip), %rdi
	.loc 1 145 29 view .LVU302
	movq	%rax, 40(%rsp)
	.loc 1 145 15 view .LVU303
	movl	(%rax), %eax
	movl	%eax, 36(%rsp)
.LVL132:
	.loc 1 146 11 is_stmt 1 view .LVU304
	.loc 1 146 30 is_stmt 0 view .LVU305
	call	getenv@PLT
.LVL133:
	.loc 1 146 30 view .LVU306
	movq	%rax, %rdi
.LVL134:
	.loc 1 147 11 is_stmt 1 view .LVU307
	.loc 1 147 14 is_stmt 0 view .LVU308
	testq	%rax, %rax
	je	.L43
	.loc 1 149 15 is_stmt 1 view .LVU309
	.loc 1 149 25 is_stmt 0 view .LVU310
	xorl	%edx, %edx
	movq	%r15, %rsi
	call	file_name_concat@PLT
.LVL135:
	.loc 1 150 15 is_stmt 1 view .LVU311
	.loc 1 152 25 is_stmt 0 view .LVU312
	testl	%ebp, %ebp
	jne	.L86
.LVL136:
.LBB110:
.LBI110:
	.loc 5 41 1 is_stmt 1 view .LVU313
.LBB111:
	.loc 5 43 3 view .LVU314
	.loc 5 46 3 view .LVU315
	.loc 5 48 7 view .LVU316
	.loc 5 53 7 view .LVU317
	.loc 5 53 14 is_stmt 0 view .LVU318
	movq	%rax, 24(%rsp)
	movq	%rax, %rdi
	movl	$384, %edx
	xorl	%eax, %eax
.LVL137:
	.loc 5 53 14 view .LVU319
	movl	$1089, %esi
	call	open@PLT
.LVL138:
	.loc 5 53 14 view .LVU320
.LBE111:
.LBE110:
	.loc 1 154 14 view .LVU321
	movq	24(%rsp), %r8
	testl	%eax, %eax
.LBB113:
.LBB112:
	.loc 5 53 14 view .LVU322
	movl	%eax, %r14d
.LVL139:
	.loc 5 53 14 view .LVU323
.LBE112:
.LBE113:
	.loc 1 154 11 is_stmt 1 view .LVU324
	.loc 1 154 14 is_stmt 0 view .LVU325
	js	.L46
.L75:
	.loc 1 154 14 view .LVU326
	movq	%r8, %r15
	jmp	.L42
.LVL140:
.L49:
	.loc 1 154 14 view .LVU327
.LBE109:
.LBE122:
	.loc 1 182 7 is_stmt 1 view .LVU328
	.loc 1 182 25 is_stmt 0 view .LVU329
	movl	$3, %edx
	movl	$1030, %esi
	movl	$2, %edi
	xorl	%eax, %eax
	call	rpl_fcntl@PLT
.LVL141:
	movl	%eax, %r15d
.LVL142:
	.loc 1 185 7 is_stmt 1 view .LVU330
	.loc 1 185 10 is_stmt 0 view .LVU331
	testl	%ebp, %ebp
	jne	.L50
	jmp	.L54
.LVL143:
.L86:
.LBB123:
.LBB117:
	.loc 1 151 27 view .LVU332
	movl	$384, %ecx
	movl	$1089, %edx
	movq	%rax, %rsi
	movl	$1, %edi
	movq	%rax, 24(%rsp)
	call	fd_reopen@PLT
.LVL144:
	.loc 1 154 14 view .LVU333
	movq	24(%rsp), %r8
	testl	%eax, %eax
	.loc 1 151 27 view .LVU334
	movl	%eax, %r14d
.LVL145:
	.loc 1 154 11 is_stmt 1 view .LVU335
	.loc 1 154 14 is_stmt 0 view .LVU336
	jns	.L75
.LBB114:
	.loc 1 156 19 view .LVU337
	movq	40(%rsp), %rax
.LVL146:
	.loc 1 157 15 view .LVU338
	movq	%r15, %rsi
	movl	$4, %edi
	movq	%r8, 8(%rsp)
.LVL147:
	.loc 1 156 15 is_stmt 1 view .LVU339
	.loc 1 156 19 is_stmt 0 view .LVU340
	movl	(%rax), %ebp
.LVL148:
	.loc 1 157 15 is_stmt 1 view .LVU341
	call	quotearg_style@PLT
.LVL149:
	.loc 1 157 38 is_stmt 0 view .LVU342
	movl	$5, %edx
	leaq	.LC39(%rip), %rsi
	xorl	%edi, %edi
	.loc 1 157 15 view .LVU343
	movq	%rax, %r13
.LVL150:
	.loc 1 157 38 view .LVU344
	call	dcgettext@PLT
.LVL151:
	.loc 1 157 15 view .LVU345
	movl	36(%rsp), %esi
	movq	%r13, %rcx
	xorl	%edi, %edi
	.loc 1 157 38 view .LVU346
	movq	%rax, %rdx
	.loc 1 157 15 view .LVU347
	xorl	%eax, %eax
	call	error@PLT
.LVL152:
	.loc 1 158 15 is_stmt 1 view .LVU348
	.loc 1 158 18 is_stmt 0 view .LVU349
	movq	8(%rsp), %r8
	testq	%r8, %r8
	je	.L30
.L57:
	.loc 1 159 17 is_stmt 1 view .LVU350
	movq	%r8, %rsi
	movl	$4, %edi
	call	quotearg_style@PLT
.LVL153:
	.loc 1 159 41 is_stmt 0 view .LVU351
	movl	$5, %edx
	leaq	.LC39(%rip), %rsi
	.loc 1 159 17 view .LVU352
	movq	%rax, %r13
	jmp	.L76
.LVL154:
.L85:
	.loc 1 159 17 view .LVU353
.LBE114:
.LBE117:
.LBE123:
	.loc 1 125 9 is_stmt 1 view .LVU354
	.loc 1 125 22 is_stmt 0 view .LVU355
	movl	$5, %edx
	leaq	.LC37(%rip), %rsi
	xorl	%edi, %edi
	.loc 1 79 7 view .LVU356
	movl	$2, %r15d
	.loc 1 125 22 view .LVU357
	call	dcgettext@PLT
.LVL155:
	.loc 1 125 9 view .LVU358
	xorl	%esi, %esi
	xorl	%edi, %edi
	.loc 1 125 22 view .LVU359
	movq	%rax, %rdx
	.loc 1 125 9 view .LVU360
	xorl	%eax, %eax
	call	error@PLT
.LVL156:
	.loc 1 132 3 is_stmt 1 view .LVU361
	jmp	.L38
.LVL157:
.L82:
	.loc 1 222 5 view .LVU362
	movq	(%rbx), %rsi
	movl	$4, %edi
	call	quotearg_style@PLT
.LVL158:
	.loc 1 222 28 is_stmt 0 view .LVU363
	movl	$5, %edx
	leaq	.LC41(%rip), %rsi
	.loc 1 222 5 view .LVU364
	movq	%rax, %r13
.LVL159:
.L76:
	.loc 1 222 28 view .LVU365
	xorl	%edi, %edi
	call	dcgettext@PLT
.LVL160:
	.loc 1 222 5 view .LVU366
	movq	%r13, %rcx
	movl	%ebp, %esi
	xorl	%edi, %edi
	.loc 1 222 28 view .LVU367
	movq	%rax, %rdx
	.loc 1 222 5 view .LVU368
	xorl	%eax, %eax
	call	error@PLT
.LVL161:
	jmp	.L30
.LVL162:
.L84:
	.loc 1 123 16 view .LVU369
	movl	$5, %edx
	leaq	.LC36(%rip), %rsi
	xorl	%edi, %edi
	movb	%r8b, 32(%rsp)
	.loc 1 122 9 is_stmt 1 view .LVU370
	.loc 1 123 16 is_stmt 0 view .LVU371
	call	dcgettext@PLT
.LVL163:
	movq	%rax, 16(%rsp)
.LVL164:
	.loc 1 122 39 view .LVU372
	call	__errno_location@PLT
.LVL165:
	.loc 1 122 9 view .LVU373
	movq	16(%rsp), %rdx
	movl	%r12d, %edi
	movl	(%rax), %esi
	xorl	%eax, %eax
	call	error@PLT
.LVL166:
	movzbl	32(%rsp), %r8d
	jmp	.L36
.LVL167:
.L83:
	.loc 1 192 9 is_stmt 1 view .LVU374
	.loc 1 193 16 is_stmt 0 view .LVU375
	xorl	%edi, %edi
	movl	$5, %edx
	leaq	.LC40(%rip), %rsi
	call	dcgettext@PLT
.LVL168:
	movq	%rax, %r13
.LVL169:
	.loc 1 192 39 view .LVU376
	call	__errno_location@PLT
.LVL170:
	.loc 1 192 9 view .LVU377
	movq	%r13, %rdx
	movl	%r12d, %edi
	movl	(%rax), %esi
	xorl	%eax, %eax
	call	error@PLT
.LVL171:
	jmp	.L52
.LVL172:
.L43:
.LBB124:
.LBB118:
.LBB115:
	.loc 1 156 15 is_stmt 1 view .LVU378
	.loc 1 157 15 view .LVU379
	movq	%r15, %rsi
	movl	$4, %edi
	call	quotearg_style@PLT
.LVL173:
	.loc 1 157 38 is_stmt 0 view .LVU380
	xorl	%edi, %edi
	movl	$5, %edx
	leaq	.LC39(%rip), %rsi
	.loc 1 157 15 view .LVU381
	movq	%rax, %r13
.LVL174:
	.loc 1 157 38 view .LVU382
	call	dcgettext@PLT
.LVL175:
	.loc 1 157 15 view .LVU383
	movl	36(%rsp), %esi
	movq	%r13, %rcx
	xorl	%edi, %edi
	.loc 1 157 38 view .LVU384
	movq	%rax, %rdx
	.loc 1 157 15 view .LVU385
	xorl	%eax, %eax
	call	error@PLT
.LVL176:
	.loc 1 158 15 is_stmt 1 view .LVU386
	jmp	.L30
.LVL177:
.L77:
	.loc 1 158 15 is_stmt 0 view .LVU387
.LBE115:
.LBE118:
.LBE124:
	.loc 1 107 7 is_stmt 1 view .LVU388
	.loc 1 107 20 is_stmt 0 view .LVU389
	movl	$5, %edx
	leaq	.LC34(%rip), %rsi
	xorl	%edi, %edi
	call	dcgettext@PLT
.LVL178:
	.loc 1 107 7 view .LVU390
	xorl	%edi, %edi
	xorl	%esi, %esi
	.loc 1 107 20 view .LVU391
	movq	%rax, %rdx
	.loc 1 107 7 view .LVU392
	xorl	%eax, %eax
	call	error@PLT
.LVL179:
	.loc 1 108 7 is_stmt 1 view .LVU393
	movl	%r12d, %edi
	call	usage
.LVL180:
.L46:
.LBB125:
.LBB119:
.LBB116:
	.loc 1 156 19 is_stmt 0 view .LVU394
	movq	40(%rsp), %rax
.LVL181:
	.loc 1 157 15 view .LVU395
	movq	%r15, %rsi
	movl	$4, %edi
	movq	%r8, 8(%rsp)
.LVL182:
	.loc 1 156 15 is_stmt 1 view .LVU396
	.loc 1 156 19 is_stmt 0 view .LVU397
	movl	(%rax), %ebp
.LVL183:
	.loc 1 157 15 is_stmt 1 view .LVU398
	call	quotearg_style@PLT
.LVL184:
	.loc 1 157 38 is_stmt 0 view .LVU399
	movl	$5, %edx
	leaq	.LC39(%rip), %rsi
	xorl	%edi, %edi
	.loc 1 157 15 view .LVU400
	movq	%rax, %r13
.LVL185:
	.loc 1 157 38 view .LVU401
	call	dcgettext@PLT
.LVL186:
	.loc 1 157 15 view .LVU402
	movl	36(%rsp), %esi
	movq	%r13, %rcx
	xorl	%edi, %edi
	.loc 1 157 38 view .LVU403
	movq	%rax, %rdx
	.loc 1 157 15 view .LVU404
	xorl	%eax, %eax
	call	error@PLT
.LVL187:
	.loc 1 158 15 is_stmt 1 view .LVU405
	movq	8(%rsp), %r8
	jmp	.L57
.LBE116:
.LBE119:
.LBE125:
	.cfi_endproc
.LFE136:
	.size	main, .-main
	.text
.Letext0:
	.file 6 "/usr/lib/gcc/x86_64-linux-gnu/9/include/stddef.h"
	.file 7 "/usr/include/x86_64-linux-gnu/bits/types.h"
	.file 8 "/usr/include/x86_64-linux-gnu/bits/types/struct_FILE.h"
	.file 9 "/usr/include/x86_64-linux-gnu/bits/types/FILE.h"
	.file 10 "/usr/include/stdio.h"
	.file 11 "/usr/include/x86_64-linux-gnu/bits/sys_errlist.h"
	.file 12 "/usr/include/x86_64-linux-gnu/sys/types.h"
	.file 13 "./lib/sys/select.h"
	.file 14 "/usr/include/signal.h"
	.file 15 "/usr/include/time.h"
	.file 16 "/usr/include/unistd.h"
	.file 17 "/usr/include/x86_64-linux-gnu/bits/getopt_core.h"
	.file 18 "/usr/include/errno.h"
	.file 19 "src/version.h"
	.file 20 "./lib/exitfail.h"
	.file 21 "./lib/version-etc.h"
	.file 22 "./lib/progname.h"
	.file 23 "./lib/quotearg.h"
	.file 24 "./lib/error.h"
	.file 25 "/usr/include/libintl.h"
	.file 26 "/usr/include/stdlib.h"
	.file 27 "./lib/filenamecat.h"
	.file 28 "./lib/fd-reopen.h"
	.file 29 "/usr/include/x86_64-linux-gnu/sys/stat.h"
	.file 30 "/usr/include/locale.h"
	.file 31 "./lib/long-options.h"
	.file 32 "./lib/fcntl.h"
	.file 33 "/usr/include/string.h"
	.section	.note.GNU-stack,"",@progbits
	.section	.note.gnu.property,"a"
	.align 8
	.long	 1f - 0f
	.long	 4f - 1f
	.long	 5
0:
	.string	 "GNU"
1:
	.align 8
	.long	 0xc0000002
	.long	 3f - 2f
2:
	.long	 0x3
3:
	.align 8
4:
