	.file	"od.c"
	.text
.Ltext0:
	.p2align 4
	.type	format_address_none, @function
format_address_none:
.LVL0:
.LFB159:
	.file 1 "src/od.c"
	.loc 1 1118 1 view -0
	.cfi_startproc
	.loc 1 1118 1 is_stmt 0 view .LVU1
	endbr64
	.loc 1 1119 1 is_stmt 1 view .LVU2
	ret
	.cfi_endproc
.LFE159:
	.size	format_address_none, .-format_address_none
	.section	.rodata.str1.1,"aMS",@progbits,1
.LC0:
	.string	"0123456789abcdef"
	.text
	.p2align 4
	.type	format_address_std, @function
format_address_std:
.LVL1:
.LFB160:
	.loc 1 1123 1 view -0
	.cfi_startproc
	.loc 1 1123 1 is_stmt 0 view .LVU4
	endbr64
	subq	$56, %rsp
	.cfi_def_cfa_offset 64
	.loc 1 1123 1 view .LVU5
	movq	%fs:40, %rax
	movq	%rax, 40(%rsp)
	xorl	%eax, %eax
	.loc 1 1124 3 is_stmt 1 view .LVU6
	.loc 1 1125 3 view .LVU7
.LVL2:
	.loc 1 1126 3 view .LVU8
	.loc 1 1128 3 view .LVU9
	.loc 1 1130 10 is_stmt 0 view .LVU10
	leaq	23(%rsp), %rcx
	.loc 1 1130 14 view .LVU11
	movslq	address_pad_len(%rip), %rax
	.loc 1 1128 8 view .LVU12
	movb	$0, 24(%rsp)
	.loc 1 1129 3 is_stmt 1 view .LVU13
.LVL3:
	.loc 1 1130 10 is_stmt 0 view .LVU14
	movq	%rcx, %r8
	.loc 1 1129 8 view .LVU15
	movb	%sil, 23(%rsp)
	.loc 1 1130 3 is_stmt 1 view .LVU16
	.loc 1 1130 10 is_stmt 0 view .LVU17
	subq	%rax, %r8
.LVL4:
	.loc 1 1134 3 is_stmt 1 view .LVU18
	movl	address_base(%rip), %eax
	cmpl	$10, %eax
	je	.L11
	cmpl	$16, %eax
	je	.L12
	cmpl	$8, %eax
	je	.L7
.LVL5:
.L6:
	.loc 1 1155 9 discriminator 1 view .LVU19
	cmpq	%rcx, %r8
	jnb	.L20
	.p2align 4,,10
	.p2align 3
.L8:
	.loc 1 1156 5 view .LVU20
	.loc 1 1156 10 is_stmt 0 view .LVU21
	subq	$1, %rcx
.LVL6:
	.loc 1 1156 10 view .LVU22
	movb	$48, (%rcx)
	.loc 1 1155 9 is_stmt 1 view .LVU23
	cmpq	%rcx, %r8
	jne	.L8
.LVL7:
.L9:
	.loc 1 1158 3 view .LVU24
	movq	stdout(%rip), %rsi
	movq	%r8, %rdi
	call	fputs_unlocked@PLT
.LVL8:
	.loc 1 1159 1 is_stmt 0 view .LVU25
	movq	40(%rsp), %rax
	xorq	%fs:40, %rax
	jne	.L21
	addq	$56, %rsp
	.cfi_remember_state
	.cfi_def_cfa_offset 8
	ret
.LVL9:
	.p2align 4,,10
	.p2align 3
.L7:
	.cfi_restore_state
	.loc 1 1137 7 is_stmt 1 discriminator 1 view .LVU26
	.loc 1 1138 9 discriminator 1 view .LVU27
	.loc 1 1138 31 is_stmt 0 discriminator 1 view .LVU28
	movl	%edi, %eax
	.loc 1 1138 14 discriminator 1 view .LVU29
	subq	$1, %rcx
.LVL10:
	.loc 1 1138 31 discriminator 1 view .LVU30
	andl	$7, %eax
	.loc 1 1138 20 discriminator 1 view .LVU31
	addl	$48, %eax
	.loc 1 1139 7 discriminator 1 view .LVU32
	shrq	$3, %rdi
.LVL11:
	.loc 1 1138 20 discriminator 1 view .LVU33
	movb	%al, (%rcx)
	.loc 1 1139 13 is_stmt 1 discriminator 1 view .LVU34
	.loc 1 1139 7 is_stmt 0 discriminator 1 view .LVU35
	jne	.L7
	jmp	.L6
.LVL12:
	.p2align 4,,10
	.p2align 3
.L12:
	.loc 1 1139 7 discriminator 1 view .LVU36
	leaq	.LC0(%rip), %rdx
.LVL13:
	.p2align 4,,10
	.p2align 3
.L5:
	.loc 1 1149 7 is_stmt 1 discriminator 1 view .LVU37
	.loc 1 1150 9 discriminator 1 view .LVU38
	.loc 1 1150 43 is_stmt 0 discriminator 1 view .LVU39
	movq	%rdi, %rax
	.loc 1 1150 14 discriminator 1 view .LVU40
	subq	$1, %rcx
.LVL14:
	.loc 1 1150 43 discriminator 1 view .LVU41
	andl	$15, %eax
	.loc 1 1151 7 discriminator 1 view .LVU42
	shrq	$4, %rdi
.LVL15:
	.loc 1 1150 14 discriminator 1 view .LVU43
	movzbl	(%rdx,%rax), %eax
	movb	%al, (%rcx)
	.loc 1 1151 13 is_stmt 1 discriminator 1 view .LVU44
	.loc 1 1151 7 is_stmt 0 discriminator 1 view .LVU45
	jne	.L5
	.loc 1 1155 9 is_stmt 1 view .LVU46
	cmpq	%rcx, %r8
	jb	.L8
.LVL16:
.L20:
	.loc 1 1155 9 is_stmt 0 view .LVU47
	movq	%rcx, %r8
.LVL17:
	.loc 1 1155 9 view .LVU48
	jmp	.L9
.LVL18:
	.p2align 4,,10
	.p2align 3
.L11:
	.loc 1 1144 31 view .LVU49
	movabsq	$-3689348814741910323, %rsi
.LVL19:
	.p2align 4,,10
	.p2align 3
.L4:
	.loc 1 1143 7 is_stmt 1 discriminator 1 view .LVU50
	.loc 1 1144 9 discriminator 1 view .LVU51
	.loc 1 1144 31 is_stmt 0 discriminator 1 view .LVU52
	movq	%rdi, %rax
	movq	%rdi, %r9
	.loc 1 1144 14 discriminator 1 view .LVU53
	subq	$1, %rcx
.LVL20:
	.loc 1 1144 31 discriminator 1 view .LVU54
	mulq	%rsi
	shrq	$3, %rdx
	leaq	(%rdx,%rdx,4), %rax
	addq	%rax, %rax
	subq	%rax, %r9
	movq	%r9, %rax
	.loc 1 1144 20 discriminator 1 view .LVU55
	addl	$48, %eax
	movb	%al, (%rcx)
	.loc 1 1145 13 is_stmt 1 discriminator 1 view .LVU56
	movq	%rdi, %rax
	.loc 1 1145 23 is_stmt 0 discriminator 1 view .LVU57
	movq	%rdx, %rdi
.LVL21:
	.loc 1 1145 7 discriminator 1 view .LVU58
	cmpq	$9, %rax
	ja	.L4
	jmp	.L6
.LVL22:
.L21:
	.loc 1 1159 1 view .LVU59
	call	__stack_chk_fail@PLT
.LVL23:
	.cfi_endproc
.LFE160:
	.size	format_address_std, .-format_address_std
	.section	.rodata.str1.1
.LC1:
	.string	"Bb"
	.text
	.p2align 4
	.type	parse_old_offset, @function
parse_old_offset:
.LVL24:
.LFB167:
	.loc 1 1336 1 is_stmt 1 view -0
	.cfi_startproc
	.loc 1 1337 3 view .LVU61
	.loc 1 1339 3 view .LVU62
	.loc 1 1339 7 is_stmt 0 view .LVU63
	movzbl	(%rdi), %edx
	.loc 1 1339 6 view .LVU64
	testb	%dl, %dl
	je	.L31
	.loc 1 1336 1 view .LVU65
	pushq	%r12
	.cfi_def_cfa_offset 16
	.cfi_offset 12, -16
	movq	%rsi, %r12
	.loc 1 1343 3 is_stmt 1 view .LVU66
	.loc 1 1336 1 is_stmt 0 view .LVU67
	pushq	%rbp
	.cfi_def_cfa_offset 24
	.cfi_offset 6, -24
	movq	%rdi, %rbp
	pushq	%rcx
	.cfi_def_cfa_offset 32
	.loc 1 1343 6 view .LVU68
	cmpb	$43, %dl
	je	.L36
.LVL25:
.L24:
	.loc 1 1349 3 is_stmt 1 view .LVU69
	.loc 1 1349 7 is_stmt 0 view .LVU70
	movl	$46, %esi
.LVL26:
	.loc 1 1349 7 view .LVU71
	movq	%rbp, %rdi
	call	strchr@PLT
.LVL27:
	.loc 1 1350 11 view .LVU72
	movl	$10, %edx
	.loc 1 1349 6 view .LVU73
	testq	%rax, %rax
	je	.L37
.L25:
.LVL28:
	.loc 1 1359 3 is_stmt 1 view .LVU74
	.loc 1 1359 10 is_stmt 0 view .LVU75
	movq	%r12, %rcx
	xorl	%esi, %esi
	leaq	.LC1(%rip), %r8
	movq	%rbp, %rdi
	call	xstrtoumax@PLT
.LVL29:
	.loc 1 1360 1 view .LVU76
	popq	%rdx
	.cfi_remember_state
	.cfi_def_cfa_offset 24
	popq	%rbp
	.cfi_def_cfa_offset 16
.LVL30:
	.loc 1 1359 52 view .LVU77
	testl	%eax, %eax
	.loc 1 1360 1 view .LVU78
	popq	%r12
	.cfi_def_cfa_offset 8
.LVL31:
	.loc 1 1359 52 view .LVU79
	sete	%al
	.loc 1 1360 1 view .LVU80
	ret
.LVL32:
.L36:
	.cfi_restore_state
	.loc 1 1344 5 is_stmt 1 view .LVU81
	addq	$1, %rbp
.LVL33:
	.loc 1 1344 5 is_stmt 0 view .LVU82
	jmp	.L24
.LVL34:
.L31:
	.cfi_def_cfa_offset 8
	.cfi_restore 6
	.cfi_restore 12
	.loc 1 1344 5 view .LVU83
	xorl	%eax, %eax
	.loc 1 1360 1 view .LVU84
	ret
.LVL35:
.L37:
	.cfi_def_cfa_offset 32
	.cfi_offset 6, -24
	.cfi_offset 12, -16
	.loc 1 1353 7 is_stmt 1 view .LVU85
	.loc 1 1353 10 is_stmt 0 view .LVU86
	cmpb	$48, 0(%rbp)
	.loc 1 1356 15 view .LVU87
	movl	$8, %edx
	.loc 1 1353 10 view .LVU88
	jne	.L25
	.loc 1 1353 39 discriminator 1 view .LVU89
	movzbl	1(%rbp), %eax
	.loc 1 1354 15 discriminator 1 view .LVU90
	xorl	%edx, %edx
	.loc 1 1353 39 discriminator 1 view .LVU91
	andl	$-33, %eax
	.loc 1 1354 15 discriminator 1 view .LVU92
	cmpb	$88, %al
	sete	%dl
	leal	8(,%rdx,8), %edx
	jmp	.L25
	.cfi_endproc
.LFE167:
	.size	parse_old_offset, .-parse_old_offset
	.section	.rodata.str1.1
.LC2:
	.string	"del"
.LC3:
	.string	"%*s"
	.text
	.p2align 4
	.type	print_named_ascii, @function
print_named_ascii:
.LVL36:
.LFB151:
	.loc 1 503 1 is_stmt 1 view -0
	.cfi_startproc
	.loc 1 503 1 is_stmt 0 view .LVU94
	endbr64
	pushq	%r15
	.cfi_def_cfa_offset 16
	.cfi_offset 15, -16
	pushq	%r14
	.cfi_def_cfa_offset 24
	.cfi_offset 14, -24
	pushq	%r13
	.cfi_def_cfa_offset 32
	.cfi_offset 13, -32
	pushq	%r12
	.cfi_def_cfa_offset 40
	.cfi_offset 12, -40
	pushq	%rbp
	.cfi_def_cfa_offset 48
	.cfi_offset 6, -48
	pushq	%rbx
	.cfi_def_cfa_offset 56
	.cfi_offset 3, -56
	subq	$40, %rsp
	.cfi_def_cfa_offset 96
	.loc 1 503 1 view .LVU95
	movl	%r8d, 4(%rsp)
	movq	%fs:40, %rax
	movq	%rax, 24(%rsp)
	xorl	%eax, %eax
	.loc 1 504 3 is_stmt 1 view .LVU96
.LVL37:
	.loc 1 505 3 view .LVU97
	.loc 1 506 3 view .LVU98
	.loc 1 507 3 view .LVU99
	.loc 1 507 20 view .LVU100
	.loc 1 507 3 is_stmt 0 view .LVU101
	cmpq	%rsi, %rdi
	jbe	.L38
	movslq	%r9d, %r13
	leaq	-1(%rdi), %r8
.LVL38:
	.loc 1 507 3 view .LVU102
	movq	%rdi, %r12
	movq	%rdi, %rbx
	imulq	%r13, %r8
	subq	%rsi, %r12
.LBB248:
	.loc 1 522 13 view .LVU103
	leaq	22(%rsp), %rax
	movq	%rdx, %r15
	movq	%rax, 8(%rsp)
	movl	%r9d, %ebp
	addq	%rdx, %r12
	movq	%r8, %r14
	jmp	.L42
.LVL39:
	.p2align 4,,10
	.p2align 3
.L49:
	.loc 1 517 9 is_stmt 1 view .LVU104
	.loc 1 517 11 is_stmt 0 view .LVU105
	movzbl	%dl, %edx
	.loc 1 517 11 view .LVU106
	leaq	charname(%rip), %rcx
	leaq	(%rcx,%rdx,4), %r10
.LVL40:
.L40:
	.loc 1 525 7 is_stmt 1 discriminator 2 view .LVU107
	.loc 1 525 37 is_stmt 0 discriminator 2 view .LVU108
	subl	%eax, %esi
.LVL41:
	.loc 1 525 7 discriminator 2 view .LVU109
	movq	%r10, %rdx
	addl	4(%rsp), %esi
	xorl	%eax, %eax
.LVL42:
	.loc 1 525 7 discriminator 2 view .LVU110
	leaq	.LC3(%rip), %rdi
	subq	%r13, %r14
.LVL43:
	.loc 1 525 7 discriminator 2 view .LVU111
	call	xprintf@PLT
.LVL44:
	.loc 1 526 7 is_stmt 1 discriminator 2 view .LVU112
	.loc 1 526 7 is_stmt 0 discriminator 2 view .LVU113
.LBE248:
	.loc 1 507 31 is_stmt 1 discriminator 2 view .LVU114
	.loc 1 507 20 discriminator 2 view .LVU115
	.loc 1 507 3 is_stmt 0 discriminator 2 view .LVU116
	cmpq	%r12, %r15
	je	.L38
.LVL45:
.L42:
.LBB249:
	.loc 1 509 7 is_stmt 1 view .LVU117
	.loc 1 509 36 is_stmt 0 view .LVU118
	movq	%r14, %rax
	xorl	%edx, %edx
	.loc 1 510 24 view .LVU119
	addq	$1, %r15
.LVL46:
	.loc 1 510 24 view .LVU120
	movl	%ebp, %esi
	.loc 1 509 36 view .LVU121
	divq	%rbx
	movzbl	-1(%r15), %edx
	andl	$127, %edx
	.loc 1 515 11 view .LVU122
	leaq	.LC2(%rip), %r10
	.loc 1 509 11 view .LVU123
	movl	%eax, %ebp
.LVL47:
	.loc 1 510 7 is_stmt 1 view .LVU124
	.loc 1 511 7 view .LVU125
	.loc 1 512 7 view .LVU126
	.loc 1 514 7 view .LVU127
	.loc 1 514 10 is_stmt 0 view .LVU128
	cmpb	$127, %dl
	je	.L40
	.loc 1 516 12 is_stmt 1 view .LVU129
	.loc 1 516 15 is_stmt 0 view .LVU130
	cmpb	$32, %dl
	jbe	.L49
	.loc 1 520 11 is_stmt 1 view .LVU131
	.loc 1 520 18 is_stmt 0 view .LVU132
	movb	%dl, 22(%rsp)
	.loc 1 521 11 is_stmt 1 view .LVU133
	.loc 1 522 13 is_stmt 0 view .LVU134
	movq	8(%rsp), %r10
	.loc 1 521 18 view .LVU135
	movb	$0, 23(%rsp)
	.loc 1 522 11 is_stmt 1 view .LVU136
.LVL48:
	.loc 1 522 11 is_stmt 0 view .LVU137
	jmp	.L40
.LVL49:
	.p2align 4,,10
	.p2align 3
.L38:
	.loc 1 522 11 view .LVU138
.LBE249:
	.loc 1 528 1 view .LVU139
	movq	24(%rsp), %rax
	xorq	%fs:40, %rax
	jne	.L50
	addq	$40, %rsp
	.cfi_remember_state
	.cfi_def_cfa_offset 56
	popq	%rbx
	.cfi_def_cfa_offset 48
	popq	%rbp
	.cfi_def_cfa_offset 40
	popq	%r12
	.cfi_def_cfa_offset 32
	popq	%r13
	.cfi_def_cfa_offset 24
	popq	%r14
	.cfi_def_cfa_offset 16
	popq	%r15
	.cfi_def_cfa_offset 8
	ret
.L50:
	.cfi_restore_state
	call	__stack_chk_fail@PLT
.LVL50:
	.cfi_endproc
.LFE151:
	.size	print_named_ascii, .-print_named_ascii
	.p2align 4
	.type	print_long_long, @function
print_long_long:
.LVL51:
.LFB146:
	.loc 1 477 1 is_stmt 1 view -0
	.cfi_startproc
	.loc 1 477 1 is_stmt 0 view .LVU141
	endbr64
	pushq	%r15
	.cfi_def_cfa_offset 16
	.cfi_offset 15, -16
	pushq	%r14
	.cfi_def_cfa_offset 24
	.cfi_offset 14, -24
	pushq	%r13
	.cfi_def_cfa_offset 32
	.cfi_offset 13, -32
	pushq	%r12
	.cfi_def_cfa_offset 40
	.cfi_offset 12, -40
	pushq	%rbp
	.cfi_def_cfa_offset 48
	.cfi_offset 6, -48
	pushq	%rbx
	.cfi_def_cfa_offset 56
	.cfi_offset 3, -56
	subq	$56, %rsp
	.cfi_def_cfa_offset 112
	.loc 1 477 1 view .LVU142
	movq	%rdi, (%rsp)
	movq	%rsi, 8(%rsp)
	movl	%r8d, 20(%rsp)
	movq	%fs:40, %rax
	movq	%rax, 40(%rsp)
	xorl	%eax, %eax
	.loc 1 477 1 is_stmt 1 view .LVU143
.LVL52:
	.loc 1 477 1 view .LVU144
	.loc 1 477 1 view .LVU145
	.loc 1 477 1 view .LVU146
	.loc 1 477 1 view .LVU147
	cmpq	%rsi, %rdi
	jbe	.L51
	movslq	%r9d, %rax
	movq	%rcx, %r13
	leaq	-1(%rdi), %rcx
.LVL53:
	.loc 1 477 1 is_stmt 0 view .LVU148
	movq	%rdx, %rbx
	imulq	%rax, %rcx
	movq	%rax, 24(%rsp)
	movl	%r9d, %r12d
	movq	%rdi, %r14
	leaq	40(%rsp), %rbp
	movq	%rcx, %r15
	jmp	.L56
.LVL54:
	.p2align 4,,10
	.p2align 3
.L53:
.LBB250:
	.loc 1 477 1 is_stmt 1 discriminator 3 view .LVU149
	movq	(%rbx), %rdx
.LVL55:
.L55:
	.loc 1 477 1 discriminator 8 view .LVU150
	movq	%r13, %rdi
	xorl	%eax, %eax
	addq	$8, %rbx
.LVL56:
	.loc 1 477 1 discriminator 8 view .LVU151
	call	xprintf@PLT
.LVL57:
	.loc 1 477 1 discriminator 8 view .LVU152
	.loc 1 477 1 is_stmt 0 discriminator 8 view .LVU153
.LBE250:
	.loc 1 477 1 is_stmt 1 discriminator 8 view .LVU154
	.loc 1 477 1 discriminator 8 view .LVU155
	subq	24(%rsp), %r15
.LVL58:
	.loc 1 477 1 is_stmt 0 discriminator 8 view .LVU156
	cmpq	8(%rsp), %r14
	je	.L51
.LVL59:
.L56:
.LBB252:
	.loc 1 477 1 is_stmt 1 discriminator 10 view .LVU157
	xorl	%edx, %edx
	movq	%r15, %rax
	movl	%r12d, %esi
	subq	$1, %r14
.LVL60:
	.loc 1 477 1 is_stmt 0 discriminator 10 view .LVU158
	divq	(%rsp)
	subl	%eax, %esi
	addl	20(%rsp), %esi
	cmpb	$0, input_swap(%rip)
	movl	%eax, %r12d
.LVL61:
	.loc 1 477 1 is_stmt 1 discriminator 10 view .LVU159
	.loc 1 477 1 discriminator 10 view .LVU160
	.loc 1 477 1 discriminator 10 view .LVU161
	je	.L53
	leaq	7(%rbx), %rdx
	leaq	32(%rsp), %rax
.LVL62:
	.p2align 4,,10
	.p2align 3
.L54:
.LBB251:
	.loc 1 477 1 discriminator 6 view .LVU162
	movzbl	(%rdx), %ecx
	addq	$1, %rax
.LVL63:
	.loc 1 477 1 is_stmt 0 discriminator 6 view .LVU163
	subq	$1, %rdx
	movb	%cl, -1(%rax)
	.loc 1 477 1 is_stmt 1 discriminator 6 view .LVU164
.LVL64:
	.loc 1 477 1 discriminator 6 view .LVU165
	cmpq	%rax, %rbp
	jne	.L54
	.loc 1 477 1 discriminator 7 view .LVU166
	movq	32(%rsp), %rdx
.LVL65:
	.loc 1 477 1 is_stmt 0 discriminator 7 view .LVU167
.LBE251:
	jmp	.L55
.LVL66:
	.p2align 4,,10
	.p2align 3
.L51:
	.loc 1 477 1 discriminator 7 view .LVU168
.LBE252:
	.loc 1 477 1 view .LVU169
	movq	40(%rsp), %rax
	xorq	%fs:40, %rax
	jne	.L62
	addq	$56, %rsp
	.cfi_remember_state
	.cfi_def_cfa_offset 56
.LVL67:
	.loc 1 477 1 view .LVU170
	popq	%rbx
	.cfi_def_cfa_offset 48
	popq	%rbp
	.cfi_def_cfa_offset 40
	popq	%r12
	.cfi_def_cfa_offset 32
	popq	%r13
	.cfi_def_cfa_offset 24
	popq	%r14
	.cfi_def_cfa_offset 16
	popq	%r15
	.cfi_def_cfa_offset 8
	ret
.LVL68:
.L62:
	.cfi_restore_state
	.loc 1 477 1 view .LVU171
	call	__stack_chk_fail@PLT
.LVL69:
	.cfi_endproc
.LFE146:
	.size	print_long_long, .-print_long_long
	.p2align 4
	.type	print_long, @function
print_long:
.LVL70:
.LFB145:
	.loc 1 476 1 is_stmt 1 view -0
	.cfi_startproc
	.loc 1 476 1 is_stmt 0 view .LVU173
	endbr64
	pushq	%r15
	.cfi_def_cfa_offset 16
	.cfi_offset 15, -16
	pushq	%r14
	.cfi_def_cfa_offset 24
	.cfi_offset 14, -24
	pushq	%r13
	.cfi_def_cfa_offset 32
	.cfi_offset 13, -32
	pushq	%r12
	.cfi_def_cfa_offset 40
	.cfi_offset 12, -40
	pushq	%rbp
	.cfi_def_cfa_offset 48
	.cfi_offset 6, -48
	pushq	%rbx
	.cfi_def_cfa_offset 56
	.cfi_offset 3, -56
	subq	$56, %rsp
	.cfi_def_cfa_offset 112
	.loc 1 476 1 view .LVU174
	movq	%rdi, (%rsp)
	movq	%rsi, 8(%rsp)
	movl	%r8d, 20(%rsp)
	movq	%fs:40, %rax
	movq	%rax, 40(%rsp)
	xorl	%eax, %eax
	.loc 1 476 1 is_stmt 1 view .LVU175
.LVL71:
	.loc 1 476 1 view .LVU176
	.loc 1 476 1 view .LVU177
	.loc 1 476 1 view .LVU178
	.loc 1 476 1 view .LVU179
	cmpq	%rsi, %rdi
	jbe	.L63
	movslq	%r9d, %rax
	movq	%rcx, %r13
	leaq	-1(%rdi), %rcx
.LVL72:
	.loc 1 476 1 is_stmt 0 view .LVU180
	movq	%rdx, %rbx
	imulq	%rax, %rcx
	movq	%rax, 24(%rsp)
	movl	%r9d, %r12d
	movq	%rdi, %r14
	leaq	40(%rsp), %rbp
	movq	%rcx, %r15
	jmp	.L68
.LVL73:
	.p2align 4,,10
	.p2align 3
.L65:
.LBB253:
	.loc 1 476 1 is_stmt 1 discriminator 3 view .LVU181
	movq	(%rbx), %rdx
.LVL74:
.L67:
	.loc 1 476 1 discriminator 8 view .LVU182
	movq	%r13, %rdi
	xorl	%eax, %eax
	addq	$8, %rbx
.LVL75:
	.loc 1 476 1 discriminator 8 view .LVU183
	call	xprintf@PLT
.LVL76:
	.loc 1 476 1 discriminator 8 view .LVU184
	.loc 1 476 1 is_stmt 0 discriminator 8 view .LVU185
.LBE253:
	.loc 1 476 1 is_stmt 1 discriminator 8 view .LVU186
	.loc 1 476 1 discriminator 8 view .LVU187
	subq	24(%rsp), %r15
.LVL77:
	.loc 1 476 1 is_stmt 0 discriminator 8 view .LVU188
	cmpq	8(%rsp), %r14
	je	.L63
.LVL78:
.L68:
.LBB255:
	.loc 1 476 1 is_stmt 1 discriminator 10 view .LVU189
	xorl	%edx, %edx
	movq	%r15, %rax
	movl	%r12d, %esi
	subq	$1, %r14
.LVL79:
	.loc 1 476 1 is_stmt 0 discriminator 10 view .LVU190
	divq	(%rsp)
	subl	%eax, %esi
	addl	20(%rsp), %esi
	cmpb	$0, input_swap(%rip)
	movl	%eax, %r12d
.LVL80:
	.loc 1 476 1 is_stmt 1 discriminator 10 view .LVU191
	.loc 1 476 1 discriminator 10 view .LVU192
	.loc 1 476 1 discriminator 10 view .LVU193
	je	.L65
	leaq	7(%rbx), %rdx
	leaq	32(%rsp), %rax
.LVL81:
	.p2align 4,,10
	.p2align 3
.L66:
.LBB254:
	.loc 1 476 1 discriminator 6 view .LVU194
	movzbl	(%rdx), %ecx
	addq	$1, %rax
.LVL82:
	.loc 1 476 1 is_stmt 0 discriminator 6 view .LVU195
	subq	$1, %rdx
	movb	%cl, -1(%rax)
	.loc 1 476 1 is_stmt 1 discriminator 6 view .LVU196
.LVL83:
	.loc 1 476 1 discriminator 6 view .LVU197
	cmpq	%rax, %rbp
	jne	.L66
	.loc 1 476 1 discriminator 7 view .LVU198
	movq	32(%rsp), %rdx
.LVL84:
	.loc 1 476 1 is_stmt 0 discriminator 7 view .LVU199
.LBE254:
	jmp	.L67
.LVL85:
	.p2align 4,,10
	.p2align 3
.L63:
	.loc 1 476 1 discriminator 7 view .LVU200
.LBE255:
	.loc 1 476 1 view .LVU201
	movq	40(%rsp), %rax
	xorq	%fs:40, %rax
	jne	.L74
	addq	$56, %rsp
	.cfi_remember_state
	.cfi_def_cfa_offset 56
.LVL86:
	.loc 1 476 1 view .LVU202
	popq	%rbx
	.cfi_def_cfa_offset 48
	popq	%rbp
	.cfi_def_cfa_offset 40
	popq	%r12
	.cfi_def_cfa_offset 32
	popq	%r13
	.cfi_def_cfa_offset 24
	popq	%r14
	.cfi_def_cfa_offset 16
	popq	%r15
	.cfi_def_cfa_offset 8
	ret
.LVL87:
.L74:
	.cfi_restore_state
	.loc 1 476 1 view .LVU203
	call	__stack_chk_fail@PLT
.LVL88:
	.cfi_endproc
.LFE145:
	.size	print_long, .-print_long
	.p2align 4
	.type	print_int, @function
print_int:
.LVL89:
.LFB144:
	.loc 1 475 1 is_stmt 1 view -0
	.cfi_startproc
	.loc 1 475 1 is_stmt 0 view .LVU205
	endbr64
	pushq	%r15
	.cfi_def_cfa_offset 16
	.cfi_offset 15, -16
	pushq	%r14
	.cfi_def_cfa_offset 24
	.cfi_offset 14, -24
	pushq	%r13
	.cfi_def_cfa_offset 32
	.cfi_offset 13, -32
	pushq	%r12
	.cfi_def_cfa_offset 40
	.cfi_offset 12, -40
	pushq	%rbp
	.cfi_def_cfa_offset 48
	.cfi_offset 6, -48
	pushq	%rbx
	.cfi_def_cfa_offset 56
	.cfi_offset 3, -56
	subq	$56, %rsp
	.cfi_def_cfa_offset 112
	.loc 1 475 1 view .LVU206
	movq	%rdi, (%rsp)
	movl	%r8d, 12(%rsp)
	movq	%fs:40, %rax
	movq	%rax, 40(%rsp)
	xorl	%eax, %eax
	.loc 1 475 1 is_stmt 1 view .LVU207
.LVL90:
	.loc 1 475 1 view .LVU208
	.loc 1 475 1 view .LVU209
	.loc 1 475 1 view .LVU210
	.loc 1 475 1 view .LVU211
	cmpq	%rsi, %rdi
	jbe	.L75
	movslq	%r9d, %rax
	leaq	-1(%rdi), %r8
.LVL91:
	.loc 1 475 1 is_stmt 0 view .LVU212
	subq	%rsi, %rdi
.LVL92:
	.loc 1 475 1 view .LVU213
	movq	%rdx, %rbp
	imulq	%rax, %r8
	movq	%rax, 24(%rsp)
	movq	%rcx, %r12
	movl	%r9d, %r14d
	movq	%rdi, 16(%rsp)
	xorl	%r15d, %r15d
	movq	%r8, %r13
	jmp	.L79
.LVL93:
	.p2align 4,,10
	.p2align 3
.L77:
.LBB256:
	.loc 1 475 1 is_stmt 1 discriminator 3 view .LVU214
	movl	0(%rbp,%r15,4), %edx
.LVL94:
.L78:
	.loc 1 475 1 discriminator 8 view .LVU215
	.loc 1 475 1 discriminator 8 view .LVU216
	movq	%r12, %rdi
	xorl	%eax, %eax
	addq	$1, %r15
.LVL95:
	.loc 1 475 1 is_stmt 0 discriminator 8 view .LVU217
	call	xprintf@PLT
.LVL96:
	.loc 1 475 1 is_stmt 1 discriminator 8 view .LVU218
	.loc 1 475 1 is_stmt 0 discriminator 8 view .LVU219
.LBE256:
	.loc 1 475 1 is_stmt 1 discriminator 8 view .LVU220
	.loc 1 475 1 discriminator 8 view .LVU221
	subq	24(%rsp), %r13
.LVL97:
	.loc 1 475 1 is_stmt 0 discriminator 8 view .LVU222
	cmpq	%r15, 16(%rsp)
	je	.L75
.LVL98:
.L79:
.LBB258:
	.loc 1 475 1 is_stmt 1 discriminator 10 view .LVU223
	xorl	%edx, %edx
	movq	%r13, %rax
	movl	%r14d, %esi
	divq	(%rsp)
	subl	%eax, %esi
	addl	12(%rsp), %esi
	cmpb	$0, input_swap(%rip)
	movl	%eax, %r14d
.LVL99:
	.loc 1 475 1 discriminator 10 view .LVU224
	.loc 1 475 1 discriminator 10 view .LVU225
	.loc 1 475 1 discriminator 10 view .LVU226
	je	.L77
.LVL100:
.LBB257:
	.loc 1 475 1 view .LVU227
	movzbl	2(%rbp,%r15,4), %eax
.LVL101:
	.loc 1 475 1 is_stmt 0 view .LVU228
	movb	3(%rbp,%r15,4), %bl
.LVL102:
	.loc 1 475 1 is_stmt 1 view .LVU229
	.loc 1 475 1 view .LVU230
	.loc 1 475 1 view .LVU231
	movzbl	1(%rbp,%r15,4), %edx
	movb	%al, %bh
.LVL103:
	.loc 1 475 1 view .LVU232
	.loc 1 475 1 view .LVU233
	.loc 1 475 1 view .LVU234
	movzbl	0(%rbp,%r15,4), %eax
	sall	$16, %edx
	movzwl	%bx, %r10d
	.loc 1 475 1 view .LVU235
.LVL104:
	.loc 1 475 1 view .LVU236
	.loc 1 475 1 view .LVU237
	orl	%edx, %r10d
	sall	$24, %eax
	movl	%r10d, %ebx
.LVL105:
	.loc 1 475 1 is_stmt 0 view .LVU238
	orl	%eax, %ebx
	.loc 1 475 1 is_stmt 1 view .LVU239
.LVL106:
	.loc 1 475 1 view .LVU240
	.loc 1 475 1 view .LVU241
	.loc 1 475 1 is_stmt 0 view .LVU242
	movl	%ebx, %edx
.LVL107:
	.loc 1 475 1 view .LVU243
.LBE257:
	jmp	.L78
.LVL108:
	.p2align 4,,10
	.p2align 3
.L75:
	.loc 1 475 1 view .LVU244
.LBE258:
	movq	40(%rsp), %rax
	xorq	%fs:40, %rax
	jne	.L84
	addq	$56, %rsp
	.cfi_remember_state
	.cfi_def_cfa_offset 56
.LVL109:
	.loc 1 475 1 view .LVU245
	popq	%rbx
	.cfi_def_cfa_offset 48
.LVL110:
	.loc 1 475 1 view .LVU246
	popq	%rbp
	.cfi_def_cfa_offset 40
	popq	%r12
	.cfi_def_cfa_offset 32
	popq	%r13
	.cfi_def_cfa_offset 24
	popq	%r14
	.cfi_def_cfa_offset 16
	popq	%r15
	.cfi_def_cfa_offset 8
	ret
.LVL111:
.L84:
	.cfi_restore_state
	.loc 1 475 1 view .LVU247
	call	__stack_chk_fail@PLT
.LVL112:
	.cfi_endproc
.LFE144:
	.size	print_int, .-print_int
	.p2align 4
	.type	print_short, @function
print_short:
.LVL113:
.LFB143:
	.loc 1 474 1 is_stmt 1 view -0
	.cfi_startproc
	.loc 1 474 1 is_stmt 0 view .LVU249
	endbr64
	pushq	%r15
	.cfi_def_cfa_offset 16
	.cfi_offset 15, -16
	pushq	%r14
	.cfi_def_cfa_offset 24
	.cfi_offset 14, -24
	pushq	%r13
	.cfi_def_cfa_offset 32
	.cfi_offset 13, -32
	pushq	%r12
	.cfi_def_cfa_offset 40
	.cfi_offset 12, -40
	pushq	%rbp
	.cfi_def_cfa_offset 48
	.cfi_offset 6, -48
	pushq	%rbx
	.cfi_def_cfa_offset 56
	.cfi_offset 3, -56
	subq	$56, %rsp
	.cfi_def_cfa_offset 112
	.loc 1 474 1 view .LVU250
	movq	%rdi, (%rsp)
	movl	%r8d, 12(%rsp)
	movq	%fs:40, %rax
	movq	%rax, 40(%rsp)
	xorl	%eax, %eax
	.loc 1 474 1 is_stmt 1 view .LVU251
.LVL114:
	.loc 1 474 1 view .LVU252
	.loc 1 474 1 view .LVU253
	.loc 1 474 1 view .LVU254
	.loc 1 474 1 view .LVU255
	cmpq	%rsi, %rdi
	jbe	.L85
	movslq	%r9d, %rax
	leaq	-1(%rdi), %r8
.LVL115:
	.loc 1 474 1 is_stmt 0 view .LVU256
	subq	%rsi, %rdi
.LVL116:
	.loc 1 474 1 view .LVU257
	movq	%rdx, %rbp
	imulq	%rax, %r8
	movq	%rax, 24(%rsp)
	movq	%rcx, %r12
	movl	%r9d, %r14d
	movq	%rdi, 16(%rsp)
	xorl	%r15d, %r15d
	movq	%r8, %r13
	jmp	.L89
.LVL117:
	.p2align 4,,10
	.p2align 3
.L87:
.LBB259:
	.loc 1 474 1 is_stmt 1 discriminator 3 view .LVU258
	movzwl	0(%rbp,%r15,2), %edx
.LVL118:
.L88:
	.loc 1 474 1 discriminator 8 view .LVU259
	.loc 1 474 1 discriminator 8 view .LVU260
	movq	%r12, %rdi
	xorl	%eax, %eax
	addq	$1, %r15
.LVL119:
	.loc 1 474 1 is_stmt 0 discriminator 8 view .LVU261
	call	xprintf@PLT
.LVL120:
	.loc 1 474 1 is_stmt 1 discriminator 8 view .LVU262
	.loc 1 474 1 is_stmt 0 discriminator 8 view .LVU263
.LBE259:
	.loc 1 474 1 is_stmt 1 discriminator 8 view .LVU264
	.loc 1 474 1 discriminator 8 view .LVU265
	subq	24(%rsp), %r13
.LVL121:
	.loc 1 474 1 is_stmt 0 discriminator 8 view .LVU266
	cmpq	%r15, 16(%rsp)
	je	.L85
.LVL122:
.L89:
.LBB261:
	.loc 1 474 1 is_stmt 1 discriminator 10 view .LVU267
	xorl	%edx, %edx
	movq	%r13, %rax
	movl	%r14d, %esi
	divq	(%rsp)
	subl	%eax, %esi
	addl	12(%rsp), %esi
	cmpb	$0, input_swap(%rip)
	movl	%eax, %r14d
.LVL123:
	.loc 1 474 1 discriminator 10 view .LVU268
	.loc 1 474 1 discriminator 10 view .LVU269
	.loc 1 474 1 discriminator 10 view .LVU270
	je	.L87
.LVL124:
.LBB260:
	.loc 1 474 1 view .LVU271
	.loc 1 474 1 view .LVU272
	movb	1(%rbp,%r15,2), %bl
.LVL125:
	.loc 1 474 1 view .LVU273
	.loc 1 474 1 view .LVU274
	.loc 1 474 1 view .LVU275
	movzbl	0(%rbp,%r15,2), %eax
.LVL126:
	.loc 1 474 1 is_stmt 0 view .LVU276
	movb	%al, %bh
.LVL127:
	.loc 1 474 1 is_stmt 1 view .LVU277
	.loc 1 474 1 view .LVU278
	.loc 1 474 1 view .LVU279
	movzwl	%bx, %edx
.LVL128:
	.loc 1 474 1 is_stmt 0 view .LVU280
.LBE260:
	jmp	.L88
.LVL129:
	.p2align 4,,10
	.p2align 3
.L85:
	.loc 1 474 1 view .LVU281
.LBE261:
	movq	40(%rsp), %rax
	xorq	%fs:40, %rax
	jne	.L94
	addq	$56, %rsp
	.cfi_remember_state
	.cfi_def_cfa_offset 56
.LVL130:
	.loc 1 474 1 view .LVU282
	popq	%rbx
	.cfi_def_cfa_offset 48
.LVL131:
	.loc 1 474 1 view .LVU283
	popq	%rbp
	.cfi_def_cfa_offset 40
	popq	%r12
	.cfi_def_cfa_offset 32
	popq	%r13
	.cfi_def_cfa_offset 24
	popq	%r14
	.cfi_def_cfa_offset 16
	popq	%r15
	.cfi_def_cfa_offset 8
	ret
.LVL132:
.L94:
	.cfi_restore_state
	.loc 1 474 1 view .LVU284
	call	__stack_chk_fail@PLT
.LVL133:
	.cfi_endproc
.LFE143:
	.size	print_short, .-print_short
	.p2align 4
	.type	print_s_short, @function
print_s_short:
.LVL134:
.LFB142:
	.loc 1 473 1 is_stmt 1 view -0
	.cfi_startproc
	.loc 1 473 1 is_stmt 0 view .LVU286
	endbr64
	pushq	%r15
	.cfi_def_cfa_offset 16
	.cfi_offset 15, -16
	pushq	%r14
	.cfi_def_cfa_offset 24
	.cfi_offset 14, -24
	pushq	%r13
	.cfi_def_cfa_offset 32
	.cfi_offset 13, -32
	pushq	%r12
	.cfi_def_cfa_offset 40
	.cfi_offset 12, -40
	pushq	%rbp
	.cfi_def_cfa_offset 48
	.cfi_offset 6, -48
	pushq	%rbx
	.cfi_def_cfa_offset 56
	.cfi_offset 3, -56
	subq	$56, %rsp
	.cfi_def_cfa_offset 112
	.loc 1 473 1 view .LVU287
	movq	%rdi, (%rsp)
	movl	%r8d, 12(%rsp)
	movq	%fs:40, %rax
	movq	%rax, 40(%rsp)
	xorl	%eax, %eax
	.loc 1 473 1 is_stmt 1 view .LVU288
.LVL135:
	.loc 1 473 1 view .LVU289
	.loc 1 473 1 view .LVU290
	.loc 1 473 1 view .LVU291
	.loc 1 473 1 view .LVU292
	cmpq	%rsi, %rdi
	jbe	.L95
	movslq	%r9d, %rax
	leaq	-1(%rdi), %r8
.LVL136:
	.loc 1 473 1 is_stmt 0 view .LVU293
	subq	%rsi, %rdi
.LVL137:
	.loc 1 473 1 view .LVU294
	movq	%rdx, %rbp
	imulq	%rax, %r8
	movq	%rax, 24(%rsp)
	movq	%rcx, %r12
	movl	%r9d, %r14d
	movq	%rdi, 16(%rsp)
	xorl	%r15d, %r15d
	movq	%r8, %r13
	jmp	.L99
.LVL138:
	.p2align 4,,10
	.p2align 3
.L97:
.LBB262:
	.loc 1 473 1 is_stmt 1 discriminator 3 view .LVU295
	movswl	0(%rbp,%r15,2), %edx
.LVL139:
.L98:
	.loc 1 473 1 discriminator 8 view .LVU296
	.loc 1 473 1 discriminator 8 view .LVU297
	movq	%r12, %rdi
	xorl	%eax, %eax
	addq	$1, %r15
.LVL140:
	.loc 1 473 1 is_stmt 0 discriminator 8 view .LVU298
	call	xprintf@PLT
.LVL141:
	.loc 1 473 1 is_stmt 1 discriminator 8 view .LVU299
	.loc 1 473 1 is_stmt 0 discriminator 8 view .LVU300
.LBE262:
	.loc 1 473 1 is_stmt 1 discriminator 8 view .LVU301
	.loc 1 473 1 discriminator 8 view .LVU302
	subq	24(%rsp), %r13
.LVL142:
	.loc 1 473 1 is_stmt 0 discriminator 8 view .LVU303
	cmpq	%r15, 16(%rsp)
	je	.L95
.LVL143:
.L99:
.LBB264:
	.loc 1 473 1 is_stmt 1 discriminator 10 view .LVU304
	xorl	%edx, %edx
	movq	%r13, %rax
	movl	%r14d, %esi
	divq	(%rsp)
	subl	%eax, %esi
	addl	12(%rsp), %esi
	cmpb	$0, input_swap(%rip)
	movl	%eax, %r14d
.LVL144:
	.loc 1 473 1 discriminator 10 view .LVU305
	.loc 1 473 1 discriminator 10 view .LVU306
	.loc 1 473 1 discriminator 10 view .LVU307
	je	.L97
.LVL145:
.LBB263:
	.loc 1 473 1 view .LVU308
	.loc 1 473 1 view .LVU309
	movb	1(%rbp,%r15,2), %bl
.LVL146:
	.loc 1 473 1 view .LVU310
	.loc 1 473 1 view .LVU311
	.loc 1 473 1 view .LVU312
	movzbl	0(%rbp,%r15,2), %eax
.LVL147:
	.loc 1 473 1 is_stmt 0 view .LVU313
	movb	%al, %bh
.LVL148:
	.loc 1 473 1 is_stmt 1 view .LVU314
	.loc 1 473 1 view .LVU315
	.loc 1 473 1 view .LVU316
	movswl	%bx, %edx
.LVL149:
	.loc 1 473 1 is_stmt 0 view .LVU317
.LBE263:
	jmp	.L98
.LVL150:
	.p2align 4,,10
	.p2align 3
.L95:
	.loc 1 473 1 view .LVU318
.LBE264:
	movq	40(%rsp), %rax
	xorq	%fs:40, %rax
	jne	.L104
	addq	$56, %rsp
	.cfi_remember_state
	.cfi_def_cfa_offset 56
.LVL151:
	.loc 1 473 1 view .LVU319
	popq	%rbx
	.cfi_def_cfa_offset 48
.LVL152:
	.loc 1 473 1 view .LVU320
	popq	%rbp
	.cfi_def_cfa_offset 40
	popq	%r12
	.cfi_def_cfa_offset 32
	popq	%r13
	.cfi_def_cfa_offset 24
	popq	%r14
	.cfi_def_cfa_offset 16
	popq	%r15
	.cfi_def_cfa_offset 8
	ret
.LVL153:
.L104:
	.cfi_restore_state
	.loc 1 473 1 view .LVU321
	call	__stack_chk_fail@PLT
.LVL154:
	.cfi_endproc
.LFE142:
	.size	print_s_short, .-print_s_short
	.p2align 4
	.type	print_char, @function
print_char:
.LVL155:
.LFB141:
	.loc 1 472 1 is_stmt 1 view -0
	.cfi_startproc
	.loc 1 472 1 is_stmt 0 view .LVU323
	endbr64
	pushq	%r15
	.cfi_def_cfa_offset 16
	.cfi_offset 15, -16
	pushq	%r14
	.cfi_def_cfa_offset 24
	.cfi_offset 14, -24
	pushq	%r13
	.cfi_def_cfa_offset 32
	.cfi_offset 13, -32
	pushq	%r12
	.cfi_def_cfa_offset 40
	.cfi_offset 12, -40
	pushq	%rbp
	.cfi_def_cfa_offset 48
	.cfi_offset 6, -48
	pushq	%rbx
	.cfi_def_cfa_offset 56
	.cfi_offset 3, -56
	subq	$24, %rsp
	.cfi_def_cfa_offset 80
	.loc 1 472 1 view .LVU324
	movl	%r8d, 4(%rsp)
	.loc 1 472 1 is_stmt 1 view .LVU325
.LVL156:
	.loc 1 472 1 view .LVU326
	.loc 1 472 1 view .LVU327
	.loc 1 472 1 view .LVU328
	.loc 1 472 1 view .LVU329
	cmpq	%rsi, %rdi
	jbe	.L105
	movslq	%r9d, %rax
	movq	%rcx, %rbp
	leaq	-1(%rdi), %rcx
.LVL157:
	.loc 1 472 1 is_stmt 0 view .LVU330
	movq	%rdi, %r13
	imulq	%rax, %rcx
	movq	%rax, 8(%rsp)
	subq	%rsi, %r13
	movq	%rdi, %rbx
	movq	%rdx, %r15
	movl	%r9d, %r14d
	addq	%rdx, %r13
	movq	%rcx, %r12
.LVL158:
	.p2align 4,,10
	.p2align 3
.L107:
.LBB265:
	.loc 1 472 1 is_stmt 1 discriminator 10 view .LVU331
	movq	%r12, %rax
	xorl	%edx, %edx
	movl	%r14d, %esi
	movq	%rbp, %rdi
	divq	%rbx
	movzbl	(%r15), %edx
	addq	$1, %r15
.LVL159:
	.loc 1 472 1 is_stmt 0 discriminator 10 view .LVU332
	subl	%eax, %esi
	movl	%eax, %r14d
.LVL160:
	.loc 1 472 1 is_stmt 1 discriminator 10 view .LVU333
	.loc 1 472 1 discriminator 10 view .LVU334
	.loc 1 472 1 discriminator 10 view .LVU335
	.loc 1 472 1 discriminator 10 view .LVU336
	.loc 1 472 1 discriminator 10 view .LVU337
	.loc 1 472 1 discriminator 10 view .LVU338
	addl	4(%rsp), %esi
	xorl	%eax, %eax
.LVL161:
	.loc 1 472 1 is_stmt 0 discriminator 10 view .LVU339
	call	xprintf@PLT
.LVL162:
	.loc 1 472 1 is_stmt 1 discriminator 10 view .LVU340
	.loc 1 472 1 is_stmt 0 discriminator 10 view .LVU341
.LBE265:
	.loc 1 472 1 is_stmt 1 discriminator 10 view .LVU342
	.loc 1 472 1 discriminator 10 view .LVU343
	subq	8(%rsp), %r12
.LVL163:
	.loc 1 472 1 is_stmt 0 discriminator 10 view .LVU344
	cmpq	%r13, %r15
	jne	.L107
.LVL164:
.L105:
	.loc 1 472 1 view .LVU345
	addq	$24, %rsp
	.cfi_def_cfa_offset 56
	popq	%rbx
	.cfi_def_cfa_offset 48
	popq	%rbp
	.cfi_def_cfa_offset 40
	popq	%r12
	.cfi_def_cfa_offset 32
	popq	%r13
	.cfi_def_cfa_offset 24
	popq	%r14
	.cfi_def_cfa_offset 16
	popq	%r15
	.cfi_def_cfa_offset 8
	ret
	.cfi_endproc
.LFE141:
	.size	print_char, .-print_char
	.p2align 4
	.type	print_s_char, @function
print_s_char:
.LVL165:
.LFB140:
	.loc 1 471 1 is_stmt 1 view -0
	.cfi_startproc
	.loc 1 471 1 is_stmt 0 view .LVU347
	endbr64
	pushq	%r15
	.cfi_def_cfa_offset 16
	.cfi_offset 15, -16
	pushq	%r14
	.cfi_def_cfa_offset 24
	.cfi_offset 14, -24
	pushq	%r13
	.cfi_def_cfa_offset 32
	.cfi_offset 13, -32
	pushq	%r12
	.cfi_def_cfa_offset 40
	.cfi_offset 12, -40
	pushq	%rbp
	.cfi_def_cfa_offset 48
	.cfi_offset 6, -48
	pushq	%rbx
	.cfi_def_cfa_offset 56
	.cfi_offset 3, -56
	subq	$24, %rsp
	.cfi_def_cfa_offset 80
	.loc 1 471 1 view .LVU348
	movl	%r8d, 4(%rsp)
	.loc 1 471 1 is_stmt 1 view .LVU349
.LVL166:
	.loc 1 471 1 view .LVU350
	.loc 1 471 1 view .LVU351
	.loc 1 471 1 view .LVU352
	.loc 1 471 1 view .LVU353
	cmpq	%rsi, %rdi
	jbe	.L111
	movslq	%r9d, %rax
	movq	%rcx, %rbp
	leaq	-1(%rdi), %rcx
.LVL167:
	.loc 1 471 1 is_stmt 0 view .LVU354
	movq	%rdi, %r13
	imulq	%rax, %rcx
	movq	%rax, 8(%rsp)
	subq	%rsi, %r13
	movq	%rdi, %rbx
	movq	%rdx, %r15
	movl	%r9d, %r14d
	addq	%rdx, %r13
	movq	%rcx, %r12
.LVL168:
	.p2align 4,,10
	.p2align 3
.L113:
.LBB266:
	.loc 1 471 1 is_stmt 1 discriminator 10 view .LVU355
	movq	%r12, %rax
	xorl	%edx, %edx
	movl	%r14d, %esi
	movq	%rbp, %rdi
	divq	%rbx
	movsbl	(%r15), %edx
	addq	$1, %r15
.LVL169:
	.loc 1 471 1 is_stmt 0 discriminator 10 view .LVU356
	subl	%eax, %esi
	movl	%eax, %r14d
.LVL170:
	.loc 1 471 1 is_stmt 1 discriminator 10 view .LVU357
	.loc 1 471 1 discriminator 10 view .LVU358
	.loc 1 471 1 discriminator 10 view .LVU359
	.loc 1 471 1 discriminator 10 view .LVU360
	.loc 1 471 1 discriminator 10 view .LVU361
	.loc 1 471 1 discriminator 10 view .LVU362
	addl	4(%rsp), %esi
	xorl	%eax, %eax
.LVL171:
	.loc 1 471 1 is_stmt 0 discriminator 10 view .LVU363
	call	xprintf@PLT
.LVL172:
	.loc 1 471 1 is_stmt 1 discriminator 10 view .LVU364
	.loc 1 471 1 is_stmt 0 discriminator 10 view .LVU365
.LBE266:
	.loc 1 471 1 is_stmt 1 discriminator 10 view .LVU366
	.loc 1 471 1 discriminator 10 view .LVU367
	subq	8(%rsp), %r12
.LVL173:
	.loc 1 471 1 is_stmt 0 discriminator 10 view .LVU368
	cmpq	%r13, %r15
	jne	.L113
.LVL174:
.L111:
	.loc 1 471 1 view .LVU369
	addq	$24, %rsp
	.cfi_def_cfa_offset 56
	popq	%rbx
	.cfi_def_cfa_offset 48
	popq	%rbp
	.cfi_def_cfa_offset 40
	popq	%r12
	.cfi_def_cfa_offset 32
	popq	%r13
	.cfi_def_cfa_offset 24
	popq	%r14
	.cfi_def_cfa_offset 16
	popq	%r15
	.cfi_def_cfa_offset 8
	ret
	.cfi_endproc
.LFE140:
	.size	print_s_char, .-print_s_char
	.p2align 4
	.type	print_long_double, @function
print_long_double:
.LVL175:
.LFB149:
	.loc 1 481 1 is_stmt 1 view -0
	.cfi_startproc
	.loc 1 481 1 is_stmt 0 view .LVU371
	endbr64
	pushq	%r15
	.cfi_def_cfa_offset 16
	.cfi_offset 15, -16
	pushq	%r14
	.cfi_def_cfa_offset 24
	.cfi_offset 14, -24
	pushq	%r13
	.cfi_def_cfa_offset 32
	.cfi_offset 13, -32
	pushq	%r12
	.cfi_def_cfa_offset 40
	.cfi_offset 12, -40
	pushq	%rbp
	.cfi_def_cfa_offset 48
	.cfi_offset 6, -48
	pushq	%rbx
	.cfi_def_cfa_offset 56
	.cfi_offset 3, -56
	subq	$120, %rsp
	.cfi_def_cfa_offset 176
	.loc 1 481 1 view .LVU372
	movq	%rdi, (%rsp)
	movq	%rsi, 8(%rsp)
	movl	%r8d, 20(%rsp)
	movq	%fs:40, %rax
	movq	%rax, 104(%rsp)
	xorl	%eax, %eax
	.loc 1 481 1 is_stmt 1 view .LVU373
.LVL176:
	.loc 1 481 1 view .LVU374
	.loc 1 481 1 view .LVU375
	.loc 1 481 1 view .LVU376
	.loc 1 481 1 view .LVU377
	cmpq	%rsi, %rdi
	jbe	.L117
	movslq	%r9d, %rax
	leaq	-1(%rdi), %r8
.LVL177:
	.loc 1 481 1 is_stmt 0 view .LVU378
	movq	%rdx, %r15
	movl	%r9d, %r12d
	imulq	%rax, %r8
	movq	%rax, 24(%rsp)
	movq	%rdi, %r14
	leaq	48(%rsp), %rbx
	movq	%r8, %r13
	jmp	.L122
.LVL178:
	.p2align 4,,10
	.p2align 3
.L119:
.LBB267:
	.loc 1 481 1 is_stmt 1 discriminator 3 view .LVU379
	fldt	(%r15)
.LVL179:
.L121:
	.loc 1 481 1 discriminator 8 view .LVU380
	subq	$16, %rsp
	.cfi_def_cfa_offset 192
.LVL180:
	.loc 1 481 1 is_stmt 0 discriminator 8 view .LVU381
	xorl	%ecx, %ecx
	xorl	%edx, %edx
	movl	$45, %esi
	movq	%rbx, %rdi
	fstpt	(%rsp)
	addq	$16, %r15
.LVL181:
	.loc 1 481 1 is_stmt 1 discriminator 8 view .LVU382
	.loc 1 481 1 discriminator 8 view .LVU383
	call	ldtoastr@PLT
.LVL182:
	.loc 1 481 1 discriminator 8 view .LVU384
	movq	%rbx, %rdx
	movl	%ebp, %esi
	xorl	%eax, %eax
	leaq	.LC3(%rip), %rdi
	call	xprintf@PLT
.LVL183:
	.loc 1 481 1 discriminator 8 view .LVU385
	.loc 1 481 1 is_stmt 0 discriminator 8 view .LVU386
.LBE267:
	.loc 1 481 1 is_stmt 1 discriminator 8 view .LVU387
	.loc 1 481 1 discriminator 8 view .LVU388
	subq	40(%rsp), %r13
.LVL184:
	.loc 1 481 1 is_stmt 0 discriminator 8 view .LVU389
	popq	%rax
	.cfi_def_cfa_offset 184
	popq	%rdx
	.cfi_def_cfa_offset 176
.LVL185:
	.loc 1 481 1 discriminator 8 view .LVU390
	cmpq	8(%rsp), %r14
	je	.L117
.LVL186:
.L122:
.LBB269:
	.loc 1 481 1 is_stmt 1 discriminator 10 view .LVU391
	xorl	%edx, %edx
	movq	%r13, %rax
	movl	%r12d, %ebp
	subq	$1, %r14
.LVL187:
	.loc 1 481 1 is_stmt 0 discriminator 10 view .LVU392
	divq	(%rsp)
	subl	%eax, %ebp
	addl	20(%rsp), %ebp
	cmpb	$0, input_swap(%rip)
	movl	%eax, %r12d
.LVL188:
	.loc 1 481 1 is_stmt 1 discriminator 10 view .LVU393
	.loc 1 481 1 discriminator 10 view .LVU394
	.loc 1 481 1 discriminator 10 view .LVU395
	je	.L119
	leaq	15(%r15), %rdx
	leaq	32(%rsp), %rax
.LVL189:
	.p2align 4,,10
	.p2align 3
.L120:
.LBB268:
	.loc 1 481 1 discriminator 6 view .LVU396
	movzbl	(%rdx), %ecx
	addq	$1, %rax
.LVL190:
	.loc 1 481 1 is_stmt 0 discriminator 6 view .LVU397
	subq	$1, %rdx
	movb	%cl, -1(%rax)
	.loc 1 481 1 is_stmt 1 discriminator 6 view .LVU398
.LVL191:
	.loc 1 481 1 discriminator 6 view .LVU399
	cmpq	%rax, %rbx
	jne	.L120
	.loc 1 481 1 discriminator 7 view .LVU400
	fldt	32(%rsp)
.LVL192:
	.loc 1 481 1 is_stmt 0 discriminator 7 view .LVU401
.LBE268:
	jmp	.L121
.LVL193:
	.p2align 4,,10
	.p2align 3
.L117:
	.loc 1 481 1 discriminator 7 view .LVU402
.LBE269:
	.loc 1 481 1 view .LVU403
	movq	104(%rsp), %rax
	xorq	%fs:40, %rax
	jne	.L128
	addq	$120, %rsp
	.cfi_remember_state
	.cfi_def_cfa_offset 56
.LVL194:
	.loc 1 481 1 view .LVU404
	popq	%rbx
	.cfi_def_cfa_offset 48
	popq	%rbp
	.cfi_def_cfa_offset 40
	popq	%r12
	.cfi_def_cfa_offset 32
	popq	%r13
	.cfi_def_cfa_offset 24
	popq	%r14
	.cfi_def_cfa_offset 16
	popq	%r15
	.cfi_def_cfa_offset 8
	ret
.LVL195:
.L128:
	.cfi_restore_state
	.loc 1 481 1 view .LVU405
	call	__stack_chk_fail@PLT
.LVL196:
	.cfi_endproc
.LFE149:
	.size	print_long_double, .-print_long_double
	.p2align 4
	.type	print_double, @function
print_double:
.LVL197:
.LFB148:
	.loc 1 480 1 is_stmt 1 view -0
	.cfi_startproc
	.loc 1 480 1 is_stmt 0 view .LVU407
	endbr64
	pushq	%r15
	.cfi_def_cfa_offset 16
	.cfi_offset 15, -16
	pushq	%r14
	.cfi_def_cfa_offset 24
	.cfi_offset 14, -24
	pushq	%r13
	.cfi_def_cfa_offset 32
	.cfi_offset 13, -32
	pushq	%r12
	.cfi_def_cfa_offset 40
	.cfi_offset 12, -40
	pushq	%rbp
	.cfi_def_cfa_offset 48
	.cfi_offset 6, -48
	pushq	%rbx
	.cfi_def_cfa_offset 56
	.cfi_offset 3, -56
	subq	$104, %rsp
	.cfi_def_cfa_offset 160
	.loc 1 480 1 view .LVU408
	movq	%rdi, (%rsp)
	movq	%rsi, 8(%rsp)
	movl	%r8d, 20(%rsp)
	movq	%fs:40, %rax
	movq	%rax, 88(%rsp)
	xorl	%eax, %eax
	.loc 1 480 1 is_stmt 1 view .LVU409
.LVL198:
	.loc 1 480 1 view .LVU410
	.loc 1 480 1 view .LVU411
	.loc 1 480 1 view .LVU412
	.loc 1 480 1 view .LVU413
	cmpq	%rsi, %rdi
	jbe	.L129
	movslq	%r9d, %rax
	leaq	-1(%rdi), %rbx
	movq	%rdx, %r15
	movl	%r9d, %r12d
	movq	%rax, 24(%rsp)
	imulq	%rax, %rbx
	movq	%rdi, %r13
	leaq	48(%rsp), %r14
	jmp	.L134
.LVL199:
	.p2align 4,,10
	.p2align 3
.L131:
.LBB270:
	.loc 1 480 1 discriminator 3 view .LVU414
	movsd	(%r15), %xmm0
.LVL200:
.L133:
	.loc 1 480 1 discriminator 8 view .LVU415
	xorl	%ecx, %ecx
	xorl	%edx, %edx
	movl	$40, %esi
	movq	%r14, %rdi
	call	dtoastr@PLT
.LVL201:
	.loc 1 480 1 is_stmt 0 discriminator 8 view .LVU416
	movq	%r14, %rdx
	movl	%ebp, %esi
	xorl	%eax, %eax
	leaq	.LC3(%rip), %rdi
	addq	$8, %r15
.LVL202:
	.loc 1 480 1 is_stmt 1 discriminator 8 view .LVU417
	.loc 1 480 1 discriminator 8 view .LVU418
	.loc 1 480 1 discriminator 8 view .LVU419
	call	xprintf@PLT
.LVL203:
	.loc 1 480 1 discriminator 8 view .LVU420
	.loc 1 480 1 is_stmt 0 discriminator 8 view .LVU421
.LBE270:
	.loc 1 480 1 is_stmt 1 discriminator 8 view .LVU422
	.loc 1 480 1 discriminator 8 view .LVU423
	subq	24(%rsp), %rbx
.LVL204:
	.loc 1 480 1 is_stmt 0 discriminator 8 view .LVU424
	cmpq	8(%rsp), %r13
	je	.L129
.LVL205:
.L134:
.LBB272:
	.loc 1 480 1 is_stmt 1 discriminator 10 view .LVU425
	xorl	%edx, %edx
	movq	%rbx, %rax
	movl	%r12d, %ebp
	subq	$1, %r13
.LVL206:
	.loc 1 480 1 is_stmt 0 discriminator 10 view .LVU426
	divq	(%rsp)
	subl	%eax, %ebp
	addl	20(%rsp), %ebp
	cmpb	$0, input_swap(%rip)
	movl	%eax, %r12d
.LVL207:
	.loc 1 480 1 is_stmt 1 discriminator 10 view .LVU427
	.loc 1 480 1 discriminator 10 view .LVU428
	.loc 1 480 1 discriminator 10 view .LVU429
	je	.L131
	leaq	7(%r15), %rdx
	leaq	40(%rsp), %rax
.LVL208:
	.p2align 4,,10
	.p2align 3
.L132:
.LBB271:
	.loc 1 480 1 discriminator 6 view .LVU430
	movzbl	(%rdx), %ecx
	addq	$1, %rax
.LVL209:
	.loc 1 480 1 is_stmt 0 discriminator 6 view .LVU431
	subq	$1, %rdx
	movb	%cl, -1(%rax)
	.loc 1 480 1 is_stmt 1 discriminator 6 view .LVU432
.LVL210:
	.loc 1 480 1 discriminator 6 view .LVU433
	cmpq	%rax, %r14
	jne	.L132
	.loc 1 480 1 discriminator 7 view .LVU434
	movsd	40(%rsp), %xmm0
.LVL211:
	.loc 1 480 1 is_stmt 0 discriminator 7 view .LVU435
.LBE271:
	jmp	.L133
.LVL212:
	.p2align 4,,10
	.p2align 3
.L129:
	.loc 1 480 1 discriminator 7 view .LVU436
.LBE272:
	.loc 1 480 1 view .LVU437
	movq	88(%rsp), %rax
	xorq	%fs:40, %rax
	jne	.L140
	addq	$104, %rsp
	.cfi_remember_state
	.cfi_def_cfa_offset 56
.LVL213:
	.loc 1 480 1 view .LVU438
	popq	%rbx
	.cfi_def_cfa_offset 48
	popq	%rbp
	.cfi_def_cfa_offset 40
	popq	%r12
	.cfi_def_cfa_offset 32
	popq	%r13
	.cfi_def_cfa_offset 24
	popq	%r14
	.cfi_def_cfa_offset 16
	popq	%r15
	.cfi_def_cfa_offset 8
	ret
.LVL214:
.L140:
	.cfi_restore_state
	.loc 1 480 1 view .LVU439
	call	__stack_chk_fail@PLT
.LVL215:
	.cfi_endproc
.LFE148:
	.size	print_double, .-print_double
	.p2align 4
	.type	print_float, @function
print_float:
.LVL216:
.LFB147:
	.loc 1 479 1 is_stmt 1 view -0
	.cfi_startproc
	.loc 1 479 1 is_stmt 0 view .LVU441
	endbr64
	pushq	%r15
	.cfi_def_cfa_offset 16
	.cfi_offset 15, -16
	pushq	%r14
	.cfi_def_cfa_offset 24
	.cfi_offset 14, -24
	pushq	%r13
	.cfi_def_cfa_offset 32
	.cfi_offset 13, -32
	pushq	%r12
	.cfi_def_cfa_offset 40
	.cfi_offset 12, -40
	pushq	%rbp
	.cfi_def_cfa_offset 48
	.cfi_offset 6, -48
	pushq	%rbx
	.cfi_def_cfa_offset 56
	.cfi_offset 3, -56
	subq	$104, %rsp
	.cfi_def_cfa_offset 160
	.loc 1 479 1 view .LVU442
	movq	%rdi, 8(%rsp)
	movl	%r8d, 20(%rsp)
	movq	%fs:40, %rax
	movq	%rax, 88(%rsp)
	xorl	%eax, %eax
	.loc 1 479 1 is_stmt 1 view .LVU443
.LVL217:
	.loc 1 479 1 view .LVU444
	.loc 1 479 1 view .LVU445
	.loc 1 479 1 view .LVU446
	.loc 1 479 1 view .LVU447
	cmpq	%rsi, %rdi
	jbe	.L141
	movq	%rdi, %rax
	leaq	-1(%rdi), %r11
	movslq	%r9d, %rcx
.LVL218:
	.loc 1 479 1 is_stmt 0 view .LVU448
	xorl	%r14d, %r14d
	movq	%r11, %rbx
	subq	%rsi, %rax
.LBB273:
	movq	%r14, %rbp
	movq	%rcx, 32(%rsp)
	imulq	%rcx, %rbx
	movq	%rax, 24(%rsp)
	movl	%r9d, %r15d
.LVL219:
	.loc 1 479 1 view .LVU449
	movl	%r10d, %r14d
	movq	%rdx, 40(%rsp)
	leaq	48(%rsp), %r13
	jmp	.L145
.LVL220:
	.p2align 4,,10
	.p2align 3
.L143:
	.loc 1 479 1 is_stmt 1 discriminator 3 view .LVU450
	movq	40(%rsp), %rax
	movss	(%rax,%rbp,4), %xmm0
.LVL221:
.L144:
	.loc 1 479 1 discriminator 8 view .LVU451
	.loc 1 479 1 discriminator 8 view .LVU452
	.loc 1 479 1 discriminator 8 view .LVU453
	xorl	%ecx, %ecx
	xorl	%edx, %edx
	movl	$31, %esi
	movq	%r13, %rdi
	call	ftoastr@PLT
.LVL222:
	.loc 1 479 1 discriminator 8 view .LVU454
	movq	%r13, %rdx
	movl	%r12d, %esi
	xorl	%eax, %eax
	leaq	.LC3(%rip), %rdi
	addq	$1, %rbp
.LVL223:
	.loc 1 479 1 is_stmt 0 discriminator 8 view .LVU455
	call	xprintf@PLT
.LVL224:
	.loc 1 479 1 is_stmt 1 discriminator 8 view .LVU456
	.loc 1 479 1 is_stmt 0 discriminator 8 view .LVU457
.LBE273:
	.loc 1 479 1 is_stmt 1 discriminator 8 view .LVU458
	.loc 1 479 1 discriminator 8 view .LVU459
	subq	32(%rsp), %rbx
.LVL225:
	.loc 1 479 1 is_stmt 0 discriminator 8 view .LVU460
	cmpq	%rbp, 24(%rsp)
	je	.L141
.LVL226:
.L145:
.LBB275:
	.loc 1 479 1 is_stmt 1 discriminator 10 view .LVU461
	xorl	%edx, %edx
	movq	%rbx, %rax
	movl	%r15d, %r8d
	divq	8(%rsp)
	subl	%eax, %r8d
	movl	%eax, %r15d
.LVL227:
	.loc 1 479 1 discriminator 10 view .LVU462
	movl	20(%rsp), %eax
.LVL228:
	.loc 1 479 1 is_stmt 0 discriminator 10 view .LVU463
	cmpb	$0, input_swap(%rip)
	leal	(%r8,%rax), %r12d
.LVL229:
	.loc 1 479 1 is_stmt 1 discriminator 10 view .LVU464
	.loc 1 479 1 discriminator 10 view .LVU465
	je	.L143
.LVL230:
.LBB274:
	.loc 1 479 1 view .LVU466
	movq	40(%rsp), %rdi
	movb	3(%rdi,%rbp,4), %r14b
.LVL231:
	.loc 1 479 1 view .LVU467
	.loc 1 479 1 view .LVU468
	.loc 1 479 1 view .LVU469
	movzbl	1(%rdi,%rbp,4), %edx
.LVL232:
	.loc 1 479 1 is_stmt 0 view .LVU470
	movl	%r14d, %eax
	movb	2(%rdi,%rbp,4), %ah
.LVL233:
	.loc 1 479 1 is_stmt 1 view .LVU471
	.loc 1 479 1 view .LVU472
	.loc 1 479 1 view .LVU473
	sall	$16, %edx
	movzwl	%ax, %r10d
	.loc 1 479 1 view .LVU474
.LVL234:
	.loc 1 479 1 view .LVU475
	.loc 1 479 1 view .LVU476
	movzbl	(%rdi,%rbp,4), %eax
.LVL235:
	.loc 1 479 1 is_stmt 0 view .LVU477
	orl	%edx, %r10d
	sall	$24, %eax
	orl	%eax, %r10d
	movl	%r10d, %r14d
	.loc 1 479 1 is_stmt 1 view .LVU478
.LVL236:
	.loc 1 479 1 view .LVU479
	.loc 1 479 1 view .LVU480
	.loc 1 479 1 is_stmt 0 view .LVU481
	movd	%r10d, %xmm0
.LVL237:
	.loc 1 479 1 view .LVU482
.LBE274:
	jmp	.L144
.LVL238:
	.p2align 4,,10
	.p2align 3
.L141:
	.loc 1 479 1 view .LVU483
.LBE275:
	movq	88(%rsp), %rax
	xorq	%fs:40, %rax
	jne	.L150
	addq	$104, %rsp
	.cfi_remember_state
	.cfi_def_cfa_offset 56
	popq	%rbx
	.cfi_def_cfa_offset 48
	popq	%rbp
	.cfi_def_cfa_offset 40
	popq	%r12
	.cfi_def_cfa_offset 32
	popq	%r13
	.cfi_def_cfa_offset 24
	popq	%r14
	.cfi_def_cfa_offset 16
	popq	%r15
	.cfi_def_cfa_offset 8
	ret
.L150:
	.cfi_restore_state
	call	__stack_chk_fail@PLT
.LVL239:
	.cfi_endproc
.LFE147:
	.size	print_float, .-print_float
	.section	.rodata.str1.1
.LC5:
	.string	"%c"
.LC6:
	.string	"%03o"
.LC7:
	.string	"\\0"
.LC8:
	.string	"\\b"
.LC9:
	.string	"\\f"
.LC10:
	.string	"\\n"
.LC11:
	.string	"\\r"
.LC12:
	.string	"\\t"
.LC13:
	.string	"\\v"
.LC14:
	.string	"\\a"
	.text
	.p2align 4
	.type	print_ascii, @function
print_ascii:
.LVL240:
.LFB152:
	.loc 1 534 1 is_stmt 1 view -0
	.cfi_startproc
	.loc 1 534 1 is_stmt 0 view .LVU485
	endbr64
	pushq	%r15
	.cfi_def_cfa_offset 16
	.cfi_offset 15, -16
	pushq	%r14
	.cfi_def_cfa_offset 24
	.cfi_offset 14, -24
	pushq	%r13
	.cfi_def_cfa_offset 32
	.cfi_offset 13, -32
	pushq	%r12
	.cfi_def_cfa_offset 40
	.cfi_offset 12, -40
	pushq	%rbp
	.cfi_def_cfa_offset 48
	.cfi_offset 6, -48
	pushq	%rbx
	.cfi_def_cfa_offset 56
	.cfi_offset 3, -56
	subq	$72, %rsp
	.cfi_def_cfa_offset 128
	.loc 1 534 1 view .LVU486
	movl	%r8d, 4(%rsp)
	movq	%fs:40, %rax
	movq	%rax, 56(%rsp)
	xorl	%eax, %eax
	.loc 1 535 3 is_stmt 1 view .LVU487
.LVL241:
	.loc 1 536 3 view .LVU488
	.loc 1 537 3 view .LVU489
	.loc 1 538 3 view .LVU490
	.loc 1 538 20 view .LVU491
	.loc 1 538 3 is_stmt 0 view .LVU492
	cmpq	%rsi, %rdi
	jbe	.L151
	movslq	%r9d, %rax
	movl	%r9d, %r12d
	leaq	-1(%rdi), %r9
.LVL242:
	.loc 1 538 3 view .LVU493
	movq	%rdi, %rbp
	imulq	%rax, %r9
	movq	%rax, 16(%rsp)
	movq	%rdi, %rax
	leaq	.L155(%rip), %r13
	subq	%rsi, %rax
.LBB276:
	.loc 1 548 13 view .LVU494
	movq	%rdx, %r15
	addq	%rdx, %rax
	movq	%rax, 8(%rsp)
	movq	%r9, %r14
.LVL243:
	.p2align 4,,10
	.p2align 3
.L164:
	.loc 1 540 7 is_stmt 1 view .LVU495
	.loc 1 540 36 is_stmt 0 view .LVU496
	movq	%r14, %rax
	xorl	%edx, %edx
	.loc 1 541 21 view .LVU497
	movzbl	(%r15), %r8d
	movl	%r12d, %ebx
	.loc 1 540 36 view .LVU498
	divq	%rbp
	.loc 1 541 27 view .LVU499
	addq	$1, %r15
.LVL244:
	.loc 1 541 27 view .LVU500
	movzbl	%r8b, %edx
	.loc 1 540 36 view .LVU501
	movq	%rax, %r11
	.loc 1 540 11 view .LVU502
	movl	%eax, %r12d
.LVL245:
	.loc 1 541 7 is_stmt 1 view .LVU503
	.loc 1 542 7 view .LVU504
	.loc 1 543 7 view .LVU505
	.loc 1 545 7 view .LVU506
	cmpb	$13, %r8b
	ja	.L153
	movslq	0(%r13,%rdx,4), %rax
.LVL246:
	.loc 1 545 7 is_stmt 0 view .LVU507
	addq	%r13, %rax
	notrack jmp	*%rax
	.section	.rodata
	.align 4
	.align 4
.L155:
	.long	.L167-.L155
	.long	.L153-.L155
	.long	.L153-.L155
	.long	.L153-.L155
	.long	.L153-.L155
	.long	.L153-.L155
	.long	.L153-.L155
	.long	.L161-.L155
	.long	.L160-.L155
	.long	.L159-.L155
	.long	.L158-.L155
	.long	.L157-.L155
	.long	.L156-.L155
	.long	.L154-.L155
	.text
	.p2align 4,,10
	.p2align 3
.L153:
	movq	%r11, 32(%rsp)
	movq	%rdx, 40(%rsp)
	movb	%r8b, 24(%rsp)
	.loc 1 580 11 is_stmt 1 view .LVU508
	.loc 1 580 26 is_stmt 0 view .LVU509
	call	__ctype_b_loc@PLT
.LVL247:
	.loc 1 580 11 view .LVU510
	movq	40(%rsp), %rdx
.LBB277:
.LBB278:
	.file 2 "/usr/include/x86_64-linux-gnu/bits/stdio2.h"
	.loc 2 36 10 view .LVU511
	movzbl	24(%rsp), %r8d
.LBE278:
.LBE277:
	.loc 1 580 11 view .LVU512
	leaq	.LC6(%rip), %rcx
	.loc 1 580 26 view .LVU513
	movq	(%rax), %rax
.LBB282:
.LBB279:
	.loc 2 36 10 view .LVU514
	leaq	52(%rsp), %rdi
	movl	$1, %esi
	movq	%rdi, 24(%rsp)
.LVL248:
	.loc 2 36 10 view .LVU515
.LBE279:
.LBE282:
	.loc 1 580 11 view .LVU516
	testb	$64, 1(%rax,%rdx,2)
	leaq	.LC5(%rip), %rax
.LBB283:
.LBB280:
	.loc 2 36 10 view .LVU517
	movl	$4, %edx
.LBE280:
.LBE283:
	.loc 1 580 11 view .LVU518
	cmovne	%rax, %rcx
.LVL249:
.LBB284:
.LBI277:
	.loc 2 34 1 is_stmt 1 view .LVU519
.LBB281:
	.loc 2 36 3 view .LVU520
	.loc 2 36 10 is_stmt 0 view .LVU521
	xorl	%eax, %eax
	call	__sprintf_chk@PLT
.LVL250:
	.loc 2 36 10 view .LVU522
.LBE281:
.LBE284:
	.loc 1 581 11 is_stmt 1 view .LVU523
	.loc 1 581 13 is_stmt 0 view .LVU524
	movq	24(%rsp), %rdi
	movq	32(%rsp), %r11
	movq	%rdi, %rdx
.LVL251:
	.p2align 4,,10
	.p2align 3
.L162:
	.loc 1 584 7 is_stmt 1 discriminator 2 view .LVU525
	movl	4(%rsp), %eax
	.loc 1 584 37 is_stmt 0 discriminator 2 view .LVU526
	subl	%r11d, %ebx
.LVL252:
	.loc 1 584 7 discriminator 2 view .LVU527
	leaq	.LC3(%rip), %rdi
	leal	(%rbx,%rax), %esi
	xorl	%eax, %eax
	call	xprintf@PLT
.LVL253:
	.loc 1 585 7 is_stmt 1 discriminator 2 view .LVU528
	.loc 1 585 7 is_stmt 0 discriminator 2 view .LVU529
.LBE276:
	.loc 1 538 31 is_stmt 1 discriminator 2 view .LVU530
	.loc 1 538 20 discriminator 2 view .LVU531
	subq	16(%rsp), %r14
.LVL254:
	.loc 1 538 3 is_stmt 0 discriminator 2 view .LVU532
	cmpq	8(%rsp), %r15
	jne	.L164
.LVL255:
.L151:
	.loc 1 587 1 view .LVU533
	movq	56(%rsp), %rax
	xorq	%fs:40, %rax
	jne	.L173
	addq	$72, %rsp
	.cfi_remember_state
	.cfi_def_cfa_offset 56
	popq	%rbx
	.cfi_def_cfa_offset 48
	popq	%rbp
	.cfi_def_cfa_offset 40
	popq	%r12
	.cfi_def_cfa_offset 32
	popq	%r13
	.cfi_def_cfa_offset 24
	popq	%r14
	.cfi_def_cfa_offset 16
	popq	%r15
	.cfi_def_cfa_offset 8
	ret
.LVL256:
	.p2align 4,,10
	.p2align 3
.L154:
	.cfi_restore_state
.LBB285:
	.loc 1 568 11 is_stmt 1 view .LVU534
	.loc 1 569 11 view .LVU535
	.loc 1 568 13 is_stmt 0 view .LVU536
	leaq	.LC11(%rip), %rdx
	.loc 1 569 11 view .LVU537
	jmp	.L162
.LVL257:
	.p2align 4,,10
	.p2align 3
.L156:
	.loc 1 560 11 is_stmt 1 view .LVU538
	.loc 1 561 11 view .LVU539
	.loc 1 560 13 is_stmt 0 view .LVU540
	leaq	.LC9(%rip), %rdx
	.loc 1 561 11 view .LVU541
	jmp	.L162
.LVL258:
	.p2align 4,,10
	.p2align 3
.L157:
	.loc 1 576 11 is_stmt 1 view .LVU542
	.loc 1 577 11 view .LVU543
	.loc 1 576 13 is_stmt 0 view .LVU544
	leaq	.LC13(%rip), %rdx
	.loc 1 577 11 view .LVU545
	jmp	.L162
.LVL259:
	.p2align 4,,10
	.p2align 3
.L158:
	.loc 1 564 11 is_stmt 1 view .LVU546
	.loc 1 565 11 view .LVU547
	.loc 1 564 13 is_stmt 0 view .LVU548
	leaq	.LC10(%rip), %rdx
	.loc 1 565 11 view .LVU549
	jmp	.L162
.LVL260:
	.p2align 4,,10
	.p2align 3
.L159:
	.loc 1 572 11 is_stmt 1 view .LVU550
	.loc 1 573 11 view .LVU551
	.loc 1 572 13 is_stmt 0 view .LVU552
	leaq	.LC12(%rip), %rdx
	.loc 1 573 11 view .LVU553
	jmp	.L162
.LVL261:
	.p2align 4,,10
	.p2align 3
.L160:
	.loc 1 556 11 is_stmt 1 view .LVU554
	.loc 1 557 11 view .LVU555
	.loc 1 556 13 is_stmt 0 view .LVU556
	leaq	.LC8(%rip), %rdx
	.loc 1 557 11 view .LVU557
	jmp	.L162
.LVL262:
	.p2align 4,,10
	.p2align 3
.L167:
	.loc 1 548 13 view .LVU558
	leaq	.LC7(%rip), %rdx
	jmp	.L162
	.p2align 4,,10
	.p2align 3
.L161:
	.loc 1 541 21 view .LVU559
	leaq	.LC14(%rip), %rdx
	jmp	.L162
.LVL263:
.L173:
	.loc 1 541 21 view .LVU560
.LBE285:
	.loc 1 587 1 view .LVU561
	call	__stack_chk_fail@PLT
.LVL264:
	.cfi_endproc
.LFE152:
	.size	print_ascii, .-print_ascii
	.section	.rodata.str1.1
.LC15:
	.string	"%s: read error"
.LC16:
	.string	"%s"
.LC17:
	.string	"write error"
	.text
	.p2align 4
	.type	check_and_close, @function
check_and_close:
.LVL265:
.LFB156:
	.loc 1 947 1 is_stmt 1 view -0
	.cfi_startproc
	.loc 1 948 3 view .LVU563
	.loc 1 950 3 view .LVU564
	.loc 1 947 1 is_stmt 0 view .LVU565
	pushq	%r12
	.cfi_def_cfa_offset 16
	.cfi_offset 12, -16
	movl	$1, %eax
	pushq	%rbp
	.cfi_def_cfa_offset 24
	.cfi_offset 6, -24
	movl	%edi, %ebp
	subq	$8, %rsp
	.cfi_def_cfa_offset 32
	.loc 1 950 17 view .LVU566
	movq	in_stream(%rip), %rdi
.LVL266:
	.loc 1 950 6 view .LVU567
	testq	%rdi, %rdi
	je	.L175
	.loc 1 952 7 is_stmt 1 view .LVU568
.LVL267:
.LBB286:
.LBI286:
	.file 3 "/usr/include/x86_64-linux-gnu/bits/stdio.h"
	.loc 3 135 1 view .LVU569
.LBB287:
	.loc 3 137 3 view .LVU570
	.loc 3 137 3 is_stmt 0 view .LVU571
.LBE287:
.LBE286:
	.loc 1 952 10 view .LVU572
	testb	$32, (%rdi)
	jne	.L196
	.loc 1 959 12 is_stmt 1 view .LVU573
	.loc 1 959 18 is_stmt 0 view .LVU574
	movq	file_list(%rip), %rax
	movq	-8(%rax), %rax
	cmpb	$45, (%rax)
	je	.L197
.L180:
	.loc 1 959 48 discriminator 1 view .LVU575
	call	rpl_fclose@PLT
.LVL268:
	.loc 1 959 45 discriminator 1 view .LVU576
	testl	%eax, %eax
	jne	.L198
.L181:
	.loc 1 948 8 view .LVU577
	movl	$1, %eax
.LVL269:
.L178:
	.loc 1 965 7 is_stmt 1 view .LVU578
	.loc 1 965 17 is_stmt 0 view .LVU579
	movq	$0, in_stream(%rip)
.LVL270:
.L175:
	.loc 1 968 3 is_stmt 1 view .LVU580
.LBB288:
.LBI288:
	.loc 3 135 1 view .LVU581
.LBB289:
	.loc 3 137 3 view .LVU582
	.loc 3 137 3 is_stmt 0 view .LVU583
.LBE289:
.LBE288:
	.loc 1 968 6 view .LVU584
	movq	stdout(%rip), %rdx
	testb	$32, (%rdx)
	jne	.L199
	.loc 1 975 1 view .LVU585
	addq	$8, %rsp
	.cfi_remember_state
	.cfi_def_cfa_offset 24
	popq	%rbp
	.cfi_def_cfa_offset 16
.LVL271:
	.loc 1 975 1 view .LVU586
	popq	%r12
	.cfi_def_cfa_offset 8
	ret
.LVL272:
	.p2align 4,,10
	.p2align 3
.L196:
	.cfi_restore_state
	.loc 1 954 11 is_stmt 1 view .LVU587
	movq	input_filename(%rip), %rdx
	xorl	%edi, %edi
	movl	$3, %esi
	call	quotearg_n_style_colon@PLT
.LVL273:
	.loc 1 954 31 is_stmt 0 view .LVU588
	xorl	%edi, %edi
	movl	$5, %edx
	leaq	.LC15(%rip), %rsi
	.loc 1 954 11 view .LVU589
	movq	%rax, %r12
	.loc 1 954 31 view .LVU590
	call	dcgettext@PLT
.LVL274:
	.loc 1 954 11 view .LVU591
	xorl	%edi, %edi
	movq	%r12, %rcx
	movl	%ebp, %esi
	.loc 1 954 31 view .LVU592
	movq	%rax, %rdx
	.loc 1 954 11 view .LVU593
	xorl	%eax, %eax
	call	error@PLT
.LVL275:
	.loc 1 955 11 is_stmt 1 view .LVU594
	.loc 1 955 17 is_stmt 0 view .LVU595
	movq	file_list(%rip), %rax
	movq	-8(%rax), %rdx
	cmpb	$45, (%rdx)
	je	.L200
.L185:
	.loc 1 956 13 is_stmt 1 view .LVU596
	movq	in_stream(%rip), %rdi
	call	rpl_fclose@PLT
.LVL276:
	.loc 1 957 14 is_stmt 0 view .LVU597
	xorl	%eax, %eax
	jmp	.L178
.LVL277:
	.p2align 4,,10
	.p2align 3
.L199:
	.loc 1 970 7 is_stmt 1 view .LVU598
	.loc 1 970 20 is_stmt 0 view .LVU599
	movl	$5, %edx
	leaq	.LC17(%rip), %rsi
	xorl	%edi, %edi
	call	dcgettext@PLT
.LVL278:
	.loc 1 970 7 view .LVU600
	xorl	%esi, %esi
	xorl	%edi, %edi
	.loc 1 970 20 view .LVU601
	movq	%rax, %rdx
	.loc 1 970 7 view .LVU602
	xorl	%eax, %eax
	call	error@PLT
.LVL279:
	.loc 1 971 7 is_stmt 1 view .LVU603
	.loc 1 975 1 is_stmt 0 view .LVU604
	addq	$8, %rsp
	.cfi_remember_state
	.cfi_def_cfa_offset 24
	.loc 1 971 10 view .LVU605
	xorl	%eax, %eax
	.loc 1 974 3 is_stmt 1 view .LVU606
	.loc 1 975 1 is_stmt 0 view .LVU607
	popq	%rbp
	.cfi_def_cfa_offset 16
.LVL280:
	.loc 1 975 1 view .LVU608
	popq	%r12
	.cfi_def_cfa_offset 8
	ret
.LVL281:
	.p2align 4,,10
	.p2align 3
.L197:
	.cfi_restore_state
	.loc 1 959 15 view .LVU609
	cmpb	$0, 1(%rax)
	je	.L181
	jmp	.L180
	.p2align 4,,10
	.p2align 3
.L200:
	.loc 1 957 14 view .LVU610
	xorl	%eax, %eax
	.loc 1 955 14 view .LVU611
	cmpb	$0, 1(%rdx)
	je	.L178
	jmp	.L185
	.p2align 4,,10
	.p2align 3
.L198:
	.loc 1 961 11 is_stmt 1 view .LVU612
	movq	input_filename(%rip), %rdx
	movl	$3, %esi
	xorl	%edi, %edi
	call	quotearg_n_style_colon@PLT
.LVL282:
	movq	%rax, %r12
	.loc 1 961 21 is_stmt 0 view .LVU613
	call	__errno_location@PLT
.LVL283:
	.loc 1 961 11 view .LVU614
	movq	%r12, %rcx
	leaq	.LC16(%rip), %rdx
	xorl	%edi, %edi
	movl	(%rax), %esi
	xorl	%eax, %eax
	call	error@PLT
.LVL284:
	.loc 1 962 11 is_stmt 1 view .LVU615
	.loc 1 962 14 is_stmt 0 view .LVU616
	xorl	%eax, %eax
	jmp	.L178
	.cfi_endproc
.LFE156:
	.size	check_and_close, .-check_and_close
	.section	.rodata.str1.1
.LC18:
	.string	"standard input"
.LC19:
	.string	"r"
	.text
	.p2align 4
	.type	open_next_file, @function
open_next_file:
.LFB155:
	.loc 1 903 1 is_stmt 1 view -0
	.cfi_startproc
	.loc 1 904 3 view .LVU618
.LVL285:
	.loc 1 903 1 is_stmt 0 view .LVU619
	pushq	%r12
	.cfi_def_cfa_offset 16
	.cfi_offset 12, -16
	.loc 1 904 8 view .LVU620
	movl	$1, %r12d
	.loc 1 903 1 view .LVU621
	pushq	%rbx
	.cfi_def_cfa_offset 24
	.cfi_offset 3, -24
	.loc 1 922 23 view .LVU622
	leaq	.LC19(%rip), %rbx
	.loc 1 903 1 view .LVU623
	subq	$8, %rsp
	.cfi_def_cfa_offset 32
	jmp	.L207
.LVL286:
	.p2align 4,,10
	.p2align 3
.L214:
	.loc 1 913 10 view .LVU624
	cmpb	$0, 1(%rdi)
	jne	.L204
	.loc 1 915 11 is_stmt 1 view .LVU625
	.loc 1 915 28 is_stmt 0 view .LVU626
	movl	$5, %edx
	leaq	.LC18(%rip), %rsi
	xorl	%edi, %edi
	call	dcgettext@PLT
.LVL287:
	.loc 1 917 27 view .LVU627
	movb	$1, have_read_stdin(%rip)
	.loc 1 915 26 view .LVU628
	movq	%rax, input_filename(%rip)
	.loc 1 916 11 is_stmt 1 view .LVU629
	.loc 1 916 21 is_stmt 0 view .LVU630
	movq	stdin(%rip), %rax
	movq	%rax, in_stream(%rip)
	.loc 1 917 11 is_stmt 1 view .LVU631
	.loc 1 918 11 view .LVU632
.LVL288:
.L205:
	.loc 1 930 9 view .LVU633
	.loc 1 930 3 is_stmt 0 view .LVU634
	testq	%rax, %rax
	jne	.L206
.LVL289:
.L207:
	.loc 1 906 3 is_stmt 1 view .LVU635
	.loc 1 908 7 view .LVU636
	.loc 1 908 24 is_stmt 0 view .LVU637
	movq	file_list(%rip), %rax
	movq	(%rax), %rdi
	.loc 1 908 22 view .LVU638
	movq	%rdi, input_filename(%rip)
	.loc 1 909 7 is_stmt 1 view .LVU639
	.loc 1 909 10 is_stmt 0 view .LVU640
	testq	%rdi, %rdi
	je	.L201
	.loc 1 911 7 is_stmt 1 view .LVU641
	addq	$8, %rax
	.loc 1 913 11 is_stmt 0 view .LVU642
	cmpb	$45, (%rdi)
	.loc 1 911 7 view .LVU643
	movq	%rax, file_list(%rip)
	.loc 1 913 7 is_stmt 1 view .LVU644
	.loc 1 913 11 is_stmt 0 view .LVU645
	je	.L214
.L204:
	.loc 1 922 11 is_stmt 1 view .LVU646
	.loc 1 922 23 is_stmt 0 view .LVU647
	movq	%rbx, %rsi
	call	fopen@PLT
.LVL290:
	.loc 1 922 21 view .LVU648
	movq	%rax, in_stream(%rip)
	.loc 1 923 11 is_stmt 1 view .LVU649
	.loc 1 923 14 is_stmt 0 view .LVU650
	testq	%rax, %rax
	je	.L215
.L206:
	.loc 1 932 3 is_stmt 1 view .LVU651
	.loc 1 932 6 is_stmt 0 view .LVU652
	cmpb	$0, limit_bytes_to_format(%rip)
	je	.L201
	.loc 1 932 29 discriminator 1 view .LVU653
	cmpb	$0, flag_dump_strings(%rip)
	je	.L216
.L201:
	.loc 1 936 1 view .LVU654
	addq	$8, %rsp
	.cfi_remember_state
	.cfi_def_cfa_offset 24
	movl	%r12d, %eax
	popq	%rbx
	.cfi_def_cfa_offset 16
	popq	%r12
	.cfi_def_cfa_offset 8
.LVL291:
	.loc 1 936 1 view .LVU655
	ret
.LVL292:
	.p2align 4,,10
	.p2align 3
.L215:
	.cfi_restore_state
	.loc 1 925 15 is_stmt 1 view .LVU656
	movq	input_filename(%rip), %rdx
	movl	$3, %esi
	xorl	%edi, %edi
	call	quotearg_n_style_colon@PLT
.LVL293:
	movq	%rax, %r12
.LVL294:
	.loc 1 925 25 is_stmt 0 view .LVU657
	call	__errno_location@PLT
.LVL295:
	.loc 1 925 15 view .LVU658
	movq	%r12, %rcx
	leaq	.LC16(%rip), %rdx
	xorl	%edi, %edi
	movl	(%rax), %esi
	xorl	%eax, %eax
	.loc 1 926 18 view .LVU659
	xorl	%r12d, %r12d
	.loc 1 925 15 view .LVU660
	call	error@PLT
.LVL296:
	.loc 1 926 15 is_stmt 1 view .LVU661
	.loc 1 926 15 is_stmt 0 view .LVU662
	movq	in_stream(%rip), %rax
	jmp	.L205
.LVL297:
.L216:
	.loc 1 933 5 is_stmt 1 view .LVU663
	xorl	%ecx, %ecx
	movl	$2, %edx
	xorl	%esi, %esi
	movq	%rax, %rdi
	call	setvbuf@PLT
.LVL298:
	jmp	.L201
	.cfi_endproc
.LFE155:
	.size	open_next_file, .-open_next_file
	.section	.rodata.str1.8,"aMS",@progbits,1
	.align 8
.LC20:
	.string	"cannot skip past end of combined input"
	.text
	.p2align 4
	.type	skip, @function
skip:
.LVL299:
.LFB158:
	.loc 1 1014 1 view -0
	.cfi_startproc
	.loc 1 1014 1 is_stmt 0 view .LVU665
	pushq	%r15
	.cfi_def_cfa_offset 16
	.cfi_offset 15, -16
	pushq	%r14
	.cfi_def_cfa_offset 24
	.cfi_offset 14, -24
	pushq	%r13
	.cfi_def_cfa_offset 32
	.cfi_offset 13, -32
	pushq	%r12
	.cfi_def_cfa_offset 40
	.cfi_offset 12, -40
	pushq	%rbp
	.cfi_def_cfa_offset 48
	.cfi_offset 6, -48
	pushq	%rbx
	.cfi_def_cfa_offset 56
	.cfi_offset 3, -56
	subq	$4096, %rsp
	.cfi_def_cfa_offset 4152
	orq	$0, (%rsp)
	subq	$4096, %rsp
	.cfi_def_cfa_offset 8248
	orq	$0, (%rsp)
	subq	$168, %rsp
	.cfi_def_cfa_offset 8416
	.loc 1 1014 1 view .LVU666
	movq	%fs:40, %rax
	movq	%rax, 8344(%rsp)
	xorl	%eax, %eax
	.loc 1 1015 3 is_stmt 1 view .LVU667
.LVL300:
	.loc 1 1016 3 view .LVU668
	.loc 1 1018 3 view .LVU669
	.loc 1 1018 6 is_stmt 0 view .LVU670
	testq	%rdi, %rdi
	je	.L251
	.loc 1 1021 20 view .LVU671
	movq	in_stream(%rip), %r12
	movq	%rdi, %rbp
	.loc 1 1021 9 is_stmt 1 view .LVU672
	.loc 1 1015 8 is_stmt 0 view .LVU673
	movl	$1, %r13d
	movq	%rsp, %r14
.LBB290:
.LBB291:
	.loc 1 1046 30 view .LVU674
	movabsq	$2305843009213693951, %r15
.LBE291:
.LBE290:
	.loc 1 1021 9 view .LVU675
	testq	%r12, %r12
	je	.L234
.LVL301:
	.p2align 4,,10
	.p2align 3
.L233:
.LBB314:
	.loc 1 1023 7 is_stmt 1 view .LVU676
	.loc 1 1035 7 view .LVU677
	.loc 1 1035 11 is_stmt 0 view .LVU678
	movq	%r12, %rdi
	call	fileno@PLT
.LVL302:
.LBB307:
.LBB308:
	.file 4 "/usr/include/x86_64-linux-gnu/sys/stat.h"
	.loc 4 469 10 view .LVU679
	movq	%r14, %rdx
	movl	$1, %edi
.LBE308:
.LBE307:
	.loc 1 1035 11 view .LVU680
	movl	%eax, %esi
.LVL303:
.LBB310:
.LBI307:
	.loc 4 467 1 is_stmt 1 view .LVU681
.LBB309:
	.loc 4 469 3 view .LVU682
	.loc 4 469 10 is_stmt 0 view .LVU683
	call	__fxstat@PLT
.LVL304:
	.loc 4 469 10 view .LVU684
.LBE309:
.LBE310:
	.loc 1 1035 10 view .LVU685
	testl	%eax, %eax
	jne	.L220
.LBB311:
	.loc 1 1037 11 is_stmt 1 view .LVU686
.LBB292:
.LBI292:
	.file 5 "src/system.h"
	.loc 5 705 1 view .LVU687
.LVL305:
.LBB293:
	.loc 5 707 3 view .LVU688
	.loc 5 707 3 is_stmt 0 view .LVU689
.LBE293:
.LBE292:
	.loc 1 1046 11 is_stmt 1 view .LVU690
.LBB295:
.LBB294:
	.loc 5 707 33 is_stmt 0 view .LVU691
	movl	24(%rsp), %eax
	andl	$53248, %eax
.LBE294:
.LBE295:
	.loc 1 1046 14 view .LVU692
	cmpl	$32768, %eax
	je	.L252
	.loc 1 1061 16 is_stmt 1 discriminator 1 view .LVU693
	.loc 1 1061 36 is_stmt 0 discriminator 1 view .LVU694
	movl	$1, %edx
	movq	%rbp, %rsi
	movq	%r12, %rdi
	call	rpl_fseeko@PLT
.LVL306:
	.loc 1 1061 33 discriminator 1 view .LVU695
	testl	%eax, %eax
	je	.L217
.L228:
	.loc 1 1046 30 view .LVU696
	movl	$8192, %ebx
	leaq	144(%rsp), %r12
	.p2align 4,,10
	.p2align 3
.L224:
.LVL307:
.LBB296:
	.loc 1 1075 19 is_stmt 1 view .LVU697
	cmpq	%rbp, %rbx
.LBB297:
.LBB298:
	.loc 2 353 9 is_stmt 0 view .LVU698
	movl	$1, %edx
	movl	$8192, %esi
	movq	%r12, %rdi
	cmova	%rbp, %rbx
.LVL308:
	.loc 2 353 9 view .LVU699
.LBE298:
.LBE297:
	.loc 1 1077 19 is_stmt 1 view .LVU700
.LBB300:
.LBI297:
	.loc 2 345 1 view .LVU701
.LBB299:
	.loc 2 348 3 view .LVU702
	.loc 2 350 7 view .LVU703
	.loc 2 353 2 view .LVU704
	.loc 2 353 9 is_stmt 0 view .LVU705
	movq	in_stream(%rip), %r8
	movq	%rbx, %rcx
	call	__fread_unlocked_chk@PLT
.LVL309:
	.loc 2 353 9 view .LVU706
.LBE299:
.LBE300:
	.loc 1 1078 19 is_stmt 1 view .LVU707
	.loc 1 1078 26 is_stmt 0 view .LVU708
	subq	%rax, %rbp
.LVL310:
	.loc 1 1079 19 is_stmt 1 view .LVU709
	.loc 1 1079 22 is_stmt 0 view .LVU710
	cmpq	%rax, %rbx
	je	.L229
	.loc 1 1081 23 is_stmt 1 view .LVU711
.LVL311:
.LBB301:
.LBI301:
	.loc 3 135 1 view .LVU712
.LBB302:
	.loc 3 137 3 view .LVU713
	.loc 3 137 10 is_stmt 0 view .LVU714
	movq	in_stream(%rip), %rax
.LVL312:
	.loc 3 137 10 view .LVU715
	movl	(%rax), %eax
.LVL313:
	.loc 3 137 10 view .LVU716
.LBE302:
.LBE301:
	.loc 1 1081 26 view .LVU717
	testb	$32, %al
	jne	.L253
	.loc 1 1088 23 is_stmt 1 view .LVU718
.LVL314:
.LBB303:
.LBI303:
	.loc 3 128 1 view .LVU719
.LBB304:
	.loc 3 130 3 view .LVU720
	.loc 3 130 3 is_stmt 0 view .LVU721
.LBE304:
.LBE303:
	.loc 1 1088 26 view .LVU722
	testb	$16, %al
	jne	.L231
.L229:
	.loc 1 1073 21 is_stmt 1 view .LVU723
	testq	%rbp, %rbp
	jne	.L224
.LVL315:
.L217:
	.loc 1 1073 21 is_stmt 0 view .LVU724
.LBE296:
.LBE311:
.LBE314:
	.loc 1 1113 1 view .LVU725
	movq	8344(%rsp), %rax
	xorq	%fs:40, %rax
	jne	.L254
	addq	$8360, %rsp
	.cfi_remember_state
	.cfi_def_cfa_offset 56
	movl	%r13d, %eax
	popq	%rbx
	.cfi_def_cfa_offset 48
	popq	%rbp
	.cfi_def_cfa_offset 40
	popq	%r12
	.cfi_def_cfa_offset 32
	popq	%r13
	.cfi_def_cfa_offset 24
	popq	%r14
	.cfi_def_cfa_offset 16
	popq	%r15
	.cfi_def_cfa_offset 8
	ret
.LVL316:
	.p2align 4,,10
	.p2align 3
.L252:
	.cfi_restore_state
.LBB315:
.LBB312:
	.loc 1 1046 30 discriminator 1 view .LVU726
	movq	56(%rsp), %rax
	leaq	-1(%rax), %rdx
	cmpq	%r15, %rdx
	movl	$512, %edx
	cmova	%rdx, %rax
	.loc 1 1046 66 discriminator 1 view .LVU727
	movq	48(%rsp), %rdx
	.loc 1 1046 27 discriminator 1 view .LVU728
	cmpq	%rax, %rdx
	jle	.L228
	.loc 1 1048 15 is_stmt 1 view .LVU729
	.loc 1 1048 18 is_stmt 0 view .LVU730
	cmpq	%rbp, %rdx
	jnb	.L225
	.loc 1 1049 17 is_stmt 1 view .LVU731
.LVL317:
	.loc 1 1049 24 is_stmt 0 view .LVU732
	subq	%rdx, %rbp
.LVL318:
	.loc 1 1094 11 is_stmt 1 view .LVU733
	.p2align 4,,10
	.p2align 3
.L226:
	.loc 1 1094 11 is_stmt 0 view .LVU734
.LBE312:
	.loc 1 1104 7 is_stmt 1 discriminator 1 view .LVU735
	.loc 1 1104 13 is_stmt 0 discriminator 1 view .LVU736
	xorl	%edi, %edi
	call	check_and_close
.LVL319:
	andl	%eax, %r13d
.LVL320:
	.loc 1 1106 7 is_stmt 1 discriminator 1 view .LVU737
	.loc 1 1106 13 is_stmt 0 discriminator 1 view .LVU738
	call	open_next_file
.LVL321:
.LBE315:
	.loc 1 1021 20 discriminator 1 view .LVU739
	movq	in_stream(%rip), %r12
	andl	%eax, %r13d
.LVL322:
	.loc 1 1021 9 is_stmt 1 discriminator 1 view .LVU740
	testq	%r12, %r12
	jne	.L233
.LVL323:
.L234:
	.loc 1 1109 3 view .LVU741
.LBB316:
	.loc 1 1110 5 view .LVU742
	movl	$5, %edx
	leaq	.LC20(%rip), %rsi
	xorl	%edi, %edi
	call	dcgettext@PLT
.LVL324:
	xorl	%esi, %esi
	movl	$1, %edi
	movq	%rax, %rdx
	xorl	%eax, %eax
	call	error@PLT
.LVL325:
	.p2align 4,,10
	.p2align 3
.L220:
	.loc 1 1110 5 is_stmt 0 view .LVU743
.LBE316:
.LBB317:
	.loc 1 1100 11 is_stmt 1 view .LVU744
	movq	input_filename(%rip), %rdx
	movl	$3, %esi
	xorl	%edi, %edi
	.loc 1 1101 14 is_stmt 0 view .LVU745
	xorl	%r13d, %r13d
.LVL326:
	.loc 1 1100 11 view .LVU746
	call	quotearg_n_style_colon@PLT
.LVL327:
	movq	%rax, %r12
	.loc 1 1100 21 view .LVU747
	call	__errno_location@PLT
.LVL328:
	.loc 1 1100 11 view .LVU748
	movq	%r12, %rcx
	leaq	.LC16(%rip), %rdx
	xorl	%edi, %edi
	movl	(%rax), %esi
	xorl	%eax, %eax
	call	error@PLT
.LVL329:
	.loc 1 1101 11 is_stmt 1 view .LVU749
	.loc 1 1101 11 is_stmt 0 view .LVU750
	jmp	.L226
.LVL330:
	.p2align 4,,10
	.p2align 3
.L231:
.LBB313:
	.loc 1 1094 11 is_stmt 1 view .LVU751
	.loc 1 1094 14 is_stmt 0 view .LVU752
	testq	%rbp, %rbp
	jne	.L226
	jmp	.L217
	.p2align 4,,10
	.p2align 3
.L253:
.LBB305:
	.loc 1 1083 27 is_stmt 1 view .LVU753
.LVL331:
	.loc 1 1084 27 view .LVU754
	.loc 1 1085 27 view .LVU755
	.loc 1 1086 27 view .LVU756
	.loc 1 1086 27 is_stmt 0 view .LVU757
.LBE305:
	.loc 1 1094 11 is_stmt 1 view .LVU758
.LBB306:
	.loc 1 1084 30 is_stmt 0 view .LVU759
	xorl	%r13d, %r13d
	jmp	.L217
.LVL332:
.L225:
	.loc 1 1084 30 view .LVU760
.LBE306:
	.loc 1 1052 19 is_stmt 1 view .LVU761
	.loc 1 1052 23 is_stmt 0 view .LVU762
	movl	$1, %edx
	movq	%rbp, %rsi
	movq	%r12, %rdi
	call	rpl_fseeko@PLT
.LVL333:
	.loc 1 1055 26 view .LVU763
	testl	%eax, %eax
	movl	$0, %eax
	cmovne	%eax, %r13d
.LVL334:
	.loc 1 1055 26 view .LVU764
	jmp	.L217
.LVL335:
.L251:
	.loc 1 1055 26 view .LVU765
.LBE313:
.LBE317:
	.loc 1 1019 12 view .LVU766
	movl	$1, %r13d
	jmp	.L217
.LVL336:
.L254:
	.loc 1 1113 1 view .LVU767
	call	__stack_chk_fail@PLT
.LVL337:
	.cfi_endproc
.LFE158:
	.size	skip, .-skip
	.p2align 4
	.type	read_char, @function
read_char:
.LVL338:
.LFB164:
	.loc 1 1254 1 is_stmt 1 view -0
	.cfi_startproc
	.loc 1 1255 3 view .LVU769
	.loc 1 1257 3 view .LVU770
	.loc 1 1254 1 is_stmt 0 view .LVU771
	pushq	%r12
	.cfi_def_cfa_offset 16
	.cfi_offset 12, -16
	.loc 1 1255 8 view .LVU772
	movl	$1, %r12d
	.loc 1 1254 1 view .LVU773
	pushq	%rbp
	.cfi_def_cfa_offset 24
	.cfi_offset 6, -24
	movq	%rdi, %rbp
	pushq	%rbx
	.cfi_def_cfa_offset 32
	.cfi_offset 3, -32
	.loc 1 1257 6 view .LVU774
	movl	$-1, (%rdi)
	.loc 1 1259 3 is_stmt 1 view .LVU775
	.loc 1 1259 9 view .LVU776
	.loc 1 1259 20 is_stmt 0 view .LVU777
	movq	in_stream(%rip), %rdi
.LVL339:
	.loc 1 1259 9 view .LVU778
	testq	%rdi, %rdi
	jne	.L257
	jmp	.L255
.LVL340:
	.p2align 4,,10
	.p2align 3
.L261:
	.loc 1 1266 7 is_stmt 1 view .LVU779
	.loc 1 1266 30 is_stmt 0 view .LVU780
	call	__errno_location@PLT
.LVL341:
	.loc 1 1266 13 view .LVU781
	movl	(%rax), %edi
	call	check_and_close
.LVL342:
	movl	%eax, %ebx
.LVL343:
	.loc 1 1268 7 is_stmt 1 view .LVU782
	.loc 1 1268 13 is_stmt 0 view .LVU783
	call	open_next_file
.LVL344:
	.loc 1 1259 20 view .LVU784
	movq	in_stream(%rip), %rdi
	andl	%eax, %ebx
.LVL345:
	.loc 1 1259 20 view .LVU785
	andl	%ebx, %r12d
.LVL346:
	.loc 1 1259 9 is_stmt 1 view .LVU786
	testq	%rdi, %rdi
	je	.L255
.LVL347:
.L257:
	.loc 1 1261 7 view .LVU787
	.loc 1 1261 12 is_stmt 0 view .LVU788
	call	fgetc@PLT
.LVL348:
	.loc 1 1261 10 view .LVU789
	movl	%eax, 0(%rbp)
	.loc 1 1263 7 is_stmt 1 view .LVU790
	.loc 1 1263 10 is_stmt 0 view .LVU791
	cmpl	$-1, %eax
	je	.L261
.LVL349:
.L255:
	.loc 1 1272 1 view .LVU792
	movl	%r12d, %eax
	popq	%rbx
	.cfi_def_cfa_offset 24
	popq	%rbp
	.cfi_def_cfa_offset 16
.LVL350:
	.loc 1 1272 1 view .LVU793
	popq	%r12
	.cfi_def_cfa_offset 8
	ret
	.cfi_endproc
.LFE164:
	.size	read_char, .-read_char
	.section	.rodata.str1.1
.LC21:
	.string	"*"
.LC22:
	.string	""
.LC23:
	.string	"  >"
	.text
	.p2align 4
	.type	write_block, @function
write_block:
.LVL351:
.LFB163:
	.loc 1 1190 1 is_stmt 1 view -0
	.cfi_startproc
	.loc 1 1191 3 view .LVU795
	.loc 1 1192 3 view .LVU796
	.loc 1 1196 3 view .LVU797
	.loc 1 1190 1 is_stmt 0 view .LVU798
	pushq	%r15
	.cfi_def_cfa_offset 16
	.cfi_offset 15, -16
	pushq	%r14
	.cfi_def_cfa_offset 24
	.cfi_offset 14, -24
	movq	%rcx, %r14
	pushq	%r13
	.cfi_def_cfa_offset 32
	.cfi_offset 13, -32
	movq	%rsi, %r13
	pushq	%r12
	.cfi_def_cfa_offset 40
	.cfi_offset 12, -40
	pushq	%rbp
	.cfi_def_cfa_offset 48
	.cfi_offset 6, -48
	pushq	%rbx
	.cfi_def_cfa_offset 56
	.cfi_offset 3, -56
	subq	$40, %rsp
	.cfi_def_cfa_offset 96
	.loc 1 1196 6 view .LVU799
	cmpb	$0, abbreviate_duplicate_blocks(%rip)
	.loc 1 1190 1 view .LVU800
	movq	%rdi, 16(%rsp)
	.loc 1 1196 6 view .LVU801
	je	.L263
	.loc 1 1197 7 view .LVU802
	cmpb	$0, first.7757(%rip)
	je	.L286
.LVL352:
.L263:
	.loc 1 1213 7 is_stmt 1 view .LVU803
.LBB337:
	.loc 1 1214 7 is_stmt 0 view .LVU804
	cmpq	$0, n_specs(%rip)
.LBE337:
	.loc 1 1213 23 view .LVU805
	movb	$0, prev_pair_equal.7758(%rip)
	.loc 1 1214 7 is_stmt 1 view .LVU806
.LBB371:
	.loc 1 1214 12 view .LVU807
.LVL353:
	.loc 1 1214 26 view .LVU808
	.loc 1 1214 7 is_stmt 0 view .LVU809
	je	.L265
	leaq	(%r14,%r13), %rax
	movq	%r13, 8(%rsp)
	.loc 1 1214 19 view .LVU810
	xorl	%ebx, %ebx
	movq	%rax, 24(%rsp)
	jmp	.L280
.LVL354:
	.p2align 4,,10
	.p2align 3
.L289:
.LBB338:
	.loc 1 1220 13 is_stmt 1 view .LVU811
	movq	16(%rsp), %rdi
	xorl	%esi, %esi
	call	*format_address(%rip)
.LVL355:
.L268:
	.loc 1 1223 11 view .LVU812
	.loc 1 1223 17 is_stmt 0 view .LVU813
	movq	spec(%rip), %rax
	.loc 1 1223 12 view .LVU814
	movslq	%r12d, %rsi
	movslq	%r13d, %rdi
	movq	%r14, %rdx
	.loc 1 1223 17 view .LVU815
	addq	%rbp, %rax
	.loc 1 1223 12 view .LVU816
	movl	32(%rax), %r9d
	movl	28(%rax), %r8d
	.loc 1 1224 57 view .LVU817
	leaq	16(%rax), %rcx
	.loc 1 1223 12 view .LVU818
	call	*8(%rax)
.LVL356:
	.loc 1 1226 11 is_stmt 1 view .LVU819
	.loc 1 1226 19 is_stmt 0 view .LVU820
	addq	spec(%rip), %rbp
	.loc 1 1226 14 view .LVU821
	cmpb	$0, 24(%rbp)
	jne	.L287
.LVL357:
.L269:
	.loc 1 1235 11 is_stmt 1 discriminator 2 view .LVU822
.LBB339:
.LBI339:
	.loc 3 108 1 discriminator 2 view .LVU823
.LBB340:
	.loc 3 110 3 discriminator 2 view .LVU824
	.loc 3 110 10 is_stmt 0 discriminator 2 view .LVU825
	movq	stdout(%rip), %rdi
	movq	40(%rdi), %rax
	cmpq	48(%rdi), %rax
	jnb	.L288
	.loc 3 110 10 view .LVU826
	leaq	1(%rax), %rdx
	movq	%rdx, 40(%rdi)
	movb	$10, (%rax)
.L279:
.LVL358:
	.loc 3 110 10 view .LVU827
.LBE340:
.LBE339:
.LBE338:
	.loc 1 1214 39 is_stmt 1 view .LVU828
	.loc 1 1214 40 is_stmt 0 view .LVU829
	addq	$1, %rbx
.LVL359:
	.loc 1 1214 26 is_stmt 1 view .LVU830
	.loc 1 1214 7 is_stmt 0 view .LVU831
	cmpq	%rbx, n_specs(%rip)
	jbe	.L265
.LVL360:
.L280:
.LBB369:
	.loc 1 1216 11 is_stmt 1 view .LVU832
	.loc 1 1216 48 is_stmt 0 view .LVU833
	movq	spec(%rip), %rdx
	leaq	(%rbx,%rbx,4), %rax
	.loc 1 1217 50 view .LVU834
	movq	bytes_per_block(%rip), %r12
	leaq	width_bytes(%rip), %rsi
	leaq	0(,%rax,8), %rbp
.LVL361:
	.loc 1 1217 11 is_stmt 1 view .LVU835
	.loc 1 1216 15 is_stmt 0 view .LVU836
	movl	4(%rdx,%rax,8), %eax
	.loc 1 1217 50 view .LVU837
	xorl	%edx, %edx
.LVL362:
	.loc 1 1217 50 view .LVU838
	movslq	(%rsi,%rax,4), %rcx
	movq	%r12, %rax
	.loc 1 1218 47 view .LVU839
	subq	8(%rsp), %r12
	.loc 1 1217 50 view .LVU840
	divq	%rcx
	.loc 1 1218 58 view .LVU841
	xorl	%edx, %edx
	.loc 1 1217 50 view .LVU842
	movq	%rax, %r13
	.loc 1 1217 15 view .LVU843
	movl	%eax, %r15d
.LVL363:
	.loc 1 1218 11 is_stmt 1 view .LVU844
	.loc 1 1218 58 is_stmt 0 view .LVU845
	movq	%r12, %rax
.LVL364:
	.loc 1 1218 58 view .LVU846
	divq	%rcx
	movq	%rax, %r12
.LVL365:
	.loc 1 1219 11 is_stmt 1 view .LVU847
	.loc 1 1219 14 is_stmt 0 view .LVU848
	testq	%rbx, %rbx
	je	.L289
	.loc 1 1222 13 is_stmt 1 view .LVU849
.LVL366:
.LBB342:
.LBI342:
	.loc 2 105 1 view .LVU850
.LBB343:
	.loc 2 107 3 view .LVU851
	.loc 2 107 10 is_stmt 0 view .LVU852
	movl	address_pad_len(%rip), %edx
	leaq	.LC22(%rip), %rcx
	leaq	.LC3(%rip), %rsi
	xorl	%eax, %eax
	movl	$1, %edi
	call	__printf_chk@PLT
.LVL367:
	.loc 2 107 10 view .LVU853
	jmp	.L268
.LVL368:
	.p2align 4,,10
	.p2align 3
.L287:
	.loc 2 107 10 view .LVU854
.LBE343:
.LBE342:
.LBB344:
	.loc 1 1229 15 is_stmt 1 view .LVU855
	.loc 1 1230 15 view .LVU856
	.loc 1 1232 15 view .LVU857
.LBB345:
.LBI345:
	.loc 2 105 1 view .LVU858
.LBB346:
	.loc 2 107 3 view .LVU859
.LBE346:
.LBE345:
	.loc 1 1230 50 is_stmt 0 view .LVU860
	movl	32(%rbp), %eax
.LBB349:
.LBB347:
	.loc 2 107 10 view .LVU861
	leaq	.LC22(%rip), %rcx
	movl	$1, %edi
	leaq	.LC3(%rip), %rsi
.LBE347:
.LBE349:
	.loc 1 1230 50 view .LVU862
	imull	%r12d, %eax
	.loc 1 1232 43 view .LVU863
	imull	28(%rbp), %r12d
.LVL369:
	.loc 1 1230 19 view .LVU864
	cltd
	idivl	%r15d
	.loc 1 1232 15 view .LVU865
	leal	(%rax,%r12), %edx
.LBB350:
.LBB348:
	.loc 2 107 10 view .LVU866
	xorl	%eax, %eax
	call	__printf_chk@PLT
.LVL370:
	.loc 2 107 10 view .LVU867
.LBE348:
.LBE350:
	.loc 1 1233 15 is_stmt 1 view .LVU868
.LBB351:
.LBI351:
	.loc 1 487 1 view .LVU869
.LBB352:
	.loc 1 489 3 view .LVU870
	movl	$3, %edx
	movq	stdout(%rip), %rcx
	movl	$1, %esi
	leaq	.LC23(%rip), %rdi
	call	fwrite_unlocked@PLT
.LVL371:
	.loc 1 490 3 view .LVU871
.LBB353:
	.loc 1 490 8 view .LVU872
	.loc 1 490 28 view .LVU873
	.loc 1 490 3 is_stmt 0 view .LVU874
	cmpq	$0, 8(%rsp)
	je	.L277
.LBB354:
	.loc 1 493 27 view .LVU875
	call	__ctype_b_loc@PLT
.LVL372:
	movq	24(%rsp), %r13
	movq	%r14, %rbp
	movq	%rax, %r12
.LVL373:
	.p2align 4,,10
	.p2align 3
.L276:
	.loc 1 492 7 is_stmt 1 view .LVU876
	.loc 1 492 21 is_stmt 0 view .LVU877
	movzbl	0(%rbp), %ecx
	.loc 1 493 27 view .LVU878
	movq	(%r12), %rdx
	.loc 1 492 31 view .LVU879
	addq	$1, %rbp
.LVL374:
	.loc 1 492 21 view .LVU880
	movq	%rcx, %rax
.LVL375:
	.loc 1 493 7 is_stmt 1 view .LVU881
	movzbl	%cl, %esi
	.loc 1 493 21 is_stmt 0 view .LVU882
	testb	$64, 1(%rdx,%rcx,2)
	jne	.L273
	movl	$46, %esi
	movl	$46, %eax
.L273:
.LVL376:
	.loc 1 494 7 is_stmt 1 view .LVU883
.LBB355:
.LBI355:
	.loc 3 108 1 view .LVU884
.LBB356:
	.loc 3 110 3 view .LVU885
	.loc 3 110 10 is_stmt 0 view .LVU886
	movq	stdout(%rip), %rdi
	movq	40(%rdi), %rdx
	cmpq	48(%rdi), %rdx
	jnb	.L290
	leaq	1(%rdx), %rcx
.LVL377:
	.loc 3 110 10 view .LVU887
	movq	%rcx, 40(%rdi)
.LVL378:
	.loc 3 110 10 view .LVU888
	movb	%al, (%rdx)
.LVL379:
.L275:
	.loc 3 110 10 view .LVU889
.LBE356:
.LBE355:
.LBE354:
	.loc 1 490 35 is_stmt 1 view .LVU890
	.loc 1 490 28 view .LVU891
	.loc 1 490 3 is_stmt 0 view .LVU892
	cmpq	%r13, %rbp
	jne	.L276
.LVL380:
.L277:
	.loc 1 490 3 view .LVU893
.LBE353:
	.loc 1 496 3 is_stmt 1 view .LVU894
.LBB360:
.LBI360:
	.loc 3 108 1 view .LVU895
.LBB361:
	.loc 3 110 3 view .LVU896
	.loc 3 110 10 is_stmt 0 view .LVU897
	movq	stdout(%rip), %rdi
	movq	40(%rdi), %rax
	cmpq	48(%rdi), %rax
	jnb	.L291
	leaq	1(%rax), %rdx
	movq	%rdx, 40(%rdi)
	movb	$60, (%rax)
	jmp	.L269
.LVL381:
	.p2align 4,,10
	.p2align 3
.L290:
	.loc 3 110 10 view .LVU898
.LBE361:
.LBE360:
.LBB363:
.LBB359:
.LBB358:
.LBB357:
	call	__overflow@PLT
.LVL382:
	.loc 3 110 10 view .LVU899
	jmp	.L275
.LVL383:
	.p2align 4,,10
	.p2align 3
.L286:
	.loc 3 110 10 view .LVU900
.LBE357:
.LBE358:
.LBE359:
.LBE363:
.LBE352:
.LBE351:
.LBE344:
.LBE369:
.LBE371:
	.loc 1 1197 17 discriminator 1 view .LVU901
	cmpq	%rsi, bytes_per_block(%rip)
	jne	.L263
	movq	%rdx, %rdi
.LVL384:
	.loc 1 1198 10 view .LVU902
	movq	%rsi, %rdx
.LVL385:
	.loc 1 1198 10 view .LVU903
	movq	%rcx, %rsi
.LVL386:
	.loc 1 1198 10 view .LVU904
	call	memcmp@PLT
.LVL387:
	.loc 1 1198 7 view .LVU905
	testl	%eax, %eax
	jne	.L263
	.loc 1 1200 7 is_stmt 1 view .LVU906
	.loc 1 1200 10 is_stmt 0 view .LVU907
	cmpb	$0, prev_pair_equal.7758(%rip)
	jne	.L265
	.loc 1 1207 11 is_stmt 1 view .LVU908
.LVL388:
.LBB372:
.LBI372:
	.loc 2 105 1 view .LVU909
.LBB373:
	.loc 2 107 3 view .LVU910
	.loc 2 107 10 is_stmt 0 view .LVU911
	leaq	.LC21(%rip), %rdi
	call	puts@PLT
.LVL389:
	.loc 2 107 10 view .LVU912
.LBE373:
.LBE372:
	.loc 1 1208 11 is_stmt 1 view .LVU913
	.loc 1 1208 27 is_stmt 0 view .LVU914
	movb	$1, prev_pair_equal.7758(%rip)
.LVL390:
.L265:
	.loc 1 1238 3 is_stmt 1 view .LVU915
	.loc 1 1238 9 is_stmt 0 view .LVU916
	movb	$0, first.7757(%rip)
	.loc 1 1239 1 view .LVU917
	addq	$40, %rsp
	.cfi_remember_state
	.cfi_def_cfa_offset 56
	popq	%rbx
	.cfi_def_cfa_offset 48
	popq	%rbp
	.cfi_def_cfa_offset 40
	popq	%r12
	.cfi_def_cfa_offset 32
	popq	%r13
	.cfi_def_cfa_offset 24
	popq	%r14
	.cfi_def_cfa_offset 16
.LVL391:
	.loc 1 1239 1 view .LVU918
	popq	%r15
	.cfi_def_cfa_offset 8
	ret
.LVL392:
	.p2align 4,,10
	.p2align 3
.L288:
	.cfi_restore_state
.LBB374:
.LBB370:
.LBB367:
.LBB341:
	.loc 3 110 10 view .LVU919
	movl	$10, %esi
	call	__overflow@PLT
.LVL393:
	jmp	.L279
.LVL394:
	.p2align 4,,10
	.p2align 3
.L291:
	.loc 3 110 10 view .LVU920
.LBE341:
.LBE367:
.LBB368:
.LBB366:
.LBB365:
.LBB364:
.LBB362:
	movl	$60, %esi
	call	__overflow@PLT
.LVL395:
	jmp	.L269
.LBE362:
.LBE364:
.LBE365:
.LBE366:
.LBE368:
.LBE370:
.LBE374:
	.cfi_endproc
.LFE163:
	.size	write_block, .-write_block
	.p2align 4
	.type	format_address_paren, @function
format_address_paren:
.LVL396:
.LFB161:
	.loc 1 1163 1 is_stmt 1 view -0
	.cfi_startproc
	.loc 1 1163 1 is_stmt 0 view .LVU922
	endbr64
	.loc 1 1164 3 is_stmt 1 view .LVU923
.LVL397:
.LBB383:
.LBI383:
	.loc 3 108 1 view .LVU924
.LBB384:
	.loc 3 110 3 view .LVU925
.LBE384:
.LBE383:
	.loc 1 1163 1 is_stmt 0 view .LVU926
	pushq	%rbp
	.cfi_def_cfa_offset 16
	.cfi_offset 6, -16
	movq	%rdi, %rbp
	pushq	%rbx
	.cfi_def_cfa_offset 24
	.cfi_offset 3, -24
	movl	%esi, %ebx
	subq	$8, %rsp
	.cfi_def_cfa_offset 32
.LBB387:
.LBB385:
	.loc 3 110 10 view .LVU927
	movq	stdout(%rip), %rdi
.LVL398:
	.loc 3 110 10 view .LVU928
	movq	40(%rdi), %rax
	cmpq	48(%rdi), %rax
	jnb	.L298
	leaq	1(%rax), %rdx
	movq	%rdx, 40(%rdi)
	movb	$40, (%rax)
.LVL399:
.L294:
	.loc 3 110 10 view .LVU929
.LBE385:
.LBE387:
	.loc 1 1165 3 is_stmt 1 view .LVU930
	movl	$41, %esi
	movq	%rbp, %rdi
	call	format_address_std
.LVL400:
	.loc 1 1166 3 view .LVU931
	.loc 1 1166 6 is_stmt 0 view .LVU932
	testb	%bl, %bl
	je	.L292
.LVL401:
.LBB388:
.LBI388:
	.loc 1 1162 1 is_stmt 1 view .LVU933
	.loc 1 1162 1 is_stmt 0 view .LVU934
.LBE388:
	.loc 1 1167 5 is_stmt 1 view .LVU935
.LBB395:
.LBB389:
.LBI389:
	.loc 3 108 1 view .LVU936
.LBB390:
	.loc 3 110 3 view .LVU937
	.loc 3 110 10 is_stmt 0 view .LVU938
	movq	stdout(%rip), %rdi
	movq	40(%rdi), %rax
	cmpq	48(%rdi), %rax
	jnb	.L299
	leaq	1(%rax), %rdx
	movq	%rdx, 40(%rdi)
	movb	%bl, (%rax)
.LVL402:
.L292:
	.loc 3 110 10 view .LVU939
.LBE390:
.LBE389:
.LBE395:
	.loc 1 1168 1 view .LVU940
	addq	$8, %rsp
	.cfi_remember_state
	.cfi_def_cfa_offset 24
	popq	%rbx
	.cfi_def_cfa_offset 16
	popq	%rbp
	.cfi_def_cfa_offset 8
.LVL403:
	.loc 1 1168 1 view .LVU941
	ret
.LVL404:
	.p2align 4,,10
	.p2align 3
.L299:
	.cfi_restore_state
	.loc 1 1168 1 view .LVU942
	addq	$8, %rsp
	.cfi_remember_state
	.cfi_def_cfa_offset 24
.LBB396:
.LBB393:
.LBB391:
	.loc 3 110 10 view .LVU943
	movzbl	%bl, %esi
.LBE391:
.LBE393:
.LBE396:
	.loc 1 1168 1 view .LVU944
	popq	%rbx
	.cfi_def_cfa_offset 16
.LVL405:
	.loc 1 1168 1 view .LVU945
	popq	%rbp
	.cfi_def_cfa_offset 8
.LVL406:
.LBB397:
.LBB394:
.LBB392:
	.loc 3 110 10 view .LVU946
	jmp	__overflow@PLT
.LVL407:
	.p2align 4,,10
	.p2align 3
.L298:
	.cfi_restore_state
	.loc 3 110 10 view .LVU947
.LBE392:
.LBE394:
.LBE397:
.LBB398:
.LBB386:
	movl	$40, %esi
.LVL408:
	.loc 3 110 10 view .LVU948
	call	__overflow@PLT
.LVL409:
	jmp	.L294
.LBE386:
.LBE398:
	.cfi_endproc
.LFE161:
	.size	format_address_paren, .-format_address_paren
	.p2align 4
	.type	format_address_label, @function
format_address_label:
.LVL410:
.LFB162:
	.loc 1 1172 1 is_stmt 1 view -0
	.cfi_startproc
	.loc 1 1172 1 is_stmt 0 view .LVU950
	endbr64
	.loc 1 1173 3 is_stmt 1 view .LVU951
	.loc 1 1172 1 is_stmt 0 view .LVU952
	pushq	%rbp
	.cfi_def_cfa_offset 16
	.cfi_offset 6, -16
	movl	%esi, %ebp
	.loc 1 1173 3 view .LVU953
	movl	$32, %esi
.LVL411:
	.loc 1 1172 1 view .LVU954
	pushq	%rbx
	.cfi_def_cfa_offset 24
	.cfi_offset 3, -24
	movq	%rdi, %rbx
	subq	$8, %rsp
	.cfi_def_cfa_offset 32
	.loc 1 1173 3 view .LVU955
	call	format_address_std
.LVL412:
	.loc 1 1174 3 is_stmt 1 view .LVU956
	addq	pseudo_offset(%rip), %rbx
.LVL413:
	.loc 1 1175 1 is_stmt 0 view .LVU957
	addq	$8, %rsp
	.cfi_def_cfa_offset 24
	.loc 1 1174 3 view .LVU958
	movsbl	%bpl, %esi
	movq	%rbx, %rdi
	.loc 1 1175 1 view .LVU959
	popq	%rbx
	.cfi_def_cfa_offset 16
	popq	%rbp
	.cfi_def_cfa_offset 8
	.loc 1 1174 3 view .LVU960
	jmp	format_address_paren
.LVL414:
	.cfi_endproc
.LFE162:
	.size	format_address_label, .-format_address_label
	.section	.rodata.str1.1
.LC24:
	.string	"ld"
.LC25:
	.string	"d"
.LC26:
	.string	"lo"
.LC27:
	.string	"o"
.LC28:
	.string	"lu"
.LC29:
	.string	"u"
.LC30:
	.string	"lx"
.LC31:
	.string	"x"
.LC32:
	.string	"src/od.c"
.LC33:
	.string	"tspec != NULL"
	.section	.rodata.str1.8
	.align 8
.LC34:
	.string	"invalid type string %s;\nthis system doesn't provide a %lu-byte integral type"
	.section	.rodata.str1.1
.LC35:
	.string	"%%*%s"
.LC36:
	.string	"%%*.%d%s"
	.section	.rodata.str1.8
	.align 8
.LC37:
	.string	"strlen (tspec->fmt_string) < FMT_BYTES_ALLOCATED"
	.align 8
.LC38:
	.string	"invalid type string %s;\nthis system doesn't provide a %lu-byte floating point type"
	.align 8
.LC39:
	.string	"invalid character '%c' in type string %s"
	.section	.rodata.str1.1
.LC40:
	.string	"s != next"
.LC41:
	.string	"invalid type string %s"
	.section	.text.unlikely,"ax",@progbits
.LCOLDB42:
	.text
.LHOTB42:
	.p2align 4
	.section	.text.unlikely
.Ltext_cold0:
	.text
	.type	decode_format_string.part.0, @function
decode_format_string.part.0:
.LVL415:
.LFB176:
	.loc 1 982 1 is_stmt 1 view -0
	.cfi_startproc
	.loc 1 987 9 view .LVU962
	.loc 1 982 1 is_stmt 0 view .LVU963
	pushq	%r15
	.cfi_def_cfa_offset 16
	.cfi_offset 15, -16
	movq	%rdi, %r15
	pushq	%r14
	.cfi_def_cfa_offset 24
	.cfi_offset 14, -24
	pushq	%r13
	.cfi_def_cfa_offset 32
	.cfi_offset 13, -32
	leaq	.L315(%rip), %r13
	pushq	%r12
	.cfi_def_cfa_offset 40
	.cfi_offset 12, -40
	pushq	%rbp
	.cfi_def_cfa_offset 48
	.cfi_offset 6, -48
	pushq	%rbx
	.cfi_def_cfa_offset 56
	.cfi_offset 3, -56
	subq	$24, %rsp
	.cfi_def_cfa_offset 80
	.loc 1 987 9 view .LVU964
	cmpb	$0, (%rdi)
	movq	n_specs(%rip), %rax
	.loc 1 982 1 view .LVU965
	movq	%rdi, 8(%rsp)
	.loc 1 987 9 view .LVU966
	je	.L366
.LVL416:
	.p2align 4,,10
	.p2align 3
.L365:
.LBB421:
	.loc 1 989 7 is_stmt 1 view .LVU967
	.loc 1 991 7 view .LVU968
	.loc 1 991 29 is_stmt 0 view .LVU969
	movq	n_specs_allocated(%rip), %rcx
	movq	spec(%rip), %rdi
	.loc 1 991 10 view .LVU970
	cmpq	%rax, %rcx
	jbe	.L394
.L305:
	.loc 1 994 7 is_stmt 1 view .LVU971
	.loc 1 994 55 is_stmt 0 view .LVU972
	leaq	(%rax,%rax,4), %rax
	.loc 1 994 13 view .LVU973
	leaq	(%rdi,%rax,8), %rbp
.LVL417:
.LBB422:
.LBI422:
	.loc 1 635 1 is_stmt 1 view .LVU974
.LBB423:
	.loc 1 638 3 view .LVU975
	.loc 1 639 3 view .LVU976
	.loc 1 640 3 view .LVU977
	.loc 1 641 3 view .LVU978
	.loc 1 643 3 view .LVU979
	.loc 1 644 3 view .LVU980
	.loc 1 645 3 view .LVU981
	.loc 1 647 3 view .LVU982
	testq	%rbp, %rbp
	je	.L395
	.loc 1 649 3 view .LVU983
	.loc 1 649 11 is_stmt 0 view .LVU984
	movzbl	(%r15), %esi
	leal	-97(%rsi), %eax
	cmpb	$23, %al
	ja	.L313
	movzbl	%al, %eax
	movslq	0(%r13,%rax,4), %rax
	addq	%r13, %rax
	notrack jmp	*%rax
	.section	.rodata
	.align 4
	.align 4
.L315:
	.long	.L318-.L315
	.long	.L313-.L315
	.long	.L317-.L315
	.long	.L314-.L315
	.long	.L313-.L315
	.long	.L316-.L315
	.long	.L313-.L315
	.long	.L313-.L315
	.long	.L313-.L315
	.long	.L313-.L315
	.long	.L313-.L315
	.long	.L313-.L315
	.long	.L313-.L315
	.long	.L313-.L315
	.long	.L314-.L315
	.long	.L313-.L315
	.long	.L313-.L315
	.long	.L313-.L315
	.long	.L313-.L315
	.long	.L313-.L315
	.long	.L314-.L315
	.long	.L313-.L315
	.long	.L313-.L315
	.long	.L314-.L315
	.text
	.p2align 4,,10
	.p2align 3
.L313:
	.loc 1 874 7 is_stmt 1 view .LVU985
	movq	8(%rsp), %rdi
	call	quote@PLT
.LVL418:
	movsbl	(%r15), %r12d
	.loc 1 874 20 is_stmt 0 view .LVU986
	movl	$5, %edx
	xorl	%edi, %edi
	leaq	.LC39(%rip), %rsi
	.loc 1 874 7 view .LVU987
	movq	%rax, %rbx
	.loc 1 874 20 view .LVU988
	call	dcgettext@PLT
.LVL419:
	.loc 1 874 7 view .LVU989
	movq	%rbx, %r8
	movl	%r12d, %ecx
	xorl	%esi, %esi
	.loc 1 874 20 view .LVU990
	movq	%rax, %rdx
	.loc 1 874 7 view .LVU991
	xorl	%edi, %edi
	xorl	%eax, %eax
	call	error@PLT
.LVL420:
	.loc 1 876 7 is_stmt 1 view .LVU992
	.loc 1 876 7 is_stmt 0 view .LVU993
.LBE423:
.LBE422:
.LBE421:
	.loc 1 1003 1 view .LVU994
	addq	$24, %rsp
	.cfi_remember_state
	.cfi_def_cfa_offset 56
.LBB519:
	.loc 1 995 16 view .LVU995
	xorl	%eax, %eax
.LBE519:
	.loc 1 1003 1 view .LVU996
	popq	%rbx
	.cfi_def_cfa_offset 48
	popq	%rbp
	.cfi_def_cfa_offset 40
	popq	%r12
	.cfi_def_cfa_offset 32
	popq	%r13
	.cfi_def_cfa_offset 24
	popq	%r14
	.cfi_def_cfa_offset 16
	popq	%r15
	.cfi_def_cfa_offset 8
.LVL421:
	.loc 1 1003 1 view .LVU997
	ret
.LVL422:
	.p2align 4,,10
	.p2align 3
.L314:
	.cfi_restore_state
.LBB520:
.LBB497:
.LBB487:
	.loc 1 655 7 is_stmt 1 view .LVU998
	.loc 1 656 7 view .LVU999
	.loc 1 657 7 view .LVU1000
	.loc 1 657 15 is_stmt 0 view .LVU1001
	movzbl	1(%r15), %eax
	cmpb	$76, %al
	je	.L319
	jg	.L320
	cmpb	$67, %al
	je	.L321
	cmpb	$73, %al
	jne	.L396
	.loc 1 670 11 is_stmt 1 view .LVU1002
	movl	16+integral_type_size(%rip), %r12d
	leaq	2(%r15), %rbx
.LVL423:
	.loc 1 671 11 view .LVU1003
	.loc 1 672 11 view .LVU1004
	.loc 1 671 16 is_stmt 0 view .LVU1005
	movl	$4, %r8d
.LVL424:
.L328:
	.loc 1 710 7 is_stmt 1 view .LVU1006
	.loc 1 712 7 view .LVU1007
	cmpb	$117, %sil
	je	.L333
.LVL425:
.L404:
	.loc 1 712 7 is_stmt 0 view .LVU1008
	jg	.L334
	cmpb	$100, %sil
	jne	.L397
	.loc 1 715 11 is_stmt 1 view .LVU1009
.LVL426:
	.loc 1 716 11 view .LVU1010
	.loc 1 716 51 is_stmt 0 view .LVU1011
	leaq	bytes_to_signed_dec_digits(%rip), %rax
	.loc 1 717 25 view .LVU1012
	leaq	16(%rbp), %rdi
.LBB424:
.LBB425:
	.loc 2 36 10 view .LVU1013
	movl	$8, %edx
	movl	$1, %esi
.LVL427:
	.loc 2 36 10 view .LVU1014
.LBE425:
.LBE424:
	.loc 1 716 23 view .LVU1015
	movl	(%rax,%r8,4), %r14d
.LVL428:
	.loc 1 717 11 is_stmt 1 view .LVU1016
.LBB430:
.LBI424:
	.loc 2 34 1 view .LVU1017
.LBB426:
	.loc 2 36 3 view .LVU1018
.LBE426:
.LBE430:
	.loc 1 718 20 is_stmt 0 view .LVU1019
	leal	-4(%r12), %eax
	leaq	.LC24(%rip), %r8
.LVL429:
.LBB431:
.LBB427:
	.loc 2 36 10 view .LVU1020
	movq	%rdi, (%rsp)
.LBE427:
.LBE431:
	.loc 1 718 20 view .LVU1021
	cmpl	$2, %eax
	leaq	.LC25(%rip), %rax
.LBB432:
.LBB428:
	.loc 2 36 10 view .LVU1022
	leaq	.LC35(%rip), %rcx
.LBE428:
.LBE432:
	.loc 1 718 20 view .LVU1023
	cmovnb	%rax, %r8
.LBB433:
.LBB429:
	.loc 2 36 10 view .LVU1024
	xorl	%eax, %eax
	call	__sprintf_chk@PLT
.LVL430:
	.loc 2 36 10 view .LVU1025
	movq	(%rsp), %rdi
.LBE429:
.LBE433:
	.loc 1 715 15 view .LVU1026
	xorl	%ecx, %ecx
.LVL431:
.L340:
	.loc 1 715 15 view .LVU1027
	movl	%ecx, (%rsp)
.LVL432:
	.loc 1 746 7 is_stmt 1 view .LVU1028
	call	strlen@PLT
.LVL433:
	.loc 1 746 7 is_stmt 0 view .LVU1029
	movl	(%rsp), %ecx
	cmpq	$7, %rax
	ja	.L398
	.loc 1 748 7 is_stmt 1 view .LVU1030
	cmpl	$5, %r12d
	ja	.L337
	leaq	.L346(%rip), %rsi
	movl	%r12d, %edx
	movslq	(%rsi,%rdx,4), %rax
	addq	%rsi, %rax
	notrack jmp	*%rax
	.section	.rodata
	.align 4
	.align 4
.L346:
	.long	.L337-.L346
	.long	.L350-.L346
	.long	.L349-.L346
	.long	.L348-.L346
	.long	.L376-.L346
	.long	.L345-.L346
	.text
.L345:
	.loc 1 746 7 is_stmt 0 view .LVU1031
	leaq	print_long_long(%rip), %rax
.LVL434:
.L347:
	.loc 1 879 3 is_stmt 1 view .LVU1032
	.loc 1 881 25 is_stmt 0 view .LVU1033
	movq	%rax, 8(%rbp)
	.loc 1 879 15 view .LVU1034
	movl	%r12d, 4(%rbp)
	.loc 1 880 3 is_stmt 1 view .LVU1035
	.loc 1 880 14 is_stmt 0 view .LVU1036
	movl	%ecx, 0(%rbp)
	.loc 1 881 3 is_stmt 1 view .LVU1037
	.loc 1 883 3 view .LVU1038
	.loc 1 883 22 is_stmt 0 view .LVU1039
	movl	%r14d, 28(%rbp)
	.loc 1 884 3 is_stmt 1 view .LVU1040
	.loc 1 884 34 is_stmt 0 view .LVU1041
	cmpb	$122, (%rbx)
	sete	%al
.LVL435:
	.loc 1 884 28 view .LVU1042
	movb	%al, 24(%rbp)
	.loc 1 885 3 is_stmt 1 view .LVU1043
	.loc 1 886 6 is_stmt 0 view .LVU1044
	movzbl	%al, %eax
	addq	%rax, %rbx
.LVL436:
	.loc 1 886 6 view .LVU1045
.LBE487:
.LBE497:
	.loc 1 997 7 is_stmt 1 view .LVU1046
	cmpq	%r15, %rbx
	je	.L399
	.loc 1 998 7 view .LVU1047
.LVL437:
	.loc 1 999 7 view .LVU1048
	movq	n_specs(%rip), %rax
	addq	$1, %rax
.LBE520:
	.loc 1 987 9 is_stmt 0 view .LVU1049
	cmpb	$0, (%rbx)
.LBB521:
	.loc 1 999 7 view .LVU1050
	movq	%rax, n_specs(%rip)
	.loc 1 999 7 view .LVU1051
.LBE521:
	.loc 1 987 9 is_stmt 1 view .LVU1052
	je	.L366
	movq	%rbx, %r15
	jmp	.L365
.LVL438:
.L376:
.LBB522:
.LBB498:
.LBB488:
	.loc 1 767 26 is_stmt 0 view .LVU1053
	leaq	print_long(%rip), %rax
	jmp	.L347
.LVL439:
	.p2align 4,,10
	.p2align 3
.L316:
	.loc 1 780 7 is_stmt 1 view .LVU1054
	.loc 1 781 7 view .LVU1055
	.loc 1 782 7 view .LVU1056
	.loc 1 782 15 is_stmt 0 view .LVU1057
	movsbl	1(%r15), %eax
	cmpb	$70, %al
	je	.L351
	cmpb	$76, %al
	je	.L352
	cmpb	$68, %al
	je	.L353
.LBB434:
.LBB435:
	.loc 1 603 10 view .LVU1058
	subl	$48, %eax
.LBE435:
.LBE434:
	.loc 1 781 7 view .LVU1059
	leaq	1(%r15), %rsi
.LVL440:
.LBB441:
.LBB440:
	.loc 1 603 9 is_stmt 1 view .LVU1060
.LBB436:
	.loc 1 605 17 is_stmt 0 view .LVU1061
	leaq	2(%r15), %rbx
.LVL441:
	.loc 1 606 7 is_stmt 1 view .LVU1062
.LBE436:
	.loc 1 602 7 is_stmt 0 view .LVU1063
	xorl	%r8d, %r8d
.LBB437:
	.loc 1 606 28 view .LVU1064
	movslq	%eax, %rcx
.LBE437:
	.loc 1 603 9 view .LVU1065
	cmpl	$9, %eax
	ja	.L400
.LVL442:
	.p2align 4,,10
	.p2align 3
.L370:
.LBB438:
	.loc 1 608 7 is_stmt 1 view .LVU1066
	.loc 1 608 17 is_stmt 0 view .LVU1067
	leaq	(%r8,%r8,4), %rax
	.loc 1 608 11 view .LVU1068
	leaq	(%rcx,%rax,2), %r8
.LVL443:
	.loc 1 608 11 view .LVU1069
.LBE438:
	.loc 1 603 9 is_stmt 1 view .LVU1070
	.loc 1 603 10 is_stmt 0 view .LVU1071
	movsbl	(%rbx), %eax
	subl	$48, %eax
	.loc 1 603 9 view .LVU1072
	cmpl	$9, %eax
	ja	.L401
.LBB439:
	.loc 1 605 7 is_stmt 1 view .LVU1073
	.loc 1 606 28 is_stmt 0 view .LVU1074
	movslq	%eax, %rcx
	.loc 1 605 17 view .LVU1075
	addq	$1, %rbx
.LVL444:
	.loc 1 606 7 is_stmt 1 view .LVU1076
	.loc 1 606 33 is_stmt 0 view .LVU1077
	movabsq	$-3689348814741910323, %rax
	.loc 1 606 28 view .LVU1078
	movq	%rcx, %rdx
	notq	%rdx
	.loc 1 606 33 view .LVU1079
	mulq	%rdx
	shrq	$3, %rdx
	.loc 1 606 10 view .LVU1080
	cmpq	%r8, %rdx
	jnb	.L370
.LVL445:
.L329:
	.loc 1 606 10 view .LVU1081
.LBE439:
.LBE440:
.LBE441:
	.loc 1 685 15 is_stmt 1 view .LVU1082
	movq	8(%rsp), %rdi
	call	quote@PLT
.LVL446:
	.loc 1 685 28 is_stmt 0 view .LVU1083
	movl	$5, %edx
	leaq	.LC41(%rip), %rsi
	xorl	%edi, %edi
	.loc 1 685 15 view .LVU1084
	movq	%rax, %r12
	.loc 1 685 28 view .LVU1085
	call	dcgettext@PLT
.LVL447:
	.loc 1 685 15 view .LVU1086
	movq	%r12, %rcx
	xorl	%esi, %esi
	xorl	%edi, %edi
	.loc 1 685 28 view .LVU1087
	movq	%rax, %rdx
	.loc 1 685 15 view .LVU1088
	xorl	%eax, %eax
	call	error@PLT
.LVL448:
	.loc 1 686 15 is_stmt 1 view .LVU1089
	.loc 1 686 15 is_stmt 0 view .LVU1090
.LBE488:
.LBE498:
.LBE522:
	.loc 1 1003 1 view .LVU1091
	addq	$24, %rsp
	.cfi_remember_state
	.cfi_def_cfa_offset 56
.LBB523:
	.loc 1 995 16 view .LVU1092
	xorl	%eax, %eax
.LBE523:
	.loc 1 1003 1 view .LVU1093
	popq	%rbx
	.cfi_def_cfa_offset 48
	popq	%rbp
	.cfi_def_cfa_offset 40
	popq	%r12
	.cfi_def_cfa_offset 32
	popq	%r13
	.cfi_def_cfa_offset 24
	popq	%r14
	.cfi_def_cfa_offset 16
	popq	%r15
	.cfi_def_cfa_offset 8
.LVL449:
	.loc 1 1003 1 view .LVU1094
	ret
.LVL450:
	.p2align 4,,10
	.p2align 3
.L317:
	.cfi_restore_state
.LBB524:
.LBB499:
.LBB489:
	.loc 1 866 7 is_stmt 1 view .LVU1095
	leaq	1(%r15), %rbx
.LVL451:
	.loc 1 867 7 view .LVU1096
	.loc 1 868 7 view .LVU1097
	.loc 1 869 7 view .LVU1098
	.loc 1 870 7 view .LVU1099
	.loc 1 871 7 view .LVU1100
	.loc 1 870 19 is_stmt 0 view .LVU1101
	movl	$3, %r14d
	.loc 1 867 11 view .LVU1102
	movl	$6, %ecx
	.loc 1 868 17 view .LVU1103
	movl	$1, %r12d
	.loc 1 869 22 view .LVU1104
	leaq	print_ascii(%rip), %rax
	.loc 1 871 7 view .LVU1105
	jmp	.L347
.LVL452:
	.p2align 4,,10
	.p2align 3
.L318:
	.loc 1 858 7 is_stmt 1 view .LVU1106
	leaq	1(%r15), %rbx
.LVL453:
	.loc 1 859 7 view .LVU1107
	.loc 1 860 7 view .LVU1108
	.loc 1 861 7 view .LVU1109
	.loc 1 862 7 view .LVU1110
	.loc 1 863 7 view .LVU1111
	.loc 1 862 19 is_stmt 0 view .LVU1112
	movl	$3, %r14d
	.loc 1 859 11 view .LVU1113
	movl	$5, %ecx
	.loc 1 860 17 view .LVU1114
	movl	$1, %r12d
	.loc 1 861 22 view .LVU1115
	leaq	print_named_ascii(%rip), %rax
	.loc 1 863 7 view .LVU1116
	jmp	.L347
.LVL454:
	.p2align 4,,10
	.p2align 3
.L394:
	.loc 1 863 7 view .LVU1117
.LBE489:
.LBE499:
.LBB500:
	.loc 1 992 9 is_stmt 1 view .LVU1118
.LBB501:
.LBI501:
	.file 6 "./lib/xalloc.h"
	.loc 6 174 1 view .LVU1119
.LBB502:
	.loc 6 176 3 view .LVU1120
	.loc 6 178 3 view .LVU1121
	.loc 6 178 6 is_stmt 0 view .LVU1122
	testq	%rdi, %rdi
	je	.L402
	.loc 6 200 7 is_stmt 1 view .LVU1123
	.loc 6 200 10 is_stmt 0 view .LVU1124
	movabsq	$153722867280912929, %rax
	cmpq	%rax, %rcx
	ja	.L311
	.loc 6 203 7 is_stmt 1 view .LVU1125
	.loc 6 203 14 is_stmt 0 view .LVU1126
	movq	%rcx, %rax
	shrq	%rax
	.loc 6 203 9 view .LVU1127
	leaq	1(%rcx,%rax), %rcx
.LVL455:
.L392:
	.loc 6 203 9 view .LVU1128
	leaq	(%rcx,%rcx,4), %rsi
	salq	$3, %rsi
.LVL456:
.L307:
	.loc 6 206 3 is_stmt 1 view .LVU1129
	.loc 6 206 7 is_stmt 0 view .LVU1130
	movq	%rcx, n_specs_allocated(%rip)
	.loc 6 207 3 is_stmt 1 view .LVU1131
	.loc 6 207 10 is_stmt 0 view .LVU1132
	call	xrealloc@PLT
.LVL457:
	.loc 6 207 10 view .LVU1133
.LBE502:
.LBE501:
	.loc 1 992 14 view .LVU1134
	movq	%rax, spec(%rip)
.LBB507:
.LBB504:
	.loc 6 207 10 view .LVU1135
	movq	%rax, %rdi
.LVL458:
	.loc 6 207 10 view .LVU1136
	movq	n_specs(%rip), %rax
	jmp	.L305
.LVL459:
	.p2align 4,,10
	.p2align 3
.L320:
	.loc 6 207 10 view .LVU1137
.LBE504:
.LBE507:
.LBE500:
.LBB510:
.LBB490:
	cmpb	$83, %al
	jne	.L403
	.loc 1 665 11 is_stmt 1 view .LVU1138
	movl	8+integral_type_size(%rip), %r12d
	leaq	2(%r15), %rbx
.LVL460:
	.loc 1 666 11 view .LVU1139
	.loc 1 667 11 view .LVU1140
	.loc 1 666 16 is_stmt 0 view .LVU1141
	movl	$2, %r8d
.LVL461:
	.loc 1 710 7 is_stmt 1 view .LVU1142
	.loc 1 712 7 view .LVU1143
	cmpb	$117, %sil
	jne	.L404
.LVL462:
.L333:
	.loc 1 729 11 view .LVU1144
	.loc 1 730 11 view .LVU1145
	.loc 1 730 53 is_stmt 0 view .LVU1146
	leaq	bytes_to_unsigned_dec_digits(%rip), %rax
	.loc 1 731 25 view .LVU1147
	leaq	16(%rbp), %rdi
.LBB442:
.LBB443:
	.loc 2 36 10 view .LVU1148
	movl	$8, %edx
	movl	$1, %esi
.LVL463:
	.loc 2 36 10 view .LVU1149
.LBE443:
.LBE442:
	.loc 1 730 23 view .LVU1150
	movl	(%rax,%r8,4), %r14d
.LVL464:
	.loc 1 731 11 is_stmt 1 view .LVU1151
.LBB449:
.LBI442:
	.loc 2 34 1 view .LVU1152
.LBB444:
	.loc 2 36 3 view .LVU1153
.LBE444:
.LBE449:
	.loc 1 732 20 is_stmt 0 view .LVU1154
	leal	-4(%r12), %eax
	leaq	.LC28(%rip), %r8
.LVL465:
.LBB450:
.LBB445:
	.loc 2 36 10 view .LVU1155
	movq	%rdi, (%rsp)
.LBE445:
.LBE450:
	.loc 1 732 20 view .LVU1156
	cmpl	$2, %eax
	leaq	.LC29(%rip), %rax
.LBB451:
.LBB446:
	.loc 2 36 10 view .LVU1157
	leaq	.LC35(%rip), %rcx
.LBE446:
.LBE451:
	.loc 1 732 20 view .LVU1158
	cmovnb	%rax, %r8
.LBB452:
.LBB447:
	.loc 2 36 10 view .LVU1159
	xorl	%eax, %eax
	call	__sprintf_chk@PLT
.LVL466:
	.loc 2 36 10 view .LVU1160
	movq	(%rsp), %rdi
.LBE447:
.LBE452:
	.loc 1 729 15 view .LVU1161
	movl	$1, %ecx
.LBB453:
.LBB448:
	.loc 2 36 10 view .LVU1162
	jmp	.L340
.LVL467:
	.p2align 4,,10
	.p2align 3
.L334:
	.loc 2 36 10 view .LVU1163
.LBE448:
.LBE453:
	cmpb	$120, %sil
	jne	.L405
	.loc 1 736 11 is_stmt 1 view .LVU1164
.LVL468:
	.loc 1 737 11 view .LVU1165
	.loc 1 739 20 is_stmt 0 view .LVU1166
	leal	-4(%r12), %eax
	.loc 1 737 25 view .LVU1167
	leaq	16(%rbp), %rdi
.LBB454:
.LBB455:
	.loc 2 36 10 view .LVU1168
	movl	$8, %edx
	movl	$1, %esi
.LVL469:
	.loc 2 36 10 view .LVU1169
.LBE455:
.LBE454:
	.loc 1 739 20 view .LVU1170
	cmpl	$2, %eax
	leaq	.LC30(%rip), %r9
	leaq	.LC31(%rip), %rax
.LBB460:
.LBB456:
	.loc 2 36 10 view .LVU1171
	movq	%rdi, (%rsp)
.LBE456:
.LBE460:
	.loc 1 739 20 view .LVU1172
	cmovnb	%rax, %r9
	.loc 1 738 54 view .LVU1173
	leaq	bytes_to_hex_digits(%rip), %rax
.LBB461:
.LBB457:
	.loc 2 36 10 view .LVU1174
	leaq	.LC36(%rip), %rcx
.LBE457:
.LBE461:
	.loc 1 737 11 view .LVU1175
	movl	(%rax,%r8,4), %r14d
.LVL470:
.LBB462:
.LBI454:
	.loc 2 34 1 is_stmt 1 view .LVU1176
.LBB458:
	.loc 2 36 3 view .LVU1177
	.loc 2 36 10 is_stmt 0 view .LVU1178
	xorl	%eax, %eax
	movl	%r14d, %r8d
.LVL471:
	.loc 2 36 10 view .LVU1179
	call	__sprintf_chk@PLT
.LVL472:
	.loc 2 36 10 view .LVU1180
	movq	(%rsp), %rdi
.LBE458:
.LBE462:
	.loc 1 736 15 view .LVU1181
	movl	$3, %ecx
.LBB463:
.LBB459:
	.loc 2 36 10 view .LVU1182
	jmp	.L340
.LVL473:
	.p2align 4,,10
	.p2align 3
.L397:
	.loc 2 36 10 view .LVU1183
.LBE459:
.LBE463:
	cmpb	$111, %sil
	jne	.L406
	.loc 1 722 11 is_stmt 1 view .LVU1184
.LVL474:
	.loc 1 723 11 view .LVU1185
	.loc 1 725 20 is_stmt 0 view .LVU1186
	leal	-4(%r12), %eax
	.loc 1 723 25 view .LVU1187
	leaq	16(%rbp), %rdi
.LBB464:
.LBB465:
	.loc 2 36 10 view .LVU1188
	movl	$8, %edx
	movl	$1, %esi
.LVL475:
	.loc 2 36 10 view .LVU1189
.LBE465:
.LBE464:
	.loc 1 725 20 view .LVU1190
	cmpl	$2, %eax
	leaq	.LC26(%rip), %r9
	leaq	.LC27(%rip), %rax
.LBB470:
.LBB466:
	.loc 2 36 10 view .LVU1191
	movq	%rdi, (%rsp)
.LBE466:
.LBE470:
	.loc 1 725 20 view .LVU1192
	cmovnb	%rax, %r9
	.loc 1 724 54 view .LVU1193
	leaq	bytes_to_oct_digits(%rip), %rax
.LBB471:
.LBB467:
	.loc 2 36 10 view .LVU1194
	leaq	.LC36(%rip), %rcx
.LBE467:
.LBE471:
	.loc 1 723 11 view .LVU1195
	movl	(%rax,%r8,4), %r14d
.LVL476:
.LBB472:
.LBI464:
	.loc 2 34 1 is_stmt 1 view .LVU1196
.LBB468:
	.loc 2 36 3 view .LVU1197
	.loc 2 36 10 is_stmt 0 view .LVU1198
	xorl	%eax, %eax
	movl	%r14d, %r8d
.LVL477:
	.loc 2 36 10 view .LVU1199
	call	__sprintf_chk@PLT
.LVL478:
	.loc 2 36 10 view .LVU1200
	movq	(%rsp), %rdi
.LBE468:
.LBE472:
	.loc 1 722 15 view .LVU1201
	movl	$2, %ecx
.LBB473:
.LBB469:
	.loc 2 36 10 view .LVU1202
	jmp	.L340
.LVL479:
	.p2align 4,,10
	.p2align 3
.L402:
	.loc 2 36 10 view .LVU1203
.LBE469:
.LBE473:
.LBE490:
.LBE510:
.LBB511:
.LBB508:
.LBB505:
	.loc 6 180 7 is_stmt 1 view .LVU1204
	.loc 6 180 10 is_stmt 0 view .LVU1205
	testq	%rcx, %rcx
	je	.L371
	.loc 6 191 7 is_stmt 1 view .LVU1206
	.loc 6 191 11 is_stmt 0 view .LVU1207
	movl	$40, %edx
	movq	%rdx, %rax
	mulq	%rcx
	seto	%dl
	movzbl	%dl, %edx
	testq	%rax, %rax
	js	.L311
	.loc 6 191 10 view .LVU1208
	testq	%rdx, %rdx
	je	.L392
.L311:
	.loc 6 192 9 is_stmt 1 view .LVU1209
	call	xalloc_die@PLT
.LVL480:
	.p2align 4,,10
	.p2align 3
.L352:
	.loc 6 192 9 is_stmt 0 view .LVU1210
.LBE505:
.LBE508:
.LBE511:
.LBB512:
.LBB491:
	.loc 1 795 11 is_stmt 1 view .LVU1211
	movl	64+fp_type_size(%rip), %r12d
	leaq	2(%r15), %rbx
.LVL481:
	.loc 1 796 11 view .LVU1212
	.loc 1 797 11 view .LVU1213
.L356:
	.loc 1 826 7 view .LVU1214
.LBB474:
	.loc 1 829 9 view .LVU1215
	.loc 1 829 38 is_stmt 0 view .LVU1216
	call	localeconv@PLT
.LVL482:
	.loc 1 830 9 is_stmt 1 view .LVU1217
	.loc 1 831 70 is_stmt 0 view .LVU1218
	movl	$1, %r14d
	.loc 1 831 18 view .LVU1219
	movq	(%rax), %rdi
	.loc 1 831 70 view .LVU1220
	cmpb	$0, (%rdi)
	je	.L360
	.loc 1 831 39 view .LVU1221
	call	strlen@PLT
.LVL483:
	.loc 1 831 39 view .LVU1222
	movq	%rax, %r14
.L360:
.LVL484:
	.loc 1 833 9 is_stmt 1 view .LVU1223
	cmpl	$7, %r12d
	je	.L361
	cmpl	$8, %r12d
	jne	.L407
	.loc 1 846 13 view .LVU1224
.LVL485:
	.loc 1 847 13 view .LVU1225
	.loc 1 847 27 is_stmt 0 view .LVU1226
	addl	$28, %r14d
.LVL486:
	.loc 1 848 13 is_stmt 1 view .LVU1227
	.loc 1 846 28 is_stmt 0 view .LVU1228
	leaq	print_long_double(%rip), %rax
.LBE474:
	.loc 1 780 11 view .LVU1229
	movl	$4, %ecx
.LBB475:
	.loc 1 848 13 view .LVU1230
	jmp	.L347
.LVL487:
	.p2align 4,,10
	.p2align 3
.L407:
	.loc 1 848 13 view .LVU1231
	cmpl	$6, %r12d
	jne	.L337
	.loc 1 836 13 is_stmt 1 view .LVU1232
.LVL488:
	.loc 1 837 13 view .LVU1233
	.loc 1 837 27 is_stmt 0 view .LVU1234
	addl	$14, %r14d
.LVL489:
	.loc 1 838 13 is_stmt 1 view .LVU1235
	.loc 1 836 28 is_stmt 0 view .LVU1236
	leaq	print_float(%rip), %rax
.LBE475:
	.loc 1 780 11 view .LVU1237
	movl	$4, %ecx
.LBB476:
	.loc 1 838 13 view .LVU1238
	jmp	.L347
.LVL490:
	.p2align 4,,10
	.p2align 3
.L361:
	.loc 1 841 13 is_stmt 1 view .LVU1239
	.loc 1 842 13 view .LVU1240
	.loc 1 842 27 is_stmt 0 view .LVU1241
	addl	$23, %r14d
.LVL491:
	.loc 1 843 13 is_stmt 1 view .LVU1242
	.loc 1 841 28 is_stmt 0 view .LVU1243
	leaq	print_double(%rip), %rax
.LBE476:
	.loc 1 780 11 view .LVU1244
	movl	$4, %ecx
.LBB477:
	.loc 1 843 13 view .LVU1245
	jmp	.L347
.LVL492:
	.p2align 4,,10
	.p2align 3
.L353:
	.loc 1 843 13 view .LVU1246
.LBE477:
	.loc 1 790 11 is_stmt 1 view .LVU1247
	movl	32+fp_type_size(%rip), %r12d
	leaq	2(%r15), %rbx
.LVL493:
	.loc 1 791 11 view .LVU1248
	.loc 1 792 11 view .LVU1249
	jmp	.L356
.LVL494:
	.p2align 4,,10
	.p2align 3
.L351:
	.loc 1 785 11 view .LVU1250
	movl	16+fp_type_size(%rip), %r12d
	leaq	2(%r15), %rbx
.LVL495:
	.loc 1 786 11 view .LVU1251
	.loc 1 787 11 view .LVU1252
	jmp	.L356
.LVL496:
	.p2align 4,,10
	.p2align 3
.L371:
	.loc 1 787 11 is_stmt 0 view .LVU1253
.LBE491:
.LBE512:
.LBB513:
.LBB509:
.LBB506:
	movl	$120, %esi
.LBB503:
	.loc 6 189 13 view .LVU1254
	movl	$3, %ecx
.LVL497:
	.loc 6 189 13 view .LVU1255
	jmp	.L307
.LVL498:
	.p2align 4,,10
	.p2align 3
.L319:
	.loc 6 189 13 view .LVU1256
.LBE503:
.LBE506:
.LBE509:
.LBE513:
.LBB514:
.LBB492:
	.loc 1 675 11 is_stmt 1 view .LVU1257
	movl	32+integral_type_size(%rip), %r12d
	leaq	2(%r15), %rbx
.LVL499:
	.loc 1 676 11 view .LVU1258
	.loc 1 677 11 view .LVU1259
	.loc 1 676 16 is_stmt 0 view .LVU1260
	movl	$8, %r8d
	.loc 1 677 11 view .LVU1261
	jmp	.L328
.LVL500:
	.p2align 4,,10
	.p2align 3
.L321:
	.loc 1 660 11 is_stmt 1 view .LVU1262
	movl	4+integral_type_size(%rip), %r12d
	leaq	2(%r15), %rbx
.LVL501:
	.loc 1 661 11 view .LVU1263
	.loc 1 662 11 view .LVU1264
	.loc 1 661 16 is_stmt 0 view .LVU1265
	movl	$1, %r8d
	.loc 1 662 11 view .LVU1266
	jmp	.L328
.LVL502:
	.p2align 4,,10
	.p2align 3
.L366:
	.loc 1 662 11 view .LVU1267
.LBE492:
.LBE514:
.LBE524:
	.loc 1 1003 1 view .LVU1268
	addq	$24, %rsp
	.cfi_remember_state
	.cfi_def_cfa_offset 56
	.loc 1 1002 10 view .LVU1269
	movl	$1, %eax
	.loc 1 1003 1 view .LVU1270
	popq	%rbx
	.cfi_def_cfa_offset 48
	popq	%rbp
	.cfi_def_cfa_offset 40
	popq	%r12
	.cfi_def_cfa_offset 32
	popq	%r13
	.cfi_def_cfa_offset 24
	popq	%r14
	.cfi_def_cfa_offset 16
	popq	%r15
	.cfi_def_cfa_offset 8
	ret
.LVL503:
.L348:
	.cfi_restore_state
.LBB525:
.LBB515:
.LBB493:
	.loc 1 763 26 view .LVU1271
	leaq	print_int(%rip), %rax
	jmp	.L347
.L349:
	.loc 1 757 11 is_stmt 1 view .LVU1272
	.loc 1 759 29 is_stmt 0 view .LVU1273
	testl	%ecx, %ecx
	leaq	print_s_short(%rip), %rax
	leaq	print_short(%rip), %rdx
	cmovne	%rdx, %rax
	jmp	.L347
.L350:
	.loc 1 751 11 is_stmt 1 view .LVU1274
	.loc 1 753 29 is_stmt 0 view .LVU1275
	testl	%ecx, %ecx
	leaq	print_s_char(%rip), %rax
	leaq	print_char(%rip), %rdx
	cmovne	%rdx, %rax
	jmp	.L347
.LVL504:
.L396:
.LBB478:
.LBB479:
	.loc 1 603 10 view .LVU1276
	movsbl	%al, %ecx
.LBE479:
.LBE478:
	.loc 1 656 7 view .LVU1277
	leaq	1(%r15), %rdi
.LVL505:
.LBB485:
.LBB483:
	.loc 1 603 9 is_stmt 1 view .LVU1278
	.loc 1 603 10 is_stmt 0 view .LVU1279
	subl	$48, %ecx
	.loc 1 603 9 view .LVU1280
	cmpl	$9, %ecx
	ja	.L408
.LBB480:
	.loc 1 605 7 is_stmt 1 view .LVU1281
	.loc 1 605 17 is_stmt 0 view .LVU1282
	leaq	2(%r15), %rbx
.LVL506:
	.loc 1 606 7 is_stmt 1 view .LVU1283
	.loc 1 606 28 is_stmt 0 view .LVU1284
	movslq	%ecx, %rcx
.LBE480:
	.loc 1 602 7 view .LVU1285
	xorl	%r8d, %r8d
.LVL507:
	.p2align 4,,10
	.p2align 3
.L369:
.LBB481:
	.loc 1 608 7 is_stmt 1 view .LVU1286
	.loc 1 608 17 is_stmt 0 view .LVU1287
	leaq	(%r8,%r8,4), %rax
	.loc 1 608 11 view .LVU1288
	leaq	(%rcx,%rax,2), %r8
.LVL508:
	.loc 1 608 11 view .LVU1289
.LBE481:
	.loc 1 603 9 is_stmt 1 view .LVU1290
	.loc 1 603 10 is_stmt 0 view .LVU1291
	movsbl	(%rbx), %eax
	subl	$48, %eax
	.loc 1 603 9 view .LVU1292
	cmpl	$9, %eax
	ja	.L409
.LBB482:
	.loc 1 605 7 is_stmt 1 view .LVU1293
	.loc 1 606 28 is_stmt 0 view .LVU1294
	movslq	%eax, %rcx
	.loc 1 605 17 view .LVU1295
	addq	$1, %rbx
.LVL509:
	.loc 1 606 7 is_stmt 1 view .LVU1296
	.loc 1 606 33 is_stmt 0 view .LVU1297
	movabsq	$-3689348814741910323, %rax
	.loc 1 606 28 view .LVU1298
	movq	%rcx, %rdx
	notq	%rdx
	.loc 1 606 33 view .LVU1299
	mulq	%rdx
	shrq	$3, %rdx
	.loc 1 606 10 view .LVU1300
	cmpq	%r8, %rdx
	jnb	.L369
	jmp	.L329
.LVL510:
	.p2align 4,,10
	.p2align 3
.L401:
	.loc 1 606 10 view .LVU1301
.LBE482:
.LBE483:
.LBE485:
	.loc 1 808 11 is_stmt 1 view .LVU1302
	movl	32+fp_type_size(%rip), %r12d
	.loc 1 808 14 is_stmt 0 view .LVU1303
	cmpq	%rbx, %rsi
	je	.L356
	.loc 1 812 15 is_stmt 1 view .LVU1304
	.loc 1 812 18 is_stmt 0 view .LVU1305
	cmpq	$16, %r8
	ja	.L359
	.loc 1 813 34 view .LVU1306
	leaq	fp_type_size(%rip), %rax
	movl	(%rax,%r8,4), %r12d
	.loc 1 813 19 view .LVU1307
	testl	%r12d, %r12d
	jne	.L356
.L359:
	.loc 1 815 19 view .LVU1308
	movq	8(%rsp), %rdi
	movq	%r8, (%rsp)
	.loc 1 815 19 is_stmt 1 view .LVU1309
	call	quote@PLT
.LVL511:
	.loc 1 816 26 is_stmt 0 view .LVU1310
	movl	$5, %edx
	leaq	.LC38(%rip), %rsi
	.loc 1 815 19 view .LVU1311
	movq	%rax, %r12
.LVL512:
.L393:
	.loc 1 816 26 view .LVU1312
	xorl	%edi, %edi
	call	dcgettext@PLT
.LVL513:
	.loc 1 815 19 view .LVU1313
	movq	(%rsp), %r8
	movq	%r12, %rcx
	xorl	%esi, %esi
	.loc 1 816 26 view .LVU1314
	movq	%rax, %rdx
	.loc 1 815 19 view .LVU1315
	xorl	%edi, %edi
	xorl	%eax, %eax
	call	error@PLT
.LVL514:
	.loc 1 820 19 is_stmt 1 view .LVU1316
	.loc 1 820 19 is_stmt 0 view .LVU1317
.LBE493:
.LBE515:
.LBE525:
	.loc 1 1003 1 view .LVU1318
	addq	$24, %rsp
	.cfi_remember_state
	.cfi_def_cfa_offset 56
.LBB526:
	.loc 1 995 16 view .LVU1319
	xorl	%eax, %eax
.LBE526:
	.loc 1 1003 1 view .LVU1320
	popq	%rbx
	.cfi_def_cfa_offset 48
	popq	%rbp
	.cfi_def_cfa_offset 40
	popq	%r12
	.cfi_def_cfa_offset 32
	popq	%r13
	.cfi_def_cfa_offset 24
	popq	%r14
	.cfi_def_cfa_offset 16
	popq	%r15
	.cfi_def_cfa_offset 8
.LVL515:
	.loc 1 1003 1 view .LVU1321
	ret
.LVL516:
	.p2align 4,,10
	.p2align 3
.L409:
	.cfi_restore_state
.LBB527:
.LBB516:
.LBB494:
	.loc 1 688 11 is_stmt 1 view .LVU1322
	.loc 1 688 14 is_stmt 0 view .LVU1323
	cmpq	%rbx, %rdi
	je	.L327
	.loc 1 692 15 is_stmt 1 view .LVU1324
	.loc 1 692 18 is_stmt 0 view .LVU1325
	cmpq	$8, %r8
	ja	.L332
	.loc 1 693 40 view .LVU1326
	leaq	integral_type_size(%rip), %rax
	movl	(%rax,%r8,4), %r12d
	.loc 1 693 19 view .LVU1327
	testl	%r12d, %r12d
	jne	.L328
.L332:
	.loc 1 695 19 view .LVU1328
	movq	8(%rsp), %rdi
	movq	%r8, (%rsp)
	.loc 1 695 19 is_stmt 1 view .LVU1329
	call	quote@PLT
.LVL517:
	.loc 1 695 32 is_stmt 0 view .LVU1330
	movl	$5, %edx
	leaq	.LC34(%rip), %rsi
	.loc 1 695 19 view .LVU1331
	movq	%rax, %r12
	jmp	.L393
.LVL518:
.L408:
	.loc 1 656 7 view .LVU1332
	movq	%rdi, %rbx
.LVL519:
	.p2align 4,,10
	.p2align 3
.L327:
	.loc 1 656 7 view .LVU1333
	movl	16+integral_type_size(%rip), %r12d
	.loc 1 689 18 view .LVU1334
	movl	$4, %r8d
	jmp	.L328
.LVL520:
.L400:
	.loc 1 689 18 view .LVU1335
	movl	32+fp_type_size(%rip), %r12d
	.loc 1 781 7 view .LVU1336
	movq	%rsi, %rbx
.LVL521:
	.loc 1 781 7 view .LVU1337
	jmp	.L356
.LVL522:
	.p2align 4,,10
	.p2align 3
.L403:
	.loc 1 656 7 view .LVU1338
	leaq	1(%r15), %rbx
.LVL523:
.LBB486:
.LBB484:
	.loc 1 603 9 is_stmt 1 view .LVU1339
	jmp	.L327
.LVL524:
.L399:
	.loc 1 603 9 is_stmt 0 view .LVU1340
.LBE484:
.LBE486:
.LBE494:
.LBE516:
	.loc 1 997 7 is_stmt 1 view .LVU1341
	leaq	__PRETTY_FUNCTION__.7694(%rip), %rcx
	movl	$997, %edx
	leaq	.LC32(%rip), %rsi
	leaq	.LC40(%rip), %rdi
	call	__assert_fail@PLT
.LVL525:
.L395:
.LBB517:
.LBB495:
	.loc 1 647 3 view .LVU1342
	leaq	__PRETTY_FUNCTION__.7639(%rip), %rcx
	movl	$647, %edx
	leaq	.LC32(%rip), %rsi
	leaq	.LC33(%rip), %rdi
	call	__assert_fail@PLT
.LVL526:
.L398:
	.loc 1 746 7 view .LVU1343
	leaq	__PRETTY_FUNCTION__.7639(%rip), %rcx
.LVL527:
	.loc 1 746 7 is_stmt 0 view .LVU1344
	movl	$746, %edx
	leaq	.LC32(%rip), %rsi
	leaq	.LC37(%rip), %rdi
	call	__assert_fail@PLT
.LVL528:
.L406:
	.loc 1 746 7 view .LVU1345
	jmp	.L337
.L405:
	.loc 1 746 7 view .LVU1346
	jmp	.L337
.LVL529:
	.loc 1 746 7 view .LVU1347
.LBE495:
.LBE517:
.LBE527:
	.cfi_endproc
	.section	.text.unlikely
	.cfi_startproc
	.type	decode_format_string.part.0.cold, @function
decode_format_string.part.0.cold:
.LFSB176:
.LBB528:
.LBB518:
.LBB496:
.L337:
	.cfi_def_cfa_offset 80
	.cfi_offset 3, -56
	.cfi_offset 6, -48
	.cfi_offset 12, -40
	.cfi_offset 13, -32
	.cfi_offset 14, -24
	.cfi_offset 15, -16
	.loc 1 743 11 is_stmt 1 view -0
	call	abort@PLT
.LVL530:
.LBE496:
.LBE518:
.LBE528:
	.cfi_endproc
.LFE176:
	.text
	.size	decode_format_string.part.0, .-decode_format_string.part.0
	.section	.text.unlikely
	.size	decode_format_string.part.0.cold, .-decode_format_string.part.0.cold
.LCOLDE42:
	.text
.LHOTE42:
	.section	.rodata.str1.1
.LC43:
	.string	"0 < n && n <= bytes_per_block"
	.text
	.p2align 4
	.type	read_block, @function
read_block:
.LVL531:
.LFB165:
	.loc 1 1290 1 view -0
	.cfi_startproc
	.loc 1 1291 3 view .LVU1350
	.loc 1 1293 3 view .LVU1351
	.loc 1 1290 1 is_stmt 0 view .LVU1352
	pushq	%r14
	.cfi_def_cfa_offset 16
	.cfi_offset 14, -16
	pushq	%r13
	.cfi_def_cfa_offset 24
	.cfi_offset 13, -24
	pushq	%r12
	.cfi_def_cfa_offset 32
	.cfi_offset 12, -32
	pushq	%rbp
	.cfi_def_cfa_offset 40
	.cfi_offset 6, -40
	pushq	%rbx
	.cfi_def_cfa_offset 48
	.cfi_offset 3, -48
	.loc 1 1293 3 view .LVU1353
	testq	%rdi, %rdi
	je	.L411
	.loc 1 1293 3 discriminator 1 view .LVU1354
	cmpq	%rdi, bytes_per_block(%rip)
	movq	%rdi, %r13
	jb	.L411
.LBB538:
.LBB539:
	.loc 1 1297 20 view .LVU1355
	movq	in_stream(%rip), %rcx
.LBE539:
.LBE538:
	.loc 1 1295 22 view .LVU1356
	movq	$0, (%rdx)
	movq	%rdx, %rbp
	.loc 1 1295 3 is_stmt 1 view .LVU1357
	.loc 1 1297 3 view .LVU1358
.LVL532:
.LBB550:
.LBI538:
	.loc 1 1289 1 view .LVU1359
.LBB548:
	.loc 1 1297 9 view .LVU1360
	testq	%rcx, %rcx
	je	.L415
	movq	%rsi, %r14
	xorl	%edi, %edi
.LVL533:
	.loc 1 1291 8 is_stmt 0 view .LVU1361
	movl	$1, %r12d
	jmp	.L414
.LVL534:
	.p2align 4,,10
	.p2align 3
.L423:
.LBB540:
	.loc 1 1310 7 is_stmt 1 view .LVU1362
	.loc 1 1310 30 is_stmt 0 view .LVU1363
	call	__errno_location@PLT
.LVL535:
	.loc 1 1310 13 view .LVU1364
	movl	(%rax), %edi
	call	check_and_close
.LVL536:
	movl	%eax, %ebx
.LVL537:
	.loc 1 1312 7 is_stmt 1 view .LVU1365
	.loc 1 1312 13 is_stmt 0 view .LVU1366
	call	open_next_file
.LVL538:
	.loc 1 1312 13 view .LVU1367
.LBE540:
	.loc 1 1297 20 view .LVU1368
	movq	in_stream(%rip), %rcx
	andl	%eax, %ebx
.LVL539:
	.loc 1 1297 20 view .LVU1369
	andl	%ebx, %r12d
.LVL540:
	.loc 1 1297 9 is_stmt 1 view .LVU1370
	testq	%rcx, %rcx
	je	.L410
	movq	0(%rbp), %rdi
.LVL541:
.L414:
.LBB547:
	.loc 1 1299 7 view .LVU1371
	.loc 1 1300 7 view .LVU1372
	.loc 1 1302 7 view .LVU1373
	.loc 1 1302 16 is_stmt 0 view .LVU1374
	movq	%r13, %rbx
.LBB541:
.LBB542:
	.loc 2 382 10 view .LVU1375
	movl	$1, %esi
.LBE542:
.LBE541:
	.loc 1 1302 16 view .LVU1376
	subq	%rdi, %rbx
.LVL542:
	.loc 1 1303 7 is_stmt 1 view .LVU1377
.LBB545:
.LBI541:
	.loc 2 345 1 view .LVU1378
.LBB543:
	.loc 2 348 3 view .LVU1379
	.loc 2 362 3 view .LVU1380
	.loc 2 382 3 view .LVU1381
.LBE543:
.LBE545:
	.loc 1 1303 16 is_stmt 0 view .LVU1382
	addq	%r14, %rdi
.LVL543:
.LBB546:
.LBB544:
	.loc 2 382 10 view .LVU1383
	movq	%rbx, %rdx
	call	fread_unlocked@PLT
.LVL544:
	.loc 2 382 10 view .LVU1384
.LBE544:
.LBE546:
	.loc 1 1305 7 is_stmt 1 view .LVU1385
	.loc 1 1305 26 is_stmt 0 view .LVU1386
	addq	%rax, 0(%rbp)
	.loc 1 1307 7 is_stmt 1 view .LVU1387
	.loc 1 1307 10 is_stmt 0 view .LVU1388
	cmpq	%rax, %rbx
	jne	.L423
.LVL545:
.L410:
	.loc 1 1307 10 view .LVU1389
.LBE547:
.LBE548:
.LBE550:
	.loc 1 1316 1 view .LVU1390
	popq	%rbx
	.cfi_remember_state
	.cfi_def_cfa_offset 40
	movl	%r12d, %eax
	popq	%rbp
	.cfi_def_cfa_offset 32
.LVL546:
	.loc 1 1316 1 view .LVU1391
	popq	%r12
	.cfi_def_cfa_offset 24
	popq	%r13
	.cfi_def_cfa_offset 16
.LVL547:
	.loc 1 1316 1 view .LVU1392
	popq	%r14
	.cfi_def_cfa_offset 8
	ret
.LVL548:
.L415:
	.cfi_restore_state
.LBB551:
.LBB549:
	.loc 1 1291 8 view .LVU1393
	movl	$1, %r12d
	.loc 1 1315 3 is_stmt 1 view .LVU1394
.LVL549:
	.loc 1 1315 3 is_stmt 0 view .LVU1395
.LBE549:
.LBE551:
	.loc 1 1315 3 is_stmt 1 view .LVU1396
	.loc 1 1315 10 is_stmt 0 view .LVU1397
	jmp	.L410
.L411:
	.loc 1 1293 3 is_stmt 1 discriminator 3 view .LVU1398
	leaq	__PRETTY_FUNCTION__.7781(%rip), %rcx
	movl	$1293, %edx
.LVL550:
	.loc 1 1293 3 is_stmt 0 discriminator 3 view .LVU1399
	leaq	.LC32(%rip), %rsi
.LVL551:
	.loc 1 1293 3 discriminator 3 view .LVU1400
	leaq	.LC43(%rip), %rdi
.LVL552:
	.loc 1 1293 3 discriminator 3 view .LVU1401
	call	__assert_fail@PLT
.LVL553:
	.cfi_endproc
.LFE165:
	.size	read_block, .-read_block
	.section	.rodata.str1.1
.LC44:
	.string	"od"
.LC45:
	.string	" invocation"
	.section	.rodata.str1.8
	.align 8
.LC46:
	.string	"Try '%s --help' for more information.\n"
	.align 8
.LC47:
	.string	"Usage: %s [OPTION]... [FILE]...\n  or:  %s [-abcdfilosx]... [FILE] [[+]OFFSET[.][b]]\n  or:  %s --traditional [OPTION]... [FILE] [[+]OFFSET[.][b] [+][LABEL][.][b]]\n"
	.align 8
.LC48:
	.string	"\nWrite an unambiguous representation, octal bytes by default,\nof FILE to standard output.  With more than one FILE argument,\nconcatenate them in the listed order to form the input.\n"
	.align 8
.LC49:
	.string	"\nWith no FILE, or when FILE is -, read standard input.\n"
	.align 8
.LC50:
	.ascii	"\nIf first and second call formats both apply, the second fo"
	.ascii	"rmat is assumed\nif the last operand begins with + or (if th"
	.ascii	"ere are 2 operan"
	.string	"ds) a digit.\nAn OFFSET operand means -j OFFSET.  LABEL is the pseudo-address\nat first byte printed, incremented when dump is progressing.\nFor OFFSET and LABEL, a 0x or 0X prefix indicates hexadecimal;\nsuffixes may be . for octal and b for multiply by 512.\n"
	.align 8
.LC51:
	.string	"\nMandatory arguments to long options are mandatory for short options too.\n"
	.align 8
.LC52:
	.ascii	"  -A, --address-radix=RADIX   "
	.string	"output format for file offsets; RADIX is one\n                                of [doxn], for Decimal, Octal, Hex or None\n      --endian={big|little}   swap input bytes according the specified order\n  -j, --skip-bytes=BYTES      skip BYTES input bytes first\n"
	.align 8
.LC53:
	.ascii	"  -N, --read-bytes=BYTES      limit dump to BYTES input byte"
	.ascii	"s\n  -S BYTES, --strings[=BYTES]  output strings of at least"
	.ascii	" BYTES graphic chars;\n                                3 is "
	.ascii	"implied when BYTES is not specified\n  -t, --format=TYPE    "
	.ascii	"       select output format or formats\n  -v, --output-dupl"
	.string	"icates     do not use * to mark line suppression\n  -w[BYTES], --width[=BYTES]  output BYTES bytes per output line;\n                                32 is implied when BYTES is not specified\n      --traditional           accept arguments in third form above\n"
	.align 8
.LC54:
	.string	"      --help     display this help and exit\n"
	.align 8
.LC55:
	.string	"      --version  output version information and exit\n"
	.align 8
.LC56:
	.ascii	"\n\nTraditional format specifications may be intermixed; the"
	.string	"y accumulate:\n  -a   same as -t a,  select named characters, ignoring high-order bit\n  -b   same as -t o1, select octal bytes\n  -c   same as -t c,  select printable characters or backslash escapes\n  -d   same as -t u2, select unsigned decimal 2-byte units\n"
	.align 8
.LC57:
	.ascii	"  -f   same as -t"
	.string	" fF, select floats\n  -i   same as -t dI, select decimal ints\n  -l   same as -t dL, select decimal longs\n  -o   same as -t o2, select octal 2-byte units\n  -s   same as -t d2, select decimal 2-byte units\n  -x   same as -t x2, select hexadecimal 2-byte units\n"
	.align 8
.LC58:
	.string	"\n\nTYPE is made up of one or more of these specifications:\n  a          named character, ignoring high-order bit\n  c          printable character or backslash escape\n"
	.align 8
.LC59:
	.string	"  d[SIZE]    signed decimal, SIZE bytes per integer\n  f[SIZE]    floating point, SIZE bytes per float\n  o[SIZE]    octal, SIZE bytes per integer\n  u[SIZE]    unsigned decimal, SIZE bytes per integer\n  x[SIZE]    hexadecimal, SIZE bytes per integer\n"
	.align 8
.LC60:
	.string	"\nSIZE is a number.  For TYPE in [doux], SIZE may also be C for\nsizeof(char), S for sizeof(short), I for sizeof(int) or L for\nsizeof(long).  If TYPE is f, SIZE may also be F for sizeof(float), D\nfor sizeof(double) or L for sizeof(long double).\n"
	.align 8
.LC61:
	.string	"\nAdding a z suffix to any type displays printable characters at the end of\neach output line.\n"
	.align 8
.LC62:
	.string	"\n\nBYTES is hex with 0x or 0X prefix, and may have a multiplier suffix:\n  b    512\n  KB   1000\n  K    1024\n  MB   1000*1000\n  M    1024*1024\nand so on for G, T, P, E, Z, Y.\nBinary prefixes can be used, too: KiB=K, MiB=M, and so on.\n"
	.section	.rodata.str1.1
.LC63:
	.string	"["
.LC64:
	.string	"test invocation"
.LC65:
	.string	"coreutils"
.LC66:
	.string	"Multi-call invocation"
.LC67:
	.string	"sha224sum"
.LC68:
	.string	"sha2 utilities"
.LC69:
	.string	"sha256sum"
.LC70:
	.string	"sha384sum"
.LC71:
	.string	"sha512sum"
.LC72:
	.string	"\n%s online help: <%s>\n"
	.section	.rodata.str1.8
	.align 8
.LC73:
	.string	"https://www.gnu.org/software/coreutils/"
	.section	.rodata.str1.1
.LC74:
	.string	"GNU coreutils"
.LC75:
	.string	"en_"
	.section	.rodata.str1.8
	.align 8
.LC76:
	.string	"Report any translation bugs to <https://translationproject.org/team/>\n"
	.section	.rodata.str1.1
.LC77:
	.string	"Full documentation <%s%s>\n"
	.section	.rodata.str1.8
	.align 8
.LC78:
	.string	"or available locally via: info '(coreutils) %s%s'\n"
	.text
	.p2align 4
	.globl	usage
	.type	usage, @function
usage:
.LVL554:
.LFB139:
	.loc 1 318 1 is_stmt 1 view -0
	.cfi_startproc
	.loc 1 318 1 is_stmt 0 view .LVU1403
	endbr64
	pushq	%r14
	.cfi_def_cfa_offset 16
	.cfi_offset 14, -16
	.loc 1 320 5 view .LVU1404
	movl	$5, %edx
	.loc 1 318 1 view .LVU1405
	pushq	%r13
	.cfi_def_cfa_offset 24
	.cfi_offset 13, -24
	pushq	%r12
	.cfi_def_cfa_offset 32
	.cfi_offset 12, -32
	pushq	%rbp
	.cfi_def_cfa_offset 40
	.cfi_offset 6, -40
	movl	%edi, %ebp
	subq	$136, %rsp
	.cfi_def_cfa_offset 176
	movq	program_name(%rip), %r12
	.loc 1 318 1 view .LVU1406
	movq	%fs:40, %rax
	movq	%rax, 120(%rsp)
	xorl	%eax, %eax
	.loc 1 319 3 is_stmt 1 view .LVU1407
	.loc 1 319 6 is_stmt 0 view .LVU1408
	testl	%edi, %edi
	je	.L425
	.loc 1 320 5 is_stmt 1 view .LVU1409
	.loc 1 320 5 view .LVU1410
	leaq	.LC46(%rip), %rsi
	xorl	%edi, %edi
.LVL555:
	.loc 1 320 5 is_stmt 0 view .LVU1411
	call	dcgettext@PLT
.LVL556:
.LBB568:
.LBB569:
	.loc 2 100 10 view .LVU1412
	movq	stderr(%rip), %rdi
	movq	%r12, %rcx
	movl	$1, %esi
.LBE569:
.LBE568:
	.loc 1 320 5 view .LVU1413
	movq	%rax, %rdx
.LVL557:
.LBB571:
.LBI568:
	.loc 2 98 1 is_stmt 1 view .LVU1414
.LBB570:
	.loc 2 100 3 view .LVU1415
	.loc 2 100 10 is_stmt 0 view .LVU1416
	xorl	%eax, %eax
.LVL558:
	.loc 2 100 10 view .LVU1417
	call	__fprintf_chk@PLT
.LVL559:
.L426:
	.loc 2 100 10 view .LVU1418
.LBE570:
.LBE571:
	.loc 1 425 3 is_stmt 1 view .LVU1419
	movl	%ebp, %edi
	call	exit@PLT
.LVL560:
.L425:
	.loc 1 323 7 view .LVU1420
	.loc 1 323 15 is_stmt 0 view .LVU1421
	xorl	%edi, %edi
.LVL561:
	.loc 1 323 15 view .LVU1422
	leaq	.LC47(%rip), %rsi
	call	dcgettext@PLT
.LVL562:
.LBB572:
.LBB573:
	.loc 2 107 10 view .LVU1423
	movq	%r12, %rcx
	movq	%r12, %r8
	movq	%r12, %rdx
.LBE573:
.LBE572:
	.loc 1 323 15 view .LVU1424
	movq	%rax, %rsi
.LVL563:
.LBB575:
.LBI572:
	.loc 2 105 1 is_stmt 1 view .LVU1425
.LBB574:
	.loc 2 107 3 view .LVU1426
	.loc 2 107 10 is_stmt 0 view .LVU1427
	movl	$1, %edi
	xorl	%eax, %eax
.LVL564:
	.loc 2 107 10 view .LVU1428
	call	__printf_chk@PLT
.LVL565:
	.loc 2 107 10 view .LVU1429
.LBE574:
.LBE575:
	.loc 1 329 7 is_stmt 1 view .LVU1430
	movq	stdout(%rip), %r12
	xorl	%edi, %edi
	movl	$5, %edx
	leaq	.LC48(%rip), %rsi
	call	dcgettext@PLT
.LVL566:
	movq	%r12, %rsi
	movq	%rax, %rdi
	call	fputs_unlocked@PLT
.LVL567:
	.loc 1 335 7 view .LVU1431
.LBB576:
.LBI576:
	.loc 5 581 1 view .LVU1432
.LBB577:
	.loc 5 583 3 view .LVU1433
	movq	stdout(%rip), %r12
	xorl	%edi, %edi
	movl	$5, %edx
	leaq	.LC49(%rip), %rsi
	call	dcgettext@PLT
.LVL568:
	movq	%r12, %rsi
	movq	%rax, %rdi
	call	fputs_unlocked@PLT
.LVL569:
.LBE577:
.LBE576:
	.loc 1 337 7 view .LVU1434
	movq	stdout(%rip), %r12
	xorl	%edi, %edi
	movl	$5, %edx
	leaq	.LC50(%rip), %rsi
	call	dcgettext@PLT
.LVL570:
	movq	%r12, %rsi
	movq	%rax, %rdi
	call	fputs_unlocked@PLT
.LVL571:
	.loc 1 347 7 view .LVU1435
.LBB578:
.LBI578:
	.loc 5 588 1 view .LVU1436
.LBB579:
	.loc 5 590 3 view .LVU1437
	movq	stdout(%rip), %r12
	xorl	%edi, %edi
	movl	$5, %edx
	leaq	.LC51(%rip), %rsi
	call	dcgettext@PLT
.LVL572:
	movq	%r12, %rsi
	movq	%rax, %rdi
	call	fputs_unlocked@PLT
.LVL573:
.LBE579:
.LBE578:
	.loc 1 349 7 view .LVU1438
	movq	stdout(%rip), %r12
	xorl	%edi, %edi
	movl	$5, %edx
	leaq	.LC52(%rip), %rsi
	call	dcgettext@PLT
.LVL574:
	movq	%r12, %rsi
	movq	%rax, %rdi
	call	fputs_unlocked@PLT
.LVL575:
	.loc 1 355 7 view .LVU1439
	movq	stdout(%rip), %r12
	xorl	%edi, %edi
	movl	$5, %edx
	leaq	.LC53(%rip), %rsi
	call	dcgettext@PLT
.LVL576:
	movq	%r12, %rsi
	movq	%rax, %rdi
	call	fputs_unlocked@PLT
.LVL577:
	.loc 1 366 7 view .LVU1440
	movq	stdout(%rip), %r12
	xorl	%edi, %edi
	movl	$5, %edx
	leaq	.LC54(%rip), %rsi
	call	dcgettext@PLT
.LVL578:
	movq	%r12, %rsi
	movq	%rax, %rdi
	call	fputs_unlocked@PLT
.LVL579:
	.loc 1 367 7 view .LVU1441
	movq	stdout(%rip), %r12
	xorl	%edi, %edi
	movl	$5, %edx
	leaq	.LC55(%rip), %rsi
	call	dcgettext@PLT
.LVL580:
	movq	%r12, %rsi
	movq	%rax, %rdi
	call	fputs_unlocked@PLT
.LVL581:
	.loc 1 368 7 view .LVU1442
	movq	stdout(%rip), %r12
	xorl	%edi, %edi
	movl	$5, %edx
	leaq	.LC56(%rip), %rsi
	call	dcgettext@PLT
.LVL582:
	movq	%r12, %rsi
	movq	%rax, %rdi
	call	fputs_unlocked@PLT
.LVL583:
	.loc 1 377 7 view .LVU1443
	movq	stdout(%rip), %r12
	movl	$5, %edx
	xorl	%edi, %edi
	leaq	.LC57(%rip), %rsi
	call	dcgettext@PLT
.LVL584:
	movq	%r12, %rsi
	movq	%rax, %rdi
	call	fputs_unlocked@PLT
.LVL585:
	.loc 1 385 7 view .LVU1444
	movq	stdout(%rip), %r12
	movl	$5, %edx
	xorl	%edi, %edi
	leaq	.LC58(%rip), %rsi
	call	dcgettext@PLT
.LVL586:
	movq	%r12, %rsi
	movq	%rax, %rdi
	call	fputs_unlocked@PLT
.LVL587:
	.loc 1 392 7 view .LVU1445
	movq	stdout(%rip), %r12
	movl	$5, %edx
	xorl	%edi, %edi
	leaq	.LC59(%rip), %rsi
	call	dcgettext@PLT
.LVL588:
	movq	%r12, %rsi
	movq	%rax, %rdi
	call	fputs_unlocked@PLT
.LVL589:
	.loc 1 399 7 view .LVU1446
	movq	stdout(%rip), %r12
	movl	$5, %edx
	xorl	%edi, %edi
	leaq	.LC60(%rip), %rsi
	call	dcgettext@PLT
.LVL590:
	movq	%r12, %rsi
	movq	%rax, %rdi
	call	fputs_unlocked@PLT
.LVL591:
	.loc 1 406 7 view .LVU1447
	movq	stdout(%rip), %r12
	movl	$5, %edx
	xorl	%edi, %edi
	leaq	.LC61(%rip), %rsi
	call	dcgettext@PLT
.LVL592:
	movq	%r12, %rsi
	movq	%rax, %rdi
	call	fputs_unlocked@PLT
.LVL593:
	.loc 1 411 7 view .LVU1448
	movl	$5, %edx
	movq	stdout(%rip), %r12
	xorl	%edi, %edi
	leaq	.LC62(%rip), %rsi
	call	dcgettext@PLT
.LVL594:
	movq	%r12, %rsi
	movq	%rax, %rdi
	call	fputs_unlocked@PLT
.LVL595:
	.loc 1 423 7 view .LVU1449
.LBB580:
.LBI580:
	.loc 5 634 1 view .LVU1450
.LBB581:
	.loc 5 636 3 view .LVU1451
	.loc 5 636 67 is_stmt 0 view .LVU1452
	leaq	.LC63(%rip), %rax
	.loc 5 647 25 view .LVU1453
	movq	%rsp, %rdx
	.loc 5 636 67 view .LVU1454
	leaq	.LC69(%rip), %rcx
	movq	%rax, (%rsp)
	leaq	.LC64(%rip), %rax
	.loc 5 649 33 view .LVU1455
	movl	$111, %edi
	movl	$100, %esi
	.loc 5 636 67 view .LVU1456
	movq	%rax, 8(%rsp)
	leaq	.LC65(%rip), %rax
	movq	%rax, 16(%rsp)
	leaq	.LC66(%rip), %rax
	movq	%rax, 24(%rsp)
	leaq	.LC67(%rip), %rax
	movq	%rcx, 48(%rsp)
	leaq	.LC70(%rip), %rcx
	movq	%rax, 32(%rsp)
	leaq	.LC68(%rip), %rax
	movq	%rcx, 64(%rsp)
	leaq	.LC71(%rip), %rcx
	movq	%rax, 40(%rsp)
	movq	%rax, 56(%rsp)
	movq	%rax, 72(%rsp)
	movq	%rcx, 80(%rsp)
	movq	%rax, 88(%rsp)
	movq	$0, 96(%rsp)
	movq	$0, 104(%rsp)
	.loc 5 646 3 is_stmt 1 view .LVU1457
.LVL596:
	.loc 5 647 3 view .LVU1458
	.loc 5 649 3 view .LVU1459
	.loc 5 649 9 view .LVU1460
	.p2align 4,,10
	.p2align 3
.L446:
	.loc 5 650 5 view .LVU1461
	.loc 5 649 18 is_stmt 0 view .LVU1462
	movq	16(%rdx), %rax
	.loc 5 650 13 view .LVU1463
	addq	$16, %rdx
.LVL597:
	.loc 5 649 9 is_stmt 1 view .LVU1464
	testq	%rax, %rax
	je	.L427
	.loc 5 649 33 is_stmt 0 view .LVU1465
	movzbl	(%rax), %ecx
	cmpl	%ecx, %edi
	jne	.L446
	movzbl	1(%rax), %ecx
	cmpl	%ecx, %esi
	jne	.L446
	.loc 5 649 28 view .LVU1466
	cmpb	$0, 2(%rax)
	jne	.L446
.L427:
	.loc 5 652 3 is_stmt 1 view .LVU1467
	.loc 5 652 15 is_stmt 0 view .LVU1468
	movq	8(%rdx), %r12
	.loc 5 655 11 view .LVU1469
	leaq	.LC72(%rip), %rsi
	movl	$5, %edx
.LVL598:
	.loc 5 655 11 view .LVU1470
	xorl	%edi, %edi
	.loc 5 652 6 view .LVU1471
	testq	%r12, %r12
	je	.L430
	.loc 5 653 5 is_stmt 1 view .LVU1472
.LVL599:
	.loc 5 655 3 view .LVU1473
	.loc 5 655 11 is_stmt 0 view .LVU1474
	call	dcgettext@PLT
.LVL600:
.LBB582:
.LBB583:
	.loc 2 107 10 view .LVU1475
	leaq	.LC73(%rip), %rcx
	leaq	.LC74(%rip), %rdx
	movl	$1, %edi
.LBE583:
.LBE582:
	.loc 5 655 11 view .LVU1476
	movq	%rax, %rsi
.LVL601:
.LBB587:
.LBI582:
	.loc 2 105 1 is_stmt 1 view .LVU1477
.LBB584:
	.loc 2 107 3 view .LVU1478
	.loc 2 107 10 is_stmt 0 view .LVU1479
	xorl	%eax, %eax
.LVL602:
	.loc 2 107 10 view .LVU1480
	leaq	.LC44(%rip), %r13
	call	__printf_chk@PLT
.LVL603:
	.loc 2 107 10 view .LVU1481
.LBE584:
.LBE587:
	.loc 5 659 3 is_stmt 1 view .LVU1482
	.loc 5 659 29 is_stmt 0 view .LVU1483
	movl	$5, %edi
	xorl	%esi, %esi
	call	setlocale@PLT
.LVL604:
	movq	%rax, %rdi
.LVL605:
	.loc 5 660 3 is_stmt 1 view .LVU1484
	.loc 5 660 6 is_stmt 0 view .LVU1485
	testq	%rax, %rax
	je	.L431
	.loc 5 660 22 view .LVU1486
	movl	$3, %edx
	leaq	.LC75(%rip), %rsi
	call	strncmp@PLT
.LVL606:
	.loc 5 660 19 view .LVU1487
	testl	%eax, %eax
	jne	.L434
.LVL607:
.L431:
	.loc 5 669 3 is_stmt 1 view .LVU1488
	.loc 5 669 11 is_stmt 0 view .LVU1489
	xorl	%edi, %edi
	movl	$5, %edx
	leaq	.LC77(%rip), %rsi
	call	dcgettext@PLT
.LVL608:
.LBB588:
.LBB589:
	.loc 2 107 10 view .LVU1490
	leaq	.LC44(%rip), %rcx
	movl	$1, %edi
	leaq	.LC73(%rip), %rdx
.LBE589:
.LBE588:
	.loc 5 669 11 view .LVU1491
	movq	%rax, %rsi
.LVL609:
.LBB594:
.LBI588:
	.loc 2 105 1 is_stmt 1 view .LVU1492
.LBB590:
	.loc 2 107 3 view .LVU1493
	.loc 2 107 10 is_stmt 0 view .LVU1494
	xorl	%eax, %eax
.LVL610:
	.loc 2 107 10 view .LVU1495
	call	__printf_chk@PLT
.LVL611:
	.loc 2 107 10 view .LVU1496
.LBE590:
.LBE594:
	.loc 5 671 3 is_stmt 1 view .LVU1497
	cmpq	%r13, %r12
	leaq	.LC22(%rip), %rcx
	leaq	.LC45(%rip), %r13
	cmovne	%rcx, %r13
.L432:
	.loc 5 671 11 is_stmt 0 view .LVU1498
	xorl	%edi, %edi
	leaq	.LC78(%rip), %rsi
	movl	$5, %edx
	call	dcgettext@PLT
.LVL612:
.LBB595:
.LBB596:
	.loc 2 107 10 view .LVU1499
	movq	%r13, %rcx
	movq	%r12, %rdx
	movl	$1, %edi
.LBE596:
.LBE595:
	.loc 5 671 11 view .LVU1500
	movq	%rax, %rsi
.LVL613:
.LBB598:
.LBI595:
	.loc 2 105 1 is_stmt 1 view .LVU1501
.LBB597:
	.loc 2 107 3 view .LVU1502
	.loc 2 107 10 is_stmt 0 view .LVU1503
	xorl	%eax, %eax
.LVL614:
	.loc 2 107 10 view .LVU1504
	call	__printf_chk@PLT
.LVL615:
	.loc 2 107 10 view .LVU1505
.LBE597:
.LBE598:
	.loc 5 673 1 view .LVU1506
	jmp	.L426
.LVL616:
.L430:
	.loc 5 655 3 is_stmt 1 view .LVU1507
	.loc 5 655 11 is_stmt 0 view .LVU1508
	call	dcgettext@PLT
.LVL617:
.LBB599:
.LBB585:
	.loc 2 107 10 view .LVU1509
	leaq	.LC73(%rip), %rcx
	movl	$1, %edi
	leaq	.LC74(%rip), %rdx
.LBE585:
.LBE599:
	.loc 5 655 11 view .LVU1510
	movq	%rax, %rsi
.LVL618:
.LBB600:
	.loc 2 105 1 is_stmt 1 view .LVU1511
.LBB586:
	.loc 2 107 3 view .LVU1512
	.loc 2 107 10 is_stmt 0 view .LVU1513
	xorl	%eax, %eax
.LVL619:
	.loc 2 107 10 view .LVU1514
	call	__printf_chk@PLT
.LVL620:
	.loc 2 107 10 view .LVU1515
.LBE586:
.LBE600:
	.loc 5 659 3 is_stmt 1 view .LVU1516
	.loc 5 659 29 is_stmt 0 view .LVU1517
	movl	$5, %edi
	xorl	%esi, %esi
	call	setlocale@PLT
.LVL621:
	movq	%rax, %rdi
.LVL622:
	.loc 5 660 3 is_stmt 1 view .LVU1518
	.loc 5 660 6 is_stmt 0 view .LVU1519
	testq	%rax, %rax
	je	.L433
	.loc 5 660 22 view .LVU1520
	movl	$3, %edx
	leaq	.LC75(%rip), %rsi
	call	strncmp@PLT
.LVL623:
	.loc 5 660 19 view .LVU1521
	testl	%eax, %eax
	jne	.L452
.L433:
	.loc 5 669 3 is_stmt 1 view .LVU1522
	.loc 5 669 11 is_stmt 0 view .LVU1523
	movl	$5, %edx
	leaq	.LC77(%rip), %rsi
	xorl	%edi, %edi
	call	dcgettext@PLT
.LVL624:
.LBB601:
.LBB591:
	.loc 2 107 10 view .LVU1524
	leaq	.LC44(%rip), %rcx
	leaq	.LC73(%rip), %rdx
	movl	$1, %edi
.LBE591:
.LBE601:
	.loc 5 669 11 view .LVU1525
	movq	%rax, %rsi
.LVL625:
.LBB602:
	.loc 2 105 1 is_stmt 1 view .LVU1526
.LBB592:
	.loc 2 107 3 view .LVU1527
	.loc 2 107 10 is_stmt 0 view .LVU1528
	xorl	%eax, %eax
.LVL626:
	.loc 2 107 10 view .LVU1529
.LBE592:
.LBE602:
	.loc 5 646 15 view .LVU1530
	leaq	.LC44(%rip), %r12
.LBB603:
.LBB593:
	.loc 2 107 10 view .LVU1531
	call	__printf_chk@PLT
.LVL627:
	.loc 2 107 10 view .LVU1532
.LBE593:
.LBE603:
	.loc 5 671 3 is_stmt 1 view .LVU1533
	leaq	.LC45(%rip), %r13
	jmp	.L432
.L452:
	.loc 5 646 15 is_stmt 0 view .LVU1534
	leaq	.LC44(%rip), %r13
	movq	%r13, %r12
.LVL628:
.L434:
	.loc 5 666 7 is_stmt 1 view .LVU1535
	movq	stdout(%rip), %r14
	xorl	%edi, %edi
	movl	$5, %edx
	leaq	.LC76(%rip), %rsi
	call	dcgettext@PLT
.LVL629:
	movq	%rax, %rdi
	movq	%r14, %rsi
	call	fputs_unlocked@PLT
.LVL630:
	jmp	.L431
.LBE581:
.LBE580:
	.cfi_endproc
.LFE139:
	.size	usage, .-usage
	.section	.rodata.str1.1
.LC79:
	.string	"/usr/local/share/locale"
	.section	.rodata.str1.8
	.align 8
.LC80:
	.string	"invalid output address radix '%c'; it must be one character from [doxn]"
	.section	.rodata.str1.1
.LC81:
	.string	"s != NULL"
.LC82:
	.string	"--endian"
.LC83:
	.string	"a"
.LC84:
	.string	"o1"
.LC85:
	.string	"c"
.LC86:
	.string	"u4"
.LC87:
	.string	"u2"
.LC88:
	.string	"fD"
.LC89:
	.string	"fF"
.LC90:
	.string	"x4"
.LC91:
	.string	"dI"
.LC92:
	.string	"dL"
.LC93:
	.string	"o4"
.LC94:
	.string	"o2"
.LC95:
	.string	"d2"
.LC96:
	.string	"x2"
.LC97:
	.string	"Jim Meyering"
	.section	.rodata.str1.8
	.align 8
.LC98:
	.string	"no type may be specified when dumping strings"
	.section	.rodata.str1.1
.LC99:
	.string	"extra operand %s"
	.section	.rodata.str1.8
	.align 8
.LC100:
	.string	"compatibility mode supports at most one file"
	.align 8
.LC101:
	.string	"skip-bytes + read-bytes is too large"
	.section	.rodata.str1.1
.LC102:
	.string	"oS"
	.section	.rodata.str1.8
	.align 8
.LC103:
	.string	"warning: invalid width %lu; using %d instead"
	.align 8
.LC104:
	.string	"n_bytes_read == bytes_per_block"
	.section	.text.startup,"ax",@progbits
	.p2align 4
	.globl	main
	.type	main, @function
main:
.LVL631:
.LFB170:
	.loc 1 1569 1 view -0
	.cfi_startproc
	.loc 1 1569 1 is_stmt 0 view .LVU1537
	endbr64
	pushq	%r15
	.cfi_def_cfa_offset 16
	.cfi_offset 15, -16
	pushq	%r14
	.cfi_def_cfa_offset 24
	.cfi_offset 14, -24
	pushq	%r13
	.cfi_def_cfa_offset 32
	.cfi_offset 13, -32
	movl	%edi, %r13d
	pushq	%r12
	.cfi_def_cfa_offset 40
	.cfi_offset 12, -40
	movq	%rsi, %r12
	pushq	%rbp
	.cfi_def_cfa_offset 48
	.cfi_offset 6, -48
	pushq	%rbx
	.cfi_def_cfa_offset 56
	.cfi_offset 3, -56
	subq	$88, %rsp
	.cfi_def_cfa_offset 144
	.loc 1 1585 3 view .LVU1538
	movq	(%rsi), %rdi
.LVL632:
	.loc 1 1569 1 view .LVU1539
	movq	%fs:40, %rax
	movq	%rax, 72(%rsp)
	xorl	%eax, %eax
	.loc 1 1570 3 is_stmt 1 view .LVU1540
	.loc 1 1571 3 view .LVU1541
	.loc 1 1572 3 view .LVU1542
	.loc 1 1573 3 view .LVU1543
.LVL633:
	.loc 1 1574 3 view .LVU1544
	.loc 1 1575 3 view .LVU1545
	.loc 1 1576 3 view .LVU1546
	.loc 1 1577 3 view .LVU1547
	.loc 1 1578 3 view .LVU1548
	.loc 1 1582 3 view .LVU1549
	.loc 1 1584 33 view .LVU1550
	.loc 1 1585 3 view .LVU1551
	call	set_program_name@PLT
.LVL634:
	.loc 1 1586 3 view .LVU1552
	leaq	.LC22(%rip), %rsi
	movl	$6, %edi
	call	setlocale@PLT
.LVL635:
	.loc 1 1587 3 view .LVU1553
	leaq	.LC79(%rip), %rsi
	leaq	.LC65(%rip), %rdi
	call	bindtextdomain@PLT
.LVL636:
	.loc 1 1588 3 view .LVU1554
	leaq	.LC65(%rip), %rdi
	call	textdomain@PLT
.LVL637:
	.loc 1 1590 3 view .LVU1555
	movq	close_stdout@GOTPCREL(%rip), %rdi
	call	atexit@PLT
.LVL638:
	.loc 1 1592 3 view .LVU1556
	.loc 1 1592 15 view .LVU1557
	leaq	integral_type_size(%rip), %rax
	leaq	36(%rax), %rdx
.LVL639:
	.p2align 4,,10
	.p2align 3
.L454:
	.loc 1 1593 5 discriminator 3 view .LVU1558
	.loc 1 1593 27 is_stmt 0 discriminator 3 view .LVU1559
	movl	$0, (%rax)
	.loc 1 1592 44 is_stmt 1 discriminator 3 view .LVU1560
	.loc 1 1592 15 discriminator 3 view .LVU1561
	addq	$4, %rax
	.loc 1 1592 3 is_stmt 0 discriminator 3 view .LVU1562
	cmpq	%rax, %rdx
	jne	.L454
	.loc 1 1595 3 is_stmt 1 view .LVU1563
	.loc 1 1596 3 view .LVU1564
	.loc 1 1595 37 is_stmt 0 view .LVU1565
	movabsq	$8589934593, %rax
	.loc 1 1597 36 view .LVU1566
	movl	$3, 16+integral_type_size(%rip)
	.loc 1 1602 55 view .LVU1567
	movl	$5, 32+integral_type_size(%rip)
	.loc 1 1595 37 view .LVU1568
	movq	%rax, 4+integral_type_size(%rip)
	.loc 1 1597 3 is_stmt 1 view .LVU1569
	.loc 1 1598 3 view .LVU1570
	.loc 1 1602 3 view .LVU1571
	.loc 1 1605 3 view .LVU1572
.LVL640:
	.loc 1 1605 15 view .LVU1573
	leaq	fp_type_size(%rip), %rax
	leaq	68(%rax), %rdx
.LVL641:
	.p2align 4,,10
	.p2align 3
.L455:
	.loc 1 1606 5 discriminator 3 view .LVU1574
	.loc 1 1606 21 is_stmt 0 discriminator 3 view .LVU1575
	movl	$0, (%rax)
	.loc 1 1605 38 is_stmt 1 discriminator 3 view .LVU1576
	.loc 1 1605 15 discriminator 3 view .LVU1577
	addq	$4, %rax
	.loc 1 1605 3 is_stmt 0 discriminator 3 view .LVU1578
	cmpq	%rax, %rdx
	jne	.L455
	.loc 1 1608 3 is_stmt 1 view .LVU1579
	.loc 1 1619 18 is_stmt 0 view .LVU1580
	leaq	format_address_std(%rip), %rax
	.loc 1 1575 8 view .LVU1581
	movb	$0, 8(%rsp)
	.loc 1 1576 8 view .LVU1582
	movl	$1, %ebp
	.loc 1 1574 8 view .LVU1583
	xorl	%r15d, %r15d
	.loc 1 1608 32 view .LVU1584
	movl	$6, 16+fp_type_size(%rip)
	.loc 1 1612 3 is_stmt 1 view .LVU1585
	leaq	32(%rsp), %r14
	leaq	.L462(%rip), %rbx
	.loc 1 1612 38 is_stmt 0 view .LVU1586
	movl	$8, 64+fp_type_size(%rip)
	.loc 1 1613 3 is_stmt 1 view .LVU1587
	.loc 1 1613 33 is_stmt 0 view .LVU1588
	movl	$7, 32+fp_type_size(%rip)
	.loc 1 1615 3 is_stmt 1 view .LVU1589
	.loc 1 1615 11 is_stmt 0 view .LVU1590
	movq	$0, n_specs(%rip)
	.loc 1 1616 3 is_stmt 1 view .LVU1591
	.loc 1 1616 21 is_stmt 0 view .LVU1592
	movq	$0, n_specs_allocated(%rip)
	.loc 1 1617 3 is_stmt 1 view .LVU1593
	.loc 1 1617 8 is_stmt 0 view .LVU1594
	movq	$0, spec(%rip)
	.loc 1 1619 3 is_stmt 1 view .LVU1595
	.loc 1 1619 18 is_stmt 0 view .LVU1596
	movq	%rax, format_address(%rip)
	.loc 1 1620 3 is_stmt 1 view .LVU1597
	.loc 1 1620 16 is_stmt 0 view .LVU1598
	movl	$8, address_base(%rip)
	.loc 1 1621 3 is_stmt 1 view .LVU1599
	.loc 1 1621 19 is_stmt 0 view .LVU1600
	movl	$7, address_pad_len(%rip)
	.loc 1 1622 3 is_stmt 1 view .LVU1601
	.loc 1 1622 21 is_stmt 0 view .LVU1602
	movb	$0, flag_dump_strings(%rip)
	.loc 1 1573 10 view .LVU1603
	movq	$0, (%rsp)
.LVL642:
	.p2align 4,,10
	.p2align 3
.L498:
	.loc 1 1624 3 is_stmt 1 view .LVU1604
.LBB711:
	.loc 1 1626 7 view .LVU1605
	.loc 1 1627 7 view .LVU1606
	.loc 1 1628 7 view .LVU1607
	.loc 1 1629 15 is_stmt 0 view .LVU1608
	movq	%r14, %r8
	leaq	long_options(%rip), %rcx
	movq	%r12, %rsi
	movl	%r13d, %edi
	leaq	short_options(%rip), %rdx
	.loc 1 1628 11 view .LVU1609
	movl	$-1, 32(%rsp)
	.loc 1 1629 7 is_stmt 1 view .LVU1610
	.loc 1 1629 15 is_stmt 0 view .LVU1611
	call	getopt_long@PLT
.LVL643:
	.loc 1 1630 7 is_stmt 1 view .LVU1612
	.loc 1 1630 10 is_stmt 0 view .LVU1613
	cmpl	$-1, %eax
	je	.L456
	.loc 1 1633 7 is_stmt 1 view .LVU1614
	cmpl	$129, %eax
	jg	.L661
	cmpl	$64, %eax
	jle	.L662
	subl	$65, %eax
.LVL644:
	.loc 1 1633 7 is_stmt 0 view .LVU1615
	cmpl	$64, %eax
	ja	.L661
	movslq	(%rbx,%rax,4), %rax
	addq	%rbx, %rax
	notrack jmp	*%rax
	.section	.rodata
	.align 4
	.align 4
.L462:
	.long	.L484-.L462
	.long	.L469-.L462
	.long	.L661-.L462
	.long	.L483-.L462
	.long	.L661-.L462
	.long	.L474-.L462
	.long	.L661-.L462
	.long	.L479-.L462
	.long	.L470-.L462
	.long	.L661-.L462
	.long	.L661-.L462
	.long	.L470-.L462
	.long	.L661-.L462
	.long	.L482-.L462
	.long	.L481-.L462
	.long	.L661-.L462
	.long	.L661-.L462
	.long	.L661-.L462
	.long	.L480-.L462
	.long	.L661-.L462
	.long	.L661-.L462
	.long	.L661-.L462
	.long	.L661-.L462
	.long	.L479-.L462
	.long	.L661-.L462
	.long	.L661-.L462
	.long	.L661-.L462
	.long	.L661-.L462
	.long	.L661-.L462
	.long	.L661-.L462
	.long	.L661-.L462
	.long	.L661-.L462
	.long	.L478-.L462
	.long	.L477-.L462
	.long	.L476-.L462
	.long	.L475-.L462
	.long	.L474-.L462
	.long	.L473-.L462
	.long	.L661-.L462
	.long	.L464-.L462
	.long	.L472-.L462
	.long	.L471-.L462
	.long	.L661-.L462
	.long	.L470-.L462
	.long	.L661-.L462
	.long	.L661-.L462
	.long	.L469-.L462
	.long	.L661-.L462
	.long	.L661-.L462
	.long	.L661-.L462
	.long	.L468-.L462
	.long	.L467-.L462
	.long	.L661-.L462
	.long	.L466-.L462
	.long	.L465-.L462
	.long	.L464-.L462
	.long	.L661-.L462
	.long	.L661-.L462
	.long	.L661-.L462
	.long	.L661-.L462
	.long	.L661-.L462
	.long	.L661-.L462
	.long	.L661-.L462
	.long	.L463-.L462
	.long	.L461-.L462
	.section	.text.startup
.L461:
	.loc 1 1719 11 is_stmt 1 view .LVU1616
	.loc 1 1719 19 is_stmt 0 view .LVU1617
	movq	argmatch_die(%rip), %r9
	movq	optarg(%rip), %rsi
	movl	$4, %r8d
	leaq	endian_types(%rip), %rcx
	leaq	endian_args(%rip), %rdx
	leaq	.LC82(%rip), %rdi
	call	__xargmatch_internal@PLT
.LVL645:
	movq	%rax, %r8
	leaq	endian_types(%rip), %rax
	movl	(%rax,%r8,4), %eax
	testl	%eax, %eax
	je	.L496
	subl	$1, %eax
	jne	.L498
	.loc 1 1722 19 is_stmt 1 view .LVU1618
	.loc 1 1722 30 is_stmt 0 view .LVU1619
	movb	$1, input_swap(%rip)
	.loc 1 1723 19 is_stmt 1 view .LVU1620
	jmp	.L498
.L463:
	.loc 1 1715 11 view .LVU1621
	.loc 1 1715 23 is_stmt 0 view .LVU1622
	movb	$1, traditional(%rip)
	.loc 1 1716 11 is_stmt 1 view .LVU1623
	jmp	.L498
.L465:
	.loc 1 1765 11 view .LVU1624
.LVL646:
	.loc 1 1766 11 view .LVU1625
	.loc 1 1767 11 view .LVU1626
	.loc 1 1767 22 is_stmt 0 view .LVU1627
	movq	optarg(%rip), %rdi
	.loc 1 1767 14 view .LVU1628
	testq	%rdi, %rdi
	je	.L596
.LBB712:
	.loc 1 1773 15 is_stmt 1 view .LVU1629
	.loc 1 1774 15 view .LVU1630
	.loc 1 1774 23 is_stmt 0 view .LVU1631
	xorl	%esi, %esi
	leaq	40(%rsp), %rcx
	movl	$10, %edx
	leaq	.LC22(%rip), %r8
	call	xstrtoumax@PLT
.LVL647:
	.loc 1 1775 15 is_stmt 1 view .LVU1632
	.loc 1 1775 18 is_stmt 0 view .LVU1633
	testl	%eax, %eax
	jne	.L663
	.loc 1 1777 15 is_stmt 1 view .LVU1634
	.loc 1 1779 15 view .LVU1635
	.loc 1 1779 29 is_stmt 0 view .LVU1636
	movq	40(%rsp), %rax
.LVL648:
	.loc 1 1779 29 view .LVU1637
.LBE712:
	.loc 1 1766 27 view .LVU1638
	movb	$1, 8(%rsp)
	.loc 1 1765 18 view .LVU1639
	movl	$1, %r15d
.LBB713:
	.loc 1 1779 29 view .LVU1640
	movq	%rax, (%rsp)
.LVL649:
	.loc 1 1779 29 view .LVU1641
	jmp	.L498
.LVL650:
.L466:
	.loc 1 1779 29 view .LVU1642
.LBE713:
	.loc 1 1710 11 is_stmt 1 view .LVU1643
	.loc 1 1711 11 view .LVU1644
	.loc 1 1711 39 is_stmt 0 view .LVU1645
	movb	$0, abbreviate_duplicate_blocks(%rip)
	.loc 1 1712 11 is_stmt 1 view .LVU1646
	.loc 1 1710 18 is_stmt 0 view .LVU1647
	movl	$1, %r15d
	.loc 1 1712 11 view .LVU1648
	jmp	.L498
.LVL651:
.L467:
	.loc 1 1705 11 is_stmt 1 view .LVU1649
	.loc 1 1706 11 view .LVU1650
	.loc 1 1706 17 is_stmt 0 view .LVU1651
	movq	optarg(%rip), %rdi
.LVL652:
.LBB714:
.LBI714:
	.loc 1 982 1 is_stmt 1 view .LVU1652
.LBB715:
	.loc 1 984 3 view .LVU1653
	.loc 1 985 3 view .LVU1654
	testq	%rdi, %rdi
	je	.L664
	call	decode_format_string.part.0
.LVL653:
	.loc 1 985 3 is_stmt 0 view .LVU1655
.LBE715:
.LBE714:
	.loc 1 1705 18 view .LVU1656
	movl	$1, %r15d
	andl	%eax, %ebp
.LVL654:
	.loc 1 1707 11 is_stmt 1 view .LVU1657
	jmp	.L498
.LVL655:
.L468:
	.loc 1 1758 11 view .LVU1658
.LBB717:
.LBI717:
	.loc 1 982 1 view .LVU1659
.LBB718:
	.loc 1 984 3 view .LVU1660
	.loc 1 985 3 view .LVU1661
	leaq	.LC95(%rip), %rdi
	call	decode_format_string.part.0
.LVL656:
	.loc 1 985 3 is_stmt 0 view .LVU1662
	andl	%eax, %ebp
.LVL657:
	.loc 1 985 3 view .LVU1663
.LBE718:
.LBE717:
	.loc 1 1758 11 is_stmt 1 view .LVU1664
	jmp	.L498
.LVL658:
.L471:
	.loc 1 1668 11 view .LVU1665
	.loc 1 1669 11 view .LVU1666
	.loc 1 1669 19 is_stmt 0 view .LVU1667
	movq	optarg(%rip), %rdi
	xorl	%edx, %edx
	xorl	%esi, %esi
	leaq	multipliers.7860(%rip), %r8
	leaq	n_bytes_to_skip(%rip), %rcx
	call	xstrtoumax@PLT
.LVL659:
	.loc 1 1670 11 is_stmt 1 view .LVU1668
	.loc 1 1670 14 is_stmt 0 view .LVU1669
	testl	%eax, %eax
	jne	.L665
.L595:
	.loc 1 1675 18 view .LVU1670
	movl	$1, %r15d
	jmp	.L498
.LVL660:
.L472:
	.loc 1 1752 11 is_stmt 1 view .LVU1671
.LBB719:
.LBI719:
	.loc 1 982 1 view .LVU1672
.LBB720:
	.loc 1 984 3 view .LVU1673
	.loc 1 985 3 view .LVU1674
	leaq	.LC91(%rip), %rdi
	call	decode_format_string.part.0
.LVL661:
	.loc 1 985 3 is_stmt 0 view .LVU1675
	andl	%eax, %ebp
.LVL662:
	.loc 1 985 3 view .LVU1676
.LBE720:
.LBE719:
	.loc 1 1752 11 is_stmt 1 view .LVU1677
	jmp	.L498
.LVL663:
.L464:
	.loc 1 1760 11 view .LVU1678
.LBB721:
.LBI721:
	.loc 1 982 1 view .LVU1679
.LBB722:
	.loc 1 984 3 view .LVU1680
	.loc 1 985 3 view .LVU1681
	leaq	.LC96(%rip), %rdi
	call	decode_format_string.part.0
.LVL664:
	.loc 1 985 3 is_stmt 0 view .LVU1682
	andl	%eax, %ebp
.LVL665:
	.loc 1 985 3 view .LVU1683
.LBE722:
.LBE721:
	.loc 1 1760 11 is_stmt 1 view .LVU1684
	jmp	.L498
.LVL666:
.L473:
	.loc 1 1749 11 view .LVU1685
.LBB723:
.LBI723:
	.loc 1 982 1 view .LVU1686
.LBB724:
	.loc 1 984 3 view .LVU1687
	.loc 1 985 3 view .LVU1688
	leaq	.LC89(%rip), %rdi
	call	decode_format_string.part.0
.LVL667:
	.loc 1 985 3 is_stmt 0 view .LVU1689
	andl	%eax, %ebp
.LVL668:
	.loc 1 985 3 view .LVU1690
.LBE724:
.LBE723:
	.loc 1 1749 11 is_stmt 1 view .LVU1691
	jmp	.L498
.LVL669:
.L475:
	.loc 1 1746 11 view .LVU1692
.LBB725:
.LBI725:
	.loc 1 982 1 view .LVU1693
.LBB726:
	.loc 1 984 3 view .LVU1694
	.loc 1 985 3 view .LVU1695
	leaq	.LC87(%rip), %rdi
	call	decode_format_string.part.0
.LVL670:
	.loc 1 985 3 is_stmt 0 view .LVU1696
	andl	%eax, %ebp
.LVL671:
	.loc 1 985 3 view .LVU1697
.LBE726:
.LBE725:
	.loc 1 1746 11 is_stmt 1 view .LVU1698
	jmp	.L498
.LVL672:
.L476:
	.loc 1 1744 11 view .LVU1699
.LBB727:
.LBI727:
	.loc 1 982 1 view .LVU1700
.LBB728:
	.loc 1 984 3 view .LVU1701
	.loc 1 985 3 view .LVU1702
	leaq	.LC85(%rip), %rdi
	call	decode_format_string.part.0
.LVL673:
	.loc 1 985 3 is_stmt 0 view .LVU1703
	andl	%eax, %ebp
.LVL674:
	.loc 1 985 3 view .LVU1704
.LBE728:
.LBE727:
	.loc 1 1744 11 is_stmt 1 view .LVU1705
	jmp	.L498
.LVL675:
.L477:
	.loc 1 1743 11 view .LVU1706
.LBB729:
.LBI729:
	.loc 1 982 1 view .LVU1707
.LBB730:
	.loc 1 984 3 view .LVU1708
	.loc 1 985 3 view .LVU1709
	leaq	.LC84(%rip), %rdi
	call	decode_format_string.part.0
.LVL676:
	.loc 1 985 3 is_stmt 0 view .LVU1710
	andl	%eax, %ebp
.LVL677:
	.loc 1 985 3 view .LVU1711
.LBE730:
.LBE729:
	.loc 1 1743 11 is_stmt 1 view .LVU1712
	jmp	.L498
.LVL678:
.L478:
	.loc 1 1742 11 view .LVU1713
.LBB731:
.LBI731:
	.loc 1 982 1 view .LVU1714
.LBB732:
	.loc 1 984 3 view .LVU1715
	.loc 1 985 3 view .LVU1716
	leaq	.LC83(%rip), %rdi
	call	decode_format_string.part.0
.LVL679:
	.loc 1 985 3 is_stmt 0 view .LVU1717
	andl	%eax, %ebp
.LVL680:
	.loc 1 985 3 view .LVU1718
.LBE732:
.LBE731:
	.loc 1 1742 11 is_stmt 1 view .LVU1719
	jmp	.L498
.LVL681:
.L480:
	.loc 1 1685 11 view .LVU1720
	.loc 1 1686 11 view .LVU1721
	.loc 1 1686 22 is_stmt 0 view .LVU1722
	movq	optarg(%rip), %rdi
	.loc 1 1686 14 view .LVU1723
	testq	%rdi, %rdi
	je	.L666
	.loc 1 1690 15 is_stmt 1 view .LVU1724
	.loc 1 1690 23 is_stmt 0 view .LVU1725
	xorl	%edx, %edx
	leaq	40(%rsp), %rcx
	leaq	multipliers.7860(%rip), %r8
	xorl	%esi, %esi
	call	xstrtoumax@PLT
.LVL682:
	.loc 1 1691 15 is_stmt 1 view .LVU1726
	.loc 1 1691 18 is_stmt 0 view .LVU1727
	testl	%eax, %eax
	jne	.L667
	.loc 1 1696 15 is_stmt 1 view .LVU1728
	.loc 1 1699 15 view .LVU1729
	.loc 1 1699 26 is_stmt 0 view .LVU1730
	movq	40(%rsp), %rax
.LVL683:
	.loc 1 1699 26 view .LVU1731
	movq	%rax, string_min(%rip)
.L493:
	.loc 1 1701 11 is_stmt 1 view .LVU1732
	.loc 1 1701 29 is_stmt 0 view .LVU1733
	movb	$1, flag_dump_strings(%rip)
	.loc 1 1702 11 is_stmt 1 view .LVU1734
	.loc 1 1685 18 is_stmt 0 view .LVU1735
	movl	$1, %r15d
	.loc 1 1702 11 view .LVU1736
	jmp	.L498
.LVL684:
.L481:
	.loc 1 1755 11 is_stmt 1 view .LVU1737
.LBB733:
.LBI733:
	.loc 1 982 1 view .LVU1738
.LBB734:
	.loc 1 984 3 view .LVU1739
	.loc 1 985 3 view .LVU1740
	leaq	.LC93(%rip), %rdi
	call	decode_format_string.part.0
.LVL685:
	.loc 1 985 3 is_stmt 0 view .LVU1741
	andl	%eax, %ebp
.LVL686:
	.loc 1 985 3 view .LVU1742
.LBE734:
.LBE733:
	.loc 1 1755 11 is_stmt 1 view .LVU1743
	jmp	.L498
.LVL687:
.L482:
	.loc 1 1675 11 view .LVU1744
	.loc 1 1676 11 view .LVU1745
	.loc 1 1678 19 is_stmt 0 view .LVU1746
	movq	optarg(%rip), %rdi
	xorl	%edx, %edx
	xorl	%esi, %esi
	leaq	multipliers.7860(%rip), %r8
	leaq	max_bytes_to_format(%rip), %rcx
	.loc 1 1676 33 view .LVU1747
	movb	$1, limit_bytes_to_format(%rip)
	.loc 1 1678 11 is_stmt 1 view .LVU1748
	.loc 1 1678 19 is_stmt 0 view .LVU1749
	call	xstrtoumax@PLT
.LVL688:
	.loc 1 1680 11 is_stmt 1 view .LVU1750
	.loc 1 1680 14 is_stmt 0 view .LVU1751
	testl	%eax, %eax
	je	.L595
	.loc 1 1681 13 is_stmt 1 view .LVU1752
	movq	optarg(%rip), %r8
	movl	32(%rsp), %esi
	movl	$78, %edx
	movl	%eax, %edi
	leaq	long_options(%rip), %rcx
	call	xstrtol_fatal@PLT
.LVL689:
.L470:
	.loc 1 1754 11 view .LVU1753
.LBB735:
.LBI735:
	.loc 1 982 1 view .LVU1754
.LBB736:
	.loc 1 984 3 view .LVU1755
	.loc 1 985 3 view .LVU1756
	leaq	.LC92(%rip), %rdi
	call	decode_format_string.part.0
.LVL690:
	.loc 1 985 3 is_stmt 0 view .LVU1757
	andl	%eax, %ebp
.LVL691:
	.loc 1 985 3 view .LVU1758
.LBE736:
.LBE735:
	.loc 1 1754 11 is_stmt 1 view .LVU1759
	jmp	.L498
.LVL692:
.L479:
	.loc 1 1751 11 view .LVU1760
.LBB737:
.LBI737:
	.loc 1 982 1 view .LVU1761
.LBB738:
	.loc 1 984 3 view .LVU1762
	.loc 1 985 3 view .LVU1763
	leaq	.LC90(%rip), %rdi
	call	decode_format_string.part.0
.LVL693:
	.loc 1 985 3 is_stmt 0 view .LVU1764
	andl	%eax, %ebp
.LVL694:
	.loc 1 985 3 view .LVU1765
.LBE738:
.LBE737:
	.loc 1 1751 11 is_stmt 1 view .LVU1766
	jmp	.L498
.LVL695:
.L474:
	.loc 1 1748 11 view .LVU1767
.LBB739:
.LBI739:
	.loc 1 982 1 view .LVU1768
.LBB740:
	.loc 1 984 3 view .LVU1769
	.loc 1 985 3 view .LVU1770
	leaq	.LC88(%rip), %rdi
	call	decode_format_string.part.0
.LVL696:
	.loc 1 985 3 is_stmt 0 view .LVU1771
	andl	%eax, %ebp
.LVL697:
	.loc 1 985 3 view .LVU1772
.LBE740:
.LBE739:
	.loc 1 1748 11 is_stmt 1 view .LVU1773
	jmp	.L498
.LVL698:
.L483:
	.loc 1 1745 11 view .LVU1774
.LBB741:
.LBI741:
	.loc 1 982 1 view .LVU1775
.LBB742:
	.loc 1 984 3 view .LVU1776
	.loc 1 985 3 view .LVU1777
	leaq	.LC86(%rip), %rdi
	call	decode_format_string.part.0
.LVL699:
	.loc 1 985 3 is_stmt 0 view .LVU1778
	andl	%eax, %ebp
.LVL700:
	.loc 1 985 3 view .LVU1779
.LBE742:
.LBE741:
	.loc 1 1745 11 is_stmt 1 view .LVU1780
	jmp	.L498
.LVL701:
.L469:
	.loc 1 1757 11 view .LVU1781
.LBB743:
.LBI743:
	.loc 1 982 1 view .LVU1782
.LBB744:
	.loc 1 984 3 view .LVU1783
	.loc 1 985 3 view .LVU1784
	leaq	.LC94(%rip), %rdi
	call	decode_format_string.part.0
.LVL702:
	.loc 1 985 3 is_stmt 0 view .LVU1785
	andl	%eax, %ebp
.LVL703:
	.loc 1 985 3 view .LVU1786
.LBE744:
.LBE743:
	.loc 1 1757 11 is_stmt 1 view .LVU1787
	jmp	.L498
.LVL704:
.L484:
	.loc 1 1636 11 view .LVU1788
	.loc 1 1637 11 view .LVU1789
	.loc 1 1637 25 is_stmt 0 view .LVU1790
	movq	optarg(%rip), %rax
	movzbl	(%rax), %r15d
	cmpb	$111, %r15b
	je	.L485
	jg	.L486
	cmpb	$100, %r15b
	je	.L487
	cmpb	$110, %r15b
	jne	.L489
.LBB745:
	.loc 1 1655 15 is_stmt 1 view .LVU1791
	.loc 1 1655 30 is_stmt 0 view .LVU1792
	leaq	format_address_none(%rip), %rax
.LBE745:
	.loc 1 1636 18 view .LVU1793
	movl	$1, %r15d
.LBB746:
	.loc 1 1656 31 view .LVU1794
	movl	$0, address_pad_len(%rip)
	.loc 1 1655 30 view .LVU1795
	movq	%rax, format_address(%rip)
	.loc 1 1656 15 is_stmt 1 view .LVU1796
	.loc 1 1657 15 view .LVU1797
	jmp	.L498
.L486:
.LBE746:
	cmpb	$120, %r15b
	jne	.L489
.LBB747:
	.loc 1 1650 15 view .LVU1798
	.loc 1 1650 30 is_stmt 0 view .LVU1799
	leaq	format_address_std(%rip), %rax
.LBE747:
	.loc 1 1636 18 view .LVU1800
	movl	$1, %r15d
.LBB748:
	.loc 1 1651 28 view .LVU1801
	movl	$16, address_base(%rip)
	.loc 1 1650 30 view .LVU1802
	movq	%rax, format_address(%rip)
	.loc 1 1651 15 is_stmt 1 view .LVU1803
	.loc 1 1652 15 view .LVU1804
	.loc 1 1652 31 is_stmt 0 view .LVU1805
	movl	$6, address_pad_len(%rip)
	.loc 1 1653 15 is_stmt 1 view .LVU1806
	jmp	.L498
.LVL705:
	.p2align 4,,10
	.p2align 3
.L662:
	.loc 1 1653 15 is_stmt 0 view .LVU1807
.LBE748:
	.loc 1 1633 7 view .LVU1808
	cmpl	$-131, %eax
	jne	.L668
	.loc 1 1783 9 is_stmt 1 view .LVU1809
	.loc 1 1783 30 view .LVU1810
	.loc 1 1785 9 view .LVU1811
	movq	stdout(%rip), %rdi
	movq	Version(%rip), %rcx
	xorl	%eax, %eax
.LVL706:
	.loc 1 1785 9 is_stmt 0 view .LVU1812
	xorl	%r9d, %r9d
	leaq	.LC97(%rip), %r8
	leaq	.LC74(%rip), %rdx
	leaq	.LC44(%rip), %rsi
	call	version_etc@PLT
.LVL707:
	.loc 1 1785 9 is_stmt 1 view .LVU1813
	xorl	%edi, %edi
	call	exit@PLT
.LVL708:
	.p2align 4,,10
	.p2align 3
.L668:
	.loc 1 1633 7 is_stmt 0 view .LVU1814
	cmpl	$-130, %eax
	jne	.L661
	.loc 1 1783 9 is_stmt 1 view .LVU1815
	xorl	%edi, %edi
	call	usage
.LVL709:
.L596:
	.loc 1 1766 27 is_stmt 0 view .LVU1816
	movb	$1, 8(%rsp)
	.loc 1 1765 18 view .LVU1817
	movl	$1, %r15d
	.loc 1 1769 29 view .LVU1818
	movq	$32, (%rsp)
.LVL710:
	.loc 1 1789 11 is_stmt 1 view .LVU1819
.LBE711:
	.loc 1 1624 9 view .LVU1820
	.loc 1 1625 5 is_stmt 0 view .LVU1821
	jmp	.L498
.LVL711:
.L666:
.LBB756:
	.loc 1 1687 13 is_stmt 1 view .LVU1822
	.loc 1 1687 24 is_stmt 0 view .LVU1823
	movq	$3, string_min(%rip)
	jmp	.L493
.LVL712:
.L496:
	.loc 1 1725 19 is_stmt 1 view .LVU1824
	.loc 1 1725 30 is_stmt 0 view .LVU1825
	movb	$0, input_swap(%rip)
	.loc 1 1726 19 is_stmt 1 view .LVU1826
	jmp	.L498
.LVL713:
.L456:
	.loc 1 1726 19 is_stmt 0 view .LVU1827
.LBE756:
	.loc 1 1793 3 is_stmt 1 view .LVU1828
	.loc 1 1793 6 is_stmt 0 view .LVU1829
	testb	%bpl, %bpl
	je	.L597
	.loc 1 1796 3 is_stmt 1 view .LVU1830
	.loc 1 1796 6 is_stmt 0 view .LVU1831
	cmpb	$0, flag_dump_strings(%rip)
	je	.L500
	.loc 1 1796 25 discriminator 1 view .LVU1832
	cmpq	$0, n_specs(%rip)
	jne	.L669
.L500:
	.loc 1 1800 3 is_stmt 1 view .LVU1833
	.loc 1 1800 18 is_stmt 0 view .LVU1834
	movslq	optind(%rip), %rax
.LVL714:
	.loc 1 1800 18 view .LVU1835
	movzbl	traditional(%rip), %edx
	.loc 1 1800 11 view .LVU1836
	subl	%eax, %r13d
.LVL715:
	.loc 1 1814 3 is_stmt 1 view .LVU1837
	.loc 1 1814 6 is_stmt 0 view .LVU1838
	testb	%r15b, %r15b
	jne	.L670
.LBB757:
	.loc 1 1816 7 is_stmt 1 view .LVU1839
	.loc 1 1817 7 view .LVU1840
	.loc 1 1819 7 view .LVU1841
	cmpl	$2, %r13d
	je	.L504
	cmpl	$3, %r13d
	je	.L505
	cmpl	$1, %r13d
	je	.L671
	.loc 1 1869 7 view .LVU1842
	.loc 1 1869 10 is_stmt 0 view .LVU1843
	testb	%dl, %dl
	je	.L599
.L591:
	.loc 1 1869 10 view .LVU1844
.LBE757:
	.loc 1 1582 13 discriminator 1 view .LVU1845
	xorl	%ebx, %ebx
.LBB758:
	.loc 1 1869 23 discriminator 1 view .LVU1846
	cmpl	$1, %r13d
	jle	.L503
.L585:
	.loc 1 1871 11 is_stmt 1 view .LVU1847
	movq	8(%r12,%rax,8), %rdi
	call	quote@PLT
.LVL716:
	.loc 1 1871 24 is_stmt 0 view .LVU1848
	movl	$5, %edx
	leaq	.LC99(%rip), %rsi
	xorl	%edi, %edi
	.loc 1 1871 11 view .LVU1849
	movq	%rax, %r12
.LVL717:
	.loc 1 1871 24 view .LVU1850
	call	dcgettext@PLT
.LVL718:
	.loc 1 1871 11 view .LVU1851
	movq	%r12, %rcx
	xorl	%esi, %esi
	xorl	%edi, %edi
	.loc 1 1871 24 view .LVU1852
	movq	%rax, %rdx
	.loc 1 1871 11 view .LVU1853
	xorl	%eax, %eax
	call	error@PLT
.LVL719:
	.loc 1 1872 11 is_stmt 1 view .LVU1854
	movl	$5, %edx
	leaq	.LC100(%rip), %rsi
	xorl	%edi, %edi
	call	dcgettext@PLT
.LVL720:
	leaq	.LC16(%rip), %rdx
	xorl	%esi, %esi
	xorl	%edi, %edi
	movq	%rax, %rcx
	xorl	%eax, %eax
	call	error@PLT
.LVL721:
.L661:
	.loc 1 1874 11 view .LVU1855
	movl	$1, %edi
	call	usage
.LVL722:
.L487:
	.loc 1 1874 11 is_stmt 0 view .LVU1856
.LBE758:
.LBB759:
.LBB749:
	.loc 1 1640 15 is_stmt 1 view .LVU1857
	.loc 1 1640 30 is_stmt 0 view .LVU1858
	leaq	format_address_std(%rip), %rax
.LBE749:
	.loc 1 1636 18 view .LVU1859
	movl	$1, %r15d
.LBB750:
	.loc 1 1641 28 view .LVU1860
	movl	$10, address_base(%rip)
	.loc 1 1640 30 view .LVU1861
	movq	%rax, format_address(%rip)
	.loc 1 1641 15 is_stmt 1 view .LVU1862
	.loc 1 1642 15 view .LVU1863
	.loc 1 1642 31 is_stmt 0 view .LVU1864
	movl	$7, address_pad_len(%rip)
	.loc 1 1643 15 is_stmt 1 view .LVU1865
	jmp	.L498
.L485:
	.loc 1 1645 15 view .LVU1866
	.loc 1 1645 30 is_stmt 0 view .LVU1867
	leaq	format_address_std(%rip), %rax
.LBE750:
	.loc 1 1636 18 view .LVU1868
	movl	$1, %r15d
.LBB751:
	.loc 1 1646 28 view .LVU1869
	movl	$8, address_base(%rip)
	.loc 1 1645 30 view .LVU1870
	movq	%rax, format_address(%rip)
	.loc 1 1646 15 is_stmt 1 view .LVU1871
	.loc 1 1647 15 view .LVU1872
	.loc 1 1647 31 is_stmt 0 view .LVU1873
	movl	$7, address_pad_len(%rip)
	.loc 1 1648 15 is_stmt 1 view .LVU1874
	jmp	.L498
.LVL723:
.L670:
	.loc 1 1648 15 is_stmt 0 view .LVU1875
.LBE751:
.LBE759:
	.loc 1 1814 15 discriminator 1 view .LVU1876
	testb	%dl, %dl
	je	.L599
.LBB760:
	.loc 1 1816 7 is_stmt 1 view .LVU1877
	.loc 1 1817 7 view .LVU1878
	.loc 1 1819 7 view .LVU1879
	cmpl	$2, %r13d
	je	.L588
	cmpl	$3, %r13d
	je	.L589
	cmpl	$1, %r13d
	jne	.L591
	.loc 1 1822 11 view .LVU1880
	movq	(%r12,%rax,8), %rdi
.L507:
	.loc 1 1823 18 is_stmt 0 view .LVU1881
	movq	%r14, %rsi
	call	parse_old_offset
.LVL724:
	.loc 1 1823 15 view .LVU1882
	testb	%al, %al
	je	.L508
	.loc 1 1825 15 is_stmt 1 view .LVU1883
	.loc 1 1825 31 is_stmt 0 view .LVU1884
	movq	32(%rsp), %rax
	.loc 1 1827 15 view .LVU1885
	addq	$8, %r12
.LVL725:
	.loc 1 1827 15 view .LVU1886
.LBE760:
	.loc 1 1582 13 view .LVU1887
	xorl	%ebx, %ebx
.LBB761:
	.loc 1 1826 15 view .LVU1888
	xorl	%r13d, %r13d
.LVL726:
	.loc 1 1825 31 view .LVU1889
	movq	%rax, n_bytes_to_skip(%rip)
	.loc 1 1826 15 is_stmt 1 view .LVU1890
.LVL727:
	.loc 1 1827 15 view .LVU1891
	.loc 1 1827 15 is_stmt 0 view .LVU1892
	jmp	.L503
.LVL728:
.L505:
	.loc 1 1855 11 is_stmt 1 view .LVU1893
	.loc 1 1855 14 is_stmt 0 view .LVU1894
	testb	%dl, %dl
	jne	.L589
.L599:
	.loc 1 1855 14 view .LVU1895
.LBE761:
	.loc 1 1582 13 view .LVU1896
	xorl	%ebx, %ebx
.LVL729:
.L503:
	.loc 1 1878 3 is_stmt 1 view .LVU1897
	.loc 1 1878 6 is_stmt 0 view .LVU1898
	cmpb	$0, flag_pseudo_start(%rip)
	je	.L517
	.loc 1 1880 7 is_stmt 1 view .LVU1899
	.loc 1 1880 10 is_stmt 0 view .LVU1900
	leaq	format_address_none(%rip), %rax
	cmpq	%rax, format_address(%rip)
	je	.L672
	.loc 1 1887 9 is_stmt 1 view .LVU1901
	.loc 1 1887 24 is_stmt 0 view .LVU1902
	leaq	format_address_label(%rip), %rax
	movq	%rax, format_address(%rip)
.L517:
	.loc 1 1890 3 is_stmt 1 view .LVU1903
	.loc 1 1890 6 is_stmt 0 view .LVU1904
	cmpb	$0, limit_bytes_to_format(%rip)
	je	.L519
	.loc 1 1892 7 is_stmt 1 view .LVU1905
	movq	max_bytes_to_format(%rip), %rax
	addq	n_bytes_to_skip(%rip), %rax
	.loc 1 1892 18 is_stmt 0 view .LVU1906
	movq	%rax, end_offset(%rip)
	.loc 1 1893 7 is_stmt 1 view .LVU1907
	.loc 1 1893 10 is_stmt 0 view .LVU1908
	jc	.L673
.L519:
	.loc 1 1897 3 is_stmt 1 view .LVU1909
	.loc 1 1897 6 is_stmt 0 view .LVU1910
	cmpq	$0, n_specs(%rip)
	je	.L674
.L522:
	.loc 1 1900 3 is_stmt 1 view .LVU1911
	.loc 1 1913 17 is_stmt 0 view .LVU1912
	leaq	default_file_list(%rip), %rax
	.loc 1 1900 6 view .LVU1913
	testl	%r13d, %r13d
	jle	.L523
	.loc 1 1905 7 is_stmt 1 view .LVU1914
	.loc 1 1905 46 is_stmt 0 view .LVU1915
	movslq	optind(%rip), %rax
	.loc 1 1905 41 view .LVU1916
	leaq	(%r12,%rax,8), %rax
.L523:
	.loc 1 1905 41 view .LVU1917
	movq	%rax, file_list(%rip)
	.loc 1 1917 3 is_stmt 1 view .LVU1918
	.loc 1 1917 8 is_stmt 0 view .LVU1919
	call	open_next_file
.LVL730:
	.loc 1 1918 6 view .LVU1920
	cmpq	$0, in_stream(%rip)
	.loc 1 1917 8 view .LVU1921
	movl	%eax, %r12d
.LVL731:
	.loc 1 1918 3 is_stmt 1 view .LVU1922
	.loc 1 1918 6 is_stmt 0 view .LVU1923
	je	.L524
	.loc 1 1922 3 is_stmt 1 view .LVU1924
	.loc 1 1922 9 is_stmt 0 view .LVU1925
	movq	n_bytes_to_skip(%rip), %rdi
	call	skip
.LVL732:
	.loc 1 1922 9 view .LVU1926
	andl	%eax, %r12d
.LVL733:
	.loc 1 1923 6 view .LVU1927
	cmpq	$0, in_stream(%rip)
	.loc 1 1922 6 view .LVU1928
	movzbl	%r12b, %eax
	movl	%eax, 20(%rsp)
.LVL734:
	.loc 1 1923 3 is_stmt 1 view .LVU1929
	.loc 1 1923 6 is_stmt 0 view .LVU1930
	je	.L524
	.loc 1 1926 3 is_stmt 1 view .LVU1931
	.loc 1 1926 71 is_stmt 0 view .LVU1932
	xorl	%eax, %eax
	cmpb	$0, flag_pseudo_start(%rip)
	je	.L525
	.loc 1 1926 71 discriminator 1 view .LVU1933
	movq	%rbx, %rax
	subq	n_bytes_to_skip(%rip), %rax
.L525:
.LBB762:
.LBB763:
.LBB764:
	.loc 1 1326 24 discriminator 4 view .LVU1934
	movq	n_specs(%rip), %r11
.LBE764:
.LBE763:
.LBE762:
	.loc 1 1926 17 discriminator 4 view .LVU1935
	movq	%rax, pseudo_offset(%rip)
	.loc 1 1929 3 is_stmt 1 discriminator 4 view .LVU1936
.LBB779:
.LBI762:
	.loc 1 1322 1 discriminator 4 view .LVU1937
.LBB775:
	.loc 1 1324 3 discriminator 4 view .LVU1938
.LVL735:
	.loc 1 1326 3 discriminator 4 view .LVU1939
.LBB773:
	.loc 1 1326 8 discriminator 4 view .LVU1940
	.loc 1 1326 22 discriminator 4 view .LVU1941
	.loc 1 1326 3 is_stmt 0 discriminator 4 view .LVU1942
	testq	%r11, %r11
	je	.L526
	imulq	$40, %r11, %rax
	.loc 1 1327 41 view .LVU1943
	movq	spec(%rip), %rbx
.LVL736:
	.loc 1 1327 41 view .LVU1944
.LBE773:
	.loc 1 1324 7 view .LVU1945
	movl	$1, %r8d
	leaq	width_bytes(%rip), %r9
	leaq	4(%rbx), %rdi
	leaq	4(%rbx,%rax), %r10
.LVL737:
	.p2align 4,,10
	.p2align 3
.L528:
.LBB774:
	.loc 1 1327 5 is_stmt 1 view .LVU1946
	.loc 1 1327 36 is_stmt 0 view .LVU1947
	movl	(%rdi), %eax
	.loc 1 1327 13 view .LVU1948
	movslq	%r8d, %r8
.LVL738:
	.loc 1 1327 13 view .LVU1949
	movq	%r8, %rcx
	movslq	(%r9,%rax,4), %r12
.LVL739:
.LBB765:
.LBI765:
	.loc 5 490 1 is_stmt 1 view .LVU1950
.LBB766:
	.loc 5 492 3 view .LVU1951
.LBB767:
.LBI767:
	.loc 5 472 1 view .LVU1952
.LBE767:
.LBE766:
.LBE765:
	.loc 1 1327 13 is_stmt 0 view .LVU1953
	movq	%r12, %rdx
.LVL740:
	.p2align 4,,10
	.p2align 3
.L527:
.LBB772:
.LBB771:
.LBB770:
.LBB768:
	.loc 5 474 3 is_stmt 1 view .LVU1954
.LBB769:
	.loc 5 476 7 view .LVU1955
	.loc 5 476 14 is_stmt 0 view .LVU1956
	movq	%rcx, %rax
	movq	%rdx, %rcx
.LVL741:
	.loc 5 476 14 view .LVU1957
	xorl	%edx, %edx
.LVL742:
	.loc 5 476 14 view .LVU1958
	divq	%rcx
.LVL743:
	.loc 5 477 7 is_stmt 1 view .LVU1959
	.loc 5 478 7 view .LVU1960
	.loc 5 478 7 is_stmt 0 view .LVU1961
.LBE769:
	.loc 5 480 9 is_stmt 1 view .LVU1962
	.loc 5 480 3 is_stmt 0 view .LVU1963
	testq	%rdx, %rdx
	jne	.L527
	.loc 5 482 3 is_stmt 1 view .LVU1964
.LVL744:
	.loc 5 482 3 is_stmt 0 view .LVU1965
.LBE768:
.LBE770:
	.loc 5 492 17 view .LVU1966
	movq	%r12, %rax
	xorl	%edx, %edx
	addq	$40, %rdi
	divq	%rcx
.LBE771:
.LBE772:
	.loc 1 1327 11 view .LVU1967
	imull	%eax, %r8d
.LVL745:
	.loc 1 1326 35 is_stmt 1 view .LVU1968
	.loc 1 1326 22 view .LVU1969
	.loc 1 1326 3 is_stmt 0 view .LVU1970
	cmpq	%rdi, %r10
	jne	.L528
.LBE774:
	.loc 1 1328 3 is_stmt 1 view .LVU1971
.LVL746:
	.loc 1 1328 3 is_stmt 0 view .LVU1972
.LBE775:
.LBE779:
	.loc 1 1931 3 is_stmt 1 view .LVU1973
	.loc 1 1931 6 is_stmt 0 view .LVU1974
	cmpb	$0, 8(%rsp)
	je	.L529
	.loc 1 1933 7 is_stmt 1 view .LVU1975
	.loc 1 1933 10 is_stmt 0 view .LVU1976
	movq	(%rsp), %rax
	movslq	%r8d, %rbx
	testq	%rax, %rax
	je	.L530
	.loc 1 1933 47 discriminator 1 view .LVU1977
	xorl	%edx, %edx
	divq	%rbx
	.loc 1 1933 30 discriminator 1 view .LVU1978
	testq	%rdx, %rdx
	je	.L592
.LVL747:
.L530:
	.loc 1 1937 24 view .LVU1979
	movl	$5, %edx
	leaq	.LC103(%rip), %rsi
	xorl	%edi, %edi
	movl	%r8d, 8(%rsp)
.LVL748:
	.loc 1 1937 11 is_stmt 1 view .LVU1980
	.loc 1 1937 24 is_stmt 0 view .LVU1981
	call	dcgettext@PLT
.LVL749:
	.loc 1 1937 11 view .LVU1982
	movl	8(%rsp), %r8d
	movq	(%rsp), %rcx
	xorl	%esi, %esi
	.loc 1 1937 24 view .LVU1983
	movq	%rax, %rdx
	.loc 1 1937 11 view .LVU1984
	xorl	%edi, %edi
	xorl	%eax, %eax
	call	error@PLT
.LVL750:
	.loc 1 1939 11 is_stmt 1 view .LVU1985
	.loc 1 1939 27 is_stmt 0 view .LVU1986
	movq	%rbx, bytes_per_block(%rip)
	movq	n_specs(%rip), %r11
.L531:
	.loc 1 1951 3 is_stmt 1 view .LVU1987
.LVL751:
	.loc 1 1951 15 view .LVU1988
	movq	spec(%rip), %rbx
	leaq	width_bytes(%rip), %r9
	.loc 1 1951 3 is_stmt 0 view .LVU1989
	testq	%r11, %r11
	je	.L538
.L533:
	.loc 1 1951 3 view .LVU1990
	imulq	$40, %r11, %r11
	leaq	4(%rbx), %rcx
.LBB780:
	.loc 1 1953 46 view .LVU1991
	movq	bytes_per_block(%rip), %r8
.LBE780:
	.loc 1 1577 10 view .LVU1992
	xorl	%edi, %edi
.LBB781:
	.loc 1 1953 64 view .LVU1993
	movq	%rcx, %rsi
	leaq	4(%rbx,%r11), %r10
.LVL752:
	.p2align 4,,10
	.p2align 3
.L536:
	.loc 1 1953 7 is_stmt 1 view .LVU1994
	.loc 1 1954 7 view .LVU1995
	.loc 1 1955 7 view .LVU1996
	.loc 1 1953 59 is_stmt 0 view .LVU1997
	movl	(%rsi), %eax
	.loc 1 1953 46 view .LVU1998
	xorl	%edx, %edx
	.loc 1 1954 46 view .LVU1999
	movl	24(%rsi), %ebx
	.loc 1 1953 59 view .LVU2000
	movslq	(%r9,%rax,4), %r11
	.loc 1 1953 46 view .LVU2001
	movq	%r8, %rax
	divq	%r11
	.loc 1 1954 46 view .LVU2002
	leal	1(%rbx), %edx
	.loc 1 1954 11 view .LVU2003
	imull	%eax, %edx
	.loc 1 1955 27 view .LVU2004
	movslq	%edx, %rax
	cmpq	%rax, %rdi
	cmovb	%rax, %rdi
.LVL753:
	.loc 1 1955 27 view .LVU2005
.LBE781:
	.loc 1 1951 28 is_stmt 1 view .LVU2006
	.loc 1 1951 15 view .LVU2007
	addq	$40, %rsi
.LVL754:
	.loc 1 1951 3 is_stmt 0 view .LVU2008
	cmpq	%rsi, %r10
	jne	.L536
.LVL755:
	.p2align 4,,10
	.p2align 3
.L537:
.LBB782:
	.loc 1 1960 7 is_stmt 1 discriminator 3 view .LVU2009
	.loc 1 1961 7 discriminator 3 view .LVU2010
	.loc 1 1962 7 discriminator 3 view .LVU2011
	.loc 1 1960 59 is_stmt 0 discriminator 3 view .LVU2012
	movl	(%rcx), %eax
	.loc 1 1960 46 discriminator 3 view .LVU2013
	xorl	%edx, %edx
	.loc 1 1962 43 discriminator 3 view .LVU2014
	movl	%edi, %ebx
	addq	$40, %rcx
.LVL756:
	.loc 1 1960 59 discriminator 3 view .LVU2015
	movslq	(%r9,%rax,4), %rsi
	.loc 1 1960 46 discriminator 3 view .LVU2016
	movq	%r8, %rax
	divq	%rsi
	.loc 1 1961 11 discriminator 3 view .LVU2017
	imull	-16(%rcx), %eax
	.loc 1 1962 43 discriminator 3 view .LVU2018
	subl	%eax, %ebx
	movl	%ebx, -12(%rcx)
.LBE782:
	.loc 1 1958 28 is_stmt 1 discriminator 3 view .LVU2019
	.loc 1 1958 15 discriminator 3 view .LVU2020
	.loc 1 1958 3 is_stmt 0 discriminator 3 view .LVU2021
	cmpq	%rcx, %r10
	jne	.L537
.LVL757:
.L538:
	.loc 1 1979 3 is_stmt 1 view .LVU2022
	.loc 1 1979 28 is_stmt 0 view .LVU2023
	movzbl	flag_dump_strings(%rip), %r12d
	.loc 1 1979 46 view .LVU2024
	testb	%r12b, %r12b
	je	.L675
.LBB783:
.LBI783:
	.loc 1 1458 1 is_stmt 1 view .LVU2025
.LBB784:
	.loc 1 1460 3 view .LVU2026
	.loc 1 1460 20 is_stmt 0 view .LVU2027
	cmpq	$100, string_min(%rip)
	movl	$100, %edi
	cmovnb	string_min(%rip), %rdi
	leaq	.L555(%rip), %r15
.LVL758:
	.loc 1 1460 10 view .LVU2028
	movq	%rdi, 40(%rsp)
	.loc 1 1461 3 is_stmt 1 view .LVU2029
	.loc 1 1461 15 is_stmt 0 view .LVU2030
	call	xmalloc@PLT
.LVL759:
	.loc 1 1462 13 view .LVU2031
	movq	n_bytes_to_skip(%rip), %rbx
	movq	string_min(%rip), %rsi
	.loc 1 1461 15 view .LVU2032
	movq	%rax, (%rsp)
.LVL760:
	.loc 1 1462 3 is_stmt 1 view .LVU2033
	.loc 1 1463 3 view .LVU2034
.LBB785:
.LBB786:
	.loc 1 1498 21 is_stmt 0 view .LVU2035
	leaq	40(%rsp), %rax
.LVL761:
	.loc 1 1498 21 view .LVU2036
	movq	%rax, 24(%rsp)
.LVL762:
.L539:
	.loc 1 1498 21 view .LVU2037
.LBE786:
.LBE785:
	.loc 1 1465 3 is_stmt 1 view .LVU2038
.LBB796:
	.loc 1 1467 7 view .LVU2039
	.loc 1 1468 7 view .LVU2040
	.loc 1 1473 7 view .LVU2041
	.loc 1 1473 10 is_stmt 0 view .LVU2042
	cmpb	$0, limit_bytes_to_format(%rip)
	movq	%rsi, %rbp
	je	.L540
	.loc 1 1474 26 view .LVU2043
	movq	end_offset(%rip), %rax
	.loc 1 1474 11 view .LVU2044
	cmpq	%rsi, %rax
	jb	.L541
	.loc 1 1474 53 view .LVU2045
	subq	%rsi, %rax
	.loc 1 1474 39 view .LVU2046
	cmpq	%rbx, %rax
	jbe	.L541
.L540:
.LVL763:
	.loc 1 1477 19 is_stmt 1 view .LVU2047
	.loc 1 1477 7 is_stmt 0 view .LVU2048
	testq	%rsi, %rsi
	je	.L547
	leaq	1(%rbx), %rax
	xorl	%ebp, %ebp
	movq	%rax, 8(%rsp)
	jmp	.L546
.LVL764:
	.p2align 4,,10
	.p2align 3
.L543:
	.loc 1 1486 11 is_stmt 1 view .LVU2049
	.loc 1 1486 17 is_stmt 0 view .LVU2050
	call	__ctype_b_loc@PLT
.LVL765:
	movq	string_min(%rip), %rsi
	movq	%rax, %r8
	movslq	%r13d, %rax
	movq	(%r8), %rdi
	.loc 1 1486 14 view .LVU2051
	testb	$64, 1(%rdi,%rax,2)
	je	.L539
	.loc 1 1489 11 is_stmt 1 view .LVU2052
	.loc 1 1489 18 is_stmt 0 view .LVU2053
	movq	(%rsp), %rax
	movb	%r13b, (%rax,%rbp)
	.loc 1 1477 35 is_stmt 1 view .LVU2054
	.loc 1 1477 36 is_stmt 0 view .LVU2055
	addq	$1, %rbp
.LVL766:
	.loc 1 1477 19 is_stmt 1 view .LVU2056
	.loc 1 1477 7 is_stmt 0 view .LVU2057
	cmpq	%rsi, %rbp
	jnb	.L547
.LVL767:
.L546:
	.loc 1 1479 11 is_stmt 1 view .LVU2058
	.loc 1 1479 17 is_stmt 0 view .LVU2059
	movq	%r14, %rdi
	call	read_char
.LVL768:
	.loc 1 1481 17 view .LVU2060
	movl	32(%rsp), %r13d
	andl	%eax, %r12d
.LVL769:
	.loc 1 1480 11 is_stmt 1 view .LVU2061
	movq	8(%rsp), %rax
	leaq	(%rax,%rbp), %rbx
.LVL770:
	.loc 1 1481 11 view .LVU2062
	.loc 1 1481 14 is_stmt 0 view .LVU2063
	testl	%r13d, %r13d
	jns	.L543
.L660:
	.loc 1 1504 15 is_stmt 1 view .LVU2064
	movq	(%rsp), %rdi
	call	free@PLT
.LVL771:
	.loc 1 1505 15 view .LVU2065
.L567:
	.loc 1 1505 15 is_stmt 0 view .LVU2066
.LBE796:
.LBE784:
.LBE783:
	.loc 1 1979 46 view .LVU2067
	movzbl	%r12b, %r12d
.L568:
	.loc 1 1979 6 discriminator 4 view .LVU2068
	andl	20(%rsp), %r12d
	andl	$1, %r12d
.LVL772:
.L524:
	.loc 1 1983 3 is_stmt 1 view .LVU2069
	.loc 1 1983 6 is_stmt 0 view .LVU2070
	cmpb	$0, have_read_stdin(%rip)
	jne	.L676
.L584:
	.loc 1 1986 3 is_stmt 1 view .LVU2071
	.loc 1 1986 28 is_stmt 0 view .LVU2072
	xorl	$1, %r12d
.LVL773:
	.loc 1 1986 28 view .LVU2073
	movzbl	%r12b, %eax
.L453:
	.loc 1 1987 1 view .LVU2074
	movq	72(%rsp), %rbx
	xorq	%fs:40, %rbx
	jne	.L677
	addq	$88, %rsp
	.cfi_remember_state
	.cfi_def_cfa_offset 56
	popq	%rbx
	.cfi_def_cfa_offset 48
	popq	%rbp
	.cfi_def_cfa_offset 40
	popq	%r12
	.cfi_def_cfa_offset 32
	popq	%r13
	.cfi_def_cfa_offset 24
	popq	%r14
	.cfi_def_cfa_offset 16
	popq	%r15
	.cfi_def_cfa_offset 8
	ret
.LVL774:
.L597:
	.cfi_restore_state
	.loc 1 1794 12 view .LVU2075
	movl	$1, %eax
.LVL775:
	.loc 1 1794 12 view .LVU2076
	jmp	.L453
.LVL776:
.L674:
	.loc 1 1898 5 is_stmt 1 view .LVU2077
.LBB806:
.LBI806:
	.loc 1 982 1 view .LVU2078
.LBB807:
	.loc 1 984 3 view .LVU2079
	.loc 1 985 3 view .LVU2080
	leaq	.LC102(%rip), %rdi
	call	decode_format_string.part.0
.LVL777:
	jmp	.L522
.LVL778:
.L676:
	.loc 1 985 3 is_stmt 0 view .LVU2081
.LBE807:
.LBE806:
	.loc 1 1983 26 discriminator 1 view .LVU2082
	movq	stdin(%rip), %rdi
	call	rpl_fclose@PLT
.LVL779:
	.loc 1 1983 23 discriminator 1 view .LVU2083
	addl	$1, %eax
	jne	.L584
.LBB808:
	.loc 1 1984 5 is_stmt 1 view .LVU2084
	movl	$5, %edx
	leaq	.LC18(%rip), %rsi
	xorl	%edi, %edi
	call	dcgettext@PLT
.LVL780:
	movq	%rax, %r12
.LVL781:
	.loc 1 1984 5 is_stmt 0 view .LVU2085
	call	__errno_location@PLT
.LVL782:
	movq	%r12, %rdx
	movl	$1, %edi
	movl	(%rax), %esi
	xorl	%eax, %eax
	call	error@PLT
.LVL783:
.L529:
	.loc 1 1984 5 view .LVU2086
.LBE808:
	.loc 1 1944 7 is_stmt 1 view .LVU2087
	.loc 1 1944 10 is_stmt 0 view .LVU2088
	cmpl	$15, %r8d
	jle	.L587
	.loc 1 1947 9 is_stmt 1 view .LVU2089
	.loc 1 1947 25 is_stmt 0 view .LVU2090
	movslq	%r8d, %r8
	.loc 1 1947 25 view .LVU2091
	movq	%r8, bytes_per_block(%rip)
	.loc 1 1951 3 is_stmt 1 view .LVU2092
.LVL784:
	.loc 1 1951 15 view .LVU2093
	jmp	.L533
.LVL785:
.L678:
.LBB809:
.LBB801:
.LBB797:
.LBB787:
	.loc 1 1498 15 view .LVU2094
	.loc 1 1498 21 is_stmt 0 view .LVU2095
	movq	24(%rsp), %rsi
	movq	(%rsp), %rdi
	call	x2realloc@PLT
.LVL786:
	movq	%rax, (%rsp)
.LVL787:
.L548:
	.loc 1 1498 21 view .LVU2096
.LBE787:
	.loc 1 1500 11 is_stmt 1 view .LVU2097
	.loc 1 1500 17 is_stmt 0 view .LVU2098
	movq	%r14, %rdi
	.loc 1 1501 18 view .LVU2099
	addq	$1, %rbx
.LVL788:
	.loc 1 1500 17 view .LVU2100
	call	read_char
.LVL789:
	.loc 1 1502 17 view .LVU2101
	movl	32(%rsp), %r13d
	andl	%eax, %r12d
.LVL790:
	.loc 1 1501 11 is_stmt 1 view .LVU2102
	.loc 1 1502 11 view .LVU2103
	.loc 1 1502 14 is_stmt 0 view .LVU2104
	testl	%r13d, %r13d
	js	.L660
	.loc 1 1507 11 is_stmt 1 view .LVU2105
	.loc 1 1507 14 is_stmt 0 view .LVU2106
	je	.L550
	.loc 1 1509 11 is_stmt 1 view .LVU2107
	.loc 1 1509 17 is_stmt 0 view .LVU2108
	call	__ctype_b_loc@PLT
.LVL791:
	movq	%rax, %r8
	movslq	%r13d, %rax
	movq	(%r8), %rcx
	.loc 1 1509 14 view .LVU2109
	testb	$64, 1(%rcx,%rax,2)
	je	.L659
	.loc 1 1511 11 is_stmt 1 view .LVU2110
.LVL792:
	.loc 1 1511 20 is_stmt 0 view .LVU2111
	movq	(%rsp), %rax
	movb	%r13b, (%rax,%rbp)
	.loc 1 1511 16 view .LVU2112
	addq	$1, %rbp
.LVL793:
.L547:
	.loc 1 1494 13 is_stmt 1 view .LVU2113
	cmpb	$0, limit_bytes_to_format(%rip)
	je	.L551
	.loc 1 1494 37 is_stmt 0 view .LVU2114
	cmpq	end_offset(%rip), %rbx
	jnb	.L550
.L551:
	.loc 1 1496 11 is_stmt 1 view .LVU2115
	.loc 1 1496 14 is_stmt 0 view .LVU2116
	cmpq	%rbp, 40(%rsp)
	jne	.L548
	jmp	.L678
.LVL794:
.L587:
	.loc 1 1496 14 view .LVU2117
.LBE797:
.LBE801:
.LBE809:
	.loc 1 1945 9 is_stmt 1 view .LVU2118
	.loc 1 1945 60 is_stmt 0 view .LVU2119
	movl	$16, %eax
	cltd
	idivl	%r8d
	.loc 1 1945 33 view .LVU2120
	imull	%r8d, %eax
	cltq
	movq	%rax, bytes_per_block(%rip)
	jmp	.L531
.LVL795:
.L589:
.LBB810:
	.loc 1 1856 18 view .LVU2121
	movq	8(%r12,%rax,8), %rdi
	movq	%r14, %rsi
	call	parse_old_offset
.LVL796:
	.loc 1 1856 15 view .LVU2122
	testb	%al, %al
	jne	.L514
.L515:
.LBE810:
	.loc 1 1794 12 view .LVU2123
	movl	$3, %r13d
.LVL797:
.L512:
.LBB811:
	.loc 1 1869 7 is_stmt 1 view .LVU2124
	.loc 1 1869 10 is_stmt 0 view .LVU2125
	cmpb	$0, traditional(%rip)
	je	.L599
	movslq	optind(%rip), %rax
	jmp	.L585
.L588:
	.loc 1 1832 11 is_stmt 1 view .LVU2126
	movq	8(%r12,%rax,8), %rdi
.L510:
	.loc 1 1834 18 is_stmt 0 view .LVU2127
	leaq	40(%rsp), %rbx
	movq	%rbx, %rsi
	call	parse_old_offset
.LVL798:
	.loc 1 1834 15 view .LVU2128
	testb	%al, %al
	je	.L598
	.loc 1 1836 15 is_stmt 1 view .LVU2129
	.loc 1 1836 18 is_stmt 0 view .LVU2130
	cmpb	$0, traditional(%rip)
	jne	.L679
.L513:
	.loc 1 1846 19 is_stmt 1 view .LVU2131
	.loc 1 1846 35 is_stmt 0 view .LVU2132
	movq	40(%rsp), %rax
.LBE811:
	.loc 1 1582 13 view .LVU2133
	xorl	%ebx, %ebx
.LBB812:
	.loc 1 1847 19 view .LVU2134
	movl	$1, %r13d
.LVL799:
	.loc 1 1846 35 view .LVU2135
	movq	%rax, n_bytes_to_skip(%rip)
	.loc 1 1847 19 is_stmt 1 view .LVU2136
.LVL800:
	.loc 1 1848 19 view .LVU2137
	.loc 1 1848 42 is_stmt 0 view .LVU2138
	movslq	optind(%rip), %rax
	movq	(%r12,%rax,8), %rdx
	.loc 1 1848 36 view .LVU2139
	movq	%rdx, 8(%r12,%rax,8)
	.loc 1 1849 19 is_stmt 1 view .LVU2140
	addq	$8, %r12
.LVL801:
	.loc 1 1849 19 is_stmt 0 view .LVU2141
	jmp	.L503
.LVL802:
.L675:
	.loc 1 1849 19 view .LVU2142
.LBE812:
.LBB813:
.LBI813:
	.loc 1 1375 1 is_stmt 1 view .LVU2143
.LBB814:
	.loc 1 1377 3 view .LVU2144
	.loc 1 1378 3 view .LVU2145
	.loc 1 1379 3 view .LVU2146
	.loc 1 1380 3 view .LVU2147
	.loc 1 1381 3 view .LVU2148
	.loc 1 1383 3 view .LVU2149
	.loc 1 1383 14 is_stmt 0 view .LVU2150
	movq	bytes_per_block(%rip), %rdi
.LVL803:
.LBB815:
.LBI815:
	.loc 6 99 1 is_stmt 1 view .LVU2151
.LBB816:
	.loc 6 101 3 view .LVU2152
	.loc 6 101 7 is_stmt 0 view .LVU2153
	movl	$2, %eax
	mulq	%rdi
	seto	%dl
	movzbl	%dl, %edx
	testq	%rax, %rax
	js	.L654
	.loc 6 101 6 view .LVU2154
	testq	%rdx, %rdx
	jne	.L654
	.loc 6 103 3 is_stmt 1 view .LVU2155
	.loc 6 103 10 is_stmt 0 view .LVU2156
	addq	%rdi, %rdi
.LVL804:
	.loc 6 103 10 view .LVU2157
.LBE816:
.LBE815:
.LBB820:
	.loc 1 1400 17 view .LVU2158
	leaq	40(%rsp), %rbx
.LBE820:
.LBB821:
.LBB817:
	.loc 6 103 10 view .LVU2159
	call	xmalloc@PLT
.LVL805:
	.loc 6 103 10 view .LVU2160
.LBE817:
.LBE821:
	.loc 1 1384 23 view .LVU2161
	movq	bytes_per_block(%rip), %rdi
	.loc 1 1388 7 view .LVU2162
	movzbl	limit_bytes_to_format(%rip), %r13d
.LVL806:
.LBB822:
.LBB818:
	.loc 6 103 10 view .LVU2163
	movq	%rax, (%rsp)
.LVL807:
	.loc 6 103 10 view .LVU2164
.LBE818:
.LBE822:
	.loc 1 1386 18 view .LVU2165
	movq	n_bytes_to_skip(%rip), %r15
.LVL808:
	.loc 1 1383 12 view .LVU2166
	movq	%rax, 48(%rsp)
	.loc 1 1384 3 is_stmt 1 view .LVU2167
	.loc 1 1384 23 is_stmt 0 view .LVU2168
	addq	%rdi, %rax
	.loc 1 1384 12 view .LVU2169
	movq	%rax, 56(%rsp)
	.loc 1 1386 3 is_stmt 1 view .LVU2170
.LVL809:
	.loc 1 1388 3 view .LVU2171
	.loc 1 1388 6 is_stmt 0 view .LVU2172
	testb	%r13b, %r13b
	jne	.L578
	xorl	%r14d, %r14d
	movl	%ebp, %r13d
	jmp	.L573
.LVL810:
.L681:
	.loc 1 1417 11 is_stmt 1 view .LVU2173
	jne	.L680
	.loc 1 1418 11 view .LVU2174
.LVL811:
	.loc 1 1419 30 is_stmt 0 view .LVU2175
	xorl	$1, %r12d
.LVL812:
	.loc 1 1418 11 view .LVU2176
	movq	%r15, %rdi
	movq	%rbp, %rcx
	.loc 1 1419 29 view .LVU2177
	movzbl	%r12b, %eax
	.loc 1 1419 30 view .LVU2178
	movzbl	%r12b, %r14d
	.loc 1 1418 11 view .LVU2179
	movq	48(%rsp,%rax,8), %rdx
	call	write_block
.LVL813:
	.loc 1 1420 11 is_stmt 1 view .LVU2180
	movq	bytes_per_block(%rip), %rdi
	.loc 1 1420 26 is_stmt 0 view .LVU2181
	addq	40(%rsp), %r15
.LVL814:
	.loc 1 1421 11 is_stmt 1 view .LVU2182
	.loc 1 1412 13 view .LVU2183
.L573:
	.loc 1 1412 7 view .LVU2184
	.loc 1 1414 11 view .LVU2185
	.loc 1 1414 17 is_stmt 0 view .LVU2186
	movslq	%r14d, %rax
	movq	%rbx, %rdx
	movq	48(%rsp,%rax,8), %rbp
	movq	%rbp, %rsi
	call	read_block
.LVL815:
	.loc 1 1415 28 view .LVU2187
	movq	40(%rsp), %rsi
	andl	%eax, %r13d
.LVL816:
	.loc 1 1415 11 is_stmt 1 view .LVU2188
	.loc 1 1415 14 is_stmt 0 view .LVU2189
	cmpq	bytes_per_block(%rip), %rsi
	jnb	.L681
.L657:
	.loc 1 1415 14 view .LVU2190
	movq	%rsi, %rbp
	.loc 1 1425 3 is_stmt 1 view .LVU2191
	.loc 1 1425 6 is_stmt 0 view .LVU2192
	testq	%rsi, %rsi
	je	.L575
.LBB823:
.LBB824:
.LBB825:
.LBB826:
	.loc 1 1326 24 view .LVU2193
	movq	n_specs(%rip), %r8
	.loc 1 1327 41 view .LVU2194
	movq	spec(%rip), %r11
	.loc 1 1326 15 view .LVU2195
	xorl	%r9d, %r9d
.LBE826:
	.loc 1 1324 7 view .LVU2196
	movl	$1, %edi
.LBB837:
	.loc 1 1327 36 view .LVU2197
	leaq	width_bytes(%rip), %r10
.L580:
.LVL817:
	.loc 1 1326 22 is_stmt 1 view .LVU2198
	movslq	%edi, %rdi
	.loc 1 1326 3 is_stmt 0 view .LVU2199
	cmpq	%r8, %r9
	je	.L682
	.loc 1 1327 5 is_stmt 1 view .LVU2200
	.loc 1 1327 44 is_stmt 0 view .LVU2201
	imulq	$40, %r9, %rax
	.loc 1 1327 36 view .LVU2202
	movl	4(%r11,%rax), %eax
	.loc 1 1327 13 view .LVU2203
	movslq	(%r10,%rax,4), %rsi
.LVL818:
.LBB827:
.LBI827:
	.loc 5 490 1 is_stmt 1 view .LVU2204
.LBB828:
	.loc 5 492 3 view .LVU2205
.LBB829:
.LBI829:
	.loc 5 472 1 view .LVU2206
.LBE829:
.LBE828:
.LBE827:
	.loc 1 1327 13 is_stmt 0 view .LVU2207
	movq	%rdi, %rax
	movq	%rsi, %rdx
.LVL819:
	.p2align 4,,10
	.p2align 3
.L581:
.LBB835:
.LBB833:
.LBB832:
.LBB830:
	.loc 5 474 3 is_stmt 1 view .LVU2208
.LBB831:
	.loc 5 476 7 view .LVU2209
	movq	%rdx, %rcx
	.loc 5 476 14 is_stmt 0 view .LVU2210
	xorl	%edx, %edx
.LVL820:
	.loc 5 476 14 view .LVU2211
	divq	%rcx
.LVL821:
	.loc 5 477 7 is_stmt 1 view .LVU2212
	.loc 5 478 7 view .LVU2213
	.loc 5 478 7 is_stmt 0 view .LVU2214
.LBE831:
	.loc 5 480 9 is_stmt 1 view .LVU2215
	movq	%rcx, %rax
	.loc 5 480 3 is_stmt 0 view .LVU2216
	testq	%rdx, %rdx
	jne	.L581
	.loc 5 482 3 is_stmt 1 view .LVU2217
.LVL822:
	.loc 5 482 3 is_stmt 0 view .LVU2218
.LBE830:
.LBE832:
	.loc 5 492 17 view .LVU2219
	movq	%rsi, %rax
	xorl	%edx, %edx
.LBE833:
.LBE835:
	.loc 1 1326 36 view .LVU2220
	addq	$1, %r9
.LVL823:
.LBB836:
.LBB834:
	.loc 5 492 17 view .LVU2221
	divq	%rcx
.LVL824:
	.loc 5 492 17 view .LVU2222
.LBE834:
.LBE836:
	.loc 1 1327 11 view .LVU2223
	imull	%eax, %edi
.LVL825:
	.loc 1 1326 35 is_stmt 1 view .LVU2224
	.loc 1 1326 35 is_stmt 0 view .LVU2225
	jmp	.L580
.LVL826:
.L574:
	.loc 1 1326 35 view .LVU2226
.LBE837:
.LBE825:
.LBE824:
.LBE823:
.LBB844:
	.loc 1 1398 11 is_stmt 1 view .LVU2227
	.loc 1 1400 11 view .LVU2228
	.loc 1 1400 17 is_stmt 0 view .LVU2229
	movzbl	%r12b, %eax
	.loc 1 1398 22 view .LVU2230
	subq	%r15, %rdi
.LVL827:
	.loc 1 1400 17 view .LVU2231
	movq	%rbx, %rdx
	movzbl	%r12b, %r14d
	movq	48(%rsp,%rax,8), %rbp
	.loc 1 1398 20 view .LVU2232
	movq	bytes_per_block(%rip), %rax
	cmpq	%rax, %rdi
	.loc 1 1400 17 view .LVU2233
	movq	%rbp, %rsi
	.loc 1 1398 20 view .LVU2234
	cmova	%rax, %rdi
	.loc 1 1400 17 view .LVU2235
	call	read_block
.LVL828:
	.loc 1 1401 28 view .LVU2236
	movq	40(%rsp), %rsi
	andl	%eax, %r13d
.LVL829:
	.loc 1 1401 11 is_stmt 1 view .LVU2237
	.loc 1 1401 14 is_stmt 0 view .LVU2238
	cmpq	bytes_per_block(%rip), %rsi
	jb	.L657
	.loc 1 1403 11 is_stmt 1 view .LVU2239
	jne	.L683
	.loc 1 1404 11 view .LVU2240
.LVL830:
	.loc 1 1405 30 is_stmt 0 view .LVU2241
	xorl	$1, %r12d
.LVL831:
	.loc 1 1404 11 view .LVU2242
	movq	%r15, %rdi
	movq	%rbp, %rcx
	.loc 1 1405 29 view .LVU2243
	movzbl	%r12b, %eax
	.loc 1 1404 11 view .LVU2244
	movq	48(%rsp,%rax,8), %rdx
	call	write_block
.LVL832:
	.loc 1 1406 11 is_stmt 1 view .LVU2245
	.loc 1 1406 26 is_stmt 0 view .LVU2246
	addq	40(%rsp), %r15
.LVL833:
	.loc 1 1407 11 is_stmt 1 view .LVU2247
	.loc 1 1407 11 is_stmt 0 view .LVU2248
.LBE844:
	.loc 1 1390 13 is_stmt 1 view .LVU2249
.L578:
	.loc 1 1390 7 view .LVU2250
.LBB845:
	.loc 1 1392 11 view .LVU2251
	.loc 1 1393 11 view .LVU2252
	.loc 1 1393 30 is_stmt 0 view .LVU2253
	movq	end_offset(%rip), %rdi
	.loc 1 1393 14 view .LVU2254
	cmpq	%r15, %rdi
	ja	.L574
	.loc 1 1395 15 is_stmt 1 view .LVU2255
	.loc 1 1395 28 is_stmt 0 view .LVU2256
	movq	$0, 40(%rsp)
	.loc 1 1396 15 is_stmt 1 view .LVU2257
	.loc 1 1396 15 is_stmt 0 view .LVU2258
.LBE845:
	.loc 1 1425 3 is_stmt 1 view .LVU2259
.LVL834:
.L575:
	.loc 1 1441 3 view .LVU2260
	movl	$10, %esi
	movq	%r15, %rdi
	call	*format_address(%rip)
.LVL835:
	.loc 1 1443 3 view .LVU2261
	.loc 1 1443 6 is_stmt 0 view .LVU2262
	cmpb	$0, limit_bytes_to_format(%rip)
	je	.L583
	.loc 1 1443 29 view .LVU2263
	cmpq	end_offset(%rip), %r15
	jnb	.L684
.L583:
	.loc 1 1446 3 is_stmt 1 view .LVU2264
	movq	(%rsp), %rdi
.LBE814:
.LBE813:
	.loc 1 1979 46 is_stmt 0 view .LVU2265
	movzbl	%r13b, %r12d
.LBB854:
.LBB849:
	.loc 1 1446 3 view .LVU2266
	call	free@PLT
.LVL836:
	.loc 1 1448 3 is_stmt 1 view .LVU2267
	.loc 1 1448 3 is_stmt 0 view .LVU2268
	jmp	.L568
.LVL837:
.L672:
	.loc 1 1448 3 view .LVU2269
.LBE849:
.LBE854:
	.loc 1 1882 11 is_stmt 1 view .LVU2270
	.loc 1 1884 26 is_stmt 0 view .LVU2271
	leaq	format_address_paren(%rip), %rax
	.loc 1 1882 24 view .LVU2272
	movl	$8, address_base(%rip)
	.loc 1 1883 11 is_stmt 1 view .LVU2273
	.loc 1 1883 27 is_stmt 0 view .LVU2274
	movl	$7, address_pad_len(%rip)
	.loc 1 1884 11 is_stmt 1 view .LVU2275
	.loc 1 1884 26 is_stmt 0 view .LVU2276
	movq	%rax, format_address(%rip)
	jmp	.L517
.LVL838:
.L682:
.LBB855:
.LBB850:
.LBB846:
.LBB839:
.LBB838:
	.loc 1 1328 3 is_stmt 1 view .LVU2277
	.loc 1 1328 3 is_stmt 0 view .LVU2278
.LBE838:
.LBE839:
	.loc 1 1434 7 is_stmt 1 view .LVU2279
	.loc 1 1436 7 view .LVU2280
	.loc 1 1434 55 is_stmt 0 view .LVU2281
	leaq	-1(%rdi,%rbp), %rax
	.loc 1 1434 60 view .LVU2282
	xorl	%edx, %edx
	.loc 1 1436 20 view .LVU2283
	movq	48(%rsp,%r14,8), %r14
.LVL839:
.LBB840:
.LBI840:
	.file 7 "/usr/include/x86_64-linux-gnu/bits/string_fortified.h"
	.loc 7 59 1 is_stmt 1 view .LVU2284
.LBB841:
	.loc 7 71 3 view .LVU2285
	.loc 7 71 10 is_stmt 0 view .LVU2286
	xorl	%esi, %esi
.LBE841:
.LBE840:
	.loc 1 1434 60 view .LVU2287
	divq	%rdi
	.loc 1 1434 22 view .LVU2288
	imulq	%rdi, %rax
.LVL840:
	.loc 1 1436 26 view .LVU2289
	leaq	(%r14,%rbp), %rdi
.LVL841:
	.loc 1 1436 7 view .LVU2290
	subq	%rbp, %rax
.LVL842:
	.loc 1 1436 7 view .LVU2291
	movq	%rax, %rdx
.LBB843:
.LBB842:
	.loc 7 71 10 view .LVU2292
	call	memset@PLT
.LVL843:
	.loc 7 71 10 view .LVU2293
.LBE842:
.LBE843:
	.loc 1 1437 7 is_stmt 1 view .LVU2294
	.loc 1 1437 56 is_stmt 0 view .LVU2295
	movl	%r12d, %eax
	.loc 1 1437 7 view .LVU2296
	movq	%r15, %rdi
	movq	%r14, %rcx
	.loc 1 1437 56 view .LVU2297
	xorl	$1, %eax
	.loc 1 1437 7 view .LVU2298
	movq	%rbp, %rsi
	.loc 1 1437 55 view .LVU2299
	movzbl	%al, %eax
	.loc 1 1437 7 view .LVU2300
	movq	48(%rsp,%rax,8), %rdx
	call	write_block
.LVL844:
	.loc 1 1438 7 is_stmt 1 view .LVU2301
	.loc 1 1438 22 is_stmt 0 view .LVU2302
	addq	40(%rsp), %r15
.LVL845:
	.loc 1 1438 22 view .LVU2303
	jmp	.L575
.LVL846:
.L686:
	.loc 1 1438 22 view .LVU2304
.LBE846:
.LBE850:
.LBE855:
.LBB856:
.LBB802:
.LBB798:
	.loc 1 1555 7 is_stmt 1 view .LVU2305
.LBB788:
.LBI788:
	.loc 3 108 1 view .LVU2306
.LBB789:
	.loc 3 110 3 view .LVU2307
	.loc 3 110 10 is_stmt 0 view .LVU2308
	movq	40(%rcx), %rax
	cmpq	48(%rcx), %rax
	jnb	.L685
	leaq	1(%rax), %rdx
	movq	%rdx, 40(%rcx)
	movb	$10, (%rax)
.LVL847:
.L659:
	.loc 3 110 10 view .LVU2309
.LBE789:
.LBE788:
.LBE798:
	.loc 1 1465 9 is_stmt 1 view .LVU2310
	movq	string_min(%rip), %rsi
	.loc 1 1466 5 is_stmt 0 view .LVU2311
	jmp	.L539
.LVL848:
.L671:
	.loc 1 1466 5 view .LVU2312
.LBE802:
.LBE856:
.LBB857:
	.loc 1 1822 11 is_stmt 1 view .LVU2313
	movq	(%r12,%rax,8), %rdi
	.loc 1 1822 14 is_stmt 0 view .LVU2314
	testb	%dl, %dl
	jne	.L507
	.loc 1 1822 28 discriminator 1 view .LVU2315
	cmpb	$43, (%rdi)
	je	.L507
.L508:
	.loc 1 1822 28 discriminator 1 view .LVU2316
.LBE857:
	.loc 1 1582 13 view .LVU2317
	xorl	%ebx, %ebx
	movl	$1, %r13d
.LVL849:
.LBB858:
	.loc 1 1869 7 is_stmt 1 view .LVU2318
	jmp	.L503
.LVL850:
.L504:
	.loc 1 1832 11 view .LVU2319
	movq	8(%r12,%rax,8), %rdi
	.loc 1 1832 14 is_stmt 0 view .LVU2320
	testb	%dl, %dl
	jne	.L510
	.loc 1 1832 47 discriminator 1 view .LVU2321
	movsbl	(%rdi), %eax
	.loc 1 1832 28 discriminator 1 view .LVU2322
	cmpb	$43, %al
	je	.L510
	.loc 1 1833 19 view .LVU2323
	subl	$48, %eax
	.loc 1 1833 16 view .LVU2324
	cmpl	$9, %eax
	ja	.L599
	jmp	.L510
.LVL851:
.L550:
	.loc 1 1833 16 view .LVU2325
.LBE858:
.LBB859:
.LBB803:
.LBB799:
	.loc 1 1516 7 is_stmt 1 view .LVU2326
	.loc 1 1516 14 is_stmt 0 view .LVU2327
	movq	(%rsp), %r13
	.loc 1 1517 7 view .LVU2328
	movq	%rbp, %rdx
	movl	$32, %esi
	notq	%rdx
	.loc 1 1516 14 view .LVU2329
	movb	$0, 0(%r13,%rbp)
	.loc 1 1517 7 is_stmt 1 view .LVU2330
	leaq	(%rdx,%rbx), %rdi
	call	*format_address(%rip)
.LVL852:
	.loc 1 1519 7 view .LVU2331
.L552:
	.loc 1 1519 19 view .LVU2332
	.loc 1 1519 27 is_stmt 0 view .LVU2333
	movzbl	0(%r13), %edx
	movq	stdout(%rip), %rcx
	movsbl	%dl, %eax
	.loc 1 1519 22 view .LVU2334
	movl	%eax, 32(%rsp)
	.loc 1 1519 7 view .LVU2335
	testl	%eax, %eax
	je	.L686
	.loc 1 1521 11 is_stmt 1 view .LVU2336
	leal	-7(%rdx), %eax
	cmpb	$6, %al
	ja	.L553
	movzbl	%al, %eax
	.loc 1 1540 15 is_stmt 0 view .LVU2337
	movl	$2, %edx
	movl	$1, %esi
	movslq	(%r15,%rax,4), %rax
	addq	%r15, %rax
	notrack jmp	*%rax
	.section	.rodata
	.align 4
	.align 4
.L555:
	.long	.L561-.L555
	.long	.L560-.L555
	.long	.L559-.L555
	.long	.L558-.L555
	.long	.L557-.L555
	.long	.L556-.L555
	.long	.L554-.L555
	.section	.text.startup
.L556:
	.loc 1 1532 15 is_stmt 1 view .LVU2338
	leaq	.LC9(%rip), %rdi
	call	fwrite_unlocked@PLT
.LVL853:
	.loc 1 1533 15 view .LVU2339
.L562:
	.loc 1 1519 33 view .LVU2340
	.loc 1 1519 33 is_stmt 0 view .LVU2341
	addq	$1, %r13
.LVL854:
	.loc 1 1519 33 view .LVU2342
	jmp	.L552
.L557:
	.loc 1 1548 15 is_stmt 1 view .LVU2343
	leaq	.LC13(%rip), %rdi
	call	fwrite_unlocked@PLT
.LVL855:
	.loc 1 1549 15 view .LVU2344
	jmp	.L562
.L558:
	.loc 1 1536 15 view .LVU2345
	leaq	.LC10(%rip), %rdi
	call	fwrite_unlocked@PLT
.LVL856:
	.loc 1 1537 15 view .LVU2346
	jmp	.L562
.L559:
	.loc 1 1544 15 view .LVU2347
	leaq	.LC12(%rip), %rdi
	call	fwrite_unlocked@PLT
.LVL857:
	.loc 1 1545 15 view .LVU2348
	jmp	.L562
.L560:
	.loc 1 1528 15 view .LVU2349
	leaq	.LC8(%rip), %rdi
	call	fwrite_unlocked@PLT
.LVL858:
	.loc 1 1529 15 view .LVU2350
	jmp	.L562
.L561:
	.loc 1 1524 15 view .LVU2351
	leaq	.LC14(%rip), %rdi
	call	fwrite_unlocked@PLT
.LVL859:
	.loc 1 1525 15 view .LVU2352
	jmp	.L562
.L554:
	.loc 1 1540 15 view .LVU2353
	leaq	.LC11(%rip), %rdi
	call	fwrite_unlocked@PLT
.LVL860:
	.loc 1 1541 15 view .LVU2354
	jmp	.L562
.L553:
	.loc 1 1552 15 view .LVU2355
.LVL861:
.LBB791:
.LBI791:
	.loc 3 101 1 view .LVU2356
.LBB792:
	.loc 3 103 3 view .LVU2357
	.loc 3 103 10 is_stmt 0 view .LVU2358
	movq	40(%rcx), %rax
	cmpq	48(%rcx), %rax
	jnb	.L687
	leaq	1(%rax), %rsi
	movq	%rsi, 40(%rcx)
	movb	%dl, (%rax)
.LVL862:
	.loc 3 103 10 view .LVU2359
	jmp	.L562
.LVL863:
.L592:
	.loc 3 103 10 view .LVU2360
.LBE792:
.LBE791:
.LBE799:
.LBE803:
.LBE859:
	.loc 1 1934 9 is_stmt 1 view .LVU2361
	.loc 1 1934 25 is_stmt 0 view .LVU2362
	movq	(%rsp), %rax
	movq	%rax, bytes_per_block(%rip)
	jmp	.L531
.LVL864:
.L598:
.LBB860:
	.loc 1 1934 25 view .LVU2363
	movl	$2, %r13d
.LVL865:
	.loc 1 1934 25 view .LVU2364
	jmp	.L512
.LVL866:
.L526:
	.loc 1 1934 25 view .LVU2365
.LBE860:
.LBB861:
.LBB776:
	.loc 1 1328 3 is_stmt 1 view .LVU2366
	.loc 1 1328 3 is_stmt 0 view .LVU2367
.LBE776:
.LBE861:
	.loc 1 1931 3 is_stmt 1 view .LVU2368
	.loc 1 1931 6 is_stmt 0 view .LVU2369
	cmpb	$0, 8(%rsp)
.LBB862:
.LBB777:
	.loc 1 1324 7 view .LVU2370
	movl	$1, %r8d
.LBE777:
.LBE862:
	.loc 1 1931 6 view .LVU2371
	je	.L587
	.loc 1 1933 7 is_stmt 1 view .LVU2372
	.loc 1 1933 10 is_stmt 0 view .LVU2373
	cmpq	$0, (%rsp)
	jne	.L592
	movl	$1, %ebx
.LVL867:
.LBB863:
.LBB778:
	.loc 1 1324 7 view .LVU2374
	movl	$1, %r8d
	jmp	.L530
.LVL868:
.L684:
	.loc 1 1324 7 view .LVU2375
.LBE778:
.LBE863:
.LBB864:
.LBB851:
	.loc 1 1444 5 is_stmt 1 view .LVU2376
	.loc 1 1444 11 is_stmt 0 view .LVU2377
	xorl	%edi, %edi
	call	check_and_close
.LVL869:
	andl	%eax, %r13d
.LVL870:
	.loc 1 1444 11 view .LVU2378
	jmp	.L583
.LVL871:
.L679:
	.loc 1 1444 11 view .LVU2379
.LBE851:
.LBE864:
.LBB865:
	.loc 1 1836 34 discriminator 1 view .LVU2380
	movslq	optind(%rip), %rax
	movq	%r14, %rsi
	movq	(%r12,%rax,8), %rdi
	call	parse_old_offset
.LVL872:
	.loc 1 1836 31 discriminator 1 view .LVU2381
	testb	%al, %al
	je	.L513
	.loc 1 1838 19 is_stmt 1 view .LVU2382
	.loc 1 1838 35 is_stmt 0 view .LVU2383
	movq	32(%rsp), %rax
	.loc 1 1840 32 view .LVU2384
	movq	40(%rsp), %rbx
	.loc 1 1841 24 view .LVU2385
	addq	$16, %r12
.LVL873:
	.loc 1 1842 27 view .LVU2386
	xorl	%r13d, %r13d
.LVL874:
	.loc 1 1839 37 view .LVU2387
	movb	$1, flag_pseudo_start(%rip)
	.loc 1 1838 35 view .LVU2388
	movq	%rax, n_bytes_to_skip(%rip)
	.loc 1 1839 19 is_stmt 1 view .LVU2389
	.loc 1 1840 19 view .LVU2390
.LVL875:
	.loc 1 1841 19 view .LVU2391
	.loc 1 1842 19 view .LVU2392
	.loc 1 1842 27 is_stmt 0 view .LVU2393
	jmp	.L503
.LVL876:
.L541:
	.loc 1 1842 27 view .LVU2394
.LBE865:
.LBB866:
.LBB804:
	.loc 1 1561 3 is_stmt 1 view .LVU2395
	movq	(%rsp), %rdi
	call	free@PLT
.LVL877:
	.loc 1 1563 3 view .LVU2396
	.loc 1 1563 9 is_stmt 0 view .LVU2397
	xorl	%edi, %edi
	call	check_and_close
.LVL878:
	.loc 1 1563 9 view .LVU2398
	andl	%eax, %r12d
.LVL879:
	.loc 1 1564 3 is_stmt 1 view .LVU2399
	.loc 1 1564 10 is_stmt 0 view .LVU2400
	jmp	.L567
.LVL880:
.L514:
	.loc 1 1564 10 view .LVU2401
.LBE804:
.LBE866:
.LBB867:
	.loc 1 1857 40 view .LVU2402
	movslq	optind(%rip), %rax
	.loc 1 1857 18 view .LVU2403
	leaq	40(%rsp), %rbx
	movq	%rbx, %rsi
	movq	16(%r12,%rax,8), %rdi
	call	parse_old_offset
.LVL881:
	.loc 1 1857 15 view .LVU2404
	testb	%al, %al
	je	.L515
	.loc 1 1859 15 is_stmt 1 view .LVU2405
	.loc 1 1859 31 is_stmt 0 view .LVU2406
	movq	32(%rsp), %rax
	.loc 1 1860 33 view .LVU2407
	movb	$1, flag_pseudo_start(%rip)
	.loc 1 1864 23 view .LVU2408
	movl	$1, %r13d
.LVL882:
	.loc 1 1861 28 view .LVU2409
	movq	40(%rsp), %rbx
	.loc 1 1859 31 view .LVU2410
	movq	%rax, n_bytes_to_skip(%rip)
	.loc 1 1860 15 is_stmt 1 view .LVU2411
	.loc 1 1861 15 view .LVU2412
.LVL883:
	.loc 1 1862 15 view .LVU2413
	.loc 1 1862 38 is_stmt 0 view .LVU2414
	movslq	optind(%rip), %rax
	movq	(%r12,%rax,8), %rdx
	.loc 1 1862 32 view .LVU2415
	movq	%rdx, 16(%r12,%rax,8)
	.loc 1 1863 15 is_stmt 1 view .LVU2416
	.loc 1 1863 20 is_stmt 0 view .LVU2417
	addq	$16, %r12
.LVL884:
	.loc 1 1864 15 is_stmt 1 view .LVU2418
	.loc 1 1864 15 is_stmt 0 view .LVU2419
	jmp	.L503
.LVL885:
.L687:
	.loc 1 1864 15 view .LVU2420
.LBE867:
.LBB868:
.LBB805:
.LBB800:
.LBB794:
.LBB793:
	.loc 3 103 10 view .LVU2421
	movzbl	%dl, %esi
	movq	%rcx, %rdi
	call	__overflow@PLT
.LVL886:
	.loc 3 103 10 view .LVU2422
	jmp	.L562
.LVL887:
.L685:
	.loc 3 103 10 view .LVU2423
.LBE793:
.LBE794:
.LBB795:
.LBB790:
	.loc 3 110 10 view .LVU2424
	movl	$10, %esi
	movq	%rcx, %rdi
	call	__overflow@PLT
.LVL888:
	movq	string_min(%rip), %rsi
	jmp	.L539
.LVL889:
.L665:
	.loc 3 110 10 view .LVU2425
.LBE790:
.LBE795:
.LBE800:
.LBE805:
.LBE868:
.LBB869:
	.loc 1 1671 13 is_stmt 1 view .LVU2426
	movq	optarg(%rip), %r8
	movl	32(%rsp), %esi
	movl	$106, %edx
	movl	%eax, %edi
	leaq	long_options(%rip), %rcx
	call	xstrtol_fatal@PLT
.LVL890:
.L669:
	.loc 1 1671 13 is_stmt 0 view .LVU2427
.LBE869:
.LBB870:
	.loc 1 1797 5 is_stmt 1 view .LVU2428
	movl	$5, %edx
	leaq	.LC98(%rip), %rsi
	xorl	%edi, %edi
	call	dcgettext@PLT
.LVL891:
	.loc 1 1797 5 is_stmt 0 view .LVU2429
	xorl	%esi, %esi
	movl	$1, %edi
	movq	%rax, %rdx
	xorl	%eax, %eax
	call	error@PLT
.LVL892:
.L489:
	.loc 1 1797 5 view .LVU2430
.LBE870:
.LBB871:
.LBB752:
	.loc 1 1659 15 is_stmt 1 view .LVU2431
	movl	$5, %edx
	leaq	.LC80(%rip), %rsi
	xorl	%edi, %edi
	call	dcgettext@PLT
.LVL893:
.LBE752:
	.loc 1 1637 25 is_stmt 0 view .LVU2432
	movsbl	%r15b, %ecx
.LBB753:
	.loc 1 1659 15 view .LVU2433
	xorl	%esi, %esi
	movl	$1, %edi
	movq	%rax, %rdx
	xorl	%eax, %eax
	call	error@PLT
.LVL894:
.L667:
	.loc 1 1659 15 view .LVU2434
.LBE753:
	.loc 1 1692 17 is_stmt 1 view .LVU2435
	movq	optarg(%rip), %r8
	movl	32(%rsp), %esi
	movl	$83, %edx
	movl	%eax, %edi
	leaq	long_options(%rip), %rcx
	call	xstrtol_fatal@PLT
.LVL895:
.L677:
	.loc 1 1692 17 is_stmt 0 view .LVU2436
.LBE871:
	.loc 1 1987 1 view .LVU2437
	call	__stack_chk_fail@PLT
.LVL896:
.L680:
.LBB872:
.LBB852:
	.loc 1 1417 11 is_stmt 1 view .LVU2438
	leaq	__PRETTY_FUNCTION__.7810(%rip), %rcx
	movl	$1417, %edx
	leaq	.LC32(%rip), %rsi
	leaq	.LC104(%rip), %rdi
	call	__assert_fail@PLT
.LVL897:
.L654:
.LBB847:
.LBB819:
	.loc 6 102 5 view .LVU2439
	call	xalloc_die@PLT
.LVL898:
.L663:
	.loc 6 102 5 is_stmt 0 view .LVU2440
.LBE819:
.LBE847:
.LBE852:
.LBE872:
.LBB873:
.LBB754:
	.loc 1 1776 17 is_stmt 1 view .LVU2441
	movq	optarg(%rip), %r8
	movl	32(%rsp), %esi
	movl	$119, %edx
	movl	%eax, %edi
	leaq	long_options(%rip), %rcx
	call	xstrtol_fatal@PLT
.LVL899:
.L664:
	.loc 1 1776 17 is_stmt 0 view .LVU2442
.LBE754:
.LBB755:
.LBB716:
	.loc 1 985 3 is_stmt 1 view .LVU2443
	leaq	__PRETTY_FUNCTION__.7694(%rip), %rcx
	movl	$985, %edx
	leaq	.LC32(%rip), %rsi
	leaq	.LC81(%rip), %rdi
.LVL900:
	.loc 1 985 3 is_stmt 0 view .LVU2444
	call	__assert_fail@PLT
.LVL901:
.L673:
	.loc 1 985 3 view .LVU2445
.LBE716:
.LBE755:
.LBE873:
.LBB874:
	.loc 1 1894 9 is_stmt 1 view .LVU2446
	movl	$5, %edx
	leaq	.LC101(%rip), %rsi
	xorl	%edi, %edi
	call	dcgettext@PLT
.LVL902:
	xorl	%esi, %esi
	movl	$1, %edi
	movq	%rax, %rdx
	xorl	%eax, %eax
	call	error@PLT
.LVL903:
.L683:
	.loc 1 1894 9 is_stmt 0 view .LVU2447
.LBE874:
.LBB875:
.LBB853:
.LBB848:
	.loc 1 1403 11 is_stmt 1 view .LVU2448
	leaq	__PRETTY_FUNCTION__.7810(%rip), %rcx
	movl	$1403, %edx
	leaq	.LC32(%rip), %rsi
	leaq	.LC104(%rip), %rdi
	call	__assert_fail@PLT
.LVL904:
.LBE848:
.LBE853:
.LBE875:
	.cfi_endproc
.LFE170:
	.size	main, .-main
	.local	prev_pair_equal.7758
	.comm	prev_pair_equal.7758,1,1
	.data
	.type	first.7757, @object
	.size	first.7757, 1
first.7757:
	.byte	1
	.section	.rodata
	.align 8
	.type	__PRETTY_FUNCTION__.7781, @object
	.size	__PRETTY_FUNCTION__.7781, 11
__PRETTY_FUNCTION__.7781:
	.string	"read_block"
	.type	__PRETTY_FUNCTION__.7810, @object
	.size	__PRETTY_FUNCTION__.7810, 5
__PRETTY_FUNCTION__.7810:
	.string	"dump"
	.align 16
	.type	__PRETTY_FUNCTION__.7639, @object
	.size	__PRETTY_FUNCTION__.7639, 18
__PRETTY_FUNCTION__.7639:
	.string	"decode_one_format"
	.align 16
	.type	__PRETTY_FUNCTION__.7694, @object
	.size	__PRETTY_FUNCTION__.7694, 21
__PRETTY_FUNCTION__.7694:
	.string	"decode_format_string"
	.align 8
	.type	multipliers.7860, @object
	.size	multipliers.7860, 13
multipliers.7860:
	.string	"bEGKkMmPTYZ0"
	.section	.rodata.str1.1
.LC105:
	.string	"skip-bytes"
.LC106:
	.string	"address-radix"
.LC107:
	.string	"read-bytes"
.LC108:
	.string	"format"
.LC109:
	.string	"output-duplicates"
.LC110:
	.string	"strings"
.LC111:
	.string	"traditional"
.LC112:
	.string	"width"
.LC113:
	.string	"endian"
.LC114:
	.string	"help"
.LC115:
	.string	"version"
	.section	.data.rel.ro.local,"aw"
	.align 32
	.type	long_options, @object
	.size	long_options, 384
long_options:
	.quad	.LC105
	.long	1
	.zero	4
	.quad	0
	.long	106
	.zero	4
	.quad	.LC106
	.long	1
	.zero	4
	.quad	0
	.long	65
	.zero	4
	.quad	.LC107
	.long	1
	.zero	4
	.quad	0
	.long	78
	.zero	4
	.quad	.LC108
	.long	1
	.zero	4
	.quad	0
	.long	116
	.zero	4
	.quad	.LC109
	.long	0
	.zero	4
	.quad	0
	.long	118
	.zero	4
	.quad	.LC110
	.long	2
	.zero	4
	.quad	0
	.long	83
	.zero	4
	.quad	.LC111
	.long	0
	.zero	4
	.quad	0
	.long	128
	.zero	4
	.quad	.LC112
	.long	2
	.zero	4
	.quad	0
	.long	119
	.zero	4
	.quad	.LC113
	.long	1
	.zero	4
	.quad	0
	.long	129
	.zero	4
	.quad	.LC114
	.long	0
	.zero	4
	.quad	0
	.long	-130
	.zero	4
	.quad	.LC115
	.long	0
	.zero	4
	.quad	0
	.long	-131
	.zero	4
	.quad	0
	.long	0
	.zero	4
	.quad	0
	.long	0
	.zero	4
	.section	.rodata
	.align 8
	.type	endian_types, @object
	.size	endian_types, 8
endian_types:
	.long	0
	.long	1
	.section	.rodata.str1.1
.LC116:
	.string	"little"
.LC117:
	.string	"big"
	.section	.data.rel.ro.local
	.align 16
	.type	endian_args, @object
	.size	endian_args, 24
endian_args:
	.quad	.LC116
	.quad	.LC117
	.quad	0
	.section	.rodata
	.align 32
	.type	short_options, @object
	.size	short_options, 35
short_options:
	.string	"A:aBbcDdeFfHhIij:LlN:OoS:st:vw::Xx"
	.local	input_swap
	.comm	input_swap,1,1
	.local	fp_type_size
	.comm	fp_type_size,68,32
	.local	integral_type_size
	.comm	integral_type_size,36,32
	.local	have_read_stdin
	.comm	have_read_stdin,1,1
	.local	in_stream
	.comm	in_stream,8,8
	.section	.rodata.str1.1
.LC118:
	.string	"-"
	.section	.data.rel.ro.local
	.align 16
	.type	default_file_list, @object
	.size	default_file_list, 16
default_file_list:
	.quad	.LC118
	.quad	0
	.local	file_list
	.comm	file_list,8,8
	.local	input_filename
	.comm	input_filename,8,8
	.local	bytes_per_block
	.comm	bytes_per_block,8,8
	.local	n_specs_allocated
	.comm	n_specs_allocated,8,8
	.local	n_specs
	.comm	n_specs,8,8
	.local	spec
	.comm	spec,8,8
	.data
	.type	abbreviate_duplicate_blocks, @object
	.size	abbreviate_duplicate_blocks, 1
abbreviate_duplicate_blocks:
	.byte	1
	.local	end_offset
	.comm	end_offset,8,8
	.local	max_bytes_to_format
	.comm	max_bytes_to_format,8,8
	.local	limit_bytes_to_format
	.comm	limit_bytes_to_format,1,1
	.local	n_bytes_to_skip
	.comm	n_bytes_to_skip,8,8
	.local	format_address
	.comm	format_address,8,8
	.local	pseudo_offset
	.comm	pseudo_offset,8,8
	.local	flag_pseudo_start
	.comm	flag_pseudo_start,1,1
	.local	traditional
	.comm	traditional,1,1
	.local	flag_dump_strings
	.comm	flag_dump_strings,1,1
	.local	string_min
	.comm	string_min,8,8
	.local	address_pad_len
	.comm	address_pad_len,4,4
	.local	address_base
	.comm	address_base,4,4
	.section	.rodata
	.align 32
	.type	charname, @object
	.size	charname, 132
charname:
	.string	"nul"
	.string	"soh"
	.string	"stx"
	.string	"etx"
	.string	"eot"
	.string	"enq"
	.string	"ack"
	.string	"bel"
	.string	"bs"
	.zero	1
	.string	"ht"
	.zero	1
	.string	"nl"
	.zero	1
	.string	"vt"
	.zero	1
	.string	"ff"
	.zero	1
	.string	"cr"
	.zero	1
	.string	"so"
	.zero	1
	.string	"si"
	.zero	1
	.string	"dle"
	.string	"dc1"
	.string	"dc2"
	.string	"dc3"
	.string	"dc4"
	.string	"nak"
	.string	"syn"
	.string	"etb"
	.string	"can"
	.string	"em"
	.zero	1
	.string	"sub"
	.string	"esc"
	.string	"fs"
	.zero	1
	.string	"gs"
	.zero	1
	.string	"rs"
	.zero	1
	.string	"us"
	.zero	1
	.string	"sp"
	.zero	1
	.align 32
	.type	width_bytes, @object
	.size	width_bytes, 36
width_bytes:
	.long	-1
	.long	1
	.long	2
	.long	4
	.long	8
	.long	8
	.long	4
	.long	8
	.long	16
	.align 32
	.type	bytes_to_hex_digits, @object
	.size	bytes_to_hex_digits, 68
bytes_to_hex_digits:
	.long	0
	.long	2
	.long	4
	.long	6
	.long	8
	.long	10
	.long	12
	.long	14
	.long	16
	.long	18
	.long	20
	.long	22
	.long	24
	.long	26
	.long	28
	.long	30
	.long	32
	.align 32
	.type	bytes_to_unsigned_dec_digits, @object
	.size	bytes_to_unsigned_dec_digits, 68
bytes_to_unsigned_dec_digits:
	.long	0
	.long	3
	.long	5
	.long	8
	.long	10
	.long	13
	.long	15
	.long	17
	.long	20
	.long	22
	.long	25
	.long	27
	.long	29
	.long	32
	.long	34
	.long	37
	.long	39
	.align 32
	.type	bytes_to_signed_dec_digits, @object
	.size	bytes_to_signed_dec_digits, 68
bytes_to_signed_dec_digits:
	.long	1
	.long	4
	.long	6
	.long	8
	.long	11
	.long	13
	.long	16
	.long	18
	.long	20
	.long	23
	.long	25
	.long	28
	.long	30
	.long	33
	.long	35
	.long	37
	.long	40
	.align 32
	.type	bytes_to_oct_digits, @object
	.size	bytes_to_oct_digits, 68
bytes_to_oct_digits:
	.long	0
	.long	3
	.long	6
	.long	8
	.long	11
	.long	14
	.long	16
	.long	19
	.long	22
	.long	25
	.long	27
	.long	30
	.long	32
	.long	35
	.long	38
	.long	41
	.long	43
	.text
.Letext0:
	.section	.text.unlikely
.Letext_cold0:
	.file 8 "/usr/lib/gcc/x86_64-linux-gnu/9/include/stddef.h"
	.file 9 "/usr/include/x86_64-linux-gnu/bits/types.h"
	.file 10 "/usr/include/x86_64-linux-gnu/bits/types/struct_FILE.h"
	.file 11 "/usr/include/x86_64-linux-gnu/bits/types/FILE.h"
	.file 12 "/usr/include/stdio.h"
	.file 13 "/usr/include/x86_64-linux-gnu/bits/sys_errlist.h"
	.file 14 "/usr/include/x86_64-linux-gnu/bits/types/time_t.h"
	.file 15 "/usr/include/x86_64-linux-gnu/bits/types/struct_timespec.h"
	.file 16 "./lib/sys/select.h"
	.file 17 "/usr/include/x86_64-linux-gnu/bits/getopt_core.h"
	.file 18 "/usr/include/x86_64-linux-gnu/bits/getopt_ext.h"
	.file 19 "/usr/include/time.h"
	.file 20 "/usr/include/x86_64-linux-gnu/bits/stat.h"
	.file 21 "/usr/include/signal.h"
	.file 22 "/usr/include/unistd.h"
	.file 23 "/usr/include/errno.h"
	.file 24 "src/version.h"
	.file 25 "./lib/exitfail.h"
	.file 26 "/usr/include/stdint.h"
	.file 27 "./lib/timespec.h"
	.file 28 "/usr/include/ctype.h"
	.file 29 "/usr/include/locale.h"
	.file 30 "./lib/xalloc-oversized.h"
	.file 31 "./lib/version-etc.h"
	.file 32 "./lib/progname.h"
	.file 33 "./lib/quotearg.h"
	.file 34 "./lib/quote.h"
	.file 35 "./lib/argmatch.h"
	.file 36 "./lib/error.h"
	.file 37 "./lib/xstrtol.h"
	.file 38 "./lib/xbinary-io.h"
	.file 39 "./lib/binary-io.h"
	.file 40 "/usr/include/libintl.h"
	.file 41 "./lib/xstrtol-error.h"
	.file 42 "/usr/include/assert.h"
	.file 43 "/usr/include/stdlib.h"
	.file 44 "<built-in>"
	.file 45 "./lib/stdio.h"
	.file 46 "/usr/include/string.h"
	.file 47 "./lib/xprintf.h"
	.file 48 "./lib/ftoastr.h"
	.section	.note.GNU-stack,"",@progbits
	.section	.note.gnu.property,"a"
	.align 8
	.long	 1f - 0f
	.long	 4f - 1f
	.long	 5
0:
	.string	 "GNU"
1:
	.align 8
	.long	 0xc0000002
	.long	 3f - 2f
2:
	.long	 0x3
3:
	.align 8
4:
