	.file	"paste.c"
	.text
.Ltext0:
	.section	.rodata.str1.1,"aMS",@progbits,1
.LC0:
	.string	"write error"
	.text
	.p2align 4
	.type	write_error, @function
write_error:
.LFB136:
	.file 1 "src/paste.c"
	.loc 1 162 1 view -0
	.cfi_startproc
	.loc 1 163 3 view .LVU1
	.loc 1 162 1 is_stmt 0 view .LVU2
	pushq	%r12
	.cfi_def_cfa_offset 16
	.cfi_offset 12, -16
	.loc 1 163 3 view .LVU3
	movl	$5, %edx
	leaq	.LC0(%rip), %rsi
	xorl	%edi, %edi
	call	dcgettext@PLT
.LVL0:
	movq	%rax, %r12
	call	__errno_location@PLT
.LVL1:
	movq	%r12, %rdx
	movl	$1, %edi
	movl	(%rax), %esi
	xorl	%eax, %eax
	call	error@PLT
.LVL2:
	.cfi_endproc
.LFE136:
	.size	write_error, .-write_error
	.section	.rodata.str1.1
.LC1:
	.string	"r"
.LC2:
	.string	"%s"
.LC3:
	.string	"standard input is closed"
	.text
	.p2align 4
	.type	paste_parallel, @function
paste_parallel:
.LVL3:
.LFB138:
	.loc 1 181 1 is_stmt 1 view -0
	.cfi_startproc
	.loc 1 181 1 is_stmt 0 view .LVU5
	endbr64
	.loc 1 182 3 is_stmt 1 view .LVU6
.LVL4:
	.loc 1 187 3 view .LVU7
	.loc 1 181 1 is_stmt 0 view .LVU8
	pushq	%r15
	.cfi_def_cfa_offset 16
	.cfi_offset 15, -16
	pushq	%r14
	.cfi_def_cfa_offset 24
	.cfi_offset 14, -24
	pushq	%r13
	.cfi_def_cfa_offset 32
	.cfi_offset 13, -32
	pushq	%r12
	.cfi_def_cfa_offset 40
	.cfi_offset 12, -40
	pushq	%rbp
	.cfi_def_cfa_offset 48
	.cfi_offset 6, -48
	pushq	%rbx
	.cfi_def_cfa_offset 56
	.cfi_offset 3, -56
	movq	%rdi, %rbx
	.loc 1 187 18 view .LVU9
	addq	$2, %rdi
.LVL5:
	.loc 1 181 1 view .LVU10
	subq	$56, %rsp
	.cfi_def_cfa_offset 112
	.loc 1 181 1 view .LVU11
	movq	%rsi, 40(%rsp)
	.loc 1 187 18 view .LVU12
	call	xmalloc@PLT
.LVL6:
	.loc 1 187 18 view .LVU13
	movq	%rax, 24(%rsp)
.LVL7:
	.loc 1 191 3 is_stmt 1 view .LVU14
	.loc 1 191 20 is_stmt 0 view .LVU15
	leaq	1(%rbx), %rax
.LVL8:
.LBB109:
.LBI109:
	.file 2 "./lib/xalloc.h"
	.loc 2 99 1 is_stmt 1 view .LVU16
.LBB110:
	.loc 2 101 3 view .LVU17
	.loc 2 101 7 is_stmt 0 view .LVU18
	movq	%rax, %rcx
	shrq	$61, %rcx
	setne	%dl
	salq	$3, %rax
.LVL9:
	.loc 2 101 7 view .LVU19
	js	.L75
	movzbl	%dl, %edx
	.loc 2 101 6 view .LVU20
	testq	%rdx, %rdx
	jne	.L75
	movq	%rax, %rdi
	.loc 2 103 3 is_stmt 1 view .LVU21
	.loc 2 103 10 is_stmt 0 view .LVU22
	call	xmalloc@PLT
.LVL10:
	movq	%rax, 16(%rsp)
.LVL11:
	.loc 2 103 10 view .LVU23
.LBE110:
.LBE109:
	.loc 1 194 3 is_stmt 1 view .LVU24
	.loc 1 197 3 view .LVU25
	.loc 1 203 3 view .LVU26
	.loc 1 203 24 view .LVU27
	.loc 1 203 3 is_stmt 0 view .LVU28
	testq	%rbx, %rbx
	je	.L53
	.loc 1 197 8 view .LVU29
	movb	$0, 36(%rsp)
	movq	40(%rsp), %r13
	.loc 1 203 19 view .LVU30
	xorl	%r12d, %r12d
	.loc 1 216 26 view .LVU31
	movq	%rax, %r14
	movl	$1, %ebp
	movq	%rbx, %r15
	jmp	.L15
.LVL12:
.L11:
	.loc 1 212 11 is_stmt 1 view .LVU32
	.loc 1 212 33 is_stmt 0 view .LVU33
	leaq	.LC1(%rip), %rsi
	call	fopen@PLT
.LVL13:
	.loc 1 212 31 view .LVU34
	movq	%rax, (%r14,%r12,8)
	.loc 1 213 11 is_stmt 1 view .LVU35
	.loc 1 212 33 is_stmt 0 view .LVU36
	movq	%rax, %rbx
	.loc 1 213 14 view .LVU37
	testq	%rax, %rax
	je	.L86
	.loc 1 215 16 is_stmt 1 view .LVU38
	.loc 1 215 20 is_stmt 0 view .LVU39
	movq	%rax, %rdi
	call	fileno@PLT
.LVL14:
	.loc 1 217 11 view .LVU40
	movl	$2, %esi
	movq	%rbx, %rdi
	.loc 1 216 26 view .LVU41
	testl	%eax, %eax
	movzbl	36(%rsp), %eax
	cmove	%ebp, %eax
	.loc 1 203 45 view .LVU42
	addq	$1, %r12
.LVL15:
	.loc 1 203 45 view .LVU43
	addq	$8, %r13
	.loc 1 216 26 view .LVU44
	movb	%al, 36(%rsp)
.LVL16:
	.loc 1 217 11 is_stmt 1 view .LVU45
	call	fadvise@PLT
.LVL17:
	.loc 1 203 45 view .LVU46
	.loc 1 203 24 view .LVU47
	.loc 1 203 3 is_stmt 0 view .LVU48
	cmpq	%r12, %r15
	je	.L87
.LVL18:
.L15:
	.loc 1 205 7 is_stmt 1 view .LVU49
	.loc 1 205 11 is_stmt 0 view .LVU50
	movq	0(%r13), %rdi
	cmpb	$45, (%rdi)
	jne	.L11
	.loc 1 205 10 view .LVU51
	cmpb	$0, 1(%rdi)
	jne	.L11
	.loc 1 207 11 is_stmt 1 view .LVU52
	.loc 1 208 31 is_stmt 0 view .LVU53
	movq	stdin(%rip), %rax
	.loc 1 207 27 view .LVU54
	movb	%bpl, have_read_stdin(%rip)
	.loc 1 208 11 is_stmt 1 view .LVU55
	addq	$8, %r13
	.loc 1 208 31 is_stmt 0 view .LVU56
	movq	%rax, (%r14,%r12,8)
	.loc 1 203 45 is_stmt 1 view .LVU57
	addq	$1, %r12
.LVL19:
	.loc 1 203 24 view .LVU58
	.loc 1 203 3 is_stmt 0 view .LVU59
	cmpq	%r12, %r15
	jne	.L15
.L87:
	.loc 1 221 3 is_stmt 1 view .LVU60
	.loc 1 221 6 is_stmt 0 view .LVU61
	cmpb	$0, 36(%rsp)
	je	.L54
	.loc 1 221 20 discriminator 1 view .LVU62
	cmpb	$0, have_read_stdin(%rip)
	jne	.L88
	movq	%r12, 8(%rsp)
.LVL20:
.L50:
.LBB112:
	.loc 1 231 7 is_stmt 1 view .LVU63
	.loc 1 232 7 view .LVU64
.LBB113:
.LBB114:
	.loc 1 241 22 is_stmt 0 view .LVU65
	movq	16(%rsp), %rax
.LBE114:
.LBE113:
	.loc 1 232 19 view .LVU66
	movl	$1, %r14d
	.loc 1 231 12 view .LVU67
	movb	$0, 35(%rsp)
	.loc 1 233 14 view .LVU68
	xorl	%ebp, %ebp
	.loc 1 231 12 view .LVU69
	movq	%r14, %r15
	.loc 1 232 19 view .LVU70
	movq	delims(%rip), %rbx
.LVL21:
	.loc 1 233 7 is_stmt 1 view .LVU71
	.loc 1 235 7 view .LVU72
.LBB165:
	.loc 1 235 12 view .LVU73
	.loc 1 235 26 view .LVU74
.LBB162:
	.loc 1 237 11 view .LVU75
	.loc 1 238 11 view .LVU76
	.loc 1 239 11 view .LVU77
	.loc 1 241 11 view .LVU78
	.loc 1 241 22 is_stmt 0 view .LVU79
	movq	-8(%rax,%r15,8), %r13
	.loc 1 241 14 view .LVU80
	testq	%r13, %r13
	je	.L17
.LVL22:
	.p2align 4,,10
	.p2align 3
.L93:
	.loc 1 243 15 is_stmt 1 view .LVU81
.LBB115:
.LBI115:
	.file 3 "/usr/include/x86_64-linux-gnu/bits/stdio.h"
	.loc 3 66 1 view .LVU82
.LBB116:
	.loc 3 68 3 view .LVU83
	.loc 3 68 10 is_stmt 0 view .LVU84
	movq	8(%r13), %rax
	cmpq	%rax, 16(%r13)
	jbe	.L89
	leaq	1(%rax), %rdx
	movq	%rdx, 8(%r13)
	movzbl	(%rax), %r14d
.LVL23:
	.loc 3 68 10 view .LVU85
.LBE116:
.LBE115:
	.loc 1 244 15 is_stmt 1 view .LVU86
	.loc 1 245 15 view .LVU87
	.loc 1 245 18 is_stmt 0 view .LVU88
	testq	%rbp, %rbp
	je	.L31
.L19:
	.loc 1 247 19 is_stmt 1 view .LVU89
	.loc 1 247 23 is_stmt 0 view .LVU90
	movq	stdout(%rip), %rcx
	movq	24(%rsp), %rdi
	movq	%rbp, %rdx
	movl	$1, %esi
	call	fwrite_unlocked@PLT
.LVL24:
	.loc 1 247 22 view .LVU91
	cmpq	%rbp, %rax
	jne	.L26
	.loc 1 249 32 view .LVU92
	xorl	%ebp, %ebp
.LVL25:
	.loc 1 249 32 view .LVU93
	jmp	.L31
.LVL26:
	.p2align 4,,10
	.p2align 3
.L25:
.LBB119:
.LBB120:
.LBB121:
.LBB122:
	.loc 3 110 10 view .LVU94
	leaq	1(%rdx), %rax
	movq	%rax, 40(%rdi)
	movb	%r14b, (%rdx)
.LVL27:
.L27:
	.loc 3 110 10 view .LVU95
.LBE122:
.LBE121:
.LBE120:
.LBE119:
	.loc 1 258 19 is_stmt 1 view .LVU96
.LBB126:
.LBI126:
	.loc 3 66 1 view .LVU97
.LBB127:
	.loc 3 68 3 view .LVU98
	.loc 3 68 10 is_stmt 0 view .LVU99
	movq	8(%r13), %rax
	cmpq	16(%r13), %rax
	jnb	.L90
	leaq	1(%rax), %rdx
	movq	%rdx, 8(%r13)
	movzbl	(%rax), %r14d
.LVL28:
	.loc 3 68 10 view .LVU100
.LBE127:
.LBE126:
	.loc 1 259 19 is_stmt 1 view .LVU101
	.loc 1 252 21 view .LVU102
.L31:
	.loc 1 254 19 view .LVU103
	.loc 1 255 19 view .LVU104
	.loc 1 255 27 is_stmt 0 view .LVU105
	movzbl	line_delim(%rip), %eax
	.loc 1 255 22 view .LVU106
	cmpl	%r14d, %eax
	je	.L24
	.loc 1 257 19 is_stmt 1 view .LVU107
.LVL29:
.LBB129:
.LBI119:
	.loc 1 169 1 view .LVU108
.LBB125:
	.loc 1 171 3 view .LVU109
.LBB124:
.LBI121:
	.loc 3 108 1 view .LVU110
.LBB123:
	.loc 3 110 3 view .LVU111
	.loc 3 110 10 is_stmt 0 view .LVU112
	movq	stdout(%rip), %rdi
	movq	40(%rdi), %rdx
	cmpq	48(%rdi), %rdx
	jb	.L25
	movzbl	%r14b, %esi
	call	__overflow@PLT
.LVL30:
	.loc 3 110 10 view .LVU113
.LBE123:
.LBE124:
	.loc 1 171 6 view .LVU114
	testl	%eax, %eax
	jns	.L27
.LVL31:
.L26:
	.loc 1 171 6 view .LVU115
.LBE125:
.LBE129:
	.loc 1 248 21 is_stmt 1 view .LVU116
	call	write_error
.LVL32:
	.p2align 4,,10
	.p2align 3
.L90:
.LBB130:
.LBB128:
	.loc 3 68 10 is_stmt 0 view .LVU117
	movq	%r13, %rdi
	call	__uflow@PLT
.LVL33:
	movl	%eax, %r14d
.LVL34:
	.loc 3 68 10 view .LVU118
.LBE128:
.LBE130:
	.loc 1 259 19 is_stmt 1 view .LVU119
	.loc 1 252 21 view .LVU120
	cmpl	$-1, %eax
	jne	.L31
.LVL35:
	.loc 1 263 11 view .LVU121
	.loc 1 316 15 view .LVU122
	.loc 1 319 15 view .LVU123
	.loc 1 319 18 is_stmt 0 view .LVU124
	cmpq	%r12, %r15
	je	.L91
.LVL36:
.L32:
	.loc 1 321 19 is_stmt 1 view .LVU125
	.loc 1 323 19 view .LVU126
	.loc 1 323 23 is_stmt 0 view .LVU127
	movzbl	(%rbx), %eax
	.loc 1 323 22 view .LVU128
	testb	%al, %al
	jne	.L92
.L46:
	.loc 1 325 19 is_stmt 1 view .LVU129
	.loc 1 325 22 is_stmt 0 view .LVU130
	addq	$1, %rbx
.LVL37:
	.loc 1 325 22 view .LVU131
	cmpq	%rbx, delim_end(%rip)
	.loc 1 316 24 view .LVU132
	movb	$1, 35(%rsp)
	.loc 1 325 22 view .LVU133
	je	.L83
.LVL38:
.L42:
	.loc 1 325 22 view .LVU134
.LBE162:
	.loc 1 235 52 is_stmt 1 discriminator 2 view .LVU135
	.loc 1 235 26 discriminator 2 view .LVU136
	.loc 1 235 28 is_stmt 0 discriminator 2 view .LVU137
	cmpq	%r12, %r15
	setb	%dl
	.loc 1 235 37 discriminator 2 view .LVU138
	cmpq	$0, 8(%rsp)
	setne	%al
	addq	$1, %r15
	.loc 1 235 7 discriminator 2 view .LVU139
	testb	%al, %dl
	je	.L51
.LVL39:
.LBB163:
	.loc 1 237 11 is_stmt 1 view .LVU140
	.loc 1 238 11 view .LVU141
	.loc 1 239 11 view .LVU142
	.loc 1 241 11 view .LVU143
	.loc 1 241 22 is_stmt 0 view .LVU144
	movq	16(%rsp), %rax
	movq	-8(%rax,%r15,8), %r13
	.loc 1 241 14 view .LVU145
	testq	%r13, %r13
	jne	.L93
.LVL40:
.L17:
	.loc 1 286 15 is_stmt 1 view .LVU146
	.loc 1 286 18 is_stmt 0 view .LVU147
	cmpq	%r12, %r15
	je	.L94
	.loc 1 307 19 is_stmt 1 view .LVU148
	.loc 1 307 23 is_stmt 0 view .LVU149
	movzbl	(%rbx), %eax
	.loc 1 307 22 view .LVU150
	testb	%al, %al
	je	.L41
	.loc 1 308 21 is_stmt 1 view .LVU151
.LVL41:
	.loc 1 308 44 is_stmt 0 view .LVU152
	movq	24(%rsp), %rcx
	movb	%al, (%rcx,%rbp)
	.loc 1 308 40 view .LVU153
	addq	$1, %rbp
.LVL42:
.L41:
	.loc 1 309 19 is_stmt 1 view .LVU154
	.loc 1 309 22 is_stmt 0 view .LVU155
	addq	$1, %rbx
.LVL43:
	.loc 1 309 22 view .LVU156
	cmpq	%rbx, delim_end(%rip)
	jne	.L42
.LVL44:
.L83:
	.loc 1 326 21 is_stmt 1 view .LVU157
	.loc 1 326 30 is_stmt 0 view .LVU158
	movq	delims(%rip), %rbx
.LVL45:
	.loc 1 326 30 view .LVU159
	jmp	.L42
.LVL46:
	.p2align 4,,10
	.p2align 3
.L24:
	.loc 1 316 15 is_stmt 1 view .LVU160
	.loc 1 319 15 view .LVU161
	.loc 1 319 18 is_stmt 0 view .LVU162
	cmpq	%r12, %r15
	jne	.L32
.LVL47:
.L47:
.LBB131:
	.loc 1 333 19 is_stmt 1 discriminator 4 view .LVU163
.LBB132:
.LBI132:
	.loc 1 169 1 discriminator 4 view .LVU164
.LBB133:
	.loc 1 171 3 discriminator 4 view .LVU165
.LBB134:
.LBI134:
	.loc 3 108 1 discriminator 4 view .LVU166
.LBB135:
	.loc 3 110 3 discriminator 4 view .LVU167
	.loc 3 110 10 is_stmt 0 discriminator 4 view .LVU168
	movq	stdout(%rip), %rdi
	movq	40(%rdi), %rax
	cmpq	48(%rdi), %rax
	jnb	.L95
	.loc 3 110 10 view .LVU169
	leaq	1(%rax), %rdx
	movq	%rdx, 40(%rdi)
	movb	%r14b, (%rax)
.LVL48:
.L84:
	.loc 3 110 10 view .LVU170
.LBE135:
.LBE134:
.LBE133:
.LBE132:
.LBE131:
	.loc 1 316 24 view .LVU171
	movb	$1, 35(%rsp)
	jmp	.L42
.LVL49:
.L94:
	.loc 1 290 19 is_stmt 1 view .LVU172
	.loc 1 290 22 is_stmt 0 view .LVU173
	cmpb	$0, 35(%rsp)
	je	.L51
	.loc 1 293 23 is_stmt 1 view .LVU174
	movq	stdout(%rip), %rcx
	.loc 1 293 26 is_stmt 0 view .LVU175
	testq	%rbp, %rbp
	je	.L38
	.loc 1 295 27 is_stmt 1 view .LVU176
	.loc 1 295 31 is_stmt 0 view .LVU177
	movq	24(%rsp), %rdi
	movq	%rbp, %rdx
	movl	$1, %esi
	call	fwrite_unlocked@PLT
.LVL50:
	.loc 1 295 30 view .LVU178
	cmpq	%rbp, %rax
	jne	.L26
	movq	stdout(%rip), %rcx
.L38:
.LVL51:
	.loc 1 300 23 is_stmt 1 view .LVU179
	movzbl	line_delim(%rip), %edx
.LVL52:
.LBB140:
.LBI140:
	.loc 1 169 1 view .LVU180
.LBB141:
	.loc 1 171 3 view .LVU181
.LBB142:
.LBI142:
	.loc 3 108 1 view .LVU182
.LBB143:
	.loc 3 110 3 view .LVU183
	.loc 3 110 10 is_stmt 0 view .LVU184
	movq	40(%rcx), %rax
	cmpq	48(%rcx), %rax
	jnb	.L96
	leaq	1(%rax), %rsi
	movq	%rsi, 40(%rcx)
	movb	%dl, (%rax)
.LVL53:
.L51:
	.loc 3 110 10 view .LVU185
.LBE143:
.LBE142:
.LBE141:
.LBE140:
.LBE163:
.LBE165:
.LBE112:
	.loc 1 228 9 is_stmt 1 view .LVU186
	cmpq	$0, 8(%rsp)
	jne	.L50
.LVL54:
.L9:
	.loc 1 338 3 view .LVU187
	movq	16(%rsp), %rdi
	call	free@PLT
.LVL55:
	.loc 1 339 3 view .LVU188
	movq	24(%rsp), %rdi
	call	free@PLT
.LVL56:
	.loc 1 340 3 view .LVU189
	.loc 1 341 1 is_stmt 0 view .LVU190
	movzbl	36(%rsp), %eax
	addq	$56, %rsp
	.cfi_remember_state
	.cfi_def_cfa_offset 56
	popq	%rbx
	.cfi_def_cfa_offset 48
	popq	%rbp
	.cfi_def_cfa_offset 40
	popq	%r12
	.cfi_def_cfa_offset 32
	popq	%r13
	.cfi_def_cfa_offset 24
	popq	%r14
	.cfi_def_cfa_offset 16
	popq	%r15
	.cfi_def_cfa_offset 8
	ret
.LVL57:
	.p2align 4,,10
	.p2align 3
.L92:
	.cfi_restore_state
.LBB167:
.LBB166:
.LBB164:
	.loc 1 324 21 is_stmt 1 view .LVU191
.LBB147:
.LBI147:
	.loc 1 169 1 view .LVU192
.LBB148:
	.loc 1 171 3 view .LVU193
.LBB149:
.LBI149:
	.loc 3 108 1 view .LVU194
.LBB150:
	.loc 3 110 3 view .LVU195
	.loc 3 110 10 is_stmt 0 view .LVU196
	movq	stdout(%rip), %rdi
	movq	40(%rdi), %rdx
	cmpq	48(%rdi), %rdx
	jnb	.L97
	leaq	1(%rdx), %rcx
	movq	%rcx, 40(%rdi)
	movb	%al, (%rdx)
.LVL58:
	.loc 3 110 10 view .LVU197
	jmp	.L46
.LVL59:
.L89:
	.loc 3 110 10 view .LVU198
.LBE150:
.LBE149:
.LBE148:
.LBE147:
.LBB154:
.LBB117:
	.loc 3 68 10 view .LVU199
	movq	%r13, %rdi
	call	__uflow@PLT
.LVL60:
.LBE117:
.LBE154:
	.loc 1 245 30 view .LVU200
	testq	%rbp, %rbp
	setne	%dl
	cmpl	$-1, %eax
.LBB155:
.LBB118:
	.loc 3 68 10 view .LVU201
	movl	%eax, %r14d
.LVL61:
	.loc 3 68 10 view .LVU202
.LBE118:
.LBE155:
	.loc 1 244 15 is_stmt 1 view .LVU203
	.loc 1 245 15 view .LVU204
	.loc 1 245 30 is_stmt 0 view .LVU205
	setne	%al
.LVL62:
	.loc 1 245 18 view .LVU206
	testb	%al, %dl
	jne	.L19
	.loc 1 252 21 is_stmt 1 view .LVU207
	cmpl	$-1, %r14d
	jne	.L31
	.loc 1 244 21 is_stmt 0 view .LVU208
	call	__errno_location@PLT
.LVL63:
	movq	%rax, %r14
.LVL64:
	.loc 1 263 11 is_stmt 1 view .LVU209
	.loc 1 267 15 view .LVU210
	.loc 1 269 19 view .LVU211
.LBB156:
.LBI156:
	.loc 3 135 1 view .LVU212
.LBB157:
	.loc 3 137 3 view .LVU213
	.loc 3 137 3 is_stmt 0 view .LVU214
.LBE157:
.LBE156:
	.loc 1 269 22 view .LVU215
	testb	$32, 0(%r13)
	jne	.L98
	.loc 1 274 19 is_stmt 1 view .LVU216
	.loc 1 274 22 is_stmt 0 view .LVU217
	cmpq	stdin(%rip), %r13
	.loc 1 275 21 view .LVU218
	movq	%r13, %rdi
	.loc 1 274 22 view .LVU219
	je	.L99
.L34:
	.loc 1 276 24 is_stmt 1 view .LVU220
	.loc 1 276 28 is_stmt 0 view .LVU221
	call	rpl_fclose@PLT
.LVL65:
	.loc 1 276 27 view .LVU222
	cmpl	$-1, %eax
	je	.L100
.LVL66:
.L35:
	.loc 1 282 19 is_stmt 1 view .LVU223
	.loc 1 282 30 is_stmt 0 view .LVU224
	movq	16(%rsp), %rax
	.loc 1 283 29 view .LVU225
	subq	$1, 8(%rsp)
.LVL67:
	.loc 1 282 30 view .LVU226
	movq	$0, -8(%rax,%r15,8)
	.loc 1 283 19 is_stmt 1 view .LVU227
.LVL68:
	.loc 1 283 19 is_stmt 0 view .LVU228
	jmp	.L17
.L98:
	.loc 1 244 19 view .LVU229
	movl	(%rax), %r10d
	.loc 1 271 23 view .LVU230
	movq	40(%rsp), %rax
	xorl	%edi, %edi
	movl	$3, %esi
	movq	-8(%rax,%r15,8), %rdx
	.loc 1 244 19 view .LVU231
	movl	%r10d, 36(%rsp)
.LVL69:
	.loc 1 271 23 is_stmt 1 view .LVU232
	call	quotearg_n_style_colon@PLT
.LVL70:
	movl	36(%rsp), %r10d
	xorl	%edi, %edi
	leaq	.LC2(%rip), %rdx
	movq	%rax, %rcx
	xorl	%eax, %eax
	movl	%r10d, %esi
	call	error@PLT
.LVL71:
	.loc 1 272 23 view .LVU233
	.loc 1 274 22 is_stmt 0 view .LVU234
	cmpq	stdin(%rip), %r13
	.loc 1 272 26 view .LVU235
	movb	$0, 36(%rsp)
.LVL72:
	.loc 1 274 19 is_stmt 1 view .LVU236
	.loc 1 275 21 is_stmt 0 view .LVU237
	movq	%r13, %rdi
	.loc 1 274 22 view .LVU238
	jne	.L34
.L99:
	.loc 1 275 21 is_stmt 1 view .LVU239
	call	clearerr_unlocked@PLT
.LVL73:
	jmp	.L35
.LVL74:
.L91:
.LBB158:
	.loc 1 332 24 is_stmt 0 discriminator 2 view .LVU240
	movzbl	line_delim(%rip), %r14d
	jmp	.L47
.LVL75:
.L100:
	.loc 1 332 24 discriminator 2 view .LVU241
.LBE158:
	.loc 1 278 23 is_stmt 1 view .LVU242
	movq	40(%rsp), %rax
	movl	$3, %esi
	xorl	%edi, %edi
	movq	-8(%rax,%r15,8), %rdx
	call	quotearg_n_style_colon@PLT
.LVL76:
	movl	(%r14), %esi
	leaq	.LC2(%rip), %rdx
	xorl	%edi, %edi
	movq	%rax, %rcx
	xorl	%eax, %eax
	call	error@PLT
.LVL77:
	.loc 1 279 23 view .LVU243
	.loc 1 279 26 is_stmt 0 view .LVU244
	movb	$0, 36(%rsp)
	jmp	.L35
.LVL78:
.L95:
.LBB159:
.LBB139:
.LBB138:
.LBB137:
.LBB136:
	.loc 3 110 10 view .LVU245
	movzbl	%r14b, %esi
	call	__overflow@PLT
.LVL79:
	.loc 3 110 10 view .LVU246
.LBE136:
.LBE137:
	.loc 1 171 6 view .LVU247
	testl	%eax, %eax
	jns	.L84
	jmp	.L26
.LVL80:
	.p2align 4,,10
	.p2align 3
.L96:
	.loc 1 171 6 view .LVU248
.LBE138:
.LBE139:
.LBE159:
.LBB160:
.LBB146:
.LBB145:
.LBB144:
	.loc 3 110 10 view .LVU249
	movzbl	%dl, %esi
	movq	%rcx, %rdi
	call	__overflow@PLT
.LVL81:
	.loc 3 110 10 view .LVU250
.LBE144:
.LBE145:
	.loc 1 171 6 view .LVU251
	testl	%eax, %eax
	jns	.L51
	jmp	.L26
.LVL82:
	.p2align 4,,10
	.p2align 3
.L97:
	.loc 1 171 6 view .LVU252
.LBE146:
.LBE160:
.LBB161:
.LBB153:
.LBB152:
.LBB151:
	.loc 3 110 10 view .LVU253
	movzbl	%al, %esi
	call	__overflow@PLT
.LVL83:
	.loc 3 110 10 view .LVU254
.LBE151:
.LBE152:
	.loc 1 171 6 view .LVU255
	testl	%eax, %eax
	jns	.L46
	jmp	.L26
.LVL84:
	.p2align 4,,10
	.p2align 3
.L54:
	.loc 1 171 6 view .LVU256
.LBE153:
.LBE161:
.LBE164:
.LBE166:
.LBE167:
	movq	%r12, 8(%rsp)
	movb	$1, 36(%rsp)
.LVL85:
	.loc 1 171 6 view .LVU257
	jmp	.L50
.LVL86:
.L53:
	.loc 1 203 3 view .LVU258
	movb	$1, 36(%rsp)
	jmp	.L9
.LVL87:
.L88:
.LBB168:
	.loc 1 222 5 is_stmt 1 view .LVU259
	movl	$5, %edx
	leaq	.LC3(%rip), %rsi
	xorl	%edi, %edi
	call	dcgettext@PLT
.LVL88:
	xorl	%esi, %esi
	movl	$1, %edi
	movq	%rax, %rdx
	xorl	%eax, %eax
	call	error@PLT
.LVL89:
	.p2align 4,,10
	.p2align 3
.L86:
	.loc 1 222 5 is_stmt 0 view .LVU260
.LBE168:
.LBB169:
	.loc 1 214 13 is_stmt 1 view .LVU261
	movq	0(%r13), %rdx
	movl	$3, %esi
	xorl	%edi, %edi
	call	quotearg_n_style_colon@PLT
.LVL90:
	movq	%rax, %r12
.LVL91:
	.loc 1 214 13 is_stmt 0 view .LVU262
	call	__errno_location@PLT
.LVL92:
	movq	%r12, %rcx
	movl	$1, %edi
	leaq	.LC2(%rip), %rdx
	movl	(%rax), %esi
	xorl	%eax, %eax
	call	error@PLT
.LVL93:
.L75:
	.loc 1 214 13 view .LVU263
.LBE169:
.LBB170:
.LBB111:
	.loc 2 102 5 is_stmt 1 view .LVU264
	call	xalloc_die@PLT
.LVL94:
.LBE111:
.LBE170:
	.cfi_endproc
.LFE138:
	.size	paste_parallel, .-paste_parallel
	.p2align 4
	.type	paste_serial, @function
paste_serial:
.LVL95:
.LFB139:
	.loc 1 349 1 view -0
	.cfi_startproc
	.loc 1 349 1 is_stmt 0 view .LVU266
	endbr64
	.loc 1 350 3 is_stmt 1 view .LVU267
.LVL96:
	.loc 1 351 3 view .LVU268
	.loc 1 352 3 view .LVU269
	.loc 1 353 3 view .LVU270
	.loc 1 355 3 view .LVU271
	.loc 1 355 10 view .LVU272
	.loc 1 349 1 is_stmt 0 view .LVU273
	pushq	%r15
	.cfi_def_cfa_offset 16
	.cfi_offset 15, -16
	pushq	%r14
	.cfi_def_cfa_offset 24
	.cfi_offset 14, -24
	pushq	%r13
	.cfi_def_cfa_offset 32
	.cfi_offset 13, -32
	pushq	%r12
	.cfi_def_cfa_offset 40
	.cfi_offset 12, -40
	pushq	%rbp
	.cfi_def_cfa_offset 48
	.cfi_offset 6, -48
	pushq	%rbx
	.cfi_def_cfa_offset 56
	.cfi_offset 3, -56
	subq	$24, %rsp
	.cfi_def_cfa_offset 80
	.loc 1 355 3 view .LVU274
	testq	%rdi, %rdi
	je	.L130
	movq	%rdi, %r12
	movq	%rsi, %rbp
	call	__errno_location@PLT
.LVL97:
	.loc 1 350 8 view .LVU275
	movb	$1, 11(%rsp)
	movq	%rax, %r13
.LVL98:
	.p2align 4,,10
	.p2align 3
.L128:
.LBB194:
	.loc 1 357 7 is_stmt 1 view .LVU276
	.loc 1 358 7 view .LVU277
	.loc 1 358 23 is_stmt 0 view .LVU278
	movq	0(%rbp), %rdi
	movzbl	(%rdi), %ebx
	subl	$45, %ebx
	je	.L142
.L104:
	.loc 1 366 11 is_stmt 1 view .LVU279
	.loc 1 366 21 is_stmt 0 view .LVU280
	leaq	.LC1(%rip), %rsi
	call	fopen@PLT
.LVL99:
	movq	%rax, %r14
.LVL100:
	.loc 1 367 11 is_stmt 1 view .LVU281
	.loc 1 367 14 is_stmt 0 view .LVU282
	testq	%rax, %rax
	je	.L140
	.loc 1 373 11 is_stmt 1 view .LVU283
	movl	$2, %esi
	movq	%rax, %rdi
	call	fadvise@PLT
.LVL101:
.L105:
	.loc 1 376 7 view .LVU284
.LBB195:
.LBB196:
	.loc 3 68 10 is_stmt 0 view .LVU285
	movq	8(%r14), %rdx
	movq	16(%r14), %rcx
.LBE196:
.LBE195:
	.loc 1 376 16 view .LVU286
	movq	delims(%rip), %r15
.LVL102:
	.loc 1 378 7 is_stmt 1 view .LVU287
.LBB200:
.LBI195:
	.loc 3 66 1 view .LVU288
.LBB197:
	.loc 3 68 3 view .LVU289
	.loc 3 68 10 is_stmt 0 view .LVU290
	cmpq	%rcx, %rdx
	jnb	.L143
	.loc 3 68 10 view .LVU291
	leaq	1(%rdx), %rax
	movq	%rax, 8(%r14)
	movzbl	(%rdx), %edx
.LVL103:
	.loc 3 68 10 view .LVU292
.LBE197:
.LBE200:
	.loc 1 379 7 is_stmt 1 view .LVU293
	.loc 1 380 7 view .LVU294
	.loc 1 380 7 is_stmt 0 view .LVU295
	jmp	.L111
.LVL104:
	.p2align 4,,10
	.p2align 3
.L147:
	.loc 1 393 19 is_stmt 1 view .LVU296
	.loc 1 393 23 is_stmt 0 view .LVU297
	movzbl	(%r15), %eax
	.loc 1 393 22 view .LVU298
	testb	%al, %al
	jne	.L144
.LVL105:
.L116:
	.loc 1 396 19 is_stmt 1 view .LVU299
	.loc 1 396 22 is_stmt 0 view .LVU300
	addq	$1, %r15
.LVL106:
	.loc 1 396 22 view .LVU301
	cmpq	%r15, delim_end(%rip)
	je	.L145
.L117:
	.loc 1 396 22 view .LVU302
	movq	8(%r14), %rax
	movq	16(%r14), %rcx
.LBE194:
	.loc 1 350 8 view .LVU303
	movl	%r9d, %edx
.L111:
.LVL107:
.LBB253:
	.loc 1 388 17 is_stmt 1 view .LVU304
.LBB201:
.LBI201:
	.loc 3 66 1 view .LVU305
.LBB202:
	.loc 3 68 3 view .LVU306
	.loc 3 68 10 is_stmt 0 view .LVU307
	cmpq	%rcx, %rax
	jnb	.L146
	.loc 3 68 10 view .LVU308
	leaq	1(%rax), %rcx
	movq	%rcx, 8(%r14)
	movzbl	(%rax), %r9d
.LVL108:
.L120:
	.loc 3 68 10 view .LVU309
.LBE202:
.LBE201:
	.loc 1 391 15 is_stmt 1 view .LVU310
	.loc 1 391 27 is_stmt 0 view .LVU311
	movzbl	line_delim(%rip), %eax
	.loc 1 391 18 view .LVU312
	cmpl	%edx, %eax
	je	.L147
	.loc 1 400 17 is_stmt 1 view .LVU313
.LVL109:
.LBB205:
.LBI205:
	.loc 1 169 1 view .LVU314
.LBB206:
	.loc 1 171 3 view .LVU315
.LBB207:
.LBI207:
	.loc 3 108 1 view .LVU316
.LBB208:
	.loc 3 110 3 view .LVU317
	.loc 3 110 10 is_stmt 0 view .LVU318
	movq	stdout(%rip), %rdi
	movq	40(%rdi), %rax
	cmpq	48(%rdi), %rax
	jnb	.L148
	leaq	1(%rax), %rcx
	movq	%rcx, 40(%rdi)
	movb	%dl, (%rax)
.LVL110:
	.loc 3 110 10 view .LVU319
	jmp	.L117
.LVL111:
	.p2align 4,,10
	.p2align 3
.L143:
	.loc 3 110 10 view .LVU320
.LBE208:
.LBE207:
.LBE206:
.LBE205:
.LBB212:
.LBB198:
	.loc 3 68 10 view .LVU321
	movq	%r14, %rdi
	call	__uflow@PLT
.LVL112:
.LBE198:
.LBE212:
	.loc 1 379 19 view .LVU322
	movl	0(%r13), %r9d
.LBB213:
.LBB199:
	.loc 3 68 10 view .LVU323
	movl	%eax, %edx
.LVL113:
	.loc 3 68 10 view .LVU324
.LBE199:
.LBE213:
	.loc 1 379 7 is_stmt 1 view .LVU325
	.loc 1 380 7 view .LVU326
	.loc 1 380 10 is_stmt 0 view .LVU327
	cmpl	$-1, %eax
	jne	.L149
.LVL114:
	.loc 1 410 7 is_stmt 1 view .LVU328
	.loc 1 410 19 is_stmt 0 view .LVU329
	movzbl	line_delim(%rip), %eax
.LVL115:
.L129:
	.loc 1 411 9 is_stmt 1 view .LVU330
.LBB214:
.LBI214:
	.loc 1 169 1 view .LVU331
.LBB215:
	.loc 1 171 3 view .LVU332
.LBB216:
.LBI216:
	.loc 3 108 1 view .LVU333
.LBB217:
	.loc 3 110 3 view .LVU334
	.loc 3 110 10 is_stmt 0 view .LVU335
	movq	stdout(%rip), %rdi
	movq	40(%rdi), %rdx
	cmpq	48(%rdi), %rdx
	jnb	.L150
	.loc 3 110 10 view .LVU336
	leaq	1(%rdx), %rcx
	movq	%rcx, 40(%rdi)
	movb	%al, (%rdx)
.LVL116:
.L124:
	.loc 3 110 10 view .LVU337
.LBE217:
.LBE216:
.LBE215:
.LBE214:
	.loc 1 413 7 is_stmt 1 view .LVU338
.LBB221:
.LBI221:
	.loc 3 135 1 view .LVU339
.LBB222:
	.loc 3 137 3 view .LVU340
	.loc 3 137 3 is_stmt 0 view .LVU341
.LBE222:
.LBE221:
	.loc 1 413 10 view .LVU342
	testb	$32, (%r14)
	jne	.L151
.LVL117:
.L126:
	.loc 1 418 7 is_stmt 1 view .LVU343
	.loc 1 419 9 is_stmt 0 view .LVU344
	movq	%r14, %rdi
	.loc 1 418 10 view .LVU345
	testl	%ebx, %ebx
	jne	.L127
.LVL118:
	.loc 1 419 9 is_stmt 1 view .LVU346
	call	clearerr_unlocked@PLT
.LVL119:
.L107:
	.loc 1 419 9 is_stmt 0 view .LVU347
.LBE253:
	.loc 1 355 18 is_stmt 1 view .LVU348
	.loc 1 355 35 is_stmt 0 view .LVU349
	addq	$8, %rbp
.LVL120:
	.loc 1 355 10 is_stmt 1 view .LVU350
	.loc 1 355 3 is_stmt 0 view .LVU351
	subq	$1, %r12
.LVL121:
	.loc 1 355 3 view .LVU352
	jne	.L128
.LVL122:
.L101:
	.loc 1 427 1 view .LVU353
	movzbl	11(%rsp), %eax
	addq	$24, %rsp
	.cfi_remember_state
	.cfi_def_cfa_offset 56
	popq	%rbx
	.cfi_def_cfa_offset 48
	popq	%rbp
	.cfi_def_cfa_offset 40
	popq	%r12
	.cfi_def_cfa_offset 32
	popq	%r13
	.cfi_def_cfa_offset 24
	popq	%r14
	.cfi_def_cfa_offset 16
	popq	%r15
	.cfi_def_cfa_offset 8
	ret
.LVL123:
	.p2align 4,,10
	.p2align 3
.L144:
	.cfi_restore_state
.LBB254:
	.loc 1 394 21 is_stmt 1 view .LVU354
.LBB224:
.LBI224:
	.loc 1 169 1 view .LVU355
.LBB225:
	.loc 1 171 3 view .LVU356
.LBB226:
.LBI226:
	.loc 3 108 1 view .LVU357
.LBB227:
	.loc 3 110 3 view .LVU358
	.loc 3 110 10 is_stmt 0 view .LVU359
	movq	stdout(%rip), %rdi
	movq	40(%rdi), %rdx
	cmpq	48(%rdi), %rdx
	jnb	.L152
	leaq	1(%rdx), %rcx
.LBE227:
.LBE226:
.LBE225:
.LBE224:
	.loc 1 396 22 view .LVU360
	addq	$1, %r15
.LVL124:
	.loc 1 396 22 view .LVU361
	cmpq	%r15, delim_end(%rip)
.LBB234:
.LBB232:
.LBB230:
.LBB228:
	.loc 3 110 10 view .LVU362
	movq	%rcx, 40(%rdi)
	movb	%al, (%rdx)
.LVL125:
	.loc 3 110 10 view .LVU363
.LBE228:
.LBE230:
.LBE232:
.LBE234:
	.loc 1 396 19 is_stmt 1 view .LVU364
	.loc 1 396 22 is_stmt 0 view .LVU365
	jne	.L117
.LVL126:
.L145:
	.loc 1 397 21 is_stmt 1 view .LVU366
	.loc 1 397 30 is_stmt 0 view .LVU367
	movq	delims(%rip), %r15
.LVL127:
	.loc 1 397 30 view .LVU368
	jmp	.L117
.LVL128:
	.p2align 4,,10
	.p2align 3
.L142:
	.loc 1 358 23 view .LVU369
	movzbl	1(%rdi), %ebx
.LVL129:
	.loc 1 359 7 is_stmt 1 view .LVU370
	.loc 1 359 10 is_stmt 0 view .LVU371
	testl	%ebx, %ebx
	jne	.L104
	.loc 1 361 11 is_stmt 1 view .LVU372
	.loc 1 361 27 is_stmt 0 view .LVU373
	movb	$1, have_read_stdin(%rip)
	.loc 1 362 11 is_stmt 1 view .LVU374
	.loc 1 362 19 is_stmt 0 view .LVU375
	movq	stdin(%rip), %r14
.LVL130:
	.loc 1 362 19 view .LVU376
	jmp	.L105
.LVL131:
	.p2align 4,,10
	.p2align 3
.L127:
	.loc 1 420 12 is_stmt 1 view .LVU377
	.loc 1 420 16 is_stmt 0 view .LVU378
	call	rpl_fclose@PLT
.LVL132:
	.loc 1 420 15 view .LVU379
	cmpl	$-1, %eax
	jne	.L107
.LVL133:
.L140:
	.loc 1 422 11 is_stmt 1 view .LVU380
	movq	0(%rbp), %rdx
	movl	$3, %esi
	xorl	%edi, %edi
	call	quotearg_n_style_colon@PLT
.LVL134:
	movl	0(%r13), %esi
	leaq	.LC2(%rip), %rdx
	xorl	%edi, %edi
	movq	%rax, %rcx
	xorl	%eax, %eax
	call	error@PLT
.LVL135:
	.loc 1 423 11 view .LVU381
	.loc 1 423 14 is_stmt 0 view .LVU382
	movb	$0, 11(%rsp)
	jmp	.L107
.LVL136:
	.p2align 4,,10
	.p2align 3
.L146:
.LBB235:
.LBB203:
	.loc 3 68 10 view .LVU383
	movq	%r14, %rdi
	movl	%edx, 4(%rsp)
	call	__uflow@PLT
.LVL137:
	.loc 3 68 10 view .LVU384
.LBE203:
.LBE235:
	.loc 1 388 17 view .LVU385
	movl	4(%rsp), %edx
	cmpl	$-1, %eax
.LBB236:
.LBB204:
	.loc 3 68 10 view .LVU386
	movl	%eax, %r9d
.LVL138:
	.loc 3 68 10 view .LVU387
.LBE204:
.LBE236:
	.loc 1 388 17 view .LVU388
	jne	.L120
	.loc 1 404 11 is_stmt 1 view .LVU389
.LBB237:
.LBB238:
.LBB239:
.LBB240:
	.loc 3 110 10 is_stmt 0 view .LVU390
	movq	stdout(%rip), %rdi
.LBE240:
.LBE239:
.LBE238:
.LBE237:
	.loc 1 404 23 view .LVU391
	movl	0(%r13), %r9d
.LVL139:
	.loc 1 407 11 is_stmt 1 view .LVU392
.LBB247:
.LBI237:
	.loc 1 169 1 view .LVU393
.LBB245:
	.loc 1 171 3 view .LVU394
.LBB243:
.LBI239:
	.loc 3 108 1 view .LVU395
.LBB241:
	.loc 3 110 3 view .LVU396
	.loc 3 110 10 is_stmt 0 view .LVU397
	movq	40(%rdi), %rax
.LVL140:
	.loc 3 110 10 view .LVU398
	cmpq	48(%rdi), %rax
	jnb	.L153
	leaq	1(%rax), %rcx
	movq	%rcx, 40(%rdi)
	movb	%dl, (%rax)
.LVL141:
.L123:
	.loc 3 110 10 view .LVU399
.LBE241:
.LBE243:
.LBE245:
.LBE247:
	.loc 1 410 7 is_stmt 1 view .LVU400
	.loc 1 410 19 is_stmt 0 view .LVU401
	movzbl	line_delim(%rip), %ecx
	movl	%ecx, %eax
	.loc 1 410 10 view .LVU402
	cmpl	%edx, %ecx
	jne	.L129
	.loc 1 413 7 is_stmt 1 view .LVU403
.LVL142:
.LBB248:
	.loc 3 135 1 view .LVU404
.LBB223:
	.loc 3 137 3 view .LVU405
	.loc 3 137 3 is_stmt 0 view .LVU406
.LBE223:
.LBE248:
	.loc 1 413 10 view .LVU407
	testb	$32, (%r14)
	je	.L126
.LVL143:
.L151:
	.loc 1 415 11 view .LVU408
	movq	0(%rbp), %rdx
	movl	$3, %esi
	xorl	%edi, %edi
	movl	%r9d, 4(%rsp)
	.loc 1 415 11 is_stmt 1 view .LVU409
	call	quotearg_n_style_colon@PLT
.LVL144:
	movl	4(%rsp), %r9d
	leaq	.LC2(%rip), %rdx
	xorl	%edi, %edi
	movq	%rax, %rcx
	xorl	%eax, %eax
	movl	%r9d, %esi
	call	error@PLT
.LVL145:
	.loc 1 416 11 view .LVU410
	.loc 1 416 14 is_stmt 0 view .LVU411
	movb	$0, 11(%rsp)
	jmp	.L126
.LVL146:
	.p2align 4,,10
	.p2align 3
.L148:
.LBB249:
.LBB211:
.LBB210:
.LBB209:
	.loc 3 110 10 view .LVU412
	movzbl	%dl, %esi
	movl	%r9d, 4(%rsp)
	call	__overflow@PLT
.LVL147:
	.loc 3 110 10 view .LVU413
.LBE209:
.LBE210:
	.loc 1 171 6 view .LVU414
	movl	4(%rsp), %r9d
	testl	%eax, %eax
	jns	.L117
.LVL148:
.L115:
	.loc 1 171 6 view .LVU415
.LBE211:
.LBE249:
.LBB250:
.LBB233:
	.loc 1 172 5 is_stmt 1 view .LVU416
	call	write_error
.LVL149:
	.p2align 4,,10
	.p2align 3
.L152:
.LBB231:
.LBB229:
	.loc 3 110 10 is_stmt 0 view .LVU417
	movzbl	%al, %esi
	movl	%r9d, 4(%rsp)
	call	__overflow@PLT
.LVL150:
	.loc 3 110 10 view .LVU418
.LBE229:
.LBE231:
	.loc 1 171 6 view .LVU419
	movl	4(%rsp), %r9d
	testl	%eax, %eax
	jns	.L116
	.loc 1 171 6 view .LVU420
	jmp	.L115
.LVL151:
	.p2align 4,,10
	.p2align 3
.L150:
	.loc 1 171 6 view .LVU421
.LBE233:
.LBE250:
.LBB251:
.LBB220:
.LBB219:
.LBB218:
	.loc 3 110 10 view .LVU422
	movzbl	%al, %esi
	movl	%r9d, 4(%rsp)
	call	__overflow@PLT
.LVL152:
	.loc 3 110 10 view .LVU423
.LBE218:
.LBE219:
	.loc 1 171 6 view .LVU424
	movl	4(%rsp), %r9d
	testl	%eax, %eax
	jns	.L124
	.loc 1 171 6 view .LVU425
	jmp	.L115
.LVL153:
	.p2align 4,,10
	.p2align 3
.L153:
	.loc 1 171 6 view .LVU426
.LBE220:
.LBE251:
.LBB252:
.LBB246:
.LBB244:
.LBB242:
	.loc 3 110 10 view .LVU427
	movzbl	%dl, %esi
	movl	%r9d, 12(%rsp)
	movl	%edx, 4(%rsp)
.LVL154:
	.loc 3 110 10 view .LVU428
	call	__overflow@PLT
.LVL155:
	.loc 3 110 10 view .LVU429
.LBE242:
.LBE244:
	.loc 1 171 6 view .LVU430
	movl	4(%rsp), %edx
	movl	12(%rsp), %r9d
	testl	%eax, %eax
	jns	.L123
	.loc 1 171 6 view .LVU431
	jmp	.L115
.LVL156:
	.p2align 4,,10
	.p2align 3
.L130:
	.loc 1 171 6 view .LVU432
.LBE246:
.LBE252:
.LBE254:
	.loc 1 350 8 view .LVU433
	movb	$1, 11(%rsp)
	.loc 1 426 3 is_stmt 1 view .LVU434
	.loc 1 426 10 is_stmt 0 view .LVU435
	jmp	.L101
.LVL157:
.L149:
	.loc 1 426 10 view .LVU436
	movq	8(%r14), %rax
.LVL158:
	.loc 1 426 10 view .LVU437
	movq	16(%r14), %rcx
	jmp	.L111
	.cfi_endproc
.LFE139:
	.size	paste_serial, .-paste_serial
	.section	.rodata.str1.1
.LC4:
	.string	"paste"
.LC5:
	.string	" invocation"
.LC6:
	.string	""
	.section	.rodata.str1.8,"aMS",@progbits,1
	.align 8
.LC7:
	.string	"Try '%s --help' for more information.\n"
	.align 8
.LC8:
	.string	"Usage: %s [OPTION]... [FILE]...\n"
	.align 8
.LC9:
	.string	"Write lines consisting of the sequentially corresponding lines from\neach FILE, separated by TABs, to standard output.\n"
	.align 8
.LC10:
	.string	"\nWith no FILE, or when FILE is -, read standard input.\n"
	.align 8
.LC11:
	.string	"\nMandatory arguments to long options are mandatory for short options too.\n"
	.align 8
.LC12:
	.string	"  -d, --delimiters=LIST   reuse characters from LIST instead of TABs\n  -s, --serial            paste one file at a time instead of in parallel\n"
	.align 8
.LC13:
	.string	"  -z, --zero-terminated    line delimiter is NUL, not newline\n"
	.align 8
.LC14:
	.string	"      --help     display this help and exit\n"
	.align 8
.LC15:
	.string	"      --version  output version information and exit\n"
	.section	.rodata.str1.1
.LC16:
	.string	"["
.LC17:
	.string	"test invocation"
.LC18:
	.string	"coreutils"
.LC19:
	.string	"Multi-call invocation"
.LC20:
	.string	"sha224sum"
.LC21:
	.string	"sha2 utilities"
.LC22:
	.string	"sha256sum"
.LC23:
	.string	"sha384sum"
.LC24:
	.string	"sha512sum"
.LC25:
	.string	"\n%s online help: <%s>\n"
	.section	.rodata.str1.8
	.align 8
.LC26:
	.string	"https://www.gnu.org/software/coreutils/"
	.section	.rodata.str1.1
.LC27:
	.string	"GNU coreutils"
.LC28:
	.string	"en_"
	.section	.rodata.str1.8
	.align 8
.LC29:
	.string	"Report any translation bugs to <https://translationproject.org/team/>\n"
	.section	.rodata.str1.1
.LC30:
	.string	"Full documentation <%s%s>\n"
	.section	.rodata.str1.8
	.align 8
.LC31:
	.string	"or available locally via: info '(coreutils) %s%s'\n"
	.text
	.p2align 4
	.globl	usage
	.type	usage, @function
usage:
.LVL159:
.LFB140:
	.loc 1 431 1 is_stmt 1 view -0
	.cfi_startproc
	.loc 1 431 1 is_stmt 0 view .LVU439
	endbr64
	pushq	%r13
	.cfi_def_cfa_offset 16
	.cfi_offset 13, -16
	.loc 1 433 5 view .LVU440
	movl	$5, %edx
	.loc 1 431 1 view .LVU441
	pushq	%r12
	.cfi_def_cfa_offset 24
	.cfi_offset 12, -24
	pushq	%rbp
	.cfi_def_cfa_offset 32
	.cfi_offset 6, -32
	movl	%edi, %ebp
	pushq	%rbx
	.cfi_def_cfa_offset 40
	.cfi_offset 3, -40
	subq	$136, %rsp
	.cfi_def_cfa_offset 176
	movq	program_name(%rip), %r12
	.loc 1 431 1 view .LVU442
	movq	%fs:40, %rax
	movq	%rax, 120(%rsp)
	xorl	%eax, %eax
	.loc 1 432 3 is_stmt 1 view .LVU443
	.loc 1 432 6 is_stmt 0 view .LVU444
	testl	%edi, %edi
	je	.L155
	.loc 1 433 5 is_stmt 1 view .LVU445
	.loc 1 433 5 view .LVU446
	leaq	.LC7(%rip), %rsi
	xorl	%edi, %edi
.LVL160:
	.loc 1 433 5 is_stmt 0 view .LVU447
	call	dcgettext@PLT
.LVL161:
.LBB271:
.LBB272:
	.file 4 "/usr/include/x86_64-linux-gnu/bits/stdio2.h"
	.loc 4 100 10 view .LVU448
	movq	stderr(%rip), %rdi
	movq	%r12, %rcx
	movl	$1, %esi
.LBE272:
.LBE271:
	.loc 1 433 5 view .LVU449
	movq	%rax, %rdx
.LVL162:
.LBB274:
.LBI271:
	.loc 4 98 1 is_stmt 1 view .LVU450
.LBB273:
	.loc 4 100 3 view .LVU451
	.loc 4 100 10 is_stmt 0 view .LVU452
	xorl	%eax, %eax
.LVL163:
	.loc 4 100 10 view .LVU453
	call	__fprintf_chk@PLT
.LVL164:
.L156:
	.loc 4 100 10 view .LVU454
.LBE273:
.LBE274:
	.loc 1 460 3 is_stmt 1 view .LVU455
	movl	%ebp, %edi
	call	exit@PLT
.LVL165:
.L155:
	.loc 1 436 7 view .LVU456
	.loc 1 436 15 is_stmt 0 view .LVU457
	leaq	.LC8(%rip), %rsi
	xorl	%edi, %edi
.LVL166:
.LBB275:
.LBB276:
	.file 5 "src/system.h"
	.loc 5 636 67 view .LVU458
	leaq	.LC22(%rip), %rbx
.LBE276:
.LBE275:
	.loc 1 436 15 view .LVU459
	call	dcgettext@PLT
.LVL167:
.LBB302:
.LBB303:
	.loc 4 107 10 view .LVU460
	movq	%r12, %rdx
	movl	$1, %edi
.LBE303:
.LBE302:
	.loc 1 436 15 view .LVU461
	movq	%rax, %rsi
.LVL168:
.LBB305:
.LBI302:
	.loc 4 105 1 is_stmt 1 view .LVU462
.LBB304:
	.loc 4 107 3 view .LVU463
	.loc 4 107 10 is_stmt 0 view .LVU464
	xorl	%eax, %eax
.LVL169:
	.loc 4 107 10 view .LVU465
	call	__printf_chk@PLT
.LVL170:
	.loc 4 107 10 view .LVU466
.LBE304:
.LBE305:
	.loc 1 440 7 is_stmt 1 view .LVU467
	movq	stdout(%rip), %r12
	movl	$5, %edx
	xorl	%edi, %edi
	leaq	.LC9(%rip), %rsi
	call	dcgettext@PLT
.LVL171:
	movq	%r12, %rsi
	movq	%rax, %rdi
	call	fputs_unlocked@PLT
.LVL172:
	.loc 1 445 7 view .LVU468
.LBB306:
.LBI306:
	.loc 5 581 1 view .LVU469
.LBB307:
	.loc 5 583 3 view .LVU470
	movq	stdout(%rip), %r12
	movl	$5, %edx
	xorl	%edi, %edi
	leaq	.LC10(%rip), %rsi
	call	dcgettext@PLT
.LVL173:
	movq	%r12, %rsi
	movq	%rax, %rdi
	call	fputs_unlocked@PLT
.LVL174:
.LBE307:
.LBE306:
	.loc 1 446 7 view .LVU471
.LBB308:
.LBI308:
	.loc 5 588 1 view .LVU472
.LBB309:
	.loc 5 590 3 view .LVU473
	movq	stdout(%rip), %r12
	movl	$5, %edx
	xorl	%edi, %edi
	leaq	.LC11(%rip), %rsi
	call	dcgettext@PLT
.LVL175:
	movq	%r12, %rsi
	movq	%rax, %rdi
	call	fputs_unlocked@PLT
.LVL176:
.LBE309:
.LBE308:
	.loc 1 448 7 view .LVU474
	movq	stdout(%rip), %r12
	movl	$5, %edx
	xorl	%edi, %edi
	leaq	.LC12(%rip), %rsi
	call	dcgettext@PLT
.LVL177:
	movq	%r12, %rsi
	movq	%rax, %rdi
	call	fputs_unlocked@PLT
.LVL178:
	.loc 1 452 7 view .LVU475
	movq	stdout(%rip), %r12
	movl	$5, %edx
	xorl	%edi, %edi
	leaq	.LC13(%rip), %rsi
	call	dcgettext@PLT
.LVL179:
	movq	%r12, %rsi
	movq	%rax, %rdi
	call	fputs_unlocked@PLT
.LVL180:
	.loc 1 455 7 view .LVU476
	movq	stdout(%rip), %r12
	movl	$5, %edx
	xorl	%edi, %edi
	leaq	.LC14(%rip), %rsi
	call	dcgettext@PLT
.LVL181:
	movq	%r12, %rsi
	movq	%rax, %rdi
	call	fputs_unlocked@PLT
.LVL182:
	.loc 1 456 7 view .LVU477
	movq	stdout(%rip), %r12
	movl	$5, %edx
	xorl	%edi, %edi
	leaq	.LC15(%rip), %rsi
	call	dcgettext@PLT
.LVL183:
	movq	%r12, %rsi
	movq	%rax, %rdi
	call	fputs_unlocked@PLT
.LVL184:
	.loc 1 458 7 view .LVU478
.LBB310:
.LBI275:
	.loc 5 634 1 view .LVU479
.LBB301:
	.loc 5 636 3 view .LVU480
	.loc 5 636 67 is_stmt 0 view .LVU481
	leaq	.LC16(%rip), %rax
	movq	%rbx, 48(%rsp)
	leaq	.LC23(%rip), %rbx
	movq	%rax, (%rsp)
	leaq	.LC17(%rip), %rax
	movq	%rax, 8(%rsp)
	leaq	.LC18(%rip), %rax
	movq	%rax, 16(%rsp)
	leaq	.LC19(%rip), %rax
	movq	%rax, 24(%rsp)
	leaq	.LC20(%rip), %rax
	movq	$0, 96(%rsp)
	movq	$0, 104(%rsp)
	.loc 5 646 3 is_stmt 1 view .LVU482
.LVL185:
	.loc 5 647 3 view .LVU483
	.loc 5 649 3 view .LVU484
	.loc 5 649 9 view .LVU485
	.loc 5 636 67 is_stmt 0 view .LVU486
	movq	%rax, 32(%rsp)
	leaq	.LC21(%rip), %rax
	movq	%rbx, 64(%rsp)
	leaq	.LC24(%rip), %rbx
	movq	%rax, 40(%rsp)
	movq	%rax, 56(%rsp)
	movq	%rax, 72(%rsp)
	movq	%rbx, 80(%rsp)
	leaq	.LC4(%rip), %rbx
	movq	%rax, 88(%rsp)
	.loc 5 647 25 view .LVU487
	movq	%rsp, %rax
.LVL186:
	.p2align 4,,10
	.p2align 3
.L158:
	.loc 5 650 5 is_stmt 1 view .LVU488
	.loc 5 649 18 is_stmt 0 view .LVU489
	movq	16(%rax), %rdi
	.loc 5 650 13 view .LVU490
	addq	$16, %rax
.LVL187:
	.loc 5 649 9 is_stmt 1 view .LVU491
	testq	%rdi, %rdi
	je	.L157
	.loc 5 649 33 is_stmt 0 view .LVU492
	movl	$6, %ecx
	movq	%rbx, %rsi
	repz cmpsb
	seta	%dl
	sbbb	$0, %dl
	.loc 5 649 28 view .LVU493
	testb	%dl, %dl
	jne	.L158
.L157:
	.loc 5 652 3 is_stmt 1 view .LVU494
	.loc 5 652 15 is_stmt 0 view .LVU495
	movq	8(%rax), %r12
	.loc 5 655 11 view .LVU496
	movl	$5, %edx
	leaq	.LC25(%rip), %rsi
	xorl	%edi, %edi
	.loc 5 652 6 view .LVU497
	testq	%r12, %r12
	je	.L159
	.loc 5 653 5 is_stmt 1 view .LVU498
.LVL188:
	.loc 5 655 3 view .LVU499
	.loc 5 655 11 is_stmt 0 view .LVU500
	call	dcgettext@PLT
.LVL189:
.LBB277:
.LBB278:
	.loc 4 107 10 view .LVU501
	leaq	.LC26(%rip), %rcx
	movl	$1, %edi
	leaq	.LC27(%rip), %rdx
.LBE278:
.LBE277:
	.loc 5 655 11 view .LVU502
	movq	%rax, %rsi
.LVL190:
.LBB282:
.LBI277:
	.loc 4 105 1 is_stmt 1 view .LVU503
.LBB279:
	.loc 4 107 3 view .LVU504
	.loc 4 107 10 is_stmt 0 view .LVU505
	xorl	%eax, %eax
.LVL191:
	.loc 4 107 10 view .LVU506
	call	__printf_chk@PLT
.LVL192:
	.loc 4 107 10 view .LVU507
.LBE279:
.LBE282:
	.loc 5 659 3 is_stmt 1 view .LVU508
	.loc 5 659 29 is_stmt 0 view .LVU509
	movl	$5, %edi
	xorl	%esi, %esi
	call	setlocale@PLT
.LVL193:
	movq	%rax, %rdi
.LVL194:
	.loc 5 660 3 is_stmt 1 view .LVU510
	.loc 5 660 6 is_stmt 0 view .LVU511
	testq	%rax, %rax
	je	.L160
	.loc 5 660 22 view .LVU512
	movl	$3, %edx
	leaq	.LC28(%rip), %rsi
	call	strncmp@PLT
.LVL195:
	.loc 5 660 19 view .LVU513
	testl	%eax, %eax
	jne	.L163
.LVL196:
.L160:
	.loc 5 669 3 is_stmt 1 view .LVU514
	.loc 5 669 11 is_stmt 0 view .LVU515
	xorl	%edi, %edi
	movl	$5, %edx
	leaq	.LC30(%rip), %rsi
	call	dcgettext@PLT
.LVL197:
.LBB283:
.LBB284:
	.loc 4 107 10 view .LVU516
	leaq	.LC4(%rip), %rcx
	leaq	.LC26(%rip), %rdx
	movl	$1, %edi
.LBE284:
.LBE283:
	.loc 5 669 11 view .LVU517
	movq	%rax, %rsi
.LVL198:
.LBB290:
.LBI283:
	.loc 4 105 1 is_stmt 1 view .LVU518
.LBB285:
	.loc 4 107 3 view .LVU519
	.loc 4 107 10 is_stmt 0 view .LVU520
	xorl	%eax, %eax
.LVL199:
	.loc 4 107 10 view .LVU521
.LBE285:
.LBE290:
	.loc 5 671 3 view .LVU522
	leaq	.LC5(%rip), %r13
.LBB291:
.LBB286:
	.loc 4 107 10 view .LVU523
	call	__printf_chk@PLT
.LVL200:
	.loc 4 107 10 view .LVU524
.LBE286:
.LBE291:
	.loc 5 671 3 is_stmt 1 view .LVU525
	cmpq	%rbx, %r12
	leaq	.LC6(%rip), %rcx
	cmovne	%rcx, %r13
.L161:
	.loc 5 671 11 is_stmt 0 view .LVU526
	xorl	%edi, %edi
	leaq	.LC31(%rip), %rsi
	movl	$5, %edx
	call	dcgettext@PLT
.LVL201:
.LBB292:
.LBB293:
	.loc 4 107 10 view .LVU527
	movq	%r13, %rcx
	movq	%r12, %rdx
	movl	$1, %edi
.LBE293:
.LBE292:
	.loc 5 671 11 view .LVU528
	movq	%rax, %rsi
.LVL202:
.LBB295:
.LBI292:
	.loc 4 105 1 is_stmt 1 view .LVU529
.LBB294:
	.loc 4 107 3 view .LVU530
	.loc 4 107 10 is_stmt 0 view .LVU531
	xorl	%eax, %eax
.LVL203:
	.loc 4 107 10 view .LVU532
	call	__printf_chk@PLT
.LVL204:
	.loc 4 107 10 view .LVU533
.LBE294:
.LBE295:
	.loc 5 673 1 view .LVU534
	jmp	.L156
.LVL205:
.L159:
	.loc 5 655 3 is_stmt 1 view .LVU535
	.loc 5 655 11 is_stmt 0 view .LVU536
	call	dcgettext@PLT
.LVL206:
.LBB296:
.LBB280:
	.loc 4 107 10 view .LVU537
	leaq	.LC26(%rip), %rcx
	movl	$1, %edi
	leaq	.LC27(%rip), %rdx
.LBE280:
.LBE296:
	.loc 5 655 11 view .LVU538
	movq	%rax, %rsi
.LVL207:
.LBB297:
	.loc 4 105 1 is_stmt 1 view .LVU539
.LBB281:
	.loc 4 107 3 view .LVU540
	.loc 4 107 10 is_stmt 0 view .LVU541
	xorl	%eax, %eax
.LVL208:
	.loc 4 107 10 view .LVU542
	call	__printf_chk@PLT
.LVL209:
	.loc 4 107 10 view .LVU543
.LBE281:
.LBE297:
	.loc 5 659 3 is_stmt 1 view .LVU544
	.loc 5 659 29 is_stmt 0 view .LVU545
	movl	$5, %edi
	xorl	%esi, %esi
	call	setlocale@PLT
.LVL210:
	movq	%rax, %rdi
.LVL211:
	.loc 5 660 3 is_stmt 1 view .LVU546
	.loc 5 660 6 is_stmt 0 view .LVU547
	testq	%rax, %rax
	je	.L162
	.loc 5 660 22 view .LVU548
	movl	$3, %edx
	leaq	.LC28(%rip), %rsi
	call	strncmp@PLT
.LVL212:
	.loc 5 660 19 view .LVU549
	testl	%eax, %eax
	jne	.L181
.L162:
	.loc 5 669 3 is_stmt 1 view .LVU550
	.loc 5 669 11 is_stmt 0 view .LVU551
	movl	$5, %edx
	leaq	.LC30(%rip), %rsi
	xorl	%edi, %edi
	call	dcgettext@PLT
.LVL213:
.LBB298:
.LBB287:
	.loc 4 107 10 view .LVU552
	leaq	.LC4(%rip), %rcx
	leaq	.LC26(%rip), %rdx
	movl	$1, %edi
.LBE287:
.LBE298:
	.loc 5 669 11 view .LVU553
	movq	%rax, %rsi
.LVL214:
.LBB299:
	.loc 4 105 1 is_stmt 1 view .LVU554
.LBB288:
	.loc 4 107 3 view .LVU555
	.loc 4 107 10 is_stmt 0 view .LVU556
	xorl	%eax, %eax
.LVL215:
	.loc 4 107 10 view .LVU557
.LBE288:
.LBE299:
	.loc 5 646 15 view .LVU558
	leaq	.LC4(%rip), %r12
.LBB300:
.LBB289:
	.loc 4 107 10 view .LVU559
	call	__printf_chk@PLT
.LVL216:
	.loc 4 107 10 view .LVU560
.LBE289:
.LBE300:
	.loc 5 671 3 is_stmt 1 view .LVU561
	leaq	.LC5(%rip), %r13
	jmp	.L161
.L181:
	.loc 5 646 15 is_stmt 0 view .LVU562
	leaq	.LC4(%rip), %r12
.LVL217:
.L163:
	.loc 5 666 7 is_stmt 1 view .LVU563
	movq	stdout(%rip), %r13
	xorl	%edi, %edi
	movl	$5, %edx
	leaq	.LC29(%rip), %rsi
	call	dcgettext@PLT
.LVL218:
	movq	%rax, %rdi
	movq	%r13, %rsi
	call	fputs_unlocked@PLT
.LVL219:
	jmp	.L160
.LBE301:
.LBE310:
	.cfi_endproc
.LFE140:
	.size	usage, .-usage
	.section	.rodata.str1.1
.LC32:
	.string	"\\0"
.LC33:
	.string	"\t"
.LC34:
	.string	"/usr/local/share/locale"
.LC35:
	.string	"David MacKenzie"
.LC36:
	.string	"David M. Ihnat"
.LC37:
	.string	"d:sz"
.LC38:
	.string	"-"
	.section	.rodata.str1.8
	.align 8
.LC39:
	.string	"delimiter list ends with an unescaped backslash: %s"
	.section	.text.startup,"ax",@progbits
	.p2align 4
	.globl	main
	.type	main, @function
main:
.LVL220:
.LFB141:
	.loc 1 465 1 view -0
	.cfi_startproc
	.loc 1 465 1 is_stmt 0 view .LVU565
	endbr64
	.loc 1 466 3 is_stmt 1 view .LVU566
	.loc 1 467 3 view .LVU567
.LVL221:
	.loc 1 469 33 view .LVU568
	.loc 1 470 3 view .LVU569
	.loc 1 465 1 is_stmt 0 view .LVU570
	pushq	%r13
	.cfi_def_cfa_offset 16
	.cfi_offset 13, -16
	.loc 1 486 50 view .LVU571
	leaq	.LC32(%rip), %r13
	.loc 1 465 1 view .LVU572
	pushq	%r12
	.cfi_def_cfa_offset 24
	.cfi_offset 12, -24
	.loc 1 467 15 view .LVU573
	leaq	.LC33(%rip), %r12
	.loc 1 465 1 view .LVU574
	pushq	%rbp
	.cfi_def_cfa_offset 32
	.cfi_offset 6, -32
	movl	%edi, %ebp
	pushq	%rbx
	.cfi_def_cfa_offset 40
	.cfi_offset 3, -40
	movq	%rsi, %rbx
	subq	$8, %rsp
	.cfi_def_cfa_offset 48
	.loc 1 470 3 view .LVU575
	movq	(%rsi), %rdi
.LVL222:
	.loc 1 470 3 view .LVU576
	call	set_program_name@PLT
.LVL223:
	.loc 1 471 3 is_stmt 1 view .LVU577
	leaq	.LC6(%rip), %rsi
	movl	$6, %edi
	call	setlocale@PLT
.LVL224:
	.loc 1 472 3 view .LVU578
	leaq	.LC34(%rip), %rsi
	leaq	.LC18(%rip), %rdi
	call	bindtextdomain@PLT
.LVL225:
	.loc 1 473 3 view .LVU579
	leaq	.LC18(%rip), %rdi
	call	textdomain@PLT
.LVL226:
	.loc 1 475 3 view .LVU580
	movq	close_stdout@GOTPCREL(%rip), %rdi
	call	atexit@PLT
.LVL227:
	.loc 1 477 3 view .LVU581
	.loc 1 477 19 is_stmt 0 view .LVU582
	movb	$0, have_read_stdin(%rip)
	.loc 1 478 3 is_stmt 1 view .LVU583
	.loc 1 478 16 is_stmt 0 view .LVU584
	movb	$0, serial_merge(%rip)
	.loc 1 480 3 is_stmt 1 view .LVU585
.LVL228:
.L183:
	.loc 1 480 9 view .LVU586
	.loc 1 480 18 is_stmt 0 view .LVU587
	xorl	%r8d, %r8d
	leaq	longopts(%rip), %rcx
	movq	%rbx, %rsi
	movl	%ebp, %edi
	leaq	.LC37(%rip), %rdx
	call	getopt_long@PLT
.LVL229:
	.loc 1 480 9 view .LVU588
	cmpl	$-1, %eax
	je	.L223
	.loc 1 482 7 is_stmt 1 view .LVU589
	cmpl	$100, %eax
	je	.L184
	jle	.L224
	cmpl	$115, %eax
	jne	.L225
	.loc 1 490 11 view .LVU590
	.loc 1 490 24 is_stmt 0 view .LVU591
	movb	$1, serial_merge(%rip)
	.loc 1 491 11 is_stmt 1 view .LVU592
	jmp	.L183
	.p2align 4,,10
	.p2align 3
.L224:
	.loc 1 482 7 is_stmt 0 view .LVU593
	cmpl	$-131, %eax
	jne	.L226
	.loc 1 497 9 is_stmt 1 view .LVU594
	.loc 1 497 30 view .LVU595
	.loc 1 499 9 view .LVU596
	subq	$8, %rsp
	.cfi_remember_state
	.cfi_def_cfa_offset 56
	movq	stdout(%rip), %rdi
	xorl	%eax, %eax
.LVL230:
	.loc 1 499 9 is_stmt 0 view .LVU597
	movq	Version(%rip), %rcx
	pushq	$0
	.cfi_def_cfa_offset 64
	leaq	.LC35(%rip), %r9
	leaq	.LC36(%rip), %r8
	leaq	.LC27(%rip), %rdx
	leaq	.LC4(%rip), %rsi
	call	version_etc@PLT
.LVL231:
	.loc 1 499 9 is_stmt 1 view .LVU598
	xorl	%edi, %edi
	call	exit@PLT
.LVL232:
	.p2align 4,,10
	.p2align 3
.L225:
	.cfi_restore_state
	.loc 1 482 7 is_stmt 0 view .LVU599
	cmpl	$122, %eax
	jne	.L188
	.loc 1 494 11 is_stmt 1 view .LVU600
	.loc 1 494 22 is_stmt 0 view .LVU601
	movb	$0, line_delim(%rip)
	.loc 1 495 11 is_stmt 1 view .LVU602
	jmp	.L183
.L226:
	.loc 1 482 7 is_stmt 0 view .LVU603
	cmpl	$-130, %eax
	jne	.L188
	.loc 1 497 9 is_stmt 1 view .LVU604
	xorl	%edi, %edi
	call	usage
.LVL233:
	.p2align 4,,10
	.p2align 3
.L184:
	.loc 1 486 11 view .LVU605
	.loc 1 486 30 is_stmt 0 view .LVU606
	movq	optarg(%rip), %r12
.LVL234:
	.loc 1 486 50 view .LVU607
	cmpb	$0, (%r12)
	cmove	%r13, %r12
	jmp	.L183
.LVL235:
.L223:
	.loc 1 506 3 is_stmt 1 view .LVU608
	.loc 1 506 21 is_stmt 0 view .LVU609
	movslq	optind(%rip), %rax
.LVL236:
	.loc 1 507 3 is_stmt 1 view .LVU610
	.loc 1 507 6 is_stmt 0 view .LVU611
	subl	%eax, %ebp
.LVL237:
	.loc 1 507 6 view .LVU612
	jne	.L193
	.loc 1 509 7 is_stmt 1 view .LVU613
.LVL238:
	.loc 5 700 3 view .LVU614
	.loc 1 509 20 is_stmt 0 view .LVU615
	leaq	.LC38(%rip), %rdx
	.loc 1 510 13 view .LVU616
	movl	$1, %ebp
.LVL239:
	.loc 1 509 20 view .LVU617
	movq	%rdx, (%rbx,%rax,8)
	.loc 1 510 7 is_stmt 1 view .LVU618
.LVL240:
.L193:
	.loc 1 513 3 view .LVU619
.LBB315:
.LBI315:
	.loc 1 92 1 view .LVU620
.LBB316:
	.loc 1 94 3 view .LVU621
	.loc 1 94 18 is_stmt 0 view .LVU622
	movq	%r12, %rdi
	call	xstrdup@PLT
.LVL241:
	.loc 1 99 10 view .LVU623
	movzbl	(%r12), %ecx
	.loc 1 97 10 view .LVU624
	movq	%rax, delims(%rip)
	.loc 1 94 18 view .LVU625
	movq	%rax, %rsi
	movq	%rax, %r8
.LVL242:
	.loc 1 95 3 is_stmt 1 view .LVU626
	.loc 1 97 3 view .LVU627
	.loc 1 99 3 view .LVU628
	.loc 1 99 9 view .LVU629
	testb	%cl, %cl
	je	.L194
	movq	%r12, %rdi
	leaq	.L202(%rip), %rdx
	jmp	.L210
.LVL243:
	.p2align 4,,10
	.p2align 3
.L227:
	.loc 1 102 9 view .LVU630
	.loc 1 102 19 is_stmt 0 view .LVU631
	movb	%cl, (%rsi)
	leaq	1(%rsi), %rax
.LVL244:
	.loc 1 102 28 view .LVU632
	addq	$1, %rdi
.LVL245:
	.loc 1 102 28 view .LVU633
	movq	%rax, %r8
.LVL246:
.L196:
	.loc 1 99 9 is_stmt 1 view .LVU634
	.loc 1 99 10 is_stmt 0 view .LVU635
	movzbl	(%rdi), %ecx
	movq	%rax, %rsi
	.loc 1 99 9 view .LVU636
	testb	%cl, %cl
	je	.L194
.L210:
	.loc 1 101 7 is_stmt 1 view .LVU637
	.loc 1 101 10 is_stmt 0 view .LVU638
	cmpb	$92, %cl
	jne	.L227
	.loc 1 105 11 is_stmt 1 view .LVU639
.LVL247:
	.loc 1 105 19 is_stmt 0 view .LVU640
	movzbl	1(%rdi), %ecx
	.loc 1 105 11 view .LVU641
	cmpb	$118, %cl
	jg	.L197
	cmpb	$91, %cl
	jle	.L228
	leal	-92(%rcx), %eax
.LVL248:
	.loc 1 105 11 view .LVU642
	cmpb	$26, %al
	ja	.L197
	movzbl	%al, %eax
	movslq	(%rdx,%rax,4), %rax
	addq	%rdx, %rax
	notrack jmp	*%rax
	.section	.rodata
	.align 4
	.align 4
.L202:
	.long	.L208-.L202
	.long	.L197-.L202
	.long	.L197-.L202
	.long	.L197-.L202
	.long	.L197-.L202
	.long	.L197-.L202
	.long	.L207-.L202
	.long	.L197-.L202
	.long	.L197-.L202
	.long	.L197-.L202
	.long	.L206-.L202
	.long	.L197-.L202
	.long	.L197-.L202
	.long	.L197-.L202
	.long	.L197-.L202
	.long	.L197-.L202
	.long	.L197-.L202
	.long	.L197-.L202
	.long	.L205-.L202
	.long	.L197-.L202
	.long	.L197-.L202
	.long	.L197-.L202
	.long	.L204-.L202
	.long	.L197-.L202
	.long	.L203-.L202
	.long	.L197-.L202
	.long	.L201-.L202
	.section	.text.startup
.LVL249:
.L228:
	.loc 1 105 11 view .LVU643
	testb	%cl, %cl
	je	.L199
	cmpb	$48, %cl
	jne	.L197
	.loc 1 108 15 is_stmt 1 view .LVU644
	.loc 1 108 25 is_stmt 0 view .LVU645
	movb	$0, (%rsi)
	leaq	1(%rsi), %rax
.LVL250:
	.loc 1 108 25 view .LVU646
	movq	%rax, %r8
.LVL251:
	.loc 1 109 15 is_stmt 1 view .LVU647
.L209:
	.loc 1 147 11 view .LVU648
	.loc 1 147 17 is_stmt 0 view .LVU649
	addq	$2, %rdi
.LVL252:
	.loc 1 147 17 view .LVU650
	jmp	.L196
.LVL253:
.L194:
	.loc 1 153 3 is_stmt 1 view .LVU651
.LBE316:
.LBE315:
	.loc 1 522 43 is_stmt 0 view .LVU652
	cmpb	$0, serial_merge(%rip)
	leaq	paste_parallel(%rip), %rdx
	movslq	%ebp, %rdi
.LBB320:
.LBB317:
	.loc 1 153 13 view .LVU653
	movq	%r8, delim_end(%rip)
	.loc 1 154 3 is_stmt 1 view .LVU654
.LVL254:
	.loc 1 154 3 is_stmt 0 view .LVU655
.LBE317:
.LBE320:
	.loc 1 522 3 is_stmt 1 view .LVU656
	.loc 1 522 43 is_stmt 0 view .LVU657
	leaq	paste_serial(%rip), %rax
	cmove	%rdx, %rax
	.loc 1 523 28 view .LVU658
	movslq	optind(%rip), %rdx
	.loc 1 522 43 view .LVU659
	leaq	(%rbx,%rdx,8), %rsi
	call	*%rax
.LVL255:
	.loc 1 525 3 view .LVU660
	movq	delims(%rip), %rdi
	.loc 1 522 43 view .LVU661
	movl	%eax, %ebx
.LVL256:
	.loc 1 525 3 is_stmt 1 view .LVU662
	call	free@PLT
.LVL257:
	.loc 1 527 3 view .LVU663
	.loc 1 527 6 is_stmt 0 view .LVU664
	cmpb	$0, have_read_stdin(%rip)
	jne	.L229
.L211:
	.loc 1 529 3 is_stmt 1 view .LVU665
	.loc 1 529 28 is_stmt 0 view .LVU666
	xorl	$1, %ebx
.LVL258:
	.loc 1 530 1 view .LVU667
	popq	%rdx
	.cfi_remember_state
	.cfi_def_cfa_offset 40
	.loc 1 529 28 view .LVU668
	movzbl	%bl, %eax
	.loc 1 530 1 view .LVU669
	popq	%rbx
	.cfi_def_cfa_offset 32
	popq	%rbp
	.cfi_def_cfa_offset 24
.LVL259:
	.loc 1 530 1 view .LVU670
	popq	%r12
	.cfi_def_cfa_offset 16
.LVL260:
	.loc 1 530 1 view .LVU671
	popq	%r13
	.cfi_def_cfa_offset 8
	ret
.LVL261:
.L201:
	.cfi_restore_state
.LBB321:
.LBB318:
	.loc 1 132 15 is_stmt 1 view .LVU672
	leaq	1(%rsi), %rax
	.loc 1 132 25 is_stmt 0 view .LVU673
	movb	$11, (%rsi)
	movq	%rax, %r8
.LVL262:
	.loc 1 133 15 is_stmt 1 view .LVU674
	jmp	.L209
.LVL263:
.L203:
	.loc 1 128 15 view .LVU675
	leaq	1(%rsi), %rax
	.loc 1 128 25 is_stmt 0 view .LVU676
	movb	$9, (%rsi)
	movq	%rax, %r8
.LVL264:
	.loc 1 129 15 is_stmt 1 view .LVU677
	jmp	.L209
.LVL265:
.L204:
	.loc 1 124 15 view .LVU678
	leaq	1(%rsi), %rax
	.loc 1 124 25 is_stmt 0 view .LVU679
	movb	$13, (%rsi)
	movq	%rax, %r8
.LVL266:
	.loc 1 125 15 is_stmt 1 view .LVU680
	jmp	.L209
.LVL267:
.L205:
	.loc 1 120 15 view .LVU681
	leaq	1(%rsi), %rax
	.loc 1 120 25 is_stmt 0 view .LVU682
	movb	$10, (%rsi)
	movq	%rax, %r8
.LVL268:
	.loc 1 121 15 is_stmt 1 view .LVU683
	jmp	.L209
.LVL269:
.L206:
	.loc 1 116 15 view .LVU684
	leaq	1(%rsi), %rax
	.loc 1 116 25 is_stmt 0 view .LVU685
	movb	$12, (%rsi)
	movq	%rax, %r8
.LVL270:
	.loc 1 117 15 is_stmt 1 view .LVU686
	jmp	.L209
.LVL271:
.L207:
	.loc 1 112 15 view .LVU687
	leaq	1(%rsi), %rax
	.loc 1 112 25 is_stmt 0 view .LVU688
	movb	$8, (%rsi)
	movq	%rax, %r8
.LVL272:
	.loc 1 113 15 is_stmt 1 view .LVU689
	jmp	.L209
.LVL273:
.L208:
	.loc 1 136 15 view .LVU690
	leaq	1(%rsi), %rax
	.loc 1 136 25 is_stmt 0 view .LVU691
	movb	$92, (%rsi)
	movq	%rax, %r8
.LVL274:
	.loc 1 137 15 is_stmt 1 view .LVU692
	jmp	.L209
.LVL275:
.L197:
	.loc 1 144 15 view .LVU693
	leaq	1(%rsi), %rax
	.loc 1 144 25 is_stmt 0 view .LVU694
	movb	%cl, (%rsi)
	movq	%rax, %r8
.LVL276:
	.loc 1 145 15 is_stmt 1 view .LVU695
	jmp	.L209
.L199:
.LVL277:
	.loc 1 153 3 view .LVU696
.LBE318:
.LBE321:
.LBB322:
	.loc 1 517 7 is_stmt 0 view .LVU697
	movq	%r12, %rdx
.LBE322:
.LBB323:
.LBB319:
	.loc 1 153 13 view .LVU698
	movq	%rsi, delim_end(%rip)
	.loc 1 154 3 is_stmt 1 view .LVU699
.LVL278:
	.loc 1 154 3 is_stmt 0 view .LVU700
.LBE319:
.LBE323:
.LBB324:
	.loc 1 517 7 is_stmt 1 view .LVU701
	xorl	%edi, %edi
	movl	$6, %esi
	call	quotearg_n_style_colon@PLT
.LVL279:
	movl	$5, %edx
	leaq	.LC39(%rip), %rsi
	xorl	%edi, %edi
	movq	%rax, %r12
.LVL280:
	.loc 1 517 7 is_stmt 0 view .LVU702
	call	dcgettext@PLT
.LVL281:
	movq	%r12, %rcx
	xorl	%esi, %esi
	movl	$1, %edi
	movq	%rax, %rdx
	xorl	%eax, %eax
	call	error@PLT
.LVL282:
.L229:
	.loc 1 517 7 view .LVU703
.LBE324:
	.loc 1 527 26 discriminator 1 view .LVU704
	movq	stdin(%rip), %rdi
	call	rpl_fclose@PLT
.LVL283:
	.loc 1 527 23 discriminator 1 view .LVU705
	addl	$1, %eax
	jne	.L211
.LBB325:
	.loc 1 528 5 is_stmt 1 view .LVU706
	call	__errno_location@PLT
.LVL284:
	leaq	.LC38(%rip), %rdx
	movl	$1, %edi
	movl	(%rax), %esi
	xorl	%eax, %eax
	call	error@PLT
.LVL285:
.L188:
	.loc 1 528 5 is_stmt 0 view .LVU707
.LBE325:
	.loc 1 499 9 is_stmt 1 view .LVU708
	.loc 1 499 57 view .LVU709
	.loc 1 502 11 view .LVU710
	movl	$1, %edi
	call	usage
.LVL286:
	.loc 1 502 11 is_stmt 0 view .LVU711
	.cfi_endproc
.LFE141:
	.size	main, .-main
	.section	.rodata.str1.1
.LC40:
	.string	"serial"
.LC41:
	.string	"delimiters"
.LC42:
	.string	"zero-terminated"
.LC43:
	.string	"help"
.LC44:
	.string	"version"
	.section	.data.rel.ro.local,"aw"
	.align 32
	.type	longopts, @object
	.size	longopts, 192
longopts:
	.quad	.LC40
	.long	0
	.zero	4
	.quad	0
	.long	115
	.zero	4
	.quad	.LC41
	.long	1
	.zero	4
	.quad	0
	.long	100
	.zero	4
	.quad	.LC42
	.long	0
	.zero	4
	.quad	0
	.long	122
	.zero	4
	.quad	.LC43
	.long	0
	.zero	4
	.quad	0
	.long	-130
	.zero	4
	.quad	.LC44
	.long	0
	.zero	4
	.quad	0
	.long	-131
	.zero	4
	.quad	0
	.long	0
	.zero	4
	.quad	0
	.long	0
	.zero	4
	.data
	.type	line_delim, @object
	.size	line_delim, 1
line_delim:
	.byte	10
	.local	delim_end
	.comm	delim_end,8,8
	.local	delims
	.comm	delims,8,8
	.local	serial_merge
	.comm	serial_merge,1,1
	.local	have_read_stdin
	.comm	have_read_stdin,1,1
	.text
.Letext0:
	.file 6 "/usr/lib/gcc/x86_64-linux-gnu/9/include/stddef.h"
	.file 7 "/usr/include/x86_64-linux-gnu/bits/types.h"
	.file 8 "/usr/include/x86_64-linux-gnu/bits/types/struct_FILE.h"
	.file 9 "/usr/include/x86_64-linux-gnu/bits/types/FILE.h"
	.file 10 "/usr/include/stdio.h"
	.file 11 "/usr/include/x86_64-linux-gnu/bits/sys_errlist.h"
	.file 12 "/usr/include/x86_64-linux-gnu/bits/types/time_t.h"
	.file 13 "./lib/sys/select.h"
	.file 14 "/usr/include/x86_64-linux-gnu/bits/getopt_core.h"
	.file 15 "/usr/include/x86_64-linux-gnu/bits/getopt_ext.h"
	.file 16 "/usr/include/time.h"
	.file 17 "/usr/include/signal.h"
	.file 18 "/usr/include/unistd.h"
	.file 19 "/usr/include/errno.h"
	.file 20 "src/version.h"
	.file 21 "./lib/exitfail.h"
	.file 22 "./lib/timespec.h"
	.file 23 "./lib/xalloc-oversized.h"
	.file 24 "./lib/version-etc.h"
	.file 25 "./lib/progname.h"
	.file 26 "./lib/quotearg.h"
	.file 27 "./lib/error.h"
	.file 28 "./lib/fadvise.h"
	.file 29 "/usr/include/libintl.h"
	.file 30 "/usr/include/locale.h"
	.file 31 "/usr/include/stdlib.h"
	.file 32 "./lib/stdio.h"
	.file 33 "/usr/include/string.h"
	.section	.note.GNU-stack,"",@progbits
	.section	.note.gnu.property,"a"
	.align 8
	.long	 1f - 0f
	.long	 4f - 1f
	.long	 5
0:
	.string	 "GNU"
1:
	.align 8
	.long	 0xc0000002
	.long	 3f - 2f
2:
	.long	 0x3
3:
	.align 8
4:
