	.file	"pathchk.c"
	.text
.Ltext0:
	.section	.rodata.str1.1,"aMS",@progbits,1
.LC0:
	.string	"pathchk"
.LC1:
	.string	" invocation"
.LC2:
	.string	""
	.section	.rodata.str1.8,"aMS",@progbits,1
	.align 8
.LC3:
	.string	"Try '%s --help' for more information.\n"
	.align 8
.LC4:
	.string	"Usage: %s [OPTION]... NAME...\n"
	.align 8
.LC5:
	.string	"Diagnose invalid or unportable file names.\n\n  -p                  check for most POSIX systems\n  -P                  check for empty names and leading \"-\"\n      --portability   check for all POSIX systems (equivalent to -p -P)\n"
	.align 8
.LC6:
	.string	"      --help     display this help and exit\n"
	.align 8
.LC7:
	.string	"      --version  output version information and exit\n"
	.section	.rodata.str1.1
.LC8:
	.string	"["
.LC9:
	.string	"test invocation"
.LC10:
	.string	"coreutils"
.LC11:
	.string	"Multi-call invocation"
.LC12:
	.string	"sha224sum"
.LC13:
	.string	"sha2 utilities"
.LC14:
	.string	"sha256sum"
.LC15:
	.string	"sha384sum"
.LC16:
	.string	"sha512sum"
.LC17:
	.string	"\n%s online help: <%s>\n"
	.section	.rodata.str1.8
	.align 8
.LC18:
	.string	"https://www.gnu.org/software/coreutils/"
	.section	.rodata.str1.1
.LC19:
	.string	"GNU coreutils"
.LC20:
	.string	"en_"
	.section	.rodata.str1.8
	.align 8
.LC21:
	.string	"Report any translation bugs to <https://translationproject.org/team/>\n"
	.section	.rodata.str1.1
.LC22:
	.string	"Full documentation <%s%s>\n"
	.section	.rodata.str1.8
	.align 8
.LC23:
	.string	"or available locally via: info '(coreutils) %s%s'\n"
	.text
	.p2align 4
	.globl	usage
	.type	usage, @function
usage:
.LVL0:
.LFB161:
	.file 1 "src/pathchk.c"
	.loc 1 83 1 view -0
	.cfi_startproc
	.loc 1 83 1 is_stmt 0 view .LVU1
	endbr64
	pushq	%r13
	.cfi_def_cfa_offset 16
	.cfi_offset 13, -16
	.loc 1 85 5 view .LVU2
	movl	$5, %edx
	.loc 1 83 1 view .LVU3
	pushq	%r12
	.cfi_def_cfa_offset 24
	.cfi_offset 12, -24
	pushq	%rbp
	.cfi_def_cfa_offset 32
	.cfi_offset 6, -32
	movl	%edi, %ebp
	pushq	%rbx
	.cfi_def_cfa_offset 40
	.cfi_offset 3, -40
	subq	$136, %rsp
	.cfi_def_cfa_offset 176
	movq	program_name(%rip), %r12
	.loc 1 83 1 view .LVU4
	movq	%fs:40, %rax
	movq	%rax, 120(%rsp)
	xorl	%eax, %eax
	.loc 1 84 3 is_stmt 1 view .LVU5
	.loc 1 84 6 is_stmt 0 view .LVU6
	testl	%edi, %edi
	je	.L2
	.loc 1 85 5 is_stmt 1 view .LVU7
	.loc 1 85 5 view .LVU8
	leaq	.LC3(%rip), %rsi
	xorl	%edi, %edi
.LVL1:
	.loc 1 85 5 is_stmt 0 view .LVU9
	call	dcgettext@PLT
.LVL2:
.LBB60:
.LBB61:
	.file 2 "/usr/include/x86_64-linux-gnu/bits/stdio2.h"
	.loc 2 100 10 view .LVU10
	movq	stderr(%rip), %rdi
	movq	%r12, %rcx
	movl	$1, %esi
.LBE61:
.LBE60:
	.loc 1 85 5 view .LVU11
	movq	%rax, %rdx
.LVL3:
.LBB63:
.LBI60:
	.loc 2 98 1 is_stmt 1 view .LVU12
.LBB62:
	.loc 2 100 3 view .LVU13
	.loc 2 100 10 is_stmt 0 view .LVU14
	xorl	%eax, %eax
.LVL4:
	.loc 2 100 10 view .LVU15
	call	__fprintf_chk@PLT
.LVL5:
.L3:
	.loc 2 100 10 view .LVU16
.LBE62:
.LBE63:
	.loc 1 100 3 is_stmt 1 view .LVU17
	movl	%ebp, %edi
	call	exit@PLT
.LVL6:
.L2:
	.loc 1 88 7 view .LVU18
	.loc 1 88 15 is_stmt 0 view .LVU19
	leaq	.LC4(%rip), %rsi
	xorl	%edi, %edi
.LVL7:
.LBB64:
.LBB65:
	.file 3 "src/system.h"
	.loc 3 636 67 view .LVU20
	leaq	.LC14(%rip), %rbx
.LBE65:
.LBE64:
	.loc 1 88 15 view .LVU21
	call	dcgettext@PLT
.LVL8:
.LBB91:
.LBB92:
	.loc 2 107 10 view .LVU22
	movq	%r12, %rdx
	movl	$1, %edi
.LBE92:
.LBE91:
	.loc 1 88 15 view .LVU23
	movq	%rax, %rsi
.LVL9:
.LBB94:
.LBI91:
	.loc 2 105 1 is_stmt 1 view .LVU24
.LBB93:
	.loc 2 107 3 view .LVU25
	.loc 2 107 10 is_stmt 0 view .LVU26
	xorl	%eax, %eax
.LVL10:
	.loc 2 107 10 view .LVU27
	call	__printf_chk@PLT
.LVL11:
	.loc 2 107 10 view .LVU28
.LBE93:
.LBE94:
	.loc 1 89 7 is_stmt 1 view .LVU29
	movq	stdout(%rip), %r12
	movl	$5, %edx
	xorl	%edi, %edi
	leaq	.LC5(%rip), %rsi
	call	dcgettext@PLT
.LVL12:
	movq	%r12, %rsi
	movq	%rax, %rdi
	call	fputs_unlocked@PLT
.LVL13:
	.loc 1 96 7 view .LVU30
	movq	stdout(%rip), %r12
	movl	$5, %edx
	xorl	%edi, %edi
	leaq	.LC6(%rip), %rsi
	call	dcgettext@PLT
.LVL14:
	movq	%r12, %rsi
	movq	%rax, %rdi
	call	fputs_unlocked@PLT
.LVL15:
	.loc 1 97 7 view .LVU31
	movq	stdout(%rip), %r12
	movl	$5, %edx
	xorl	%edi, %edi
	leaq	.LC7(%rip), %rsi
	call	dcgettext@PLT
.LVL16:
	movq	%r12, %rsi
	movq	%rax, %rdi
	call	fputs_unlocked@PLT
.LVL17:
	.loc 1 98 7 view .LVU32
.LBB95:
.LBI64:
	.loc 3 634 1 view .LVU33
.LBB90:
	.loc 3 636 3 view .LVU34
	.loc 3 636 67 is_stmt 0 view .LVU35
	leaq	.LC8(%rip), %rax
	movq	%rbx, 48(%rsp)
	leaq	.LC15(%rip), %rbx
	movq	%rax, (%rsp)
	leaq	.LC9(%rip), %rax
	movq	%rax, 8(%rsp)
	leaq	.LC10(%rip), %rax
	movq	%rax, 16(%rsp)
	leaq	.LC11(%rip), %rax
	movq	%rax, 24(%rsp)
	leaq	.LC12(%rip), %rax
	movq	$0, 96(%rsp)
	movq	$0, 104(%rsp)
	.loc 3 646 3 is_stmt 1 view .LVU36
.LVL18:
	.loc 3 647 3 view .LVU37
	.loc 3 649 3 view .LVU38
	.loc 3 649 9 view .LVU39
	.loc 3 636 67 is_stmt 0 view .LVU40
	movq	%rax, 32(%rsp)
	leaq	.LC13(%rip), %rax
	movq	%rbx, 64(%rsp)
	leaq	.LC16(%rip), %rbx
	movq	%rax, 40(%rsp)
	movq	%rax, 56(%rsp)
	movq	%rax, 72(%rsp)
	movq	%rbx, 80(%rsp)
	leaq	.LC0(%rip), %rbx
	movq	%rax, 88(%rsp)
	.loc 3 647 25 view .LVU41
	movq	%rsp, %rax
.LVL19:
	.p2align 4,,10
	.p2align 3
.L5:
	.loc 3 650 5 is_stmt 1 view .LVU42
	.loc 3 649 18 is_stmt 0 view .LVU43
	movq	16(%rax), %rdi
	.loc 3 650 13 view .LVU44
	addq	$16, %rax
.LVL20:
	.loc 3 649 9 is_stmt 1 view .LVU45
	testq	%rdi, %rdi
	je	.L4
	.loc 3 649 33 is_stmt 0 view .LVU46
	movl	$8, %ecx
	movq	%rbx, %rsi
	repz cmpsb
	seta	%dl
	sbbb	$0, %dl
	.loc 3 649 28 view .LVU47
	testb	%dl, %dl
	jne	.L5
.L4:
	.loc 3 652 3 is_stmt 1 view .LVU48
	.loc 3 652 15 is_stmt 0 view .LVU49
	movq	8(%rax), %r12
	.loc 3 655 11 view .LVU50
	movl	$5, %edx
	leaq	.LC17(%rip), %rsi
	xorl	%edi, %edi
	.loc 3 652 6 view .LVU51
	testq	%r12, %r12
	je	.L6
	.loc 3 653 5 is_stmt 1 view .LVU52
.LVL21:
	.loc 3 655 3 view .LVU53
	.loc 3 655 11 is_stmt 0 view .LVU54
	call	dcgettext@PLT
.LVL22:
.LBB66:
.LBB67:
	.loc 2 107 10 view .LVU55
	leaq	.LC18(%rip), %rcx
	movl	$1, %edi
	leaq	.LC19(%rip), %rdx
.LBE67:
.LBE66:
	.loc 3 655 11 view .LVU56
	movq	%rax, %rsi
.LVL23:
.LBB71:
.LBI66:
	.loc 2 105 1 is_stmt 1 view .LVU57
.LBB68:
	.loc 2 107 3 view .LVU58
	.loc 2 107 10 is_stmt 0 view .LVU59
	xorl	%eax, %eax
.LVL24:
	.loc 2 107 10 view .LVU60
	call	__printf_chk@PLT
.LVL25:
	.loc 2 107 10 view .LVU61
.LBE68:
.LBE71:
	.loc 3 659 3 is_stmt 1 view .LVU62
	.loc 3 659 29 is_stmt 0 view .LVU63
	movl	$5, %edi
	xorl	%esi, %esi
	call	setlocale@PLT
.LVL26:
	movq	%rax, %rdi
.LVL27:
	.loc 3 660 3 is_stmt 1 view .LVU64
	.loc 3 660 6 is_stmt 0 view .LVU65
	testq	%rax, %rax
	je	.L7
	.loc 3 660 22 view .LVU66
	movl	$3, %edx
	leaq	.LC20(%rip), %rsi
	call	strncmp@PLT
.LVL28:
	.loc 3 660 19 view .LVU67
	testl	%eax, %eax
	jne	.L10
.LVL29:
.L7:
	.loc 3 669 3 is_stmt 1 view .LVU68
	.loc 3 669 11 is_stmt 0 view .LVU69
	xorl	%edi, %edi
	movl	$5, %edx
	leaq	.LC22(%rip), %rsi
	call	dcgettext@PLT
.LVL30:
.LBB72:
.LBB73:
	.loc 2 107 10 view .LVU70
	leaq	.LC0(%rip), %rcx
	leaq	.LC18(%rip), %rdx
	movl	$1, %edi
.LBE73:
.LBE72:
	.loc 3 669 11 view .LVU71
	movq	%rax, %rsi
.LVL31:
.LBB79:
.LBI72:
	.loc 2 105 1 is_stmt 1 view .LVU72
.LBB74:
	.loc 2 107 3 view .LVU73
	.loc 2 107 10 is_stmt 0 view .LVU74
	xorl	%eax, %eax
.LVL32:
	.loc 2 107 10 view .LVU75
.LBE74:
.LBE79:
	.loc 3 671 3 view .LVU76
	leaq	.LC1(%rip), %r13
.LBB80:
.LBB75:
	.loc 2 107 10 view .LVU77
	call	__printf_chk@PLT
.LVL33:
	.loc 2 107 10 view .LVU78
.LBE75:
.LBE80:
	.loc 3 671 3 is_stmt 1 view .LVU79
	cmpq	%rbx, %r12
	leaq	.LC2(%rip), %rcx
	cmovne	%rcx, %r13
.L8:
	.loc 3 671 11 is_stmt 0 view .LVU80
	xorl	%edi, %edi
	leaq	.LC23(%rip), %rsi
	movl	$5, %edx
	call	dcgettext@PLT
.LVL34:
.LBB81:
.LBB82:
	.loc 2 107 10 view .LVU81
	movq	%r13, %rcx
	movq	%r12, %rdx
	movl	$1, %edi
.LBE82:
.LBE81:
	.loc 3 671 11 view .LVU82
	movq	%rax, %rsi
.LVL35:
.LBB84:
.LBI81:
	.loc 2 105 1 is_stmt 1 view .LVU83
.LBB83:
	.loc 2 107 3 view .LVU84
	.loc 2 107 10 is_stmt 0 view .LVU85
	xorl	%eax, %eax
.LVL36:
	.loc 2 107 10 view .LVU86
	call	__printf_chk@PLT
.LVL37:
	.loc 2 107 10 view .LVU87
.LBE83:
.LBE84:
	.loc 3 673 1 view .LVU88
	jmp	.L3
.LVL38:
.L6:
	.loc 3 655 3 is_stmt 1 view .LVU89
	.loc 3 655 11 is_stmt 0 view .LVU90
	call	dcgettext@PLT
.LVL39:
.LBB85:
.LBB69:
	.loc 2 107 10 view .LVU91
	leaq	.LC18(%rip), %rcx
	movl	$1, %edi
	leaq	.LC19(%rip), %rdx
.LBE69:
.LBE85:
	.loc 3 655 11 view .LVU92
	movq	%rax, %rsi
.LVL40:
.LBB86:
	.loc 2 105 1 is_stmt 1 view .LVU93
.LBB70:
	.loc 2 107 3 view .LVU94
	.loc 2 107 10 is_stmt 0 view .LVU95
	xorl	%eax, %eax
.LVL41:
	.loc 2 107 10 view .LVU96
	call	__printf_chk@PLT
.LVL42:
	.loc 2 107 10 view .LVU97
.LBE70:
.LBE86:
	.loc 3 659 3 is_stmt 1 view .LVU98
	.loc 3 659 29 is_stmt 0 view .LVU99
	movl	$5, %edi
	xorl	%esi, %esi
	call	setlocale@PLT
.LVL43:
	movq	%rax, %rdi
.LVL44:
	.loc 3 660 3 is_stmt 1 view .LVU100
	.loc 3 660 6 is_stmt 0 view .LVU101
	testq	%rax, %rax
	je	.L9
	.loc 3 660 22 view .LVU102
	movl	$3, %edx
	leaq	.LC20(%rip), %rsi
	call	strncmp@PLT
.LVL45:
	.loc 3 660 19 view .LVU103
	testl	%eax, %eax
	jne	.L29
.L9:
	.loc 3 669 3 is_stmt 1 view .LVU104
	.loc 3 669 11 is_stmt 0 view .LVU105
	movl	$5, %edx
	leaq	.LC22(%rip), %rsi
	xorl	%edi, %edi
	call	dcgettext@PLT
.LVL46:
.LBB87:
.LBB76:
	.loc 2 107 10 view .LVU106
	leaq	.LC0(%rip), %rcx
	leaq	.LC18(%rip), %rdx
	movl	$1, %edi
.LBE76:
.LBE87:
	.loc 3 669 11 view .LVU107
	movq	%rax, %rsi
.LVL47:
.LBB88:
	.loc 2 105 1 is_stmt 1 view .LVU108
.LBB77:
	.loc 2 107 3 view .LVU109
	.loc 2 107 10 is_stmt 0 view .LVU110
	xorl	%eax, %eax
.LVL48:
	.loc 2 107 10 view .LVU111
.LBE77:
.LBE88:
	.loc 3 646 15 view .LVU112
	leaq	.LC0(%rip), %r12
.LBB89:
.LBB78:
	.loc 2 107 10 view .LVU113
	call	__printf_chk@PLT
.LVL49:
	.loc 2 107 10 view .LVU114
.LBE78:
.LBE89:
	.loc 3 671 3 is_stmt 1 view .LVU115
	leaq	.LC1(%rip), %r13
	jmp	.L8
.L29:
	.loc 3 646 15 is_stmt 0 view .LVU116
	leaq	.LC0(%rip), %r12
.LVL50:
.L10:
	.loc 3 666 7 is_stmt 1 view .LVU117
	movq	stdout(%rip), %r13
	xorl	%edi, %edi
	movl	$5, %edx
	leaq	.LC21(%rip), %rsi
	call	dcgettext@PLT
.LVL51:
	movq	%rax, %rdi
	movq	%r13, %rsi
	call	fputs_unlocked@PLT
.LVL52:
	jmp	.L7
.LBE90:
.LBE95:
	.cfi_endproc
.LFE161:
	.size	usage, .-usage
	.section	.rodata.str1.1
.LC24:
	.string	"/"
.LC25:
	.string	"."
.LC26:
	.string	"/usr/local/share/locale"
.LC27:
	.string	"David MacKenzie"
.LC28:
	.string	"Paul Eggert"
.LC29:
	.string	"Jim Meyering"
.LC30:
	.string	"+pP"
.LC31:
	.string	"missing operand"
	.section	.rodata.str1.8
	.align 8
.LC32:
	.string	"leading '-' in a component of file name %s"
	.section	.rodata.str1.1
.LC33:
	.string	"empty file name"
	.section	.rodata.str1.8
	.align 8
.LC34:
	.string	"/ABCDEFGHIJKLMNOPQRSTUVWXYZabcdefghijklmnopqrstuvwxyz0123456789._-"
	.align 8
.LC35:
	.string	"nonportable character %s in file name %s"
	.section	.rodata.str1.1
.LC36:
	.string	"%s"
	.section	.rodata.str1.8
	.align 8
.LC37:
	.string	"%s: unable to determine maximum file name length"
	.align 8
.LC38:
	.string	"limit %lu exceeded by length %lu of file name %s"
	.align 8
.LC39:
	.string	"limit %lu exceeded by length %lu of file name component %s"
	.section	.text.startup,"ax",@progbits
	.p2align 4
	.globl	main
	.type	main, @function
main:
.LVL53:
.LFB162:
	.loc 1 105 1 view -0
	.cfi_startproc
	.loc 1 105 1 is_stmt 0 view .LVU119
	endbr64
	pushq	%r15
	.cfi_def_cfa_offset 16
	.cfi_offset 15, -16
	pushq	%r14
	.cfi_def_cfa_offset 24
	.cfi_offset 14, -24
	.loc 1 108 8 view .LVU120
	xorl	%r14d, %r14d
	.loc 1 105 1 view .LVU121
	pushq	%r13
	.cfi_def_cfa_offset 32
	.cfi_offset 13, -32
	.loc 1 107 8 view .LVU122
	xorl	%r13d, %r13d
	.loc 1 105 1 view .LVU123
	pushq	%r12
	.cfi_def_cfa_offset 40
	.cfi_offset 12, -40
	movl	%edi, %r12d
	pushq	%rbp
	.cfi_def_cfa_offset 48
	.cfi_offset 6, -48
	pushq	%rbx
	.cfi_def_cfa_offset 56
	.cfi_offset 3, -56
	movq	%rsi, %rbx
	subq	$200, %rsp
	.cfi_def_cfa_offset 256
	.loc 1 112 3 view .LVU124
	movq	(%rsi), %rdi
.LVL54:
	.loc 1 105 1 view .LVU125
	movq	%fs:40, %rax
	movq	%rax, 184(%rsp)
	xorl	%eax, %eax
	.loc 1 106 3 is_stmt 1 view .LVU126
.LVL55:
	.loc 1 107 3 view .LVU127
	.loc 1 108 3 view .LVU128
	.loc 1 109 3 view .LVU129
	.loc 1 111 33 view .LVU130
	.loc 1 112 3 view .LVU131
	call	set_program_name@PLT
.LVL56:
	.loc 1 113 3 view .LVU132
	leaq	.LC2(%rip), %rsi
	movl	$6, %edi
	call	setlocale@PLT
.LVL57:
	.loc 1 114 3 view .LVU133
	leaq	.LC26(%rip), %rsi
	leaq	.LC10(%rip), %rdi
	call	bindtextdomain@PLT
.LVL58:
	.loc 1 115 3 view .LVU134
	leaq	.LC10(%rip), %rdi
	call	textdomain@PLT
.LVL59:
	.loc 1 117 3 view .LVU135
	movq	close_stdout@GOTPCREL(%rip), %rdi
	call	atexit@PLT
.LVL60:
	.loc 1 119 3 view .LVU136
	.loc 1 119 9 is_stmt 0 view .LVU137
	jmp	.L31
.LVL61:
	.p2align 4,,10
	.p2align 3
.L33:
	.loc 1 121 7 view .LVU138
	cmpl	$112, %eax
	je	.L141
	.loc 1 121 7 view .LVU139
	cmpl	$128, %eax
	jne	.L144
	.loc 1 125 35 view .LVU140
	movl	$1, %r14d
.LVL62:
.L141:
	.loc 1 124 35 view .LVU141
	movl	$1, %r13d
.LVL63:
.L31:
	.loc 1 119 9 is_stmt 1 view .LVU142
	.loc 1 119 18 is_stmt 0 view .LVU143
	xorl	%r8d, %r8d
	leaq	longopts(%rip), %rcx
	movq	%rbx, %rsi
	movl	%r12d, %edi
	leaq	.LC30(%rip), %rdx
	call	getopt_long@PLT
.LVL64:
	.loc 1 119 9 view .LVU144
	cmpl	$-1, %eax
	je	.L145
	.loc 1 121 7 is_stmt 1 view .LVU145
	cmpl	$80, %eax
	je	.L84
	jg	.L33
	cmpl	$-131, %eax
	jne	.L146
	.loc 1 136 9 view .LVU146
	.loc 1 136 30 view .LVU147
	.loc 1 138 9 view .LVU148
	leaq	.LC29(%rip), %rax
.LVL65:
	.loc 1 138 9 is_stmt 0 view .LVU149
	pushq	$0
	.cfi_remember_state
	.cfi_def_cfa_offset 264
	movq	stdout(%rip), %rdi
	leaq	.LC27(%rip), %r9
	pushq	%rax
	.cfi_def_cfa_offset 272
	movq	Version(%rip), %rcx
	xorl	%eax, %eax
	leaq	.LC28(%rip), %r8
	leaq	.LC19(%rip), %rdx
	leaq	.LC0(%rip), %rsi
	call	version_etc@PLT
.LVL66:
	.loc 1 138 9 is_stmt 1 view .LVU150
	xorl	%edi, %edi
	call	exit@PLT
.LVL67:
.L146:
	.cfi_restore_state
	.loc 1 121 7 is_stmt 0 view .LVU151
	cmpl	$-130, %eax
	jne	.L144
	.loc 1 136 9 is_stmt 1 view .LVU152
	xorl	%edi, %edi
	call	usage
.LVL68:
	.p2align 4,,10
	.p2align 3
.L84:
	.loc 1 133 35 is_stmt 0 view .LVU153
	movl	$1, %r14d
.LVL69:
	.loc 1 133 35 view .LVU154
	jmp	.L31
.LVL70:
.L145:
	.loc 1 145 3 is_stmt 1 view .LVU155
	.loc 1 145 14 is_stmt 0 view .LVU156
	movl	optind(%rip), %eax
.LVL71:
	.loc 1 145 6 view .LVU157
	cmpl	%r12d, %eax
	je	.L38
	.loc 1 151 10 is_stmt 1 view .LVU158
	.loc 1 106 8 is_stmt 0 view .LVU159
	movb	$1, 2(%rsp)
	.loc 1 151 3 view .LVU160
	jge	.L40
	movb	%r13b, 1(%rsp)
	movb	%r14b, 3(%rsp)
	movl	%r12d, 4(%rsp)
	movq	%rbx, 8(%rsp)
	jmp	.L39
.LVL72:
.L49:
.LBB122:
.LBB123:
.LBB124:
	.loc 1 287 7 is_stmt 1 view .LVU161
	.loc 1 288 7 view .LVU162
.LBB125:
.LBI125:
	.file 4 "/usr/include/x86_64-linux-gnu/sys/stat.h"
	.loc 4 460 1 view .LVU163
.LBB126:
	.loc 4 462 3 view .LVU164
	.loc 4 462 10 is_stmt 0 view .LVU165
	leaq	32(%rsp), %rdx
.LVL73:
	.loc 4 462 10 view .LVU166
	movq	%rbp, %rsi
	movl	$1, %edi
	call	__lxstat@PLT
.LVL74:
	.loc 4 462 10 view .LVU167
.LBE126:
.LBE125:
	.loc 1 288 10 view .LVU168
	testl	%eax, %eax
	je	.L69
	.loc 1 290 12 is_stmt 1 view .LVU169
	.loc 1 290 16 is_stmt 0 view .LVU170
	call	__errno_location@PLT
.LVL75:
	.loc 1 290 15 view .LVU171
	cmpl	$2, (%rax)
	.loc 1 290 16 view .LVU172
	movq	%rax, %rbx
	.loc 1 290 15 view .LVU173
	setne	%r8b
	.loc 1 290 32 view .LVU174
	testq	%r15, %r15
	sete	%al
	orb	%al, %r8b
	je	.L56
	.loc 1 292 11 is_stmt 1 view .LVU175
	movq	%rbp, %rdx
	movl	$3, %esi
	xorl	%edi, %edi
	call	quotearg_n_style_colon@PLT
.LVL76:
	movl	(%rbx), %esi
	leaq	.LC36(%rip), %rdx
	xorl	%edi, %edi
	movq	%rax, %rcx
	xorl	%eax, %eax
	call	error@PLT
.LVL77:
	.loc 1 293 11 view .LVU176
	.loc 1 293 18 is_stmt 0 view .LVU177
	xorl	%r8d, %r8d
.LVL78:
	.p2align 4,,10
	.p2align 3
.L45:
	.loc 1 293 18 view .LVU178
.LBE124:
.LBE123:
.LBE122:
	.loc 1 151 25 is_stmt 1 view .LVU179
	movl	optind(%rip), %eax
	andb	%r8b, 2(%rsp)
.LVL79:
	.loc 1 151 25 is_stmt 0 view .LVU180
	addl	$1, %eax
	movl	%eax, optind(%rip)
.LVL80:
	.loc 1 151 10 is_stmt 1 view .LVU181
	.loc 1 151 3 is_stmt 0 view .LVU182
	cmpl	4(%rsp), %eax
	jge	.L40
.LVL81:
.L39:
	.loc 1 152 5 is_stmt 1 discriminator 2 view .LVU183
	.loc 1 152 11 is_stmt 0 discriminator 2 view .LVU184
	movq	8(%rsp), %rcx
	.loc 1 152 35 discriminator 2 view .LVU185
	cltq
	.loc 1 152 11 discriminator 2 view .LVU186
	movq	(%rcx,%rax,8), %rbp
.LVL82:
.LBB183:
.LBI122:
	.loc 1 247 1 is_stmt 1 discriminator 2 view .LVU187
.LBB181:
	.loc 1 250 3 discriminator 2 view .LVU188
	.loc 1 250 20 is_stmt 0 discriminator 2 view .LVU189
	movq	%rbp, %rdi
	call	strlen@PLT
.LVL83:
	.loc 1 261 6 discriminator 2 view .LVU190
	cmpb	$0, 3(%rsp)
	.loc 1 250 20 discriminator 2 view .LVU191
	movq	%rax, %r15
.LVL84:
	.loc 1 253 3 is_stmt 1 discriminator 2 view .LVU192
	.loc 1 256 3 discriminator 2 view .LVU193
	.loc 1 259 3 discriminator 2 view .LVU194
	.loc 1 261 3 discriminator 2 view .LVU195
	.loc 1 261 6 is_stmt 0 discriminator 2 view .LVU196
	jne	.L147
	.loc 1 264 3 is_stmt 1 view .LVU197
	.loc 1 264 6 is_stmt 0 view .LVU198
	cmpb	$0, 1(%rsp)
	je	.L49
	.loc 1 265 7 view .LVU199
	testq	%rax, %rax
	je	.L81
.LVL85:
.L82:
	.loc 1 277 7 is_stmt 1 view .LVU200
.LBB127:
.LBI127:
	.loc 1 181 1 view .LVU201
.LBB128:
	.loc 1 183 3 view .LVU202
	.loc 1 183 21 is_stmt 0 view .LVU203
	leaq	.LC34(%rip), %rsi
	movq	%rbp, %rdi
	call	strspn@PLT
.LVL86:
	.loc 1 188 3 is_stmt 1 view .LVU204
	.loc 1 188 15 is_stmt 0 view .LVU205
	leaq	0(%rbp,%rax), %r12
.LVL87:
	.loc 1 190 3 is_stmt 1 view .LVU206
	.loc 1 190 6 is_stmt 0 view .LVU207
	cmpb	$0, (%r12)
	jne	.L148
.LVL88:
	.loc 1 190 6 view .LVU208
.LBE128:
.LBE127:
	.loc 1 297 3 is_stmt 1 view .LVU209
.LBB133:
	.loc 1 300 7 view .LVU210
	.loc 1 302 7 view .LVU211
	.loc 1 320 7 view .LVU212
	.loc 1 320 10 is_stmt 0 view .LVU213
	cmpq	$255, %r15
	ja	.L149
.LVL89:
	.loc 1 320 10 view .LVU214
.LBE133:
	.loc 1 352 3 is_stmt 1 view .LVU215
	.loc 1 352 6 is_stmt 0 view .LVU216
	cmpb	$0, 1(%rsp)
.LBB137:
	.loc 1 361 74 view .LVU217
	movl	$14, %r13d
.LBE137:
	.loc 1 352 6 view .LVU218
	je	.L69
.LVL90:
.L63:
	.loc 1 352 6 view .LVU219
	movq	%rbp, 16(%rsp)
.LBB156:
	.loc 1 361 74 view .LVU220
	movq	%rbp, %rbx
	movl	$14, %r14d
	movq	%r13, %rbp
.LVL91:
	.loc 1 361 74 view .LVU221
	jmp	.L143
.LVL92:
	.p2align 4,,10
	.p2align 3
.L79:
.LBB138:
.LBB139:
	.loc 1 211 5 is_stmt 1 view .LVU222
	.loc 1 211 6 is_stmt 0 view .LVU223
	addq	$1, %rbx
.LVL93:
.L143:
	.loc 1 210 9 is_stmt 1 view .LVU224
	.loc 1 210 10 is_stmt 0 view .LVU225
	movzbl	(%rbx), %r12d
	.loc 1 210 9 view .LVU226
	cmpb	$47, %r12b
	je	.L79
	.loc 1 212 3 is_stmt 1 view .LVU227
.LVL94:
	.loc 1 212 3 is_stmt 0 view .LVU228
.LBE139:
.LBE138:
	.loc 1 363 7 view .LVU229
	testb	%r12b, %r12b
	je	.L69
.LBB141:
	.loc 1 365 11 is_stmt 1 view .LVU230
	.loc 1 367 11 view .LVU231
	.loc 1 367 14 is_stmt 0 view .LVU232
	testq	%rbp, %rbp
	jne	.L94
.LBB142:
	.loc 1 371 15 is_stmt 1 view .LVU233
	.loc 1 372 15 view .LVU234
	.loc 1 372 54 is_stmt 0 view .LVU235
	movq	16(%rsp), %rax
	leaq	.LC25(%rip), %r15
	cmpq	%rbx, %rax
	cmovne	%rax, %r15
.LVL95:
	.loc 1 373 15 is_stmt 1 view .LVU236
	.loc 1 374 15 view .LVU237
	call	__errno_location@PLT
.LVL96:
	.loc 1 376 21 is_stmt 0 view .LVU238
	movl	$3, %esi
	.loc 1 374 21 view .LVU239
	movl	$0, (%rax)
	.loc 1 375 15 is_stmt 1 view .LVU240
	.loc 1 376 21 is_stmt 0 view .LVU241
	movq	%r15, %rdi
	.loc 1 374 15 view .LVU242
	movq	%rax, %r13
	.loc 1 375 22 view .LVU243
	movb	$0, (%rbx)
	.loc 1 376 15 is_stmt 1 view .LVU244
	.loc 1 376 21 is_stmt 0 view .LVU245
	call	pathconf@PLT
.LVL97:
	.loc 1 377 15 is_stmt 1 view .LVU246
	.loc 1 377 22 is_stmt 0 view .LVU247
	movb	%r12b, (%rbx)
	.loc 1 378 15 is_stmt 1 view .LVU248
	.loc 1 378 18 is_stmt 0 view .LVU249
	testq	%rax, %rax
	js	.L72
	.loc 1 379 17 is_stmt 1 view .LVU250
	.loc 1 379 26 is_stmt 0 view .LVU251
	movq	%rax, %r14
.LVL98:
.L70:
	.loc 1 379 26 view .LVU252
.LBE142:
	.loc 1 401 11 is_stmt 1 view .LVU253
.LBB143:
.LBI143:
	.loc 1 218 1 view .LVU254
.LBB144:
	.loc 1 220 3 view .LVU255
	.loc 1 221 3 view .LVU256
	.loc 1 221 17 view .LVU257
	.loc 1 221 18 is_stmt 0 view .LVU258
	movzbl	1(%rbx), %r15d
	.loc 1 221 3 view .LVU259
	cmpb	$47, %r15b
	je	.L73
	testb	%r15b, %r15b
	je	.L73
	.loc 1 221 12 view .LVU260
	movl	$1, %r8d
.LVL99:
.L74:
	.loc 1 222 5 is_stmt 1 view .LVU261
	.loc 1 221 42 view .LVU262
	.loc 1 221 45 is_stmt 0 view .LVU263
	addq	$1, %r8
.LVL100:
	.loc 1 221 17 is_stmt 1 view .LVU264
	.loc 1 221 18 is_stmt 0 view .LVU265
	movzbl	(%rbx,%r8), %r15d
	leaq	(%rbx,%r8), %r10
	.loc 1 221 3 view .LVU266
	cmpb	$47, %r15b
	je	.L76
	testb	%r15b, %r15b
	jne	.L74
.LVL101:
	.p2align 4,,10
	.p2align 3
.L76:
	.loc 1 223 3 is_stmt 1 view .LVU267
	.loc 1 223 3 is_stmt 0 view .LVU268
.LBE144:
.LBE143:
	.loc 1 403 11 is_stmt 1 view .LVU269
	.loc 1 403 14 is_stmt 0 view .LVU270
	cmpq	%r8, %r14
	jb	.L150
	movq	%r10, %rbx
.LVL102:
	.loc 1 403 14 view .LVU271
.LBE141:
	.loc 1 363 26 is_stmt 1 view .LVU272
.LBB151:
.LBI138:
	.loc 1 208 1 view .LVU273
.LBB140:
	.loc 1 210 3 view .LVU274
	.loc 1 210 9 view .LVU275
	jmp	.L143
.LVL103:
	.p2align 4,,10
	.p2align 3
.L73:
	.loc 1 210 9 is_stmt 0 view .LVU276
.LBE140:
.LBE151:
.LBB152:
.LBB146:
.LBB145:
	.loc 1 221 18 view .LVU277
	leaq	1(%rbx), %r10
	.loc 1 221 12 view .LVU278
	movl	$1, %r8d
	jmp	.L76
.LVL104:
.L94:
	.loc 1 221 12 view .LVU279
.LBE145:
.LBE146:
	movq	%rbp, %r14
	jmp	.L70
.LVL105:
.L72:
.LBB147:
	.loc 1 381 17 is_stmt 1 view .LVU280
	.loc 1 381 25 is_stmt 0 view .LVU281
	movl	0(%r13), %eax
.LVL106:
	.loc 1 381 17 view .LVU282
	testl	%eax, %eax
	je	.L96
	cmpl	$2, %eax
	je	.L97
	.loc 1 394 28 view .LVU283
	movb	$0, (%rbx)
	.loc 1 395 21 view .LVU284
	movq	%r15, %rdx
	movl	$3, %esi
	xorl	%edi, %edi
	movq	%r13, 16(%rsp)
.LVL107:
	.loc 1 394 21 is_stmt 1 view .LVU285
	.loc 1 395 21 view .LVU286
	call	quotearg_n_style_colon@PLT
.LVL108:
	movq	16(%rsp), %r10
	leaq	.LC36(%rip), %rdx
	xorl	%edi, %edi
	movq	%rax, %rcx
	xorl	%eax, %eax
	movl	(%r10), %esi
	call	error@PLT
.LVL109:
	.loc 1 396 21 view .LVU287
	.loc 1 396 28 is_stmt 0 view .LVU288
	movb	%r12b, (%rbx)
	.loc 1 397 21 is_stmt 1 view .LVU289
	.loc 1 397 28 is_stmt 0 view .LVU290
	xorl	%r8d, %r8d
	jmp	.L45
.LVL110:
.L147:
	.loc 1 397 28 view .LVU291
.LBE147:
.LBE152:
.LBE156:
	movq	%rbp, %rdi
	jmp	.L41
.LVL111:
	.p2align 4,,10
	.p2align 3
.L46:
.LBB157:
.LBB158:
	.loc 1 167 5 is_stmt 1 view .LVU292
	.loc 1 167 8 is_stmt 0 view .LVU293
	cmpq	%rax, %rbp
	je	.L43
	.loc 1 167 19 view .LVU294
	cmpb	$47, -1(%rax)
	je	.L43
	.loc 1 166 43 is_stmt 1 view .LVU295
	.loc 1 166 44 is_stmt 0 view .LVU296
	leaq	1(%rax), %rdi
.LVL112:
.L41:
	.loc 1 166 19 is_stmt 1 view .LVU297
	.loc 1 166 24 is_stmt 0 view .LVU298
	movl	$45, %esi
	call	strchr@PLT
.LVL113:
	.loc 1 166 3 view .LVU299
	testq	%rax, %rax
	jne	.L46
.LVL114:
	.loc 1 166 3 view .LVU300
.LBE158:
.LBE157:
	.loc 1 265 7 view .LVU301
	testq	%r15, %r15
	je	.L81
	.loc 1 275 3 is_stmt 1 view .LVU302
	.loc 1 275 6 is_stmt 0 view .LVU303
	cmpb	$0, 1(%rsp)
	jne	.L82
	jmp	.L49
.LVL115:
.L69:
	.loc 1 421 10 view .LVU304
	movl	$1, %r8d
	jmp	.L45
.LVL116:
.L43:
.LBB160:
.LBB159:
	.loc 1 169 9 is_stmt 1 view .LVU305
	movq	%rbp, %rsi
	movl	$4, %edi
	call	quotearg_style@PLT
.LVL117:
	.loc 1 169 22 is_stmt 0 view .LVU306
	movl	$5, %edx
	leaq	.LC32(%rip), %rsi
	xorl	%edi, %edi
	.loc 1 169 9 view .LVU307
	movq	%rax, %r15
.LVL118:
	.loc 1 169 22 view .LVU308
	call	dcgettext@PLT
.LVL119:
	.loc 1 169 9 view .LVU309
	movq	%r15, %rcx
	xorl	%esi, %esi
	xorl	%edi, %edi
	.loc 1 169 22 view .LVU310
	movq	%rax, %rdx
	.loc 1 169 9 view .LVU311
	xorl	%eax, %eax
	call	error@PLT
.LVL120:
	.loc 1 171 9 is_stmt 1 view .LVU312
	.loc 1 171 9 is_stmt 0 view .LVU313
.LBE159:
.LBE160:
	.loc 1 262 12 view .LVU314
	xorl	%r8d, %r8d
	jmp	.L45
.LVL121:
.L97:
.LBB161:
.LBB153:
.LBB148:
	.loc 1 381 17 view .LVU315
	movq	%r14, %rbp
	jmp	.L70
.LVL122:
.L56:
	.loc 1 381 17 view .LVU316
	movb	%r8b, 16(%rsp)
	.loc 1 381 17 view .LVU317
.LBE148:
.LBE153:
.LBE161:
	.loc 1 297 3 is_stmt 1 view .LVU318
	.loc 1 298 7 is_stmt 0 view .LVU319
	cmpq	$255, %r15
	jbe	.L57
.LBB162:
	.loc 1 300 7 is_stmt 1 view .LVU320
	.loc 1 302 7 view .LVU321
.LBB134:
	.loc 1 306 11 view .LVU322
	.loc 1 307 11 view .LVU323
	.loc 1 307 49 is_stmt 0 view .LVU324
	cmpb	$47, 0(%rbp)
	.loc 1 308 17 view .LVU325
	movl	$0, (%rbx)
	.loc 1 309 18 view .LVU326
	movl	$4, %esi
	.loc 1 307 49 view .LVU327
	leaq	.LC25(%rip), %r12
	leaq	.LC24(%rip), %rax
	cmove	%rax, %r12
.LVL123:
	.loc 1 308 11 is_stmt 1 view .LVU328
	.loc 1 309 11 view .LVU329
	.loc 1 309 18 is_stmt 0 view .LVU330
	movq	%r12, %rdi
	call	pathconf@PLT
.LVL124:
	.loc 1 310 11 is_stmt 1 view .LVU331
	.loc 1 310 14 is_stmt 0 view .LVU332
	testq	%rax, %rax
	js	.L151
	.loc 1 317 11 is_stmt 1 view .LVU333
	.loc 1 317 19 is_stmt 0 view .LVU334
	movq	%rax, %rbx
.LVL125:
	.loc 1 317 19 view .LVU335
.LBE134:
	.loc 1 320 7 is_stmt 1 view .LVU336
	.loc 1 320 10 is_stmt 0 view .LVU337
	cmpq	%rax, %r15
	jnb	.L53
.LVL126:
.L57:
	.loc 1 320 10 view .LVU338
	movzbl	0(%rbp), %eax
.LBE162:
.LBB163:
	movq	%rbp, %rdx
	jmp	.L142
	.p2align 4,,10
	.p2align 3
.L65:
.LVL127:
	.loc 1 320 10 view .LVU339
.LBE163:
.LBB168:
.LBB169:
	.loc 1 211 5 is_stmt 1 view .LVU340
	.loc 1 210 10 is_stmt 0 view .LVU341
	movzbl	1(%rdx), %eax
	.loc 1 211 6 view .LVU342
	addq	$1, %rdx
.LVL128:
	.loc 1 210 9 is_stmt 1 view .LVU343
.L142:
	.loc 1 210 9 is_stmt 0 view .LVU344
	cmpb	$47, %al
	je	.L65
	.loc 1 212 3 is_stmt 1 view .LVU345
.LVL129:
	.loc 1 212 3 is_stmt 0 view .LVU346
.LBE169:
.LBE168:
	.loc 1 338 7 view .LVU347
	testb	%al, %al
	je	.L69
.LVL130:
.LBB171:
.LBB164:
.LBB165:
	.loc 1 221 17 is_stmt 1 view .LVU348
	.loc 1 221 18 is_stmt 0 view .LVU349
	movzbl	1(%rdx), %eax
	.loc 1 221 3 view .LVU350
	cmpb	$47, %al
	je	.L100
	testb	%al, %al
	je	.L100
	.loc 1 221 12 view .LVU351
	movl	$1, %ecx
.LVL131:
.L61:
	.loc 1 222 5 is_stmt 1 view .LVU352
	.loc 1 221 42 view .LVU353
	.loc 1 221 45 is_stmt 0 view .LVU354
	addq	$1, %rcx
.LVL132:
	.loc 1 221 17 is_stmt 1 view .LVU355
	.loc 1 221 18 is_stmt 0 view .LVU356
	movzbl	(%rdx,%rcx), %eax
	leaq	(%rdx,%rcx), %rsi
	.loc 1 221 3 view .LVU357
	cmpb	$47, %al
	je	.L99
	testb	%al, %al
	jne	.L61
.L99:
	.loc 1 223 3 is_stmt 1 view .LVU358
.LVL133:
	.loc 1 223 3 is_stmt 0 view .LVU359
.LBE165:
.LBE164:
	.loc 1 342 11 is_stmt 1 view .LVU360
	.loc 1 342 14 is_stmt 0 view .LVU361
	cmpq	$14, %rcx
	ja	.L91
	movq	%rsi, %rdx
.LVL134:
	.loc 1 342 14 view .LVU362
.LBE171:
	.loc 1 338 26 is_stmt 1 view .LVU363
.LBB172:
.LBI168:
	.loc 1 208 1 view .LVU364
.LBB170:
	.loc 1 210 3 view .LVU365
	.loc 1 210 9 view .LVU366
	jmp	.L142
.LVL135:
	.p2align 4,,10
	.p2align 3
.L100:
	.loc 1 210 9 is_stmt 0 view .LVU367
.LBE170:
.LBE172:
.LBB173:
.LBB167:
.LBB166:
	.loc 1 221 18 view .LVU368
	addq	$1, %rdx
.LVL136:
	.loc 1 221 18 view .LVU369
	jmp	.L142
.LVL137:
.L91:
	.loc 1 221 18 view .LVU370
.LBE166:
.LBE167:
.LBE173:
.LBB174:
	.loc 1 361 74 view .LVU371
	xorl	%r13d, %r13d
	jmp	.L63
.LVL138:
.L40:
	.loc 1 361 74 view .LVU372
.LBE174:
.LBE181:
.LBE183:
	.loc 1 155 3 is_stmt 1 view .LVU373
	.loc 1 155 28 is_stmt 0 view .LVU374
	movzbl	2(%rsp), %eax
	xorl	$1, %eax
	.loc 1 156 1 view .LVU375
	movq	184(%rsp), %rcx
	xorq	%fs:40, %rcx
	.loc 1 155 28 view .LVU376
	movzbl	%al, %eax
	.loc 1 156 1 view .LVU377
	jne	.L152
	addq	$200, %rsp
	.cfi_remember_state
	.cfi_def_cfa_offset 56
	popq	%rbx
	.cfi_def_cfa_offset 48
	popq	%rbp
	.cfi_def_cfa_offset 40
	popq	%r12
	.cfi_def_cfa_offset 32
	popq	%r13
	.cfi_def_cfa_offset 24
	popq	%r14
	.cfi_def_cfa_offset 16
	popq	%r15
	.cfi_def_cfa_offset 8
	ret
.LVL139:
.L96:
	.cfi_restore_state
.LBB184:
.LBB182:
.LBB175:
.LBB154:
.LBB149:
	.loc 1 385 30 view .LVU378
	orq	$-1, %r14
	jmp	.L70
.LVL140:
.L81:
	.loc 1 385 30 view .LVU379
.LBE149:
.LBE154:
.LBE175:
	.loc 1 271 7 is_stmt 1 view .LVU380
	.loc 1 271 20 is_stmt 0 view .LVU381
	movl	$5, %edx
	leaq	.LC33(%rip), %rsi
	xorl	%edi, %edi
	call	dcgettext@PLT
.LVL141:
	.loc 1 271 7 view .LVU382
	xorl	%esi, %esi
	xorl	%edi, %edi
	.loc 1 271 20 view .LVU383
	movq	%rax, %rdx
	.loc 1 271 7 view .LVU384
	xorl	%eax, %eax
	call	error@PLT
.LVL142:
	.loc 1 272 7 is_stmt 1 view .LVU385
	.loc 1 272 14 is_stmt 0 view .LVU386
	xorl	%r8d, %r8d
	jmp	.L45
.LVL143:
.L151:
.LBB176:
.LBB135:
	.loc 1 310 24 view .LVU387
	cmpl	$0, (%rbx)
	je	.L57
	.loc 1 312 15 is_stmt 1 view .LVU388
	.loc 1 313 22 is_stmt 0 view .LVU389
	movl	$5, %edx
	leaq	.LC37(%rip), %rsi
	xorl	%edi, %edi
	call	dcgettext@PLT
.LVL144:
	.loc 1 312 15 view .LVU390
	movl	(%rbx), %esi
	movq	%r12, %rcx
	xorl	%edi, %edi
	.loc 1 313 22 view .LVU391
	movq	%rax, %rdx
	.loc 1 312 15 view .LVU392
	xorl	%eax, %eax
	call	error@PLT
.LVL145:
	.loc 1 315 15 is_stmt 1 view .LVU393
	.loc 1 315 22 is_stmt 0 view .LVU394
	movzbl	16(%rsp), %r8d
	jmp	.L45
.LVL146:
.L148:
	.loc 1 315 22 view .LVU395
.LBE135:
.LBE176:
.LBB177:
.LBB131:
.LBB129:
	.loc 1 192 7 is_stmt 1 view .LVU396
	.loc 1 193 24 is_stmt 0 view .LVU397
	movq	%r15, %rsi
	leaq	32(%rsp), %rdx
	movq	%r12, %rdi
	.loc 1 192 17 view .LVU398
	movq	$0, 32(%rsp)
	.loc 1 193 7 is_stmt 1 view .LVU399
	.loc 1 193 24 is_stmt 0 view .LVU400
	subq	%rax, %rsi
	call	rpl_mbrlen@PLT
.LVL147:
	.loc 1 194 7 view .LVU401
	movq	%rbp, %rdx
	movl	$4, %esi
	xorl	%edi, %edi
	.loc 1 193 24 view .LVU402
	movq	%rax, %r15
.LVL148:
	.loc 1 194 7 is_stmt 1 view .LVU403
	call	quotearg_n_style@PLT
.LVL149:
	.loc 1 194 7 is_stmt 0 view .LVU404
	movq	%rax, %rbp
.LVL150:
	.loc 1 194 7 view .LVU405
	cmpq	$16, %r15
	ja	.L153
.LVL151:
.L52:
	.loc 1 194 7 view .LVU406
	movq	%r15, %rcx
	movq	%r12, %rdx
	movl	$8, %esi
	movl	$1, %edi
	call	quotearg_n_style_mem@PLT
.LVL152:
	.loc 1 195 14 view .LVU407
	movl	$5, %edx
	leaq	.LC35(%rip), %rsi
	xorl	%edi, %edi
	.loc 1 194 7 view .LVU408
	movq	%rax, %r15
	.loc 1 195 14 view .LVU409
	call	dcgettext@PLT
.LVL153:
	.loc 1 194 7 view .LVU410
	movq	%rbp, %r8
	movq	%r15, %rcx
	xorl	%esi, %esi
	.loc 1 195 14 view .LVU411
	movq	%rax, %rdx
	.loc 1 194 7 view .LVU412
	xorl	%edi, %edi
	xorl	%eax, %eax
	call	error@PLT
.LVL154:
	.loc 1 199 7 is_stmt 1 view .LVU413
	.loc 1 199 7 is_stmt 0 view .LVU414
.LBE129:
.LBE131:
.LBE177:
	.loc 1 278 16 view .LVU415
	xorl	%r8d, %r8d
	jmp	.L45
.LVL155:
.L149:
.LBB178:
	.loc 1 303 17 view .LVU416
	movl	$256, %ebx
.LVL156:
.L53:
.LBB136:
	.loc 1 322 11 is_stmt 1 view .LVU417
	.loc 1 323 11 view .LVU418
	.loc 1 324 11 view .LVU419
	movq	%rbp, %rsi
	movl	$4, %edi
	call	quotearg_style@PLT
.LVL157:
	.loc 1 324 24 is_stmt 0 view .LVU420
	movl	$5, %edx
	leaq	.LC38(%rip), %rsi
	xorl	%edi, %edi
	.loc 1 324 11 view .LVU421
	movq	%rax, %rbp
.LVL158:
	.loc 1 324 24 view .LVU422
	call	dcgettext@PLT
.LVL159:
	.loc 1 324 11 view .LVU423
	movq	%r15, %r8
	.loc 1 323 29 view .LVU424
	leaq	-1(%rbx), %rcx
.LVL160:
	.loc 1 324 11 view .LVU425
	movq	%rbp, %r9
	.loc 1 324 24 view .LVU426
	movq	%rax, %rdx
	.loc 1 324 11 view .LVU427
	xorl	%esi, %esi
	xorl	%edi, %edi
	xorl	%eax, %eax
	call	error@PLT
.LVL161:
	.loc 1 326 11 is_stmt 1 view .LVU428
	.loc 1 326 18 is_stmt 0 view .LVU429
	xorl	%r8d, %r8d
	jmp	.L45
.LVL162:
.L153:
	.loc 1 326 18 view .LVU430
.LBE136:
.LBE178:
.LBB179:
.LBB132:
.LBB130:
	.loc 1 194 7 view .LVU431
	movl	$1, %r15d
.LVL163:
	.loc 1 194 7 view .LVU432
	jmp	.L52
.LVL164:
.L150:
	.loc 1 194 7 view .LVU433
.LBE130:
.LBE132:
.LBE179:
.LBB180:
.LBB155:
.LBB150:
	.loc 1 408 26 view .LVU434
	movb	$0, (%r10)
	.loc 1 409 15 view .LVU435
	movq	%rbx, %rdi
	.loc 1 408 26 view .LVU436
	movq	%r10, 16(%rsp)
.LVL165:
	.loc 1 408 26 view .LVU437
	movq	%r8, 24(%rsp)
	.loc 1 405 15 is_stmt 1 view .LVU438
.LVL166:
	.loc 1 406 15 view .LVU439
	.loc 1 407 15 view .LVU440
	.loc 1 408 15 view .LVU441
	.loc 1 409 15 view .LVU442
	call	quote@PLT
.LVL167:
	.loc 1 410 22 is_stmt 0 view .LVU443
	movl	$5, %edx
	leaq	.LC39(%rip), %rsi
	xorl	%edi, %edi
	.loc 1 409 15 view .LVU444
	movq	%rax, %rbp
.LVL168:
	.loc 1 410 22 view .LVU445
	call	dcgettext@PLT
.LVL169:
	.loc 1 409 15 view .LVU446
	movq	24(%rsp), %r8
	movq	%rbp, %r9
	movq	%r14, %rcx
	.loc 1 410 22 view .LVU447
	movq	%rax, %rdx
	.loc 1 409 15 view .LVU448
	xorl	%esi, %esi
	xorl	%edi, %edi
	xorl	%eax, %eax
	call	error@PLT
.LVL170:
	.loc 1 413 15 is_stmt 1 view .LVU449
	.loc 1 413 26 is_stmt 0 view .LVU450
	movq	16(%rsp), %r10
	.loc 1 414 22 view .LVU451
	xorl	%r8d, %r8d
	.loc 1 413 26 view .LVU452
	movb	%r15b, (%r10)
	.loc 1 414 15 is_stmt 1 view .LVU453
	.loc 1 414 22 is_stmt 0 view .LVU454
	jmp	.L45
.LVL171:
.L38:
	.loc 1 414 22 view .LVU455
.LBE150:
.LBE155:
.LBE180:
.LBE182:
.LBE184:
	.loc 1 147 7 is_stmt 1 view .LVU456
	.loc 1 147 20 is_stmt 0 view .LVU457
	movl	$5, %edx
	leaq	.LC31(%rip), %rsi
	xorl	%edi, %edi
	call	dcgettext@PLT
.LVL172:
	.loc 1 147 7 view .LVU458
	xorl	%esi, %esi
	xorl	%edi, %edi
	.loc 1 147 20 view .LVU459
	movq	%rax, %rdx
	.loc 1 147 7 view .LVU460
	xorl	%eax, %eax
	call	error@PLT
.LVL173:
.L144:
	.loc 1 148 7 is_stmt 1 view .LVU461
	movl	$1, %edi
	call	usage
.LVL174:
.L152:
	.loc 1 156 1 is_stmt 0 view .LVU462
	call	__stack_chk_fail@PLT
.LVL175:
	.cfi_endproc
.LFE162:
	.size	main, .-main
	.section	.rodata.str1.1
.LC40:
	.string	"portability"
.LC41:
	.string	"help"
.LC42:
	.string	"version"
	.section	.data.rel.ro.local,"aw"
	.align 32
	.type	longopts, @object
	.size	longopts, 128
longopts:
	.quad	.LC40
	.long	0
	.zero	4
	.quad	0
	.long	128
	.zero	4
	.quad	.LC41
	.long	0
	.zero	4
	.quad	0
	.long	-130
	.zero	4
	.quad	.LC42
	.long	0
	.zero	4
	.quad	0
	.long	-131
	.zero	4
	.quad	0
	.long	0
	.zero	4
	.quad	0
	.long	0
	.zero	4
	.text
.Letext0:
	.file 5 "/usr/lib/gcc/x86_64-linux-gnu/9/include/stddef.h"
	.file 6 "/usr/include/x86_64-linux-gnu/bits/types.h"
	.file 7 "/usr/include/x86_64-linux-gnu/bits/types/__mbstate_t.h"
	.file 8 "/usr/include/x86_64-linux-gnu/bits/types/struct_FILE.h"
	.file 9 "/usr/include/x86_64-linux-gnu/bits/types/FILE.h"
	.file 10 "/usr/include/stdio.h"
	.file 11 "/usr/include/x86_64-linux-gnu/bits/sys_errlist.h"
	.file 12 "/usr/include/x86_64-linux-gnu/bits/types/time_t.h"
	.file 13 "/usr/include/x86_64-linux-gnu/bits/types/struct_timespec.h"
	.file 14 "./lib/sys/select.h"
	.file 15 "/usr/include/x86_64-linux-gnu/bits/getopt_core.h"
	.file 16 "/usr/include/x86_64-linux-gnu/bits/getopt_ext.h"
	.file 17 "/usr/include/x86_64-linux-gnu/bits/types/mbstate_t.h"
	.file 18 "/usr/include/time.h"
	.file 19 "/usr/include/x86_64-linux-gnu/bits/stat.h"
	.file 20 "/usr/include/signal.h"
	.file 21 "/usr/include/unistd.h"
	.file 22 "/usr/include/errno.h"
	.file 23 "src/version.h"
	.file 24 "./lib/exitfail.h"
	.file 25 "/usr/include/x86_64-linux-gnu/bits/confname.h"
	.file 26 "./lib/timespec.h"
	.file 27 "./lib/version-etc.h"
	.file 28 "./lib/progname.h"
	.file 29 "./lib/quotearg.h"
	.file 30 "./lib/error.h"
	.file 31 "./lib/quote.h"
	.file 32 "./lib/wchar.h"
	.file 33 "/usr/include/libintl.h"
	.file 34 "/usr/include/string.h"
	.file 35 "/usr/include/locale.h"
	.file 36 "/usr/include/stdlib.h"
	.section	.note.GNU-stack,"",@progbits
	.section	.note.gnu.property,"a"
	.align 8
	.long	 1f - 0f
	.long	 4f - 1f
	.long	 5
0:
	.string	 "GNU"
1:
	.align 8
	.long	 0xc0000002
	.long	 3f - 2f
2:
	.long	 0x3
3:
	.align 8
4:
