	.file	"pr.c"
	.text
.Ltext0:
	.p2align 4
	.type	cols_ready_to_print, @function
cols_ready_to_print:
.LFB145:
	.file 1 "src/pr.c"
	.loc 1 786 1 view -0
	.cfi_startproc
	.loc 1 787 3 view .LVU1
	.loc 1 788 3 view .LVU2
	.loc 1 789 3 view .LVU3
	.loc 1 791 3 view .LVU4
.LVL0:
	.loc 1 792 3 view .LVU5
	.loc 1 792 36 is_stmt 0 view .LVU6
	movl	columns(%rip), %r8d
	.loc 1 792 10 view .LVU7
	movq	column_vector(%rip), %rax
.LVL1:
	.loc 1 792 34 is_stmt 1 view .LVU8
	.loc 1 792 3 is_stmt 0 view .LVU9
	testl	%r8d, %r8d
	je	.L1
	leal	-1(%r8), %edx
	.loc 1 795 13 view .LVU10
	movzbl	storing_columns(%rip), %ecx
	.loc 1 791 5 view .LVU11
	xorl	%r8d, %r8d
	addq	$1, %rdx
	salq	$6, %rdx
	addq	%rax, %rdx
.LVL2:
	.p2align 4,,10
	.p2align 3
.L5:
	.loc 1 793 5 is_stmt 1 view .LVU12
	.loc 1 793 8 is_stmt 0 view .LVU13
	cmpl	$1, 16(%rax)
	jbe	.L3
	.loc 1 795 9 view .LVU14
	testb	%cl, %cl
	je	.L4
	.loc 1 795 29 discriminator 1 view .LVU15
	movl	44(%rax), %edi
	testl	%edi, %edi
	jle	.L4
	.loc 1 795 52 discriminator 2 view .LVU16
	movl	48(%rax), %esi
	testl	%esi, %esi
	jle	.L4
.L3:
	.loc 1 796 7 is_stmt 1 view .LVU17
	addl	$1, %r8d
.LVL3:
.L4:
	.loc 1 792 47 discriminator 2 view .LVU18
	addq	$64, %rax
.LVL4:
	.loc 1 792 34 discriminator 2 view .LVU19
	.loc 1 792 3 is_stmt 0 discriminator 2 view .LVU20
	cmpq	%rdx, %rax
	jne	.L5
.LVL5:
.L1:
	.loc 1 798 1 view .LVU21
	movl	%r8d, %eax
.LVL6:
	.loc 1 798 1 view .LVU22
	ret
	.cfi_endproc
.LFE145:
	.size	cols_ready_to_print, .-cols_ready_to_print
	.p2align 4
	.type	reset_status, @function
reset_status:
.LFB158:
	.loc 1 1564 1 is_stmt 1 view -0
	.cfi_startproc
	.loc 1 1565 3 view .LVU24
	.loc 1 1565 7 is_stmt 0 view .LVU25
	movl	columns(%rip), %eax
.LVL7:
	.loc 1 1566 3 is_stmt 1 view .LVU26
	.loc 1 1568 3 view .LVU27
	.loc 1 1568 10 is_stmt 0 view .LVU28
	movq	column_vector(%rip), %rdi
.LVL8:
	.loc 1 1568 27 is_stmt 1 view .LVU29
	.loc 1 1568 3 is_stmt 0 view .LVU30
	testl	%eax, %eax
	je	.L16
	leal	-1(%rax), %edx
	movl	files_ready_to_read(%rip), %ecx
	.loc 1 1568 10 view .LVU31
	movq	%rdi, %rax
.LVL9:
	.loc 1 1568 3 view .LVU32
	xorl	%esi, %esi
	addq	$1, %rdx
	salq	$6, %rdx
	addq	%rdi, %rdx
.LVL10:
	.p2align 4,,10
	.p2align 3
.L18:
	.loc 1 1569 5 is_stmt 1 view .LVU33
	.loc 1 1569 8 is_stmt 0 view .LVU34
	cmpl	$2, 16(%rax)
	jne	.L17
	.loc 1 1571 9 is_stmt 1 view .LVU35
	.loc 1 1571 19 is_stmt 0 view .LVU36
	movl	$0, 16(%rax)
	.loc 1 1572 9 is_stmt 1 view .LVU37
	.loc 1 1572 28 is_stmt 0 view .LVU38
	addl	$1, %ecx
	movl	$1, %esi
.L17:
	.loc 1 1568 30 is_stmt 1 discriminator 2 view .LVU39
	.loc 1 1568 35 is_stmt 0 discriminator 2 view .LVU40
	addq	$64, %rax
.LVL11:
	.loc 1 1568 27 is_stmt 1 discriminator 2 view .LVU41
	.loc 1 1568 3 is_stmt 0 discriminator 2 view .LVU42
	cmpq	%rdx, %rax
	jne	.L18
	testb	%sil, %sil
	je	.L16
	movl	%ecx, files_ready_to_read(%rip)
.LVL12:
.L16:
	.loc 1 1575 3 is_stmt 1 view .LVU43
	.loc 1 1575 6 is_stmt 0 view .LVU44
	cmpb	$0, storing_columns(%rip)
	je	.L14
	.loc 1 1577 7 is_stmt 1 view .LVU45
	.loc 1 1579 29 is_stmt 0 view .LVU46
	xorl	%eax, %eax
	cmpl	$3, 16(%rdi)
	setne	%al
	movl	%eax, files_ready_to_read(%rip)
.L14:
	.loc 1 1583 1 view .LVU47
	ret
	.cfi_endproc
.LFE158:
	.size	reset_status, .-reset_status
	.p2align 4
	.type	store_char, @function
store_char:
.LVL13:
.LFB167:
	.loc 1 1999 1 is_stmt 1 view -0
	.cfi_startproc
	.loc 1 1999 1 is_stmt 0 view .LVU49
	endbr64
	.loc 1 2000 3 is_stmt 1 view .LVU50
	.loc 1 2000 20 is_stmt 0 view .LVU51
	movl	buff_current(%rip), %eax
	.loc 1 2000 6 view .LVU52
	cmpq	buff_allocated(%rip), %rax
	.loc 1 1999 1 view .LVU53
	pushq	%rbx
	.cfi_def_cfa_offset 16
	.cfi_offset 3, -16
	.loc 1 1999 1 view .LVU54
	movl	%edi, %ebx
	movq	buff(%rip), %rdi
.LVL14:
	.loc 1 1999 1 view .LVU55
	movq	%rax, %rdx
	.loc 1 2000 6 view .LVU56
	jnb	.L30
	.loc 1 2005 3 is_stmt 1 view .LVU57
	.loc 1 2005 20 is_stmt 0 view .LVU58
	addl	$1, %edx
	.loc 1 2005 24 view .LVU59
	movb	%bl, (%rdi,%rax)
	.loc 1 2006 1 view .LVU60
	popq	%rbx
	.cfi_remember_state
	.cfi_def_cfa_offset 8
	.loc 1 2005 20 view .LVU61
	movl	%edx, buff_current(%rip)
	.loc 1 2006 1 view .LVU62
	ret
	.p2align 4,,10
	.p2align 3
.L30:
	.cfi_restore_state
.LBB155:
	.loc 1 2003 7 is_stmt 1 view .LVU63
	.loc 1 2003 14 is_stmt 0 view .LVU64
	leaq	buff_allocated(%rip), %rsi
	call	x2realloc@PLT
.LVL15:
	movq	%rax, %rdi
	.loc 1 2003 12 view .LVU65
	movq	%rax, buff(%rip)
	movl	buff_current(%rip), %eax
	movq	%rax, %rdx
.LBE155:
	.loc 1 2005 3 is_stmt 1 view .LVU66
	.loc 1 2005 24 is_stmt 0 view .LVU67
	movb	%bl, (%rdi,%rax)
	.loc 1 2006 1 view .LVU68
	popq	%rbx
	.cfi_def_cfa_offset 8
	.loc 1 2005 20 view .LVU69
	addl	$1, %edx
	movl	%edx, buff_current(%rip)
	.loc 1 2006 1 view .LVU70
	ret
	.cfi_endproc
.LFE167:
	.size	store_char, .-store_char
	.section	.rodata.str1.1,"aMS",@progbits,1
.LC0:
	.string	"integer overflow"
	.text
	.p2align 4
	.type	integer_overflow, @function
integer_overflow:
.LFB144:
	.loc 1 777 1 is_stmt 1 view -0
	.cfi_startproc
	pushq	%rax
	.cfi_def_cfa_offset 16
	popq	%rax
	.cfi_def_cfa_offset 8
	.loc 1 778 3 view .LVU72
	movl	$5, %edx
	leaq	.LC0(%rip), %rsi
	xorl	%edi, %edi
	.loc 1 777 1 is_stmt 0 view .LVU73
	subq	$8, %rsp
	.cfi_def_cfa_offset 16
	.loc 1 778 3 view .LVU74
	call	dcgettext@PLT
.LVL16:
	xorl	%esi, %esi
	movl	$1, %edi
	movq	%rax, %rdx
	xorl	%eax, %eax
	call	error@PLT
.LVL17:
	.cfi_endproc
.LFE144:
	.size	integer_overflow, .-integer_overflow
	.section	.rodata.str1.1
.LC1:
	.string	""
	.text
	.p2align 4
	.type	first_last_page, @function
first_last_page:
.LVL18:
.LFB146:
	.loc 1 805 1 is_stmt 1 view -0
	.cfi_startproc
	.loc 1 805 1 is_stmt 0 view .LVU76
	pushq	%r14
	.cfi_def_cfa_offset 16
	.cfi_offset 14, -16
	.loc 1 809 22 view .LVU77
	leaq	.LC1(%rip), %r8
	.loc 1 805 1 view .LVU78
	pushq	%r13
	.cfi_def_cfa_offset 24
	.cfi_offset 13, -24
	pushq	%r12
	.cfi_def_cfa_offset 32
	.cfi_offset 12, -32
	movl	%edi, %r12d
	pushq	%rbp
	.cfi_def_cfa_offset 40
	.cfi_offset 6, -40
	movl	%esi, %ebp
	pushq	%rbx
	.cfi_def_cfa_offset 48
	.cfi_offset 3, -48
	movq	%rdx, %rbx
	.loc 1 809 22 view .LVU79
	movl	$10, %edx
.LVL19:
	.loc 1 809 22 view .LVU80
	movq	%rbx, %rdi
.LVL20:
	.loc 1 805 1 view .LVU81
	subq	$32, %rsp
	.cfi_def_cfa_offset 80
	.loc 1 805 1 view .LVU82
	movq	%fs:40, %rax
	movq	%rax, 24(%rsp)
	xorl	%eax, %eax
	.loc 1 806 3 is_stmt 1 view .LVU83
	.loc 1 807 3 view .LVU84
	.loc 1 808 3 view .LVU85
	.loc 1 809 22 is_stmt 0 view .LVU86
	movq	%rsp, %r14
	leaq	8(%rsp), %rcx
	.loc 1 808 13 view .LVU87
	movq	$-1, 16(%rsp)
	.loc 1 809 3 is_stmt 1 view .LVU88
	.loc 1 809 22 is_stmt 0 view .LVU89
	movq	%r14, %rsi
.LVL21:
	.loc 1 809 22 view .LVU90
	call	xstrtoumax@PLT
.LVL22:
	.loc 1 810 3 is_stmt 1 view .LVU91
	.loc 1 810 6 is_stmt 0 view .LVU92
	testl	$-3, %eax
	jne	.L42
	.loc 1 813 3 is_stmt 1 view .LVU93
	.loc 1 813 9 is_stmt 0 view .LVU94
	movq	(%rsp), %rax
.LVL23:
	.loc 1 813 6 view .LVU95
	cmpq	%rbx, %rax
	je	.L37
	.loc 1 813 18 discriminator 1 view .LVU96
	cmpq	$0, 8(%rsp)
	je	.L37
	.loc 1 816 3 is_stmt 1 view .LVU97
	.loc 1 816 7 is_stmt 0 view .LVU98
	movzbl	(%rax), %edx
	.loc 1 816 6 view .LVU99
	cmpb	$58, %dl
	je	.L43
.L38:
	.loc 1 826 3 is_stmt 1 view .LVU100
	.loc 1 826 6 is_stmt 0 view .LVU101
	testb	%dl, %dl
	jne	.L37
	.loc 1 829 3 is_stmt 1 view .LVU102
	.loc 1 829 21 is_stmt 0 view .LVU103
	movq	8(%rsp), %rax
	movq	%rax, first_page_number(%rip)
	.loc 1 830 3 is_stmt 1 view .LVU104
	.loc 1 830 20 is_stmt 0 view .LVU105
	movq	16(%rsp), %rax
	movq	%rax, last_page_number(%rip)
	.loc 1 831 3 is_stmt 1 view .LVU106
	.loc 1 831 10 is_stmt 0 view .LVU107
	movl	$1, %eax
	jmp	.L33
	.p2align 4,,10
	.p2align 3
.L37:
	.loc 1 814 12 view .LVU108
	xorl	%eax, %eax
.L33:
	.loc 1 832 1 view .LVU109
	movq	24(%rsp), %rbx
	xorq	%fs:40, %rbx
.LVL24:
	.loc 1 832 1 view .LVU110
	jne	.L44
	addq	$32, %rsp
	.cfi_remember_state
	.cfi_def_cfa_offset 48
	popq	%rbx
	.cfi_def_cfa_offset 40
	popq	%rbp
	.cfi_def_cfa_offset 32
	popq	%r12
	.cfi_def_cfa_offset 24
.LVL25:
	.loc 1 832 1 view .LVU111
	popq	%r13
	.cfi_def_cfa_offset 16
	popq	%r14
	.cfi_def_cfa_offset 8
	ret
.LVL26:
	.p2align 4,,10
	.p2align 3
.L43:
	.cfi_restore_state
.LBB156:
	.loc 1 818 7 is_stmt 1 view .LVU112
	.loc 1 818 19 is_stmt 0 view .LVU113
	leaq	1(%rax), %r13
.LVL27:
	.loc 1 819 7 is_stmt 1 view .LVU114
	.loc 1 819 13 is_stmt 0 view .LVU115
	leaq	16(%rsp), %rcx
	movl	$10, %edx
	movq	%r14, %rsi
	leaq	.LC1(%rip), %r8
	movq	%r13, %rdi
	call	xstrtoumax@PLT
.LVL28:
	.loc 1 820 7 is_stmt 1 view .LVU116
	.loc 1 820 10 is_stmt 0 view .LVU117
	testl	%eax, %eax
	jne	.L42
	.loc 1 822 7 is_stmt 1 view .LVU118
	.loc 1 822 14 is_stmt 0 view .LVU119
	movq	(%rsp), %rax
.LVL29:
	.loc 1 822 10 view .LVU120
	cmpq	%r13, %rax
	je	.L37
	.loc 1 822 19 discriminator 1 view .LVU121
	movq	8(%rsp), %rcx
	cmpq	%rcx, 16(%rsp)
	jb	.L37
	movzbl	(%rax), %edx
	jmp	.L38
.LVL30:
.L44:
	.loc 1 822 19 discriminator 1 view .LVU122
.LBE156:
	.loc 1 832 1 view .LVU123
	call	__stack_chk_fail@PLT
.LVL31:
.L42:
.LBB157:
	.loc 1 821 9 is_stmt 1 view .LVU124
	movsbl	%bpl, %edx
	movq	%rbx, %r8
	leaq	long_options(%rip), %rcx
	movl	%eax, %edi
	movl	%r12d, %esi
	call	xstrtol_fatal@PLT
.LVL32:
	.loc 1 821 9 is_stmt 0 view .LVU125
.LBE157:
	.cfi_endproc
.LFE146:
	.size	first_last_page, .-first_last_page
	.p2align 4
	.type	separator_string, @function
separator_string:
.LVL33:
.LFB148:
	.loc 1 849 1 is_stmt 1 view -0
	.cfi_startproc
	.loc 1 850 3 view .LVU127
	.loc 1 849 1 is_stmt 0 view .LVU128
	pushq	%rbx
	.cfi_def_cfa_offset 16
	.cfi_offset 3, -16
	.loc 1 849 1 view .LVU129
	movq	%rdi, %rbx
	.loc 1 850 16 view .LVU130
	call	strlen@PLT
.LVL34:
	.loc 1 851 3 is_stmt 1 view .LVU131
	.loc 1 851 6 is_stmt 0 view .LVU132
	cmpq	$2147483647, %rax
	ja	.L48
	.loc 1 853 3 is_stmt 1 view .LVU133
	.loc 1 854 18 is_stmt 0 view .LVU134
	movq	%rbx, col_sep_string(%rip)
	.loc 1 855 1 view .LVU135
	popq	%rbx
	.cfi_remember_state
	.cfi_def_cfa_offset 8
.LVL35:
	.loc 1 853 18 view .LVU136
	movl	%eax, col_sep_length(%rip)
	.loc 1 854 3 is_stmt 1 view .LVU137
	.loc 1 855 1 is_stmt 0 view .LVU138
	ret
.LVL36:
.L48:
	.cfi_restore_state
	.loc 1 852 5 is_stmt 1 view .LVU139
	call	integer_overflow
.LVL37:
	.loc 1 852 5 is_stmt 0 view .LVU140
	.cfi_endproc
.LFE148:
	.size	separator_string, .-separator_string
	.section	.rodata.str1.1
.LC2:
	.string	"invalid number of columns"
	.text
	.p2align 4
	.type	parse_column_count, @function
parse_column_count:
.LVL38:
.LFB147:
	.loc 1 840 1 is_stmt 1 view -0
	.cfi_startproc
	.loc 1 841 3 view .LVU142
	.loc 1 840 1 is_stmt 0 view .LVU143
	pushq	%rbp
	.cfi_def_cfa_offset 16
	.cfi_offset 6, -16
	.loc 1 841 30 view .LVU144
	movl	$5, %edx
	.loc 1 840 1 view .LVU145
	movq	%rdi, %rbp
	.loc 1 841 30 view .LVU146
	leaq	.LC2(%rip), %rsi
	xorl	%edi, %edi
.LVL39:
	.loc 1 841 30 view .LVU147
	call	dcgettext@PLT
.LVL40:
.LBB158:
.LBB159:
	.loc 1 1158 19 view .LVU148
	movq	%rbp, %rdi
	xorl	%r9d, %r9d
	movl	$2147483647, %edx
.LBE159:
.LBE158:
	.loc 1 841 30 view .LVU149
	movq	%rax, %r8
.LVL41:
.LBB162:
.LBI158:
	.loc 1 1156 1 is_stmt 1 view .LVU150
.LBB160:
	.loc 1 1158 3 view .LVU151
	.loc 1 1158 19 is_stmt 0 view .LVU152
	leaq	.LC1(%rip), %rcx
	movl	$1, %esi
	call	xdectoimax@PLT
.LVL42:
	.loc 1 1159 3 is_stmt 1 view .LVU153
.LBE160:
.LBE162:
	.loc 1 842 20 is_stmt 0 view .LVU154
	movb	$1, explicit_columns(%rip)
	.loc 1 843 1 view .LVU155
	popq	%rbp
	.cfi_def_cfa_offset 8
.LVL43:
.LBB163:
.LBB161:
	.loc 1 1159 8 view .LVU156
	movl	%eax, columns(%rip)
.LVL44:
	.loc 1 1159 8 view .LVU157
.LBE161:
.LBE163:
	.loc 1 842 3 is_stmt 1 view .LVU158
	.loc 1 843 1 is_stmt 0 view .LVU159
	ret
	.cfi_endproc
.LFE147:
	.size	parse_column_count, .-parse_column_count
	.section	.rodata.str1.1
.LC3:
	.string	"%s"
	.text
	.p2align 4
	.type	close_file, @function
close_file:
.LVL45:
.LFB156:
	.loc 1 1501 1 is_stmt 1 view -0
	.cfi_startproc
	.loc 1 1502 3 view .LVU161
	.loc 1 1503 3 view .LVU162
	.loc 1 1505 3 view .LVU163
	.loc 1 1505 6 is_stmt 0 view .LVU164
	cmpl	$3, 16(%rdi)
	je	.L69
	.loc 1 1501 1 view .LVU165
	pushq	%r12
	.cfi_def_cfa_offset 16
	.cfi_offset 12, -16
	pushq	%rbx
	.cfi_def_cfa_offset 24
	.cfi_offset 3, -24
	movq	%rdi, %rbx
	.loc 1 1507 3 is_stmt 1 view .LVU166
	.loc 1 1501 1 is_stmt 0 view .LVU167
	subq	$8, %rsp
	.cfi_def_cfa_offset 32
	.loc 1 1507 7 view .LVU168
	movq	(%rdi), %rdi
.LVL46:
.LBB164:
.LBI164:
	.file 2 "/usr/include/x86_64-linux-gnu/bits/stdio.h"
	.loc 2 135 1 is_stmt 1 view .LVU169
.LBB165:
	.loc 2 137 3 view .LVU170
	.loc 2 137 3 is_stmt 0 view .LVU171
.LBE165:
.LBE164:
	.loc 1 1507 6 view .LVU172
	testb	$32, (%rdi)
	jne	.L72
	.loc 1 1509 3 is_stmt 1 view .LVU173
	.loc 1 1509 7 is_stmt 0 view .LVU174
	call	fileno@PLT
.LVL47:
	.loc 1 1509 6 view .LVU175
	testl	%eax, %eax
	jne	.L73
.L54:
	.loc 1 1512 3 is_stmt 1 view .LVU176
	.loc 1 1512 6 is_stmt 0 view .LVU177
	cmpb	$0, parallel_files(%rip)
	jne	.L55
	.loc 1 1514 7 is_stmt 1 view .LVU178
	.loc 1 1514 33 is_stmt 0 view .LVU179
	movl	columns(%rip), %edx
	.loc 1 1514 14 view .LVU180
	movq	column_vector(%rip), %rax
.LVL48:
	.loc 1 1514 44 is_stmt 1 view .LVU181
	.loc 1 1514 7 is_stmt 0 view .LVU182
	testl	%edx, %edx
	je	.L57
	subl	$1, %edx
.LVL49:
	.loc 1 1514 7 view .LVU183
	addq	$1, %rdx
	salq	$6, %rdx
	addq	%rax, %rdx
.LVL50:
	.p2align 4,,10
	.p2align 3
.L59:
	.loc 1 1516 11 is_stmt 1 view .LVU184
	.loc 1 1517 14 is_stmt 0 view .LVU185
	movl	44(%rax), %ecx
	.loc 1 1516 21 view .LVU186
	movl	$3, 16(%rax)
	.loc 1 1517 11 is_stmt 1 view .LVU187
	.loc 1 1517 14 is_stmt 0 view .LVU188
	testl	%ecx, %ecx
	jne	.L58
	.loc 1 1519 15 is_stmt 1 view .LVU189
	.loc 1 1519 33 is_stmt 0 view .LVU190
	movl	$0, 48(%rax)
.L58:
	.loc 1 1514 47 is_stmt 1 discriminator 2 view .LVU191
	addq	$64, %rax
.LVL51:
	.loc 1 1514 44 discriminator 2 view .LVU192
	.loc 1 1514 7 is_stmt 0 discriminator 2 view .LVU193
	cmpq	%rdx, %rax
	jne	.L59
	.loc 1 1529 3 is_stmt 1 view .LVU194
	subl	$1, files_ready_to_read(%rip)
	.loc 1 1530 1 is_stmt 0 view .LVU195
	addq	$8, %rsp
	.cfi_remember_state
	.cfi_def_cfa_offset 24
	popq	%rbx
	.cfi_def_cfa_offset 16
.LVL52:
	.loc 1 1530 1 view .LVU196
	popq	%r12
	.cfi_def_cfa_offset 8
	ret
.LVL53:
	.p2align 4,,10
	.p2align 3
.L55:
	.cfi_restore_state
	.loc 1 1525 7 is_stmt 1 view .LVU197
	.loc 1 1525 17 is_stmt 0 view .LVU198
	movl	$3, 16(%rbx)
	.loc 1 1526 7 is_stmt 1 view .LVU199
	.loc 1 1526 25 is_stmt 0 view .LVU200
	movl	$0, 48(%rbx)
.L57:
	.loc 1 1529 3 is_stmt 1 view .LVU201
	subl	$1, files_ready_to_read(%rip)
	.loc 1 1530 1 is_stmt 0 view .LVU202
	addq	$8, %rsp
	.cfi_remember_state
	.cfi_def_cfa_offset 24
	popq	%rbx
	.cfi_def_cfa_offset 16
.LVL54:
	.loc 1 1530 1 view .LVU203
	popq	%r12
	.cfi_def_cfa_offset 8
	ret
.LVL55:
	.p2align 4,,10
	.p2align 3
.L73:
	.cfi_restore_state
	.loc 1 1509 41 discriminator 1 view .LVU204
	movq	(%rbx), %rdi
	call	rpl_fclose@PLT
.LVL56:
	.loc 1 1509 38 discriminator 1 view .LVU205
	testl	%eax, %eax
	je	.L54
.LBB166:
	.loc 1 1510 5 is_stmt 1 view .LVU206
	movq	8(%rbx), %rdx
	movl	$3, %esi
	xorl	%edi, %edi
	call	quotearg_n_style_colon@PLT
.LVL57:
	movq	%rax, %r12
	call	__errno_location@PLT
.LVL58:
	movq	%r12, %rcx
	movl	$1, %edi
	leaq	.LC3(%rip), %rdx
	movl	(%rax), %esi
	xorl	%eax, %eax
	call	error@PLT
.LVL59:
	.p2align 4,,10
	.p2align 3
.L69:
	.cfi_def_cfa_offset 8
	.cfi_restore 3
	.cfi_restore 12
	.loc 1 1510 5 is_stmt 0 view .LVU207
	ret
.LVL60:
.L72:
	.cfi_def_cfa_offset 32
	.cfi_offset 3, -24
	.cfi_offset 12, -16
	.loc 1 1510 5 view .LVU208
.LBE166:
.LBB167:
	.loc 1 1508 5 is_stmt 1 view .LVU209
	movq	8(%rbx), %rdx
	movl	$3, %esi
	xorl	%edi, %edi
	call	quotearg_n_style_colon@PLT
.LVL61:
	movq	%rax, %r12
	call	__errno_location@PLT
.LVL62:
	movq	%r12, %rcx
	movl	$1, %edi
	leaq	.LC3(%rip), %rdx
	movl	(%rax), %esi
	xorl	%eax, %eax
	call	error@PLT
.LVL63:
.LBE167:
	.cfi_endproc
.LFE156:
	.size	close_file, .-close_file
	.section	.rodata.str1.1
.LC4:
	.string	"%s.%09d"
	.text
	.p2align 4
	.type	init_header, @function
init_header:
.LVL64:
.LFB160:
	.loc 1 1626 1 view -0
	.cfi_startproc
	.loc 1 1626 1 is_stmt 0 view .LVU211
	pushq	%r15
	.cfi_def_cfa_offset 16
	.cfi_offset 15, -16
	pushq	%r14
	.cfi_def_cfa_offset 24
	.cfi_offset 14, -24
	pushq	%r13
	.cfi_def_cfa_offset 32
	.cfi_offset 13, -32
	pushq	%r12
	.cfi_def_cfa_offset 40
	.cfi_offset 12, -40
	movl	%esi, %r12d
	pushq	%rbp
	.cfi_def_cfa_offset 48
	.cfi_offset 6, -48
	pushq	%rbx
	.cfi_def_cfa_offset 56
	.cfi_offset 3, -56
	movq	%rdi, %rbx
	subq	$264, %rsp
	.cfi_def_cfa_offset 320
	.loc 1 1626 1 view .LVU212
	movq	%fs:40, %rax
	movq	%rax, 248(%rsp)
	xorl	%eax, %eax
	.loc 1 1627 3 is_stmt 1 view .LVU213
.LVL65:
	.loc 1 1628 3 view .LVU214
	.loc 1 1629 3 view .LVU215
	.loc 1 1630 3 view .LVU216
	.loc 1 1631 3 view .LVU217
	.loc 1 1634 3 view .LVU218
	.loc 1 1634 7 is_stmt 0 view .LVU219
	cmpb	$45, (%rdi)
	jne	.L87
	.loc 1 1634 6 view .LVU220
	cmpb	$0, 1(%rdi)
	jne	.L87
	.loc 1 1635 10 view .LVU221
	movl	$-1, %r12d
.LVL66:
.L76:
.LBB168:
	.loc 1 1640 7 is_stmt 1 view .LVU222
	.loc 1 1641 7 view .LVU223
	.loc 1 1641 10 is_stmt 0 view .LVU224
	cmpq	$0, timespec.7573(%rip)
	je	.L89
.L80:
	.loc 1 1643 7 is_stmt 1 view .LVU225
	.loc 1 1643 9 is_stmt 0 view .LVU226
	movdqa	timespec.7573(%rip), %xmm0
	movaps	%xmm0, (%rsp)
	movq	8(%rsp), %r14
.L79:
.LBE168:
	.loc 1 1646 3 is_stmt 1 view .LVU227
.LVL67:
	.loc 1 1647 3 view .LVU228
	.loc 1 1647 7 is_stmt 0 view .LVU229
	leaq	16(%rsp), %r15
	movq	localtz(%rip), %rdi
	movq	%rsp, %rsi
	movq	%r15, %rdx
	call	localtime_rz@PLT
.LVL68:
	.loc 1 1647 6 view .LVU230
	testq	%rax, %rax
	je	.L81
.LBB169:
	.loc 1 1649 7 is_stmt 1 view .LVU231
	.loc 1 1650 11 is_stmt 0 view .LVU232
	movq	localtz(%rip), %r8
	movl	%r14d, %r9d
	movq	%r15, %rcx
	xorl	%edi, %edi
	movq	date_format(%rip), %rdx
	movq	$-1, %rsi
	call	nstrftime@PLT
.LVL69:
	.loc 1 1649 14 view .LVU233
	leaq	1(%rax), %r13
.LVL70:
	.loc 1 1651 7 is_stmt 1 view .LVU234
	.loc 1 1651 13 is_stmt 0 view .LVU235
	movq	%r13, %rdi
	call	xmalloc@PLT
.LVL71:
	.loc 1 1652 7 view .LVU236
	movl	%r14d, %r9d
	movq	%r15, %rcx
	movq	%r13, %rsi
	movq	localtz(%rip), %r8
	movq	date_format(%rip), %rdx
	movq	%rax, %rdi
	.loc 1 1651 13 view .LVU237
	movq	%rax, %rbp
.LVL72:
	.loc 1 1652 7 is_stmt 1 view .LVU238
	call	nstrftime@PLT
.LVL73:
.L82:
	.loc 1 1652 7 is_stmt 0 view .LVU239
.LBE169:
	.loc 1 1661 3 is_stmt 1 view .LVU240
	movq	date_text(%rip), %rdi
	call	free@PLT
.LVL74:
	.loc 1 1662 3 view .LVU241
	.loc 1 1663 29 is_stmt 0 view .LVU242
	movq	custom_header(%rip), %rax
	.loc 1 1662 13 view .LVU243
	movq	%rbp, date_text(%rip)
	.loc 1 1663 3 is_stmt 1 view .LVU244
	.loc 1 1663 45 is_stmt 0 view .LVU245
	testq	%rax, %rax
	je	.L90
.L83:
	.loc 1 1665 31 discriminator 8 view .LVU246
	xorl	%esi, %esi
	movq	%rbp, %rdi
	.loc 1 1665 29 discriminator 8 view .LVU247
	movl	chars_per_line(%rip), %ebx
.LVL75:
	.loc 1 1663 13 discriminator 8 view .LVU248
	movq	%rax, file_text(%rip)
	.loc 1 1664 3 is_stmt 1 discriminator 8 view .LVU249
	.loc 1 1665 31 is_stmt 0 discriminator 8 view .LVU250
	call	gnu_mbswidth@PLT
.LVL76:
	.loc 1 1666 31 discriminator 8 view .LVU251
	movq	file_text(%rip), %rdi
	xorl	%esi, %esi
	.loc 1 1665 29 discriminator 8 view .LVU252
	subl	%eax, %ebx
	.loc 1 1666 31 discriminator 8 view .LVU253
	call	gnu_mbswidth@PLT
.LVL77:
	.loc 1 1666 29 discriminator 8 view .LVU254
	subl	%eax, %ebx
	movl	%ebx, header_width_available(%rip)
	.loc 1 1667 1 discriminator 8 view .LVU255
	movq	248(%rsp), %rax
	xorq	%fs:40, %rax
	jne	.L91
	.loc 1 1667 1 view .LVU256
	addq	$264, %rsp
	.cfi_remember_state
	.cfi_def_cfa_offset 56
	popq	%rbx
	.cfi_def_cfa_offset 48
	popq	%rbp
	.cfi_def_cfa_offset 40
.LVL78:
	.loc 1 1667 1 view .LVU257
	popq	%r12
	.cfi_def_cfa_offset 32
	popq	%r13
	.cfi_def_cfa_offset 24
	popq	%r14
	.cfi_def_cfa_offset 16
.LVL79:
	.loc 1 1667 1 view .LVU258
	popq	%r15
	.cfi_def_cfa_offset 8
	ret
.LVL80:
	.p2align 4,,10
	.p2align 3
.L87:
	.cfi_restore_state
	.loc 1 1636 3 is_stmt 1 view .LVU259
	.loc 1 1636 6 is_stmt 0 view .LVU260
	testl	%r12d, %r12d
	js	.L76
.LVL81:
.LBB170:
.LBI170:
	.file 3 "/usr/include/x86_64-linux-gnu/sys/stat.h"
	.loc 3 467 1 is_stmt 1 view .LVU261
.LBB171:
	.loc 3 469 3 view .LVU262
	.loc 3 469 10 is_stmt 0 view .LVU263
	leaq	80(%rsp), %rdx
.LVL82:
	.loc 3 469 10 view .LVU264
	movl	%r12d, %esi
	.loc 3 469 10 view .LVU265
	movl	$1, %edi
	call	__fxstat@PLT
.LVL83:
	.loc 3 469 10 view .LVU266
.LBE171:
.LBE170:
	.loc 1 1636 17 view .LVU267
	testl	%eax, %eax
	jne	.L76
	.loc 1 1637 5 is_stmt 1 view .LVU268
	movq	176(%rsp), %r14
.LVL84:
	.file 4 "./lib/stat-time.h"
	.loc 4 149 3 view .LVU269
	.loc 1 1637 9 is_stmt 0 view .LVU270
	movq	168(%rsp), %rax
	movq	%r14, 8(%rsp)
	movq	%rax, (%rsp)
	.loc 1 1637 7 view .LVU271
	jmp	.L79
.LVL85:
	.p2align 4,,10
	.p2align 3
.L90:
	.loc 1 1663 61 discriminator 1 view .LVU272
	testl	%r12d, %r12d
	leaq	.LC1(%rip), %rax
	cmovns	%rbx, %rax
	jmp	.L83
.LVL86:
	.p2align 4,,10
	.p2align 3
.L81:
.LBB172:
	.loc 1 1656 7 is_stmt 1 view .LVU273
	.loc 1 1657 7 view .LVU274
	.loc 1 1657 13 is_stmt 0 view .LVU275
	movl	$33, %edi
	call	xmalloc@PLT
.LVL87:
.LBB173:
.LBB174:
	.file 5 "src/system.h"
	.loc 5 694 11 view .LVU276
	movq	(%rsp), %rdi
	leaq	224(%rsp), %rsi
.LBE174:
.LBE173:
	.loc 1 1657 13 view .LVU277
	movq	%rax, %rbp
.LVL88:
	.loc 1 1658 7 is_stmt 1 view .LVU278
.LBB177:
.LBI173:
	.loc 5 690 1 view .LVU279
.LBB175:
	.loc 5 692 3 view .LVU280
	.loc 5 694 11 is_stmt 0 view .LVU281
	call	imaxtostr@PLT
.LVL89:
	.loc 5 694 11 view .LVU282
.LBE175:
.LBE177:
.LBB178:
.LBI178:
	.file 6 "/usr/include/x86_64-linux-gnu/bits/stdio2.h"
	.loc 6 34 1 is_stmt 1 view .LVU283
.LBB179:
	.loc 6 36 3 view .LVU284
	.loc 6 36 10 is_stmt 0 view .LVU285
	movl	%r14d, %r9d
	movl	$33, %edx
	movq	%rbp, %rdi
.LBE179:
.LBE178:
.LBB181:
.LBB176:
	.loc 5 694 11 view .LVU286
	movq	%rax, %r8
.LBE176:
.LBE181:
.LBB182:
.LBB180:
	.loc 6 36 10 view .LVU287
	leaq	.LC4(%rip), %rcx
	movl	$1, %esi
	xorl	%eax, %eax
	call	__sprintf_chk@PLT
.LVL90:
	.loc 6 36 10 view .LVU288
	jmp	.L82
.LVL91:
	.p2align 4,,10
	.p2align 3
.L89:
	.loc 6 36 10 view .LVU289
.LBE180:
.LBE182:
.LBE172:
.LBB183:
	.loc 1 1642 9 is_stmt 1 view .LVU290
	leaq	timespec.7573(%rip), %rdi
	call	gettime@PLT
.LVL92:
	jmp	.L80
.LVL93:
.L91:
	.loc 1 1642 9 is_stmt 0 view .LVU291
.LBE183:
	.loc 1 1667 1 view .LVU292
	call	__stack_chk_fail@PLT
.LVL94:
	.cfi_endproc
.LFE160:
	.size	init_header, .-init_header
	.p2align 4
	.type	pad_across_to, @function
pad_across_to:
.LVL95:
.LFB169:
	.loc 1 2057 1 is_stmt 1 view -0
	.cfi_startproc
	.loc 1 2058 3 view .LVU294
	.loc 1 2060 6 is_stmt 0 view .LVU295
	cmpb	$0, tabify_output(%rip)
	.loc 1 2057 1 view .LVU296
	pushq	%r12
	.cfi_def_cfa_offset 16
	.cfi_offset 12, -16
	pushq	%rbp
	.cfi_def_cfa_offset 24
	.cfi_offset 6, -24
	movl	%edi, %ebp
	pushq	%rbx
	.cfi_def_cfa_offset 32
	.cfi_offset 3, -32
	.loc 1 2058 7 view .LVU297
	movl	output_position(%rip), %ebx
.LVL96:
	.loc 1 2060 3 is_stmt 1 view .LVU298
	.loc 1 2060 6 is_stmt 0 view .LVU299
	jne	.L93
	.loc 1 2064 13 is_stmt 1 view .LVU300
	addl	$1, %ebx
.LVL97:
	.loc 1 2064 13 is_stmt 0 view .LVU301
	leal	1(%rdi), %r12d
	cmpl	%ebx, %edi
	jl	.L95
.LVL98:
	.p2align 4,,10
	.p2align 3
.L99:
	.loc 1 2065 9 is_stmt 1 view .LVU302
.LBB184:
.LBI184:
	.loc 2 108 1 view .LVU303
.LBB185:
	.loc 2 110 3 view .LVU304
	.loc 2 110 10 is_stmt 0 view .LVU305
	movq	stdout(%rip), %rdi
	movq	40(%rdi), %rax
	cmpq	48(%rdi), %rax
	jnb	.L103
	.loc 2 110 10 view .LVU306
	leaq	1(%rax), %rdx
	movq	%rdx, 40(%rdi)
	movb	$32, (%rax)
.L98:
.LVL99:
	.loc 2 110 10 view .LVU307
.LBE185:
.LBE184:
	.loc 1 2064 13 is_stmt 1 view .LVU308
	addl	$1, %ebx
.LVL100:
	.loc 1 2064 13 is_stmt 0 view .LVU309
	cmpl	%r12d, %ebx
	jne	.L99
.L95:
	.loc 1 2066 7 is_stmt 1 view .LVU310
	.loc 1 2068 1 is_stmt 0 view .LVU311
	popq	%rbx
	.cfi_remember_state
	.cfi_def_cfa_offset 24
.LVL101:
	.loc 1 2066 23 view .LVU312
	movl	%ebp, output_position(%rip)
	.loc 1 2068 1 view .LVU313
	popq	%rbp
	.cfi_def_cfa_offset 16
.LVL102:
	.loc 1 2068 1 view .LVU314
	popq	%r12
	.cfi_def_cfa_offset 8
	ret
.LVL103:
	.p2align 4,,10
	.p2align 3
.L93:
	.cfi_restore_state
	.loc 1 2061 5 is_stmt 1 view .LVU315
	.loc 1 2061 35 is_stmt 0 view .LVU316
	subl	%ebx, %ebp
	.loc 1 2068 1 view .LVU317
	popq	%rbx
	.cfi_remember_state
	.cfi_def_cfa_offset 24
.LVL104:
	.loc 1 2061 35 view .LVU318
	movl	%ebp, spaces_not_printed(%rip)
	.loc 1 2068 1 view .LVU319
	popq	%rbp
	.cfi_def_cfa_offset 16
	popq	%r12
	.cfi_def_cfa_offset 8
	ret
.LVL105:
	.p2align 4,,10
	.p2align 3
.L103:
	.cfi_restore_state
.LBB187:
.LBB186:
	.loc 2 110 10 view .LVU320
	movl	$32, %esi
	call	__overflow@PLT
.LVL106:
	jmp	.L98
.LBE186:
.LBE187:
	.cfi_endproc
.LFE169:
	.size	pad_across_to, .-pad_across_to
	.p2align 4
	.type	print_white_space, @function
print_white_space:
.LFB173:
	.loc 1 2194 1 is_stmt 1 view -0
	.cfi_startproc
	.loc 1 2195 3 view .LVU322
	.loc 1 2196 3 view .LVU323
	.loc 1 2196 7 is_stmt 0 view .LVU324
	movl	output_position(%rip), %esi
.LVL107:
	.loc 1 2197 3 is_stmt 1 view .LVU325
	.loc 1 2197 20 is_stmt 0 view .LVU326
	movl	spaces_not_printed(%rip), %edi
	.loc 1 2194 1 view .LVU327
	pushq	%r12
	.cfi_def_cfa_offset 16
	.cfi_offset 12, -16
	pushq	%rbp
	.cfi_def_cfa_offset 24
	.cfi_offset 6, -24
	.loc 1 2197 7 view .LVU328
	leal	(%rdi,%rsi), %ebp
.LVL108:
	.loc 1 2199 3 is_stmt 1 view .LVU329
	.loc 1 2199 9 view .LVU330
	.loc 1 2194 1 is_stmt 0 view .LVU331
	pushq	%rbx
	.cfi_def_cfa_offset 32
	.cfi_offset 3, -32
	.loc 1 2199 9 view .LVU332
	cmpl	$1, %edi
	jle	.L116
	.loc 1 2200 22 view .LVU333
	movl	chars_per_output_tab(%rip), %ecx
	movl	%esi, %eax
	cltd
	idivl	%ecx
	subl	%edx, %ecx
	.loc 1 2200 20 view .LVU334
	leal	(%rsi,%rcx), %ebx
.LVL109:
	.loc 1 2200 10 view .LVU335
	cmpl	%ecx, %edi
	jge	.L111
	jmp	.L116
.LVL110:
	.p2align 4,,10
	.p2align 3
.L106:
.LBB188:
.LBB189:
	.loc 2 110 10 view .LVU336
	leaq	1(%rax), %rdx
	movq	%rdx, 40(%rdi)
	movb	%sil, (%rax)
.LVL111:
	.loc 2 110 10 view .LVU337
.LBE189:
.LBE188:
	.loc 1 2199 9 is_stmt 1 view .LVU338
	.loc 1 2199 15 is_stmt 0 view .LVU339
	movl	%ebp, %eax
	subl	%ebx, %eax
	.loc 1 2199 9 view .LVU340
	cmpl	$1, %eax
	jle	.L105
.L108:
	.loc 1 2200 22 view .LVU341
	movl	chars_per_output_tab(%rip), %ecx
	movl	%ebx, %eax
	cltd
	idivl	%ecx
	subl	%edx, %ecx
	.loc 1 2200 20 view .LVU342
	addl	%ebx, %ecx
.LVL112:
	.loc 1 2200 10 view .LVU343
	cmpl	%ecx, %ebp
	jl	.L105
	.loc 1 2200 10 view .LVU344
	movl	%ecx, %ebx
.LVL113:
.L111:
	.loc 1 2202 7 is_stmt 1 view .LVU345
.LBB192:
.LBB190:
	.loc 2 110 10 is_stmt 0 view .LVU346
	movq	stdout(%rip), %rdi
.LBE190:
.LBE192:
	.loc 1 2202 7 view .LVU347
	movzbl	output_tab_char(%rip), %esi
.LVL114:
.LBB193:
.LBI188:
	.loc 2 108 1 is_stmt 1 view .LVU348
.LBB191:
	.loc 2 110 3 view .LVU349
	.loc 2 110 10 is_stmt 0 view .LVU350
	movq	40(%rdi), %rax
	cmpq	48(%rdi), %rax
	jb	.L106
	.loc 2 110 10 view .LVU351
	call	__overflow@PLT
.LVL115:
	.loc 2 110 10 view .LVU352
.LBE191:
.LBE193:
	.loc 1 2199 9 is_stmt 1 view .LVU353
	.loc 1 2199 15 is_stmt 0 view .LVU354
	movl	%ebp, %eax
	subl	%ebx, %eax
	.loc 1 2199 9 view .LVU355
	cmpl	$1, %eax
	jg	.L108
.LVL116:
	.p2align 4,,10
	.p2align 3
.L105:
	.loc 1 2205 9 is_stmt 1 view .LVU356
	addl	$1, %ebx
.LVL117:
	.loc 1 2205 9 is_stmt 0 view .LVU357
	leal	1(%rbp), %r12d
	cmpl	%ebx, %ebp
	jl	.L110
	.p2align 4,,10
	.p2align 3
.L114:
	.loc 1 2206 5 is_stmt 1 view .LVU358
.LVL118:
.LBB194:
.LBI194:
	.loc 2 108 1 view .LVU359
.LBB195:
	.loc 2 110 3 view .LVU360
	.loc 2 110 10 is_stmt 0 view .LVU361
	movq	stdout(%rip), %rdi
	movq	40(%rdi), %rax
	cmpq	48(%rdi), %rax
	jnb	.L121
	.loc 2 110 10 view .LVU362
	leaq	1(%rax), %rdx
	movq	%rdx, 40(%rdi)
	movb	$32, (%rax)
.L113:
.LVL119:
	.loc 2 110 10 view .LVU363
.LBE195:
.LBE194:
	.loc 1 2205 9 is_stmt 1 view .LVU364
	addl	$1, %ebx
.LVL120:
	.loc 1 2205 9 is_stmt 0 view .LVU365
	cmpl	%r12d, %ebx
	jne	.L114
.L110:
	.loc 1 2208 3 is_stmt 1 view .LVU366
	.loc 1 2210 1 is_stmt 0 view .LVU367
	popq	%rbx
	.cfi_remember_state
	.cfi_def_cfa_offset 24
.LVL121:
	.loc 1 2208 19 view .LVU368
	movl	%ebp, output_position(%rip)
	.loc 1 2209 3 is_stmt 1 view .LVU369
	.loc 1 2209 22 is_stmt 0 view .LVU370
	movl	$0, spaces_not_printed(%rip)
	.loc 1 2210 1 view .LVU371
	popq	%rbp
	.cfi_def_cfa_offset 16
.LVL122:
	.loc 1 2210 1 view .LVU372
	popq	%r12
	.cfi_def_cfa_offset 8
.LVL123:
	.loc 1 2210 1 view .LVU373
	ret
.LVL124:
	.p2align 4,,10
	.p2align 3
.L121:
	.cfi_restore_state
.LBB197:
.LBB196:
	.loc 2 110 10 view .LVU374
	movl	$32, %esi
	call	__overflow@PLT
.LVL125:
	jmp	.L113
.LVL126:
	.p2align 4,,10
	.p2align 3
.L116:
	.loc 2 110 10 view .LVU375
.LBE196:
.LBE197:
	.loc 1 2196 7 view .LVU376
	movl	%esi, %ebx
	jmp	.L105
	.cfi_endproc
.LFE173:
	.size	print_white_space, .-print_white_space
	.p2align 4
	.type	print_sep_string, @function
print_sep_string:
.LFB174:
	.loc 1 2219 1 is_stmt 1 view -0
	.cfi_startproc
	.loc 1 2220 3 view .LVU378
.LVL127:
	.loc 1 2221 3 view .LVU379
	.loc 1 2223 3 view .LVU380
	.loc 1 2223 6 is_stmt 0 view .LVU381
	movl	separators_not_printed(%rip), %edx
	movl	spaces_not_printed(%rip), %eax
	testl	%edx, %edx
	jle	.L123
	.loc 1 2219 1 view .LVU382
	pushq	%r14
	.cfi_def_cfa_offset 16
	.cfi_offset 14, -16
	.loc 1 2221 7 view .LVU383
	movl	col_sep_length(%rip), %r14d
	.loc 1 2219 1 view .LVU384
	pushq	%r13
	.cfi_def_cfa_offset 24
	.cfi_offset 13, -24
	pushq	%r12
	.cfi_def_cfa_offset 32
	.cfi_offset 12, -32
	pushq	%rbp
	.cfi_def_cfa_offset 40
	.cfi_offset 6, -40
	.loc 1 2220 15 view .LVU385
	movq	col_sep_string(%rip), %rbp
	.loc 1 2219 1 view .LVU386
	pushq	%rbx
	.cfi_def_cfa_offset 48
	.cfi_offset 3, -48
.LVL128:
	.p2align 4,,10
	.p2align 3
.L124:
	.loc 1 2233 17 is_stmt 1 view .LVU387
	.loc 1 2233 19 is_stmt 0 view .LVU388
	leal	-1(%r14), %r12d
.LVL129:
	.loc 1 2233 17 view .LVU389
	movq	%rbp, %rbx
	leaq	1(%rbp,%r12), %r13
	testl	%r14d, %r14d
	jg	.L131
	jmp	.L140
.LVL130:
	.p2align 4,,10
	.p2align 3
.L126:
	.loc 1 2246 19 is_stmt 1 view .LVU390
	.loc 1 2246 22 is_stmt 0 view .LVU391
	testl	%eax, %eax
	jle	.L128
	.loc 1 2247 21 is_stmt 1 view .LVU392
	call	print_white_space
.LVL131:
	movzbl	-1(%rbx), %esi
.L128:
	.loc 1 2248 19 view .LVU393
.LVL132:
.LBB198:
.LBI198:
	.loc 2 108 1 view .LVU394
.LBB199:
	.loc 2 110 3 view .LVU395
	.loc 2 110 10 is_stmt 0 view .LVU396
	movq	stdout(%rip), %rdi
	movq	40(%rdi), %rax
	cmpq	48(%rdi), %rax
	jnb	.L141
	.loc 2 110 10 view .LVU397
	leaq	1(%rax), %rdx
	movq	%rdx, 40(%rdi)
	movb	%sil, (%rax)
.LVL133:
.L130:
	.loc 2 110 10 view .LVU398
.LBE199:
.LBE198:
	.loc 1 2249 19 is_stmt 1 view .LVU399
	addl	$1, output_position(%rip)
	movl	spaces_not_printed(%rip), %eax
.LVL134:
	.loc 1 2233 17 view .LVU400
	.loc 1 2233 17 is_stmt 0 view .LVU401
	cmpq	%rbx, %r13
	je	.L142
.L131:
	.loc 1 2237 15 is_stmt 1 view .LVU402
	.loc 1 2237 19 is_stmt 0 view .LVU403
	movzbl	(%rbx), %esi
	addq	$1, %rbx
.LVL135:
	.loc 1 2237 18 view .LVU404
	cmpb	$32, %sil
	jne	.L126
	.loc 1 2241 19 is_stmt 1 view .LVU405
.LVL136:
	.loc 1 2242 19 view .LVU406
	addl	$1, %eax
	movl	%eax, spaces_not_printed(%rip)
.LVL137:
	.loc 1 2233 17 view .LVU407
	.loc 1 2233 17 is_stmt 0 view .LVU408
	cmpq	%rbx, %r13
	jne	.L131
.L142:
	.loc 1 2233 17 view .LVU409
	leaq	1(%rbp,%r12), %rbp
	.loc 1 2233 19 view .LVU410
	movl	$-1, %r14d
.L134:
	.loc 1 2253 11 is_stmt 1 view .LVU411
	.loc 1 2253 14 is_stmt 0 view .LVU412
	testl	%eax, %eax
	jle	.L132
	.loc 1 2254 13 is_stmt 1 view .LVU413
	call	print_white_space
.LVL138:
.L132:
	.loc 1 2231 42 view .LVU414
	movl	separators_not_printed(%rip), %eax
	subl	$1, %eax
	movl	%eax, separators_not_printed(%rip)
.LVL139:
	.loc 1 2231 14 view .LVU415
	.loc 1 2231 7 is_stmt 0 view .LVU416
	testl	%eax, %eax
	jle	.L122
	movl	spaces_not_printed(%rip), %eax
	jmp	.L124
.LVL140:
	.p2align 4,,10
	.p2align 3
.L141:
.LBB201:
.LBB200:
	.loc 2 110 10 view .LVU417
	call	__overflow@PLT
.LVL141:
	.loc 2 110 10 view .LVU418
	jmp	.L130
.LVL142:
	.p2align 4,,10
	.p2align 3
.L140:
	.loc 2 110 10 view .LVU419
.LBE200:
.LBE201:
	.loc 1 2233 19 view .LVU420
	movl	%r12d, %r14d
	jmp	.L134
.LVL143:
	.p2align 4,,10
	.p2align 3
.L122:
	.loc 1 2257 1 view .LVU421
	popq	%rbx
	.cfi_def_cfa_offset 40
	popq	%rbp
	.cfi_def_cfa_offset 32
.LVL144:
	.loc 1 2257 1 view .LVU422
	popq	%r12
	.cfi_def_cfa_offset 24
	popq	%r13
	.cfi_def_cfa_offset 16
	popq	%r14
	.cfi_def_cfa_offset 8
	ret
.LVL145:
.L123:
	.cfi_restore 3
	.cfi_restore 6
	.cfi_restore 12
	.cfi_restore 13
	.cfi_restore 14
	.loc 1 2226 7 is_stmt 1 view .LVU423
	.loc 1 2226 10 is_stmt 0 view .LVU424
	testl	%eax, %eax
	jg	.L143
	ret
.L143:
	.loc 1 2227 9 is_stmt 1 view .LVU425
	jmp	print_white_space
.LVL146:
	.loc 1 2227 9 is_stmt 0 view .LVU426
	.cfi_endproc
.LFE174:
	.size	print_sep_string, .-print_sep_string
	.section	.rodata.str1.1
.LC5:
	.string	"page number overflow"
.LC6:
	.string	"Page %lu"
.LC7:
	.string	"\n\n%*s%s%*s%s%*s%s\n\n\n"
.LC8:
	.string	" "
	.text
	.p2align 4
	.type	print_header, @function
print_header:
.LFB178:
	.loc 1 2354 1 is_stmt 1 view -0
	.cfi_startproc
	pushq	%rbp
	.cfi_def_cfa_offset 16
	.cfi_offset 6, -16
	pushq	%rbx
	.cfi_def_cfa_offset 24
	.cfi_offset 3, -24
	subq	$296, %rsp
	.cfi_def_cfa_offset 320
	.loc 1 2361 3 is_stmt 0 view .LVU428
	movl	chars_per_margin(%rip), %edi
	.loc 1 2354 1 view .LVU429
	movq	%fs:40, %rax
	movq	%rax, 280(%rsp)
	xorl	%eax, %eax
	.loc 1 2355 3 is_stmt 1 view .LVU430
	.loc 1 2356 3 view .LVU431
	.loc 1 2357 3 view .LVU432
	.loc 1 2358 3 view .LVU433
	.loc 1 2360 3 view .LVU434
	.loc 1 2360 19 is_stmt 0 view .LVU435
	movl	$0, output_position(%rip)
	.loc 1 2361 3 is_stmt 1 view .LVU436
	call	pad_across_to
.LVL147:
	.loc 1 2362 3 view .LVU437
	call	print_white_space
.LVL148:
	.loc 1 2364 3 view .LVU438
	.loc 1 2364 19 is_stmt 0 view .LVU439
	movq	page_number(%rip), %rbx
.LBB202:
	.loc 1 2365 5 view .LVU440
	movl	$5, %edx
.LBE202:
	.loc 1 2364 6 view .LVU441
	testq	%rbx, %rbx
	je	.L148
	.loc 1 2370 3 is_stmt 1 view .LVU442
	.loc 1 2370 23 is_stmt 0 view .LVU443
	xorl	%edi, %edi
	leaq	.LC6(%rip), %rsi
.LBB203:
.LBB204:
	.loc 6 36 10 view .LVU444
	movq	%rsp, %rbp
.LBE204:
.LBE203:
	.loc 1 2370 23 view .LVU445
	call	dcgettext@PLT
.LVL149:
.LBB207:
.LBB205:
	.loc 6 36 10 view .LVU446
	movq	%rbx, %r8
	movl	$276, %edx
	movq	%rbp, %rdi
.LBE205:
.LBE207:
	.loc 1 2370 23 view .LVU447
	movq	%rax, %rcx
.LVL150:
.LBB208:
.LBI203:
	.loc 6 34 1 is_stmt 1 view .LVU448
.LBB206:
	.loc 6 36 3 view .LVU449
	.loc 6 36 10 is_stmt 0 view .LVU450
	movl	$1, %esi
	xorl	%eax, %eax
.LVL151:
	.loc 6 36 10 view .LVU451
	call	__sprintf_chk@PLT
.LVL152:
	.loc 6 36 10 view .LVU452
.LBE206:
.LBE208:
	.loc 1 2371 3 is_stmt 1 view .LVU453
	.loc 1 2371 46 is_stmt 0 view .LVU454
	xorl	%esi, %esi
	.loc 1 2371 44 view .LVU455
	movl	header_width_available(%rip), %ebx
	.loc 1 2371 46 view .LVU456
	movq	%rbp, %rdi
	call	gnu_mbswidth@PLT
.LVL153:
	.loc 1 2372 3 is_stmt 1 view .LVU457
.LBB209:
.LBB210:
	.loc 6 107 10 is_stmt 0 view .LVU458
	movl	chars_per_margin(%rip), %edx
	movq	date_text(%rip), %r8
	leaq	.LC1(%rip), %rcx
.LBE210:
.LBE209:
	.loc 1 2372 19 view .LVU459
	subl	%eax, %ebx
.LVL154:
	.loc 1 2372 19 view .LVU460
	movl	$0, %eax
.LBB216:
.LBB211:
	.loc 6 107 10 view .LVU461
	leaq	.LC7(%rip), %rsi
	movl	$1, %edi
.LBE211:
.LBE216:
	.loc 1 2372 19 view .LVU462
	cmovs	%eax, %ebx
.LVL155:
	.loc 1 2373 3 is_stmt 1 view .LVU463
.LBB217:
.LBB212:
	.loc 6 107 10 is_stmt 0 view .LVU464
	subq	$8, %rsp
	.cfi_def_cfa_offset 328
	leaq	.LC8(%rip), %rax
	pushq	%rbp
	.cfi_def_cfa_offset 336
.LBE212:
.LBE217:
	.loc 1 2373 14 view .LVU465
	movl	%ebx, %r9d
.LBB218:
.LBB213:
	.loc 6 107 10 view .LVU466
	pushq	%rax
	.cfi_def_cfa_offset 344
.LBE213:
.LBE218:
	.loc 1 2373 14 view .LVU467
	sarl	%r9d
.LVL156:
	.loc 1 2374 3 is_stmt 1 view .LVU468
	.loc 1 2376 3 view .LVU469
.LBB219:
.LBI209:
	.loc 6 105 1 view .LVU470
.LBB214:
	.loc 6 107 3 view .LVU471
.LBE214:
.LBE219:
	.loc 1 2374 14 is_stmt 0 view .LVU472
	subl	%r9d, %ebx
.LVL157:
.LBB220:
.LBB215:
	.loc 6 107 10 view .LVU473
	pushq	%rbx
	.cfi_def_cfa_offset 352
	pushq	file_text(%rip)
	.cfi_def_cfa_offset 360
	pushq	%rax
	.cfi_def_cfa_offset 368
	xorl	%eax, %eax
	call	__printf_chk@PLT
.LVL158:
	.loc 6 107 10 view .LVU474
.LBE215:
.LBE220:
	.loc 1 2381 3 is_stmt 1 view .LVU475
	.loc 1 2381 18 is_stmt 0 view .LVU476
	movb	$0, print_a_header(%rip)
	.loc 1 2382 3 is_stmt 1 view .LVU477
	.loc 1 2383 1 is_stmt 0 view .LVU478
	addq	$48, %rsp
	.cfi_def_cfa_offset 320
	.loc 1 2382 19 view .LVU479
	movl	$0, output_position(%rip)
	.loc 1 2383 1 view .LVU480
	movq	280(%rsp), %rax
	xorq	%fs:40, %rax
	jne	.L149
	addq	$296, %rsp
	.cfi_remember_state
	.cfi_def_cfa_offset 24
	popq	%rbx
	.cfi_def_cfa_offset 16
.LVL159:
	.loc 1 2383 1 view .LVU481
	popq	%rbp
	.cfi_def_cfa_offset 8
	ret
.L148:
	.cfi_restore_state
.LBB221:
	.loc 1 2365 5 is_stmt 1 view .LVU482
	leaq	.LC5(%rip), %rsi
	xorl	%edi, %edi
	call	dcgettext@PLT
.LVL160:
	xorl	%esi, %esi
	movl	$1, %edi
	movq	%rax, %rdx
	xorl	%eax, %eax
	call	error@PLT
.LVL161:
.L149:
	.loc 1 2365 5 is_stmt 0 view .LVU483
.LBE221:
	.loc 1 2383 1 view .LVU484
	call	__stack_chk_fail@PLT
.LVL162:
	.cfi_endproc
.LFE178:
	.size	print_header, .-print_header
	.section	.rodata.str1.1
.LC9:
	.string	"%03o"
	.text
	.p2align 4
	.type	char_to_clump, @function
char_to_clump:
.LVL163:
.LFB181:
	.loc 1 2619 1 is_stmt 1 view -0
	.cfi_startproc
	.loc 1 2619 1 is_stmt 0 view .LVU486
	pushq	%r12
	.cfi_def_cfa_offset 16
	.cfi_offset 12, -16
	pushq	%rbp
	.cfi_def_cfa_offset 24
	.cfi_offset 6, -24
	movl	%edi, %ebp
	pushq	%rbx
	.cfi_def_cfa_offset 32
	.cfi_offset 3, -32
	subq	$16, %rsp
	.cfi_def_cfa_offset 48
	.loc 1 2621 9 view .LVU487
	movq	clump_buff(%rip), %rbx
	.loc 1 2619 1 view .LVU488
	movq	%fs:40, %rax
	movq	%rax, 8(%rsp)
	xorl	%eax, %eax
	.loc 1 2620 3 is_stmt 1 view .LVU489
.LVL164:
	.loc 1 2621 3 view .LVU490
	.loc 1 2622 3 view .LVU491
	.loc 1 2623 3 view .LVU492
	.loc 1 2624 3 view .LVU493
	.loc 1 2625 3 view .LVU494
	.loc 1 2626 3 view .LVU495
	.loc 1 2628 3 view .LVU496
	.loc 1 2628 6 is_stmt 0 view .LVU497
	cmpb	%dil, input_tab_char(%rip)
	je	.L179
	.loc 1 2631 3 is_stmt 1 view .LVU498
	.loc 1 2631 27 is_stmt 0 view .LVU499
	cmpb	$9, %dil
	je	.L180
	movzbl	%dil, %r12d
	.loc 1 2648 8 is_stmt 1 view .LVU500
	.loc 1 2648 14 is_stmt 0 view .LVU501
	call	__ctype_b_loc@PLT
.LVL165:
	.loc 1 2648 14 view .LVU502
	movq	(%rax), %rax
	.loc 1 2648 11 view .LVU503
	testb	$64, 1(%rax,%r12,2)
	jne	.L156
	.loc 1 2650 7 is_stmt 1 view .LVU504
	.loc 1 2650 10 is_stmt 0 view .LVU505
	cmpb	$0, use_esc_sequence(%rip)
	jne	.L159
	.loc 1 2659 12 is_stmt 1 view .LVU506
	.loc 1 2659 15 is_stmt 0 view .LVU507
	cmpb	$0, use_cntrl_prefix(%rip)
	je	.L158
	.loc 1 2661 11 is_stmt 1 view .LVU508
	.loc 1 2661 14 is_stmt 0 view .LVU509
	testb	%bpl, %bpl
	js	.L159
	.loc 1 2663 15 is_stmt 1 view .LVU510
.LVL166:
	.loc 1 2664 15 view .LVU511
	.loc 1 2665 15 view .LVU512
	.loc 1 2665 15 is_stmt 0 view .LVU513
	movl	input_position(%rip), %eax
	.loc 1 2666 18 view .LVU514
	xorl	$64, %ebp
	.loc 1 2665 20 view .LVU515
	movb	$94, (%rbx)
	.loc 1 2666 15 is_stmt 1 view .LVU516
	.loc 1 2664 21 is_stmt 0 view .LVU517
	movl	$2, %r8d
	.loc 1 2666 18 view .LVU518
	movb	%bpl, 1(%rbx)
	.loc 1 2699 3 is_stmt 1 view .LVU519
	.loc 1 2704 8 view .LVU520
	leal	2(%rax), %ecx
	jmp	.L153
.LVL167:
	.p2align 4,,10
	.p2align 3
.L180:
	.loc 1 2633 7 view .LVU521
	.loc 1 2633 15 is_stmt 0 view .LVU522
	movl	input_position(%rip), %ecx
	movl	%ecx, %eax
	sarl	$31, %eax
	shrl	$29, %eax
	leal	(%rcx,%rax), %edx
	andl	$7, %edx
	.loc 1 2633 13 view .LVU523
	subl	%edx, %eax
	.loc 1 2635 10 view .LVU524
	cmpb	$0, untabify_input(%rip)
	.loc 1 2633 13 view .LVU525
	leal	8(%rax), %r8d
.LVL168:
	.loc 1 2635 7 is_stmt 1 view .LVU526
	.loc 1 2633 13 is_stmt 0 view .LVU527
	movl	%r8d, %eax
	.loc 1 2635 10 view .LVU528
	je	.L152
.LVL169:
.L167:
	.loc 1 2635 10 view .LVU529
	leal	-1(%r8), %eax
.LVL170:
	.loc 1 2635 10 view .LVU530
	leaq	1(%rbx,%rax), %rax
	.p2align 4,,10
	.p2align 3
.L154:
.LVL171:
	.loc 1 2638 13 is_stmt 1 discriminator 3 view .LVU531
	.loc 1 2638 15 is_stmt 0 discriminator 3 view .LVU532
	addq	$1, %rbx
.LVL172:
	.loc 1 2638 18 discriminator 3 view .LVU533
	movb	$32, -1(%rbx)
	.loc 1 2637 30 is_stmt 1 discriminator 3 view .LVU534
	.loc 1 2637 27 discriminator 3 view .LVU535
	.loc 1 2637 11 is_stmt 0 discriminator 3 view .LVU536
	cmpq	%rbx, %rax
	jne	.L154
	movl	%r8d, %eax
.LVL173:
	.loc 1 2699 3 is_stmt 1 view .LVU537
	.loc 1 2699 6 is_stmt 0 view .LVU538
	testl	%eax, %eax
	js	.L163
.LVL174:
.L178:
	.loc 1 2699 6 view .LVU539
	addl	%eax, %ecx
.LVL175:
.L153:
	.loc 1 2707 5 is_stmt 1 view .LVU540
	.loc 1 2707 20 is_stmt 0 view .LVU541
	movl	%ecx, input_position(%rip)
.LVL176:
	.loc 1 2709 3 is_stmt 1 view .LVU542
.L150:
	.loc 1 2710 1 is_stmt 0 view .LVU543
	movq	8(%rsp), %rax
	xorq	%fs:40, %rax
	jne	.L181
	addq	$16, %rsp
	.cfi_remember_state
	.cfi_def_cfa_offset 32
	movl	%r8d, %eax
	popq	%rbx
	.cfi_def_cfa_offset 24
	popq	%rbp
	.cfi_def_cfa_offset 16
	popq	%r12
	.cfi_def_cfa_offset 8
	ret
.LVL177:
	.p2align 4,,10
	.p2align 3
.L179:
	.cfi_restore_state
	.loc 1 2629 5 is_stmt 1 view .LVU544
	.loc 1 2633 15 is_stmt 0 view .LVU545
	movl	input_position(%rip), %ecx
	.loc 1 2629 17 view .LVU546
	movl	chars_per_input_tab(%rip), %esi
.LVL178:
	.loc 1 2631 3 is_stmt 1 view .LVU547
	.loc 1 2633 7 view .LVU548
	.loc 1 2633 15 is_stmt 0 view .LVU549
	movl	%ecx, %eax
	cltd
	idivl	%esi
	.loc 1 2633 13 view .LVU550
	movl	%esi, %eax
	subl	%edx, %eax
.LVL179:
	.loc 1 2635 7 is_stmt 1 view .LVU551
	.loc 1 2635 10 is_stmt 0 view .LVU552
	cmpb	$0, untabify_input(%rip)
	jne	.L182
.L152:
	.loc 1 2643 11 is_stmt 1 view .LVU553
	.loc 1 2643 14 is_stmt 0 view .LVU554
	movb	%bpl, (%rbx)
	.loc 1 2644 11 is_stmt 1 view .LVU555
.LVL180:
	.loc 1 2644 17 is_stmt 0 view .LVU556
	movl	$1, %r8d
.LVL181:
	.loc 1 2699 3 is_stmt 1 view .LVU557
	.loc 1 2699 6 is_stmt 0 view .LVU558
	testl	%eax, %eax
	jns	.L178
.L163:
	.loc 1 2699 17 discriminator 1 view .LVU559
	testl	%ecx, %ecx
	je	.L161
	movl	%eax, %edx
	negl	%edx
.LVL182:
.L162:
	.loc 1 2704 22 discriminator 1 view .LVU560
	cmpl	%ecx, %edx
	jl	.L178
	.loc 1 2705 5 is_stmt 1 view .LVU561
	.loc 1 2705 20 is_stmt 0 view .LVU562
	movl	$0, input_position(%rip)
	jmp	.L150
.LVL183:
	.p2align 4,,10
	.p2align 3
.L156:
	.loc 1 2693 7 is_stmt 1 view .LVU563
	.loc 1 2694 7 view .LVU564
	.loc 1 2695 7 view .LVU565
	movl	input_position(%rip), %eax
	.loc 1 2695 10 is_stmt 0 view .LVU566
	movb	%bpl, (%rbx)
	.loc 1 2699 3 is_stmt 1 view .LVU567
	.loc 1 2704 8 view .LVU568
	.loc 1 2694 13 is_stmt 0 view .LVU569
	movl	$1, %r8d
	leal	1(%rax), %ecx
	jmp	.L153
.LVL184:
	.p2align 4,,10
	.p2align 3
.L182:
	.loc 1 2637 27 is_stmt 1 view .LVU570
	.loc 1 2637 11 is_stmt 0 view .LVU571
	testl	%eax, %eax
	je	.L169
	movl	%eax, %r8d
	jmp	.L167
.LVL185:
	.p2align 4,,10
	.p2align 3
.L161:
	.loc 1 2701 7 is_stmt 1 view .LVU572
	.loc 1 2702 7 view .LVU573
	.loc 1 2702 22 is_stmt 0 view .LVU574
	movl	$0, input_position(%rip)
	.loc 1 2701 13 view .LVU575
	xorl	%r8d, %r8d
	.loc 1 2702 22 view .LVU576
	jmp	.L150
.LVL186:
	.p2align 4,,10
	.p2align 3
.L159:
	.loc 1 2670 15 is_stmt 1 view .LVU577
	.loc 1 2671 15 view .LVU578
	.loc 1 2672 15 view .LVU579
	.loc 1 2672 20 is_stmt 0 view .LVU580
	movb	$92, (%rbx)
	.loc 1 2673 15 is_stmt 1 view .LVU581
.LVL187:
.LBB222:
.LBI222:
	.loc 6 34 1 view .LVU582
.LBB223:
	.loc 6 36 3 view .LVU583
	.loc 6 36 10 is_stmt 0 view .LVU584
	movzbl	%bpl, %r8d
	leaq	.LC9(%rip), %rcx
	xorl	%eax, %eax
	leaq	4(%rsp), %rdi
.LVL188:
	.loc 6 36 10 view .LVU585
	movl	$4, %edx
	movl	$1, %esi
	call	__sprintf_chk@PLT
.LVL189:
	.loc 6 36 10 view .LVU586
.LBE223:
.LBE222:
	.loc 1 2674 15 is_stmt 1 view .LVU587
	.loc 1 2674 27 view .LVU588
	.loc 1 2675 17 view .LVU589
	.loc 1 2675 22 is_stmt 0 view .LVU590
	movzbl	4(%rsp), %eax
	.loc 1 2671 21 view .LVU591
	movl	$4, %r8d
	.loc 1 2675 22 view .LVU592
	movb	%al, 1(%rbx)
	.loc 1 2674 35 is_stmt 1 view .LVU593
.LVL190:
	.loc 1 2674 27 view .LVU594
	.loc 1 2675 17 view .LVU595
	.loc 1 2675 22 is_stmt 0 view .LVU596
	movzbl	5(%rsp), %eax
	movb	%al, 2(%rbx)
	.loc 1 2674 35 is_stmt 1 view .LVU597
.LVL191:
	.loc 1 2674 27 view .LVU598
	.loc 1 2675 17 view .LVU599
	.loc 1 2675 22 is_stmt 0 view .LVU600
	movzbl	6(%rsp), %eax
	movb	%al, 3(%rbx)
	.loc 1 2674 35 is_stmt 1 view .LVU601
.LVL192:
	.loc 1 2674 27 view .LVU602
	.loc 1 2699 3 view .LVU603
	movl	input_position(%rip), %eax
	leal	4(%rax), %ecx
	jmp	.L153
.LVL193:
	.p2align 4,,10
	.p2align 3
.L158:
	.loc 1 2678 12 view .LVU604
	movl	input_position(%rip), %ecx
	.loc 1 2678 15 is_stmt 0 view .LVU605
	cmpb	$8, %bpl
	je	.L183
	.loc 1 2686 11 is_stmt 1 view .LVU606
.LVL194:
	.loc 1 2687 11 view .LVU607
	.loc 1 2688 11 view .LVU608
	.loc 1 2688 14 is_stmt 0 view .LVU609
	movb	%bpl, (%rbx)
	.loc 1 2699 3 is_stmt 1 view .LVU610
	.loc 1 2704 8 view .LVU611
	.loc 1 2687 17 is_stmt 0 view .LVU612
	movl	$1, %r8d
	jmp	.L153
.LVL195:
.L183:
	.loc 1 2680 11 is_stmt 1 view .LVU613
	.loc 1 2681 11 view .LVU614
	.loc 1 2682 11 view .LVU615
	.loc 1 2682 14 is_stmt 0 view .LVU616
	movb	$8, (%rbx)
	.loc 1 2699 3 is_stmt 1 view .LVU617
	.loc 1 2699 17 is_stmt 0 view .LVU618
	testl	%ecx, %ecx
	je	.L161
	movl	$1, %edx
	.loc 1 2681 17 view .LVU619
	movl	$1, %r8d
	.loc 1 2680 17 view .LVU620
	movl	$-1, %eax
	jmp	.L162
.LVL196:
	.p2align 4,,10
	.p2align 3
.L169:
	.loc 1 2639 17 view .LVU621
	xorl	%r8d, %r8d
	jmp	.L153
.LVL197:
.L181:
	.loc 1 2710 1 view .LVU622
	call	__stack_chk_fail@PLT
.LVL198:
	.cfi_endproc
.LFE181:
	.size	char_to_clump, .-char_to_clump
	.p2align 4
	.type	print_char, @function
print_char:
.LVL199:
.LFB176:
	.loc 1 2280 1 is_stmt 1 view -0
	.cfi_startproc
	.loc 1 2280 1 is_stmt 0 view .LVU624
	endbr64
	.loc 1 2281 3 is_stmt 1 view .LVU625
	.loc 1 2280 1 is_stmt 0 view .LVU626
	pushq	%rbp
	.cfi_def_cfa_offset 16
	.cfi_offset 6, -16
	pushq	%rbx
	.cfi_def_cfa_offset 24
	.cfi_offset 3, -24
	movl	%edi, %ebx
	subq	$8, %rsp
	.cfi_def_cfa_offset 32
	.loc 1 2281 6 view .LVU627
	cmpb	$0, tabify_output(%rip)
	je	.L186
	.loc 1 2283 7 is_stmt 1 view .LVU628
	movl	spaces_not_printed(%rip), %eax
	.loc 1 2283 10 is_stmt 0 view .LVU629
	cmpb	$32, %dil
	je	.L194
	movzbl	%dil, %ebp
	.loc 1 2288 12 is_stmt 1 view .LVU630
	.loc 1 2288 15 is_stmt 0 view .LVU631
	testl	%eax, %eax
	jle	.L189
	.loc 1 2289 9 is_stmt 1 view .LVU632
	call	print_white_space
.LVL200:
.L189:
	.loc 1 2292 7 view .LVU633
	.loc 1 2292 13 is_stmt 0 view .LVU634
	call	__ctype_b_loc@PLT
.LVL201:
.LBB224:
.LBI224:
	.loc 5 156 29 is_stmt 1 view .LVU635
.LBB225:
	.loc 5 156 50 view .LVU636
	.loc 5 156 50 is_stmt 0 view .LVU637
.LBE225:
.LBE224:
	.loc 1 2292 13 view .LVU638
	movq	(%rax), %rax
	.loc 1 2292 10 view .LVU639
	testb	$64, 1(%rax,%rbp,2)
	jne	.L190
	.loc 1 2294 11 is_stmt 1 view .LVU640
	.loc 1 2294 14 is_stmt 0 view .LVU641
	cmpb	$8, %bl
	jne	.L186
	.loc 1 2295 13 is_stmt 1 view .LVU642
	subl	$1, output_position(%rip)
.LVL202:
	.p2align 4,,10
	.p2align 3
.L186:
	.loc 1 2300 3 view .LVU643
.LBB226:
.LBI226:
	.loc 2 108 1 view .LVU644
.LBB227:
	.loc 2 110 3 view .LVU645
	.loc 2 110 10 is_stmt 0 view .LVU646
	movq	stdout(%rip), %rdi
	movq	40(%rdi), %rax
	cmpq	48(%rdi), %rax
	jnb	.L195
	leaq	1(%rax), %rdx
	movq	%rdx, 40(%rdi)
	movb	%bl, (%rax)
.LVL203:
	.loc 2 110 10 view .LVU647
.LBE227:
.LBE226:
	.loc 1 2301 1 view .LVU648
	addq	$8, %rsp
	.cfi_remember_state
	.cfi_def_cfa_offset 24
	popq	%rbx
	.cfi_def_cfa_offset 16
	popq	%rbp
	.cfi_def_cfa_offset 8
	ret
	.p2align 4,,10
	.p2align 3
.L190:
	.cfi_restore_state
	.loc 1 2298 9 is_stmt 1 view .LVU649
	addl	$1, output_position(%rip)
	jmp	.L186
.LVL204:
	.p2align 4,,10
	.p2align 3
.L194:
	.loc 1 2285 11 view .LVU650
	addl	$1, %eax
	movl	%eax, spaces_not_printed(%rip)
	.loc 1 2286 11 view .LVU651
	.loc 1 2301 1 is_stmt 0 view .LVU652
	addq	$8, %rsp
	.cfi_remember_state
	.cfi_def_cfa_offset 24
	popq	%rbx
	.cfi_def_cfa_offset 16
	popq	%rbp
	.cfi_def_cfa_offset 8
	ret
.LVL205:
	.p2align 4,,10
	.p2align 3
.L195:
	.cfi_restore_state
	.loc 1 2301 1 view .LVU653
	addq	$8, %rsp
	.cfi_def_cfa_offset 24
.LBB230:
.LBB228:
	.loc 2 110 10 view .LVU654
	movzbl	%bl, %esi
.LBE228:
.LBE230:
	.loc 1 2301 1 view .LVU655
	popq	%rbx
	.cfi_def_cfa_offset 16
.LVL206:
	.loc 1 2301 1 view .LVU656
	popq	%rbp
	.cfi_def_cfa_offset 8
.LBB231:
.LBB229:
	.loc 2 110 10 view .LVU657
	jmp	__overflow@PLT
.LVL207:
	.loc 2 110 10 view .LVU658
.LBE229:
.LBE231:
	.cfi_endproc
.LFE176:
	.size	print_char, .-print_char
	.p2align 4
	.type	print_stored, @function
print_stored:
.LVL208:
.LFB180:
	.loc 1 2547 1 is_stmt 1 view -0
	.cfi_startproc
	.loc 1 2547 1 is_stmt 0 view .LVU660
	endbr64
	.loc 1 2548 3 is_stmt 1 view .LVU661
	.loc 1 2550 3 view .LVU662
	.loc 1 2547 1 is_stmt 0 view .LVU663
	pushq	%r13
	.cfi_def_cfa_offset 16
	.cfi_offset 13, -16
	movq	%rdi, %r13
	pushq	%r12
	.cfi_def_cfa_offset 24
	.cfi_offset 12, -24
	pushq	%rbp
	.cfi_def_cfa_offset 32
	.cfi_offset 6, -32
	pushq	%rbx
	.cfi_def_cfa_offset 40
	.cfi_offset 3, -40
	subq	$8, %rsp
	.cfi_def_cfa_offset 48
	.loc 1 2550 15 view .LVU664
	movslq	40(%rdi), %r12
	.loc 1 2551 17 view .LVU665
	movq	buff(%rip), %rbp
	.loc 1 2565 18 view .LVU666
	movb	$1, pad_vertically(%rip)
	.loc 1 2550 29 view .LVU667
	leal	1(%r12), %eax
	movl	%eax, 40(%rdi)
.LVL209:
	.loc 1 2551 3 is_stmt 1 view .LVU668
	.loc 1 2551 34 is_stmt 0 view .LVU669
	movq	line_vector(%rip), %rax
	movslq	(%rax,%r12,4), %rbx
	.loc 1 2563 33 view .LVU670
	movslq	4(%rax,%r12,4), %rax
	.loc 1 2551 9 view .LVU671
	addq	%rbp, %rbx
.LVL210:
	.loc 1 2563 3 is_stmt 1 view .LVU672
	.loc 1 2563 9 is_stmt 0 view .LVU673
	addq	%rax, %rbp
.LVL211:
	.loc 1 2565 3 is_stmt 1 view .LVU674
	.loc 1 2567 3 view .LVU675
	.loc 1 2567 6 is_stmt 0 view .LVU676
	cmpb	$0, print_a_header(%rip)
	jne	.L211
.LVL212:
.L197:
	.loc 1 2570 3 is_stmt 1 view .LVU677
	.loc 1 2570 6 is_stmt 0 view .LVU678
	cmpl	$1, 16(%r13)
	je	.L212
.L198:
	.loc 1 2583 3 is_stmt 1 view .LVU679
	.loc 1 2583 22 is_stmt 0 view .LVU680
	movl	col_sep_length(%rip), %eax
	movl	padding_not_printed(%rip), %edi
	.loc 1 2583 6 view .LVU681
	cmpl	%edi, %eax
	jl	.L213
.L203:
	.loc 1 2589 3 is_stmt 1 view .LVU682
	.loc 1 2589 6 is_stmt 0 view .LVU683
	cmpb	$0, use_col_separator(%rip)
	jne	.L214
.L204:
	.loc 1 2592 9 is_stmt 1 view .LVU684
	cmpq	%rbp, %rbx
	je	.L205
	.p2align 4,,10
	.p2align 3
.L206:
	.loc 1 2593 5 view .LVU685
	movsbl	(%rbx), %edi
	.loc 1 2593 23 is_stmt 0 view .LVU686
	addq	$1, %rbx
.LVL213:
	.loc 1 2593 5 view .LVU687
	call	print_char
.LVL214:
	.loc 1 2592 9 is_stmt 1 view .LVU688
	cmpq	%rbx, %rbp
	jne	.L206
.L205:
	.loc 1 2595 3 view .LVU689
	.loc 1 2595 6 is_stmt 0 view .LVU690
	movl	spaces_not_printed(%rip), %eax
	testl	%eax, %eax
	jne	.L202
	.loc 1 2597 7 is_stmt 1 view .LVU691
	.loc 1 2597 43 is_stmt 0 view .LVU692
	movq	end_vector(%rip), %rdx
	.loc 1 2597 26 view .LVU693
	movl	52(%r13), %eax
	.loc 1 2598 29 view .LVU694
	movl	col_sep_length(%rip), %ecx
	.loc 1 2597 43 view .LVU695
	movl	(%rdx,%r12,4), %esi
	addl	%eax, %esi
	.loc 1 2598 29 view .LVU696
	subl	%ecx, %eax
	.loc 1 2598 10 view .LVU697
	cmpl	chars_per_margin(%rip), %eax
	.loc 1 2597 23 view .LVU698
	movl	%esi, output_position(%rip)
	.loc 1 2598 7 is_stmt 1 view .LVU699
	.loc 1 2597 43 is_stmt 0 view .LVU700
	movl	%esi, %edx
	.loc 1 2598 10 view .LVU701
	je	.L215
.L202:
	.loc 1 2603 1 view .LVU702
	addq	$8, %rsp
	.cfi_remember_state
	.cfi_def_cfa_offset 40
	movl	$1, %eax
	popq	%rbx
	.cfi_def_cfa_offset 32
.LVL215:
	.loc 1 2603 1 view .LVU703
	popq	%rbp
	.cfi_def_cfa_offset 24
.LVL216:
	.loc 1 2603 1 view .LVU704
	popq	%r12
	.cfi_def_cfa_offset 16
.LVL217:
	.loc 1 2603 1 view .LVU705
	popq	%r13
	.cfi_def_cfa_offset 8
.LVL218:
	.loc 1 2603 1 view .LVU706
	ret
.LVL219:
	.p2align 4,,10
	.p2align 3
.L212:
	.cfi_restore_state
.LBB232:
	.loc 1 2572 7 is_stmt 1 view .LVU707
	.loc 1 2573 7 view .LVU708
	.loc 1 2573 40 is_stmt 0 view .LVU709
	movl	columns(%rip), %eax
	.loc 1 2573 21 view .LVU710
	movq	column_vector(%rip), %rcx
.LVL220:
	.loc 1 2573 38 is_stmt 1 view .LVU711
	.loc 1 2573 7 is_stmt 0 view .LVU712
	testl	%eax, %eax
	jle	.L199
	leal	-1(%rax), %edx
	.loc 1 2573 21 view .LVU713
	movq	%rcx, %rax
	addq	$1, %rdx
	salq	$6, %rdx
	addq	%rcx, %rdx
.LVL221:
	.p2align 4,,10
	.p2align 3
.L200:
	.loc 1 2574 9 is_stmt 1 discriminator 3 view .LVU714
	.loc 1 2574 19 is_stmt 0 discriminator 3 view .LVU715
	movl	$2, 16(%rax)
	.loc 1 2573 52 is_stmt 1 discriminator 3 view .LVU716
	.loc 1 2573 57 is_stmt 0 discriminator 3 view .LVU717
	addq	$64, %rax
.LVL222:
	.loc 1 2573 38 is_stmt 1 discriminator 3 view .LVU718
	.loc 1 2573 7 is_stmt 0 discriminator 3 view .LVU719
	cmpq	%rdx, %rax
	jne	.L200
.LVL223:
.L199:
	.loc 1 2575 7 is_stmt 1 view .LVU720
	.loc 1 2575 10 is_stmt 0 view .LVU721
	movl	48(%rcx), %edx
	testl	%edx, %edx
	jg	.L198
	.loc 1 2577 11 is_stmt 1 view .LVU722
	.loc 1 2577 14 is_stmt 0 view .LVU723
	cmpb	$0, extremities(%rip)
	jne	.L202
	.loc 1 2578 13 is_stmt 1 view .LVU724
	.loc 1 2578 28 is_stmt 0 view .LVU725
	movb	$0, pad_vertically(%rip)
	jmp	.L202
.LVL224:
	.p2align 4,,10
	.p2align 3
.L211:
	.loc 1 2578 28 view .LVU726
.LBE232:
	.loc 1 2568 5 is_stmt 1 view .LVU727
	call	print_header
.LVL225:
	.loc 1 2568 5 is_stmt 0 view .LVU728
	jmp	.L197
	.p2align 4,,10
	.p2align 3
.L214:
	.loc 1 2590 5 is_stmt 1 view .LVU729
	call	print_sep_string
.LVL226:
	jmp	.L204
	.p2align 4,,10
	.p2align 3
.L213:
	.loc 1 2585 7 view .LVU730
	subl	%eax, %edi
	call	pad_across_to
.LVL227:
	.loc 1 2586 7 view .LVU731
	.loc 1 2586 27 is_stmt 0 view .LVU732
	movl	$0, padding_not_printed(%rip)
	jmp	.L203
	.p2align 4,,10
	.p2align 3
.L215:
	.loc 1 2599 9 is_stmt 1 view .LVU733
	.loc 1 2599 25 is_stmt 0 view .LVU734
	subl	%ecx, %edx
	.loc 1 2603 1 view .LVU735
	movl	$1, %eax
	.loc 1 2599 25 view .LVU736
	movl	%edx, output_position(%rip)
	.loc 1 2603 1 view .LVU737
	addq	$8, %rsp
	.cfi_def_cfa_offset 40
	popq	%rbx
	.cfi_def_cfa_offset 32
.LVL228:
	.loc 1 2603 1 view .LVU738
	popq	%rbp
	.cfi_def_cfa_offset 24
.LVL229:
	.loc 1 2603 1 view .LVU739
	popq	%r12
	.cfi_def_cfa_offset 16
.LVL230:
	.loc 1 2603 1 view .LVU740
	popq	%r13
	.cfi_def_cfa_offset 8
.LVL231:
	.loc 1 2603 1 view .LVU741
	ret
	.cfi_endproc
.LFE180:
	.size	print_stored, .-print_stored
	.p2align 4
	.type	hold_file.isra.0, @function
hold_file.isra.0:
.LFB185:
	.loc 1 1539 1 is_stmt 1 view -0
	.cfi_startproc
	.loc 1 1541 3 view .LVU743
	.loc 1 1542 3 view .LVU744
	.loc 1 1544 3 view .LVU745
	.loc 1 1544 6 is_stmt 0 view .LVU746
	cmpb	$0, parallel_files(%rip)
	jne	.L217
	.loc 1 1545 5 is_stmt 1 view .LVU747
	.loc 1 1545 31 is_stmt 0 view .LVU748
	movl	columns(%rip), %edx
	.loc 1 1545 12 view .LVU749
	movq	column_vector(%rip), %rax
.LVL232:
	.loc 1 1545 42 is_stmt 1 view .LVU750
	.loc 1 1545 5 is_stmt 0 view .LVU751
	testl	%edx, %edx
	je	.L219
	cmpb	$1, storing_columns(%rip)
	sbbl	%ecx, %ecx
	subl	$1, %edx
.LVL233:
	.loc 1 1545 5 view .LVU752
	addq	$1, %rdx
	notl	%ecx
	salq	$6, %rdx
	addl	$2, %ecx
	addq	%rax, %rdx
.LVL234:
	.p2align 4,,10
	.p2align 3
.L220:
	.loc 1 1547 9 is_stmt 1 view .LVU753
	movl	%ecx, 16(%rax)
	.loc 1 1545 45 view .LVU754
	addq	$64, %rax
.LVL235:
	.loc 1 1545 42 view .LVU755
	.loc 1 1545 5 is_stmt 0 view .LVU756
	cmpq	%rdx, %rax
	jne	.L220
.L219:
	.loc 1 1555 3 is_stmt 1 view .LVU757
	.loc 1 1556 3 is_stmt 0 view .LVU758
	subl	$1, files_ready_to_read(%rip)
	.loc 1 1555 21 view .LVU759
	movl	$0, (%rsi)
	.loc 1 1556 3 is_stmt 1 view .LVU760
	.loc 1 1557 1 is_stmt 0 view .LVU761
	ret
.LVL236:
	.p2align 4,,10
	.p2align 3
.L217:
	.loc 1 1553 5 is_stmt 1 view .LVU762
	.loc 1 1553 15 is_stmt 0 view .LVU763
	movl	$2, (%rdi)
	.loc 1 1555 3 is_stmt 1 view .LVU764
	.loc 1 1556 3 is_stmt 0 view .LVU765
	subl	$1, files_ready_to_read(%rip)
	.loc 1 1555 21 view .LVU766
	movl	$0, (%rsi)
	.loc 1 1556 3 is_stmt 1 view .LVU767
	.loc 1 1557 1 is_stmt 0 view .LVU768
	ret
	.cfi_endproc
.LFE185:
	.size	hold_file.isra.0, .-hold_file.isra.0
	.p2align 4
	.type	skip_read, @function
skip_read:
.LVL237:
.LFB172:
	.loc 1 2127 1 is_stmt 1 view -0
	.cfi_startproc
	.loc 1 2128 3 view .LVU770
	.loc 1 2129 3 view .LVU771
	.loc 1 2127 1 is_stmt 0 view .LVU772
	pushq	%r13
	.cfi_def_cfa_offset 16
	.cfi_offset 13, -16
	movq	%rdi, %r13
	pushq	%r12
	.cfi_def_cfa_offset 24
	.cfi_offset 12, -24
	pushq	%rbp
	.cfi_def_cfa_offset 32
	.cfi_offset 6, -32
	pushq	%rbx
	.cfi_def_cfa_offset 40
	.cfi_offset 3, -40
	movl	%esi, %ebx
	subq	$8, %rsp
	.cfi_def_cfa_offset 48
	.loc 1 2129 9 view .LVU773
	movq	(%rdi), %rbp
.LVL238:
	.loc 1 2130 3 is_stmt 1 view .LVU774
	.loc 1 2131 3 view .LVU775
	.loc 1 2132 3 view .LVU776
	.loc 1 2135 3 view .LVU777
.LBB233:
.LBI233:
	.loc 2 66 1 view .LVU778
.LBB234:
	.loc 2 68 3 view .LVU779
	.loc 2 68 10 is_stmt 0 view .LVU780
	movq	8(%rbp), %rax
	cmpq	16(%rbp), %rax
	jnb	.L278
	leaq	1(%rax), %rdx
	movq	%rdx, 8(%rbp)
	movzbl	(%rax), %eax
.LVL239:
.L225:
	.loc 2 68 10 view .LVU781
.LBE234:
.LBE233:
	.loc 1 2135 6 view .LVU782
	cmpl	$12, %eax
	je	.L279
	.loc 1 2141 3 is_stmt 1 view .LVU783
	.loc 1 2141 24 is_stmt 0 view .LVU784
	movb	$0, 57(%r13)
	.loc 1 2145 3 is_stmt 1 view .LVU785
	.loc 1 2131 8 is_stmt 0 view .LVU786
	xorl	%r12d, %r12d
.L253:
.LVL240:
	.loc 1 2150 3 is_stmt 1 view .LVU787
	.loc 1 2150 6 is_stmt 0 view .LVU788
	cmpb	$0, last_line(%rip)
	je	.L246
	.loc 1 2151 5 is_stmt 1 view .LVU789
	.loc 1 2151 26 is_stmt 0 view .LVU790
	movb	$1, 57(%r13)
.LVL241:
	.loc 1 2153 9 is_stmt 1 view .LVU791
	cmpl	$10, %eax
	jne	.L250
.LVL242:
	.p2align 4,,10
	.p2align 3
.L243:
	.loc 1 2181 3 view .LVU792
	.loc 1 2181 6 is_stmt 0 view .LVU793
	cmpb	$0, skip_count(%rip)
	je	.L223
	.loc 1 2182 5 is_stmt 1 view .LVU794
	.loc 1 2182 26 is_stmt 0 view .LVU795
	cmpb	$1, parallel_files(%rip)
	jne	.L255
	cmpl	$1, %ebx
	jne	.L223
.L255:
	.loc 1 2182 49 discriminator 3 view .LVU796
	testb	%r12b, %r12b
	jne	.L223
	.loc 1 2183 7 is_stmt 1 view .LVU797
	addl	$1, line_count(%rip)
.L223:
	.loc 1 2184 1 is_stmt 0 view .LVU798
	addq	$8, %rsp
	.cfi_remember_state
	.cfi_def_cfa_offset 40
	popq	%rbx
	.cfi_def_cfa_offset 32
.LVL243:
	.loc 1 2184 1 view .LVU799
	popq	%rbp
	.cfi_def_cfa_offset 24
.LVL244:
	.loc 1 2184 1 view .LVU800
	popq	%r12
	.cfi_def_cfa_offset 16
	popq	%r13
	.cfi_def_cfa_offset 8
.LVL245:
	.loc 1 2184 1 view .LVU801
	ret
.LVL246:
	.p2align 4,,10
	.p2align 3
.L245:
	.cfi_restore_state
.LBB236:
.LBB237:
	.loc 2 68 10 view .LVU802
	leaq	1(%rax), %rdx
	movq	%rdx, 8(%rbp)
	movzbl	(%rax), %eax
.LVL247:
.L246:
	.loc 2 68 10 view .LVU803
.LBE237:
.LBE236:
	.loc 1 2153 9 is_stmt 1 view .LVU804
	cmpl	$10, %eax
	je	.L243
.L250:
	.loc 1 2155 7 view .LVU805
	.loc 1 2155 10 is_stmt 0 view .LVU806
	cmpl	$12, %eax
	je	.L280
	.loc 1 2173 12 is_stmt 1 view .LVU807
	.loc 1 2173 15 is_stmt 0 view .LVU808
	cmpl	$-1, %eax
	je	.L281
.LVL248:
	.loc 1 2178 7 is_stmt 1 view .LVU809
.LBB239:
.LBI236:
	.loc 2 66 1 view .LVU810
.LBB238:
	.loc 2 68 3 view .LVU811
	.loc 2 68 10 is_stmt 0 view .LVU812
	movq	8(%rbp), %rax
	cmpq	16(%rbp), %rax
	jb	.L245
	movq	%rbp, %rdi
	call	__uflow@PLT
.LVL249:
	jmp	.L246
.LVL250:
	.p2align 4,,10
	.p2align 3
.L279:
	.loc 2 68 10 view .LVU813
.LBE238:
.LBE239:
	.loc 1 2135 30 discriminator 1 view .LVU814
	cmpb	$0, 57(%r13)
	je	.L282
	.loc 1 2138 5 is_stmt 1 view .LVU815
.LVL251:
.LBB240:
.LBI240:
	.loc 2 66 1 view .LVU816
.LBB241:
	.loc 2 68 3 view .LVU817
	.loc 2 68 10 is_stmt 0 view .LVU818
	movq	8(%rbp), %rax
.LVL252:
	.loc 2 68 10 view .LVU819
	cmpq	16(%rbp), %rax
	jnb	.L283
	leaq	1(%rax), %rdx
	movq	%rdx, 8(%rbp)
.LVL253:
	.loc 2 68 10 view .LVU820
	movzbl	(%rax), %eax
.LVL254:
.L231:
	.loc 2 68 10 view .LVU821
.LBE241:
.LBE240:
	.loc 1 2138 8 view .LVU822
	cmpl	$10, %eax
	je	.L284
.L232:
	.loc 1 2141 3 is_stmt 1 view .LVU823
	.loc 1 2145 6 is_stmt 0 view .LVU824
	cmpl	$12, %eax
	.loc 1 2141 24 view .LVU825
	movb	$0, 57(%r13)
	.loc 1 2145 3 is_stmt 1 view .LVU826
	.loc 1 2145 6 is_stmt 0 view .LVU827
	sete	%r12b
	jmp	.L253
.LVL255:
	.p2align 4,,10
	.p2align 3
.L281:
	.loc 1 2175 11 is_stmt 1 view .LVU828
	movq	%r13, %rdi
	call	close_file
.LVL256:
	.loc 1 2176 11 view .LVU829
	jmp	.L243
.LVL257:
	.p2align 4,,10
	.p2align 3
.L280:
	.loc 1 2176 11 is_stmt 0 view .LVU830
	movzbl	last_line(%rip), %eax
.LVL258:
.L248:
	.loc 1 2159 11 is_stmt 1 view .LVU831
	.loc 1 2159 14 is_stmt 0 view .LVU832
	testb	%al, %al
	je	.L237
	.loc 1 2161 15 is_stmt 1 view .LVU833
	.loc 1 2161 18 is_stmt 0 view .LVU834
	cmpb	$0, parallel_files(%rip)
	jne	.L238
	.loc 1 2162 17 is_stmt 1 view .LVU835
	.loc 1 2162 43 is_stmt 0 view .LVU836
	movl	columns(%rip), %edx
	.loc 1 2162 24 view .LVU837
	movq	column_vector(%rip), %rax
.LVL259:
	.loc 1 2162 54 is_stmt 1 view .LVU838
	.loc 1 2162 17 is_stmt 0 view .LVU839
	testl	%edx, %edx
	je	.L237
	subl	$1, %edx
.LVL260:
	.loc 1 2162 17 view .LVU840
	addq	$1, %rdx
	salq	$6, %rdx
	addq	%rax, %rdx
.LVL261:
	.p2align 4,,10
	.p2align 3
.L239:
	.loc 1 2163 19 is_stmt 1 discriminator 3 view .LVU841
	.loc 1 2163 40 is_stmt 0 discriminator 3 view .LVU842
	movb	$0, 57(%rax)
	.loc 1 2162 57 is_stmt 1 discriminator 3 view .LVU843
	addq	$64, %rax
.LVL262:
	.loc 1 2162 54 discriminator 3 view .LVU844
	.loc 1 2162 17 is_stmt 0 discriminator 3 view .LVU845
	cmpq	%rdx, %rax
	jne	.L239
.LVL263:
.L237:
	.loc 1 2168 11 is_stmt 1 view .LVU846
.LBB243:
.LBI243:
	.loc 2 66 1 view .LVU847
.LBB244:
	.loc 2 68 3 view .LVU848
	.loc 2 68 10 is_stmt 0 view .LVU849
	movq	8(%rbp), %rax
	cmpq	16(%rbp), %rax
	jnb	.L285
	leaq	1(%rax), %rdx
	movq	%rdx, 8(%rbp)
	movzbl	(%rax), %edi
.L241:
.LVL264:
	.loc 2 68 10 view .LVU850
.LBE244:
.LBE243:
	.loc 1 2168 14 view .LVU851
	cmpl	$10, %edi
	jne	.L286
	.loc 1 2170 11 is_stmt 1 view .LVU852
	leaq	48(%r13), %rsi
	leaq	16(%r13), %rdi
.LVL265:
	.loc 1 2170 11 is_stmt 0 view .LVU853
	call	hold_file.isra.0
.LVL266:
	.loc 1 2171 11 is_stmt 1 view .LVU854
	jmp	.L243
.LVL267:
	.p2align 4,,10
	.p2align 3
.L282:
	.loc 1 2141 3 view .LVU855
	.loc 1 2145 3 view .LVU856
	.loc 1 2150 3 view .LVU857
	.loc 1 2150 7 is_stmt 0 view .LVU858
	movzbl	last_line(%rip), %r12d
	movl	%r12d, %eax
	.loc 1 2150 6 view .LVU859
	testb	%r12b, %r12b
	je	.L254
	.loc 1 2151 5 is_stmt 1 view .LVU860
	.loc 1 2151 26 is_stmt 0 view .LVU861
	movb	$1, 57(%r13)
.LVL268:
	.loc 1 2153 9 is_stmt 1 view .LVU862
	.loc 1 2155 7 view .LVU863
	jmp	.L248
.LVL269:
	.p2align 4,,10
	.p2align 3
.L286:
	.loc 1 2169 13 view .LVU864
	movq	%rbp, %rsi
	call	ungetc@PLT
.LVL270:
	.loc 1 2170 11 view .LVU865
	leaq	48(%r13), %rsi
	leaq	16(%r13), %rdi
	call	hold_file.isra.0
.LVL271:
	.loc 1 2171 11 view .LVU866
	jmp	.L243
.LVL272:
	.p2align 4,,10
	.p2align 3
.L278:
.LBB246:
.LBB235:
	.loc 2 68 10 is_stmt 0 view .LVU867
	movq	%rbp, %rdi
.LVL273:
	.loc 2 68 10 view .LVU868
	call	__uflow@PLT
.LVL274:
	jmp	.L225
.LVL275:
.L254:
	.loc 2 68 10 view .LVU869
.LBE235:
.LBE246:
	.loc 1 2146 15 view .LVU870
	movl	$1, %r12d
	jmp	.L237
.LVL276:
.L238:
	.loc 1 2165 17 is_stmt 1 view .LVU871
	.loc 1 2165 38 is_stmt 0 view .LVU872
	movb	$0, 57(%r13)
	jmp	.L237
.LVL277:
.L284:
	.loc 1 2139 7 is_stmt 1 view .LVU873
.LBB247:
.LBI247:
	.loc 2 66 1 view .LVU874
.LBB248:
	.loc 2 68 3 view .LVU875
	.loc 2 68 10 is_stmt 0 view .LVU876
	movq	8(%rbp), %rax
.LVL278:
	.loc 2 68 10 view .LVU877
	cmpq	16(%rbp), %rax
	jnb	.L287
	leaq	1(%rax), %rdx
	movq	%rdx, 8(%rbp)
.LVL279:
	.loc 2 68 10 view .LVU878
	movzbl	(%rax), %eax
.LVL280:
	.loc 2 68 10 view .LVU879
	jmp	.L232
.LVL281:
.L285:
	.loc 2 68 10 view .LVU880
.LBE248:
.LBE247:
.LBB250:
.LBB245:
	movq	%rbp, %rdi
	call	__uflow@PLT
.LVL282:
	movl	%eax, %edi
	jmp	.L241
.LVL283:
.L283:
	.loc 2 68 10 view .LVU881
.LBE245:
.LBE250:
.LBB251:
.LBB242:
	movq	%rbp, %rdi
	call	__uflow@PLT
.LVL284:
	.loc 2 68 10 view .LVU882
	jmp	.L231
.LVL285:
.L287:
	.loc 2 68 10 view .LVU883
.LBE242:
.LBE251:
.LBB252:
.LBB249:
	movq	%rbp, %rdi
	call	__uflow@PLT
.LVL286:
	.loc 2 68 10 view .LVU884
	jmp	.L232
.LBE249:
.LBE252:
	.cfi_endproc
.LFE172:
	.size	skip_read, .-skip_read
	.p2align 4
	.type	read_rest_of_line, @function
read_rest_of_line:
.LVL287:
.LFB171:
	.loc 1 2093 1 is_stmt 1 view -0
	.cfi_startproc
	.loc 1 2094 3 view .LVU886
	.loc 1 2095 3 view .LVU887
	.loc 1 2093 1 is_stmt 0 view .LVU888
	pushq	%r12
	.cfi_def_cfa_offset 16
	.cfi_offset 12, -16
	movq	%rdi, %r12
	pushq	%rbp
	.cfi_def_cfa_offset 24
	.cfi_offset 6, -24
	subq	$8, %rsp
	.cfi_def_cfa_offset 32
	.loc 1 2095 9 view .LVU889
	movq	(%rdi), %rbp
.LVL288:
	.loc 1 2097 3 is_stmt 1 view .LVU890
	.loc 1 2097 9 is_stmt 0 view .LVU891
	jmp	.L289
.LVL289:
	.p2align 4,,10
	.p2align 3
.L295:
.LBB253:
.LBB254:
	.loc 2 68 10 view .LVU892
	leaq	1(%rax), %rdx
	movq	%rdx, 8(%rbp)
	movzbl	(%rax), %eax
.LVL290:
	.loc 2 68 10 view .LVU893
.LBE254:
.LBE253:
	.loc 1 2097 9 view .LVU894
	cmpl	$10, %eax
	je	.L303
.L297:
	.loc 1 2099 7 is_stmt 1 view .LVU895
	.loc 1 2099 10 is_stmt 0 view .LVU896
	cmpl	$12, %eax
	je	.L304
	.loc 1 2108 12 is_stmt 1 view .LVU897
	.loc 1 2108 15 is_stmt 0 view .LVU898
	cmpl	$-1, %eax
	je	.L305
.LVL291:
.L289:
	.loc 1 2097 9 is_stmt 1 view .LVU899
.LBB256:
.LBI253:
	.loc 2 66 1 view .LVU900
.LBB255:
	.loc 2 68 3 view .LVU901
	.loc 2 68 10 is_stmt 0 view .LVU902
	movq	8(%rbp), %rax
	cmpq	16(%rbp), %rax
	jb	.L295
	movq	%rbp, %rdi
	call	__uflow@PLT
.LVL292:
	.loc 2 68 10 view .LVU903
.LBE255:
.LBE256:
	.loc 1 2097 9 view .LVU904
	cmpl	$10, %eax
	jne	.L297
.L303:
	.loc 1 2114 1 view .LVU905
	addq	$8, %rsp
	.cfi_remember_state
	.cfi_def_cfa_offset 24
	popq	%rbp
	.cfi_def_cfa_offset 16
.LVL293:
	.loc 1 2114 1 view .LVU906
	popq	%r12
	.cfi_def_cfa_offset 8
.LVL294:
	.loc 1 2114 1 view .LVU907
	ret
.LVL295:
	.p2align 4,,10
	.p2align 3
.L304:
	.cfi_restore_state
	.loc 1 2101 11 is_stmt 1 view .LVU908
.LBB257:
.LBI257:
	.loc 2 66 1 view .LVU909
.LBB258:
	.loc 2 68 3 view .LVU910
	.loc 2 68 10 is_stmt 0 view .LVU911
	movq	8(%rbp), %rax
.LVL296:
	.loc 2 68 10 view .LVU912
	cmpq	16(%rbp), %rax
	jnb	.L306
	leaq	1(%rax), %rdx
	movq	%rdx, 8(%rbp)
	movzbl	(%rax), %edi
.L292:
.LVL297:
	.loc 2 68 10 view .LVU913
.LBE258:
.LBE257:
	.loc 1 2101 14 view .LVU914
	cmpl	$10, %edi
	jne	.L307
	.loc 1 2103 11 is_stmt 1 view .LVU915
	.loc 1 2103 14 is_stmt 0 view .LVU916
	cmpb	$0, keep_FF(%rip)
	je	.L294
.LVL298:
.L308:
	.loc 1 2104 13 is_stmt 1 view .LVU917
	.loc 1 2104 24 is_stmt 0 view .LVU918
	movb	$1, print_a_FF(%rip)
.L294:
	.loc 1 2105 11 is_stmt 1 view .LVU919
	.loc 1 2114 1 is_stmt 0 view .LVU920
	addq	$8, %rsp
	.cfi_remember_state
	.cfi_def_cfa_offset 24
	.loc 1 2105 11 view .LVU921
	leaq	48(%r12), %rsi
	leaq	16(%r12), %rdi
	.loc 1 2114 1 view .LVU922
	popq	%rbp
	.cfi_def_cfa_offset 16
.LVL299:
	.loc 1 2114 1 view .LVU923
	popq	%r12
	.cfi_def_cfa_offset 8
.LVL300:
	.loc 1 2105 11 view .LVU924
	jmp	hold_file.isra.0
.LVL301:
	.p2align 4,,10
	.p2align 3
.L305:
	.cfi_restore_state
	.loc 1 2110 11 is_stmt 1 view .LVU925
	.loc 1 2114 1 is_stmt 0 view .LVU926
	addq	$8, %rsp
	.cfi_remember_state
	.cfi_def_cfa_offset 24
	.loc 1 2110 11 view .LVU927
	movq	%r12, %rdi
	.loc 1 2114 1 view .LVU928
	popq	%rbp
	.cfi_def_cfa_offset 16
.LVL302:
	.loc 1 2114 1 view .LVU929
	popq	%r12
	.cfi_def_cfa_offset 8
.LVL303:
	.loc 1 2110 11 view .LVU930
	jmp	close_file
.LVL304:
	.p2align 4,,10
	.p2align 3
.L307:
	.cfi_restore_state
	.loc 1 2102 13 is_stmt 1 view .LVU931
	movq	%rbp, %rsi
	call	ungetc@PLT
.LVL305:
	.loc 1 2103 11 view .LVU932
	.loc 1 2103 14 is_stmt 0 view .LVU933
	cmpb	$0, keep_FF(%rip)
	je	.L294
	jmp	.L308
.LVL306:
.L306:
.LBB260:
.LBB259:
	.loc 2 68 10 view .LVU934
	movq	%rbp, %rdi
	call	__uflow@PLT
.LVL307:
	movl	%eax, %edi
	jmp	.L292
.LBE259:
.LBE260:
	.cfi_endproc
.LFE171:
	.size	read_rest_of_line, .-read_rest_of_line
	.section	.rodata.str1.1
.LC10:
	.string	"%*d"
	.text
	.p2align 4
	.type	add_line_number.isra.0, @function
add_line_number.isra.0:
.LFB186:
	.loc 1 2009 1 is_stmt 1 view -0
	.cfi_startproc
	.loc 1 2011 3 view .LVU936
	.loc 1 2012 3 view .LVU937
	.loc 1 2013 3 view .LVU938
	.loc 1 2017 3 view .LVU939
.LVL308:
.LBB261:
.LBI261:
	.loc 6 34 1 view .LVU940
.LBB262:
	.loc 6 36 3 view .LVU941
.LBE262:
.LBE261:
	.loc 1 2009 1 is_stmt 0 view .LVU942
	pushq	%r12
	.cfi_def_cfa_offset 16
	.cfi_offset 12, -16
.LBB268:
.LBB263:
	.loc 6 36 10 view .LVU943
	movl	line_number(%rip), %r9d
	movl	$1, %esi
	xorl	%eax, %eax
.LBE263:
.LBE268:
	.loc 1 2009 1 view .LVU944
	pushq	%rbp
	.cfi_def_cfa_offset 24
	.cfi_offset 6, -24
.LBB269:
.LBB264:
	.loc 6 36 10 view .LVU945
	movl	chars_per_number(%rip), %r8d
.LBE264:
.LBE269:
	.loc 1 2009 1 view .LVU946
	movq	%rdi, %rbp
.LBB270:
.LBB265:
	.loc 6 36 10 view .LVU947
	movq	$-1, %rdx
.LBE265:
.LBE270:
	.loc 1 2009 1 view .LVU948
	pushq	%rbx
	.cfi_def_cfa_offset 32
	.cfi_offset 3, -32
.LBB271:
.LBB266:
	.loc 6 36 10 view .LVU949
	movq	number_buff(%rip), %rdi
	leaq	.LC10(%rip), %rcx
	call	__sprintf_chk@PLT
.LVL309:
	.loc 6 36 10 view .LVU950
.LBE266:
.LBE271:
	.loc 1 2018 14 view .LVU951
	addl	$1, line_number(%rip)
.LBB272:
.LBB267:
	.loc 6 36 10 view .LVU952
	movl	%eax, %ebx
.LVL310:
	.loc 6 36 10 view .LVU953
.LBE267:
.LBE272:
	.loc 1 2018 3 is_stmt 1 view .LVU954
	.loc 1 2019 3 view .LVU955
	.loc 1 2019 32 is_stmt 0 view .LVU956
	movl	chars_per_number(%rip), %eax
.LVL311:
	.loc 1 2019 32 view .LVU957
	subl	%eax, %ebx
.LVL312:
	.loc 1 2019 32 view .LVU958
	leal	-1(%rax), %edx
	movslq	%ebx, %rbx
	.loc 1 2019 5 view .LVU959
	addq	number_buff(%rip), %rbx
.LVL313:
	.loc 1 2020 3 is_stmt 1 view .LVU960
	.loc 1 2020 30 view .LVU961
	leaq	1(%rbx,%rdx), %r12
	.loc 1 2020 3 is_stmt 0 view .LVU962
	testl	%eax, %eax
	jle	.L314
.LVL314:
	.p2align 4,,10
	.p2align 3
.L313:
	.loc 1 2021 5 is_stmt 1 view .LVU963
	.loc 1 2021 23 is_stmt 0 view .LVU964
	addq	$1, %rbx
.LVL315:
	.loc 1 2021 7 view .LVU965
	movsbl	-1(%rbx), %edi
	call	*0(%rbp)
.LVL316:
	.loc 1 2020 37 is_stmt 1 view .LVU966
	.loc 1 2020 30 view .LVU967
	.loc 1 2020 3 is_stmt 0 view .LVU968
	cmpq	%r12, %rbx
	jne	.L313
.L314:
	.loc 1 2023 3 is_stmt 1 view .LVU969
	.loc 1 2023 6 is_stmt 0 view .LVU970
	cmpl	$1, columns(%rip)
	movsbl	number_separator(%rip), %edi
	jle	.L326
	.loc 1 2028 7 is_stmt 1 view .LVU971
	.loc 1 2028 10 is_stmt 0 view .LVU972
	cmpb	$9, %dil
	je	.L327
	.loc 1 2035 9 is_stmt 1 view .LVU973
	.loc 1 2035 11 is_stmt 0 view .LVU974
	call	*0(%rbp)
.LVL317:
.L317:
	.loc 1 2048 3 is_stmt 1 view .LVU975
	.loc 1 2048 6 is_stmt 0 view .LVU976
	cmpb	$0, truncate_lines(%rip)
	je	.L309
	.loc 1 2048 22 view .LVU977
	cmpb	$0, parallel_files(%rip)
	jne	.L309
	.loc 1 2049 5 is_stmt 1 view .LVU978
	.loc 1 2049 20 is_stmt 0 view .LVU979
	movl	number_width(%rip), %eax
	addl	%eax, input_position(%rip)
.L309:
	.loc 1 2050 1 view .LVU980
	popq	%rbx
	.cfi_remember_state
	.cfi_def_cfa_offset 24
	popq	%rbp
	.cfi_def_cfa_offset 16
	popq	%r12
	.cfi_def_cfa_offset 8
	ret
.LVL318:
	.p2align 4,,10
	.p2align 3
.L327:
	.cfi_restore_state
	.loc 1 2030 11 is_stmt 1 view .LVU981
	.loc 1 2030 13 is_stmt 0 view .LVU982
	movl	number_width(%rip), %eax
	subl	chars_per_number(%rip), %eax
.LVL319:
	.loc 1 2031 11 is_stmt 1 view .LVU983
	.loc 1 2031 17 view .LVU984
	.loc 1 2031 19 is_stmt 0 view .LVU985
	leal	-1(%rax), %ebx
.LVL320:
	.loc 1 2031 17 view .LVU986
	testl	%eax, %eax
	jle	.L317
	.p2align 4,,10
	.p2align 3
.L316:
	.loc 1 2032 13 is_stmt 1 view .LVU987
	.loc 1 2031 19 is_stmt 0 view .LVU988
	subl	$1, %ebx
.LVL321:
	.loc 1 2032 15 view .LVU989
	movl	$32, %edi
	call	*0(%rbp)
.LVL322:
	.loc 1 2031 17 is_stmt 1 view .LVU990
	.loc 1 2031 17 is_stmt 0 view .LVU991
	cmpl	$-1, %ebx
	je	.L317
	.loc 1 2032 13 is_stmt 1 view .LVU992
	.loc 1 2031 19 is_stmt 0 view .LVU993
	subl	$1, %ebx
.LVL323:
	.loc 1 2032 15 view .LVU994
	movl	$32, %edi
	call	*0(%rbp)
.LVL324:
	.loc 1 2031 17 is_stmt 1 view .LVU995
	.loc 1 2031 17 is_stmt 0 view .LVU996
	cmpl	$-1, %ebx
	jne	.L316
	jmp	.L317
.LVL325:
	.p2align 4,,10
	.p2align 3
.L326:
	.loc 1 2042 7 is_stmt 1 view .LVU997
	.loc 1 2042 9 is_stmt 0 view .LVU998
	call	*0(%rbp)
.LVL326:
	.loc 1 2043 7 is_stmt 1 view .LVU999
	.loc 1 2043 10 is_stmt 0 view .LVU1000
	cmpb	$9, number_separator(%rip)
	jne	.L317
	.loc 1 2044 9 is_stmt 1 view .LVU1001
	.loc 1 2044 27 is_stmt 0 view .LVU1002
	movl	output_position(%rip), %esi
	movl	chars_per_output_tab(%rip), %ecx
	movl	%esi, %eax
	cltd
	idivl	%ecx
	subl	%edx, %ecx
	leal	(%rcx,%rsi), %eax
	movl	%eax, output_position(%rip)
	jmp	.L317
	.cfi_endproc
.LFE186:
	.size	add_line_number.isra.0, .-add_line_number.isra.0
	.p2align 4
	.type	align_column, @function
align_column:
.LVL327:
.LFB162:
	.loc 1 1726 1 is_stmt 1 view -0
	.cfi_startproc
	.loc 1 1727 3 view .LVU1004
	.loc 1 1726 1 is_stmt 0 view .LVU1005
	pushq	%rbx
	.cfi_def_cfa_offset 16
	.cfi_offset 3, -16
	.loc 1 1728 22 view .LVU1006
	movl	col_sep_length(%rip), %eax
	.loc 1 1726 1 view .LVU1007
	movq	%rdi, %rbx
	.loc 1 1727 26 view .LVU1008
	movl	52(%rdi), %edi
.LVL328:
	.loc 1 1727 23 view .LVU1009
	movl	%edi, padding_not_printed(%rip)
	.loc 1 1728 3 is_stmt 1 view .LVU1010
	.loc 1 1728 6 is_stmt 0 view .LVU1011
	cmpl	%eax, %edi
	jg	.L333
	.loc 1 1734 3 is_stmt 1 view .LVU1012
	.loc 1 1734 6 is_stmt 0 view .LVU1013
	cmpb	$0, use_col_separator(%rip)
	jne	.L334
.L330:
	.loc 1 1737 3 is_stmt 1 view .LVU1014
	.loc 1 1737 6 is_stmt 0 view .LVU1015
	cmpb	$0, 56(%rbx)
	jne	.L335
.L328:
	.loc 1 1739 1 view .LVU1016
	popq	%rbx
	.cfi_remember_state
	.cfi_def_cfa_offset 8
.LVL329:
	.loc 1 1739 1 view .LVU1017
	ret
.LVL330:
	.p2align 4,,10
	.p2align 3
.L333:
	.cfi_restore_state
	.loc 1 1730 7 is_stmt 1 view .LVU1018
	subl	%eax, %edi
	call	pad_across_to
.LVL331:
	.loc 1 1731 7 view .LVU1019
	.loc 1 1734 6 is_stmt 0 view .LVU1020
	cmpb	$0, use_col_separator(%rip)
	.loc 1 1731 27 view .LVU1021
	movl	$0, padding_not_printed(%rip)
	.loc 1 1734 3 is_stmt 1 view .LVU1022
	.loc 1 1734 6 is_stmt 0 view .LVU1023
	je	.L330
.L334:
	.loc 1 1735 5 is_stmt 1 view .LVU1024
	call	print_sep_string
.LVL332:
	.loc 1 1737 3 view .LVU1025
	.loc 1 1737 6 is_stmt 0 view .LVU1026
	cmpb	$0, 56(%rbx)
	je	.L328
.L335:
	.loc 1 1738 5 is_stmt 1 view .LVU1027
	leaq	32(%rbx), %rdi
	.loc 1 1739 1 is_stmt 0 view .LVU1028
	popq	%rbx
	.cfi_def_cfa_offset 8
.LVL333:
	.loc 1 1738 5 view .LVU1029
	jmp	add_line_number.isra.0
.LVL334:
	.loc 1 1738 5 view .LVU1030
	.cfi_endproc
.LFE162:
	.size	align_column, .-align_column
	.p2align 4
	.type	read_line, @function
read_line:
.LVL335:
.LFB179:
	.loc 1 2408 1 is_stmt 1 view -0
	.cfi_startproc
	.loc 1 2408 1 is_stmt 0 view .LVU1032
	endbr64
	.loc 1 2409 3 is_stmt 1 view .LVU1033
	.loc 1 2410 3 view .LVU1034
.LVL336:
	.loc 1 2411 3 view .LVU1035
	.loc 1 2412 3 view .LVU1036
	.loc 1 2413 3 view .LVU1037
	.loc 1 2416 3 view .LVU1038
	.loc 1 2408 1 is_stmt 0 view .LVU1039
	pushq	%r14
	.cfi_def_cfa_offset 16
	.cfi_offset 14, -16
	pushq	%r13
	.cfi_def_cfa_offset 24
	.cfi_offset 13, -24
	pushq	%r12
	.cfi_def_cfa_offset 32
	.cfi_offset 12, -32
	pushq	%rbp
	.cfi_def_cfa_offset 40
	.cfi_offset 6, -40
	movq	%rdi, %rbp
	pushq	%rbx
	.cfi_def_cfa_offset 48
	.cfi_offset 3, -48
	.loc 1 2416 7 view .LVU1040
	movq	(%rdi), %rdi
.LVL337:
.LBB273:
.LBI273:
	.loc 2 66 1 is_stmt 1 view .LVU1041
.LBB274:
	.loc 2 68 3 view .LVU1042
	.loc 2 68 10 is_stmt 0 view .LVU1043
	movq	8(%rdi), %rax
	cmpq	16(%rdi), %rax
	jnb	.L413
	leaq	1(%rax), %rdx
	movq	%rdx, 8(%rdi)
	movzbl	(%rax), %ebx
.LVL338:
.L338:
	.loc 2 68 10 view .LVU1044
.LBE274:
.LBE273:
	.loc 1 2418 3 is_stmt 1 view .LVU1045
	.loc 1 2418 23 is_stmt 0 view .LVU1046
	movl	input_position(%rip), %r12d
.LVL339:
	.loc 1 2420 3 is_stmt 1 view .LVU1047
	.loc 1 2420 6 is_stmt 0 view .LVU1048
	cmpl	$12, %ebx
	je	.L414
	.loc 1 2423 3 is_stmt 1 view .LVU1049
	.loc 1 2423 24 is_stmt 0 view .LVU1050
	movb	$0, 57(%rbp)
	.loc 1 2425 3 is_stmt 1 view .LVU1051
	cmpl	$10, %ebx
	je	.L393
.L389:
	.loc 1 2425 3 is_stmt 0 view .LVU1052
	cmpl	$-1, %ebx
	je	.L348
	.loc 1 2446 7 is_stmt 1 view .LVU1053
	.loc 1 2446 15 is_stmt 0 view .LVU1054
	movsbl	%bl, %edi
	call	char_to_clump
.LVL340:
	movl	%eax, %r13d
.LVL341:
.L346:
	.loc 1 2449 3 is_stmt 1 view .LVU1055
	.loc 1 2449 6 is_stmt 0 view .LVU1056
	cmpb	$0, truncate_lines(%rip)
	je	.L357
	.loc 1 2449 22 discriminator 1 view .LVU1057
	movl	chars_per_column(%rip), %eax
	cmpl	%eax, input_position(%rip)
	jg	.L415
.L357:
	.loc 1 2455 3 is_stmt 1 view .LVU1058
	.loc 1 2455 6 is_stmt 0 view .LVU1059
	leaq	store_char(%rip), %rax
	cmpq	%rax, 32(%rbp)
	je	.L359
	.loc 1 2457 7 is_stmt 1 view .LVU1060
	.loc 1 2459 10 is_stmt 0 view .LVU1061
	cmpb	$0, print_a_header(%rip)
	.loc 1 2457 22 view .LVU1062
	movb	$1, pad_vertically(%rip)
	.loc 1 2459 7 is_stmt 1 view .LVU1063
	.loc 1 2459 10 is_stmt 0 view .LVU1064
	je	.L360
	.loc 1 2459 26 discriminator 1 view .LVU1065
	cmpb	$0, storing_columns(%rip)
	je	.L416
.L360:
	.loc 1 2462 7 is_stmt 1 view .LVU1066
	.loc 1 2462 10 is_stmt 0 view .LVU1067
	cmpb	$0, parallel_files(%rip)
	je	.L363
	.loc 1 2462 26 discriminator 1 view .LVU1068
	cmpb	$0, align_empty_cols(%rip)
	je	.L363
	.loc 1 2465 11 is_stmt 1 view .LVU1069
	.loc 1 2465 13 is_stmt 0 view .LVU1070
	movl	separators_not_printed(%rip), %eax
.LVL342:
	.loc 1 2466 11 is_stmt 1 view .LVU1071
	.loc 1 2467 25 is_stmt 0 view .LVU1072
	movq	column_vector(%rip), %r12
.LVL343:
	.loc 1 2466 34 view .LVU1073
	movl	$0, separators_not_printed(%rip)
	.loc 1 2467 11 is_stmt 1 view .LVU1074
.LVL344:
	.loc 1 2467 42 view .LVU1075
	.loc 1 2467 11 is_stmt 0 view .LVU1076
	testl	%eax, %eax
	jle	.L368
	leal	-1(%rax), %r14d
	addq	$1, %r14
	salq	$6, %r14
	addq	%r12, %r14
.LVL345:
	.p2align 4,,10
	.p2align 3
.L367:
	.loc 1 2469 15 is_stmt 1 discriminator 3 view .LVU1077
	movq	%r12, %rdi
	.loc 1 2467 55 is_stmt 0 discriminator 3 view .LVU1078
	addq	$64, %r12
.LVL346:
	.loc 1 2469 15 discriminator 3 view .LVU1079
	call	align_column
.LVL347:
	.loc 1 2470 15 is_stmt 1 discriminator 3 view .LVU1080
	.loc 1 2470 38 is_stmt 0 discriminator 3 view .LVU1081
	addl	$1, separators_not_printed(%rip)
	.loc 1 2467 50 is_stmt 1 discriminator 3 view .LVU1082
.LVL348:
	.loc 1 2467 42 discriminator 3 view .LVU1083
	.loc 1 2467 11 is_stmt 0 discriminator 3 view .LVU1084
	cmpq	%r12, %r14
	jne	.L367
.L368:
	.loc 1 2472 11 is_stmt 1 view .LVU1085
	.loc 1 2474 32 is_stmt 0 view .LVU1086
	movl	chars_per_column(%rip), %eax
	.loc 1 2476 32 view .LVU1087
	cmpb	$0, truncate_lines(%rip)
	movl	$0, %edx
	.loc 1 2477 28 view .LVU1088
	movb	$0, align_empty_cols(%rip)
	.loc 1 2472 34 view .LVU1089
	movl	52(%rbp), %edi
	.loc 1 2476 32 view .LVU1090
	cmove	%edx, %eax
	.loc 1 2472 31 view .LVU1091
	movl	%edi, padding_not_printed(%rip)
	.loc 1 2473 11 is_stmt 1 view .LVU1092
	movl	%eax, spaces_not_printed(%rip)
	.loc 1 2477 11 view .LVU1093
	jmp	.L362
.LVL349:
	.p2align 4,,10
	.p2align 3
.L348:
	.loc 1 2441 7 view .LVU1094
	movq	%rbp, %rdi
	call	close_file
.LVL350:
	.loc 1 2442 7 view .LVU1095
	.loc 1 2442 14 is_stmt 0 view .LVU1096
	movl	$1, %eax
.L336:
	.loc 1 2529 1 view .LVU1097
	popq	%rbx
	.cfi_remember_state
	.cfi_def_cfa_offset 40
	popq	%rbp
	.cfi_def_cfa_offset 32
.LVL351:
	.loc 1 2529 1 view .LVU1098
	popq	%r12
	.cfi_def_cfa_offset 24
	popq	%r13
	.cfi_def_cfa_offset 16
	popq	%r14
	.cfi_def_cfa_offset 8
	ret
.LVL352:
	.p2align 4,,10
	.p2align 3
.L424:
	.cfi_restore_state
	.loc 1 2422 7 is_stmt 1 view .LVU1099
	.loc 1 2422 11 is_stmt 0 view .LVU1100
	movq	0(%rbp), %rdi
.LVL353:
.LBB276:
.LBI276:
	.loc 2 66 1 is_stmt 1 view .LVU1101
.LBB277:
	.loc 2 68 3 view .LVU1102
	.loc 2 68 10 is_stmt 0 view .LVU1103
	movq	8(%rdi), %rax
	cmpq	16(%rdi), %rax
	jnb	.L417
	leaq	1(%rax), %rdx
	movq	%rdx, 8(%rdi)
	movzbl	(%rax), %ebx
.LVL354:
.L345:
	.loc 2 68 10 view .LVU1104
.LBE277:
.LBE276:
	.loc 1 2423 3 is_stmt 1 view .LVU1105
	.loc 1 2423 24 is_stmt 0 view .LVU1106
	movb	$0, 57(%rbp)
	.loc 1 2425 3 is_stmt 1 view .LVU1107
	cmpl	$10, %ebx
	jne	.L388
	.p2align 4,,10
	.p2align 3
.L393:
	.loc 1 2425 3 is_stmt 0 view .LVU1108
	xorl	%r13d, %r13d
	jmp	.L346
.LVL355:
	.p2align 4,,10
	.p2align 3
.L363:
	.loc 1 2425 3 view .LVU1109
	movl	padding_not_printed(%rip), %edi
.LVL356:
.L362:
	.loc 1 2480 7 is_stmt 1 view .LVU1110
	.loc 1 2480 26 is_stmt 0 view .LVU1111
	movl	col_sep_length(%rip), %eax
	.loc 1 2480 10 view .LVU1112
	cmpl	%edi, %eax
	jl	.L418
.L369:
	.loc 1 2486 7 is_stmt 1 view .LVU1113
	.loc 1 2486 10 is_stmt 0 view .LVU1114
	cmpb	$0, use_col_separator(%rip)
	jne	.L419
.L359:
	.loc 1 2490 3 is_stmt 1 view .LVU1115
	.loc 1 2490 6 is_stmt 0 view .LVU1116
	cmpb	$0, 56(%rbp)
	jne	.L420
.L371:
	.loc 1 2493 3 is_stmt 1 view .LVU1117
	.loc 1 2493 14 is_stmt 0 view .LVU1118
	movb	$0, empty_line(%rip)
	.loc 1 2494 3 is_stmt 1 view .LVU1119
	.loc 1 2495 12 is_stmt 0 view .LVU1120
	movl	$1, %eax
	.loc 1 2494 6 view .LVU1121
	cmpl	$10, %ebx
	je	.L336
	.loc 1 2497 3 is_stmt 1 view .LVU1122
	movq	clump_buff(%rip), %rbx
.LVL357:
.LBB279:
.LBI279:
	.loc 1 2263 1 view .LVU1123
.LBB280:
	.loc 1 2265 9 view .LVU1124
	.loc 1 2265 9 is_stmt 0 view .LVU1125
	leal	-1(%r13), %eax
	leaq	1(%rbx,%rax), %r12
	testl	%r13d, %r13d
	je	.L373
	.p2align 4,,10
	.p2align 3
.L374:
	.loc 1 2266 5 is_stmt 1 view .LVU1126
	.loc 1 2266 27 is_stmt 0 view .LVU1127
	addq	$1, %rbx
.LVL358:
	.loc 1 2266 7 view .LVU1128
	movsbl	-1(%rbx), %edi
	call	*32(%rbp)
.LVL359:
	.loc 1 2265 9 is_stmt 1 view .LVU1129
	.loc 1 2265 9 is_stmt 0 view .LVU1130
	cmpq	%rbx, %r12
	jne	.L374
.LVL360:
.L373:
	.loc 1 2265 9 view .LVU1131
.LBE280:
.LBE279:
	.loc 1 2499 3 is_stmt 1 view .LVU1132
	.loc 1 2501 7 view .LVU1133
	.loc 1 2501 11 is_stmt 0 view .LVU1134
	movq	0(%rbp), %rdi
.LVL361:
.LBB281:
.LBI281:
	.loc 2 66 1 is_stmt 1 view .LVU1135
.LBB282:
	.loc 2 68 3 view .LVU1136
	.loc 2 68 10 is_stmt 0 view .LVU1137
	movq	8(%rdi), %rax
	cmpq	16(%rdi), %rax
	jnb	.L421
	leaq	1(%rax), %rdx
	movq	%rdx, 8(%rdi)
	movzbl	(%rax), %eax
.LVL362:
.L377:
	.loc 2 68 10 view .LVU1138
.LBE282:
.LBE281:
	.loc 1 2503 7 is_stmt 1 view .LVU1139
	cmpl	$10, %eax
	je	.L392
	cmpl	$12, %eax
	je	.L378
	cmpl	$-1, %eax
	je	.L348
	.loc 1 2519 7 view .LVU1140
	.loc 1 2520 15 is_stmt 0 view .LVU1141
	movsbl	%al, %edi
	.loc 1 2519 27 view .LVU1142
	movl	input_position(%rip), %ebx
.LVL363:
	.loc 1 2520 7 is_stmt 1 view .LVU1143
	.loc 1 2520 15 is_stmt 0 view .LVU1144
	call	char_to_clump
.LVL364:
	.loc 1 2521 7 is_stmt 1 view .LVU1145
	.loc 1 2521 10 is_stmt 0 view .LVU1146
	cmpb	$0, truncate_lines(%rip)
	jne	.L422
.L384:
	.loc 1 2527 7 is_stmt 1 view .LVU1147
	movq	clump_buff(%rip), %rbx
.LVL365:
.LBB284:
.LBI284:
	.loc 1 2263 1 view .LVU1148
.LBB285:
	.loc 1 2265 9 view .LVU1149
	.loc 1 2265 9 is_stmt 0 view .LVU1150
	leal	-1(%rax), %edx
	leaq	1(%rbx,%rdx), %r12
	testl	%eax, %eax
	je	.L373
.LVL366:
	.p2align 4,,10
	.p2align 3
.L386:
	.loc 1 2266 5 is_stmt 1 view .LVU1151
	.loc 1 2266 27 is_stmt 0 view .LVU1152
	addq	$1, %rbx
.LVL367:
	.loc 1 2266 7 view .LVU1153
	movsbl	-1(%rbx), %edi
	call	*32(%rbp)
.LVL368:
	.loc 1 2265 9 is_stmt 1 view .LVU1154
	.loc 1 2265 9 is_stmt 0 view .LVU1155
	cmpq	%r12, %rbx
	jne	.L386
	jmp	.L373
.LVL369:
	.p2align 4,,10
	.p2align 3
.L414:
	.loc 1 2265 9 view .LVU1156
	movq	0(%rbp), %rdi
.LBE285:
.LBE284:
	.loc 1 2420 17 discriminator 1 view .LVU1157
	cmpb	$0, 57(%rbp)
	movq	8(%rdi), %rax
	movq	16(%rdi), %rdx
	je	.L340
	.loc 1 2421 5 is_stmt 1 view .LVU1158
.LVL370:
.LBB286:
.LBI286:
	.loc 2 66 1 view .LVU1159
.LBB287:
	.loc 2 68 3 view .LVU1160
	.loc 2 68 10 is_stmt 0 view .LVU1161
	cmpq	%rdx, %rax
	jnb	.L423
	leaq	1(%rax), %rdx
	movq	%rdx, 8(%rdi)
	movzbl	(%rax), %ebx
.LVL371:
.L342:
	.loc 2 68 10 view .LVU1162
.LBE287:
.LBE286:
	.loc 1 2421 8 view .LVU1163
	cmpl	$10, %ebx
	je	.L424
	.loc 1 2423 3 is_stmt 1 view .LVU1164
	.loc 1 2423 24 is_stmt 0 view .LVU1165
	movb	$0, 57(%rbp)
	.loc 1 2425 3 is_stmt 1 view .LVU1166
.L388:
	.loc 1 2425 3 is_stmt 0 view .LVU1167
	cmpl	$12, %ebx
	jne	.L389
	.loc 1 2425 3 view .LVU1168
	movq	0(%rbp), %rdi
	movq	8(%rdi), %rax
	movq	16(%rdi), %rdx
.L340:
.LVL372:
	.loc 1 2428 7 is_stmt 1 view .LVU1169
.LBB289:
.LBI289:
	.loc 2 66 1 view .LVU1170
.LBB290:
	.loc 2 68 3 view .LVU1171
	.loc 2 68 10 is_stmt 0 view .LVU1172
	cmpq	%rdx, %rax
	jnb	.L425
	leaq	1(%rax), %rdx
	movq	%rdx, 8(%rdi)
	movzbl	(%rax), %edi
.LVL373:
.L351:
	.loc 2 68 10 view .LVU1173
.LBE290:
.LBE289:
	.loc 1 2428 10 view .LVU1174
	cmpl	$10, %edi
	jne	.L426
	.loc 1 2430 7 is_stmt 1 view .LVU1175
	.loc 1 2431 10 is_stmt 0 view .LVU1176
	cmpb	$0, print_a_header(%rip)
	.loc 1 2430 15 view .LVU1177
	movb	$1, FF_only(%rip)
	.loc 1 2431 7 is_stmt 1 view .LVU1178
	.loc 1 2431 10 is_stmt 0 view .LVU1179
	je	.L353
.LVL374:
.L428:
	.loc 1 2431 26 discriminator 1 view .LVU1180
	cmpb	$0, storing_columns(%rip)
	je	.L427
.LVL375:
.L353:
	.loc 1 2436 12 is_stmt 1 view .LVU1181
	.loc 1 2436 15 is_stmt 0 view .LVU1182
	cmpb	$0, keep_FF(%rip)
	je	.L354
	.loc 1 2437 9 is_stmt 1 view .LVU1183
	.loc 1 2437 20 is_stmt 0 view .LVU1184
	movb	$1, print_a_FF(%rip)
.L354:
	.loc 1 2438 7 is_stmt 1 view .LVU1185
	leaq	48(%rbp), %rsi
	leaq	16(%rbp), %rdi
	call	hold_file.isra.0
.LVL376:
	.loc 1 2439 7 view .LVU1186
	.loc 1 2529 1 is_stmt 0 view .LVU1187
	popq	%rbx
	.cfi_remember_state
	.cfi_def_cfa_offset 40
	.loc 1 2439 14 view .LVU1188
	movl	$1, %eax
	.loc 1 2529 1 view .LVU1189
	popq	%rbp
	.cfi_def_cfa_offset 32
.LVL377:
	.loc 1 2529 1 view .LVU1190
	popq	%r12
	.cfi_def_cfa_offset 24
	popq	%r13
	.cfi_def_cfa_offset 16
	popq	%r14
	.cfi_def_cfa_offset 8
	ret
.LVL378:
	.p2align 4,,10
	.p2align 3
.L426:
	.cfi_restore_state
	.loc 1 2429 9 is_stmt 1 view .LVU1191
	movq	0(%rbp), %rsi
	call	ungetc@PLT
.LVL379:
	.loc 1 2430 7 view .LVU1192
	.loc 1 2431 10 is_stmt 0 view .LVU1193
	cmpb	$0, print_a_header(%rip)
	.loc 1 2430 15 view .LVU1194
	movb	$1, FF_only(%rip)
	.loc 1 2431 7 is_stmt 1 view .LVU1195
	.loc 1 2431 10 is_stmt 0 view .LVU1196
	je	.L353
	jmp	.L428
.LVL380:
	.p2align 4,,10
	.p2align 3
.L419:
	.loc 1 2487 9 is_stmt 1 view .LVU1197
	call	print_sep_string
.LVL381:
	jmp	.L359
	.p2align 4,,10
	.p2align 3
.L418:
	.loc 1 2482 11 view .LVU1198
	subl	%eax, %edi
	call	pad_across_to
.LVL382:
	.loc 1 2483 11 view .LVU1199
	.loc 1 2483 31 is_stmt 0 view .LVU1200
	movl	$0, padding_not_printed(%rip)
	jmp	.L369
.LVL383:
	.p2align 4,,10
	.p2align 3
.L415:
	.loc 1 2451 7 is_stmt 1 view .LVU1201
	.loc 1 2451 22 is_stmt 0 view .LVU1202
	movl	%r12d, input_position(%rip)
	.loc 1 2452 7 is_stmt 1 view .LVU1203
	.loc 1 2452 14 is_stmt 0 view .LVU1204
	xorl	%eax, %eax
	jmp	.L336
.LVL384:
	.p2align 4,,10
	.p2align 3
.L422:
	.loc 1 2521 26 discriminator 1 view .LVU1205
	movl	chars_per_column(%rip), %ecx
	cmpl	%ecx, input_position(%rip)
	jle	.L384
	.loc 1 2523 11 is_stmt 1 view .LVU1206
	.loc 1 2523 26 is_stmt 0 view .LVU1207
	movl	%ebx, input_position(%rip)
	.loc 1 2524 11 is_stmt 1 view .LVU1208
	.loc 1 2524 18 is_stmt 0 view .LVU1209
	xorl	%eax, %eax
.LVL385:
	.loc 1 2524 18 view .LVU1210
	jmp	.L336
.LVL386:
	.p2align 4,,10
	.p2align 3
.L420:
	.loc 1 2491 5 is_stmt 1 view .LVU1211
	leaq	32(%rbp), %rdi
	call	add_line_number.isra.0
.LVL387:
	jmp	.L371
.LVL388:
	.p2align 4,,10
	.p2align 3
.L378:
	.loc 1 2508 11 view .LVU1212
	.loc 1 2508 20 is_stmt 0 view .LVU1213
	movq	0(%rbp), %rdi
.LVL389:
.LBB292:
.LBI292:
	.loc 2 66 1 is_stmt 1 view .LVU1214
.LBB293:
	.loc 2 68 3 view .LVU1215
	.loc 2 68 10 is_stmt 0 view .LVU1216
	movq	8(%rdi), %rax
.LVL390:
	.loc 2 68 10 view .LVU1217
	cmpq	16(%rdi), %rax
	jnb	.L429
	leaq	1(%rax), %rdx
	movq	%rdx, 8(%rdi)
	movzbl	(%rax), %edi
.LVL391:
.L381:
	.loc 2 68 10 view .LVU1218
.LBE293:
.LBE292:
	.loc 1 2508 14 view .LVU1219
	cmpl	$10, %edi
	je	.L353
	.loc 1 2509 13 is_stmt 1 view .LVU1220
	movq	0(%rbp), %rsi
	call	ungetc@PLT
.LVL392:
	.loc 1 2510 11 view .LVU1221
	jmp	.L353
.LVL393:
	.p2align 4,,10
	.p2align 3
.L392:
	.loc 1 2529 1 is_stmt 0 view .LVU1222
	popq	%rbx
	.cfi_remember_state
	.cfi_def_cfa_offset 40
	.loc 1 2503 7 view .LVU1223
	movl	$1, %eax
.LVL394:
	.loc 1 2529 1 view .LVU1224
	popq	%rbp
	.cfi_def_cfa_offset 32
.LVL395:
	.loc 1 2529 1 view .LVU1225
	popq	%r12
	.cfi_def_cfa_offset 24
	popq	%r13
	.cfi_def_cfa_offset 16
	popq	%r14
	.cfi_def_cfa_offset 8
	ret
.LVL396:
	.p2align 4,,10
	.p2align 3
.L413:
	.cfi_restore_state
.LBB295:
.LBB275:
	.loc 2 68 10 view .LVU1226
	call	__uflow@PLT
.LVL397:
	.loc 2 68 10 view .LVU1227
	movl	%eax, %ebx
	jmp	.L338
.LVL398:
	.p2align 4,,10
	.p2align 3
.L416:
	.loc 2 68 10 view .LVU1228
.LBE275:
.LBE295:
	.loc 1 2460 9 is_stmt 1 view .LVU1229
	call	print_header
.LVL399:
	jmp	.L360
.LVL400:
	.p2align 4,,10
	.p2align 3
.L427:
	.loc 1 2433 11 view .LVU1230
	.loc 1 2433 26 is_stmt 0 view .LVU1231
	movb	$1, pad_vertically(%rip)
	.loc 1 2434 11 is_stmt 1 view .LVU1232
	call	print_header
.LVL401:
	jmp	.L354
.LVL402:
	.p2align 4,,10
	.p2align 3
.L421:
.LBB296:
.LBB283:
	.loc 2 68 10 is_stmt 0 view .LVU1233
	call	__uflow@PLT
.LVL403:
	.loc 2 68 10 view .LVU1234
	jmp	.L377
.LVL404:
.L425:
	.loc 2 68 10 view .LVU1235
.LBE283:
.LBE296:
.LBB297:
.LBB291:
	call	__uflow@PLT
.LVL405:
	.loc 2 68 10 view .LVU1236
	movl	%eax, %edi
	jmp	.L351
.LVL406:
.L423:
	.loc 2 68 10 view .LVU1237
.LBE291:
.LBE297:
.LBB298:
.LBB288:
	call	__uflow@PLT
.LVL407:
	.loc 2 68 10 view .LVU1238
	movl	%eax, %ebx
.LVL408:
	.loc 2 68 10 view .LVU1239
	jmp	.L342
.LVL409:
.L429:
	.loc 2 68 10 view .LVU1240
.LBE288:
.LBE298:
.LBB299:
.LBB294:
	call	__uflow@PLT
.LVL410:
	.loc 2 68 10 view .LVU1241
	movl	%eax, %edi
	jmp	.L381
.LVL411:
.L417:
	.loc 2 68 10 view .LVU1242
.LBE294:
.LBE299:
.LBB300:
.LBB278:
	call	__uflow@PLT
.LVL412:
	.loc 2 68 10 view .LVU1243
	movl	%eax, %ebx
.LVL413:
	.loc 2 68 10 view .LVU1244
	jmp	.L345
.LBE278:
.LBE300:
	.cfi_endproc
.LFE179:
	.size	read_line, .-read_line
	.section	.rodata.str1.1
.LC11:
	.string	"standard input"
.LC12:
	.string	"r"
	.text
	.p2align 4
	.type	open_file, @function
open_file:
.LVL414:
.LFB155:
	.loc 1 1468 1 is_stmt 1 view -0
	.cfi_startproc
	.loc 1 1468 1 is_stmt 0 view .LVU1246
	pushq	%r13
	.cfi_def_cfa_offset 16
	.cfi_offset 13, -16
	pushq	%r12
	.cfi_def_cfa_offset 24
	.cfi_offset 12, -24
	movq	%rdi, %r12
	.loc 1 1469 3 is_stmt 1 view .LVU1247
	.loc 1 1468 1 is_stmt 0 view .LVU1248
	pushq	%rbx
	.cfi_def_cfa_offset 32
	.cfi_offset 3, -32
	.loc 1 1469 7 view .LVU1249
	cmpb	$45, (%rdi)
	.loc 1 1468 1 view .LVU1250
	movq	%rsi, %rbx
	.loc 1 1469 7 view .LVU1251
	jne	.L432
	.loc 1 1469 6 view .LVU1252
	cmpb	$0, 1(%rdi)
	jne	.L432
	.loc 1 1471 7 is_stmt 1 view .LVU1253
	.loc 1 1471 17 is_stmt 0 view .LVU1254
	xorl	%edi, %edi
.LVL415:
	.loc 1 1471 17 view .LVU1255
	movl	$5, %edx
	leaq	.LC11(%rip), %rsi
.LVL416:
	.loc 1 1471 17 view .LVU1256
	call	dcgettext@PLT
.LVL417:
	.loc 1 1472 13 view .LVU1257
	movq	stdin(%rip), %rdi
	.loc 1 1473 23 view .LVU1258
	movb	$1, have_read_stdin(%rip)
	.loc 1 1471 15 view .LVU1259
	movq	%rax, 8(%rbx)
	.loc 1 1472 7 is_stmt 1 view .LVU1260
	.loc 1 1472 13 is_stmt 0 view .LVU1261
	movq	%rdi, (%rbx)
	.loc 1 1473 7 is_stmt 1 view .LVU1262
	.loc 1 1480 3 view .LVU1263
	.loc 1 1480 6 is_stmt 0 view .LVU1264
	testq	%rdi, %rdi
	je	.L438
.L434:
	.loc 1 1487 3 is_stmt 1 view .LVU1265
	.loc 1 1491 10 is_stmt 0 view .LVU1266
	movl	$1, %r13d
	.loc 1 1487 3 view .LVU1267
	movl	$2, %esi
	call	fadvise@PLT
.LVL418:
	.loc 1 1488 3 is_stmt 1 view .LVU1268
	.loc 1 1492 1 is_stmt 0 view .LVU1269
	movl	%r13d, %eax
	.loc 1 1489 24 view .LVU1270
	movb	$0, 57(%rbx)
	.loc 1 1488 13 view .LVU1271
	movl	$0, 16(%rbx)
	.loc 1 1489 3 is_stmt 1 view .LVU1272
	.loc 1 1490 3 view .LVU1273
	.loc 1 1492 1 is_stmt 0 view .LVU1274
	popq	%rbx
	.cfi_remember_state
	.cfi_def_cfa_offset 24
.LVL419:
	.loc 1 1490 3 view .LVU1275
	addl	$1, total_files(%rip)
	.loc 1 1491 3 is_stmt 1 view .LVU1276
	.loc 1 1492 1 is_stmt 0 view .LVU1277
	popq	%r12
	.cfi_def_cfa_offset 16
.LVL420:
	.loc 1 1492 1 view .LVU1278
	popq	%r13
	.cfi_def_cfa_offset 8
	ret
.LVL421:
	.p2align 4,,10
	.p2align 3
.L432:
	.cfi_restore_state
	.loc 1 1477 7 is_stmt 1 view .LVU1279
	.loc 1 1477 15 is_stmt 0 view .LVU1280
	movq	%r12, 8(%rbx)
	.loc 1 1478 7 is_stmt 1 view .LVU1281
	.loc 1 1478 15 is_stmt 0 view .LVU1282
	movq	%r12, %rdi
.LVL422:
	.loc 1 1478 15 view .LVU1283
	leaq	.LC12(%rip), %rsi
	call	fopen_safer@PLT
.LVL423:
	movq	%rax, %rdi
	.loc 1 1478 13 view .LVU1284
	movq	%rax, (%rbx)
	.loc 1 1480 3 is_stmt 1 view .LVU1285
	.loc 1 1480 6 is_stmt 0 view .LVU1286
	testq	%rdi, %rdi
	jne	.L434
.L438:
.LVL424:
.LBB303:
.LBI303:
	.loc 1 1467 1 is_stmt 1 view .LVU1287
.LBB304:
	.loc 1 1482 7 view .LVU1288
	.loc 1 1483 11 is_stmt 0 view .LVU1289
	movzbl	ignore_failed_opens(%rip), %r13d
	.loc 1 1482 20 view .LVU1290
	movb	$1, failed_opens(%rip)
	.loc 1 1483 7 is_stmt 1 view .LVU1291
	.loc 1 1483 10 is_stmt 0 view .LVU1292
	testb	%r13b, %r13b
	je	.L439
	xorl	%r13d, %r13d
.LVL425:
	.loc 1 1483 10 view .LVU1293
.LBE304:
.LBE303:
	.loc 1 1492 1 view .LVU1294
	popq	%rbx
	.cfi_remember_state
	.cfi_def_cfa_offset 24
.LVL426:
	.loc 1 1492 1 view .LVU1295
	popq	%r12
	.cfi_def_cfa_offset 16
.LVL427:
	.loc 1 1492 1 view .LVU1296
	movl	%r13d, %eax
	popq	%r13
	.cfi_def_cfa_offset 8
	ret
.LVL428:
	.p2align 4,,10
	.p2align 3
.L439:
	.cfi_restore_state
.LBB306:
.LBB305:
	.loc 1 1484 9 is_stmt 1 view .LVU1297
	movq	%r12, %rdx
	movl	$3, %esi
	call	quotearg_n_style_colon@PLT
.LVL429:
	movq	%rax, %r12
.LVL430:
	.loc 1 1484 19 is_stmt 0 view .LVU1298
	call	__errno_location@PLT
.LVL431:
	.loc 1 1484 9 view .LVU1299
	movq	%r12, %rcx
	leaq	.LC3(%rip), %rdx
	xorl	%edi, %edi
	movl	(%rax), %esi
	xorl	%eax, %eax
	call	error@PLT
.LVL432:
.LBE305:
.LBE306:
	.loc 1 1492 1 view .LVU1300
	movl	%r13d, %eax
	popq	%rbx
	.cfi_def_cfa_offset 24
.LVL433:
	.loc 1 1492 1 view .LVU1301
	popq	%r12
	.cfi_def_cfa_offset 16
	popq	%r13
	.cfi_def_cfa_offset 8
	ret
	.cfi_endproc
.LFE155:
	.size	open_file, .-open_file
	.section	.rodata.str1.1
.LC13:
	.string	"\t"
.LC14:
	.string	"page width too narrow"
	.section	.rodata.str1.8,"aMS",@progbits,1
	.align 8
.LC15:
	.string	"starting page number %lu exceeds page count %lu"
	.text
	.p2align 4
	.type	print_files, @function
print_files:
.LVL434:
.LFB159:
	.loc 1 1596 1 is_stmt 1 view -0
	.cfi_startproc
	.loc 1 1596 1 is_stmt 0 view .LVU1303
	pushq	%r15
	.cfi_def_cfa_offset 16
	.cfi_offset 15, -16
	pushq	%r14
	.cfi_def_cfa_offset 24
	.cfi_offset 14, -24
	pushq	%r13
	.cfi_def_cfa_offset 32
	.cfi_offset 13, -32
	pushq	%r12
	.cfi_def_cfa_offset 40
	.cfi_offset 12, -40
	movl	%edi, %r12d
	.loc 1 1597 3 is_stmt 1 view .LVU1304
.LVL435:
.LBB355:
.LBI355:
	.loc 1 1191 1 view .LVU1305
.LBB356:
	.loc 1 1193 3 view .LVU1306
	.loc 1 1195 3 view .LVU1307
.LBE356:
.LBE355:
	.loc 1 1596 1 is_stmt 0 view .LVU1308
	pushq	%rbp
	.cfi_def_cfa_offset 48
	.cfi_offset 6, -48
	pushq	%rbx
	.cfi_def_cfa_offset 56
	.cfi_offset 3, -56
	movq	%rsi, %rbx
	subq	$24, %rsp
	.cfi_def_cfa_offset 80
.LBB364:
.LBB359:
	.loc 1 1195 54 view .LVU1309
	movl	lines_per_page(%rip), %edx
	leal	-10(%rdx), %eax
	.loc 1 1195 18 view .LVU1310
	movl	%eax, lines_per_body(%rip)
	.loc 1 1196 3 is_stmt 1 view .LVU1311
	.loc 1 1196 6 is_stmt 0 view .LVU1312
	testl	%eax, %eax
	jle	.L694
	.loc 1 1201 3 is_stmt 1 view .LVU1313
	.loc 1 1201 6 is_stmt 0 view .LVU1314
	cmpb	$0, extremities(%rip)
	je	.L442
.L443:
	.loc 1 1204 3 is_stmt 1 view .LVU1315
	.loc 1 1204 6 is_stmt 0 view .LVU1316
	cmpb	$0, double_space(%rip)
	je	.L444
	.loc 1 1205 5 is_stmt 1 view .LVU1317
	.loc 1 1205 37 is_stmt 0 view .LVU1318
	movl	lines_per_body(%rip), %edx
	movl	%edx, %eax
	shrl	$31, %eax
	addl	%edx, %eax
	sarl	%eax
	.loc 1 1205 20 view .LVU1319
	movl	%eax, lines_per_body(%rip)
.L444:
	.loc 1 1209 3 is_stmt 1 view .LVU1320
	.loc 1 1209 6 is_stmt 0 view .LVU1321
	testl	%r12d, %r12d
	jne	.L445
	.loc 1 1210 5 is_stmt 1 view .LVU1322
	.loc 1 1210 20 is_stmt 0 view .LVU1323
	movb	$0, parallel_files(%rip)
	.loc 1 1212 3 is_stmt 1 view .LVU1324
	movl	columns(%rip), %esi
.LVL436:
	.loc 1 1212 7 is_stmt 0 view .LVU1325
	xorl	%r8d, %r8d
.L446:
	.loc 1 1217 3 is_stmt 1 view .LVU1326
	.loc 1 1217 6 is_stmt 0 view .LVU1327
	cmpb	$0, storing_columns(%rip)
	je	.L448
	.loc 1 1218 5 is_stmt 1 view .LVU1328
	.loc 1 1218 21 is_stmt 0 view .LVU1329
	movb	$1, balance_columns(%rip)
.L448:
	.loc 1 1221 3 is_stmt 1 view .LVU1330
	movzbl	join_lines(%rip), %edx
	.loc 1 1221 6 is_stmt 0 view .LVU1331
	cmpl	$1, %esi
	jle	.L449
	.loc 1 1223 7 is_stmt 1 view .LVU1332
	.loc 1 1223 10 is_stmt 0 view .LVU1333
	cmpb	$0, use_col_separator(%rip)
	jne	.L450
	.loc 1 1226 11 is_stmt 1 view .LVU1334
	.loc 1 1227 28 is_stmt 0 view .LVU1335
	testb	%dl, %dl
	leaq	.LC8(%rip), %rax
	leaq	.LC13(%rip), %rcx
	.loc 1 1231 26 view .LVU1336
	movl	$1, col_sep_length(%rip)
	.loc 1 1227 28 view .LVU1337
	cmovne	%rcx, %rax
	.loc 1 1232 29 view .LVU1338
	movb	$1, use_col_separator(%rip)
	movq	%rax, col_sep_string(%rip)
	.loc 1 1231 11 is_stmt 1 view .LVU1339
	.loc 1 1232 11 view .LVU1340
	movl	$1, %eax
.L452:
	.loc 1 1239 7 view .LVU1341
	.loc 1 1239 22 is_stmt 0 view .LVU1342
	movb	$1, truncate_lines(%rip)
	.loc 1 1240 7 is_stmt 1 view .LVU1343
	.loc 1 1240 21 is_stmt 0 view .LVU1344
	movb	$1, tabify_output(%rip)
.L453:
	.loc 1 1246 3 is_stmt 1 view .LVU1345
	.loc 1 1246 6 is_stmt 0 view .LVU1346
	testb	%dl, %dl
	je	.L454
	.loc 1 1247 5 is_stmt 1 view .LVU1347
	.loc 1 1247 20 is_stmt 0 view .LVU1348
	movb	$0, truncate_lines(%rip)
.L454:
	.loc 1 1249 3 is_stmt 1 view .LVU1349
	.loc 1 1249 7 is_stmt 0 view .LVU1350
	movzbl	numbered_lines(%rip), %edi
.LVL437:
	.loc 1 1249 6 view .LVU1351
	testb	%dil, %dil
	je	.L455
.LBB357:
	.loc 1 1251 7 is_stmt 1 view .LVU1352
.LVL438:
	.loc 1 1253 7 view .LVU1353
	.loc 1 1253 18 is_stmt 0 view .LVU1354
	movl	start_line_num(%rip), %edx
	.loc 1 1261 10 view .LVU1355
	cmpb	$9, number_separator(%rip)
	.loc 1 1253 18 view .LVU1356
	movl	%edx, line_count(%rip)
	.loc 1 1261 7 is_stmt 1 view .LVU1357
	movl	chars_per_number(%rip), %edx
	.loc 1 1265 41 is_stmt 0 view .LVU1358
	leal	1(%rdx), %ecx
	.loc 1 1261 10 view .LVU1359
	jne	.L457
	.loc 1 1262 9 is_stmt 1 view .LVU1360
	.loc 1 1263 27 is_stmt 0 view .LVU1361
	movl	%edx, %ecx
	sarl	$31, %ecx
	shrl	$29, %ecx
	leal	(%rdx,%rcx), %r9d
	andl	$7, %r9d
	subl	%r9d, %ecx
	.loc 1 1263 25 view .LVU1362
	leal	8(%rdx,%rcx), %ecx
.L457:
	movl	%ecx, number_width(%rip)
	.loc 1 1269 7 is_stmt 1 view .LVU1363
	.loc 1 1269 10 is_stmt 0 view .LVU1364
	testb	%r8b, %r8b
	je	.L455
.LVL439:
.L458:
	.loc 1 1269 10 view .LVU1365
.LBE357:
	.loc 1 1273 3 is_stmt 1 view .LVU1366
	.loc 1 1274 3 view .LVU1367
	.loc 1 1274 7 is_stmt 0 view .LVU1368
	leal	-1(%rsi), %edx
	imull	%eax, %edx
	jo	.L695
.L461:
.LVL440:
	.loc 1 1276 3 is_stmt 1 view .LVU1369
	.loc 1 1276 7 is_stmt 0 view .LVU1370
	movl	chars_per_line(%rip), %eax
	subl	%ecx, %eax
	subl	%edx, %eax
	jo	.L463
.LVL441:
	.loc 1 1279 3 is_stmt 1 view .LVU1371
	.loc 1 1279 35 is_stmt 0 view .LVU1372
	cltd
.LVL442:
	.loc 1 1279 35 view .LVU1373
	idivl	%esi
.LVL443:
	.loc 1 1279 20 view .LVU1374
	movl	%eax, chars_per_column(%rip)
	.loc 1 1281 3 is_stmt 1 view .LVU1375
	.loc 1 1281 6 is_stmt 0 view .LVU1376
	testl	%eax, %eax
	jle	.L595
	.loc 1 1284 3 is_stmt 1 view .LVU1377
	.loc 1 1284 6 is_stmt 0 view .LVU1378
	testb	%dil, %dil
	jne	.L696
.LVL444:
.L466:
	.loc 1 1296 3 is_stmt 1 view .LVU1379
	movq	clump_buff(%rip), %rdi
	call	free@PLT
.LVL445:
	.loc 1 1297 3 view .LVU1380
	.loc 1 1297 25 is_stmt 0 view .LVU1381
	cmpl	$8, chars_per_input_tab(%rip)
	movl	$8, %edi
	cmovge	chars_per_input_tab(%rip), %edi
	.loc 1 1297 16 view .LVU1382
	movslq	%edi, %rdi
	call	xmalloc@PLT
.LVL446:
.LBE359:
.LBE364:
.LBB365:
.LBB366:
	.loc 1 1318 3 view .LVU1383
	movq	column_vector(%rip), %rdi
	.loc 1 1316 15 view .LVU1384
	movl	$0, total_files(%rip)
.LBE366:
.LBE365:
.LBB381:
.LBB360:
	.loc 1 1297 14 view .LVU1385
	movq	%rax, clump_buff(%rip)
.LVL447:
	.loc 1 1297 14 view .LVU1386
.LBE360:
.LBE381:
	.loc 1 1598 3 is_stmt 1 view .LVU1387
.LBB382:
.LBI365:
	.loc 1 1312 1 view .LVU1388
.LBB376:
	.loc 1 1314 3 view .LVU1389
	.loc 1 1316 3 view .LVU1390
	.loc 1 1318 3 view .LVU1391
	call	free@PLT
.LVL448:
	.loc 1 1319 3 view .LVU1392
	.loc 1 1319 19 is_stmt 0 view .LVU1393
	movslq	columns(%rip), %rdi
.LVL449:
.LBB367:
.LBI367:
	.file 7 "./lib/xalloc.h"
	.loc 7 99 1 is_stmt 1 view .LVU1394
.LBB368:
	.loc 7 101 3 view .LVU1395
	.loc 7 101 7 is_stmt 0 view .LVU1396
	movq	%rdi, %rax
	shrq	$58, %rax
	setne	%al
	salq	$6, %rdi
.LVL450:
	.loc 7 101 7 view .LVU1397
	movzbl	%al, %eax
	js	.L500
	.loc 7 101 6 view .LVU1398
	testq	%rax, %rax
	jne	.L500
	.loc 7 103 3 is_stmt 1 view .LVU1399
	.loc 7 103 10 is_stmt 0 view .LVU1400
	call	xmalloc@PLT
.LVL451:
	.loc 7 103 10 view .LVU1401
.LBE368:
.LBE367:
	.loc 1 1321 6 view .LVU1402
	cmpb	$0, parallel_files(%rip)
	.loc 1 1319 17 view .LVU1403
	movq	%rax, column_vector(%rip)
.LBB371:
.LBB369:
	.loc 7 103 10 view .LVU1404
	movq	%rax, %rbp
.LVL452:
	.loc 7 103 10 view .LVU1405
.LBE369:
.LBE371:
	.loc 1 1321 3 is_stmt 1 view .LVU1406
	.loc 1 1321 6 is_stmt 0 view .LVU1407
	je	.L472
.LVL453:
.LBB372:
	.loc 1 1324 31 is_stmt 1 view .LVU1408
	.loc 1 1324 7 is_stmt 0 view .LVU1409
	testl	%r12d, %r12d
	je	.L479
	leal	-1(%r12), %eax
.LVL454:
	.loc 1 1324 7 view .LVU1410
	leaq	8(%rbx,%rax,8), %r12
.LVL455:
	.loc 1 1324 7 view .LVU1411
	jmp	.L478
.LVL456:
	.p2align 4,,10
	.p2align 3
.L697:
	.loc 1 1324 50 view .LVU1412
	addq	$8, %rbx
	addq	$64, %rbp
.LVL457:
	.loc 1 1324 45 is_stmt 1 view .LVU1413
	.loc 1 1324 31 view .LVU1414
	.loc 1 1324 7 is_stmt 0 view .LVU1415
	cmpq	%r12, %rbx
	je	.L479
.L478:
.LVL458:
	.loc 1 1326 11 is_stmt 1 view .LVU1416
	.loc 1 1326 17 is_stmt 0 view .LVU1417
	movq	(%rbx), %rdi
	movq	%rbp, %rsi
	call	open_file
.LVL459:
	.loc 1 1326 14 view .LVU1418
	testb	%al, %al
	jne	.L697
	.loc 1 1328 15 is_stmt 1 view .LVU1419
.LVL460:
	.loc 1 1329 15 view .LVU1420
	.loc 1 1324 50 is_stmt 0 view .LVU1421
	addq	$8, %rbx
	.loc 1 1329 15 view .LVU1422
	subl	$1, columns(%rip)
.LVL461:
	.loc 1 1324 45 is_stmt 1 view .LVU1423
	.loc 1 1324 31 view .LVU1424
	.loc 1 1324 7 is_stmt 0 view .LVU1425
	cmpq	%r12, %rbx
	jne	.L478
.L479:
	.loc 1 1332 7 is_stmt 1 view .LVU1426
	.loc 1 1332 10 is_stmt 0 view .LVU1427
	movl	columns(%rip), %r10d
	testl	%r10d, %r10d
	je	.L440
	.loc 1 1334 7 is_stmt 1 view .LVU1428
	movl	$-1, %esi
	leaq	.LC1(%rip), %rdi
	call	init_header
.LVL462:
.L480:
	.loc 1 1334 7 is_stmt 0 view .LVU1429
.LBE372:
	.loc 1 1370 3 is_stmt 1 view .LVU1430
	.loc 1 1370 23 is_stmt 0 view .LVU1431
	movl	total_files(%rip), %eax
.LBE376:
.LBE382:
	.loc 1 1600 6 view .LVU1432
	cmpb	$0, storing_columns(%rip)
.LBB383:
.LBB377:
	.loc 1 1370 23 view .LVU1433
	movl	%eax, files_ready_to_read(%rip)
	.loc 1 1371 3 is_stmt 1 view .LVU1434
.LVL463:
	.loc 1 1371 3 is_stmt 0 view .LVU1435
.LBE377:
.LBE383:
	.loc 1 1600 3 is_stmt 1 view .LVU1436
	.loc 1 1600 6 is_stmt 0 view .LVU1437
	jne	.L698
.L486:
	.loc 1 1603 3 is_stmt 1 view .LVU1438
	.loc 1 1603 25 is_stmt 0 view .LVU1439
	movq	first_page_number(%rip), %r13
	.loc 1 1603 6 view .LVU1440
	cmpq	$1, %r13
	ja	.L699
	.loc 1 1611 5 is_stmt 1 view .LVU1441
	.loc 1 1611 17 is_stmt 0 view .LVU1442
	movq	$1, page_number(%rip)
.L523:
.LBB384:
.LBI384:
	.loc 1 1595 1 is_stmt 1 view .LVU1443
.LVL464:
.LBB385:
	.loc 1 1613 3 view .LVU1444
.LBB386:
.LBI386:
	.loc 1 1381 1 view .LVU1445
.LBB387:
	.loc 1 1383 3 view .LVU1446
	.loc 1 1384 3 view .LVU1447
	.loc 1 1386 3 view .LVU1448
	.loc 1 1388 7 is_stmt 0 view .LVU1449
	movzbl	truncate_lines(%rip), %ebp
	.loc 1 1386 5 view .LVU1450
	movl	chars_per_margin(%rip), %esi
.LVL465:
	.loc 1 1388 3 is_stmt 1 view .LVU1451
	.loc 1 1389 12 is_stmt 0 view .LVU1452
	xorl	%r8d, %r8d
	movzbl	numbered_lines(%rip), %r11d
	.loc 1 1388 6 view .LVU1453
	testb	%bpl, %bpl
	je	.L524
	.loc 1 1395 7 is_stmt 1 view .LVU1454
	movl	chars_per_column(%rip), %r8d
	addl	%esi, %r8d
	.loc 1 1395 10 is_stmt 0 view .LVU1455
	cmpb	$0, parallel_files(%rip)
	jne	.L700
.L524:
.LVL466:
	.loc 1 1403 3 is_stmt 1 view .LVU1456
	.loc 1 1403 9 is_stmt 0 view .LVU1457
	movl	col_sep_length(%rip), %r12d
	.loc 1 1407 10 view .LVU1458
	movq	column_vector(%rip), %r9
	.loc 1 1407 36 view .LVU1459
	movl	columns(%rip), %r10d
	movzbl	storing_columns(%rip), %edi
	.loc 1 1403 5 view .LVU1460
	addl	%r12d, %esi
.LVL467:
	.loc 1 1407 3 is_stmt 1 view .LVU1461
	.loc 1 1407 10 is_stmt 0 view .LVU1462
	movq	%r9, %rbx
.LVL468:
	.loc 1 1407 34 is_stmt 1 view .LVU1463
	.loc 1 1407 3 is_stmt 0 view .LVU1464
	cmpl	$1, %r10d
	jle	.L607
	movzbl	parallel_files(%rip), %ecx
	.loc 1 1412 25 view .LVU1465
	movq	%r9, 8(%rsp)
	.loc 1 1407 10 view .LVU1466
	movq	%r9, %rax
	.loc 1 1407 29 view .LVU1467
	movl	$1, %edx
	.loc 1 1438 22 view .LVU1468
	movl	chars_per_column(%rip), %r15d
	.loc 1 1417 24 view .LVU1469
	leaq	print_char(%rip), %r14
	.loc 1 1412 25 view .LVU1470
	leaq	print_stored(%rip), %r13
	xorl	$1, %ecx
	movl	%ecx, %r9d
	jmp	.L530
.LVL469:
	.p2align 4,,10
	.p2align 3
.L702:
	.loc 1 1411 11 is_stmt 1 view .LVU1471
	.loc 1 1411 24 is_stmt 0 view .LVU1472
	leaq	store_char(%rip), %rcx
	.loc 1 1412 25 view .LVU1473
	movq	%r13, 24(%rax)
	.loc 1 1411 24 view .LVU1474
	movq	%rcx, 32(%rax)
	.loc 1 1412 11 is_stmt 1 view .LVU1475
.L527:
	.loc 1 1423 7 view .LVU1476
	xorl	%ecx, %ecx
	.loc 1 1423 36 is_stmt 0 view .LVU1477
	testb	%r11b, %r11b
	je	.L528
	.loc 1 1423 56 view .LVU1478
	cmpl	$1, %edx
	sete	%cl
	orl	%r9d, %ecx
.L528:
	.loc 1 1423 19 view .LVU1479
	movb	%cl, 56(%rax)
	.loc 1 1424 7 is_stmt 1 view .LVU1480
	.loc 1 1424 25 is_stmt 0 view .LVU1481
	movl	%esi, 52(%rax)
	.loc 1 1430 7 is_stmt 1 view .LVU1482
	.loc 1 1430 10 is_stmt 0 view .LVU1483
	testb	%bpl, %bpl
	je	.L609
	.loc 1 1437 11 is_stmt 1 view .LVU1484
	.loc 1 1437 13 is_stmt 0 view .LVU1485
	leal	(%r12,%r8), %esi
.LVL470:
	.loc 1 1438 11 is_stmt 1 view .LVU1486
	.loc 1 1407 52 is_stmt 0 view .LVU1487
	addl	$1, %edx
.LVL471:
	.loc 1 1407 47 view .LVU1488
	addq	$64, %rax
.LVL472:
	.loc 1 1438 18 view .LVU1489
	leal	(%rsi,%r15), %r8d
.LVL473:
	.loc 1 1407 47 is_stmt 1 view .LVU1490
	.loc 1 1407 34 view .LVU1491
	.loc 1 1407 3 is_stmt 0 view .LVU1492
	cmpl	%r10d, %edx
	je	.L701
.LVL474:
.L530:
	.loc 1 1409 7 is_stmt 1 view .LVU1493
	.loc 1 1409 10 is_stmt 0 view .LVU1494
	testb	%dil, %dil
	jne	.L702
	.loc 1 1417 11 is_stmt 1 view .LVU1495
	.loc 1 1418 25 is_stmt 0 view .LVU1496
	leaq	read_line(%rip), %rcx
	.loc 1 1417 24 view .LVU1497
	movq	%r14, 32(%rax)
	.loc 1 1418 11 is_stmt 1 view .LVU1498
	.loc 1 1418 25 is_stmt 0 view .LVU1499
	movq	%rcx, 24(%rax)
	jmp	.L527
.LVL475:
	.p2align 4,,10
	.p2align 3
.L694:
	.loc 1 1418 25 view .LVU1500
.LBE387:
.LBE386:
.LBE385:
.LBE384:
.LBB467:
.LBB361:
	.loc 1 1198 7 is_stmt 1 view .LVU1501
	.loc 1 1198 19 is_stmt 0 view .LVU1502
	movb	$0, extremities(%rip)
	.loc 1 1199 7 is_stmt 1 view .LVU1503
	.loc 1 1199 15 is_stmt 0 view .LVU1504
	movb	$1, keep_FF(%rip)
	.loc 1 1201 3 is_stmt 1 view .LVU1505
.L442:
	.loc 1 1202 5 view .LVU1506
	.loc 1 1202 20 is_stmt 0 view .LVU1507
	movl	%edx, lines_per_body(%rip)
	jmp	.L443
	.p2align 4,,10
	.p2align 3
.L450:
	.loc 1 1236 12 is_stmt 1 view .LVU1508
	movl	col_sep_length(%rip), %eax
	.loc 1 1236 15 is_stmt 0 view .LVU1509
	testb	%dl, %dl
	jne	.L452
	.loc 1 1236 28 view .LVU1510
	cmpl	$1, %eax
	jne	.L452
	.loc 1 1236 54 view .LVU1511
	movq	col_sep_string(%rip), %rcx
	.loc 1 1236 51 view .LVU1512
	cmpb	$9, (%rcx)
	jne	.L452
	.loc 1 1237 9 is_stmt 1 view .LVU1513
	.loc 1 1237 24 is_stmt 0 view .LVU1514
	leaq	.LC8(%rip), %rcx
	movq	%rcx, col_sep_string(%rip)
	jmp	.L452
.LVL476:
	.p2align 4,,10
	.p2align 3
.L455:
	.loc 1 1193 7 view .LVU1515
	xorl	%ecx, %ecx
	jmp	.L458
.LVL477:
	.p2align 4,,10
	.p2align 3
.L445:
	.loc 1 1212 3 is_stmt 1 view .LVU1516
	.loc 1 1212 7 is_stmt 0 view .LVU1517
	movzbl	parallel_files(%rip), %r8d
	.loc 1 1212 6 view .LVU1518
	testb	%r8b, %r8b
	je	.L703
	.loc 1 1213 5 is_stmt 1 view .LVU1519
	.loc 1 1213 13 is_stmt 0 view .LVU1520
	movl	%r12d, columns(%rip)
	movl	%r12d, %esi
	jmp	.L446
.LVL478:
	.p2align 4,,10
	.p2align 3
.L472:
	.loc 1 1213 13 view .LVU1521
.LBE361:
.LBE467:
.LBB468:
.LBB378:
.LBB373:
	.loc 1 1338 7 is_stmt 1 view .LVU1522
	.loc 1 1339 7 view .LVU1523
	.loc 1 1339 10 is_stmt 0 view .LVU1524
	testl	%r12d, %r12d
	jle	.L481
	.loc 1 1341 11 is_stmt 1 view .LVU1525
	.loc 1 1341 17 is_stmt 0 view .LVU1526
	movq	(%rbx), %rdi
	movq	%rax, %rsi
	call	open_file
.LVL479:
	.loc 1 1341 14 view .LVU1527
	testb	%al, %al
	jne	.L704
.LVL480:
.L440:
	.loc 1 1341 14 view .LVU1528
.LBE373:
.LBE378:
.LBE468:
	.loc 1 1618 1 view .LVU1529
	addq	$24, %rsp
	.cfi_remember_state
	.cfi_def_cfa_offset 56
	popq	%rbx
	.cfi_def_cfa_offset 48
	popq	%rbp
	.cfi_def_cfa_offset 40
	popq	%r12
	.cfi_def_cfa_offset 32
	popq	%r13
	.cfi_def_cfa_offset 24
	popq	%r14
	.cfi_def_cfa_offset 16
	popq	%r15
	.cfi_def_cfa_offset 8
	ret
.LVL481:
	.p2align 4,,10
	.p2align 3
.L609:
	.cfi_restore_state
.LBB469:
.LBB463:
.LBB392:
.LBB388:
	.loc 1 1407 52 view .LVU1530
	addl	$1, %edx
.LVL482:
	.loc 1 1433 18 view .LVU1531
	xorl	%r8d, %r8d
.LVL483:
	.loc 1 1432 13 view .LVU1532
	xorl	%esi, %esi
.LVL484:
	.loc 1 1407 47 is_stmt 1 view .LVU1533
	addq	$64, %rax
.LVL485:
	.loc 1 1407 34 view .LVU1534
	.loc 1 1407 3 is_stmt 0 view .LVU1535
	cmpl	%r10d, %edx
	jne	.L530
.L701:
	.loc 1 1407 3 view .LVU1536
	leal	-2(%r10), %eax
.LVL486:
	.loc 1 1407 3 view .LVU1537
	movq	8(%rsp), %r9
	movl	%r10d, %edx
.LVL487:
	.loc 1 1407 3 view .LVU1538
	addq	$1, %rax
	salq	$6, %rax
	addq	%r9, %rax
.L525:
	.loc 1 1446 3 is_stmt 1 view .LVU1539
	.loc 1 1446 6 is_stmt 0 view .LVU1540
	testb	%dil, %dil
	je	.L531
	.loc 1 1446 23 view .LVU1541
	cmpb	$0, balance_columns(%rip)
	jne	.L705
.L531:
	.loc 1 1453 7 is_stmt 1 view .LVU1542
	.loc 1 1453 20 is_stmt 0 view .LVU1543
	leaq	print_char(%rip), %rcx
	movq	%rcx, 32(%rax)
	.loc 1 1454 7 is_stmt 1 view .LVU1544
	.loc 1 1454 21 is_stmt 0 view .LVU1545
	leaq	read_line(%rip), %rcx
	movq	%rcx, 24(%rax)
.L532:
	.loc 1 1457 3 is_stmt 1 view .LVU1546
	.loc 1 1457 32 is_stmt 0 view .LVU1547
	testb	%r11b, %r11b
	je	.L533
	movzbl	parallel_files(%rip), %r11d
	xorl	$1, %r11d
	.loc 1 1457 52 view .LVU1548
	cmpl	$1, %edx
	sete	%dl
	orl	%edx, %r11d
.L533:
	.loc 1 1457 15 view .LVU1549
	movb	%r11b, 56(%rax)
	.loc 1 1458 3 is_stmt 1 view .LVU1550
.LBE388:
.LBE392:
.LBB393:
.LBB394:
.LBB395:
.LBB396:
	.loc 1 1714 29 is_stmt 0 view .LVU1551
	xorl	%ebp, %ebp
.LBE396:
.LBE395:
.LBE394:
.LBE393:
.LBB454:
.LBB389:
	.loc 1 1458 21 view .LVU1552
	movl	%esi, 52(%rax)
.LVL488:
	.loc 1 1458 21 view .LVU1553
.LBE389:
.LBE454:
	.loc 1 1615 3 is_stmt 1 view .LVU1554
	.loc 1 1615 15 is_stmt 0 view .LVU1555
	movl	line_count(%rip), %eax
	movl	%eax, line_number(%rip)
	.loc 1 1616 3 is_stmt 1 view .LVU1556
	.loc 1 1617 5 view .LVU1557
	.loc 1 1616 9 view .LVU1558
.LBB455:
.LBI393:
	.loc 1 1753 1 view .LVU1559
.LBB448:
	.loc 1 1755 3 view .LVU1560
	.loc 1 1756 3 view .LVU1561
	.loc 1 1757 3 view .LVU1562
	.loc 1 1766 3 view .LVU1563
	.loc 1 1768 3 view .LVU1564
.LBB415:
.LBI395:
	.loc 1 1680 1 view .LVU1565
.LBB409:
	.loc 1 1682 3 view .LVU1566
	.loc 1 1683 3 view .LVU1567
	.loc 1 1685 3 view .LVU1568
	.loc 1 1685 6 is_stmt 0 view .LVU1569
	testb	%dil, %dil
	jne	.L706
.L534:
	.loc 1 1711 5 is_stmt 1 view .LVU1570
.LVL489:
	.loc 1 1711 42 view .LVU1571
	.loc 1 1711 5 is_stmt 0 view .LVU1572
	testl	%r10d, %r10d
	je	.L551
	leal	-1(%r10), %eax
	.loc 1 1714 29 view .LVU1573
	movl	lines_per_body(%rip), %ecx
	addq	$1, %rax
	salq	$6, %rax
	addq	%r9, %rax
.LVL490:
	.p2align 4,,10
	.p2align 3
.L555:
	.loc 1 1712 7 is_stmt 1 view .LVU1574
	.loc 1 1714 29 is_stmt 0 view .LVU1575
	movl	16(%rbx), %r8d
	movl	%ebp, %edx
	testl	%r8d, %r8d
	cmove	%ecx, %edx
	.loc 1 1711 50 view .LVU1576
	addq	$64, %rbx
.LVL491:
	.loc 1 1711 50 view .LVU1577
	movl	%edx, -16(%rbx)
	.loc 1 1711 45 is_stmt 1 view .LVU1578
.LVL492:
	.loc 1 1711 42 view .LVU1579
	.loc 1 1711 5 is_stmt 0 view .LVU1580
	cmpq	%rbx, %rax
	jne	.L555
.LVL493:
.L551:
	.loc 1 1711 5 view .LVU1581
.LBE409:
.LBE415:
	.loc 1 1770 3 is_stmt 1 view .LVU1582
	.loc 1 1770 7 is_stmt 0 view .LVU1583
	call	cols_ready_to_print
.LVL494:
	.loc 1 1770 6 view .LVU1584
	testl	%eax, %eax
	je	.L440
	.loc 1 1773 3 is_stmt 1 view .LVU1585
	.loc 1 1773 6 is_stmt 0 view .LVU1586
	cmpb	$0, extremities(%rip)
	je	.L557
	.loc 1 1774 5 is_stmt 1 view .LVU1587
	.loc 1 1774 20 is_stmt 0 view .LVU1588
	movb	$1, print_a_header(%rip)
.L557:
	.loc 1 1777 3 is_stmt 1 view .LVU1589
	.loc 1 1781 6 is_stmt 0 view .LVU1590
	cmpb	$0, double_space(%rip)
	.loc 1 1777 18 view .LVU1591
	movb	$0, pad_vertically(%rip)
	.loc 1 1778 3 is_stmt 1 view .LVU1592
.LVL495:
	.loc 1 1780 3 view .LVU1593
	.loc 1 1780 22 is_stmt 0 view .LVU1594
	movl	lines_per_body(%rip), %r12d
.LVL496:
	.loc 1 1781 3 is_stmt 1 view .LVU1595
	.loc 1 1781 6 is_stmt 0 view .LVU1596
	je	.L558
	.loc 1 1782 5 is_stmt 1 view .LVU1597
	.loc 1 1782 24 is_stmt 0 view .LVU1598
	addl	%r12d, %r12d
.LVL497:
.L558:
	.loc 1 1784 9 is_stmt 1 view .LVU1599
	xorl	%r13d, %r13d
	testl	%r12d, %r12d
	jle	.L707
.LVL498:
	.p2align 4,,10
	.p2align 3
.L578:
	.loc 1 1784 36 is_stmt 0 view .LVU1600
	call	cols_ready_to_print
.LVL499:
	.loc 1 1784 33 view .LVU1601
	testl	%eax, %eax
	je	.L581
	.loc 1 1786 7 is_stmt 1 view .LVU1602
	.loc 1 1793 7 is_stmt 0 view .LVU1603
	movl	columns(%rip), %edi
	.loc 1 1786 23 view .LVU1604
	movl	%ebp, output_position(%rip)
	.loc 1 1787 7 is_stmt 1 view .LVU1605
	.loc 1 1787 26 is_stmt 0 view .LVU1606
	movl	%ebp, spaces_not_printed(%rip)
	.loc 1 1788 7 is_stmt 1 view .LVU1607
	.loc 1 1793 21 is_stmt 0 view .LVU1608
	movq	column_vector(%rip), %rbx
	.loc 1 1788 30 view .LVU1609
	movl	%ebp, separators_not_printed(%rip)
	.loc 1 1789 7 is_stmt 1 view .LVU1610
	.loc 1 1789 22 is_stmt 0 view .LVU1611
	movb	$0, pad_vertically(%rip)
	.loc 1 1790 7 is_stmt 1 view .LVU1612
	.loc 1 1790 24 is_stmt 0 view .LVU1613
	movb	$0, align_empty_cols(%rip)
	.loc 1 1791 7 is_stmt 1 view .LVU1614
	.loc 1 1791 18 is_stmt 0 view .LVU1615
	movb	$1, empty_line(%rip)
	.loc 1 1793 7 is_stmt 1 view .LVU1616
.LVL500:
	.loc 1 1793 38 view .LVU1617
	.loc 1 1793 7 is_stmt 0 view .LVU1618
	testl	%edi, %edi
	jle	.L559
	.loc 1 1793 14 view .LVU1619
	movl	$1, %r14d
	jmp	.L570
.LVL501:
	.p2align 4,,10
	.p2align 3
.L560:
	.loc 1 1798 15 is_stmt 1 view .LVU1620
	.loc 1 1799 35 is_stmt 0 view .LVU1621
	movl	52(%rbx), %eax
	.loc 1 1798 23 view .LVU1622
	movb	$0, FF_only(%rip)
	.loc 1 1799 15 is_stmt 1 view .LVU1623
	.loc 1 1800 22 is_stmt 0 view .LVU1624
	movq	%rbx, %rdi
	.loc 1 1799 35 view .LVU1625
	movl	%eax, padding_not_printed(%rip)
	.loc 1 1800 15 is_stmt 1 view .LVU1626
	.loc 1 1800 22 is_stmt 0 view .LVU1627
	call	*24(%rbx)
.LVL502:
	.loc 1 1800 18 view .LVU1628
	testb	%al, %al
	je	.L708
.L562:
	.loc 1 1802 15 is_stmt 1 view .LVU1629
	.loc 1 1804 15 is_stmt 0 view .LVU1630
	movl	48(%rbx), %eax
	.loc 1 1802 18 view .LVU1631
	movzbl	pad_vertically(%rip), %r9d
	.loc 1 1804 15 view .LVU1632
	subl	$1, %eax
	.loc 1 1802 18 view .LVU1633
	orl	%r9d, %r13d
.LVL503:
	.loc 1 1804 15 is_stmt 1 view .LVU1634
	movl	%eax, 48(%rbx)
	.loc 1 1805 15 view .LVU1635
	.loc 1 1805 18 is_stmt 0 view .LVU1636
	testl	%eax, %eax
	jle	.L709
.L563:
	.loc 1 1812 15 is_stmt 1 view .LVU1637
	.loc 1 1812 18 is_stmt 0 view .LVU1638
	cmpb	$0, parallel_files(%rip)
	je	.L565
	.loc 1 1812 38 view .LVU1639
	movl	16(%rbx), %eax
	.loc 1 1812 34 view .LVU1640
	testl	%eax, %eax
	je	.L565
	.loc 1 1814 19 is_stmt 1 view .LVU1641
	.loc 1 1814 22 is_stmt 0 view .LVU1642
	cmpb	$0, empty_line(%rip)
	jne	.L693
	.loc 1 1816 24 is_stmt 1 view .LVU1643
	.loc 1 1816 27 is_stmt 0 view .LVU1644
	cmpl	$3, %eax
	je	.L568
	.loc 1 1817 28 view .LVU1645
	cmpl	$2, %eax
	je	.L710
	.p2align 4,,10
	.p2align 3
.L565:
	.loc 1 1831 11 is_stmt 1 view .LVU1646
	.loc 1 1831 14 is_stmt 0 view .LVU1647
	cmpb	$0, use_col_separator(%rip)
	je	.L569
	.loc 1 1832 13 is_stmt 1 view .LVU1648
	addl	$1, separators_not_printed(%rip)
.L569:
	.loc 1 1793 52 view .LVU1649
	addl	$1, %r14d
.LVL504:
	.loc 1 1793 57 is_stmt 0 view .LVU1650
	addq	$64, %rbx
.LVL505:
	.loc 1 1793 38 is_stmt 1 view .LVU1651
	.loc 1 1793 7 is_stmt 0 view .LVU1652
	cmpl	columns(%rip), %r14d
	jg	.L711
.LVL506:
.L570:
	.loc 1 1795 11 is_stmt 1 view .LVU1653
	.loc 1 1796 14 is_stmt 0 view .LVU1654
	movl	48(%rbx), %esi
	.loc 1 1795 26 view .LVU1655
	movl	%ebp, input_position(%rip)
	.loc 1 1796 11 is_stmt 1 view .LVU1656
	.loc 1 1796 14 is_stmt 0 view .LVU1657
	testl	%esi, %esi
	jg	.L560
	.loc 1 1796 37 view .LVU1658
	cmpl	$1, 16(%rbx)
	je	.L560
	.loc 1 1821 16 is_stmt 1 view .LVU1659
	.loc 1 1821 19 is_stmt 0 view .LVU1660
	cmpb	$0, parallel_files(%rip)
	je	.L565
	.loc 1 1824 15 is_stmt 1 view .LVU1661
	.loc 1 1824 18 is_stmt 0 view .LVU1662
	cmpb	$0, empty_line(%rip)
	je	.L568
.L693:
	.loc 1 1825 17 is_stmt 1 view .LVU1663
	.loc 1 1825 34 is_stmt 0 view .LVU1664
	movb	$1, align_empty_cols(%rip)
	jmp	.L565
	.p2align 4,,10
	.p2align 3
.L711:
	.loc 1 1835 7 is_stmt 1 view .LVU1665
	.loc 1 1835 10 is_stmt 0 view .LVU1666
	cmpb	$0, pad_vertically(%rip)
	je	.L559
.L597:
	.loc 1 1837 11 is_stmt 1 view .LVU1667
.LVL507:
.LBB416:
.LBI416:
	.loc 2 108 1 view .LVU1668
.LBB417:
	.loc 2 110 3 view .LVU1669
	.loc 2 110 10 is_stmt 0 view .LVU1670
	movq	stdout(%rip), %rdi
	movq	40(%rdi), %rax
	cmpq	48(%rdi), %rax
	jnb	.L712
	leaq	1(%rax), %rdx
	movq	%rdx, 40(%rdi)
	movb	$10, (%rax)
.L572:
.LVL508:
	.loc 2 110 10 view .LVU1671
.LBE417:
.LBE416:
	.loc 1 1838 11 is_stmt 1 view .LVU1672
	subl	$1, %r12d
.LVL509:
.L559:
	.loc 1 1841 7 view .LVU1673
	.loc 1 1841 11 is_stmt 0 view .LVU1674
	call	cols_ready_to_print
.LVL510:
	.loc 1 1841 10 view .LVU1675
	testl	%eax, %eax
	je	.L598
.L573:
	.loc 1 1844 7 is_stmt 1 view .LVU1676
	.loc 1 1844 10 is_stmt 0 view .LVU1677
	cmpb	$0, double_space(%rip)
	je	.L575
	.loc 1 1844 24 view .LVU1678
	testb	%r13b, %r13b
	je	.L575
	.loc 1 1846 11 is_stmt 1 view .LVU1679
.LVL511:
.LBB419:
.LBI419:
	.loc 2 108 1 view .LVU1680
.LBB420:
	.loc 2 110 3 view .LVU1681
	.loc 2 110 10 is_stmt 0 view .LVU1682
	movq	stdout(%rip), %rdi
	movq	40(%rdi), %rax
	cmpq	48(%rdi), %rax
	jnb	.L713
	leaq	1(%rax), %rdx
	movq	%rdx, 40(%rdi)
	movb	$10, (%rax)
.L577:
.LVL512:
	.loc 2 110 10 view .LVU1683
.LBE420:
.LBE419:
	.loc 1 1847 11 is_stmt 1 view .LVU1684
	subl	$1, %r12d
.LVL513:
.L575:
	.loc 1 1784 9 view .LVU1685
	testl	%r12d, %r12d
	jg	.L578
.LVL514:
.L574:
	.loc 1 1851 3 view .LVU1686
	.loc 1 1851 6 is_stmt 0 view .LVU1687
	testl	%r12d, %r12d
	jne	.L581
	.loc 1 1852 5 is_stmt 1 view .LVU1688
.LVL515:
	.loc 1 1852 38 is_stmt 0 view .LVU1689
	movl	columns(%rip), %r10d
	.loc 1 1852 19 view .LVU1690
	movq	column_vector(%rip), %rax
.LVL516:
	.loc 1 1852 36 is_stmt 1 view .LVU1691
	.loc 1 1852 5 is_stmt 0 view .LVU1692
	testl	%r10d, %r10d
	jle	.L581
.LVL517:
.L596:
	.loc 1 1852 5 view .LVU1693
	leal	-1(%r10), %edx
	addq	$1, %rdx
	salq	$6, %rdx
	addq	%rax, %rdx
.LVL518:
	.p2align 4,,10
	.p2align 3
.L583:
	.loc 1 1853 7 is_stmt 1 view .LVU1694
	.loc 1 1853 10 is_stmt 0 view .LVU1695
	movl	16(%rax), %ecx
	testl	%ecx, %ecx
	jne	.L582
	.loc 1 1854 9 is_stmt 1 view .LVU1696
	.loc 1 1854 30 is_stmt 0 view .LVU1697
	movb	$1, 57(%rax)
.L582:
	.loc 1 1852 50 is_stmt 1 view .LVU1698
	.loc 1 1852 55 is_stmt 0 view .LVU1699
	addq	$64, %rax
.LVL519:
	.loc 1 1852 36 is_stmt 1 view .LVU1700
	.loc 1 1852 5 is_stmt 0 view .LVU1701
	cmpq	%rdx, %rax
	jne	.L583
	xorl	%r12d, %r12d
.LVL520:
.L581:
	.loc 1 1856 3 is_stmt 1 view .LVU1702
	.loc 1 1856 18 is_stmt 0 view .LVU1703
	movb	%r13b, pad_vertically(%rip)
	.loc 1 1858 3 is_stmt 1 view .LVU1704
	.loc 1 1858 6 is_stmt 0 view .LVU1705
	testb	%r13b, %r13b
	je	.L584
	.loc 1 1858 22 view .LVU1706
	cmpb	$0, extremities(%rip)
	jne	.L714
.L584:
	.loc 1 1860 8 is_stmt 1 view .LVU1707
	.loc 1 1860 11 is_stmt 0 view .LVU1708
	cmpb	$0, keep_FF(%rip)
	je	.L587
	.loc 1 1860 20 view .LVU1709
	cmpb	$0, print_a_FF(%rip)
	je	.L587
	.loc 1 1862 7 is_stmt 1 view .LVU1710
.LVL521:
.LBB422:
.LBI422:
	.loc 2 108 1 view .LVU1711
.LBB423:
	.loc 2 110 3 view .LVU1712
	.loc 2 110 10 is_stmt 0 view .LVU1713
	movq	stdout(%rip), %rdi
	movq	40(%rdi), %rax
	cmpq	48(%rdi), %rax
	jnb	.L715
	leaq	1(%rax), %rdx
	movq	%rdx, 40(%rdi)
	movb	$12, (%rax)
.L593:
.LVL522:
	.loc 2 110 10 view .LVU1714
.LBE423:
.LBE422:
	.loc 1 1863 7 is_stmt 1 view .LVU1715
	.loc 1 1863 18 is_stmt 0 view .LVU1716
	movb	$0, print_a_FF(%rip)
.L587:
	.loc 1 1866 3 is_stmt 1 view .LVU1717
	.loc 1 1866 26 is_stmt 0 view .LVU1718
	movq	page_number(%rip), %rax
	addq	$1, %rax
	.loc 1 1866 6 view .LVU1719
	cmpq	last_page_number(%rip), %rax
	movq	%rax, page_number(%rip)
	ja	.L440
	.loc 1 1869 3 is_stmt 1 view .LVU1720
	call	reset_status
.LVL523:
	.loc 1 1871 3 view .LVU1721
	movq	column_vector(%rip), %r9
	movzbl	storing_columns(%rip), %edi
	movl	columns(%rip), %r10d
	movq	%r9, %rbx
.LBE448:
.LBE455:
	.loc 1 1617 5 view .LVU1722
	.loc 1 1616 9 view .LVU1723
.LBB456:
	.loc 1 1753 1 view .LVU1724
.LBB449:
	.loc 1 1755 3 view .LVU1725
	.loc 1 1756 3 view .LVU1726
	.loc 1 1757 3 view .LVU1727
	.loc 1 1766 3 view .LVU1728
	.loc 1 1768 3 view .LVU1729
.LBB425:
	.loc 1 1680 1 view .LVU1730
.LBB410:
	.loc 1 1682 3 view .LVU1731
	.loc 1 1683 3 view .LVU1732
	.loc 1 1685 3 view .LVU1733
	.loc 1 1685 6 is_stmt 0 view .LVU1734
	testb	%dil, %dil
	je	.L534
.L706:
	.loc 1 1687 7 is_stmt 1 view .LVU1735
.LBB397:
.LBI397:
	.loc 1 1925 1 view .LVU1736
.LBB398:
	.loc 1 1927 3 view .LVU1737
	.loc 1 1928 3 view .LVU1738
.LVL524:
	.loc 1 1929 3 view .LVU1739
	.loc 1 1930 3 view .LVU1740
	.loc 1 1931 3 view .LVU1741
	.loc 1 1933 3 view .LVU1742
	.loc 1 1936 7 is_stmt 0 view .LVU1743
	movzbl	balance_columns(%rip), %r8d
	.loc 1 1939 14 view .LVU1744
	movl	%r10d, %eax
	.loc 1 1933 16 view .LVU1745
	movl	%ebp, buff_current(%rip)
	.loc 1 1934 3 is_stmt 1 view .LVU1746
.LVL525:
	.loc 1 1936 3 view .LVU1747
	.loc 1 1939 14 is_stmt 0 view .LVU1748
	cmpb	$1, %r8b
	sbbl	$0, %eax
	movl	%eax, 8(%rsp)
.LVL526:
	.loc 1 1941 3 is_stmt 1 view .LVU1749
	.loc 1 1941 34 view .LVU1750
	.loc 1 1941 3 is_stmt 0 view .LVU1751
	testl	%eax, %eax
	jle	.L611
	leal	-1(%rax), %edx
	.loc 1 1941 17 view .LVU1752
	movq	%r9, %rax
.LVL527:
	.loc 1 1941 17 view .LVU1753
	addq	$1, %rdx
	salq	$6, %rdx
	addq	%r9, %rdx
.LVL528:
	.p2align 4,,10
	.p2align 3
.L537:
	.loc 1 1942 5 is_stmt 1 view .LVU1754
	.loc 1 1942 21 is_stmt 0 view .LVU1755
	movl	$0, 44(%rax)
	.loc 1 1941 49 is_stmt 1 view .LVU1756
	.loc 1 1941 54 is_stmt 0 view .LVU1757
	addq	$64, %rax
.LVL529:
	.loc 1 1941 34 is_stmt 1 view .LVU1758
	.loc 1 1941 3 is_stmt 0 view .LVU1759
	cmpq	%rdx, %rax
	jne	.L537
	xorl	%r13d, %r13d
	movl	$1, %r14d
	xorl	%r15d, %r15d
.LVL530:
	.p2align 4,,10
	.p2align 3
.L538:
	.loc 1 1944 48 view .LVU1760
	movl	files_ready_to_read(%rip), %r12d
	testl	%r12d, %r12d
	je	.L716
	.loc 1 1947 7 is_stmt 1 view .LVU1761
	.loc 1 1948 14 is_stmt 0 view .LVU1762
	movl	lines_per_body(%rip), %r12d
	.loc 1 1947 23 view .LVU1763
	movl	%r15d, 40(%rbx)
	.loc 1 1948 7 is_stmt 1 view .LVU1764
.LVL531:
	.loc 1 1948 32 view .LVU1765
	.loc 1 1948 7 is_stmt 0 view .LVU1766
	testl	%r12d, %r12d
	jne	.L543
	jmp	.L539
	.p2align 4,,10
	.p2align 3
.L540:
	.loc 1 1948 58 is_stmt 1 view .LVU1767
.LVL532:
	.loc 1 1948 32 view .LVU1768
	.loc 1 1948 7 is_stmt 0 view .LVU1769
	subl	$1, %r12d
.LVL533:
	.loc 1 1948 7 view .LVU1770
	je	.L539
.L718:
	.loc 1 1948 34 view .LVU1771
	movl	files_ready_to_read(%rip), %eax
	testl	%eax, %eax
	je	.L539
.L543:
	.loc 1 1950 9 is_stmt 1 view .LVU1772
	.loc 1 1950 12 is_stmt 0 view .LVU1773
	movl	16(%rbx), %ecx
	testl	%ecx, %ecx
	jne	.L540
	.loc 1 1952 13 is_stmt 1 view .LVU1774
	.loc 1 1954 18 is_stmt 0 view .LVU1775
	movq	%rbx, %rdi
	.loc 1 1952 28 view .LVU1776
	movl	%ebp, input_position(%rip)
	.loc 1 1954 13 is_stmt 1 view .LVU1777
	.loc 1 1954 18 is_stmt 0 view .LVU1778
	call	read_line
.LVL534:
	.loc 1 1954 16 view .LVU1779
	testb	%al, %al
	je	.L717
.L541:
	.loc 1 1957 13 is_stmt 1 view .LVU1780
	.loc 1 1957 16 is_stmt 0 view .LVU1781
	movl	16(%rbx), %edx
	movl	buff_current(%rip), %eax
	testl	%edx, %edx
	je	.L542
	.loc 1 1958 17 view .LVU1782
	cmpl	%eax, %r13d
	je	.L540
.L542:
	.loc 1 1960 17 is_stmt 1 view .LVU1783
	.loc 1 1961 35 is_stmt 0 view .LVU1784
	movq	line_vector(%rip), %rsi
	.loc 1 1961 28 view .LVU1785
	movl	%r15d, %ecx
	.loc 1 1960 17 view .LVU1786
	addl	$1, 44(%rbx)
	.loc 1 1961 17 is_stmt 1 view .LVU1787
	.loc 1 1962 32 is_stmt 0 view .LVU1788
	addl	$1, %r15d
.LVL535:
	.loc 1 1962 36 view .LVU1789
	movl	input_position(%rip), %edi
	.loc 1 1961 35 view .LVU1790
	movl	%r13d, (%rsi,%rcx,4)
	.loc 1 1962 17 is_stmt 1 view .LVU1791
.LVL536:
	.loc 1 1962 36 is_stmt 0 view .LVU1792
	movq	end_vector(%rip), %rsi
	movl	%eax, %r13d
.LVL537:
	.loc 1 1962 36 view .LVU1793
	movl	%edi, (%rsi,%rcx,4)
.LVL538:
	.loc 1 1963 17 is_stmt 1 view .LVU1794
	.loc 1 1948 58 view .LVU1795
	.loc 1 1948 32 view .LVU1796
	.loc 1 1948 7 is_stmt 0 view .LVU1797
	subl	$1, %r12d
.LVL539:
	.loc 1 1948 7 view .LVU1798
	jne	.L718
	.p2align 4,,10
	.p2align 3
.L539:
	.loc 1 1945 8 is_stmt 1 view .LVU1799
	addl	$1, %r14d
.LVL540:
	.loc 1 1945 13 is_stmt 0 view .LVU1800
	addq	$64, %rbx
.LVL541:
	.loc 1 1944 34 is_stmt 1 view .LVU1801
	.loc 1 1944 3 is_stmt 0 view .LVU1802
	cmpl	%r14d, 8(%rsp)
	jge	.L538
	.loc 1 1944 3 view .LVU1803
	movq	column_vector(%rip), %rbx
.LVL542:
	.loc 1 1944 3 view .LVU1804
	movl	%r15d, %eax
	movzbl	balance_columns(%rip), %r8d
	movl	columns(%rip), %r10d
	salq	$2, %rax
	movq	%rbx, %r9
.LVL543:
.L536:
	.loc 1 1969 3 is_stmt 1 view .LVU1805
	.loc 1 1969 21 is_stmt 0 view .LVU1806
	movq	line_vector(%rip), %rcx
	movl	%r13d, (%rcx,%rax)
	.loc 1 1971 3 is_stmt 1 view .LVU1807
	leal	-1(%r10), %r13d
	.loc 1 1971 6 is_stmt 0 view .LVU1808
	testb	%r8b, %r8b
	je	.L545
	.loc 1 1972 5 is_stmt 1 view .LVU1809
.LVL544:
.LBB399:
.LBI399:
	.loc 1 1976 1 view .LVU1810
.LBB400:
	.loc 1 1978 3 view .LVU1811
	.loc 1 1979 3 view .LVU1812
	.loc 1 1980 3 view .LVU1813
	.loc 1 1982 3 view .LVU1814
	.loc 1 1982 34 view .LVU1815
	.loc 1 1982 3 is_stmt 0 view .LVU1816
	testl	%r10d, %r10d
	jle	.L546
	movl	%r15d, %eax
	leal	1(%r10), %r12d
	.loc 1 1980 7 view .LVU1817
	xorl	%edi, %edi
	.loc 1 1982 17 view .LVU1818
	movq	%r9, %rsi
	cltd
	.loc 1 1982 10 view .LVU1819
	movl	$1, %ecx
	idivl	%r10d
	.loc 1 1986 9 view .LVU1820
	leal	1(%rax), %r14d
.LVL545:
	.p2align 4,,10
	.p2align 3
.L548:
	.loc 1 1984 7 is_stmt 1 view .LVU1821
	.loc 1 1985 7 view .LVU1822
	.loc 1 1984 13 is_stmt 0 view .LVU1823
	cmpl	%ecx, %edx
	movl	%eax, %r11d
	.loc 1 1989 23 view .LVU1824
	movl	%edi, 40(%rsi)
	.loc 1 1984 13 view .LVU1825
	cmovge	%r14d, %r11d
.LVL546:
	.loc 1 1988 7 is_stmt 1 view .LVU1826
	.loc 1 1982 48 is_stmt 0 view .LVU1827
	addl	$1, %ecx
.LVL547:
	.loc 1 1982 53 view .LVU1828
	addq	$64, %rsi
.LVL548:
	.loc 1 1988 23 view .LVU1829
	movl	%r11d, -20(%rsi)
	.loc 1 1989 7 is_stmt 1 view .LVU1830
	.loc 1 1991 7 view .LVU1831
	.loc 1 1991 18 is_stmt 0 view .LVU1832
	addl	%r11d, %edi
.LVL549:
	.loc 1 1982 48 is_stmt 1 view .LVU1833
	.loc 1 1982 34 view .LVU1834
	.loc 1 1982 3 is_stmt 0 view .LVU1835
	cmpl	%r12d, %ecx
	jne	.L548
.LVL550:
.L546:
	.loc 1 1982 3 view .LVU1836
.LBE400:
.LBE399:
.LBE398:
.LBE397:
	.loc 1 1688 7 is_stmt 1 view .LVU1837
	.loc 1 1688 48 view .LVU1838
	.loc 1 1688 7 is_stmt 0 view .LVU1839
	testl	%r13d, %r13d
	je	.L600
.LVL551:
.L599:
	.loc 1 1688 7 view .LVU1840
	leal	-2(%r10), %edx
.LBB406:
.LBB403:
.LBB402:
.LBB401:
	.loc 1 1984 13 view .LVU1841
	movq	%r9, %rax
	movq	%rdx, %rbx
	addq	$1, %rdx
	salq	$6, %rdx
	addq	%r9, %rdx
	.p2align 4,,10
	.p2align 3
.L549:
.LVL552:
	.loc 1 1984 13 view .LVU1842
.LBE401:
.LBE402:
.LBE403:
.LBE406:
	.loc 1 1690 11 is_stmt 1 view .LVU1843
	.loc 1 1690 29 is_stmt 0 view .LVU1844
	movl	44(%rax), %ecx
	.loc 1 1688 56 view .LVU1845
	addq	$64, %rax
.LVL553:
	.loc 1 1690 29 view .LVU1846
	movl	%ecx, -16(%rax)
	.loc 1 1688 51 is_stmt 1 view .LVU1847
.LVL554:
	.loc 1 1688 48 view .LVU1848
	.loc 1 1688 7 is_stmt 0 view .LVU1849
	cmpq	%rdx, %rax
	jne	.L549
	addq	$1, %rbx
	salq	$6, %rbx
	addq	%r9, %rbx
	.loc 1 1694 7 is_stmt 1 view .LVU1850
	.loc 1 1694 10 is_stmt 0 view .LVU1851
	testb	%r8b, %r8b
	je	.L550
.LVL555:
.L600:
	.loc 1 1696 11 is_stmt 1 view .LVU1852
	.loc 1 1696 29 is_stmt 0 view .LVU1853
	movl	44(%rbx), %eax
	movl	%eax, 48(%rbx)
	jmp	.L551
.LVL556:
	.p2align 4,,10
	.p2align 3
.L709:
	.loc 1 1696 29 view .LVU1854
.LBE410:
.LBE425:
	.loc 1 1807 19 is_stmt 1 view .LVU1855
	.loc 1 1807 23 is_stmt 0 view .LVU1856
	call	cols_ready_to_print
.LVL557:
	.loc 1 1807 22 view .LVU1857
	testl	%eax, %eax
	jne	.L563
	.loc 1 1835 7 is_stmt 1 view .LVU1858
	.loc 1 1835 10 is_stmt 0 view .LVU1859
	testb	%r9b, %r9b
	jne	.L597
.LVL558:
.L598:
	.loc 1 1841 39 view .LVU1860
	cmpb	$0, extremities(%rip)
	jne	.L573
	.loc 1 1841 39 view .LVU1861
	jmp	.L574
.LVL559:
	.p2align 4,,10
	.p2align 3
.L708:
	.loc 1 1801 17 is_stmt 1 view .LVU1862
	movq	%rbx, %rdi
	call	read_rest_of_line
.LVL560:
	jmp	.L562
	.p2align 4,,10
	.p2align 3
.L710:
	.loc 1 1817 53 is_stmt 0 view .LVU1863
	cmpb	$0, FF_only(%rip)
	je	.L565
	.p2align 4,,10
	.p2align 3
.L568:
	.loc 1 1827 17 is_stmt 1 view .LVU1864
	movq	%rbx, %rdi
	call	align_column
.LVL561:
	jmp	.L565
.LVL562:
	.p2align 4,,10
	.p2align 3
.L712:
.LBB426:
.LBB418:
	.loc 2 110 10 is_stmt 0 view .LVU1865
	movl	$10, %esi
	call	__overflow@PLT
.LVL563:
	jmp	.L572
.LVL564:
	.p2align 4,,10
	.p2align 3
.L717:
	.loc 2 110 10 view .LVU1866
.LBE418:
.LBE426:
.LBB427:
.LBB411:
.LBB407:
.LBB404:
	.loc 1 1955 15 is_stmt 1 view .LVU1867
	movq	%rbx, %rdi
	call	read_rest_of_line
.LVL565:
	jmp	.L541
.LVL566:
	.p2align 4,,10
	.p2align 3
.L713:
	.loc 1 1955 15 is_stmt 0 view .LVU1868
.LBE404:
.LBE407:
.LBE411:
.LBE427:
.LBB428:
.LBB421:
	.loc 2 110 10 view .LVU1869
	movl	$10, %esi
	call	__overflow@PLT
.LVL567:
	jmp	.L577
.LVL568:
	.p2align 4,,10
	.p2align 3
.L545:
	.loc 2 110 10 view .LVU1870
.LBE421:
.LBE428:
.LBB429:
.LBB412:
	.loc 1 1688 7 is_stmt 1 view .LVU1871
	.loc 1 1688 48 view .LVU1872
	.loc 1 1688 7 is_stmt 0 view .LVU1873
	testl	%r13d, %r13d
	jne	.L599
.LVL569:
	.p2align 4,,10
	.p2align 3
.L550:
	.loc 1 1702 11 is_stmt 1 view .LVU1874
	.loc 1 1702 14 is_stmt 0 view .LVU1875
	movl	16(%rbx), %r11d
	testl	%r11d, %r11d
	jne	.L552
	.loc 1 1704 15 is_stmt 1 view .LVU1876
	.loc 1 1704 33 is_stmt 0 view .LVU1877
	movl	lines_per_body(%rip), %eax
	movl	%eax, 48(%rbx)
	jmp	.L551
.LVL570:
	.p2align 4,,10
	.p2align 3
.L716:
	.loc 1 1704 33 view .LVU1878
	movq	column_vector(%rip), %rbx
.LVL571:
	.loc 1 1704 33 view .LVU1879
	movl	%r15d, %eax
	movzbl	balance_columns(%rip), %r8d
	movl	columns(%rip), %r10d
	salq	$2, %rax
	movq	%rbx, %r9
	jmp	.L536
.LVL572:
	.p2align 4,,10
	.p2align 3
.L714:
	.loc 1 1704 33 view .LVU1880
.LBE412:
.LBE429:
	.loc 1 1859 5 is_stmt 1 view .LVU1881
.LBB430:
.LBI430:
	.loc 1 2076 1 view .LVU1882
.LBB431:
	.loc 1 2078 3 view .LVU1883
	.loc 1 2078 6 is_stmt 0 view .LVU1884
	cmpb	$0, use_form_feed(%rip)
	jne	.L585
.LVL573:
.LBB432:
	.loc 1 2081 34 is_stmt 1 view .LVU1885
	.loc 1 2081 5 is_stmt 0 view .LVU1886
	addl	$5, %r12d
.LVL574:
	.loc 1 2081 5 view .LVU1887
	jne	.L586
	jmp	.L587
.LVL575:
	.p2align 4,,10
	.p2align 3
.L589:
.LBB433:
.LBB434:
	.loc 2 110 10 view .LVU1888
	leaq	1(%rax), %rdx
	movq	%rdx, 40(%rdi)
	movb	$10, (%rax)
.L590:
.LVL576:
	.loc 2 110 10 view .LVU1889
.LBE434:
.LBE433:
	.loc 1 2081 37 is_stmt 1 view .LVU1890
	.loc 1 2081 34 view .LVU1891
	.loc 1 2081 5 is_stmt 0 view .LVU1892
	subl	$1, %r12d
.LVL577:
	.loc 1 2081 5 view .LVU1893
	je	.L587
.LVL578:
.L586:
	.loc 1 2082 7 is_stmt 1 view .LVU1894
.LBB436:
.LBI433:
	.loc 2 108 1 view .LVU1895
.LBB435:
	.loc 2 110 3 view .LVU1896
	.loc 2 110 10 is_stmt 0 view .LVU1897
	movq	stdout(%rip), %rdi
	movq	40(%rdi), %rax
	cmpq	48(%rdi), %rax
	jb	.L589
	movl	$10, %esi
	call	__overflow@PLT
.LVL579:
	jmp	.L590
.LVL580:
	.p2align 4,,10
	.p2align 3
.L552:
	.loc 2 110 10 view .LVU1898
.LBE435:
.LBE436:
.LBE432:
.LBE431:
.LBE430:
.LBB443:
.LBB413:
	.loc 1 1707 13 is_stmt 1 view .LVU1899
	.loc 1 1707 31 is_stmt 0 view .LVU1900
	movl	$0, 48(%rbx)
	jmp	.L551
.LVL581:
	.p2align 4,,10
	.p2align 3
.L449:
	.loc 1 1707 31 view .LVU1901
.LBE413:
.LBE443:
.LBE449:
.LBE456:
.LBE463:
.LBE469:
.LBB470:
.LBB362:
	.loc 1 1243 5 is_stmt 1 view .LVU1902
	.loc 1 1243 21 is_stmt 0 view .LVU1903
	movb	$0, storing_columns(%rip)
	movl	col_sep_length(%rip), %eax
	jmp	.L453
.LVL582:
	.p2align 4,,10
	.p2align 3
.L696:
	.loc 1 1286 7 is_stmt 1 view .LVU1904
	movq	number_buff(%rip), %rdi
	call	free@PLT
.LVL583:
	.loc 1 1287 7 view .LVU1905
	.loc 1 1287 30 is_stmt 0 view .LVU1906
	movslq	chars_per_number(%rip), %rdi
	movq	%rdi, %rax
	.loc 1 1287 21 view .LVU1907
	addq	$1, %rdi
	cmpl	$11, %eax
	movl	$12, %eax
	cmovbe	%rax, %rdi
	call	xmalloc@PLT
.LVL584:
	.loc 1 1287 19 view .LVU1908
	movq	%rax, number_buff(%rip)
	jmp	.L466
.LVL585:
	.p2align 4,,10
	.p2align 3
.L585:
	.loc 1 1287 19 view .LVU1909
.LBE362:
.LBE470:
.LBB471:
.LBB464:
.LBB457:
.LBB450:
.LBB444:
.LBB441:
	.loc 1 2079 5 is_stmt 1 view .LVU1910
.LBB437:
.LBI437:
	.loc 2 108 1 view .LVU1911
.LBB438:
	.loc 2 110 3 view .LVU1912
	.loc 2 110 10 is_stmt 0 view .LVU1913
	movq	stdout(%rip), %rdi
	movq	40(%rdi), %rax
	cmpq	48(%rdi), %rax
	jnb	.L719
	leaq	1(%rax), %rdx
	movq	%rdx, 40(%rdi)
	movb	$12, (%rax)
	jmp	.L587
.LVL586:
	.p2align 4,,10
	.p2align 3
.L699:
	.loc 2 110 10 view .LVU1914
.LBE438:
.LBE437:
.LBE441:
.LBE444:
.LBE450:
.LBE457:
.LBE464:
.LBE471:
.LBB472:
.LBB473:
.LBB474:
	.loc 1 2309 18 view .LVU1915
	movl	$1, %r12d
	.p2align 4,,10
	.p2align 3
.L507:
.LVL587:
.LBB475:
.LBB476:
	.loc 1 2314 23 is_stmt 1 view .LVU1916
	.loc 1 2314 7 is_stmt 0 view .LVU1917
	cmpl	$1, lines_per_body(%rip)
	movq	column_vector(%rip), %rbx
	.loc 1 2314 16 view .LVU1918
	movl	$1, %r14d
	movl	columns(%rip), %eax
	.loc 1 2314 7 view .LVU1919
	jle	.L522
.LVL588:
	.p2align 4,,10
	.p2align 3
.L512:
	.loc 1 2316 11 is_stmt 1 view .LVU1920
	.loc 1 2316 42 view .LVU1921
	.loc 1 2316 11 is_stmt 0 view .LVU1922
	testl	%eax, %eax
	jle	.L509
	.loc 1 2316 18 view .LVU1923
	movl	$1, %ebp
	jmp	.L511
.LVL589:
	.p2align 4,,10
	.p2align 3
.L510:
	.loc 1 2316 56 is_stmt 1 view .LVU1924
	addl	$1, %ebp
.LVL590:
	.loc 1 2316 61 is_stmt 0 view .LVU1925
	addq	$64, %rbx
.LVL591:
	.loc 1 2316 42 is_stmt 1 view .LVU1926
	.loc 1 2316 11 is_stmt 0 view .LVU1927
	cmpl	%eax, %ebp
	jg	.L720
.LVL592:
.L511:
	.loc 1 2317 13 is_stmt 1 view .LVU1928
	.loc 1 2317 16 is_stmt 0 view .LVU1929
	movl	16(%rbx), %r9d
	testl	%r9d, %r9d
	jne	.L510
	.loc 1 2318 15 is_stmt 1 view .LVU1930
	movl	%ebp, %esi
	movq	%rbx, %rdi
	.loc 1 2316 56 is_stmt 0 view .LVU1931
	addl	$1, %ebp
.LVL593:
	.loc 1 2316 61 view .LVU1932
	addq	$64, %rbx
.LVL594:
	.loc 1 2318 15 view .LVU1933
	call	skip_read
.LVL595:
	.loc 1 2318 15 view .LVU1934
	movl	columns(%rip), %eax
	.loc 1 2316 56 is_stmt 1 view .LVU1935
.LVL596:
	.loc 1 2316 42 view .LVU1936
	.loc 1 2316 11 is_stmt 0 view .LVU1937
	cmpl	%eax, %ebp
	jle	.L511
.L720:
	.loc 1 2316 11 view .LVU1938
	movq	column_vector(%rip), %rbx
.LVL597:
.L509:
	.loc 1 2314 43 is_stmt 1 view .LVU1939
	addl	$1, %r14d
.LVL598:
	.loc 1 2314 23 view .LVU1940
	.loc 1 2314 7 is_stmt 0 view .LVU1941
	cmpl	lines_per_body(%rip), %r14d
	jl	.L512
.LVL599:
.L522:
	.loc 1 2314 7 view .LVU1942
.LBE476:
	.loc 1 2320 7 is_stmt 1 view .LVU1943
	.loc 1 2320 17 is_stmt 0 view .LVU1944
	movb	$1, last_line(%rip)
	.loc 1 2321 7 is_stmt 1 view .LVU1945
.LVL600:
	.loc 1 2321 38 view .LVU1946
	.loc 1 2321 7 is_stmt 0 view .LVU1947
	testl	%eax, %eax
	jle	.L513
	.loc 1 2321 14 view .LVU1948
	movl	$1, %ebp
	jmp	.L515
.LVL601:
	.p2align 4,,10
	.p2align 3
.L514:
	.loc 1 2321 52 is_stmt 1 view .LVU1949
	addl	$1, %ebp
.LVL602:
	.loc 1 2321 57 is_stmt 0 view .LVU1950
	addq	$64, %rbx
.LVL603:
	.loc 1 2321 38 is_stmt 1 view .LVU1951
	.loc 1 2321 7 is_stmt 0 view .LVU1952
	cmpl	%eax, %ebp
	jg	.L721
.LVL604:
.L515:
	.loc 1 2322 9 is_stmt 1 view .LVU1953
	.loc 1 2322 12 is_stmt 0 view .LVU1954
	movl	16(%rbx), %r8d
	testl	%r8d, %r8d
	jne	.L514
	.loc 1 2323 11 is_stmt 1 view .LVU1955
	movl	%ebp, %esi
	movq	%rbx, %rdi
	.loc 1 2321 52 is_stmt 0 view .LVU1956
	addl	$1, %ebp
.LVL605:
	.loc 1 2321 57 view .LVU1957
	addq	$64, %rbx
.LVL606:
	.loc 1 2323 11 view .LVU1958
	call	skip_read
.LVL607:
	.loc 1 2323 11 view .LVU1959
	movl	columns(%rip), %eax
	.loc 1 2321 52 is_stmt 1 view .LVU1960
.LVL608:
	.loc 1 2321 38 view .LVU1961
	.loc 1 2321 7 is_stmt 0 view .LVU1962
	cmpl	%eax, %ebp
	jle	.L515
.L721:
	.loc 1 2325 7 is_stmt 1 view .LVU1963
	.loc 1 2325 10 is_stmt 0 view .LVU1964
	cmpb	$0, storing_columns(%rip)
	je	.L513
	.loc 1 2326 9 is_stmt 1 view .LVU1965
.LVL609:
	.loc 1 2326 23 is_stmt 0 view .LVU1966
	movq	column_vector(%rip), %rdx
.LVL610:
	.loc 1 2326 40 is_stmt 1 view .LVU1967
	.loc 1 2326 9 is_stmt 0 view .LVU1968
	testl	%eax, %eax
	jle	.L513
	subl	$1, %eax
	addq	$1, %rax
	salq	$6, %rax
	addq	%rdx, %rax
.LVL611:
	.p2align 4,,10
	.p2align 3
.L519:
	.loc 1 2327 11 is_stmt 1 view .LVU1969
	.loc 1 2327 14 is_stmt 0 view .LVU1970
	cmpl	$3, 16(%rdx)
	je	.L518
	.loc 1 2328 13 is_stmt 1 view .LVU1971
	.loc 1 2328 23 is_stmt 0 view .LVU1972
	movl	$2, 16(%rdx)
.L518:
	.loc 1 2326 54 is_stmt 1 view .LVU1973
	.loc 1 2326 59 is_stmt 0 view .LVU1974
	addq	$64, %rdx
.LVL612:
	.loc 1 2326 40 is_stmt 1 view .LVU1975
	.loc 1 2326 9 is_stmt 0 view .LVU1976
	cmpq	%rax, %rdx
	jne	.L519
.LVL613:
.L513:
	.loc 1 2330 7 is_stmt 1 view .LVU1977
	call	reset_status
.LVL614:
	.loc 1 2331 7 view .LVU1978
	.loc 1 2333 10 is_stmt 0 view .LVU1979
	movl	files_ready_to_read(%rip), %edi
	.loc 1 2331 17 view .LVU1980
	movb	$0, last_line(%rip)
	.loc 1 2333 7 is_stmt 1 view .LVU1981
	.loc 1 2333 10 is_stmt 0 view .LVU1982
	testl	%edi, %edi
	jle	.L722
.LBE475:
	.loc 1 2309 35 is_stmt 1 view .LVU1983
	addq	$1, %r12
.LVL615:
	.loc 1 2309 25 view .LVU1984
	.loc 1 2309 3 is_stmt 0 view .LVU1985
	cmpq	%r12, %r13
	jne	.L507
.LVL616:
.L521:
	.loc 1 2309 3 view .LVU1986
.LBE474:
.LBE473:
.LBE472:
	.loc 1 1608 9 is_stmt 1 view .LVU1987
	.loc 1 1608 21 is_stmt 0 view .LVU1988
	movq	first_page_number(%rip), %rax
	movq	%rax, page_number(%rip)
	jmp	.L523
	.p2align 4,,10
	.p2align 3
.L698:
	.loc 1 1601 5 is_stmt 1 view .LVU1989
.LBB480:
.LBI480:
	.loc 1 1889 1 view .LVU1990
.LBB481:
	.loc 1 1891 3 view .LVU1991
	.loc 1 1892 3 view .LVU1992
	.loc 1 1892 7 is_stmt 0 view .LVU1993
	movl	lines_per_body(%rip), %ebx
	imull	columns(%rip), %ebx
	jo	.L489
	.loc 1 1893 10 view .LVU1994
	movl	%ebx, %r12d
	addl	$1, %r12d
	jo	.L489
	.loc 1 1894 10 view .LVU1995
	movl	chars_per_column(%rip), %ebp
	addl	$1, %ebp
	jo	.L489
	.loc 1 1895 10 view .LVU1996
	imull	%ebx, %ebp
	jo	.L489
	.loc 1 1899 3 is_stmt 1 view .LVU1997
	movq	line_vector(%rip), %rdi
	call	free@PLT
.LVL617:
	.loc 1 1901 3 view .LVU1998
	.loc 1 1901 17 is_stmt 0 view .LVU1999
	movslq	%r12d, %rdi
.LVL618:
.LBB482:
.LBI482:
	.loc 7 99 1 is_stmt 1 view .LVU2000
.LBB483:
	.loc 7 101 3 view .LVU2001
	.loc 7 101 7 is_stmt 0 view .LVU2002
	movq	%rdi, %rax
	shrq	$62, %rax
	setne	%al
	salq	$2, %rdi
.LVL619:
	.loc 7 101 7 view .LVU2003
	movzbl	%al, %eax
	js	.L500
	.loc 7 101 6 view .LVU2004
	testq	%rax, %rax
	jne	.L500
	.loc 7 103 3 is_stmt 1 view .LVU2005
	.loc 7 103 10 is_stmt 0 view .LVU2006
	call	xmalloc@PLT
.LVL620:
	.loc 7 103 10 view .LVU2007
.LBE483:
.LBE482:
	.loc 1 1903 3 view .LVU2008
	movq	end_vector(%rip), %rdi
	.loc 1 1901 15 view .LVU2009
	movq	%rax, line_vector(%rip)
	.loc 1 1903 3 is_stmt 1 view .LVU2010
	call	free@PLT
.LVL621:
	.loc 1 1904 3 view .LVU2011
	.loc 1 1904 16 is_stmt 0 view .LVU2012
	movslq	%ebx, %rdi
.LVL622:
.LBB484:
.LBI484:
	.loc 7 99 1 is_stmt 1 view .LVU2013
.LBB485:
	.loc 7 101 3 view .LVU2014
	.loc 7 101 7 is_stmt 0 view .LVU2015
	movq	%rdi, %rax
	shrq	$62, %rax
	setne	%al
	salq	$2, %rdi
.LVL623:
	.loc 7 101 7 view .LVU2016
	movzbl	%al, %eax
	js	.L500
	.loc 7 101 6 view .LVU2017
	testq	%rax, %rax
	jne	.L500
	.loc 7 103 3 is_stmt 1 view .LVU2018
	.loc 7 103 10 is_stmt 0 view .LVU2019
	call	xmalloc@PLT
.LVL624:
	.loc 7 103 10 view .LVU2020
.LBE485:
.LBE484:
	.loc 1 1906 3 view .LVU2021
	movq	buff(%rip), %rdi
	.loc 1 1907 10 view .LVU2022
	movslq	%ebp, %rbx
	.loc 1 1904 14 view .LVU2023
	movq	%rax, end_vector(%rip)
	.loc 1 1906 3 is_stmt 1 view .LVU2024
	call	free@PLT
.LVL625:
	.loc 1 1907 3 view .LVU2025
	.loc 1 1907 57 is_stmt 0 view .LVU2026
	movzbl	use_col_separator(%rip), %eax
	.loc 1 1907 10 view .LVU2027
	leaq	1(%rax), %rdi
.LVL626:
.LBB486:
.LBI486:
	.loc 7 99 1 is_stmt 1 view .LVU2028
.LBB487:
	.loc 7 101 3 view .LVU2029
	.loc 7 101 7 is_stmt 0 view .LVU2030
	movq	%rbx, %rax
	mulq	%rdi
	seto	%dl
	movzbl	%dl, %edx
	testq	%rax, %rax
	js	.L500
	.loc 7 101 6 view .LVU2031
	testq	%rdx, %rdx
	jne	.L500
	.loc 7 103 3 is_stmt 1 view .LVU2032
	.loc 7 103 10 is_stmt 0 view .LVU2033
	movq	%rax, %rdi
.LVL627:
	.loc 7 103 10 view .LVU2034
	call	xmalloc@PLT
.LVL628:
	.loc 7 103 10 view .LVU2035
.LBE487:
.LBE486:
	.loc 1 1907 8 view .LVU2036
	movq	%rax, buff(%rip)
	.loc 1 1908 3 is_stmt 1 view .LVU2037
	.loc 1 1909 3 view .LVU2038
	.loc 1 1909 39 is_stmt 0 view .LVU2039
	movzbl	use_col_separator(%rip), %eax
	addq	$1, %rax
	.loc 1 1909 18 view .LVU2040
	imulq	%rax, %rbx
	movq	%rbx, buff_allocated(%rip)
.LVL629:
	.loc 1 1910 1 view .LVU2041
	jmp	.L486
.LVL630:
	.p2align 4,,10
	.p2align 3
.L481:
	.loc 1 1910 1 view .LVU2042
.LBE481:
.LBE480:
.LBB489:
.LBB379:
.LBB374:
	.loc 1 1348 11 is_stmt 1 view .LVU2043
	.loc 1 1348 21 is_stmt 0 view .LVU2044
	movl	$5, %edx
	leaq	.LC11(%rip), %rsi
	xorl	%edi, %edi
	call	dcgettext@PLT
.LVL631:
	.loc 1 1352 32 view .LVU2045
	movb	$0, 57(%rbp)
	.loc 1 1354 11 view .LVU2046
	movl	$-1, %esi
	leaq	.LC1(%rip), %rdi
	.loc 1 1348 19 view .LVU2047
	movq	%rax, 8(%rbp)
	.loc 1 1349 11 is_stmt 1 view .LVU2048
	.loc 1 1349 17 is_stmt 0 view .LVU2049
	movq	stdin(%rip), %rax
	.loc 1 1351 21 view .LVU2050
	movl	$0, 16(%rbp)
	.loc 1 1349 17 view .LVU2051
	movq	%rax, 0(%rbp)
	.loc 1 1350 11 is_stmt 1 view .LVU2052
	.loc 1 1353 11 is_stmt 0 view .LVU2053
	addl	$1, total_files(%rip)
	.loc 1 1350 27 view .LVU2054
	movb	$1, have_read_stdin(%rip)
	.loc 1 1351 11 is_stmt 1 view .LVU2055
	.loc 1 1352 11 view .LVU2056
	.loc 1 1353 11 view .LVU2057
	.loc 1 1354 11 view .LVU2058
	call	init_header
.LVL632:
	.loc 1 1355 11 view .LVU2059
	.loc 1 1355 27 is_stmt 0 view .LVU2060
	movl	$0, 44(%rbp)
.L482:
	.loc 1 1358 7 is_stmt 1 view .LVU2061
	.loc 1 1361 24 is_stmt 0 view .LVU2062
	movl	columns(%rip), %esi
	.loc 1 1358 19 view .LVU2063
	movq	8(%rbp), %rdx
.LVL633:
	.loc 1 1359 7 is_stmt 1 view .LVU2064
	.loc 1 1361 29 is_stmt 0 view .LVU2065
	leaq	64(%rbp), %rax
	.loc 1 1359 13 view .LVU2066
	movq	0(%rbp), %rcx
.LVL634:
	.loc 1 1360 7 is_stmt 1 view .LVU2067
	.loc 1 1361 7 view .LVU2068
	.loc 1 1361 34 view .LVU2069
	.loc 1 1361 7 is_stmt 0 view .LVU2070
	cmpl	$1, %esi
	je	.L480
	subl	$2, %esi
.LVL635:
	.loc 1 1361 7 view .LVU2071
	addq	$2, %rsi
	salq	$6, %rsi
	addq	%rsi, %rbp
.LVL636:
	.p2align 4,,10
	.p2align 3
.L484:
	.loc 1 1363 11 is_stmt 1 view .LVU2072
	.loc 1 1363 19 is_stmt 0 view .LVU2073
	movq	%rdx, 8(%rax)
	.loc 1 1364 11 is_stmt 1 view .LVU2074
	.loc 1 1361 42 is_stmt 0 view .LVU2075
	addq	$64, %rax
.LVL637:
	.loc 1 1364 17 view .LVU2076
	movq	%rcx, -64(%rax)
	.loc 1 1365 11 is_stmt 1 view .LVU2077
	.loc 1 1365 21 is_stmt 0 view .LVU2078
	movl	$0, -48(%rax)
	.loc 1 1366 11 is_stmt 1 view .LVU2079
	.loc 1 1366 32 is_stmt 0 view .LVU2080
	movb	$0, -7(%rax)
	.loc 1 1367 11 is_stmt 1 view .LVU2081
	.loc 1 1367 27 is_stmt 0 view .LVU2082
	movl	$0, -20(%rax)
	.loc 1 1361 37 is_stmt 1 view .LVU2083
.LVL638:
	.loc 1 1361 34 view .LVU2084
	.loc 1 1361 7 is_stmt 0 view .LVU2085
	cmpq	%rbp, %rax
	jne	.L484
	.loc 1 1361 7 view .LVU2086
	jmp	.L480
.LVL639:
	.p2align 4,,10
	.p2align 3
.L704:
	.loc 1 1343 11 is_stmt 1 view .LVU2087
	movq	0(%rbp), %rdi
	call	fileno@PLT
.LVL640:
	movq	(%rbx), %rdi
	movl	%eax, %esi
	call	init_header
.LVL641:
	.loc 1 1344 11 view .LVU2088
	.loc 1 1344 27 is_stmt 0 view .LVU2089
	movl	$0, 44(%rbp)
	jmp	.L482
.LVL642:
	.p2align 4,,10
	.p2align 3
.L700:
	.loc 1 1344 27 view .LVU2090
.LBE374:
.LBE379:
.LBE489:
.LBB490:
.LBB465:
.LBB458:
.LBB390:
	.loc 1 1395 26 view .LVU2091
	testb	%r11b, %r11b
	je	.L524
	.loc 1 1396 9 is_stmt 1 view .LVU2092
	.loc 1 1396 16 is_stmt 0 view .LVU2093
	addl	number_width(%rip), %r8d
.LVL643:
	.loc 1 1396 16 view .LVU2094
	jmp	.L524
	.p2align 4,,10
	.p2align 3
.L705:
	.loc 1 1448 7 is_stmt 1 view .LVU2095
	.loc 1 1448 20 is_stmt 0 view .LVU2096
	leaq	store_char(%rip), %rcx
	movq	%rcx, 32(%rax)
	.loc 1 1449 7 is_stmt 1 view .LVU2097
	.loc 1 1449 21 is_stmt 0 view .LVU2098
	leaq	print_stored(%rip), %rcx
	movq	%rcx, 24(%rax)
	jmp	.L532
.LVL644:
	.p2align 4,,10
	.p2align 3
.L611:
	.loc 1 1449 21 view .LVU2099
.LBE390:
.LBE458:
.LBB459:
.LBB451:
.LBB445:
.LBB414:
.LBB408:
.LBB405:
	.loc 1 1941 3 view .LVU2100
	xorl	%r13d, %r13d
	xorl	%eax, %eax
.LVL645:
	.loc 1 1928 16 view .LVU2101
	xorl	%r15d, %r15d
	jmp	.L536
.LVL646:
	.p2align 4,,10
	.p2align 3
.L722:
	.loc 1 1928 16 view .LVU2102
.LBE405:
.LBE408:
.LBE414:
.LBE445:
.LBE451:
.LBE459:
.LBE465:
.LBE490:
.LBB491:
.LBB479:
.LBB478:
.LBB477:
	.loc 1 2337 11 is_stmt 1 view .LVU2103
	.loc 1 2338 18 is_stmt 0 view .LVU2104
	movl	$5, %edx
	leaq	.LC15(%rip), %rsi
	xorl	%edi, %edi
	call	dcgettext@PLT
.LVL647:
	.loc 1 2337 11 view .LVU2105
	xorl	%esi, %esi
	movq	%r12, %r8
	movq	%r13, %rcx
	.loc 1 2338 18 view .LVU2106
	movq	%rax, %rdx
	.loc 1 2337 11 view .LVU2107
	xorl	%edi, %edi
	xorl	%eax, %eax
	call	error@PLT
.LVL648:
	.loc 1 2341 11 is_stmt 1 view .LVU2108
.LBE477:
.LBE478:
	.loc 1 2344 3 view .LVU2109
	.loc 1 2344 3 is_stmt 0 view .LVU2110
.LBE479:
.LBE491:
	.loc 1 1605 10 view .LVU2111
	movl	files_ready_to_read(%rip), %esi
	testl	%esi, %esi
	jle	.L440
	jmp	.L521
.LVL649:
	.p2align 4,,10
	.p2align 3
.L707:
.LBB492:
.LBB466:
.LBB460:
.LBB452:
	.loc 1 1851 3 is_stmt 1 view .LVU2112
	.loc 1 1851 6 is_stmt 0 view .LVU2113
	jne	.L584
	.loc 1 1852 5 is_stmt 1 view .LVU2114
.LVL650:
	.loc 1 1852 19 is_stmt 0 view .LVU2115
	movq	%r9, %rax
	.loc 1 1852 36 is_stmt 1 view .LVU2116
	.loc 1 1852 5 is_stmt 0 view .LVU2117
	testl	%r10d, %r10d
	jg	.L596
	jmp	.L584
.LVL651:
	.p2align 4,,10
	.p2align 3
.L715:
.LBB446:
.LBB424:
	.loc 2 110 10 view .LVU2118
	movl	$12, %esi
	call	__overflow@PLT
.LVL652:
	jmp	.L593
.LVL653:
	.p2align 4,,10
	.p2align 3
.L607:
	.loc 2 110 10 view .LVU2119
.LBE424:
.LBE446:
.LBE452:
.LBE460:
.LBB461:
.LBB391:
	.loc 1 1407 10 view .LVU2120
	movq	%r9, %rax
	.loc 1 1407 29 view .LVU2121
	movl	$1, %edx
	jmp	.L525
.LVL654:
.L719:
	.loc 1 1407 29 view .LVU2122
.LBE391:
.LBE461:
.LBB462:
.LBB453:
.LBB447:
.LBB442:
.LBB440:
.LBB439:
	.loc 2 110 10 view .LVU2123
	movl	$12, %esi
	call	__overflow@PLT
.LVL655:
	jmp	.L587
.LVL656:
.L695:
	.loc 2 110 10 view .LVU2124
.LBE439:
.LBE440:
.LBE442:
.LBE447:
.LBE453:
.LBE462:
.LBE466:
.LBE492:
.LBB493:
.LBB363:
	.loc 1 1275 15 view .LVU2125
	movl	$2147483647, %edx
	jmp	.L461
.LVL657:
.L463:
	.loc 1 1278 5 is_stmt 1 view .LVU2126
	.loc 1 1279 3 view .LVU2127
	.loc 1 1279 20 is_stmt 0 view .LVU2128
	movl	$0, chars_per_column(%rip)
	.loc 1 1281 3 is_stmt 1 view .LVU2129
.LVL658:
.L595:
.LBB358:
	.loc 1 1282 5 view .LVU2130
	movl	$5, %edx
	leaq	.LC14(%rip), %rsi
	xorl	%edi, %edi
	call	dcgettext@PLT
.LVL659:
	.loc 1 1282 5 is_stmt 0 view .LVU2131
	xorl	%esi, %esi
	movl	$1, %edi
	movq	%rax, %rdx
	xorl	%eax, %eax
	call	error@PLT
.LVL660:
.L500:
	.loc 1 1282 5 view .LVU2132
.LBE358:
.LBE363:
.LBE493:
.LBB494:
.LBB380:
.LBB375:
.LBB370:
	.loc 7 102 5 is_stmt 1 view .LVU2133
	call	xalloc_die@PLT
.LVL661:
.L489:
.LBE370:
.LBE375:
.LBE380:
.LBE494:
.LBB495:
.LBB488:
	.loc 1 1897 5 view .LVU2134
	call	integer_overflow
.LVL662:
.L703:
	.loc 1 1897 5 is_stmt 0 view .LVU2135
	movl	columns(%rip), %esi
	jmp	.L446
.LBE488:
.LBE495:
	.cfi_endproc
.LFE159:
	.size	print_files, .-print_files
	.section	.rodata.str1.1
.LC16:
	.string	"pr"
.LC17:
	.string	" invocation"
	.section	.rodata.str1.8
	.align 8
.LC18:
	.string	"Try '%s --help' for more information.\n"
	.align 8
.LC19:
	.string	"Usage: %s [OPTION]... [FILE]...\n"
	.align 8
.LC20:
	.string	"Paginate or columnate FILE(s) for printing.\n"
	.align 8
.LC21:
	.string	"\nWith no FILE, or when FILE is -, read standard input.\n"
	.align 8
.LC22:
	.string	"\nMandatory arguments to long options are mandatory for short options too.\n"
	.align 8
.LC23:
	.ascii	"  +FIRST_PAGE[:LAST_PAGE], --pages=FIRST_PAGE[:LAST_PAGE]\n "
	.ascii	"                  "
	.string	" begin [stop] printing with page FIRST_[LAST_]PAGE\n  -COLUMN, --columns=COLUMN\n                    output COLUMN columns and print columns down,\n                    unless -a is used. Balance number of lines in the\n                    columns on each page\n"
	.align 8
.LC24:
	.ascii	"  -a, --acros"
	.string	"s      print columns across rather than down, used together\n                    with -COLUMN\n  -c, --show-control-chars\n                    use hat notation (^G) and octal backslash notation\n  -d, --double-space\n                    double space the output\n"
	.align 8
.LC25:
	.ascii	"  -D, --date-format=FORMAT\n                    use FORMAT f"
	.ascii	"or the header date\n  -e[CHAR[WIDTH]], --expand-tabs[=CHAR[W"
	.ascii	"IDTH]]\n                  "
	.string	"  expand input CHARs (TABs) to tab WIDTH (8)\n  -F, -f, --form-feed\n                    use form feeds instead of newlines to separate pages\n                    (by a 3-line page header with -F or a 5-line header\n                    and trailer without -F)\n"
	.align 8
.LC26:
	.ascii	"  -h, --header=HEADER\n                    use a centered HE"
	.ascii	"ADER instead of filename in page header,\n                  "
	.ascii	"  -h \"\" prints a blank line, don't use -h\"\"\n  -i[CHA"
	.string	"R[WIDTH]], --output-tabs[=CHAR[WIDTH]]\n                    replace spaces with CHARs (TABs) to tab WIDTH (8)\n  -J, --join-lines  merge full lines, turns off -W line truncation, no column\n                    alignment, --sep-string[=STRING] sets separators\n"
	.align 8
.LC27:
	.string	"  -l, --length=PAGE_LENGTH\n                    set the page length to PAGE_LENGTH (66) lines\n                    (default number of lines of text 56, and with -F 63).\n                    implies -t if PAGE_LENGTH <= 10\n"
	.align 8
.LC28:
	.string	"  -m, --merge       print all files in parallel, one in each column,\n                    truncate lines, but join lines of full length with -J\n"
	.align 8
.LC29:
	.ascii	"  -n[SEP[DIGITS]], --number-lines[=SEP[DIGITS]]\n           "
	.ascii	"         number lines, use DIG"
	.string	"ITS (5) digits, then SEP (TAB),\n                    default counting starts with 1st line of input file\n  -N, --first-line-number=NUMBER\n                    start counting with NUMBER at 1st line of first\n                    page printed (see +FIRST_PAGE)\n"
	.align 8
.LC30:
	.string	"  -o, --indent=MARGIN\n                    offset each line with MARGIN (zero) spaces, do not\n                    affect -w or -W, MARGIN will be added to PAGE_WIDTH\n  -r, --no-file-warnings\n                    omit warning when a file cannot be opened\n"
	.align 8
.LC31:
	.ascii	"  -s[CHAR], --separator[=CHAR]\n                    separate"
	.ascii	" columns b"
	.string	"y a single character, default for CHAR\n                    is the <TAB> character without -w and 'no char' with -w.\n                    -s[CHAR] turns off line truncation of all 3 column\n                    options (-COLUMN|-a -COLUMN|-m) except -w is set\n"
	.align 8
.LC32:
	.string	"  -S[STRING], --sep-string[=STRING]\n                    separate columns by STRING,\n                    without -S: Default separator <TAB> with -J and <space>\n                    otherwise (same as -S\" \"), no effect on column options\n"
	.align 8
.LC33:
	.string	"  -t, --omit-header  omit page headers and trailers;\n                     implied if PAGE_LENGTH <= 10\n"
	.align 8
.LC34:
	.ascii	"  -T, --omit-pagination\n                    omit page heade"
	.ascii	"rs and trailers, eliminate any pagination\n                 "
	.ascii	"   by form feeds set in in"
	.string	"put files\n  -v, --show-nonprinting\n                    use octal backslash notation\n  -w, --width=PAGE_WIDTH\n                    set page width to PAGE_WIDTH (72) characters for\n                    multiple text-column output only, -s[char] turns off (72)\n"
	.align 8
.LC35:
	.string	"  -W, --page-width=PAGE_WIDTH\n                    set page width to PAGE_WIDTH (72) characters always,\n                    truncate lines, except -J option is set, no interference\n                    with -S or -s\n"
	.align 8
.LC36:
	.string	"      --help     display this help and exit\n"
	.align 8
.LC37:
	.string	"      --version  output version information and exit\n"
	.section	.rodata.str1.1
.LC38:
	.string	"["
.LC39:
	.string	"test invocation"
.LC40:
	.string	"coreutils"
.LC41:
	.string	"Multi-call invocation"
.LC42:
	.string	"sha224sum"
.LC43:
	.string	"sha2 utilities"
.LC44:
	.string	"sha256sum"
.LC45:
	.string	"sha384sum"
.LC46:
	.string	"sha512sum"
.LC47:
	.string	"\n%s online help: <%s>\n"
	.section	.rodata.str1.8
	.align 8
.LC48:
	.string	"https://www.gnu.org/software/coreutils/"
	.section	.rodata.str1.1
.LC49:
	.string	"GNU coreutils"
.LC50:
	.string	"en_"
	.section	.rodata.str1.8
	.align 8
.LC51:
	.string	"Report any translation bugs to <https://translationproject.org/team/>\n"
	.section	.rodata.str1.1
.LC52:
	.string	"Full documentation <%s%s>\n"
	.section	.rodata.str1.8
	.align 8
.LC53:
	.string	"or available locally via: info '(coreutils) %s%s'\n"
	.text
	.p2align 4
	.globl	usage
	.type	usage, @function
usage:
.LVL663:
.LFB183:
	.loc 1 2732 1 is_stmt 1 view -0
	.cfi_startproc
	.loc 1 2732 1 is_stmt 0 view .LVU2137
	endbr64
	pushq	%r14
	.cfi_def_cfa_offset 16
	.cfi_offset 14, -16
	.loc 1 2734 5 view .LVU2138
	movl	$5, %edx
	.loc 1 2732 1 view .LVU2139
	pushq	%r13
	.cfi_def_cfa_offset 24
	.cfi_offset 13, -24
	pushq	%r12
	.cfi_def_cfa_offset 32
	.cfi_offset 12, -32
	pushq	%rbp
	.cfi_def_cfa_offset 40
	.cfi_offset 6, -40
	movl	%edi, %ebp
	subq	$136, %rsp
	.cfi_def_cfa_offset 176
	movq	program_name(%rip), %r12
	.loc 1 2732 1 view .LVU2140
	movq	%fs:40, %rax
	movq	%rax, 120(%rsp)
	xorl	%eax, %eax
	.loc 1 2733 3 is_stmt 1 view .LVU2141
	.loc 1 2733 6 is_stmt 0 view .LVU2142
	testl	%edi, %edi
	je	.L724
	.loc 1 2734 5 is_stmt 1 view .LVU2143
	.loc 1 2734 5 view .LVU2144
	leaq	.LC18(%rip), %rsi
	xorl	%edi, %edi
.LVL664:
	.loc 1 2734 5 is_stmt 0 view .LVU2145
	call	dcgettext@PLT
.LVL665:
.LBB512:
.LBB513:
	.loc 6 100 10 view .LVU2146
	movq	stderr(%rip), %rdi
	movq	%r12, %rcx
	movl	$1, %esi
.LBE513:
.LBE512:
	.loc 1 2734 5 view .LVU2147
	movq	%rax, %rdx
.LVL666:
.LBB515:
.LBI512:
	.loc 6 98 1 is_stmt 1 view .LVU2148
.LBB514:
	.loc 6 100 3 view .LVU2149
	.loc 6 100 10 is_stmt 0 view .LVU2150
	xorl	%eax, %eax
.LVL667:
	.loc 6 100 10 view .LVU2151
	call	__fprintf_chk@PLT
.LVL668:
.L725:
	.loc 6 100 10 view .LVU2152
.LBE514:
.LBE515:
	.loc 1 2847 3 is_stmt 1 view .LVU2153
	movl	%ebp, %edi
	call	exit@PLT
.LVL669:
.L724:
	.loc 1 2737 7 view .LVU2154
	.loc 1 2737 15 is_stmt 0 view .LVU2155
	xorl	%edi, %edi
.LVL670:
	.loc 1 2737 15 view .LVU2156
	leaq	.LC19(%rip), %rsi
	call	dcgettext@PLT
.LVL671:
.LBB516:
.LBB517:
	.loc 6 107 10 view .LVU2157
	movq	%r12, %rdx
	movl	$1, %edi
.LBE517:
.LBE516:
	.loc 1 2737 15 view .LVU2158
	movq	%rax, %rsi
.LVL672:
.LBB519:
.LBI516:
	.loc 6 105 1 is_stmt 1 view .LVU2159
.LBB518:
	.loc 6 107 3 view .LVU2160
	.loc 6 107 10 is_stmt 0 view .LVU2161
	xorl	%eax, %eax
.LVL673:
	.loc 6 107 10 view .LVU2162
	call	__printf_chk@PLT
.LVL674:
	.loc 6 107 10 view .LVU2163
.LBE518:
.LBE519:
	.loc 1 2742 7 is_stmt 1 view .LVU2164
	movq	stdout(%rip), %r12
	xorl	%edi, %edi
	movl	$5, %edx
	leaq	.LC20(%rip), %rsi
	call	dcgettext@PLT
.LVL675:
	movq	%r12, %rsi
	movq	%rax, %rdi
	call	fputs_unlocked@PLT
.LVL676:
	.loc 1 2746 7 view .LVU2165
.LBB520:
.LBI520:
	.loc 5 581 1 view .LVU2166
.LBB521:
	.loc 5 583 3 view .LVU2167
	movq	stdout(%rip), %r12
	xorl	%edi, %edi
	movl	$5, %edx
	leaq	.LC21(%rip), %rsi
	call	dcgettext@PLT
.LVL677:
	movq	%r12, %rsi
	movq	%rax, %rdi
	call	fputs_unlocked@PLT
.LVL678:
.LBE521:
.LBE520:
	.loc 1 2747 7 view .LVU2168
.LBB522:
.LBI522:
	.loc 5 588 1 view .LVU2169
.LBB523:
	.loc 5 590 3 view .LVU2170
	movq	stdout(%rip), %r12
	xorl	%edi, %edi
	movl	$5, %edx
	leaq	.LC22(%rip), %rsi
	call	dcgettext@PLT
.LVL679:
	movq	%r12, %rsi
	movq	%rax, %rdi
	call	fputs_unlocked@PLT
.LVL680:
.LBE523:
.LBE522:
	.loc 1 2749 7 view .LVU2171
	movq	stdout(%rip), %r12
	xorl	%edi, %edi
	movl	$5, %edx
	leaq	.LC23(%rip), %rsi
	call	dcgettext@PLT
.LVL681:
	movq	%r12, %rsi
	movq	%rax, %rdi
	call	fputs_unlocked@PLT
.LVL682:
	.loc 1 2757 7 view .LVU2172
	movq	stdout(%rip), %r12
	xorl	%edi, %edi
	movl	$5, %edx
	leaq	.LC24(%rip), %rsi
	call	dcgettext@PLT
.LVL683:
	movq	%r12, %rsi
	movq	%rax, %rdi
	call	fputs_unlocked@PLT
.LVL684:
	.loc 1 2765 7 view .LVU2173
	movq	stdout(%rip), %r12
	xorl	%edi, %edi
	movl	$5, %edx
	leaq	.LC25(%rip), %rsi
	call	dcgettext@PLT
.LVL685:
	movq	%r12, %rsi
	movq	%rax, %rdi
	call	fputs_unlocked@PLT
.LVL686:
	.loc 1 2775 7 view .LVU2174
	movq	stdout(%rip), %r12
	xorl	%edi, %edi
	movl	$5, %edx
	leaq	.LC26(%rip), %rsi
	call	dcgettext@PLT
.LVL687:
	movq	%r12, %rsi
	movq	%rax, %rdi
	call	fputs_unlocked@PLT
.LVL688:
	.loc 1 2784 7 view .LVU2175
	movq	stdout(%rip), %r12
	xorl	%edi, %edi
	movl	$5, %edx
	leaq	.LC27(%rip), %rsi
	call	dcgettext@PLT
.LVL689:
	movq	%r12, %rsi
	movq	%rax, %rdi
	call	fputs_unlocked@PLT
.LVL690:
	.loc 1 2790 7 view .LVU2176
	movq	stdout(%rip), %r12
	xorl	%edi, %edi
	movl	$5, %edx
	leaq	.LC28(%rip), %rsi
	call	dcgettext@PLT
.LVL691:
	movq	%r12, %rsi
	movq	%rax, %rdi
	call	fputs_unlocked@PLT
.LVL692:
	.loc 1 2794 7 view .LVU2177
	movq	stdout(%rip), %r12
	movl	$5, %edx
	xorl	%edi, %edi
	leaq	.LC29(%rip), %rsi
	call	dcgettext@PLT
.LVL693:
	movq	%r12, %rsi
	movq	%rax, %rdi
	call	fputs_unlocked@PLT
.LVL694:
	.loc 1 2802 7 view .LVU2178
	movq	stdout(%rip), %r12
	movl	$5, %edx
	xorl	%edi, %edi
	leaq	.LC30(%rip), %rsi
	call	dcgettext@PLT
.LVL695:
	movq	%r12, %rsi
	movq	%rax, %rdi
	call	fputs_unlocked@PLT
.LVL696:
	.loc 1 2809 7 view .LVU2179
	movq	stdout(%rip), %r12
	movl	$5, %edx
	xorl	%edi, %edi
	leaq	.LC31(%rip), %rsi
	call	dcgettext@PLT
.LVL697:
	movq	%r12, %rsi
	movq	%rax, %rdi
	call	fputs_unlocked@PLT
.LVL698:
	.loc 1 2817 7 view .LVU2180
	movq	stdout(%rip), %r12
	movl	$5, %edx
	xorl	%edi, %edi
	leaq	.LC32(%rip), %rsi
	call	dcgettext@PLT
.LVL699:
	movq	%r12, %rsi
	movq	%rax, %rdi
	call	fputs_unlocked@PLT
.LVL700:
	.loc 1 2823 7 view .LVU2181
	movq	stdout(%rip), %r12
	movl	$5, %edx
	xorl	%edi, %edi
	leaq	.LC33(%rip), %rsi
	call	dcgettext@PLT
.LVL701:
	movq	%r12, %rsi
	movq	%rax, %rdi
	call	fputs_unlocked@PLT
.LVL702:
	.loc 1 2827 7 view .LVU2182
	movq	stdout(%rip), %r12
	movl	$5, %edx
	xorl	%edi, %edi
	leaq	.LC34(%rip), %rsi
	call	dcgettext@PLT
.LVL703:
	movq	%r12, %rsi
	movq	%rax, %rdi
	call	fputs_unlocked@PLT
.LVL704:
	.loc 1 2837 7 view .LVU2183
	movq	stdout(%rip), %r12
	movl	$5, %edx
	xorl	%edi, %edi
	leaq	.LC35(%rip), %rsi
	call	dcgettext@PLT
.LVL705:
	movq	%r12, %rsi
	movq	%rax, %rdi
	call	fputs_unlocked@PLT
.LVL706:
	.loc 1 2843 7 view .LVU2184
	movq	stdout(%rip), %r12
	movl	$5, %edx
	xorl	%edi, %edi
	leaq	.LC36(%rip), %rsi
	call	dcgettext@PLT
.LVL707:
	movq	%r12, %rsi
	movq	%rax, %rdi
	call	fputs_unlocked@PLT
.LVL708:
	.loc 1 2844 7 view .LVU2185
	movl	$5, %edx
	movq	stdout(%rip), %r12
	xorl	%edi, %edi
	leaq	.LC37(%rip), %rsi
	call	dcgettext@PLT
.LVL709:
	movq	%r12, %rsi
	movq	%rax, %rdi
	call	fputs_unlocked@PLT
.LVL710:
	.loc 1 2845 7 view .LVU2186
.LBB524:
.LBI524:
	.loc 5 634 1 view .LVU2187
.LBB525:
	.loc 5 636 3 view .LVU2188
	.loc 5 636 67 is_stmt 0 view .LVU2189
	leaq	.LC38(%rip), %rax
	.loc 5 647 25 view .LVU2190
	movq	%rsp, %rdx
	.loc 5 636 67 view .LVU2191
	leaq	.LC44(%rip), %rcx
	movq	%rax, (%rsp)
	leaq	.LC39(%rip), %rax
	.loc 5 649 33 view .LVU2192
	movl	$112, %edi
	movl	$114, %esi
	.loc 5 636 67 view .LVU2193
	movq	%rax, 8(%rsp)
	leaq	.LC40(%rip), %rax
	movq	%rax, 16(%rsp)
	leaq	.LC41(%rip), %rax
	movq	%rax, 24(%rsp)
	leaq	.LC42(%rip), %rax
	movq	%rcx, 48(%rsp)
	leaq	.LC45(%rip), %rcx
	movq	%rax, 32(%rsp)
	leaq	.LC43(%rip), %rax
	movq	%rcx, 64(%rsp)
	leaq	.LC46(%rip), %rcx
	movq	%rax, 40(%rsp)
	movq	%rax, 56(%rsp)
	movq	%rax, 72(%rsp)
	movq	%rcx, 80(%rsp)
	movq	%rax, 88(%rsp)
	movq	$0, 96(%rsp)
	movq	$0, 104(%rsp)
	.loc 5 646 3 is_stmt 1 view .LVU2194
.LVL711:
	.loc 5 647 3 view .LVU2195
	.loc 5 649 3 view .LVU2196
	.loc 5 649 9 view .LVU2197
	.p2align 4,,10
	.p2align 3
.L745:
	.loc 5 650 5 view .LVU2198
	.loc 5 649 18 is_stmt 0 view .LVU2199
	movq	16(%rdx), %rax
	.loc 5 650 13 view .LVU2200
	addq	$16, %rdx
.LVL712:
	.loc 5 649 9 is_stmt 1 view .LVU2201
	testq	%rax, %rax
	je	.L726
	.loc 5 649 33 is_stmt 0 view .LVU2202
	movzbl	(%rax), %ecx
	cmpl	%ecx, %edi
	jne	.L745
	movzbl	1(%rax), %ecx
	cmpl	%ecx, %esi
	jne	.L745
	.loc 5 649 28 view .LVU2203
	cmpb	$0, 2(%rax)
	jne	.L745
.L726:
	.loc 5 652 3 is_stmt 1 view .LVU2204
	.loc 5 652 15 is_stmt 0 view .LVU2205
	movq	8(%rdx), %r12
	.loc 5 655 11 view .LVU2206
	leaq	.LC47(%rip), %rsi
	movl	$5, %edx
.LVL713:
	.loc 5 655 11 view .LVU2207
	xorl	%edi, %edi
	.loc 5 652 6 view .LVU2208
	testq	%r12, %r12
	je	.L729
	.loc 5 653 5 is_stmt 1 view .LVU2209
.LVL714:
	.loc 5 655 3 view .LVU2210
	.loc 5 655 11 is_stmt 0 view .LVU2211
	call	dcgettext@PLT
.LVL715:
.LBB526:
.LBB527:
	.loc 6 107 10 view .LVU2212
	leaq	.LC48(%rip), %rcx
	leaq	.LC49(%rip), %rdx
	movl	$1, %edi
.LBE527:
.LBE526:
	.loc 5 655 11 view .LVU2213
	movq	%rax, %rsi
.LVL716:
.LBB531:
.LBI526:
	.loc 6 105 1 is_stmt 1 view .LVU2214
.LBB528:
	.loc 6 107 3 view .LVU2215
	.loc 6 107 10 is_stmt 0 view .LVU2216
	xorl	%eax, %eax
.LVL717:
	.loc 6 107 10 view .LVU2217
	leaq	.LC16(%rip), %r13
	call	__printf_chk@PLT
.LVL718:
	.loc 6 107 10 view .LVU2218
.LBE528:
.LBE531:
	.loc 5 659 3 is_stmt 1 view .LVU2219
	.loc 5 659 29 is_stmt 0 view .LVU2220
	movl	$5, %edi
	xorl	%esi, %esi
	call	setlocale@PLT
.LVL719:
	movq	%rax, %rdi
.LVL720:
	.loc 5 660 3 is_stmt 1 view .LVU2221
	.loc 5 660 6 is_stmt 0 view .LVU2222
	testq	%rax, %rax
	je	.L730
	.loc 5 660 22 view .LVU2223
	movl	$3, %edx
	leaq	.LC50(%rip), %rsi
	call	strncmp@PLT
.LVL721:
	.loc 5 660 19 view .LVU2224
	testl	%eax, %eax
	jne	.L733
.LVL722:
.L730:
	.loc 5 669 3 is_stmt 1 view .LVU2225
	.loc 5 669 11 is_stmt 0 view .LVU2226
	xorl	%edi, %edi
	movl	$5, %edx
	leaq	.LC52(%rip), %rsi
	call	dcgettext@PLT
.LVL723:
.LBB532:
.LBB533:
	.loc 6 107 10 view .LVU2227
	leaq	.LC16(%rip), %rcx
	movl	$1, %edi
	leaq	.LC48(%rip), %rdx
.LBE533:
.LBE532:
	.loc 5 669 11 view .LVU2228
	movq	%rax, %rsi
.LVL724:
.LBB538:
.LBI532:
	.loc 6 105 1 is_stmt 1 view .LVU2229
.LBB534:
	.loc 6 107 3 view .LVU2230
	.loc 6 107 10 is_stmt 0 view .LVU2231
	xorl	%eax, %eax
.LVL725:
	.loc 6 107 10 view .LVU2232
	call	__printf_chk@PLT
.LVL726:
	.loc 6 107 10 view .LVU2233
.LBE534:
.LBE538:
	.loc 5 671 3 is_stmt 1 view .LVU2234
	cmpq	%r13, %r12
	leaq	.LC1(%rip), %rcx
	leaq	.LC17(%rip), %r13
	cmovne	%rcx, %r13
.L731:
	.loc 5 671 11 is_stmt 0 view .LVU2235
	xorl	%edi, %edi
	leaq	.LC53(%rip), %rsi
	movl	$5, %edx
	call	dcgettext@PLT
.LVL727:
.LBB539:
.LBB540:
	.loc 6 107 10 view .LVU2236
	movq	%r13, %rcx
	movq	%r12, %rdx
	movl	$1, %edi
.LBE540:
.LBE539:
	.loc 5 671 11 view .LVU2237
	movq	%rax, %rsi
.LVL728:
.LBB542:
.LBI539:
	.loc 6 105 1 is_stmt 1 view .LVU2238
.LBB541:
	.loc 6 107 3 view .LVU2239
	.loc 6 107 10 is_stmt 0 view .LVU2240
	xorl	%eax, %eax
.LVL729:
	.loc 6 107 10 view .LVU2241
	call	__printf_chk@PLT
.LVL730:
	.loc 6 107 10 view .LVU2242
.LBE541:
.LBE542:
	.loc 5 673 1 view .LVU2243
	jmp	.L725
.LVL731:
.L729:
	.loc 5 655 3 is_stmt 1 view .LVU2244
	.loc 5 655 11 is_stmt 0 view .LVU2245
	call	dcgettext@PLT
.LVL732:
.LBB543:
.LBB529:
	.loc 6 107 10 view .LVU2246
	leaq	.LC48(%rip), %rcx
	movl	$1, %edi
	leaq	.LC49(%rip), %rdx
.LBE529:
.LBE543:
	.loc 5 655 11 view .LVU2247
	movq	%rax, %rsi
.LVL733:
.LBB544:
	.loc 6 105 1 is_stmt 1 view .LVU2248
.LBB530:
	.loc 6 107 3 view .LVU2249
	.loc 6 107 10 is_stmt 0 view .LVU2250
	xorl	%eax, %eax
.LVL734:
	.loc 6 107 10 view .LVU2251
	call	__printf_chk@PLT
.LVL735:
	.loc 6 107 10 view .LVU2252
.LBE530:
.LBE544:
	.loc 5 659 3 is_stmt 1 view .LVU2253
	.loc 5 659 29 is_stmt 0 view .LVU2254
	movl	$5, %edi
	xorl	%esi, %esi
	call	setlocale@PLT
.LVL736:
	movq	%rax, %rdi
.LVL737:
	.loc 5 660 3 is_stmt 1 view .LVU2255
	.loc 5 660 6 is_stmt 0 view .LVU2256
	testq	%rax, %rax
	je	.L732
	.loc 5 660 22 view .LVU2257
	movl	$3, %edx
	leaq	.LC50(%rip), %rsi
	call	strncmp@PLT
.LVL738:
	.loc 5 660 19 view .LVU2258
	testl	%eax, %eax
	jne	.L751
.L732:
	.loc 5 669 3 is_stmt 1 view .LVU2259
	.loc 5 669 11 is_stmt 0 view .LVU2260
	movl	$5, %edx
	leaq	.LC52(%rip), %rsi
	xorl	%edi, %edi
	call	dcgettext@PLT
.LVL739:
.LBB545:
.LBB535:
	.loc 6 107 10 view .LVU2261
	leaq	.LC16(%rip), %rcx
	leaq	.LC48(%rip), %rdx
	movl	$1, %edi
.LBE535:
.LBE545:
	.loc 5 669 11 view .LVU2262
	movq	%rax, %rsi
.LVL740:
.LBB546:
	.loc 6 105 1 is_stmt 1 view .LVU2263
.LBB536:
	.loc 6 107 3 view .LVU2264
	.loc 6 107 10 is_stmt 0 view .LVU2265
	xorl	%eax, %eax
.LVL741:
	.loc 6 107 10 view .LVU2266
.LBE536:
.LBE546:
	.loc 5 646 15 view .LVU2267
	leaq	.LC16(%rip), %r12
.LBB547:
.LBB537:
	.loc 6 107 10 view .LVU2268
	call	__printf_chk@PLT
.LVL742:
	.loc 6 107 10 view .LVU2269
.LBE537:
.LBE547:
	.loc 5 671 3 is_stmt 1 view .LVU2270
	leaq	.LC17(%rip), %r13
	jmp	.L731
.L751:
	.loc 5 646 15 is_stmt 0 view .LVU2271
	leaq	.LC16(%rip), %r13
	movq	%r13, %r12
.LVL743:
.L733:
	.loc 5 666 7 is_stmt 1 view .LVU2272
	movq	stdout(%rip), %r14
	xorl	%edi, %edi
	movl	$5, %edx
	leaq	.LC51(%rip), %rsi
	call	dcgettext@PLT
.LVL744:
	movq	%rax, %rdi
	movq	%r14, %rsi
	call	fputs_unlocked@PLT
.LVL745:
	jmp	.L730
.LBE525:
.LBE524:
	.cfi_endproc
.LFE183:
	.size	usage, .-usage
	.section	.rodata.str1.8
	.align 8
.LC54:
	.string	"'-%c' extra characters or invalid number in the argument: %s"
	.text
	.p2align 4
	.type	getoptarg, @function
getoptarg:
.LVL746:
.LFB151:
	.loc 1 1170 1 view -0
	.cfi_startproc
	.loc 1 1170 1 is_stmt 0 view .LVU2274
	pushq	%r13
	.cfi_def_cfa_offset 16
	.cfi_offset 13, -16
	pushq	%r12
	.cfi_def_cfa_offset 24
	.cfi_offset 12, -24
	movl	%esi, %r12d
	pushq	%rbp
	.cfi_def_cfa_offset 32
	.cfi_offset 6, -32
	movq	%rdi, %rbp
	pushq	%rbx
	.cfi_def_cfa_offset 40
	.cfi_offset 3, -40
	movq	%rcx, %rbx
	subq	$24, %rsp
	.cfi_def_cfa_offset 64
	.loc 1 1171 8 view .LVU2275
	movsbl	(%rdi), %ecx
.LVL747:
	.loc 1 1170 1 view .LVU2276
	movq	%fs:40, %rax
	movq	%rax, 8(%rsp)
	xorl	%eax, %eax
	.loc 1 1171 3 is_stmt 1 view .LVU2277
	.loc 1 1171 8 is_stmt 0 view .LVU2278
	movl	%ecx, %eax
	subl	$48, %ecx
	.loc 1 1171 6 view .LVU2279
	cmpl	$9, %ecx
	jbe	.L753
	.loc 1 1172 5 is_stmt 1 view .LVU2280
.LVL748:
	.loc 1 1172 16 is_stmt 0 view .LVU2281
	movb	%al, (%rdx)
	movzbl	1(%rdi), %eax
	.loc 1 1172 22 view .LVU2282
	addq	$1, %rbp
.LVL749:
.L753:
	.loc 1 1173 3 is_stmt 1 view .LVU2283
	.loc 1 1173 6 is_stmt 0 view .LVU2284
	testb	%al, %al
	jne	.L764
.LVL750:
.L752:
	.loc 1 1186 1 view .LVU2285
	movq	8(%rsp), %rax
	xorq	%fs:40, %rax
	jne	.L765
	addq	$24, %rsp
	.cfi_remember_state
	.cfi_def_cfa_offset 40
	popq	%rbx
	.cfi_def_cfa_offset 32
.LVL751:
	.loc 1 1186 1 view .LVU2286
	popq	%rbp
	.cfi_def_cfa_offset 24
.LVL752:
	.loc 1 1186 1 view .LVU2287
	popq	%r12
	.cfi_def_cfa_offset 16
	popq	%r13
	.cfi_def_cfa_offset 8
	ret
.LVL753:
	.p2align 4,,10
	.p2align 3
.L764:
	.cfi_restore_state
.LBB548:
	.loc 1 1175 7 is_stmt 1 view .LVU2288
	.loc 1 1176 7 view .LVU2289
	.loc 1 1176 11 is_stmt 0 view .LVU2290
	xorl	%esi, %esi
.LVL754:
	.loc 1 1176 11 view .LVU2291
	movq	%rsp, %rcx
	leaq	.LC1(%rip), %r8
	movq	%rbp, %rdi
	movl	$10, %edx
.LVL755:
	.loc 1 1176 11 view .LVU2292
	call	xstrtol@PLT
.LVL756:
	.loc 1 1176 10 view .LVU2293
	testl	%eax, %eax
	jne	.L755
	.loc 1 1177 23 view .LVU2294
	movq	(%rsp), %rax
	.loc 1 1177 28 view .LVU2295
	leaq	-1(%rax), %rdx
	cmpq	$2147483646, %rdx
	ja	.L755
	.loc 1 1184 7 is_stmt 1 view .LVU2296
	.loc 1 1184 15 is_stmt 0 view .LVU2297
	movl	%eax, (%rbx)
.LBE548:
	.loc 1 1186 1 view .LVU2298
	jmp	.L752
.L755:
.LBB549:
	.loc 1 1179 11 is_stmt 1 view .LVU2299
	movq	%rbp, %rdi
	movsbl	%r12b, %r12d
	call	quote@PLT
.LVL757:
	.loc 1 1180 14 is_stmt 0 view .LVU2300
	leaq	.LC54(%rip), %rsi
	xorl	%edi, %edi
	movl	$5, %edx
	.loc 1 1179 11 view .LVU2301
	movq	%rax, %rbp
.LVL758:
	.loc 1 1180 14 view .LVU2302
	call	dcgettext@PLT
.LVL759:
	.loc 1 1179 11 view .LVU2303
	cmpq	$2147483647, (%rsp)
	movl	$75, %esi
	.loc 1 1180 14 view .LVU2304
	movq	%rax, %r13
	.loc 1 1179 11 view .LVU2305
	jg	.L757
	.loc 1 1179 55 discriminator 1 view .LVU2306
	call	__errno_location@PLT
.LVL760:
	.loc 1 1179 11 discriminator 1 view .LVU2307
	movl	(%rax), %esi
.L757:
	.loc 1 1179 11 discriminator 4 view .LVU2308
	xorl	%edi, %edi
	movq	%rbp, %r8
	movl	%r12d, %ecx
	movq	%r13, %rdx
	xorl	%eax, %eax
	call	error@PLT
.LVL761:
	.loc 1 1182 11 is_stmt 1 discriminator 4 view .LVU2309
	movl	$1, %edi
	call	usage
.LVL762:
.L765:
	.loc 1 1182 11 is_stmt 0 discriminator 4 view .LVU2310
.LBE549:
	.loc 1 1186 1 view .LVU2311
	call	__stack_chk_fail@PLT
.LVL763:
	.cfi_endproc
.LFE151:
	.size	getoptarg, .-getoptarg
	.section	.rodata.str1.1
.LC55:
	.string	"%Y-%m-%d %H:%M"
.LC56:
	.string	"%b %e %H:%M %Y"
.LC57:
	.string	"/usr/local/share/locale"
	.section	.rodata.str1.8
	.align 8
.LC58:
	.string	"'--pages=FIRST_PAGE[:LAST_PAGE]' missing argument"
	.section	.rodata.str1.1
.LC59:
	.string	"invalid page range %s"
	.section	.rodata.str1.8
	.align 8
.LC60:
	.string	"'-l PAGE_LENGTH' invalid number of lines"
	.align 8
.LC61:
	.string	"'-N NUMBER' invalid starting line number"
	.align 8
.LC62:
	.string	"'-o MARGIN' invalid line offset"
	.align 8
.LC63:
	.string	"'-w PAGE_WIDTH' invalid number of characters"
	.align 8
.LC64:
	.string	"'-W PAGE_WIDTH' invalid number of characters"
	.section	.rodata.str1.1
.LC65:
	.string	"Roland Huebner"
.LC66:
	.string	"Pete TerMaat"
.LC67:
	.string	"POSIXLY_CORRECT"
.LC68:
	.string	"TZ"
	.section	.rodata.str1.8
	.align 8
.LC69:
	.string	"cannot specify number of columns when printing in parallel"
	.align 8
.LC70:
	.string	"cannot specify both printing across and printing in parallel"
	.section	.text.startup,"ax",@progbits
	.p2align 4
	.globl	main
	.type	main, @function
main:
.LVL764:
.LFB149:
	.loc 1 859 1 is_stmt 1 view -0
	.cfi_startproc
	.loc 1 859 1 is_stmt 0 view .LVU2313
	endbr64
	pushq	%r15
	.cfi_def_cfa_offset 16
	.cfi_offset 15, -16
	pushq	%r14
	.cfi_def_cfa_offset 24
	.cfi_offset 14, -24
	movq	%rsi, %r14
	pushq	%r13
	.cfi_def_cfa_offset 32
	.cfi_offset 13, -32
	pushq	%r12
	.cfi_def_cfa_offset 40
	.cfi_offset 12, -40
	movl	%edi, %r12d
	pushq	%rbp
	.cfi_def_cfa_offset 48
	.cfi_offset 6, -48
	pushq	%rbx
	.cfi_def_cfa_offset 56
	.cfi_offset 3, -56
	subq	$72, %rsp
	.cfi_def_cfa_offset 128
	.loc 1 872 3 view .LVU2314
	movq	(%rsi), %rdi
.LVL765:
	.loc 1 859 1 view .LVU2315
	movq	%fs:40, %rax
	movq	%rax, 56(%rsp)
	xorl	%eax, %eax
	.loc 1 860 3 is_stmt 1 view .LVU2316
	.loc 1 861 3 view .LVU2317
.LVL766:
	.loc 1 862 3 view .LVU2318
	.loc 1 863 3 view .LVU2319
	.loc 1 864 3 view .LVU2320
	.loc 1 867 3 view .LVU2321
	.loc 1 868 3 view .LVU2322
	.loc 1 869 3 view .LVU2323
	.loc 1 869 10 is_stmt 0 view .LVU2324
	movq	$0, 48(%rsp)
	.loc 1 871 33 is_stmt 1 view .LVU2325
	.loc 1 872 3 view .LVU2326
	call	set_program_name@PLT
.LVL767:
	.loc 1 873 3 view .LVU2327
	leaq	.LC1(%rip), %rsi
	movl	$6, %edi
	call	setlocale@PLT
.LVL768:
	.loc 1 874 3 view .LVU2328
	leaq	.LC57(%rip), %rsi
	leaq	.LC40(%rip), %rdi
	call	bindtextdomain@PLT
.LVL769:
	.loc 1 875 3 view .LVU2329
	leaq	.LC40(%rip), %rdi
	call	textdomain@PLT
.LVL770:
	.loc 1 877 3 view .LVU2330
	movq	close_stdout@GOTPCREL(%rip), %rdi
	call	atexit@PLT
.LVL771:
	.loc 1 879 3 view .LVU2331
	.loc 1 880 3 view .LVU2332
	.loc 1 882 17 is_stmt 0 view .LVU2333
	movq	$0, 16(%rsp)
	cmpl	$1, %r12d
	jle	.L767
.LVL772:
.LBB573:
.LBI573:
	.loc 7 99 1 is_stmt 1 view .LVU2334
.LBB574:
	.loc 7 101 3 view .LVU2335
	.loc 7 103 3 view .LVU2336
.LBE574:
.LBE573:
	.loc 1 881 34 is_stmt 0 view .LVU2337
	leal	-1(%r12), %edi
	.loc 1 881 19 view .LVU2338
	movslq	%edi, %rdi
.LVL773:
.LBB576:
.LBB575:
	.loc 7 103 10 view .LVU2339
	salq	$3, %rdi
.LVL774:
	.loc 7 103 10 view .LVU2340
	call	xmalloc@PLT
.LVL775:
	movq	%rax, 16(%rsp)
.LVL776:
.L767:
	.loc 7 103 10 view .LVU2341
.LBE575:
.LBE576:
	.loc 1 863 8 view .LVU2342
	movb	$0, 31(%rsp)
	.loc 1 868 10 view .LVU2343
	xorl	%ebp, %ebp
	.loc 1 867 9 view .LVU2344
	xorl	%r13d, %r13d
	leaq	44(%rsp), %r15
	.loc 1 862 8 view .LVU2345
	movb	$0, 30(%rsp)
	leaq	.L778(%rip), %rbx
	.loc 1 861 8 view .LVU2346
	movb	$0, 29(%rsp)
	.loc 1 879 11 view .LVU2347
	movl	$0, 24(%rsp)
.LVL777:
	.p2align 4,,10
	.p2align 3
.L768:
	.loc 1 884 3 is_stmt 1 view .LVU2348
.LBB577:
	.loc 1 886 7 view .LVU2349
	.loc 1 887 15 is_stmt 0 view .LVU2350
	leaq	short_options(%rip), %rdx
	movq	%r15, %r8
	movq	%r14, %rsi
	movl	%r12d, %edi
	leaq	long_options(%rip), %rcx
	.loc 1 886 11 view .LVU2351
	movl	$-1, 44(%rsp)
	.loc 1 887 7 is_stmt 1 view .LVU2352
	.loc 1 887 15 is_stmt 0 view .LVU2353
	call	getopt_long@PLT
.LVL778:
	movl	%eax, %edx
.LVL779:
	.loc 1 888 7 is_stmt 1 view .LVU2354
	.loc 1 888 10 is_stmt 0 view .LVU2355
	cmpl	$-1, %edx
	je	.L769
	.loc 1 891 7 is_stmt 1 view .LVU2356
	.loc 1 891 11 is_stmt 0 view .LVU2357
	leal	-48(%rdx), %eax
	.loc 1 891 10 view .LVU2358
	cmpl	$9, %eax
	jbe	.L867
	.loc 1 902 7 is_stmt 1 view .LVU2359
.LVL780:
	.loc 1 904 7 view .LVU2360
	cmpl	$129, %edx
	jg	.L773
	testl	%edx, %edx
	jle	.L868
	cmpl	$129, %edx
	ja	.L773
	movslq	(%rbx,%rdx,4), %rax
	addq	%rbx, %rax
	notrack jmp	*%rax
	.section	.rodata
	.align 4
	.align 4
.L778:
	.long	.L773-.L778
	.long	.L803-.L778
	.long	.L773-.L778
	.long	.L773-.L778
	.long	.L773-.L778
	.long	.L773-.L778
	.long	.L773-.L778
	.long	.L773-.L778
	.long	.L773-.L778
	.long	.L773-.L778
	.long	.L773-.L778
	.long	.L773-.L778
	.long	.L773-.L778
	.long	.L773-.L778
	.long	.L773-.L778
	.long	.L773-.L778
	.long	.L773-.L778
	.long	.L773-.L778
	.long	.L773-.L778
	.long	.L773-.L778
	.long	.L773-.L778
	.long	.L773-.L778
	.long	.L773-.L778
	.long	.L773-.L778
	.long	.L773-.L778
	.long	.L773-.L778
	.long	.L773-.L778
	.long	.L773-.L778
	.long	.L773-.L778
	.long	.L773-.L778
	.long	.L773-.L778
	.long	.L773-.L778
	.long	.L773-.L778
	.long	.L773-.L778
	.long	.L773-.L778
	.long	.L773-.L778
	.long	.L773-.L778
	.long	.L773-.L778
	.long	.L773-.L778
	.long	.L773-.L778
	.long	.L773-.L778
	.long	.L773-.L778
	.long	.L773-.L778
	.long	.L773-.L778
	.long	.L773-.L778
	.long	.L773-.L778
	.long	.L773-.L778
	.long	.L773-.L778
	.long	.L773-.L778
	.long	.L773-.L778
	.long	.L773-.L778
	.long	.L773-.L778
	.long	.L773-.L778
	.long	.L773-.L778
	.long	.L773-.L778
	.long	.L773-.L778
	.long	.L773-.L778
	.long	.L773-.L778
	.long	.L773-.L778
	.long	.L773-.L778
	.long	.L773-.L778
	.long	.L773-.L778
	.long	.L773-.L778
	.long	.L773-.L778
	.long	.L773-.L778
	.long	.L773-.L778
	.long	.L773-.L778
	.long	.L773-.L778
	.long	.L802-.L778
	.long	.L773-.L778
	.long	.L791-.L778
	.long	.L773-.L778
	.long	.L773-.L778
	.long	.L773-.L778
	.long	.L801-.L778
	.long	.L773-.L778
	.long	.L773-.L778
	.long	.L773-.L778
	.long	.L800-.L778
	.long	.L773-.L778
	.long	.L773-.L778
	.long	.L773-.L778
	.long	.L773-.L778
	.long	.L799-.L778
	.long	.L798-.L778
	.long	.L773-.L778
	.long	.L773-.L778
	.long	.L797-.L778
	.long	.L773-.L778
	.long	.L773-.L778
	.long	.L773-.L778
	.long	.L773-.L778
	.long	.L773-.L778
	.long	.L773-.L778
	.long	.L773-.L778
	.long	.L773-.L778
	.long	.L773-.L778
	.long	.L796-.L778
	.long	.L795-.L778
	.long	.L794-.L778
	.long	.L793-.L778
	.long	.L792-.L778
	.long	.L791-.L778
	.long	.L773-.L778
	.long	.L790-.L778
	.long	.L789-.L778
	.long	.L773-.L778
	.long	.L773-.L778
	.long	.L788-.L778
	.long	.L787-.L778
	.long	.L786-.L778
	.long	.L785-.L778
	.long	.L773-.L778
	.long	.L773-.L778
	.long	.L784-.L778
	.long	.L783-.L778
	.long	.L782-.L778
	.long	.L773-.L778
	.long	.L781-.L778
	.long	.L780-.L778
	.long	.L773-.L778
	.long	.L773-.L778
	.long	.L773-.L778
	.long	.L773-.L778
	.long	.L773-.L778
	.long	.L773-.L778
	.long	.L773-.L778
	.long	.L773-.L778
	.long	.L779-.L778
	.long	.L777-.L778
	.section	.text.startup
.L777:
	.loc 1 915 13 view .LVU2361
	.loc 1 915 17 is_stmt 0 view .LVU2362
	movq	optarg(%rip), %rdx
.LVL781:
	.loc 1 915 16 view .LVU2363
	testq	%rdx, %rdx
	je	.L869
	.loc 1 918 18 is_stmt 1 view .LVU2364
	.loc 1 918 24 is_stmt 0 view .LVU2365
	movl	44(%rsp), %edi
	xorl	%esi, %esi
	call	first_last_page
.LVL782:
	.loc 1 918 21 view .LVU2366
	testb	%al, %al
	je	.L870
.LVL783:
.L805:
	.loc 1 1050 11 is_stmt 1 discriminator 1 view .LVU2367
	.loc 1 902 16 is_stmt 0 discriminator 1 view .LVU2368
	xorl	%ebp, %ebp
	jmp	.L768
.LVL784:
.L779:
	.loc 1 926 13 is_stmt 1 view .LVU2369
	movq	optarg(%rip), %rdi
	.loc 1 902 16 is_stmt 0 view .LVU2370
	xorl	%ebp, %ebp
	.loc 1 926 13 view .LVU2371
	call	parse_column_count
.LVL785:
	.loc 1 931 13 is_stmt 1 view .LVU2372
	movq	%r13, %rdi
	.loc 1 932 33 is_stmt 0 view .LVU2373
	xorl	%r13d, %r13d
.LVL786:
	.loc 1 931 13 view .LVU2374
	call	free@PLT
.LVL787:
	.loc 1 932 13 is_stmt 1 view .LVU2375
	.loc 1 933 13 view .LVU2376
	.loc 1 933 21 is_stmt 0 view .LVU2377
	movq	$0, 48(%rsp)
	.loc 1 934 13 is_stmt 1 view .LVU2378
.LVL788:
	.loc 1 1050 11 view .LVU2379
	jmp	.L768
.LVL789:
.L780:
	.loc 1 1030 11 view .LVU2380
	.loc 1 1031 11 view .LVU2381
.LBB578:
	.loc 1 1033 13 view .LVU2382
	.loc 1 1034 13 view .LVU2383
	.loc 1 1035 24 is_stmt 0 view .LVU2384
	movl	$5, %edx
.LVL790:
	.loc 1 1035 24 view .LVU2385
	leaq	.LC63(%rip), %rsi
	xorl	%edi, %edi
	call	dcgettext@PLT
.LVL791:
.LBB579:
.LBB580:
	.loc 1 1158 19 view .LVU2386
	movq	optarg(%rip), %rdi
	xorl	%r9d, %r9d
	movl	$1, %esi
.LBE580:
.LBE579:
	.loc 1 1035 24 view .LVU2387
	movq	%rax, %r8
.LVL792:
.LBB583:
.LBI579:
	.loc 1 1156 1 is_stmt 1 view .LVU2388
.LBB581:
	.loc 1 1158 3 view .LVU2389
	.loc 1 1158 19 is_stmt 0 view .LVU2390
	leaq	.LC1(%rip), %rcx
	movl	$2147483647, %edx
	call	xdectoimax@PLT
.LVL793:
	.loc 1 1159 3 is_stmt 1 view .LVU2391
	.loc 1 1159 3 is_stmt 0 view .LVU2392
.LBE581:
.LBE583:
	.loc 1 1036 13 is_stmt 1 view .LVU2393
	.loc 1 1036 17 is_stmt 0 view .LVU2394
	movzbl	truncate_lines(%rip), %esi
	movb	%sil, 29(%rsp)
.LBE578:
	.loc 1 1031 17 view .LVU2395
	movb	%sil, 30(%rsp)
.LBB585:
	.loc 1 1036 16 view .LVU2396
	testb	%sil, %sil
	jne	.L805
	.loc 1 1037 15 is_stmt 1 view .LVU2397
.LBB584:
.LBB582:
	.loc 1 1159 8 is_stmt 0 view .LVU2398
	movl	%eax, chars_per_line(%rip)
.LBE582:
.LBE584:
.LBE585:
	.loc 1 902 16 view .LVU2399
	xorl	%ebp, %ebp
	.loc 1 1031 17 view .LVU2400
	movb	$1, 30(%rsp)
	.loc 1 1030 23 view .LVU2401
	movb	$1, 29(%rsp)
.LVL794:
	.loc 1 1050 11 is_stmt 1 view .LVU2402
	jmp	.L768
.LVL795:
.L781:
	.loc 1 1027 11 view .LVU2403
	.loc 1 1027 28 is_stmt 0 view .LVU2404
	movb	$1, use_esc_sequence(%rip)
	.loc 1 1028 11 is_stmt 1 view .LVU2405
	.loc 1 1050 11 view .LVU2406
	.loc 1 902 16 is_stmt 0 view .LVU2407
	xorl	%ebp, %ebp
	jmp	.L768
.L782:
	.loc 1 1019 11 is_stmt 1 view .LVU2408
	.loc 1 1019 23 is_stmt 0 view .LVU2409
	movb	$0, extremities(%rip)
	.loc 1 1020 11 is_stmt 1 view .LVU2410
	.loc 1 902 16 is_stmt 0 view .LVU2411
	xorl	%ebp, %ebp
	.loc 1 1020 19 view .LVU2412
	movb	$1, keep_FF(%rip)
	.loc 1 1021 11 is_stmt 1 view .LVU2413
	.loc 1 1050 11 view .LVU2414
	jmp	.L768
.L783:
	.loc 1 1004 11 view .LVU2415
.LVL796:
	.loc 1 1005 11 view .LVU2416
	.loc 1 1006 11 view .LVU2417
	.loc 1 1006 15 is_stmt 0 view .LVU2418
	movzbl	use_col_separator(%rip), %eax
	movb	%al, 29(%rsp)
	.loc 1 1005 17 view .LVU2419
	movb	%al, 31(%rsp)
	.loc 1 1006 14 view .LVU2420
	testb	%al, %al
	jne	.L805
	.loc 1 1006 34 discriminator 1 view .LVU2421
	movq	optarg(%rip), %rdi
	testq	%rdi, %rdi
	je	.L836
	.loc 1 1007 13 is_stmt 1 view .LVU2422
	call	separator_string
.LVL797:
	.loc 1 902 16 is_stmt 0 view .LVU2423
	xorl	%ebp, %ebp
	.loc 1 1005 17 view .LVU2424
	movb	$1, 31(%rsp)
	.loc 1 1004 23 view .LVU2425
	movb	$1, 29(%rsp)
.LVL798:
	.loc 1 1050 11 is_stmt 1 view .LVU2426
	jmp	.L768
.LVL799:
.L784:
	.loc 1 1001 11 view .LVU2427
	.loc 1 1001 31 is_stmt 0 view .LVU2428
	movb	$1, ignore_failed_opens(%rip)
	.loc 1 1002 11 is_stmt 1 view .LVU2429
	.loc 1 1050 11 view .LVU2430
	.loc 1 902 16 is_stmt 0 view .LVU2431
	xorl	%ebp, %ebp
	jmp	.L768
.L785:
	.loc 1 997 11 is_stmt 1 view .LVU2432
	.loc 1 998 22 is_stmt 0 view .LVU2433
	movl	$5, %edx
.LVL800:
	.loc 1 998 22 view .LVU2434
	leaq	.LC62(%rip), %rsi
	xorl	%edi, %edi
	.loc 1 902 16 view .LVU2435
	xorl	%ebp, %ebp
	.loc 1 998 22 view .LVU2436
	call	dcgettext@PLT
.LVL801:
.LBB586:
.LBB587:
	.loc 1 1158 19 view .LVU2437
	xorl	%r9d, %r9d
	movl	$2147483647, %edx
	xorl	%esi, %esi
	movq	optarg(%rip), %rdi
.LBE587:
.LBE586:
	.loc 1 998 22 view .LVU2438
	movq	%rax, %r8
.LVL802:
.LBB589:
.LBI586:
	.loc 1 1156 1 is_stmt 1 view .LVU2439
.LBB588:
	.loc 1 1158 3 view .LVU2440
	.loc 1 1158 19 is_stmt 0 view .LVU2441
	leaq	.LC1(%rip), %rcx
	call	xdectoimax@PLT
.LVL803:
	.loc 1 1159 3 is_stmt 1 view .LVU2442
	.loc 1 1159 8 is_stmt 0 view .LVU2443
	movl	%eax, chars_per_margin(%rip)
.LVL804:
	.loc 1 1159 8 view .LVU2444
.LBE588:
.LBE589:
	.loc 1 1050 11 is_stmt 1 view .LVU2445
	jmp	.L768
.LVL805:
.L786:
	.loc 1 986 11 view .LVU2446
	.loc 1 987 15 is_stmt 0 view .LVU2447
	movq	optarg(%rip), %rdi
	.loc 1 986 26 view .LVU2448
	movb	$1, numbered_lines(%rip)
	.loc 1 987 11 is_stmt 1 view .LVU2449
	.loc 1 987 14 is_stmt 0 view .LVU2450
	testq	%rdi, %rdi
	je	.L805
	.loc 1 988 13 is_stmt 1 view .LVU2451
	leaq	chars_per_number(%rip), %rcx
	leaq	number_separator(%rip), %rdx
.LVL806:
	.loc 1 988 13 is_stmt 0 view .LVU2452
	movl	$110, %esi
	.loc 1 902 16 view .LVU2453
	xorl	%ebp, %ebp
	.loc 1 988 13 view .LVU2454
	call	getoptarg
.LVL807:
	.loc 1 1050 11 is_stmt 1 view .LVU2455
	jmp	.L768
.LVL808:
.L787:
	.loc 1 982 11 view .LVU2456
	.loc 1 982 26 is_stmt 0 view .LVU2457
	movb	$1, parallel_files(%rip)
	.loc 1 983 11 is_stmt 1 view .LVU2458
	.loc 1 902 16 is_stmt 0 view .LVU2459
	xorl	%ebp, %ebp
	.loc 1 983 27 view .LVU2460
	movb	$0, storing_columns(%rip)
	.loc 1 984 11 is_stmt 1 view .LVU2461
	.loc 1 1050 11 view .LVU2462
	jmp	.L768
.L788:
	.loc 1 978 11 view .LVU2463
	.loc 1 979 22 is_stmt 0 view .LVU2464
	movl	$5, %edx
.LVL809:
	.loc 1 979 22 view .LVU2465
	leaq	.LC60(%rip), %rsi
	xorl	%edi, %edi
	.loc 1 902 16 view .LVU2466
	xorl	%ebp, %ebp
	.loc 1 979 22 view .LVU2467
	call	dcgettext@PLT
.LVL810:
.LBB590:
.LBB591:
	.loc 1 1158 19 view .LVU2468
	movq	optarg(%rip), %rdi
	xorl	%r9d, %r9d
	leaq	.LC1(%rip), %rcx
.LBE591:
.LBE590:
	.loc 1 979 22 view .LVU2469
	movq	%rax, %r8
.LVL811:
.LBB593:
.LBI590:
	.loc 1 1156 1 is_stmt 1 view .LVU2470
.LBB592:
	.loc 1 1158 3 view .LVU2471
	.loc 1 1158 19 is_stmt 0 view .LVU2472
	movl	$2147483647, %edx
	movl	$1, %esi
	call	xdectoimax@PLT
.LVL812:
	.loc 1 1159 3 is_stmt 1 view .LVU2473
	.loc 1 1159 8 is_stmt 0 view .LVU2474
	movl	%eax, lines_per_page(%rip)
.LVL813:
	.loc 1 1159 8 view .LVU2475
.LBE592:
.LBE593:
	.loc 1 1050 11 is_stmt 1 view .LVU2476
	jmp	.L768
.LVL814:
.L789:
	.loc 1 968 11 view .LVU2477
	.loc 1 968 15 is_stmt 0 view .LVU2478
	movq	optarg(%rip), %rdi
	.loc 1 968 14 view .LVU2479
	testq	%rdi, %rdi
	je	.L809
	.loc 1 969 13 is_stmt 1 view .LVU2480
	leaq	chars_per_output_tab(%rip), %rcx
	leaq	output_tab_char(%rip), %rdx
.LVL815:
	.loc 1 969 13 is_stmt 0 view .LVU2481
	movl	$105, %esi
	call	getoptarg
.LVL816:
.L809:
	.loc 1 972 11 is_stmt 1 view .LVU2482
	.loc 1 972 25 is_stmt 0 view .LVU2483
	movb	$1, tabify_output(%rip)
	.loc 1 973 11 is_stmt 1 view .LVU2484
	.loc 1 1050 11 view .LVU2485
	.loc 1 902 16 is_stmt 0 view .LVU2486
	xorl	%ebp, %ebp
	jmp	.L768
.LVL817:
.L790:
	.loc 1 965 11 is_stmt 1 view .LVU2487
	.loc 1 965 25 is_stmt 0 view .LVU2488
	movq	optarg(%rip), %rax
	.loc 1 902 16 view .LVU2489
	xorl	%ebp, %ebp
	.loc 1 965 25 view .LVU2490
	movq	%rax, custom_header(%rip)
	.loc 1 966 11 is_stmt 1 view .LVU2491
	.loc 1 1050 11 view .LVU2492
	jmp	.L768
.L799:
	.loc 1 1010 11 view .LVU2493
.LVL818:
	.loc 1 1012 11 view .LVU2494
	.loc 1 1015 15 is_stmt 0 view .LVU2495
	movq	optarg(%rip), %rdi
	.loc 1 1012 26 view .LVU2496
	leaq	.LC1(%rip), %rax
	.loc 1 1013 26 view .LVU2497
	movl	$0, col_sep_length(%rip)
	.loc 1 1012 26 view .LVU2498
	movq	%rax, col_sep_string(%rip)
	.loc 1 1013 11 is_stmt 1 view .LVU2499
	.loc 1 1014 11 view .LVU2500
	.loc 1 1014 29 is_stmt 0 view .LVU2501
	movb	$1, use_col_separator(%rip)
	.loc 1 1015 11 is_stmt 1 view .LVU2502
	.loc 1 1010 17 is_stmt 0 view .LVU2503
	movb	$0, 31(%rsp)
	.loc 1 1015 14 view .LVU2504
	testq	%rdi, %rdi
	je	.L805
	.loc 1 1016 13 is_stmt 1 view .LVU2505
	call	separator_string
.LVL819:
	.loc 1 1050 11 view .LVU2506
	.loc 1 902 16 is_stmt 0 view .LVU2507
	xorl	%ebp, %ebp
	jmp	.L768
.LVL820:
.L800:
	.loc 1 992 11 is_stmt 1 view .LVU2508
	.loc 1 994 22 is_stmt 0 view .LVU2509
	movl	$5, %edx
.LVL821:
	.loc 1 994 22 view .LVU2510
	leaq	.LC61(%rip), %rsi
	xorl	%edi, %edi
	.loc 1 902 16 view .LVU2511
	xorl	%ebp, %ebp
	.loc 1 992 22 view .LVU2512
	movb	$0, skip_count(%rip)
	.loc 1 993 11 is_stmt 1 view .LVU2513
	.loc 1 994 22 is_stmt 0 view .LVU2514
	call	dcgettext@PLT
.LVL822:
.LBB594:
.LBB595:
	.loc 1 1158 19 view .LVU2515
	movq	optarg(%rip), %rdi
	xorl	%r9d, %r9d
	leaq	.LC1(%rip), %rcx
.LBE595:
.LBE594:
	.loc 1 994 22 view .LVU2516
	movq	%rax, %r8
.LVL823:
.LBB597:
.LBI594:
	.loc 1 1156 1 is_stmt 1 view .LVU2517
.LBB596:
	.loc 1 1158 3 view .LVU2518
	.loc 1 1158 19 is_stmt 0 view .LVU2519
	movl	$2147483647, %edx
	movq	$-2147483648, %rsi
	call	xdectoimax@PLT
.LVL824:
	.loc 1 1159 3 is_stmt 1 view .LVU2520
	.loc 1 1159 8 is_stmt 0 view .LVU2521
	movl	%eax, start_line_num(%rip)
.LVL825:
	.loc 1 1159 8 view .LVU2522
.LBE596:
.LBE597:
	.loc 1 1050 11 is_stmt 1 view .LVU2523
	jmp	.L768
.LVL826:
.L801:
	.loc 1 975 11 view .LVU2524
	.loc 1 975 22 is_stmt 0 view .LVU2525
	movb	$1, join_lines(%rip)
	.loc 1 976 11 is_stmt 1 view .LVU2526
	.loc 1 1050 11 view .LVU2527
	.loc 1 902 16 is_stmt 0 view .LVU2528
	xorl	%ebp, %ebp
	jmp	.L768
.L791:
	.loc 1 962 11 is_stmt 1 view .LVU2529
	.loc 1 962 25 is_stmt 0 view .LVU2530
	movb	$1, use_form_feed(%rip)
	.loc 1 963 11 is_stmt 1 view .LVU2531
	.loc 1 1050 11 view .LVU2532
	.loc 1 902 16 is_stmt 0 view .LVU2533
	xorl	%ebp, %ebp
	jmp	.L768
.L802:
	.loc 1 951 11 is_stmt 1 view .LVU2534
	.loc 1 951 23 is_stmt 0 view .LVU2535
	movq	optarg(%rip), %rax
	.loc 1 902 16 view .LVU2536
	xorl	%ebp, %ebp
	.loc 1 951 23 view .LVU2537
	movq	%rax, date_format(%rip)
	.loc 1 952 11 is_stmt 1 view .LVU2538
	.loc 1 1050 11 view .LVU2539
	jmp	.L768
.L803:
	.loc 1 908 11 view .LVU2540
	.loc 1 908 14 is_stmt 0 view .LVU2541
	cmpq	$0, first_page_number(%rip)
	movq	optarg(%rip), %rax
	je	.L804
.LVL827:
.L806:
	.loc 1 910 13 is_stmt 1 view .LVU2542
	.loc 1 910 31 is_stmt 0 view .LVU2543
	movl	24(%rsp), %edx
	.loc 1 910 35 view .LVU2544
	movq	16(%rsp), %rdi
	.loc 1 902 16 view .LVU2545
	xorl	%ebp, %ebp
	.loc 1 910 35 view .LVU2546
	movq	%rax, (%rdi,%rdx,8)
	.loc 1 910 31 view .LVU2547
	leal	1(%rdx), %eax
	movl	%eax, 24(%rsp)
.LVL828:
	.loc 1 1050 11 is_stmt 1 view .LVU2548
	jmp	.L768
.LVL829:
.L795:
	.loc 1 942 11 view .LVU2549
	.loc 1 942 27 is_stmt 0 view .LVU2550
	movb	$1, balance_columns(%rip)
	.loc 1 943 11 is_stmt 1 view .LVU2551
	.loc 1 1050 11 view .LVU2552
	.loc 1 902 16 is_stmt 0 view .LVU2553
	xorl	%ebp, %ebp
	jmp	.L768
.L793:
	.loc 1 948 11 is_stmt 1 view .LVU2554
	.loc 1 948 24 is_stmt 0 view .LVU2555
	movb	$1, double_space(%rip)
	.loc 1 949 11 is_stmt 1 view .LVU2556
	.loc 1 1050 11 view .LVU2557
	.loc 1 902 16 is_stmt 0 view .LVU2558
	xorl	%ebp, %ebp
	jmp	.L768
.L794:
	.loc 1 945 11 is_stmt 1 view .LVU2559
	.loc 1 945 28 is_stmt 0 view .LVU2560
	movb	$1, use_cntrl_prefix(%rip)
	.loc 1 946 11 is_stmt 1 view .LVU2561
	.loc 1 1050 11 view .LVU2562
	.loc 1 902 16 is_stmt 0 view .LVU2563
	xorl	%ebp, %ebp
	jmp	.L768
.L792:
	.loc 1 954 11 is_stmt 1 view .LVU2564
	.loc 1 954 15 is_stmt 0 view .LVU2565
	movq	optarg(%rip), %rdi
	.loc 1 954 14 view .LVU2566
	testq	%rdi, %rdi
	je	.L808
	.loc 1 955 13 is_stmt 1 view .LVU2567
	leaq	chars_per_input_tab(%rip), %rcx
	leaq	input_tab_char(%rip), %rdx
.LVL830:
	.loc 1 955 13 is_stmt 0 view .LVU2568
	movl	$101, %esi
	call	getoptarg
.LVL831:
.L808:
	.loc 1 958 11 is_stmt 1 view .LVU2569
	.loc 1 958 26 is_stmt 0 view .LVU2570
	movb	$1, untabify_input(%rip)
	.loc 1 959 11 is_stmt 1 view .LVU2571
	.loc 1 1050 11 view .LVU2572
	.loc 1 902 16 is_stmt 0 view .LVU2573
	xorl	%ebp, %ebp
	jmp	.L768
.LVL832:
.L797:
	.loc 1 1041 11 is_stmt 1 view .LVU2574
	.loc 1 1042 11 view .LVU2575
	.loc 1 1044 22 is_stmt 0 view .LVU2576
	movl	$5, %edx
.LVL833:
	.loc 1 1044 22 view .LVU2577
	leaq	.LC64(%rip), %rsi
	xorl	%edi, %edi
	.loc 1 902 16 view .LVU2578
	xorl	%ebp, %ebp
	.loc 1 1042 26 view .LVU2579
	movb	$1, truncate_lines(%rip)
	.loc 1 1043 11 is_stmt 1 view .LVU2580
	.loc 1 1044 22 is_stmt 0 view .LVU2581
	call	dcgettext@PLT
.LVL834:
.LBB598:
.LBB599:
	.loc 1 1158 19 view .LVU2582
	movq	optarg(%rip), %rdi
	xorl	%r9d, %r9d
	leaq	.LC1(%rip), %rcx
.LBE599:
.LBE598:
	.loc 1 1044 22 view .LVU2583
	movq	%rax, %r8
.LVL835:
.LBB602:
.LBI598:
	.loc 1 1156 1 is_stmt 1 view .LVU2584
.LBB600:
	.loc 1 1158 3 view .LVU2585
	.loc 1 1158 19 is_stmt 0 view .LVU2586
	movl	$2147483647, %edx
	movl	$1, %esi
	call	xdectoimax@PLT
.LVL836:
	.loc 1 1159 3 is_stmt 1 view .LVU2587
.LBE600:
.LBE602:
	.loc 1 1041 17 is_stmt 0 view .LVU2588
	movb	$0, 30(%rsp)
.LVL837:
	.loc 1 1050 11 is_stmt 1 view .LVU2589
.LBB603:
.LBB601:
	.loc 1 1159 8 is_stmt 0 view .LVU2590
	movl	%eax, chars_per_line(%rip)
	jmp	.L768
.LVL838:
.L796:
	.loc 1 1159 8 view .LVU2591
.LBE601:
.LBE603:
	.loc 1 938 11 is_stmt 1 view .LVU2592
	.loc 1 938 29 is_stmt 0 view .LVU2593
	movb	$1, print_across_flag(%rip)
	.loc 1 939 11 is_stmt 1 view .LVU2594
	.loc 1 902 16 is_stmt 0 view .LVU2595
	xorl	%ebp, %ebp
	.loc 1 939 27 view .LVU2596
	movb	$0, storing_columns(%rip)
	.loc 1 940 11 is_stmt 1 view .LVU2597
	.loc 1 1050 11 view .LVU2598
	jmp	.L768
.L798:
	.loc 1 1023 11 view .LVU2599
	.loc 1 1023 23 is_stmt 0 view .LVU2600
	movb	$0, extremities(%rip)
	.loc 1 1024 11 is_stmt 1 view .LVU2601
	.loc 1 902 16 is_stmt 0 view .LVU2602
	xorl	%ebp, %ebp
	.loc 1 1024 19 view .LVU2603
	movb	$0, keep_FF(%rip)
	.loc 1 1025 11 is_stmt 1 view .LVU2604
	.loc 1 1050 11 view .LVU2605
	jmp	.L768
	.p2align 4,,10
	.p2align 3
.L868:
	.loc 1 904 7 is_stmt 0 view .LVU2606
	cmpl	$-131, %edx
	jne	.L871
	.loc 1 1046 9 is_stmt 1 view .LVU2607
	.loc 1 1046 30 view .LVU2608
	.loc 1 1047 9 view .LVU2609
	pushq	%rax
	.cfi_remember_state
	.cfi_def_cfa_offset 136
	movq	stdout(%rip), %rdi
	xorl	%eax, %eax
	leaq	.LC65(%rip), %r9
	pushq	$0
	.cfi_def_cfa_offset 144
	movq	Version(%rip), %rcx
	leaq	.LC66(%rip), %r8
	leaq	.LC49(%rip), %rdx
.LVL839:
	.loc 1 1047 9 is_stmt 0 view .LVU2610
	leaq	.LC16(%rip), %rsi
	call	version_etc@PLT
.LVL840:
	.loc 1 1047 9 is_stmt 1 view .LVU2611
	xorl	%edi, %edi
	call	exit@PLT
.LVL841:
	.p2align 4,,10
	.p2align 3
.L871:
	.cfi_restore_state
	.loc 1 904 7 is_stmt 0 view .LVU2612
	cmpl	$-130, %edx
	jne	.L773
	.loc 1 1046 9 is_stmt 1 view .LVU2613
	xorl	%edi, %edi
	call	usage
.LVL842:
	.p2align 4,,10
	.p2align 3
.L867:
	.loc 1 894 11 view .LVU2614
	.loc 1 894 24 is_stmt 0 view .LVU2615
	leaq	1(%rbp), %rcx
	.loc 1 894 14 view .LVU2616
	cmpq	48(%rsp), %rcx
	jnb	.L872
.LVL843:
.L771:
	.loc 1 897 11 is_stmt 1 view .LVU2617
	.loc 1 897 43 is_stmt 0 view .LVU2618
	movb	%dl, 0(%r13,%rbp)
	.loc 1 898 11 is_stmt 1 view .LVU2619
	.loc 1 894 24 is_stmt 0 view .LVU2620
	movq	%rcx, %rbp
	.loc 1 898 41 view .LVU2621
	movb	$0, 0(%r13,%rcx)
	.loc 1 899 11 is_stmt 1 view .LVU2622
	jmp	.L768
.LVL844:
	.p2align 4,,10
	.p2align 3
.L872:
.LBB604:
	.loc 1 896 17 is_stmt 0 view .LVU2623
	movq	%r13, %rdi
	leaq	48(%rsp), %rsi
	movl	%edx, 12(%rsp)
	movq	%rcx, (%rsp)
	.loc 1 895 13 is_stmt 1 view .LVU2624
	.loc 1 896 17 is_stmt 0 view .LVU2625
	call	x2realloc@PLT
.LVL845:
	.loc 1 896 17 view .LVU2626
	movl	12(%rsp), %edx
	movq	(%rsp), %rcx
	movq	%rax, %r13
.LVL846:
	.loc 1 896 17 view .LVU2627
	jmp	.L771
.LVL847:
.L804:
	.loc 1 896 17 view .LVU2628
.LBE604:
	.loc 1 909 18 view .LVU2629
	cmpb	$43, (%rax)
	jne	.L806
	.loc 1 909 72 discriminator 1 view .LVU2630
	leaq	1(%rax), %rdx
.LVL848:
	.loc 1 909 39 discriminator 1 view .LVU2631
	movl	$43, %esi
	movl	$-2, %edi
	call	first_last_page
.LVL849:
	.loc 1 908 15 discriminator 1 view .LVU2632
	testb	%al, %al
	jne	.L805
	movq	optarg(%rip), %rax
	jmp	.L806
.LVL850:
.L769:
	.loc 1 908 15 discriminator 1 view .LVU2633
.LBE577:
	.loc 1 1054 3 is_stmt 1 view .LVU2634
	.loc 1 1054 6 is_stmt 0 view .LVU2635
	testq	%r13, %r13
	je	.L810
	.loc 1 1056 7 is_stmt 1 view .LVU2636
	movq	%r13, %rdi
	call	parse_column_count
.LVL851:
	.loc 1 1057 7 view .LVU2637
	movq	%r13, %rdi
	call	free@PLT
.LVL852:
.L810:
	.loc 1 1060 3 view .LVU2638
	.loc 1 1060 6 is_stmt 0 view .LVU2639
	cmpq	$0, date_format(%rip)
	je	.L873
.L811:
	.loc 1 1065 3 is_stmt 1 view .LVU2640
	.loc 1 1065 22 is_stmt 0 view .LVU2641
	leaq	.LC68(%rip), %rdi
	call	getenv@PLT
.LVL853:
	movq	%rax, %rdi
	.loc 1 1065 13 view .LVU2642
	call	tzalloc@PLT
.LVL854:
	.loc 1 1068 6 view .LVU2643
	cmpq	$0, first_page_number(%rip)
	.loc 1 1065 11 view .LVU2644
	movq	%rax, localtz(%rip)
	.loc 1 1068 3 is_stmt 1 view .LVU2645
	.loc 1 1068 6 is_stmt 0 view .LVU2646
	jne	.L815
	.loc 1 1069 5 is_stmt 1 view .LVU2647
	.loc 1 1069 23 is_stmt 0 view .LVU2648
	movq	$1, first_page_number(%rip)
.L815:
	.loc 1 1071 3 is_stmt 1 view .LVU2649
	.loc 1 1071 7 is_stmt 0 view .LVU2650
	movzbl	parallel_files(%rip), %edi
	.loc 1 1071 6 view .LVU2651
	testb	%dil, %dil
	je	.L816
	.loc 1 1071 22 discriminator 1 view .LVU2652
	cmpb	$0, explicit_columns(%rip)
	jne	.L874
	.loc 1 1075 3 is_stmt 1 discriminator 1 view .LVU2653
	.loc 1 1075 22 is_stmt 0 discriminator 1 view .LVU2654
	cmpb	$0, print_across_flag(%rip)
	jne	.L875
.L816:
	.loc 1 1083 3 is_stmt 1 view .LVU2655
	.loc 1 1083 6 is_stmt 0 view .LVU2656
	cmpb	$0, 29(%rsp)
	je	.L819
	.loc 1 1085 7 is_stmt 1 view .LVU2657
	.loc 1 1085 10 is_stmt 0 view .LVU2658
	cmpb	$0, 30(%rsp)
	je	.L820
	.loc 1 1087 11 is_stmt 1 view .LVU2659
	.loc 1 1087 14 is_stmt 0 view .LVU2660
	testb	%dil, %dil
	jne	.L821
	.loc 1 1087 30 discriminator 1 view .LVU2661
	cmpb	$0, explicit_columns(%rip)
	je	.L822
.L821:
	.loc 1 1090 15 is_stmt 1 view .LVU2662
	.loc 1 1091 18 is_stmt 0 view .LVU2663
	cmpb	$0, 31(%rsp)
	.loc 1 1090 30 view .LVU2664
	movb	$1, truncate_lines(%rip)
	.loc 1 1091 15 is_stmt 1 view .LVU2665
	.loc 1 1091 18 is_stmt 0 view .LVU2666
	jne	.L825
.L819:
	.loc 1 1124 10 is_stmt 1 discriminator 1 view .LVU2667
	.loc 1 1124 17 is_stmt 0 discriminator 1 view .LVU2668
	movl	optind(%rip), %eax
	.loc 1 1124 3 discriminator 1 view .LVU2669
	cmpl	%eax, %r12d
	jle	.L826
	movl	%r12d, %esi
	movslq	%eax, %rdx
	movq	16(%rsp), %r9
	subl	%eax, %esi
	movl	24(%rsp), %eax
	leaq	(%r14,%rdx,8), %rdx
	addl	%eax, %esi
.LVL855:
	.p2align 4,,10
	.p2align 3
.L827:
	.loc 1 1126 7 is_stmt 1 discriminator 2 view .LVU2670
	.loc 1 1126 29 is_stmt 0 discriminator 2 view .LVU2671
	movq	(%rdx), %r8
	movl	%eax, %ecx
	.loc 1 1126 25 discriminator 2 view .LVU2672
	addl	$1, %eax
.LVL856:
	.loc 1 1126 25 discriminator 2 view .LVU2673
	addq	$8, %rdx
	.loc 1 1126 29 discriminator 2 view .LVU2674
	movq	%r8, (%r9,%rcx,8)
	.loc 1 1124 25 is_stmt 1 discriminator 2 view .LVU2675
	.loc 1 1124 10 discriminator 2 view .LVU2676
	.loc 1 1124 3 is_stmt 0 discriminator 2 view .LVU2677
	cmpl	%esi, %eax
	jne	.L827
	movl	%eax, 24(%rsp)
	movl	%r12d, optind(%rip)
.LVL857:
.L826:
	.loc 1 1129 3 is_stmt 1 view .LVU2678
	.loc 1 1129 6 is_stmt 0 view .LVU2679
	cmpl	$0, 24(%rsp)
	je	.L876
	.loc 1 1136 7 is_stmt 1 view .LVU2680
	.loc 1 1137 9 is_stmt 0 view .LVU2681
	movq	16(%rsp), %rsi
	.loc 1 1136 10 view .LVU2682
	testb	%dil, %dil
	jne	.L877
	movl	24(%rsp), %eax
	movq	%rsi, %rbx
	subl	$1, %eax
	leaq	8(%rsi,%rax,8), %rbp
.LVL858:
	.p2align 4,,10
	.p2align 3
.L831:
.LBB607:
	.loc 1 1141 13 is_stmt 1 discriminator 3 view .LVU2683
	movq	%rbx, %rsi
	movl	$1, %edi
	addq	$8, %rbx
	call	print_files
.LVL859:
	.loc 1 1140 49 discriminator 3 view .LVU2684
	.loc 1 1140 36 discriminator 3 view .LVU2685
	.loc 1 1140 11 is_stmt 0 discriminator 3 view .LVU2686
	cmpq	%rbx, %rbp
	jne	.L831
.L829:
.LBE607:
	.loc 1 1145 3 is_stmt 1 view .LVU2687
.LBB608:
.LBI608:
	.loc 1 2718 1 view .LVU2688
.LBB609:
	.loc 1 2720 3 view .LVU2689
	movq	number_buff(%rip), %rdi
	call	free@PLT
.LVL860:
	.loc 1 2721 3 view .LVU2690
	movq	clump_buff(%rip), %rdi
	call	free@PLT
.LVL861:
	.loc 1 2722 3 view .LVU2691
	movq	column_vector(%rip), %rdi
	call	free@PLT
.LVL862:
	.loc 1 2723 3 view .LVU2692
	movq	line_vector(%rip), %rdi
	call	free@PLT
.LVL863:
	.loc 1 2724 3 view .LVU2693
	movq	end_vector(%rip), %rdi
	call	free@PLT
.LVL864:
	.loc 1 2725 3 view .LVU2694
	movq	buff(%rip), %rdi
	call	free@PLT
.LVL865:
.LBE609:
.LBE608:
	.loc 1 1146 3 view .LVU2695
	movq	16(%rsp), %rdi
	call	free@PLT
.LVL866:
	.loc 1 1148 3 view .LVU2696
	.loc 1 1148 6 is_stmt 0 view .LVU2697
	cmpb	$0, have_read_stdin(%rip)
	jne	.L878
.L832:
	.loc 1 1150 3 is_stmt 1 view .LVU2698
	.loc 1 1151 1 is_stmt 0 view .LVU2699
	movq	56(%rsp), %rbx
	xorq	%fs:40, %rbx
	.loc 1 1150 38 view .LVU2700
	movzbl	failed_opens(%rip), %eax
	.loc 1 1151 1 view .LVU2701
	jne	.L879
	addq	$72, %rsp
	.cfi_remember_state
	.cfi_def_cfa_offset 56
	popq	%rbx
	.cfi_def_cfa_offset 48
	popq	%rbp
	.cfi_def_cfa_offset 40
	popq	%r12
	.cfi_def_cfa_offset 32
.LVL867:
	.loc 1 1151 1 view .LVU2702
	popq	%r13
	.cfi_def_cfa_offset 24
.LVL868:
	.loc 1 1151 1 view .LVU2703
	popq	%r14
	.cfi_def_cfa_offset 16
.LVL869:
	.loc 1 1151 1 view .LVU2704
	popq	%r15
	.cfi_def_cfa_offset 8
	ret
.LVL870:
.L836:
	.cfi_restore_state
.LBB610:
	.loc 1 1005 17 view .LVU2705
	movb	$1, 31(%rsp)
	.loc 1 902 16 view .LVU2706
	xorl	%ebp, %ebp
	.loc 1 1004 23 view .LVU2707
	movb	$1, 29(%rsp)
.LVL871:
	.loc 1 1050 11 is_stmt 1 view .LVU2708
	jmp	.L768
.LVL872:
.L820:
	.loc 1 1050 11 is_stmt 0 view .LVU2709
.LBE610:
	.loc 1 1101 12 is_stmt 1 view .LVU2710
	.loc 1 1104 11 view .LVU2711
	.loc 1 1104 14 is_stmt 0 view .LVU2712
	cmpb	$1, use_col_separator(%rip)
	je	.L819
	cmpb	$0, 31(%rsp)
	je	.L819
	.loc 1 1104 21 discriminator 1 view .LVU2713
	testb	%dil, %dil
	jne	.L824
	.loc 1 1104 40 discriminator 2 view .LVU2714
	cmpb	$0, explicit_columns(%rip)
	je	.L819
.L824:
	.loc 1 1106 15 is_stmt 1 view .LVU2715
	.loc 1 1106 18 is_stmt 0 view .LVU2716
	cmpb	$0, truncate_lines(%rip)
	jne	.L825
	.loc 1 1110 19 is_stmt 1 view .LVU2717
	.loc 1 1111 22 is_stmt 0 view .LVU2718
	cmpl	$0, col_sep_length(%rip)
	.loc 1 1110 30 view .LVU2719
	movb	$1, join_lines(%rip)
	.loc 1 1111 19 is_stmt 1 view .LVU2720
	.loc 1 1111 22 is_stmt 0 view .LVU2721
	jle	.L819
.L825:
	.loc 1 1094 17 is_stmt 1 view .LVU2722
	.loc 1 1094 35 is_stmt 0 view .LVU2723
	movb	$1, use_col_separator(%rip)
	jmp	.L819
.L877:
	.loc 1 1137 9 is_stmt 1 view .LVU2724
	movl	24(%rsp), %edi
	call	print_files
.LVL873:
	jmp	.L829
.L876:
	.loc 1 1132 7 view .LVU2725
	xorl	%esi, %esi
	xorl	%edi, %edi
	call	print_files
.LVL874:
	jmp	.L829
.LVL875:
.L878:
	.loc 1 1148 26 is_stmt 0 discriminator 1 view .LVU2726
	movq	stdin(%rip), %rdi
	call	rpl_fclose@PLT
.LVL876:
	.loc 1 1148 23 discriminator 1 view .LVU2727
	addl	$1, %eax
	jne	.L832
.LBB611:
	.loc 1 1149 5 is_stmt 1 view .LVU2728
	movl	$5, %edx
	leaq	.LC11(%rip), %rsi
	xorl	%edi, %edi
	call	dcgettext@PLT
.LVL877:
	movq	%rax, %r12
.LVL878:
	.loc 1 1149 5 is_stmt 0 view .LVU2729
	call	__errno_location@PLT
.LVL879:
	movq	%r12, %rdx
	movl	$1, %edi
	movl	(%rax), %esi
	xorl	%eax, %eax
	call	error@PLT
.LVL880:
.L873:
	.loc 1 1149 5 view .LVU2730
.LBE611:
	.loc 1 1061 5 is_stmt 1 view .LVU2731
	.loc 1 1061 20 is_stmt 0 view .LVU2732
	leaq	.LC67(%rip), %rdi
	call	getenv@PLT
.LVL881:
	.loc 1 1063 20 view .LVU2733
	testq	%rax, %rax
	je	.L814
	.loc 1 1061 51 view .LVU2734
	movl	$2, %edi
	call	hard_locale@PLT
.LVL882:
	.loc 1 1061 47 view .LVU2735
	testb	%al, %al
	jne	.L814
	.loc 1 1063 20 view .LVU2736
	leaq	.LC56(%rip), %rax
	jmp	.L813
.L814:
	leaq	.LC55(%rip), %rax
.L813:
	.loc 1 1061 17 view .LVU2737
	movq	%rax, date_format(%rip)
	jmp	.L811
.LVL883:
.L773:
.LBB612:
	.loc 1 1047 9 is_stmt 1 view .LVU2738
	.loc 1 1047 57 view .LVU2739
	.loc 1 1049 11 view .LVU2740
	movl	$1, %edi
	call	usage
.LVL884:
.L822:
	.loc 1 1049 11 is_stmt 0 view .LVU2741
.LBE612:
	.loc 1 1099 13 is_stmt 1 view .LVU2742
	.loc 1 1099 24 is_stmt 0 view .LVU2743
	movb	$1, join_lines(%rip)
	jmp	.L819
.LVL885:
.L879:
	.loc 1 1151 1 view .LVU2744
	call	__stack_chk_fail@PLT
.LVL886:
.L874:
.LBB613:
	.loc 1 1072 5 is_stmt 1 view .LVU2745
	movl	$5, %edx
	leaq	.LC69(%rip), %rsi
	xorl	%edi, %edi
	call	dcgettext@PLT
.LVL887:
	xorl	%esi, %esi
	movl	$1, %edi
	movq	%rax, %rdx
	xorl	%eax, %eax
	call	error@PLT
.LVL888:
.L875:
.LBE613:
.LBB614:
	.loc 1 1076 5 view .LVU2746
	movl	$5, %edx
	leaq	.LC70(%rip), %rsi
	xorl	%edi, %edi
	call	dcgettext@PLT
.LVL889:
	xorl	%esi, %esi
	movl	$1, %edi
	movq	%rax, %rdx
	xorl	%eax, %eax
	call	error@PLT
.LVL890:
.L870:
	.loc 1 1076 5 is_stmt 0 view .LVU2747
.LBE614:
.LBB615:
.LBB605:
	.loc 1 919 15 is_stmt 1 view .LVU2748
	movq	optarg(%rip), %rdi
	call	quote@PLT
.LVL891:
	movl	$5, %edx
	leaq	.LC59(%rip), %rsi
	xorl	%edi, %edi
	movq	%rax, %r12
.LVL892:
	.loc 1 919 15 is_stmt 0 view .LVU2749
	call	dcgettext@PLT
.LVL893:
	movq	%r12, %rcx
	xorl	%esi, %esi
	movl	$1, %edi
	movq	%rax, %rdx
	xorl	%eax, %eax
	call	error@PLT
.LVL894:
.L869:
	.loc 1 919 15 view .LVU2750
.LBE605:
.LBB606:
	.loc 1 916 15 is_stmt 1 view .LVU2751
	movl	$5, %edx
	leaq	.LC58(%rip), %rsi
	xorl	%edi, %edi
	call	dcgettext@PLT
.LVL895:
	xorl	%esi, %esi
	movl	$1, %edi
	movq	%rax, %rdx
	xorl	%eax, %eax
	call	error@PLT
.LVL896:
.LBE606:
.LBE615:
	.cfi_endproc
.LFE149:
	.size	main, .-main
	.local	timespec.7573
	.comm	timespec.7573,16,16
	.section	.rodata.str1.1
.LC71:
	.string	"pages"
.LC72:
	.string	"columns"
.LC73:
	.string	"across"
.LC74:
	.string	"show-control-chars"
.LC75:
	.string	"double-space"
.LC76:
	.string	"date-format"
.LC77:
	.string	"expand-tabs"
.LC78:
	.string	"form-feed"
.LC79:
	.string	"header"
.LC80:
	.string	"output-tabs"
.LC81:
	.string	"join-lines"
.LC82:
	.string	"length"
.LC83:
	.string	"merge"
.LC84:
	.string	"number-lines"
.LC85:
	.string	"first-line-number"
.LC86:
	.string	"indent"
.LC87:
	.string	"no-file-warnings"
.LC88:
	.string	"separator"
.LC89:
	.string	"sep-string"
.LC90:
	.string	"omit-header"
.LC91:
	.string	"omit-pagination"
.LC92:
	.string	"show-nonprinting"
.LC93:
	.string	"width"
.LC94:
	.string	"page-width"
.LC95:
	.string	"help"
.LC96:
	.string	"version"
	.section	.data.rel.ro.local,"aw"
	.align 32
	.type	long_options, @object
	.size	long_options, 864
long_options:
	.quad	.LC71
	.long	1
	.zero	4
	.quad	0
	.long	129
	.zero	4
	.quad	.LC72
	.long	1
	.zero	4
	.quad	0
	.long	128
	.zero	4
	.quad	.LC73
	.long	0
	.zero	4
	.quad	0
	.long	97
	.zero	4
	.quad	.LC74
	.long	0
	.zero	4
	.quad	0
	.long	99
	.zero	4
	.quad	.LC75
	.long	0
	.zero	4
	.quad	0
	.long	100
	.zero	4
	.quad	.LC76
	.long	1
	.zero	4
	.quad	0
	.long	68
	.zero	4
	.quad	.LC77
	.long	2
	.zero	4
	.quad	0
	.long	101
	.zero	4
	.quad	.LC78
	.long	0
	.zero	4
	.quad	0
	.long	102
	.zero	4
	.quad	.LC79
	.long	1
	.zero	4
	.quad	0
	.long	104
	.zero	4
	.quad	.LC80
	.long	2
	.zero	4
	.quad	0
	.long	105
	.zero	4
	.quad	.LC81
	.long	0
	.zero	4
	.quad	0
	.long	74
	.zero	4
	.quad	.LC82
	.long	1
	.zero	4
	.quad	0
	.long	108
	.zero	4
	.quad	.LC83
	.long	0
	.zero	4
	.quad	0
	.long	109
	.zero	4
	.quad	.LC84
	.long	2
	.zero	4
	.quad	0
	.long	110
	.zero	4
	.quad	.LC85
	.long	1
	.zero	4
	.quad	0
	.long	78
	.zero	4
	.quad	.LC86
	.long	1
	.zero	4
	.quad	0
	.long	111
	.zero	4
	.quad	.LC87
	.long	0
	.zero	4
	.quad	0
	.long	114
	.zero	4
	.quad	.LC88
	.long	2
	.zero	4
	.quad	0
	.long	115
	.zero	4
	.quad	.LC89
	.long	2
	.zero	4
	.quad	0
	.long	83
	.zero	4
	.quad	.LC90
	.long	0
	.zero	4
	.quad	0
	.long	116
	.zero	4
	.quad	.LC91
	.long	0
	.zero	4
	.quad	0
	.long	84
	.zero	4
	.quad	.LC92
	.long	0
	.zero	4
	.quad	0
	.long	118
	.zero	4
	.quad	.LC93
	.long	1
	.zero	4
	.quad	0
	.long	119
	.zero	4
	.quad	.LC94
	.long	1
	.zero	4
	.quad	0
	.long	87
	.zero	4
	.quad	.LC95
	.long	0
	.zero	4
	.quad	0
	.long	-130
	.zero	4
	.quad	.LC96
	.long	0
	.zero	4
	.quad	0
	.long	-131
	.zero	4
	.quad	0
	.long	0
	.zero	4
	.quad	0
	.long	0
	.zero	4
	.section	.rodata
	.align 32
	.type	short_options, @object
	.size	short_options, 53
short_options:
	.string	"-0123456789D:FJN:S::TW:abcde::fh:i::l:mn::o:rs::tvw:"
	.local	last_line
	.comm	last_line,1,1
	.local	clump_buff
	.comm	clump_buff,8,8
	.local	header_width_available
	.comm	header_width_available,4,4
	.local	file_text
	.comm	file_text,8,8
	.local	date_text
	.comm	date_text,8,8
	.local	localtz
	.comm	localtz,8,8
	.local	date_format
	.comm	date_format,8,8
	.local	custom_header
	.comm	custom_header,8,8
	.local	pad_vertically
	.comm	pad_vertically,1,1
	.local	padding_not_printed
	.comm	padding_not_printed,4,4
	.local	separators_not_printed
	.comm	separators_not_printed,4,4
	.local	col_sep_length
	.comm	col_sep_length,4,4
	.section	.data.rel.local,"aw"
	.align 8
	.type	col_sep_string, @object
	.size	col_sep_string, 8
col_sep_string:
	.quad	.LC1
	.local	use_col_separator
	.comm	use_col_separator,1,1
	.local	ignore_failed_opens
	.comm	ignore_failed_opens,1,1
	.local	total_files
	.comm	total_files,4,4
	.local	double_space
	.comm	double_space,1,1
	.local	use_cntrl_prefix
	.comm	use_cntrl_prefix,1,1
	.local	use_esc_sequence
	.comm	use_esc_sequence,1,1
	.local	number_buff
	.comm	number_buff,8,8
	.local	number_width
	.comm	number_width,4,4
	.data
	.align 4
	.type	chars_per_number, @object
	.size	chars_per_number, 4
chars_per_number:
	.long	5
	.align 4
	.type	start_line_num, @object
	.size	start_line_num, 4
start_line_num:
	.long	1
	.type	skip_count, @object
	.size	skip_count, 1
skip_count:
	.byte	1
	.align 4
	.type	line_count, @object
	.size	line_count, 4
line_count:
	.long	1
	.type	number_separator, @object
	.size	number_separator, 1
number_separator:
	.byte	9
	.local	numbered_lines
	.comm	numbered_lines,1,1
	.local	line_number
	.comm	line_number,4,4
	.local	page_number
	.comm	page_number,8,8
	.local	files_ready_to_read
	.comm	files_ready_to_read,4,4
	.align 8
	.type	last_page_number, @object
	.size	last_page_number, 8
last_page_number:
	.quad	-1
	.local	first_page_number
	.comm	first_page_number,8,8
	.align 4
	.type	columns, @object
	.size	columns, 4
columns:
	.long	1
	.local	failed_opens
	.comm	failed_opens,1,1
	.local	input_position
	.comm	input_position,4,4
	.local	output_position
	.comm	output_position,4,4
	.local	chars_per_margin
	.comm	chars_per_margin,4,4
	.local	spaces_not_printed
	.comm	spaces_not_printed,4,4
	.align 4
	.type	chars_per_output_tab, @object
	.size	chars_per_output_tab, 4
chars_per_output_tab:
	.long	8
	.type	output_tab_char, @object
	.size	output_tab_char, 1
output_tab_char:
	.byte	9
	.local	tabify_output
	.comm	tabify_output,1,1
	.align 4
	.type	chars_per_input_tab, @object
	.size	chars_per_input_tab, 4
chars_per_input_tab:
	.long	8
	.type	input_tab_char, @object
	.size	input_tab_char, 1
input_tab_char:
	.byte	9
	.local	untabify_input
	.comm	untabify_input,1,1
	.local	chars_per_column
	.comm	chars_per_column,4,4
	.local	join_lines
	.comm	join_lines,1,1
	.local	truncate_lines
	.comm	truncate_lines,1,1
	.align 4
	.type	chars_per_line, @object
	.size	chars_per_line, 4
chars_per_line:
	.long	72
	.local	lines_per_body
	.comm	lines_per_body,4,4
	.align 4
	.type	lines_per_page, @object
	.size	lines_per_page, 4
lines_per_page:
	.long	66
	.local	balance_columns
	.comm	balance_columns,1,1
	.type	storing_columns, @object
	.size	storing_columns, 1
storing_columns:
	.byte	1
	.local	print_across_flag
	.comm	print_across_flag,1,1
	.local	have_read_stdin
	.comm	have_read_stdin,1,1
	.local	use_form_feed
	.comm	use_form_feed,1,1
	.local	print_a_header
	.comm	print_a_header,1,1
	.local	print_a_FF
	.comm	print_a_FF,1,1
	.local	keep_FF
	.comm	keep_FF,1,1
	.type	extremities, @object
	.size	extremities, 1
extremities:
	.byte	1
	.local	explicit_columns
	.comm	explicit_columns,1,1
	.local	FF_only
	.comm	FF_only,1,1
	.local	empty_line
	.comm	empty_line,1,1
	.local	align_empty_cols
	.comm	align_empty_cols,1,1
	.local	parallel_files
	.comm	parallel_files,1,1
	.local	end_vector
	.comm	end_vector,8,8
	.local	line_vector
	.comm	line_vector,8,8
	.local	buff_allocated
	.comm	buff_allocated,8,8
	.local	buff_current
	.comm	buff_current,4,4
	.local	buff
	.comm	buff,8,8
	.local	column_vector
	.comm	column_vector,8,8
	.text
.Letext0:
	.file 8 "/usr/include/x86_64-linux-gnu/bits/getopt_core.h"
	.file 9 "/usr/include/x86_64-linux-gnu/bits/getopt_ext.h"
	.file 10 "/usr/include/x86_64-linux-gnu/bits/types.h"
	.file 11 "/usr/include/x86_64-linux-gnu/bits/types/time_t.h"
	.file 12 "/usr/lib/gcc/x86_64-linux-gnu/9/include/stddef.h"
	.file 13 "/usr/include/x86_64-linux-gnu/bits/types/struct_timespec.h"
	.file 14 "./lib/sys/select.h"
	.file 15 "/usr/include/x86_64-linux-gnu/bits/types/struct_tm.h"
	.file 16 "/usr/include/time.h"
	.file 17 "./lib/time.h"
	.file 18 "/usr/include/x86_64-linux-gnu/bits/stat.h"
	.file 19 "/usr/include/signal.h"
	.file 20 "/usr/include/unistd.h"
	.file 21 "/usr/include/errno.h"
	.file 22 "src/version.h"
	.file 23 "./lib/exitfail.h"
	.file 24 "/usr/include/stdint.h"
	.file 25 "./lib/timespec.h"
	.file 26 "/usr/include/ctype.h"
	.file 27 "./lib/xalloc-oversized.h"
	.file 28 "/usr/include/x86_64-linux-gnu/bits/types/struct_FILE.h"
	.file 29 "/usr/include/x86_64-linux-gnu/bits/types/FILE.h"
	.file 30 "/usr/include/stdio.h"
	.file 31 "/usr/include/x86_64-linux-gnu/bits/sys_errlist.h"
	.file 32 "./lib/version-etc.h"
	.file 33 "./lib/progname.h"
	.file 34 "./lib/quotearg.h"
	.file 35 "./lib/error.h"
	.file 36 "./lib/fadvise.h"
	.file 37 "./lib/quote.h"
	.file 38 "./lib/xstrtol.h"
	.file 39 "/usr/include/libintl.h"
	.file 40 "/usr/include/locale.h"
	.file 41 "/usr/include/string.h"
	.file 42 "/usr/include/stdlib.h"
	.file 43 "./lib/mbswidth.h"
	.file 44 "./lib/strftime.h"
	.file 45 "./lib/inttostr.h"
	.file 46 "./lib/stdio.h"
	.file 47 "./lib/xdectoint.h"
	.file 48 "./lib/hard-locale.h"
	.file 49 "./lib/xstrtol-error.h"
	.file 50 "./lib/stdio-safer.h"
	.file 51 "<built-in>"
	.section	.note.GNU-stack,"",@progbits
	.section	.note.gnu.property,"a"
	.align 8
	.long	 1f - 0f
	.long	 4f - 1f
	.long	 5
0:
	.string	 "GNU"
1:
	.align 8
	.long	 0xc0000002
	.long	 3f - 2f
2:
	.long	 0x3
3:
	.align 8
4:
