	.file	"printenv.c"
	.text
.Ltext0:
	.section	.rodata.str1.1,"aMS",@progbits,1
.LC0:
	.string	"printenv"
.LC1:
	.string	" invocation"
.LC2:
	.string	""
	.section	.rodata.str1.8,"aMS",@progbits,1
	.align 8
.LC3:
	.string	"Try '%s --help' for more information.\n"
	.align 8
.LC4:
	.string	"Usage: %s [OPTION]... [VARIABLE]...\nPrint the values of the specified environment VARIABLE(s).\nIf no VARIABLE is specified, print name and value pairs for them all.\n\n"
	.align 8
.LC5:
	.string	"  -0, --null     end each output line with NUL, not newline\n"
	.align 8
.LC6:
	.string	"      --help     display this help and exit\n"
	.align 8
.LC7:
	.string	"      --version  output version information and exit\n"
	.align 8
.LC8:
	.string	"\nNOTE: your shell may have its own version of %s, which usually supersedes\nthe version described here.  Please refer to your shell's documentation\nfor details about the options it supports.\n"
	.section	.rodata.str1.1
.LC9:
	.string	"["
.LC10:
	.string	"test invocation"
.LC11:
	.string	"coreutils"
.LC12:
	.string	"Multi-call invocation"
.LC13:
	.string	"sha224sum"
.LC14:
	.string	"sha2 utilities"
.LC15:
	.string	"sha256sum"
.LC16:
	.string	"sha384sum"
.LC17:
	.string	"sha512sum"
.LC18:
	.string	"\n%s online help: <%s>\n"
	.section	.rodata.str1.8
	.align 8
.LC19:
	.string	"https://www.gnu.org/software/coreutils/"
	.section	.rodata.str1.1
.LC20:
	.string	"GNU coreutils"
.LC21:
	.string	"en_"
	.section	.rodata.str1.8
	.align 8
.LC22:
	.string	"Report any translation bugs to <https://translationproject.org/team/>\n"
	.section	.rodata.str1.1
.LC23:
	.string	"Full documentation <%s%s>\n"
	.section	.rodata.str1.8
	.align 8
.LC24:
	.string	"or available locally via: info '(coreutils) %s%s'\n"
	.text
	.p2align 4
	.globl	usage
	.type	usage, @function
usage:
.LVL0:
.LFB135:
	.file 1 "src/printenv.c"
	.loc 1 57 1 view -0
	.cfi_startproc
	.loc 1 57 1 is_stmt 0 view .LVU1
	endbr64
	pushq	%r13
	.cfi_def_cfa_offset 16
	.cfi_offset 13, -16
	.loc 1 59 5 view .LVU2
	movl	$5, %edx
	.loc 1 57 1 view .LVU3
	pushq	%r12
	.cfi_def_cfa_offset 24
	.cfi_offset 12, -24
	pushq	%rbp
	.cfi_def_cfa_offset 32
	.cfi_offset 6, -32
	movl	%edi, %ebp
	pushq	%rbx
	.cfi_def_cfa_offset 40
	.cfi_offset 3, -40
	subq	$136, %rsp
	.cfi_def_cfa_offset 176
	movq	program_name(%rip), %r12
	.loc 1 57 1 view .LVU4
	movq	%fs:40, %rax
	movq	%rax, 120(%rsp)
	xorl	%eax, %eax
	.loc 1 58 3 is_stmt 1 view .LVU5
	.loc 1 58 6 is_stmt 0 view .LVU6
	testl	%edi, %edi
	je	.L2
	.loc 1 59 5 is_stmt 1 view .LVU7
	.loc 1 59 5 view .LVU8
	leaq	.LC3(%rip), %rsi
	xorl	%edi, %edi
.LVL1:
	.loc 1 59 5 is_stmt 0 view .LVU9
	call	dcgettext@PLT
.LVL2:
.LBB48:
.LBB49:
	.file 2 "/usr/include/x86_64-linux-gnu/bits/stdio2.h"
	.loc 2 100 10 view .LVU10
	movq	stderr(%rip), %rdi
	movq	%r12, %rcx
	movl	$1, %esi
.LBE49:
.LBE48:
	.loc 1 59 5 view .LVU11
	movq	%rax, %rdx
.LVL3:
.LBB51:
.LBI48:
	.loc 2 98 1 is_stmt 1 view .LVU12
.LBB50:
	.loc 2 100 3 view .LVU13
	.loc 2 100 10 is_stmt 0 view .LVU14
	xorl	%eax, %eax
.LVL4:
	.loc 2 100 10 view .LVU15
	call	__fprintf_chk@PLT
.LVL5:
.L3:
	.loc 2 100 10 view .LVU16
.LBE50:
.LBE51:
	.loc 1 77 3 is_stmt 1 view .LVU17
	movl	%ebp, %edi
	call	exit@PLT
.LVL6:
.L2:
	.loc 1 62 7 view .LVU18
	.loc 1 62 15 is_stmt 0 view .LVU19
	leaq	.LC4(%rip), %rsi
	xorl	%edi, %edi
.LVL7:
.LBB52:
.LBB53:
	.file 3 "src/system.h"
	.loc 3 636 67 view .LVU20
	leaq	.LC15(%rip), %rbx
.LBE53:
.LBE52:
	.loc 1 62 15 view .LVU21
	call	dcgettext@PLT
.LVL8:
.LBB79:
.LBB80:
	.loc 2 107 10 view .LVU22
	movq	%r12, %rdx
	movl	$1, %edi
.LBE80:
.LBE79:
	.loc 1 62 15 view .LVU23
	movq	%rax, %rsi
.LVL9:
.LBB82:
.LBI79:
	.loc 2 105 1 is_stmt 1 view .LVU24
.LBB81:
	.loc 2 107 3 view .LVU25
	.loc 2 107 10 is_stmt 0 view .LVU26
	xorl	%eax, %eax
.LVL10:
	.loc 2 107 10 view .LVU27
	call	__printf_chk@PLT
.LVL11:
	.loc 2 107 10 view .LVU28
.LBE81:
.LBE82:
	.loc 1 69 7 is_stmt 1 view .LVU29
	movq	stdout(%rip), %r12
	movl	$5, %edx
	xorl	%edi, %edi
	leaq	.LC5(%rip), %rsi
	call	dcgettext@PLT
.LVL12:
	movq	%r12, %rsi
	movq	%rax, %rdi
	call	fputs_unlocked@PLT
.LVL13:
	.loc 1 72 7 view .LVU30
	movq	stdout(%rip), %r12
	movl	$5, %edx
	xorl	%edi, %edi
	leaq	.LC6(%rip), %rsi
	call	dcgettext@PLT
.LVL14:
	movq	%r12, %rsi
	movq	%rax, %rdi
	call	fputs_unlocked@PLT
.LVL15:
	.loc 1 73 7 view .LVU31
	movl	$5, %edx
	movq	stdout(%rip), %r12
	xorl	%edi, %edi
	leaq	.LC7(%rip), %rsi
	call	dcgettext@PLT
.LVL16:
	movq	%r12, %rsi
	movq	%rax, %rdi
	call	fputs_unlocked@PLT
.LVL17:
	.loc 1 74 7 view .LVU32
	.loc 1 74 15 is_stmt 0 view .LVU33
	movl	$5, %edx
	leaq	.LC8(%rip), %rsi
	xorl	%edi, %edi
	call	dcgettext@PLT
.LVL18:
.LBB83:
.LBB84:
	.loc 2 107 10 view .LVU34
	leaq	.LC0(%rip), %rdx
	movl	$1, %edi
.LBE84:
.LBE83:
	.loc 1 74 15 view .LVU35
	movq	%rax, %rsi
.LVL19:
.LBB86:
.LBI83:
	.loc 2 105 1 is_stmt 1 view .LVU36
.LBB85:
	.loc 2 107 3 view .LVU37
	.loc 2 107 10 is_stmt 0 view .LVU38
	xorl	%eax, %eax
.LVL20:
	.loc 2 107 10 view .LVU39
	call	__printf_chk@PLT
.LVL21:
	.loc 2 107 10 view .LVU40
.LBE85:
.LBE86:
	.loc 1 75 7 is_stmt 1 view .LVU41
.LBB87:
.LBI52:
	.loc 3 634 1 view .LVU42
.LBB78:
	.loc 3 636 3 view .LVU43
	.loc 3 636 67 is_stmt 0 view .LVU44
	leaq	.LC9(%rip), %rax
	movq	%rbx, 48(%rsp)
	leaq	.LC16(%rip), %rbx
	movq	%rax, (%rsp)
	leaq	.LC10(%rip), %rax
	movq	%rax, 8(%rsp)
	leaq	.LC11(%rip), %rax
	movq	%rax, 16(%rsp)
	leaq	.LC12(%rip), %rax
	movq	%rax, 24(%rsp)
	leaq	.LC13(%rip), %rax
	movq	$0, 96(%rsp)
	movq	$0, 104(%rsp)
	.loc 3 646 3 is_stmt 1 view .LVU45
.LVL22:
	.loc 3 647 3 view .LVU46
	.loc 3 649 3 view .LVU47
	.loc 3 649 9 view .LVU48
	.loc 3 636 67 is_stmt 0 view .LVU49
	movq	%rax, 32(%rsp)
	leaq	.LC14(%rip), %rax
	movq	%rbx, 64(%rsp)
	leaq	.LC17(%rip), %rbx
	movq	%rax, 40(%rsp)
	movq	%rax, 56(%rsp)
	movq	%rax, 72(%rsp)
	movq	%rbx, 80(%rsp)
	leaq	.LC0(%rip), %rbx
	movq	%rax, 88(%rsp)
	.loc 3 647 25 view .LVU50
	movq	%rsp, %rax
.LVL23:
	.p2align 4,,10
	.p2align 3
.L5:
	.loc 3 650 5 is_stmt 1 view .LVU51
	.loc 3 649 18 is_stmt 0 view .LVU52
	movq	16(%rax), %rdi
	.loc 3 650 13 view .LVU53
	addq	$16, %rax
.LVL24:
	.loc 3 649 9 is_stmt 1 view .LVU54
	testq	%rdi, %rdi
	je	.L4
	.loc 3 649 33 is_stmt 0 view .LVU55
	movl	$9, %ecx
	movq	%rbx, %rsi
	repz cmpsb
	seta	%dl
	sbbb	$0, %dl
	.loc 3 649 28 view .LVU56
	testb	%dl, %dl
	jne	.L5
.L4:
	.loc 3 652 3 is_stmt 1 view .LVU57
	.loc 3 652 15 is_stmt 0 view .LVU58
	movq	8(%rax), %r12
	.loc 3 655 11 view .LVU59
	movl	$5, %edx
	leaq	.LC18(%rip), %rsi
	xorl	%edi, %edi
	.loc 3 652 6 view .LVU60
	testq	%r12, %r12
	je	.L6
	.loc 3 653 5 is_stmt 1 view .LVU61
.LVL25:
	.loc 3 655 3 view .LVU62
	.loc 3 655 11 is_stmt 0 view .LVU63
	call	dcgettext@PLT
.LVL26:
.LBB54:
.LBB55:
	.loc 2 107 10 view .LVU64
	leaq	.LC19(%rip), %rcx
	movl	$1, %edi
	leaq	.LC20(%rip), %rdx
.LBE55:
.LBE54:
	.loc 3 655 11 view .LVU65
	movq	%rax, %rsi
.LVL27:
.LBB59:
.LBI54:
	.loc 2 105 1 is_stmt 1 view .LVU66
.LBB56:
	.loc 2 107 3 view .LVU67
	.loc 2 107 10 is_stmt 0 view .LVU68
	xorl	%eax, %eax
.LVL28:
	.loc 2 107 10 view .LVU69
	call	__printf_chk@PLT
.LVL29:
	.loc 2 107 10 view .LVU70
.LBE56:
.LBE59:
	.loc 3 659 3 is_stmt 1 view .LVU71
	.loc 3 659 29 is_stmt 0 view .LVU72
	movl	$5, %edi
	xorl	%esi, %esi
	call	setlocale@PLT
.LVL30:
	movq	%rax, %rdi
.LVL31:
	.loc 3 660 3 is_stmt 1 view .LVU73
	.loc 3 660 6 is_stmt 0 view .LVU74
	testq	%rax, %rax
	je	.L7
	.loc 3 660 22 view .LVU75
	movl	$3, %edx
	leaq	.LC21(%rip), %rsi
	call	strncmp@PLT
.LVL32:
	.loc 3 660 19 view .LVU76
	testl	%eax, %eax
	jne	.L10
.LVL33:
.L7:
	.loc 3 669 3 is_stmt 1 view .LVU77
	.loc 3 669 11 is_stmt 0 view .LVU78
	xorl	%edi, %edi
	movl	$5, %edx
	leaq	.LC23(%rip), %rsi
	call	dcgettext@PLT
.LVL34:
.LBB60:
.LBB61:
	.loc 2 107 10 view .LVU79
	leaq	.LC0(%rip), %rcx
	leaq	.LC19(%rip), %rdx
	movl	$1, %edi
.LBE61:
.LBE60:
	.loc 3 669 11 view .LVU80
	movq	%rax, %rsi
.LVL35:
.LBB67:
.LBI60:
	.loc 2 105 1 is_stmt 1 view .LVU81
.LBB62:
	.loc 2 107 3 view .LVU82
	.loc 2 107 10 is_stmt 0 view .LVU83
	xorl	%eax, %eax
.LVL36:
	.loc 2 107 10 view .LVU84
.LBE62:
.LBE67:
	.loc 3 671 3 view .LVU85
	leaq	.LC1(%rip), %r13
.LBB68:
.LBB63:
	.loc 2 107 10 view .LVU86
	call	__printf_chk@PLT
.LVL37:
	.loc 2 107 10 view .LVU87
.LBE63:
.LBE68:
	.loc 3 671 3 is_stmt 1 view .LVU88
	cmpq	%rbx, %r12
	leaq	.LC2(%rip), %rcx
	cmovne	%rcx, %r13
.L8:
	.loc 3 671 11 is_stmt 0 view .LVU89
	xorl	%edi, %edi
	leaq	.LC24(%rip), %rsi
	movl	$5, %edx
	call	dcgettext@PLT
.LVL38:
.LBB69:
.LBB70:
	.loc 2 107 10 view .LVU90
	movq	%r13, %rcx
	movq	%r12, %rdx
	movl	$1, %edi
.LBE70:
.LBE69:
	.loc 3 671 11 view .LVU91
	movq	%rax, %rsi
.LVL39:
.LBB72:
.LBI69:
	.loc 2 105 1 is_stmt 1 view .LVU92
.LBB71:
	.loc 2 107 3 view .LVU93
	.loc 2 107 10 is_stmt 0 view .LVU94
	xorl	%eax, %eax
.LVL40:
	.loc 2 107 10 view .LVU95
	call	__printf_chk@PLT
.LVL41:
	.loc 2 107 10 view .LVU96
.LBE71:
.LBE72:
	.loc 3 673 1 view .LVU97
	jmp	.L3
.LVL42:
.L6:
	.loc 3 655 3 is_stmt 1 view .LVU98
	.loc 3 655 11 is_stmt 0 view .LVU99
	call	dcgettext@PLT
.LVL43:
.LBB73:
.LBB57:
	.loc 2 107 10 view .LVU100
	leaq	.LC19(%rip), %rcx
	movl	$1, %edi
	leaq	.LC20(%rip), %rdx
.LBE57:
.LBE73:
	.loc 3 655 11 view .LVU101
	movq	%rax, %rsi
.LVL44:
.LBB74:
	.loc 2 105 1 is_stmt 1 view .LVU102
.LBB58:
	.loc 2 107 3 view .LVU103
	.loc 2 107 10 is_stmt 0 view .LVU104
	xorl	%eax, %eax
.LVL45:
	.loc 2 107 10 view .LVU105
	call	__printf_chk@PLT
.LVL46:
	.loc 2 107 10 view .LVU106
.LBE58:
.LBE74:
	.loc 3 659 3 is_stmt 1 view .LVU107
	.loc 3 659 29 is_stmt 0 view .LVU108
	movl	$5, %edi
	xorl	%esi, %esi
	call	setlocale@PLT
.LVL47:
	movq	%rax, %rdi
.LVL48:
	.loc 3 660 3 is_stmt 1 view .LVU109
	.loc 3 660 6 is_stmt 0 view .LVU110
	testq	%rax, %rax
	je	.L9
	.loc 3 660 22 view .LVU111
	movl	$3, %edx
	leaq	.LC21(%rip), %rsi
	call	strncmp@PLT
.LVL49:
	.loc 3 660 19 view .LVU112
	testl	%eax, %eax
	jne	.L29
.L9:
	.loc 3 669 3 is_stmt 1 view .LVU113
	.loc 3 669 11 is_stmt 0 view .LVU114
	movl	$5, %edx
	leaq	.LC23(%rip), %rsi
	xorl	%edi, %edi
	call	dcgettext@PLT
.LVL50:
.LBB75:
.LBB64:
	.loc 2 107 10 view .LVU115
	leaq	.LC0(%rip), %rcx
	leaq	.LC19(%rip), %rdx
	movl	$1, %edi
.LBE64:
.LBE75:
	.loc 3 669 11 view .LVU116
	movq	%rax, %rsi
.LVL51:
.LBB76:
	.loc 2 105 1 is_stmt 1 view .LVU117
.LBB65:
	.loc 2 107 3 view .LVU118
	.loc 2 107 10 is_stmt 0 view .LVU119
	xorl	%eax, %eax
.LVL52:
	.loc 2 107 10 view .LVU120
.LBE65:
.LBE76:
	.loc 3 646 15 view .LVU121
	leaq	.LC0(%rip), %r12
.LBB77:
.LBB66:
	.loc 2 107 10 view .LVU122
	call	__printf_chk@PLT
.LVL53:
	.loc 2 107 10 view .LVU123
.LBE66:
.LBE77:
	.loc 3 671 3 is_stmt 1 view .LVU124
	leaq	.LC1(%rip), %r13
	jmp	.L8
.L29:
	.loc 3 646 15 is_stmt 0 view .LVU125
	leaq	.LC0(%rip), %r12
.LVL54:
.L10:
	.loc 3 666 7 is_stmt 1 view .LVU126
	movq	stdout(%rip), %r13
	xorl	%edi, %edi
	movl	$5, %edx
	leaq	.LC22(%rip), %rsi
	call	dcgettext@PLT
.LVL55:
	movq	%rax, %rdi
	movq	%r13, %rsi
	call	fputs_unlocked@PLT
.LVL56:
	jmp	.L7
.LBE78:
.LBE87:
	.cfi_endproc
.LFE135:
	.size	usage, .-usage
	.section	.rodata.str1.1
.LC25:
	.string	"/usr/local/share/locale"
.LC26:
	.string	"Richard Mlynarik"
.LC27:
	.string	"David MacKenzie"
.LC28:
	.string	"+iu:0"
.LC29:
	.string	"%s%c"
	.section	.text.startup,"ax",@progbits
	.p2align 4
	.globl	main
	.type	main, @function
main:
.LVL57:
.LFB136:
	.loc 1 82 1 view -0
	.cfi_startproc
	.loc 1 82 1 is_stmt 0 view .LVU128
	endbr64
	.loc 1 83 3 is_stmt 1 view .LVU129
	.loc 1 84 3 view .LVU130
	.loc 1 85 3 view .LVU131
	.loc 1 86 3 view .LVU132
	.loc 1 87 3 view .LVU133
	.loc 1 88 3 view .LVU134
.LVL58:
	.loc 1 90 33 view .LVU135
	.loc 1 91 3 view .LVU136
	.loc 1 82 1 is_stmt 0 view .LVU137
	pushq	%r15
	.cfi_def_cfa_offset 16
	.cfi_offset 15, -16
	pushq	%r14
	.cfi_def_cfa_offset 24
	.cfi_offset 14, -24
	pushq	%r13
	.cfi_def_cfa_offset 32
	.cfi_offset 13, -32
	pushq	%r12
	.cfi_def_cfa_offset 40
	.cfi_offset 12, -40
	.loc 1 88 8 view .LVU138
	xorl	%r12d, %r12d
	.loc 1 82 1 view .LVU139
	pushq	%rbp
	.cfi_def_cfa_offset 48
	.cfi_offset 6, -48
	movl	%edi, %ebp
	pushq	%rbx
	.cfi_def_cfa_offset 56
	.cfi_offset 3, -56
	movq	%rsi, %rbx
	subq	$8, %rsp
	.cfi_def_cfa_offset 64
	.loc 1 91 3 view .LVU140
	movq	(%rsi), %rdi
.LVL59:
	.loc 1 91 3 view .LVU141
	call	set_program_name@PLT
.LVL60:
	.loc 1 92 3 is_stmt 1 view .LVU142
	leaq	.LC2(%rip), %rsi
	movl	$6, %edi
	call	setlocale@PLT
.LVL61:
	.loc 1 93 3 view .LVU143
	leaq	.LC25(%rip), %rsi
	leaq	.LC11(%rip), %rdi
	call	bindtextdomain@PLT
.LVL62:
	.loc 1 94 3 view .LVU144
	leaq	.LC11(%rip), %rdi
	call	textdomain@PLT
.LVL63:
	.loc 1 96 3 view .LVU145
.LBB88:
.LBI88:
	.loc 3 99 1 view .LVU146
.LBB89:
	.loc 3 101 3 view .LVU147
	.loc 3 102 5 view .LVU148
.LBE89:
.LBE88:
	.loc 1 97 3 is_stmt 0 view .LVU149
	movq	close_stdout@GOTPCREL(%rip), %rdi
.LBB91:
.LBB90:
	.loc 3 102 18 view .LVU150
	movl	$2, exit_failure(%rip)
.LVL64:
	.loc 3 102 18 view .LVU151
.LBE90:
.LBE91:
	.loc 1 97 3 is_stmt 1 view .LVU152
	call	atexit@PLT
.LVL65:
	.loc 1 99 3 view .LVU153
.L31:
	.loc 1 99 9 view .LVU154
	.loc 1 99 18 is_stmt 0 view .LVU155
	xorl	%r8d, %r8d
	leaq	longopts(%rip), %rcx
	movq	%rbx, %rsi
	movl	%ebp, %edi
	leaq	.LC28(%rip), %rdx
	call	getopt_long@PLT
.LVL66:
	.loc 1 99 9 view .LVU156
	cmpl	$-1, %eax
	je	.L61
	.loc 1 101 7 is_stmt 1 view .LVU157
	cmpl	$-130, %eax
	je	.L32
	movl	$1, %r12d
.LVL67:
	.loc 1 101 7 is_stmt 0 view .LVU158
	cmpl	$48, %eax
	je	.L31
	cmpl	$-131, %eax
	je	.L62
	.loc 1 107 9 is_stmt 1 view .LVU159
	.loc 1 107 57 view .LVU160
	.loc 1 109 11 view .LVU161
	movl	$2, %edi
	call	usage
.LVL68:
	.p2align 4,,10
	.p2align 3
.L62:
	.loc 1 106 9 view .LVU162
	.loc 1 106 30 view .LVU163
	.loc 1 107 9 view .LVU164
	subq	$8, %rsp
	.cfi_remember_state
	.cfi_def_cfa_offset 72
	movq	stdout(%rip), %rdi
	xorl	%eax, %eax
.LVL69:
	.loc 1 107 9 is_stmt 0 view .LVU165
	movq	Version(%rip), %rcx
	pushq	$0
	.cfi_def_cfa_offset 80
	leaq	.LC26(%rip), %r9
	leaq	.LC27(%rip), %r8
	leaq	.LC20(%rip), %rdx
	leaq	.LC0(%rip), %rsi
	call	version_etc@PLT
.LVL70:
	.loc 1 107 9 is_stmt 1 view .LVU166
	xorl	%edi, %edi
	call	exit@PLT
.LVL71:
.L61:
	.cfi_restore_state
	.loc 1 113 3 view .LVU167
	.loc 1 113 14 is_stmt 0 view .LVU168
	movslq	optind(%rip), %r14
	.loc 1 113 6 view .LVU169
	cmpl	%ebp, %r14d
	jl	.L36
	.loc 1 115 7 is_stmt 1 view .LVU170
	cmpb	$1, %r12b
	.loc 1 115 16 is_stmt 0 view .LVU171
	movq	environ(%rip), %rbx
.LVL72:
.LBB92:
.LBB93:
	.loc 2 107 10 view .LVU172
	leaq	.LC29(%rip), %r12
.LVL73:
	.loc 2 107 10 view .LVU173
	sbbl	%ebp, %ebp
.LVL74:
	.loc 2 107 10 view .LVU174
	andl	$10, %ebp
.LBE93:
.LBE92:
	.loc 1 115 7 view .LVU175
	jmp	.L37
.LVL75:
.L38:
	.loc 1 116 9 is_stmt 1 discriminator 4 view .LVU176
.LBB95:
.LBI92:
	.loc 2 105 1 discriminator 4 view .LVU177
.LBB94:
	.loc 2 107 3 discriminator 4 view .LVU178
	.loc 2 107 10 is_stmt 0 discriminator 4 view .LVU179
	movl	%ebp, %ecx
	movq	%r12, %rsi
	movl	$1, %edi
	xorl	%eax, %eax
	call	__printf_chk@PLT
.LVL76:
	.loc 2 107 10 discriminator 4 view .LVU180
.LBE94:
.LBE95:
	.loc 1 115 41 is_stmt 1 discriminator 4 view .LVU181
	addq	$8, %rbx
.LVL77:
.L37:
	.loc 1 115 27 discriminator 2 view .LVU182
	movq	(%rbx), %rdx
	.loc 1 115 7 is_stmt 0 discriminator 2 view .LVU183
	testq	%rdx, %rdx
	jne	.L38
	.loc 1 117 10 view .LVU184
	movl	$1, %eax
.LVL78:
.L39:
	.loc 1 153 3 is_stmt 1 view .LVU185
	.loc 1 153 28 is_stmt 0 view .LVU186
	xorl	$1, %eax
.LVL79:
	.loc 1 154 1 view .LVU187
	popq	%rdx
	.cfi_remember_state
	.cfi_def_cfa_offset 56
	popq	%rbx
	.cfi_def_cfa_offset 48
	.loc 1 153 28 view .LVU188
	movzbl	%al, %eax
	.loc 1 154 1 view .LVU189
	popq	%rbp
	.cfi_def_cfa_offset 40
	popq	%r12
	.cfi_def_cfa_offset 32
	popq	%r13
	.cfi_def_cfa_offset 24
	popq	%r14
	.cfi_def_cfa_offset 16
	popq	%r15
	.cfi_def_cfa_offset 8
	ret
.LVL80:
.L36:
	.cfi_restore_state
	.loc 1 154 1 view .LVU190
	cmpb	$1, %r12b
	sbbl	%r13d, %r13d
.LBB96:
	.loc 1 121 11 view .LVU191
	xorl	%r12d, %r12d
.LVL81:
	.loc 1 121 11 view .LVU192
	andl	$10, %r13d
	jmp	.L48
.LVL82:
.L40:
	.loc 1 123 34 is_stmt 1 discriminator 2 view .LVU193
	.loc 1 123 24 discriminator 2 view .LVU194
	addq	$1, %r14
.LVL83:
	.loc 1 123 7 is_stmt 0 discriminator 2 view .LVU195
	cmpl	%r14d, %ebp
	jle	.L63
.LVL84:
.L48:
.LBB97:
	.loc 1 125 11 is_stmt 1 view .LVU196
	.loc 1 128 11 view .LVU197
	.loc 1 128 15 is_stmt 0 view .LVU198
	movq	(%rbx,%r14,8), %rdi
	movl	$61, %esi
	call	strchr@PLT
.LVL85:
	.loc 1 128 14 view .LVU199
	testq	%rax, %rax
	jne	.L40
	.loc 1 131 11 is_stmt 1 view .LVU200
	.loc 1 131 20 is_stmt 0 view .LVU201
	movq	environ(%rip), %r15
.LVL86:
	.loc 1 125 16 view .LVU202
	xorl	%r8d, %r8d
.LVL87:
.L41:
	.loc 1 131 31 is_stmt 1 discriminator 1 view .LVU203
	movq	(%r15), %rcx
	.loc 1 131 11 is_stmt 0 discriminator 1 view .LVU204
	testq	%rcx, %rcx
	je	.L64
	.loc 1 133 15 is_stmt 1 view .LVU205
.LVL88:
	.loc 1 134 15 view .LVU206
	.loc 1 135 22 is_stmt 0 view .LVU207
	movzbl	(%rcx), %eax
	.loc 1 134 18 view .LVU208
	movq	(%rbx,%r14,8), %rdx
.LVL89:
	.loc 1 135 15 is_stmt 1 view .LVU209
	.loc 1 135 21 view .LVU210
	testb	%al, %al
	jne	.L42
	jmp	.L43
.LVL90:
	.p2align 4,,10
	.p2align 3
.L44:
	.loc 1 135 21 view .LVU211
	testb	%al, %al
	je	.L43
.L45:
	.loc 1 135 21 is_stmt 0 view .LVU212
.LBE97:
	.loc 1 121 11 discriminator 1 view .LVU213
	movq	%rdi, %rcx
.LVL91:
.L42:
.LBB102:
	.loc 1 135 37 discriminator 1 view .LVU214
	movzbl	(%rdx), %esi
	.loc 1 135 34 discriminator 1 view .LVU215
	testb	%sil, %sil
	je	.L43
	.loc 1 135 55 discriminator 2 view .LVU216
	leaq	1(%rcx), %rdi
.LVL92:
	.loc 1 135 64 discriminator 2 view .LVU217
	addq	$1, %rdx
.LVL93:
	.loc 1 135 49 discriminator 2 view .LVU218
	cmpb	%sil, %al
	jne	.L43
	.loc 1 137 19 is_stmt 1 view .LVU219
	.loc 1 137 23 is_stmt 0 view .LVU220
	movzbl	1(%rcx), %eax
	.loc 1 137 22 view .LVU221
	cmpb	$61, %al
	jne	.L44
	.loc 1 137 34 discriminator 1 view .LVU222
	cmpb	$0, (%rdx)
	jne	.L45
	.loc 1 139 23 is_stmt 1 discriminator 4 view .LVU223
.LVL94:
.LBB98:
.LBI98:
	.loc 2 105 1 discriminator 4 view .LVU224
.LBB99:
	.loc 2 107 3 discriminator 4 view .LVU225
.LBE99:
.LBE98:
	.loc 1 139 23 is_stmt 0 discriminator 4 view .LVU226
	leaq	2(%rcx), %rdx
.LVL95:
.LBB101:
.LBB100:
	.loc 2 107 10 discriminator 4 view .LVU227
	leaq	.LC29(%rip), %rsi
	movl	%r13d, %ecx
	xorl	%eax, %eax
	movl	$1, %edi
.LVL96:
	.loc 2 107 10 discriminator 4 view .LVU228
	call	__printf_chk@PLT
.LVL97:
	.loc 2 107 10 discriminator 4 view .LVU229
.LBE100:
.LBE101:
	.loc 1 141 23 is_stmt 1 discriminator 4 view .LVU230
	.loc 1 142 23 discriminator 4 view .LVU231
	.loc 1 141 31 is_stmt 0 discriminator 4 view .LVU232
	movl	$1, %r8d
.LVL98:
.L43:
	.loc 1 131 37 is_stmt 1 discriminator 2 view .LVU233
	addq	$8, %r15
.LVL99:
	.loc 1 131 37 is_stmt 0 discriminator 2 view .LVU234
	jmp	.L41
.L64:
	.loc 1 147 11 is_stmt 1 view .LVU235
	.loc 1 147 19 is_stmt 0 view .LVU236
	addl	%r8d, %r12d
.LVL100:
	.loc 1 147 19 view .LVU237
	jmp	.L40
.LVL101:
.L63:
	.loc 1 147 19 view .LVU238
.LBE102:
	.loc 1 150 7 is_stmt 1 view .LVU239
	.loc 1 150 29 is_stmt 0 view .LVU240
	subl	optind(%rip), %ebp
.LVL102:
	.loc 1 150 10 view .LVU241
	cmpl	%r12d, %ebp
	sete	%al
.LVL103:
	.loc 1 150 10 view .LVU242
	jmp	.L39
.LVL104:
.L32:
	.loc 1 150 10 view .LVU243
.LBE96:
	.loc 1 106 9 is_stmt 1 view .LVU244
	xorl	%edi, %edi
	call	usage
.LVL105:
	.loc 1 106 9 is_stmt 0 view .LVU245
	.cfi_endproc
.LFE136:
	.size	main, .-main
	.section	.rodata.str1.1
.LC30:
	.string	"null"
.LC31:
	.string	"help"
.LC32:
	.string	"version"
	.section	.data.rel.ro.local,"aw"
	.align 32
	.type	longopts, @object
	.size	longopts, 128
longopts:
	.quad	.LC30
	.long	0
	.zero	4
	.quad	0
	.long	48
	.zero	4
	.quad	.LC31
	.long	0
	.zero	4
	.quad	0
	.long	-130
	.zero	4
	.quad	.LC32
	.long	0
	.zero	4
	.quad	0
	.long	-131
	.zero	4
	.quad	0
	.long	0
	.zero	4
	.quad	0
	.long	0
	.zero	4
	.text
.Letext0:
	.file 4 "/usr/lib/gcc/x86_64-linux-gnu/9/include/stddef.h"
	.file 5 "/usr/include/x86_64-linux-gnu/bits/types.h"
	.file 6 "/usr/include/x86_64-linux-gnu/bits/types/struct_FILE.h"
	.file 7 "/usr/include/x86_64-linux-gnu/bits/types/FILE.h"
	.file 8 "/usr/include/stdio.h"
	.file 9 "/usr/include/x86_64-linux-gnu/bits/sys_errlist.h"
	.file 10 "/usr/include/x86_64-linux-gnu/bits/types/time_t.h"
	.file 11 "./lib/sys/select.h"
	.file 12 "/usr/include/x86_64-linux-gnu/bits/getopt_core.h"
	.file 13 "/usr/include/x86_64-linux-gnu/bits/getopt_ext.h"
	.file 14 "/usr/include/time.h"
	.file 15 "/usr/include/signal.h"
	.file 16 "/usr/include/unistd.h"
	.file 17 "/usr/include/errno.h"
	.file 18 "src/version.h"
	.file 19 "./lib/exitfail.h"
	.file 20 "./lib/timespec.h"
	.file 21 "./lib/version-etc.h"
	.file 22 "./lib/progname.h"
	.file 23 "./lib/quotearg.h"
	.file 24 "/usr/include/string.h"
	.file 25 "/usr/include/locale.h"
	.file 26 "/usr/include/libintl.h"
	.file 27 "/usr/include/stdlib.h"
	.section	.note.GNU-stack,"",@progbits
	.section	.note.gnu.property,"a"
	.align 8
	.long	 1f - 0f
	.long	 4f - 1f
	.long	 5
0:
	.string	 "GNU"
1:
	.align 8
	.long	 0xc0000002
	.long	 3f - 2f
2:
	.long	 0x3
3:
	.align 8
4:
