	.file	"readlink.c"
	.text
.Ltext0:
	.section	.rodata.str1.1,"aMS",@progbits,1
.LC0:
	.string	"readlink"
.LC1:
	.string	" invocation"
.LC2:
	.string	""
	.section	.rodata.str1.8,"aMS",@progbits,1
	.align 8
.LC3:
	.string	"Try '%s --help' for more information.\n"
	.align 8
.LC4:
	.string	"Usage: %s [OPTION]... FILE...\n"
	.align 8
.LC5:
	.string	"Print value of a symbolic link or canonical file name\n\n"
	.align 8
.LC6:
	.ascii	"  -f, --canonicalize            canonicalize by following ev"
	.ascii	"ery symlink in\n                                every compon"
	.ascii	"ent of the given name recursively;\n                        "
	.ascii	"  "
	.string	"      all but the last component must exist\n  -e, --canonicalize-existing   canonicalize by following every symlink in\n                                every component of the given name recursively,\n                                all components must exist\n"
	.align 8
.LC7:
	.ascii	"  -m, --canonicalize-missing    canonicalize by following ev"
	.ascii	"ery symlink in\n                                every compon"
	.ascii	"ent of the given name recursively,\n                        "
	.ascii	"        without requirements on components existence\n  -n, "
	.ascii	"--no-newline              d"
	.string	"o not output the trailing delimiter\n  -q, --quiet\n  -s, --silent                  suppress most error messages (on by default)\n  -v, --verbose                 report error messages\n  -z, --zero                    end each output line with NUL, not newline\n"
	.align 8
.LC8:
	.string	"      --help     display this help and exit\n"
	.align 8
.LC9:
	.string	"      --version  output version information and exit\n"
	.section	.rodata.str1.1
.LC10:
	.string	"["
.LC11:
	.string	"test invocation"
.LC12:
	.string	"coreutils"
.LC13:
	.string	"Multi-call invocation"
.LC14:
	.string	"sha224sum"
.LC15:
	.string	"sha2 utilities"
.LC16:
	.string	"sha256sum"
.LC17:
	.string	"sha384sum"
.LC18:
	.string	"sha512sum"
.LC19:
	.string	"\n%s online help: <%s>\n"
	.section	.rodata.str1.8
	.align 8
.LC20:
	.string	"https://www.gnu.org/software/coreutils/"
	.section	.rodata.str1.1
.LC21:
	.string	"GNU coreutils"
.LC22:
	.string	"en_"
	.section	.rodata.str1.8
	.align 8
.LC23:
	.string	"Report any translation bugs to <https://translationproject.org/team/>\n"
	.section	.rodata.str1.1
.LC24:
	.string	"Full documentation <%s%s>\n"
	.section	.rodata.str1.8
	.align 8
.LC25:
	.string	"or available locally via: info '(coreutils) %s%s'\n"
	.text
	.p2align 4
	.globl	usage
	.type	usage, @function
usage:
.LVL0:
.LFB135:
	.file 1 "src/readlink.c"
	.loc 1 57 1 view -0
	.cfi_startproc
	.loc 1 57 1 is_stmt 0 view .LVU1
	endbr64
	pushq	%r13
	.cfi_def_cfa_offset 16
	.cfi_offset 13, -16
	.loc 1 59 5 view .LVU2
	movl	$5, %edx
	.loc 1 57 1 view .LVU3
	pushq	%r12
	.cfi_def_cfa_offset 24
	.cfi_offset 12, -24
	pushq	%rbp
	.cfi_def_cfa_offset 32
	.cfi_offset 6, -32
	movl	%edi, %ebp
	pushq	%rbx
	.cfi_def_cfa_offset 40
	.cfi_offset 3, -40
	subq	$136, %rsp
	.cfi_def_cfa_offset 176
	movq	program_name(%rip), %r12
	.loc 1 57 1 view .LVU4
	movq	%fs:40, %rax
	movq	%rax, 120(%rsp)
	xorl	%eax, %eax
	.loc 1 58 3 is_stmt 1 view .LVU5
	.loc 1 58 6 is_stmt 0 view .LVU6
	testl	%edi, %edi
	je	.L2
	.loc 1 59 5 is_stmt 1 view .LVU7
	.loc 1 59 5 view .LVU8
	leaq	.LC3(%rip), %rsi
	xorl	%edi, %edi
.LVL1:
	.loc 1 59 5 is_stmt 0 view .LVU9
	call	dcgettext@PLT
.LVL2:
.LBB33:
.LBB34:
	.file 2 "/usr/include/x86_64-linux-gnu/bits/stdio2.h"
	.loc 2 100 10 view .LVU10
	movq	stderr(%rip), %rdi
	movq	%r12, %rcx
	movl	$1, %esi
.LBE34:
.LBE33:
	.loc 1 59 5 view .LVU11
	movq	%rax, %rdx
.LVL3:
.LBB36:
.LBI33:
	.loc 2 98 1 is_stmt 1 view .LVU12
.LBB35:
	.loc 2 100 3 view .LVU13
	.loc 2 100 10 is_stmt 0 view .LVU14
	xorl	%eax, %eax
.LVL4:
	.loc 2 100 10 view .LVU15
	call	__fprintf_chk@PLT
.LVL5:
.L3:
	.loc 2 100 10 view .LVU16
.LBE35:
.LBE36:
	.loc 1 90 3 is_stmt 1 view .LVU17
	movl	%ebp, %edi
	call	exit@PLT
.LVL6:
.L2:
	.loc 1 62 7 view .LVU18
	.loc 1 62 15 is_stmt 0 view .LVU19
	leaq	.LC4(%rip), %rsi
	xorl	%edi, %edi
.LVL7:
.LBB37:
.LBB38:
	.file 3 "src/system.h"
	.loc 3 636 67 view .LVU20
	leaq	.LC16(%rip), %rbx
.LBE38:
.LBE37:
	.loc 1 62 15 view .LVU21
	call	dcgettext@PLT
.LVL8:
.LBB64:
.LBB65:
	.loc 2 107 10 view .LVU22
	movq	%r12, %rdx
	movl	$1, %edi
.LBE65:
.LBE64:
	.loc 1 62 15 view .LVU23
	movq	%rax, %rsi
.LVL9:
.LBB67:
.LBI64:
	.loc 2 105 1 is_stmt 1 view .LVU24
.LBB66:
	.loc 2 107 3 view .LVU25
	.loc 2 107 10 is_stmt 0 view .LVU26
	xorl	%eax, %eax
.LVL10:
	.loc 2 107 10 view .LVU27
	call	__printf_chk@PLT
.LVL11:
	.loc 2 107 10 view .LVU28
.LBE66:
.LBE67:
	.loc 1 63 7 is_stmt 1 view .LVU29
	movq	stdout(%rip), %r12
	movl	$5, %edx
	xorl	%edi, %edi
	leaq	.LC5(%rip), %rsi
	call	dcgettext@PLT
.LVL12:
	movq	%r12, %rsi
	movq	%rax, %rdi
	call	fputs_unlocked@PLT
.LVL13:
	.loc 1 65 7 view .LVU30
	movq	stdout(%rip), %r12
	movl	$5, %edx
	xorl	%edi, %edi
	leaq	.LC6(%rip), %rsi
	call	dcgettext@PLT
.LVL14:
	movq	%r12, %rsi
	movq	%rax, %rdi
	call	fputs_unlocked@PLT
.LVL15:
	.loc 1 75 7 view .LVU31
	movq	stdout(%rip), %r12
	movl	$5, %edx
	xorl	%edi, %edi
	leaq	.LC7(%rip), %rsi
	call	dcgettext@PLT
.LVL16:
	movq	%r12, %rsi
	movq	%rax, %rdi
	call	fputs_unlocked@PLT
.LVL17:
	.loc 1 86 7 view .LVU32
	movq	stdout(%rip), %r12
	movl	$5, %edx
	xorl	%edi, %edi
	leaq	.LC8(%rip), %rsi
	call	dcgettext@PLT
.LVL18:
	movq	%r12, %rsi
	movq	%rax, %rdi
	call	fputs_unlocked@PLT
.LVL19:
	.loc 1 87 7 view .LVU33
	movq	stdout(%rip), %r12
	movl	$5, %edx
	xorl	%edi, %edi
	leaq	.LC9(%rip), %rsi
	call	dcgettext@PLT
.LVL20:
	movq	%r12, %rsi
	movq	%rax, %rdi
	call	fputs_unlocked@PLT
.LVL21:
	.loc 1 88 7 view .LVU34
.LBB68:
.LBI37:
	.loc 3 634 1 view .LVU35
.LBB63:
	.loc 3 636 3 view .LVU36
	.loc 3 636 67 is_stmt 0 view .LVU37
	leaq	.LC10(%rip), %rax
	movq	%rbx, 48(%rsp)
	leaq	.LC17(%rip), %rbx
	movq	%rax, (%rsp)
	leaq	.LC11(%rip), %rax
	movq	%rax, 8(%rsp)
	leaq	.LC12(%rip), %rax
	movq	%rax, 16(%rsp)
	leaq	.LC13(%rip), %rax
	movq	%rax, 24(%rsp)
	leaq	.LC14(%rip), %rax
	movq	$0, 96(%rsp)
	movq	$0, 104(%rsp)
	.loc 3 646 3 is_stmt 1 view .LVU38
.LVL22:
	.loc 3 647 3 view .LVU39
	.loc 3 649 3 view .LVU40
	.loc 3 649 9 view .LVU41
	.loc 3 636 67 is_stmt 0 view .LVU42
	movq	%rax, 32(%rsp)
	leaq	.LC15(%rip), %rax
	movq	%rbx, 64(%rsp)
	leaq	.LC18(%rip), %rbx
	movq	%rax, 40(%rsp)
	movq	%rax, 56(%rsp)
	movq	%rax, 72(%rsp)
	movq	%rbx, 80(%rsp)
	leaq	.LC0(%rip), %rbx
	movq	%rax, 88(%rsp)
	.loc 3 647 25 view .LVU43
	movq	%rsp, %rax
.LVL23:
	.p2align 4,,10
	.p2align 3
.L5:
	.loc 3 650 5 is_stmt 1 view .LVU44
	.loc 3 649 18 is_stmt 0 view .LVU45
	movq	16(%rax), %rdi
	.loc 3 650 13 view .LVU46
	addq	$16, %rax
.LVL24:
	.loc 3 649 9 is_stmt 1 view .LVU47
	testq	%rdi, %rdi
	je	.L4
	.loc 3 649 33 is_stmt 0 view .LVU48
	movl	$9, %ecx
	movq	%rbx, %rsi
	repz cmpsb
	seta	%dl
	sbbb	$0, %dl
	.loc 3 649 28 view .LVU49
	testb	%dl, %dl
	jne	.L5
.L4:
	.loc 3 652 3 is_stmt 1 view .LVU50
	.loc 3 652 15 is_stmt 0 view .LVU51
	movq	8(%rax), %r12
	.loc 3 655 11 view .LVU52
	movl	$5, %edx
	leaq	.LC19(%rip), %rsi
	xorl	%edi, %edi
	.loc 3 652 6 view .LVU53
	testq	%r12, %r12
	je	.L6
	.loc 3 653 5 is_stmt 1 view .LVU54
.LVL25:
	.loc 3 655 3 view .LVU55
	.loc 3 655 11 is_stmt 0 view .LVU56
	call	dcgettext@PLT
.LVL26:
.LBB39:
.LBB40:
	.loc 2 107 10 view .LVU57
	leaq	.LC20(%rip), %rcx
	movl	$1, %edi
	leaq	.LC21(%rip), %rdx
.LBE40:
.LBE39:
	.loc 3 655 11 view .LVU58
	movq	%rax, %rsi
.LVL27:
.LBB44:
.LBI39:
	.loc 2 105 1 is_stmt 1 view .LVU59
.LBB41:
	.loc 2 107 3 view .LVU60
	.loc 2 107 10 is_stmt 0 view .LVU61
	xorl	%eax, %eax
.LVL28:
	.loc 2 107 10 view .LVU62
	call	__printf_chk@PLT
.LVL29:
	.loc 2 107 10 view .LVU63
.LBE41:
.LBE44:
	.loc 3 659 3 is_stmt 1 view .LVU64
	.loc 3 659 29 is_stmt 0 view .LVU65
	movl	$5, %edi
	xorl	%esi, %esi
	call	setlocale@PLT
.LVL30:
	movq	%rax, %rdi
.LVL31:
	.loc 3 660 3 is_stmt 1 view .LVU66
	.loc 3 660 6 is_stmt 0 view .LVU67
	testq	%rax, %rax
	je	.L7
	.loc 3 660 22 view .LVU68
	movl	$3, %edx
	leaq	.LC22(%rip), %rsi
	call	strncmp@PLT
.LVL32:
	.loc 3 660 19 view .LVU69
	testl	%eax, %eax
	jne	.L10
.LVL33:
.L7:
	.loc 3 669 3 is_stmt 1 view .LVU70
	.loc 3 669 11 is_stmt 0 view .LVU71
	xorl	%edi, %edi
	movl	$5, %edx
	leaq	.LC24(%rip), %rsi
	call	dcgettext@PLT
.LVL34:
.LBB45:
.LBB46:
	.loc 2 107 10 view .LVU72
	leaq	.LC0(%rip), %rcx
	leaq	.LC20(%rip), %rdx
	movl	$1, %edi
.LBE46:
.LBE45:
	.loc 3 669 11 view .LVU73
	movq	%rax, %rsi
.LVL35:
.LBB52:
.LBI45:
	.loc 2 105 1 is_stmt 1 view .LVU74
.LBB47:
	.loc 2 107 3 view .LVU75
	.loc 2 107 10 is_stmt 0 view .LVU76
	xorl	%eax, %eax
.LVL36:
	.loc 2 107 10 view .LVU77
.LBE47:
.LBE52:
	.loc 3 671 3 view .LVU78
	leaq	.LC1(%rip), %r13
.LBB53:
.LBB48:
	.loc 2 107 10 view .LVU79
	call	__printf_chk@PLT
.LVL37:
	.loc 2 107 10 view .LVU80
.LBE48:
.LBE53:
	.loc 3 671 3 is_stmt 1 view .LVU81
	cmpq	%rbx, %r12
	leaq	.LC2(%rip), %rcx
	cmovne	%rcx, %r13
.L8:
	.loc 3 671 11 is_stmt 0 view .LVU82
	xorl	%edi, %edi
	leaq	.LC25(%rip), %rsi
	movl	$5, %edx
	call	dcgettext@PLT
.LVL38:
.LBB54:
.LBB55:
	.loc 2 107 10 view .LVU83
	movq	%r13, %rcx
	movq	%r12, %rdx
	movl	$1, %edi
.LBE55:
.LBE54:
	.loc 3 671 11 view .LVU84
	movq	%rax, %rsi
.LVL39:
.LBB57:
.LBI54:
	.loc 2 105 1 is_stmt 1 view .LVU85
.LBB56:
	.loc 2 107 3 view .LVU86
	.loc 2 107 10 is_stmt 0 view .LVU87
	xorl	%eax, %eax
.LVL40:
	.loc 2 107 10 view .LVU88
	call	__printf_chk@PLT
.LVL41:
	.loc 2 107 10 view .LVU89
.LBE56:
.LBE57:
	.loc 3 673 1 view .LVU90
	jmp	.L3
.LVL42:
.L6:
	.loc 3 655 3 is_stmt 1 view .LVU91
	.loc 3 655 11 is_stmt 0 view .LVU92
	call	dcgettext@PLT
.LVL43:
.LBB58:
.LBB42:
	.loc 2 107 10 view .LVU93
	leaq	.LC20(%rip), %rcx
	movl	$1, %edi
	leaq	.LC21(%rip), %rdx
.LBE42:
.LBE58:
	.loc 3 655 11 view .LVU94
	movq	%rax, %rsi
.LVL44:
.LBB59:
	.loc 2 105 1 is_stmt 1 view .LVU95
.LBB43:
	.loc 2 107 3 view .LVU96
	.loc 2 107 10 is_stmt 0 view .LVU97
	xorl	%eax, %eax
.LVL45:
	.loc 2 107 10 view .LVU98
	call	__printf_chk@PLT
.LVL46:
	.loc 2 107 10 view .LVU99
.LBE43:
.LBE59:
	.loc 3 659 3 is_stmt 1 view .LVU100
	.loc 3 659 29 is_stmt 0 view .LVU101
	movl	$5, %edi
	xorl	%esi, %esi
	call	setlocale@PLT
.LVL47:
	movq	%rax, %rdi
.LVL48:
	.loc 3 660 3 is_stmt 1 view .LVU102
	.loc 3 660 6 is_stmt 0 view .LVU103
	testq	%rax, %rax
	je	.L9
	.loc 3 660 22 view .LVU104
	movl	$3, %edx
	leaq	.LC22(%rip), %rsi
	call	strncmp@PLT
.LVL49:
	.loc 3 660 19 view .LVU105
	testl	%eax, %eax
	jne	.L29
.L9:
	.loc 3 669 3 is_stmt 1 view .LVU106
	.loc 3 669 11 is_stmt 0 view .LVU107
	movl	$5, %edx
	leaq	.LC24(%rip), %rsi
	xorl	%edi, %edi
	call	dcgettext@PLT
.LVL50:
.LBB60:
.LBB49:
	.loc 2 107 10 view .LVU108
	leaq	.LC0(%rip), %rcx
	leaq	.LC20(%rip), %rdx
	movl	$1, %edi
.LBE49:
.LBE60:
	.loc 3 669 11 view .LVU109
	movq	%rax, %rsi
.LVL51:
.LBB61:
	.loc 2 105 1 is_stmt 1 view .LVU110
.LBB50:
	.loc 2 107 3 view .LVU111
	.loc 2 107 10 is_stmt 0 view .LVU112
	xorl	%eax, %eax
.LVL52:
	.loc 2 107 10 view .LVU113
.LBE50:
.LBE61:
	.loc 3 646 15 view .LVU114
	leaq	.LC0(%rip), %r12
.LBB62:
.LBB51:
	.loc 2 107 10 view .LVU115
	call	__printf_chk@PLT
.LVL53:
	.loc 2 107 10 view .LVU116
.LBE51:
.LBE62:
	.loc 3 671 3 is_stmt 1 view .LVU117
	leaq	.LC1(%rip), %r13
	jmp	.L8
.L29:
	.loc 3 646 15 is_stmt 0 view .LVU118
	leaq	.LC0(%rip), %r12
.LVL54:
.L10:
	.loc 3 666 7 is_stmt 1 view .LVU119
	movq	stdout(%rip), %r13
	xorl	%edi, %edi
	movl	$5, %edx
	leaq	.LC23(%rip), %rsi
	call	dcgettext@PLT
.LVL55:
	movq	%rax, %rdi
	movq	%r13, %rsi
	call	fputs_unlocked@PLT
.LVL56:
	jmp	.L7
.LBE63:
.LBE68:
	.cfi_endproc
.LFE135:
	.size	usage, .-usage
	.section	.rodata.str1.1
.LC26:
	.string	"/usr/local/share/locale"
.LC27:
	.string	"Dmitry V. Levin"
.LC28:
	.string	"efmnqsvz"
.LC29:
	.string	"missing operand"
	.section	.rodata.str1.8
	.align 8
.LC30:
	.string	"ignoring --no-newline with multiple arguments"
	.section	.rodata.str1.1
.LC31:
	.string	"%s"
	.section	.text.startup,"ax",@progbits
	.p2align 4
	.globl	main
	.type	main, @function
main:
.LVL57:
.LFB136:
	.loc 1 95 1 view -0
	.cfi_startproc
	.loc 1 95 1 is_stmt 0 view .LVU121
	endbr64
	.loc 1 97 3 is_stmt 1 view .LVU122
.LVL58:
	.loc 1 98 3 view .LVU123
	.loc 1 99 3 view .LVU124
	.loc 1 100 3 view .LVU125
	.loc 1 102 33 view .LVU126
	.loc 1 103 3 view .LVU127
	.loc 1 95 1 is_stmt 0 view .LVU128
	pushq	%r15
	.cfi_def_cfa_offset 16
	.cfi_offset 15, -16
	pushq	%r14
	.cfi_def_cfa_offset 24
	.cfi_offset 14, -24
	.loc 1 100 8 view .LVU129
	xorl	%r14d, %r14d
	.loc 1 95 1 view .LVU130
	pushq	%r13
	.cfi_def_cfa_offset 32
	.cfi_offset 13, -32
	movl	%edi, %r13d
	pushq	%r12
	.cfi_def_cfa_offset 40
	.cfi_offset 12, -40
	movq	%rsi, %r12
	pushq	%rbp
	.cfi_def_cfa_offset 48
	.cfi_offset 6, -48
	leaq	.L37(%rip), %rbp
	pushq	%rbx
	.cfi_def_cfa_offset 56
	.cfi_offset 3, -56
	.loc 1 97 7 view .LVU131
	movl	$-1, %ebx
	.loc 1 95 1 view .LVU132
	subq	$24, %rsp
	.cfi_def_cfa_offset 80
	.loc 1 103 3 view .LVU133
	movq	(%rsi), %rdi
.LVL59:
	.loc 1 103 3 view .LVU134
	call	set_program_name@PLT
.LVL60:
	.loc 1 104 3 is_stmt 1 view .LVU135
	leaq	.LC2(%rip), %rsi
	movl	$6, %edi
	call	setlocale@PLT
.LVL61:
	.loc 1 105 3 view .LVU136
	leaq	.LC26(%rip), %rsi
	leaq	.LC12(%rip), %rdi
	call	bindtextdomain@PLT
.LVL62:
	.loc 1 106 3 view .LVU137
	leaq	.LC12(%rip), %rdi
	call	textdomain@PLT
.LVL63:
	.loc 1 108 3 view .LVU138
	movq	close_stdout@GOTPCREL(%rip), %rdi
	call	atexit@PLT
.LVL64:
	.loc 1 110 3 view .LVU139
.L31:
	.loc 1 110 9 view .LVU140
	.loc 1 110 18 is_stmt 0 view .LVU141
	xorl	%r8d, %r8d
	leaq	longopts(%rip), %rcx
	movq	%r12, %rsi
	movl	%r13d, %edi
	leaq	.LC28(%rip), %rdx
	call	getopt_long@PLT
.LVL65:
	.loc 1 110 9 view .LVU142
	cmpl	$-1, %eax
	je	.L65
	.loc 1 112 7 is_stmt 1 view .LVU143
	cmpl	$122, %eax
	jg	.L64
	cmpl	$100, %eax
	jle	.L66
	subl	$101, %eax
.LVL66:
	.loc 1 112 7 is_stmt 0 view .LVU144
	cmpl	$21, %eax
	ja	.L64
	movslq	0(%rbp,%rax,4), %rax
	addq	%rbp, %rax
	notrack jmp	*%rax
	.section	.rodata
	.align 4
	.align 4
.L37:
	.long	.L43-.L37
	.long	.L42-.L37
	.long	.L64-.L37
	.long	.L64-.L37
	.long	.L64-.L37
	.long	.L64-.L37
	.long	.L64-.L37
	.long	.L64-.L37
	.long	.L56-.L37
	.long	.L40-.L37
	.long	.L64-.L37
	.long	.L64-.L37
	.long	.L39-.L37
	.long	.L64-.L37
	.long	.L39-.L37
	.long	.L64-.L37
	.long	.L64-.L37
	.long	.L38-.L37
	.long	.L64-.L37
	.long	.L64-.L37
	.long	.L64-.L37
	.long	.L36-.L37
	.section	.text.startup
.L56:
	.loc 1 121 20 view .LVU145
	movl	$2, %ebx
.LVL67:
	.loc 1 121 20 view .LVU146
	jmp	.L31
.LVL68:
.L42:
	.loc 1 112 7 view .LVU147
	movl	$1, %ebx
.LVL69:
	.loc 1 112 7 view .LVU148
	jmp	.L31
.LVL70:
.L36:
	.loc 1 134 11 is_stmt 1 view .LVU149
	.loc 1 135 11 view .LVU150
	.loc 1 134 20 is_stmt 0 view .LVU151
	movl	$1, %r14d
	.loc 1 135 11 view .LVU152
	jmp	.L31
.LVL71:
.L38:
	.loc 1 131 11 is_stmt 1 view .LVU153
	.loc 1 131 19 is_stmt 0 view .LVU154
	movb	$1, verbose(%rip)
	.loc 1 132 11 is_stmt 1 view .LVU155
	jmp	.L31
.L39:
	.loc 1 128 11 view .LVU156
	.loc 1 128 19 is_stmt 0 view .LVU157
	movb	$0, verbose(%rip)
	.loc 1 129 11 is_stmt 1 view .LVU158
	jmp	.L31
.L40:
	.loc 1 124 11 view .LVU159
	.loc 1 124 22 is_stmt 0 view .LVU160
	movb	$1, no_newline(%rip)
	.loc 1 125 11 is_stmt 1 view .LVU161
	jmp	.L31
.L43:
	.loc 1 115 20 is_stmt 0 view .LVU162
	xorl	%ebx, %ebx
.LVL72:
	.loc 1 115 20 view .LVU163
	jmp	.L31
.LVL73:
	.p2align 4,,10
	.p2align 3
.L66:
	.loc 1 112 7 view .LVU164
	cmpl	$-131, %eax
	jne	.L67
	.loc 1 136 9 is_stmt 1 view .LVU165
	.loc 1 136 30 view .LVU166
	.loc 1 137 9 view .LVU167
	movq	stdout(%rip), %rdi
	movq	Version(%rip), %rcx
	xorl	%eax, %eax
.LVL74:
	.loc 1 137 9 is_stmt 0 view .LVU168
	xorl	%r9d, %r9d
	leaq	.LC27(%rip), %r8
	leaq	.LC21(%rip), %rdx
	leaq	.LC0(%rip), %rsi
	call	version_etc@PLT
.LVL75:
	.loc 1 137 9 is_stmt 1 view .LVU169
	xorl	%edi, %edi
	call	exit@PLT
.LVL76:
.L67:
	.loc 1 112 7 is_stmt 0 view .LVU170
	cmpl	$-130, %eax
	jne	.L64
	.loc 1 136 9 is_stmt 1 view .LVU171
	xorl	%edi, %edi
	call	usage
.LVL77:
.L65:
	.loc 1 143 3 view .LVU172
	.loc 1 143 14 is_stmt 0 view .LVU173
	movl	optind(%rip), %edx
	movl	%edx, %eax
.LVL78:
	.loc 1 143 6 view .LVU174
	cmpl	%r13d, %edx
	jge	.L68
	.loc 1 149 3 is_stmt 1 view .LVU175
	.loc 1 149 12 is_stmt 0 view .LVU176
	movl	%r13d, %ecx
	subl	%edx, %ecx
	.loc 1 149 6 view .LVU177
	subl	$1, %ecx
	je	.L46
	.loc 1 151 7 is_stmt 1 view .LVU178
	.loc 1 151 10 is_stmt 0 view .LVU179
	cmpb	$0, no_newline(%rip)
	jne	.L69
.L47:
	.loc 1 153 7 is_stmt 1 view .LVU180
	.loc 1 153 18 is_stmt 0 view .LVU181
	movb	$0, no_newline(%rip)
	.loc 1 156 10 is_stmt 1 view .LVU182
	.loc 1 156 17 is_stmt 0 view .LVU183
	movl	%edx, %eax
	.loc 1 156 3 view .LVU184
	cmpl	%edx, %r13d
	jle	.L57
.L46:
.LVL79:
	.loc 1 156 3 view .LVU185
	cmpb	$1, %r14b
	sbbl	%ecx, %ecx
.LBB69:
.LBB70:
.LBB71:
	.file 4 "/usr/include/x86_64-linux-gnu/bits/stdio.h"
	.loc 4 110 10 view .LVU186
	xorl	%r14d, %r14d
.LVL80:
	.loc 4 110 10 view .LVU187
	andl	$10, %ecx
	movl	%ecx, 12(%rsp)
	movb	%cl, 11(%rsp)
	jmp	.L55
.LVL81:
	.p2align 4,,10
	.p2align 3
.L71:
	.loc 4 110 10 view .LVU188
.LBE71:
.LBE70:
	.loc 1 164 11 is_stmt 1 view .LVU189
	movq	stdout(%rip), %rsi
	movq	%rbp, %rdi
	call	fputs_unlocked@PLT
.LVL82:
	.loc 1 165 11 view .LVU190
	.loc 1 165 14 is_stmt 0 view .LVU191
	cmpb	$0, no_newline(%rip)
	jne	.L52
	.loc 1 166 13 is_stmt 1 discriminator 4 view .LVU192
.LVL83:
.LBB74:
.LBI70:
	.loc 4 108 1 discriminator 4 view .LVU193
.LBB72:
	.loc 4 110 3 discriminator 4 view .LVU194
	.loc 4 110 10 is_stmt 0 discriminator 4 view .LVU195
	movq	stdout(%rip), %rdi
	movq	40(%rdi), %rax
	cmpq	%rax, 48(%rdi)
	jbe	.L70
	.loc 4 110 10 view .LVU196
	movzbl	11(%rsp), %ecx
	leaq	1(%rax), %rdx
	movq	%rdx, 40(%rdi)
	movb	%cl, (%rax)
.LVL84:
.L52:
	.loc 4 110 10 view .LVU197
.LBE72:
.LBE74:
	.loc 1 167 11 is_stmt 1 view .LVU198
	movq	%rbp, %rdi
	call	free@PLT
.LVL85:
.L54:
	.loc 1 167 11 is_stmt 0 view .LVU199
.LBE69:
	.loc 1 156 25 is_stmt 1 view .LVU200
	movl	optind(%rip), %eax
	addl	$1, %eax
	movl	%eax, optind(%rip)
	.loc 1 156 10 view .LVU201
	.loc 1 156 3 is_stmt 0 view .LVU202
	cmpl	%r13d, %eax
	jge	.L30
.LVL86:
.L55:
.LBB76:
	.loc 1 158 7 is_stmt 1 view .LVU203
	.loc 1 158 31 is_stmt 0 view .LVU204
	cltq
	.loc 1 158 19 view .LVU205
	movq	(%r12,%rax,8), %r15
.LVL87:
	.loc 1 159 7 is_stmt 1 view .LVU206
	.loc 1 161 22 is_stmt 0 view .LVU207
	cmpl	$-1, %ebx
	je	.L49
	.loc 1 160 24 view .LVU208
	movl	%ebx, %esi
	movq	%r15, %rdi
	call	canonicalize_filename_mode@PLT
.LVL88:
	movq	%rax, %rbp
.L50:
.LVL89:
	.loc 1 162 7 is_stmt 1 view .LVU209
	.loc 1 162 10 is_stmt 0 view .LVU210
	testq	%rbp, %rbp
	jne	.L71
	.loc 1 171 11 is_stmt 1 view .LVU211
.LVL90:
	.loc 1 172 11 view .LVU212
	.loc 1 172 14 is_stmt 0 view .LVU213
	cmpb	$0, verbose(%rip)
	.loc 1 171 18 view .LVU214
	movl	$1, %r14d
	.loc 1 172 14 view .LVU215
	je	.L54
	.loc 1 173 13 is_stmt 1 view .LVU216
	movq	%r15, %rdx
	xorl	%edi, %edi
	movl	$3, %esi
	call	quotearg_n_style_colon@PLT
.LVL91:
	movq	%rax, (%rsp)
	.loc 1 173 23 is_stmt 0 view .LVU217
	call	__errno_location@PLT
.LVL92:
	.loc 1 173 13 view .LVU218
	movq	(%rsp), %rcx
	leaq	.LC31(%rip), %rdx
	xorl	%edi, %edi
	movl	(%rax), %esi
	xorl	%eax, %eax
	call	error@PLT
.LVL93:
	jmp	.L54
.LVL94:
.L49:
	.loc 1 161 24 discriminator 1 view .LVU219
	movl	$63, %esi
	movq	%r15, %rdi
	call	areadlink_with_size@PLT
.LVL95:
	movq	%rax, %rbp
	jmp	.L50
.LVL96:
.L57:
	.loc 1 161 24 discriminator 1 view .LVU220
.LBE76:
	.loc 1 156 3 view .LVU221
	xorl	%r14d, %r14d
.LVL97:
	.loc 1 177 3 is_stmt 1 view .LVU222
.L30:
	.loc 1 178 1 is_stmt 0 view .LVU223
	addq	$24, %rsp
	.cfi_remember_state
	.cfi_def_cfa_offset 56
	movl	%r14d, %eax
	popq	%rbx
	.cfi_def_cfa_offset 48
.LVL98:
	.loc 1 178 1 view .LVU224
	popq	%rbp
	.cfi_def_cfa_offset 40
	popq	%r12
	.cfi_def_cfa_offset 32
.LVL99:
	.loc 1 178 1 view .LVU225
	popq	%r13
	.cfi_def_cfa_offset 24
.LVL100:
	.loc 1 178 1 view .LVU226
	popq	%r14
	.cfi_def_cfa_offset 16
	popq	%r15
	.cfi_def_cfa_offset 8
	ret
.LVL101:
.L68:
	.cfi_restore_state
	.loc 1 145 7 is_stmt 1 view .LVU227
	.loc 1 145 20 is_stmt 0 view .LVU228
	movl	$5, %edx
	leaq	.LC29(%rip), %rsi
	xorl	%edi, %edi
	call	dcgettext@PLT
.LVL102:
	.loc 1 145 7 view .LVU229
	xorl	%esi, %esi
	xorl	%edi, %edi
	.loc 1 145 20 view .LVU230
	movq	%rax, %rdx
	.loc 1 145 7 view .LVU231
	xorl	%eax, %eax
	call	error@PLT
.LVL103:
.L64:
	.loc 1 146 7 is_stmt 1 view .LVU232
	movl	$1, %edi
	call	usage
.LVL104:
.L69:
	.loc 1 152 9 view .LVU233
	.loc 1 152 22 is_stmt 0 view .LVU234
	movl	$5, %edx
	leaq	.LC30(%rip), %rsi
	xorl	%edi, %edi
	call	dcgettext@PLT
.LVL105:
	.loc 1 152 9 view .LVU235
	xorl	%esi, %esi
	xorl	%edi, %edi
	.loc 1 152 22 view .LVU236
	movq	%rax, %rdx
	.loc 1 152 9 view .LVU237
	xorl	%eax, %eax
	call	error@PLT
.LVL106:
	movl	optind(%rip), %edx
	jmp	.L47
.LVL107:
.L70:
.LBB77:
.LBB75:
.LBB73:
	.loc 4 110 10 view .LVU238
	movl	12(%rsp), %esi
	call	__overflow@PLT
.LVL108:
	jmp	.L52
.LBE73:
.LBE75:
.LBE77:
	.cfi_endproc
.LFE136:
	.size	main, .-main
	.section	.rodata.str1.1
.LC32:
	.string	"canonicalize"
.LC33:
	.string	"canonicalize-existing"
.LC34:
	.string	"canonicalize-missing"
.LC35:
	.string	"no-newline"
.LC36:
	.string	"quiet"
.LC37:
	.string	"silent"
.LC38:
	.string	"verbose"
.LC39:
	.string	"zero"
.LC40:
	.string	"help"
.LC41:
	.string	"version"
	.section	.data.rel.ro.local,"aw"
	.align 32
	.type	longopts, @object
	.size	longopts, 352
longopts:
	.quad	.LC32
	.long	0
	.zero	4
	.quad	0
	.long	102
	.zero	4
	.quad	.LC33
	.long	0
	.zero	4
	.quad	0
	.long	101
	.zero	4
	.quad	.LC34
	.long	0
	.zero	4
	.quad	0
	.long	109
	.zero	4
	.quad	.LC35
	.long	0
	.zero	4
	.quad	0
	.long	110
	.zero	4
	.quad	.LC36
	.long	0
	.zero	4
	.quad	0
	.long	113
	.zero	4
	.quad	.LC37
	.long	0
	.zero	4
	.quad	0
	.long	115
	.zero	4
	.quad	.LC38
	.long	0
	.zero	4
	.quad	0
	.long	118
	.zero	4
	.quad	.LC39
	.long	0
	.zero	4
	.quad	0
	.long	122
	.zero	4
	.quad	.LC40
	.long	0
	.zero	4
	.quad	0
	.long	-130
	.zero	4
	.quad	.LC41
	.long	0
	.zero	4
	.quad	0
	.long	-131
	.zero	4
	.quad	0
	.long	0
	.zero	4
	.quad	0
	.long	0
	.zero	4
	.local	verbose
	.comm	verbose,1,1
	.local	no_newline
	.comm	no_newline,1,1
	.text
.Letext0:
	.file 5 "/usr/lib/gcc/x86_64-linux-gnu/9/include/stddef.h"
	.file 6 "/usr/include/x86_64-linux-gnu/bits/types.h"
	.file 7 "/usr/include/x86_64-linux-gnu/bits/types/struct_FILE.h"
	.file 8 "/usr/include/x86_64-linux-gnu/bits/types/FILE.h"
	.file 9 "/usr/include/stdio.h"
	.file 10 "/usr/include/x86_64-linux-gnu/bits/sys_errlist.h"
	.file 11 "/usr/include/x86_64-linux-gnu/bits/types/time_t.h"
	.file 12 "./lib/sys/select.h"
	.file 13 "/usr/include/x86_64-linux-gnu/bits/getopt_core.h"
	.file 14 "/usr/include/x86_64-linux-gnu/bits/getopt_ext.h"
	.file 15 "/usr/include/time.h"
	.file 16 "/usr/include/signal.h"
	.file 17 "/usr/include/unistd.h"
	.file 18 "/usr/include/errno.h"
	.file 19 "src/version.h"
	.file 20 "./lib/exitfail.h"
	.file 21 "./lib/timespec.h"
	.file 22 "./lib/version-etc.h"
	.file 23 "./lib/progname.h"
	.file 24 "./lib/quotearg.h"
	.file 25 "./lib/canonicalize.h"
	.file 26 "./lib/error.h"
	.file 27 "/usr/include/stdlib.h"
	.file 28 "./lib/areadlink.h"
	.file 29 "/usr/include/locale.h"
	.file 30 "/usr/include/libintl.h"
	.file 31 "/usr/include/string.h"
	.section	.note.GNU-stack,"",@progbits
	.section	.note.gnu.property,"a"
	.align 8
	.long	 1f - 0f
	.long	 4f - 1f
	.long	 5
0:
	.string	 "GNU"
1:
	.align 8
	.long	 0xc0000002
	.long	 3f - 2f
2:
	.long	 0x3
3:
	.align 8
4:
