	.file	"relpath.c"
	.text
.Ltext0:
	.p2align 4
	.type	buffer_or_output, @function
buffer_or_output:
.LVL0:
.LFB136:
	.file 1 "src/relpath.c"
	.loc 1 67 1 view -0
	.cfi_startproc
	.loc 1 67 1 is_stmt 0 view .LVU1
	pushq	%r14
	.cfi_def_cfa_offset 16
	.cfi_offset 14, -16
	pushq	%r13
	.cfi_def_cfa_offset 24
	.cfi_offset 13, -24
	movq	%rdi, %r13
	.loc 1 68 3 is_stmt 1 view .LVU2
	.loc 1 67 1 is_stmt 0 view .LVU3
	pushq	%r12
	.cfi_def_cfa_offset 32
	.cfi_offset 12, -32
	pushq	%rbp
	.cfi_def_cfa_offset 40
	.cfi_offset 6, -40
	pushq	%rbx
	.cfi_def_cfa_offset 48
	.cfi_offset 3, -48
	.loc 1 68 7 view .LVU4
	movq	(%rsi), %r14
	.loc 1 68 6 view .LVU5
	testq	%r14, %r14
	je	.L2
	movq	%rsi, %rbx
	movq	%rdx, %rbp
.LBB16:
	.loc 1 70 7 is_stmt 1 view .LVU6
	.loc 1 70 21 is_stmt 0 view .LVU7
	call	strlen@PLT
.LVL1:
	.loc 1 70 21 view .LVU8
	movq	%rax, %r12
.LVL2:
	.loc 1 71 7 is_stmt 1 view .LVU9
	.loc 1 72 16 is_stmt 0 view .LVU10
	movl	$1, %eax
.LVL3:
	.loc 1 71 10 view .LVU11
	cmpq	%r12, 0(%rbp)
	ja	.L7
.LBE16:
	.loc 1 83 1 view .LVU12
	popq	%rbx
	.cfi_remember_state
	.cfi_def_cfa_offset 40
.LVL4:
	.loc 1 83 1 view .LVU13
	popq	%rbp
	.cfi_def_cfa_offset 32
.LVL5:
	.loc 1 83 1 view .LVU14
	popq	%r12
	.cfi_def_cfa_offset 24
.LVL6:
	.loc 1 83 1 view .LVU15
	popq	%r13
	.cfi_def_cfa_offset 16
.LVL7:
	.loc 1 83 1 view .LVU16
	popq	%r14
	.cfi_def_cfa_offset 8
	ret
.LVL8:
	.p2align 4,,10
	.p2align 3
.L7:
	.cfi_restore_state
.LBB21:
	.loc 1 73 7 is_stmt 1 view .LVU17
.LBB17:
.LBI17:
	.file 2 "/usr/include/x86_64-linux-gnu/bits/string_fortified.h"
	.loc 2 31 1 view .LVU18
.LBB18:
	.loc 2 34 3 view .LVU19
.LBE18:
.LBE17:
	.loc 1 73 7 is_stmt 0 view .LVU20
	leaq	1(%r12), %rdx
.LVL9:
.LBB20:
.LBB19:
	.loc 2 34 10 view .LVU21
	movq	%r13, %rsi
	movq	%r14, %rdi
	call	memcpy@PLT
.LVL10:
	.loc 2 34 10 view .LVU22
.LBE19:
.LBE20:
	.loc 1 74 7 is_stmt 1 view .LVU23
	.loc 1 74 13 is_stmt 0 view .LVU24
	addq	%r12, (%rbx)
	.loc 1 75 7 is_stmt 1 view .LVU25
.LBE21:
	.loc 1 82 10 is_stmt 0 view .LVU26
	xorl	%eax, %eax
.LBB22:
	.loc 1 75 13 view .LVU27
	subq	%r12, 0(%rbp)
.LBE22:
	.loc 1 83 1 view .LVU28
	popq	%rbx
	.cfi_remember_state
	.cfi_def_cfa_offset 40
.LVL11:
	.loc 1 83 1 view .LVU29
	popq	%rbp
	.cfi_def_cfa_offset 32
.LVL12:
	.loc 1 83 1 view .LVU30
	popq	%r12
	.cfi_def_cfa_offset 24
.LVL13:
	.loc 1 83 1 view .LVU31
	popq	%r13
	.cfi_def_cfa_offset 16
.LVL14:
	.loc 1 83 1 view .LVU32
	popq	%r14
	.cfi_def_cfa_offset 8
	ret
.LVL15:
	.p2align 4,,10
	.p2align 3
.L2:
	.cfi_restore_state
.LBB23:
.LBI23:
	.loc 1 66 1 is_stmt 1 view .LVU33
.LBB24:
	.loc 1 79 7 view .LVU34
	movq	stdout(%rip), %rsi
.LVL16:
	.loc 1 79 7 is_stmt 0 view .LVU35
	call	fputs_unlocked@PLT
.LVL17:
	.loc 1 79 7 view .LVU36
.LBE24:
.LBE23:
	.loc 1 83 1 view .LVU37
	popq	%rbx
	.cfi_def_cfa_offset 40
.LBB26:
.LBB25:
	.loc 1 79 7 view .LVU38
	xorl	%eax, %eax
.LBE25:
.LBE26:
	.loc 1 83 1 view .LVU39
	popq	%rbp
	.cfi_def_cfa_offset 32
	popq	%r12
	.cfi_def_cfa_offset 24
	popq	%r13
	.cfi_def_cfa_offset 16
.LVL18:
	.loc 1 83 1 view .LVU40
	popq	%r14
	.cfi_def_cfa_offset 8
	ret
	.cfi_endproc
.LFE136:
	.size	buffer_or_output, .-buffer_or_output
	.section	.rodata.str1.1,"aMS",@progbits,1
.LC0:
	.string	"."
.LC1:
	.string	".."
.LC2:
	.string	"/.."
.LC3:
	.string	"/"
.LC4:
	.string	"generating relative path"
.LC5:
	.string	"%s"
	.text
	.p2align 4
	.globl	relpath
	.type	relpath, @function
relpath:
.LVL19:
.LFB137:
	.loc 1 89 1 is_stmt 1 view -0
	.cfi_startproc
	.loc 1 89 1 is_stmt 0 view .LVU42
	endbr64
	.loc 1 90 3 is_stmt 1 view .LVU43
.LVL20:
	.loc 1 93 3 view .LVU44
.LBB29:
.LBI29:
	.loc 1 30 1 view .LVU45
.LBB30:
	.loc 1 32 3 view .LVU46
	.loc 1 33 3 view .LVU47
	.loc 1 38 3 view .LVU48
.LBE30:
.LBE29:
	.loc 1 89 1 is_stmt 0 view .LVU49
	pushq	%r15
	.cfi_def_cfa_offset 16
	.cfi_offset 15, -16
	pushq	%r14
	.cfi_def_cfa_offset 24
	.cfi_offset 14, -24
	pushq	%r13
	.cfi_def_cfa_offset 32
	.cfi_offset 13, -32
	pushq	%r12
	.cfi_def_cfa_offset 40
	.cfi_offset 12, -40
	pushq	%rbp
	.cfi_def_cfa_offset 48
	.cfi_offset 6, -48
	pushq	%rbx
	.cfi_def_cfa_offset 56
	.cfi_offset 3, -56
	subq	$24, %rsp
	.cfi_def_cfa_offset 80
.LBB36:
.LBB31:
	.loc 1 38 25 view .LVU50
	cmpb	$47, 1(%rsi)
.LBE31:
.LBE36:
	.loc 1 89 1 view .LVU51
	movq	%rcx, (%rsp)
.LBB37:
.LBB32:
	.loc 1 38 25 view .LVU52
	sete	%cl
.LVL21:
	.loc 1 38 25 view .LVU53
	cmpb	$47, 1(%rdi)
.LBE32:
.LBE37:
	.loc 1 89 1 view .LVU54
	movq	%rdx, 8(%rsp)
.LBB38:
.LBB33:
	.loc 1 38 25 view .LVU55
	sete	%dl
.LVL22:
	.loc 1 38 25 view .LVU56
.LBE33:
.LBE38:
	.loc 1 95 12 view .LVU57
	xorl	%eax, %eax
.LBB39:
.LBB34:
	.loc 1 38 6 view .LVU58
	cmpb	%dl, %cl
	jne	.L8
	.loc 1 41 9 is_stmt 1 view .LVU59
	.loc 1 41 10 is_stmt 0 view .LVU60
	movzbl	(%rsi), %edx
	.loc 1 41 9 view .LVU61
	testb	%dl, %dl
	je	.L8
	movq	%rdi, %r8
	movq	%rsi, %r9
	.loc 1 33 7 view .LVU62
	xorl	%eax, %eax
	.loc 1 32 7 view .LVU63
	xorl	%ecx, %ecx
	jmp	.L10
.LVL23:
	.p2align 4,,10
	.p2align 3
.L45:
	.loc 1 43 10 view .LVU64
	testb	%r11b, %r11b
	jne	.L31
	.loc 1 45 7 is_stmt 1 view .LVU65
	addl	$1, %ecx
.LVL24:
	.loc 1 45 10 is_stmt 0 view .LVU66
	cmpb	$47, %dl
	cmove	%ecx, %eax
.LVL25:
	.loc 1 47 7 is_stmt 1 view .LVU67
	.loc 1 41 10 is_stmt 0 view .LVU68
	movzbl	1(%r9), %edx
	.loc 1 47 12 view .LVU69
	addq	$1, %r9
.LVL26:
	.loc 1 48 7 is_stmt 1 view .LVU70
	.loc 1 48 12 is_stmt 0 view .LVU71
	addq	$1, %r8
.LVL27:
	.loc 1 49 7 is_stmt 1 view .LVU72
	.loc 1 41 9 view .LVU73
	testb	%dl, %dl
	je	.L44
.LVL28:
.L10:
	.loc 1 41 20 is_stmt 0 view .LVU74
	movzbl	(%r8), %r10d
	.loc 1 43 7 is_stmt 1 view .LVU75
	.loc 1 41 17 is_stmt 0 view .LVU76
	testb	%r10b, %r10b
	sete	%r11b
	.loc 1 43 10 view .LVU77
	cmpb	%dl, %r10b
	je	.L45
.L31:
	.loc 1 54 19 view .LVU78
	cmpb	$47, %dl
	jne	.L13
	testb	%r11b, %r11b
	cmovne	%ecx, %eax
.LVL29:
.L13:
	.loc 1 54 19 view .LVU79
.LBE34:
.LBE39:
	.loc 1 94 3 is_stmt 1 view .LVU80
	.loc 1 94 6 is_stmt 0 view .LVU81
	testl	%eax, %eax
	je	.L46
.LVL30:
.L12:
	.loc 1 97 3 is_stmt 1 view .LVU82
	.loc 1 97 41 is_stmt 0 view .LVU83
	cltq
	.loc 1 97 15 view .LVU84
	leaq	(%rsi,%rax), %rbx
.LVL31:
	.loc 1 98 3 is_stmt 1 view .LVU85
	.loc 1 98 15 is_stmt 0 view .LVU86
	leaq	(%rdi,%rax), %r12
.LVL32:
	.loc 1 101 3 is_stmt 1 view .LVU87
	.loc 1 101 7 is_stmt 0 view .LVU88
	movzbl	(%rbx), %eax
.LVL33:
	.loc 1 101 6 view .LVU89
	cmpb	$47, %al
	jne	.L17
	.loc 1 102 5 is_stmt 1 view .LVU90
.LVL34:
	.loc 1 102 5 is_stmt 0 view .LVU91
	movzbl	1(%rbx), %eax
	.loc 1 102 17 view .LVU92
	addq	$1, %rbx
.LVL35:
.L17:
	.loc 1 103 3 is_stmt 1 view .LVU93
	.loc 1 104 17 is_stmt 0 view .LVU94
	xorl	%edx, %edx
	cmpb	$47, (%r12)
	sete	%dl
	addq	%rdx, %r12
.LVL36:
	.loc 1 108 3 is_stmt 1 view .LVU95
	.loc 1 108 6 is_stmt 0 view .LVU96
	testb	%al, %al
	jne	.L47
	.loc 1 125 9 is_stmt 1 view .LVU97
	.loc 1 125 20 is_stmt 0 view .LVU98
	cmpb	$0, (%r12)
	leaq	.LC0(%rip), %rax
	movq	%rsp, %rdx
	cmove	%rax, %r12
.LVL37:
	.loc 1 125 20 view .LVU99
	leaq	8(%rsp), %rsi
.LVL38:
	.loc 1 125 20 view .LVU100
	movq	%r12, %rdi
.LVL39:
	.loc 1 125 20 view .LVU101
	call	buffer_or_output
.LVL40:
	.loc 1 125 20 view .LVU102
	movl	%eax, %ebp
.LVL41:
.L23:
	.loc 1 129 3 is_stmt 1 view .LVU103
	.loc 1 129 6 is_stmt 0 view .LVU104
	testb	%bpl, %bpl
	jne	.L48
.L25:
	.loc 1 132 3 is_stmt 1 view .LVU105
	movl	%ebp, %eax
	xorl	$1, %eax
.LVL42:
.L8:
	.loc 1 133 1 is_stmt 0 view .LVU106
	addq	$24, %rsp
	.cfi_remember_state
	.cfi_def_cfa_offset 56
	popq	%rbx
	.cfi_def_cfa_offset 48
	popq	%rbp
	.cfi_def_cfa_offset 40
	popq	%r12
	.cfi_def_cfa_offset 32
	popq	%r13
	.cfi_def_cfa_offset 24
	popq	%r14
	.cfi_def_cfa_offset 16
	popq	%r15
	.cfi_def_cfa_offset 8
	ret
.LVL43:
	.p2align 4,,10
	.p2align 3
.L44:
	.cfi_restore_state
.LBB40:
.LBB35:
	.loc 1 52 3 is_stmt 1 view .LVU107
	.loc 1 52 20 is_stmt 0 view .LVU108
	movzbl	(%r8), %edx
	.loc 1 53 7 view .LVU109
	testb	%dl, %dl
	je	.L28
	cmpb	$47, %dl
	jne	.L13
.L28:
	movl	%ecx, %eax
.LVL44:
	.loc 1 53 7 view .LVU110
	jmp	.L12
.LVL45:
	.p2align 4,,10
	.p2align 3
.L48:
	.loc 1 53 7 view .LVU111
.LBE35:
.LBE40:
	.loc 1 130 5 is_stmt 1 view .LVU112
	xorl	%edi, %edi
	movl	$5, %edx
	leaq	.LC4(%rip), %rsi
	call	dcgettext@PLT
.LVL46:
	leaq	.LC5(%rip), %rdx
	movl	$36, %esi
	xorl	%edi, %edi
	movq	%rax, %rcx
	xorl	%eax, %eax
	call	error@PLT
.LVL47:
	jmp	.L25
.LVL48:
	.p2align 4,,10
	.p2align 3
.L47:
	.loc 1 110 7 view .LVU113
	.loc 1 110 18 is_stmt 0 view .LVU114
	movq	%rsp, %r14
	leaq	8(%rsp), %r13
.LVL49:
	.loc 1 110 18 view .LVU115
	leaq	.LC1(%rip), %rdi
.LVL50:
	.loc 1 110 18 view .LVU116
	movq	%r14, %rdx
	movq	%r13, %rsi
.LVL51:
	.loc 1 110 18 view .LVU117
	call	buffer_or_output
.LVL52:
	.loc 1 110 18 view .LVU118
	movl	%eax, %ebp
.LVL53:
	.loc 1 111 7 is_stmt 1 view .LVU119
	.loc 1 111 14 view .LVU120
	movzbl	(%rbx), %eax
.LVL54:
	.loc 1 111 7 is_stmt 0 view .LVU121
	testb	%al, %al
	je	.L20
	.loc 1 114 24 view .LVU122
	leaq	.LC2(%rip), %r15
	jmp	.L22
	.p2align 4,,10
	.p2align 3
.L21:
	.loc 1 111 29 is_stmt 1 view .LVU123
	.loc 1 111 14 is_stmt 0 view .LVU124
	movzbl	1(%rbx), %eax
	.loc 1 111 29 view .LVU125
	addq	$1, %rbx
.LVL55:
	.loc 1 111 14 is_stmt 1 view .LVU126
	.loc 1 111 7 is_stmt 0 view .LVU127
	testb	%al, %al
	je	.L20
.L22:
	.loc 1 113 11 is_stmt 1 view .LVU128
	.loc 1 113 14 is_stmt 0 view .LVU129
	cmpb	$47, %al
	jne	.L21
	.loc 1 114 13 is_stmt 1 view .LVU130
	.loc 1 114 24 is_stmt 0 view .LVU131
	movq	%r14, %rdx
	movq	%r13, %rsi
	movq	%r15, %rdi
	.loc 1 111 29 view .LVU132
	addq	$1, %rbx
.LVL56:
	.loc 1 114 24 view .LVU133
	call	buffer_or_output
.LVL57:
	.loc 1 114 21 view .LVU134
	orl	%eax, %ebp
.LVL58:
	.loc 1 111 29 is_stmt 1 view .LVU135
	.loc 1 111 14 view .LVU136
	movzbl	(%rbx), %eax
	.loc 1 111 7 is_stmt 0 view .LVU137
	testb	%al, %al
	jne	.L22
	.p2align 4,,10
	.p2align 3
.L20:
	.loc 1 117 7 is_stmt 1 view .LVU138
	.loc 1 117 10 is_stmt 0 view .LVU139
	cmpb	$0, (%r12)
	je	.L23
	.loc 1 119 11 is_stmt 1 view .LVU140
	.loc 1 119 22 is_stmt 0 view .LVU141
	movq	%r14, %rdx
	movq	%r13, %rsi
	leaq	.LC3(%rip), %rdi
	call	buffer_or_output
.LVL59:
	.loc 1 120 22 view .LVU142
	movq	%r14, %rdx
	movq	%r13, %rsi
	movq	%r12, %rdi
	.loc 1 119 22 view .LVU143
	movl	%eax, %ebx
.LVL60:
	.loc 1 120 11 is_stmt 1 view .LVU144
	.loc 1 120 22 is_stmt 0 view .LVU145
	call	buffer_or_output
.LVL61:
	.loc 1 120 19 view .LVU146
	orl	%eax, %ebx
.LVL62:
	.loc 1 120 19 view .LVU147
	orl	%ebx, %ebp
.LVL63:
	.loc 1 120 19 view .LVU148
	jmp	.L23
.LVL64:
	.p2align 4,,10
	.p2align 3
.L46:
	.loc 1 95 12 view .LVU149
	xorl	%eax, %eax
.LVL65:
	.loc 1 95 12 view .LVU150
	jmp	.L8
	.cfi_endproc
.LFE137:
	.size	relpath, .-relpath
.Letext0:
	.file 3 "./lib/error.h"
	.file 4 "/usr/include/x86_64-linux-gnu/bits/types.h"
	.file 5 "/usr/lib/gcc/x86_64-linux-gnu/9/include/stddef.h"
	.file 6 "./lib/sys/select.h"
	.file 7 "/usr/include/time.h"
	.file 8 "/usr/include/signal.h"
	.file 9 "/usr/include/unistd.h"
	.file 10 "/usr/include/x86_64-linux-gnu/bits/getopt_core.h"
	.file 11 "/usr/include/errno.h"
	.file 12 "src/version.h"
	.file 13 "./lib/exitfail.h"
	.file 14 "/usr/include/x86_64-linux-gnu/bits/types/struct_FILE.h"
	.file 15 "/usr/include/x86_64-linux-gnu/bits/types/FILE.h"
	.file 16 "/usr/include/stdio.h"
	.file 17 "/usr/include/x86_64-linux-gnu/bits/sys_errlist.h"
	.file 18 "./lib/version-etc.h"
	.file 19 "./lib/progname.h"
	.file 20 "./lib/quotearg.h"
	.file 21 "/usr/include/libintl.h"
	.file 22 "/usr/include/string.h"
	.file 23 "<built-in>"
	.section	.note.GNU-stack,"",@progbits
	.section	.note.gnu.property,"a"
	.align 8
	.long	 1f - 0f
	.long	 4f - 1f
	.long	 5
0:
	.string	 "GNU"
1:
	.align 8
	.long	 0xc0000002
	.long	 3f - 2f
2:
	.long	 0x3
3:
	.align 8
4:
