	.file	"rmdir.c"
	.text
.Ltext0:
	.p2align 4
	.type	ignorable_failure, @function
ignorable_failure:
.LVL0:
.LFB137:
	.file 1 "src/rmdir.c"
	.loc 1 100 1 view -0
	.cfi_startproc
	.loc 1 101 3 view .LVU1
	.loc 1 102 11 is_stmt 0 view .LVU2
	cmpb	$0, ignore_fail_on_non_empty(%rip)
	je	.L26
.LBB44:
.LBB45:
	.loc 1 76 52 view .LVU3
	cmpl	$17, %edi
	movl	%edi, %ecx
.LVL1:
	.loc 1 76 52 view .LVU4
.LBE45:
.LBI44:
	.loc 1 74 1 is_stmt 1 view .LVU5
.LBB46:
	.loc 1 76 3 view .LVU6
	.loc 1 76 52 is_stmt 0 view .LVU7
	sete	%al
	.loc 1 76 23 view .LVU8
	cmpl	$39, %edi
	sete	%dl
.LBE46:
.LBE44:
	.loc 1 102 11 view .LVU9
	orb	%dl, %al
	jne	.L22
.LVL2:
	.loc 1 84 3 is_stmt 1 view .LVU10
	cmpl	$30, %edi
	ja	.L22
	movl	$1, %edx
	salq	%cl, %rdx
	testl	$1073815554, %edx
	jne	.L27
.LVL3:
.L22:
	.loc 1 106 1 is_stmt 0 view .LVU11
	ret
	.p2align 4,,10
	.p2align 3
.L26:
.LBB47:
.LBB48:
.LBB49:
.LBB50:
.LBB51:
.LBB52:
.LBB53:
	.file 2 "src/system.h"
	.loc 2 269 27 view .LVU12
	xorl	%eax, %eax
.LBE53:
.LBE52:
.LBE51:
.LBE50:
.LBE49:
.LBE48:
.LBE47:
	.loc 1 106 1 view .LVU13
	ret
.LVL4:
.L27:
.LBB81:
.LBI47:
	.loc 2 292 1 is_stmt 1 view .LVU14
.LBB75:
	.loc 2 294 3 view .LVU15
	.loc 2 295 3 view .LVU16
	.loc 2 296 3 view .LVU17
	.loc 2 297 3 view .LVU18
.LBB65:
.LBI65:
	.file 3 "/usr/include/x86_64-linux-gnu/bits/fcntl2.h"
	.loc 3 117 1 view .LVU19
.LBB66:
	.loc 3 119 3 view .LVU20
	.loc 3 122 3 view .LVU21
	.loc 3 124 7 view .LVU22
	.loc 3 129 7 view .LVU23
.LBE66:
.LBE65:
.LBE75:
.LBE81:
	.loc 1 100 1 is_stmt 0 view .LVU24
	pushq	%r12
	.cfi_def_cfa_offset 16
	.cfi_offset 12, -16
.LBB82:
.LBB76:
.LBB69:
.LBB67:
	.loc 3 129 14 view .LVU25
	movl	$198912, %edx
	movl	$-100, %edi
	xorl	%eax, %eax
.LBE67:
.LBE69:
.LBE76:
.LBE82:
	.loc 1 100 1 view .LVU26
	pushq	%rbp
	.cfi_def_cfa_offset 24
	.cfi_offset 6, -24
	pushq	%rbx
	.cfi_def_cfa_offset 32
	.cfi_offset 3, -32
.LBB83:
.LBB77:
.LBB70:
.LBB68:
	.loc 3 129 14 view .LVU27
	call	openat@PLT
.LVL5:
	.loc 3 129 14 view .LVU28
	movl	%eax, %ebp
.LVL6:
	.loc 3 129 14 view .LVU29
.LBE68:
.LBE70:
	.loc 2 301 3 is_stmt 1 view .LVU30
	call	__errno_location@PLT
.LVL7:
	.loc 2 301 3 is_stmt 0 view .LVU31
	movq	%rax, %rbx
	.loc 2 301 6 view .LVU32
	testl	%ebp, %ebp
	js	.L4
	.loc 2 304 3 is_stmt 1 view .LVU33
	.loc 2 304 10 is_stmt 0 view .LVU34
	movl	%ebp, %edi
	call	fdopendir@PLT
.LVL8:
	movq	%rax, %r12
.LVL9:
	.loc 2 305 3 is_stmt 1 view .LVU35
	.loc 2 305 6 is_stmt 0 view .LVU36
	testq	%rax, %rax
	je	.L28
	.loc 2 311 3 is_stmt 1 view .LVU37
	.loc 2 311 9 is_stmt 0 view .LVU38
	movl	$0, (%rbx)
	.loc 2 312 3 is_stmt 1 view .LVU39
.LVL10:
.LBB71:
.LBI49:
	.loc 2 278 1 view .LVU40
.L17:
	.loc 2 278 1 is_stmt 0 view .LVU41
.LBE71:
.LBE77:
.LBE83:
	.loc 2 280 3 is_stmt 1 view .LVU42
.LBB84:
.LBB78:
.LBB72:
.LBB62:
	.loc 2 282 7 view .LVU43
	.loc 2 282 33 is_stmt 0 view .LVU44
	movq	%r12, %rdi
	call	readdir@PLT
.LVL11:
	.loc 2 283 7 is_stmt 1 view .LVU45
	.loc 2 283 10 is_stmt 0 view .LVU46
	testq	%rax, %rax
	je	.L7
.LVL12:
.LBB59:
.LBI51:
	.loc 2 265 1 is_stmt 1 view .LVU47
.LBB56:
	.loc 2 267 3 view .LVU48
	.loc 2 267 6 is_stmt 0 view .LVU49
	cmpb	$46, 19(%rax)
	je	.L29
.LVL13:
.L8:
	.loc 2 267 6 view .LVU50
.LBE56:
.LBE59:
	.loc 2 284 9 is_stmt 1 view .LVU51
	.loc 2 284 9 is_stmt 0 view .LVU52
.LBE62:
.LBE72:
	.loc 2 313 3 is_stmt 1 view .LVU53
	.loc 2 313 15 is_stmt 0 view .LVU54
	movl	(%rbx), %ebp
.LVL14:
	.loc 2 314 3 is_stmt 1 view .LVU55
	movq	%r12, %rdi
	call	closedir@PLT
.LVL15:
	.loc 2 315 3 view .LVU56
	.loc 2 315 9 is_stmt 0 view .LVU57
	movl	%ebp, (%rbx)
	.loc 2 316 3 is_stmt 1 view .LVU58
.LVL16:
.L6:
	.loc 2 316 3 is_stmt 0 view .LVU59
.LBE78:
.LBE84:
	.loc 1 105 19 view .LVU60
	testl	%ebp, %ebp
	sete	%al
.L1:
	.loc 1 106 1 view .LVU61
	popq	%rbx
	.cfi_remember_state
	.cfi_def_cfa_offset 24
	popq	%rbp
	.cfi_def_cfa_offset 16
	popq	%r12
	.cfi_def_cfa_offset 8
	ret
.LVL17:
	.p2align 4,,10
	.p2align 3
.L4:
	.cfi_restore_state
	.loc 1 106 1 view .LVU62
	movl	(%rax), %ebp
.LVL18:
	.loc 1 106 1 view .LVU63
	jmp	.L6
.LVL19:
	.p2align 4,,10
	.p2align 3
.L29:
.LBB85:
.LBB79:
.LBB73:
.LBB63:
.LBB60:
.LBB57:
.LBB54:
	.loc 2 269 7 is_stmt 1 view .LVU64
	.loc 2 269 27 is_stmt 0 view .LVU65
	xorl	%edx, %edx
	cmpb	$46, 20(%rax)
	sete	%dl
	.loc 2 269 12 view .LVU66
	movzbl	20(%rax,%rdx), %eax
.LVL20:
	.loc 2 270 7 is_stmt 1 view .LVU67
	.loc 2 270 7 is_stmt 0 view .LVU68
.LBE54:
.LBE57:
.LBE60:
	.loc 2 283 22 view .LVU69
	testb	%al, %al
	je	.L17
	cmpb	$47, %al
	je	.L17
	jmp	.L8
.LVL21:
	.p2align 4,,10
	.p2align 3
.L7:
	.loc 2 284 9 is_stmt 1 view .LVU70
	.loc 2 284 9 is_stmt 0 view .LVU71
.LBE63:
.LBE73:
	.loc 2 313 3 is_stmt 1 view .LVU72
	.loc 2 313 15 is_stmt 0 view .LVU73
	movl	(%rbx), %ebp
.LVL22:
	.loc 2 314 3 is_stmt 1 view .LVU74
	movq	%r12, %rdi
	call	closedir@PLT
.LVL23:
	.loc 2 315 3 view .LVU75
	.loc 2 315 9 is_stmt 0 view .LVU76
	movl	%ebp, (%rbx)
	.loc 2 316 3 is_stmt 1 view .LVU77
	.loc 2 318 3 view .LVU78
.LVL24:
	.loc 2 318 3 is_stmt 0 view .LVU79
.LBE79:
.LBE85:
	.loc 1 104 19 view .LVU80
	testl	%ebp, %ebp
	jne	.L6
.LBB86:
.LBB80:
.LBB74:
.LBB64:
.LBB61:
.LBB58:
.LBB55:
	.loc 2 269 27 view .LVU81
	xorl	%eax, %eax
	jmp	.L1
.LVL25:
	.p2align 4,,10
	.p2align 3
.L28:
	.loc 2 269 27 view .LVU82
.LBE55:
.LBE58:
.LBE61:
.LBE64:
.LBE74:
	.loc 2 307 7 is_stmt 1 view .LVU83
	movl	%ebp, %edi
	call	close@PLT
.LVL26:
	.loc 2 308 7 view .LVU84
	.loc 2 308 7 is_stmt 0 view .LVU85
	movl	(%rbx), %ebp
.LVL27:
	.loc 2 308 7 view .LVU86
	jmp	.L6
.LBE80:
.LBE86:
	.cfi_endproc
.LFE137:
	.size	ignorable_failure, .-ignorable_failure
	.section	.rodata.str1.1,"aMS",@progbits,1
.LC0:
	.string	"rmdir"
.LC1:
	.string	" invocation"
.LC2:
	.string	""
	.section	.rodata.str1.8,"aMS",@progbits,1
	.align 8
.LC3:
	.string	"Try '%s --help' for more information.\n"
	.align 8
.LC4:
	.string	"Usage: %s [OPTION]... DIRECTORY...\n"
	.align 8
.LC5:
	.string	"Remove the DIRECTORY(ies), if they are empty.\n\n      --ignore-fail-on-non-empty\n                  ignore each failure that is solely because a directory\n                    is non-empty\n"
	.align 8
.LC6:
	.string	"  -p, --parents   remove DIRECTORY and its ancestors; e.g., 'rmdir -p a/b/c' is\n                    similar to 'rmdir a/b/c a/b a'\n  -v, --verbose   output a diagnostic for every directory processed\n"
	.align 8
.LC7:
	.string	"      --help     display this help and exit\n"
	.align 8
.LC8:
	.string	"      --version  output version information and exit\n"
	.section	.rodata.str1.1
.LC9:
	.string	"["
.LC10:
	.string	"test invocation"
.LC11:
	.string	"coreutils"
.LC12:
	.string	"Multi-call invocation"
.LC13:
	.string	"sha224sum"
.LC14:
	.string	"sha2 utilities"
.LC15:
	.string	"sha256sum"
.LC16:
	.string	"sha384sum"
.LC17:
	.string	"sha512sum"
.LC18:
	.string	"\n%s online help: <%s>\n"
	.section	.rodata.str1.8
	.align 8
.LC19:
	.string	"https://www.gnu.org/software/coreutils/"
	.section	.rodata.str1.1
.LC20:
	.string	"GNU coreutils"
.LC21:
	.string	"en_"
	.section	.rodata.str1.8
	.align 8
.LC22:
	.string	"Report any translation bugs to <https://translationproject.org/team/>\n"
	.section	.rodata.str1.1
.LC23:
	.string	"Full documentation <%s%s>\n"
	.section	.rodata.str1.8
	.align 8
.LC24:
	.string	"or available locally via: info '(coreutils) %s%s'\n"
	.text
	.p2align 4
	.globl	usage
	.type	usage, @function
usage:
.LVL28:
.LFB139:
	.loc 1 159 1 is_stmt 1 view -0
	.cfi_startproc
	.loc 1 159 1 is_stmt 0 view .LVU88
	endbr64
	pushq	%r13
	.cfi_def_cfa_offset 16
	.cfi_offset 13, -16
	.loc 1 161 5 view .LVU89
	movl	$5, %edx
	.loc 1 159 1 view .LVU90
	pushq	%r12
	.cfi_def_cfa_offset 24
	.cfi_offset 12, -24
	pushq	%rbp
	.cfi_def_cfa_offset 32
	.cfi_offset 6, -32
	movl	%edi, %ebp
	pushq	%rbx
	.cfi_def_cfa_offset 40
	.cfi_offset 3, -40
	subq	$136, %rsp
	.cfi_def_cfa_offset 176
	movq	program_name(%rip), %r12
	.loc 1 159 1 view .LVU91
	movq	%fs:40, %rax
	movq	%rax, 120(%rsp)
	xorl	%eax, %eax
	.loc 1 160 3 is_stmt 1 view .LVU92
	.loc 1 160 6 is_stmt 0 view .LVU93
	testl	%edi, %edi
	je	.L31
	.loc 1 161 5 is_stmt 1 view .LVU94
	.loc 1 161 5 view .LVU95
	leaq	.LC3(%rip), %rsi
	xorl	%edi, %edi
.LVL29:
	.loc 1 161 5 is_stmt 0 view .LVU96
	call	dcgettext@PLT
.LVL30:
.LBB99:
.LBB100:
	.file 4 "/usr/include/x86_64-linux-gnu/bits/stdio2.h"
	.loc 4 100 10 view .LVU97
	movq	stderr(%rip), %rdi
	movq	%r12, %rcx
	movl	$1, %esi
.LBE100:
.LBE99:
	.loc 1 161 5 view .LVU98
	movq	%rax, %rdx
.LVL31:
.LBB102:
.LBI99:
	.loc 4 98 1 is_stmt 1 view .LVU99
.LBB101:
	.loc 4 100 3 view .LVU100
	.loc 4 100 10 is_stmt 0 view .LVU101
	xorl	%eax, %eax
.LVL32:
	.loc 4 100 10 view .LVU102
	call	__fprintf_chk@PLT
.LVL33:
.L32:
	.loc 4 100 10 view .LVU103
.LBE101:
.LBE102:
	.loc 1 182 3 is_stmt 1 view .LVU104
	movl	%ebp, %edi
	call	exit@PLT
.LVL34:
.L31:
	.loc 1 164 7 view .LVU105
	.loc 1 164 15 is_stmt 0 view .LVU106
	leaq	.LC4(%rip), %rsi
	xorl	%edi, %edi
.LVL35:
.LBB103:
.LBB104:
	.loc 2 636 67 view .LVU107
	leaq	.LC15(%rip), %rbx
.LBE104:
.LBE103:
	.loc 1 164 15 view .LVU108
	call	dcgettext@PLT
.LVL36:
.LBB130:
.LBB131:
	.loc 4 107 10 view .LVU109
	movq	%r12, %rdx
	movl	$1, %edi
.LBE131:
.LBE130:
	.loc 1 164 15 view .LVU110
	movq	%rax, %rsi
.LVL37:
.LBB133:
.LBI130:
	.loc 4 105 1 is_stmt 1 view .LVU111
.LBB132:
	.loc 4 107 3 view .LVU112
	.loc 4 107 10 is_stmt 0 view .LVU113
	xorl	%eax, %eax
.LVL38:
	.loc 4 107 10 view .LVU114
	call	__printf_chk@PLT
.LVL39:
	.loc 4 107 10 view .LVU115
.LBE132:
.LBE133:
	.loc 1 165 7 is_stmt 1 view .LVU116
	movq	stdout(%rip), %r12
	movl	$5, %edx
	xorl	%edi, %edi
	leaq	.LC5(%rip), %rsi
	call	dcgettext@PLT
.LVL40:
	movq	%r12, %rsi
	movq	%rax, %rdi
	call	fputs_unlocked@PLT
.LVL41:
	.loc 1 172 7 view .LVU117
	movq	stdout(%rip), %r12
	movl	$5, %edx
	xorl	%edi, %edi
	leaq	.LC6(%rip), %rsi
	call	dcgettext@PLT
.LVL42:
	movq	%r12, %rsi
	movq	%rax, %rdi
	call	fputs_unlocked@PLT
.LVL43:
	.loc 1 178 7 view .LVU118
	movq	stdout(%rip), %r12
	movl	$5, %edx
	xorl	%edi, %edi
	leaq	.LC7(%rip), %rsi
	call	dcgettext@PLT
.LVL44:
	movq	%r12, %rsi
	movq	%rax, %rdi
	call	fputs_unlocked@PLT
.LVL45:
	.loc 1 179 7 view .LVU119
	movq	stdout(%rip), %r12
	movl	$5, %edx
	xorl	%edi, %edi
	leaq	.LC8(%rip), %rsi
	call	dcgettext@PLT
.LVL46:
	movq	%r12, %rsi
	movq	%rax, %rdi
	call	fputs_unlocked@PLT
.LVL47:
	.loc 1 180 7 view .LVU120
.LBB134:
.LBI103:
	.loc 2 634 1 view .LVU121
.LBB129:
	.loc 2 636 3 view .LVU122
	.loc 2 636 67 is_stmt 0 view .LVU123
	leaq	.LC9(%rip), %rax
	movq	%rbx, 48(%rsp)
	leaq	.LC16(%rip), %rbx
	movq	%rax, (%rsp)
	leaq	.LC10(%rip), %rax
	movq	%rax, 8(%rsp)
	leaq	.LC11(%rip), %rax
	movq	%rax, 16(%rsp)
	leaq	.LC12(%rip), %rax
	movq	%rax, 24(%rsp)
	leaq	.LC13(%rip), %rax
	movq	$0, 96(%rsp)
	movq	$0, 104(%rsp)
	.loc 2 646 3 is_stmt 1 view .LVU124
.LVL48:
	.loc 2 647 3 view .LVU125
	.loc 2 649 3 view .LVU126
	.loc 2 649 9 view .LVU127
	.loc 2 636 67 is_stmt 0 view .LVU128
	movq	%rax, 32(%rsp)
	leaq	.LC14(%rip), %rax
	movq	%rbx, 64(%rsp)
	leaq	.LC17(%rip), %rbx
	movq	%rax, 40(%rsp)
	movq	%rax, 56(%rsp)
	movq	%rax, 72(%rsp)
	movq	%rbx, 80(%rsp)
	leaq	.LC0(%rip), %rbx
	movq	%rax, 88(%rsp)
	.loc 2 647 25 view .LVU129
	movq	%rsp, %rax
.LVL49:
	.p2align 4,,10
	.p2align 3
.L34:
	.loc 2 650 5 is_stmt 1 view .LVU130
	.loc 2 649 18 is_stmt 0 view .LVU131
	movq	16(%rax), %rdi
	.loc 2 650 13 view .LVU132
	addq	$16, %rax
.LVL50:
	.loc 2 649 9 is_stmt 1 view .LVU133
	testq	%rdi, %rdi
	je	.L33
	.loc 2 649 33 is_stmt 0 view .LVU134
	movl	$6, %ecx
	movq	%rbx, %rsi
	repz cmpsb
	seta	%dl
	sbbb	$0, %dl
	.loc 2 649 28 view .LVU135
	testb	%dl, %dl
	jne	.L34
.L33:
	.loc 2 652 3 is_stmt 1 view .LVU136
	.loc 2 652 15 is_stmt 0 view .LVU137
	movq	8(%rax), %r12
	.loc 2 655 11 view .LVU138
	movl	$5, %edx
	leaq	.LC18(%rip), %rsi
	xorl	%edi, %edi
	.loc 2 652 6 view .LVU139
	testq	%r12, %r12
	je	.L35
	.loc 2 653 5 is_stmt 1 view .LVU140
.LVL51:
	.loc 2 655 3 view .LVU141
	.loc 2 655 11 is_stmt 0 view .LVU142
	call	dcgettext@PLT
.LVL52:
.LBB105:
.LBB106:
	.loc 4 107 10 view .LVU143
	leaq	.LC19(%rip), %rcx
	movl	$1, %edi
	leaq	.LC20(%rip), %rdx
.LBE106:
.LBE105:
	.loc 2 655 11 view .LVU144
	movq	%rax, %rsi
.LVL53:
.LBB110:
.LBI105:
	.loc 4 105 1 is_stmt 1 view .LVU145
.LBB107:
	.loc 4 107 3 view .LVU146
	.loc 4 107 10 is_stmt 0 view .LVU147
	xorl	%eax, %eax
.LVL54:
	.loc 4 107 10 view .LVU148
	call	__printf_chk@PLT
.LVL55:
	.loc 4 107 10 view .LVU149
.LBE107:
.LBE110:
	.loc 2 659 3 is_stmt 1 view .LVU150
	.loc 2 659 29 is_stmt 0 view .LVU151
	movl	$5, %edi
	xorl	%esi, %esi
	call	setlocale@PLT
.LVL56:
	movq	%rax, %rdi
.LVL57:
	.loc 2 660 3 is_stmt 1 view .LVU152
	.loc 2 660 6 is_stmt 0 view .LVU153
	testq	%rax, %rax
	je	.L36
	.loc 2 660 22 view .LVU154
	movl	$3, %edx
	leaq	.LC21(%rip), %rsi
	call	strncmp@PLT
.LVL58:
	.loc 2 660 19 view .LVU155
	testl	%eax, %eax
	jne	.L39
.LVL59:
.L36:
	.loc 2 669 3 is_stmt 1 view .LVU156
	.loc 2 669 11 is_stmt 0 view .LVU157
	xorl	%edi, %edi
	movl	$5, %edx
	leaq	.LC23(%rip), %rsi
	call	dcgettext@PLT
.LVL60:
.LBB111:
.LBB112:
	.loc 4 107 10 view .LVU158
	leaq	.LC0(%rip), %rcx
	leaq	.LC19(%rip), %rdx
	movl	$1, %edi
.LBE112:
.LBE111:
	.loc 2 669 11 view .LVU159
	movq	%rax, %rsi
.LVL61:
.LBB118:
.LBI111:
	.loc 4 105 1 is_stmt 1 view .LVU160
.LBB113:
	.loc 4 107 3 view .LVU161
	.loc 4 107 10 is_stmt 0 view .LVU162
	xorl	%eax, %eax
.LVL62:
	.loc 4 107 10 view .LVU163
.LBE113:
.LBE118:
	.loc 2 671 3 view .LVU164
	leaq	.LC1(%rip), %r13
.LBB119:
.LBB114:
	.loc 4 107 10 view .LVU165
	call	__printf_chk@PLT
.LVL63:
	.loc 4 107 10 view .LVU166
.LBE114:
.LBE119:
	.loc 2 671 3 is_stmt 1 view .LVU167
	cmpq	%rbx, %r12
	leaq	.LC2(%rip), %rcx
	cmovne	%rcx, %r13
.L37:
	.loc 2 671 11 is_stmt 0 view .LVU168
	xorl	%edi, %edi
	leaq	.LC24(%rip), %rsi
	movl	$5, %edx
	call	dcgettext@PLT
.LVL64:
.LBB120:
.LBB121:
	.loc 4 107 10 view .LVU169
	movq	%r13, %rcx
	movq	%r12, %rdx
	movl	$1, %edi
.LBE121:
.LBE120:
	.loc 2 671 11 view .LVU170
	movq	%rax, %rsi
.LVL65:
.LBB123:
.LBI120:
	.loc 4 105 1 is_stmt 1 view .LVU171
.LBB122:
	.loc 4 107 3 view .LVU172
	.loc 4 107 10 is_stmt 0 view .LVU173
	xorl	%eax, %eax
.LVL66:
	.loc 4 107 10 view .LVU174
	call	__printf_chk@PLT
.LVL67:
	.loc 4 107 10 view .LVU175
.LBE122:
.LBE123:
	.loc 2 673 1 view .LVU176
	jmp	.L32
.LVL68:
.L35:
	.loc 2 655 3 is_stmt 1 view .LVU177
	.loc 2 655 11 is_stmt 0 view .LVU178
	call	dcgettext@PLT
.LVL69:
.LBB124:
.LBB108:
	.loc 4 107 10 view .LVU179
	leaq	.LC19(%rip), %rcx
	movl	$1, %edi
	leaq	.LC20(%rip), %rdx
.LBE108:
.LBE124:
	.loc 2 655 11 view .LVU180
	movq	%rax, %rsi
.LVL70:
.LBB125:
	.loc 4 105 1 is_stmt 1 view .LVU181
.LBB109:
	.loc 4 107 3 view .LVU182
	.loc 4 107 10 is_stmt 0 view .LVU183
	xorl	%eax, %eax
.LVL71:
	.loc 4 107 10 view .LVU184
	call	__printf_chk@PLT
.LVL72:
	.loc 4 107 10 view .LVU185
.LBE109:
.LBE125:
	.loc 2 659 3 is_stmt 1 view .LVU186
	.loc 2 659 29 is_stmt 0 view .LVU187
	movl	$5, %edi
	xorl	%esi, %esi
	call	setlocale@PLT
.LVL73:
	movq	%rax, %rdi
.LVL74:
	.loc 2 660 3 is_stmt 1 view .LVU188
	.loc 2 660 6 is_stmt 0 view .LVU189
	testq	%rax, %rax
	je	.L38
	.loc 2 660 22 view .LVU190
	movl	$3, %edx
	leaq	.LC21(%rip), %rsi
	call	strncmp@PLT
.LVL75:
	.loc 2 660 19 view .LVU191
	testl	%eax, %eax
	jne	.L57
.L38:
	.loc 2 669 3 is_stmt 1 view .LVU192
	.loc 2 669 11 is_stmt 0 view .LVU193
	movl	$5, %edx
	leaq	.LC23(%rip), %rsi
	xorl	%edi, %edi
	call	dcgettext@PLT
.LVL76:
.LBB126:
.LBB115:
	.loc 4 107 10 view .LVU194
	leaq	.LC0(%rip), %rcx
	leaq	.LC19(%rip), %rdx
	movl	$1, %edi
.LBE115:
.LBE126:
	.loc 2 669 11 view .LVU195
	movq	%rax, %rsi
.LVL77:
.LBB127:
	.loc 4 105 1 is_stmt 1 view .LVU196
.LBB116:
	.loc 4 107 3 view .LVU197
	.loc 4 107 10 is_stmt 0 view .LVU198
	xorl	%eax, %eax
.LVL78:
	.loc 4 107 10 view .LVU199
.LBE116:
.LBE127:
	.loc 2 646 15 view .LVU200
	leaq	.LC0(%rip), %r12
.LBB128:
.LBB117:
	.loc 4 107 10 view .LVU201
	call	__printf_chk@PLT
.LVL79:
	.loc 4 107 10 view .LVU202
.LBE117:
.LBE128:
	.loc 2 671 3 is_stmt 1 view .LVU203
	leaq	.LC1(%rip), %r13
	jmp	.L37
.L57:
	.loc 2 646 15 is_stmt 0 view .LVU204
	leaq	.LC0(%rip), %r12
.LVL80:
.L39:
	.loc 2 666 7 is_stmt 1 view .LVU205
	movq	stdout(%rip), %r13
	xorl	%edi, %edi
	movl	$5, %edx
	leaq	.LC22(%rip), %rsi
	call	dcgettext@PLT
.LVL81:
	movq	%rax, %rdi
	movq	%r13, %rsi
	call	fputs_unlocked@PLT
.LVL82:
	jmp	.L36
.LBE129:
.LBE134:
	.cfi_endproc
.LFE139:
	.size	usage, .-usage
	.section	.rodata.str1.1
.LC25:
	.string	"/usr/local/share/locale"
.LC26:
	.string	"David MacKenzie"
.LC27:
	.string	"pv"
.LC28:
	.string	"missing operand"
.LC29:
	.string	"removing directory, %s"
.LC30:
	.string	"failed to remove %s"
.LC31:
	.string	"failed to remove directory %s"
	.section	.text.startup,"ax",@progbits
	.p2align 4
	.globl	main
	.type	main, @function
main:
.LVL83:
.LFB140:
	.loc 1 187 1 view -0
	.cfi_startproc
	.loc 1 187 1 is_stmt 0 view .LVU207
	endbr64
	.loc 1 188 3 is_stmt 1 view .LVU208
.LVL84:
	.loc 1 189 3 view .LVU209
	.loc 1 191 33 view .LVU210
	.loc 1 192 3 view .LVU211
	.loc 1 187 1 is_stmt 0 view .LVU212
	pushq	%r15
	.cfi_def_cfa_offset 16
	.cfi_offset 15, -16
	pushq	%r14
	.cfi_def_cfa_offset 24
	.cfi_offset 14, -24
	pushq	%r13
	.cfi_def_cfa_offset 32
	.cfi_offset 13, -32
	pushq	%r12
	.cfi_def_cfa_offset 40
	.cfi_offset 12, -40
	.loc 1 201 18 view .LVU213
	leaq	longopts(%rip), %r12
	.loc 1 187 1 view .LVU214
	pushq	%rbp
	.cfi_def_cfa_offset 48
	.cfi_offset 6, -48
	movl	%edi, %ebp
	pushq	%rbx
	.cfi_def_cfa_offset 56
	.cfi_offset 3, -56
	movq	%rsi, %rbx
	subq	$24, %rsp
	.cfi_def_cfa_offset 80
	.loc 1 192 3 view .LVU215
	movq	(%rsi), %rdi
.LVL85:
	.loc 1 192 3 view .LVU216
	call	set_program_name@PLT
.LVL86:
	.loc 1 193 3 is_stmt 1 view .LVU217
	leaq	.LC2(%rip), %rsi
	movl	$6, %edi
	call	setlocale@PLT
.LVL87:
	.loc 1 194 3 view .LVU218
	leaq	.LC25(%rip), %rsi
	leaq	.LC11(%rip), %rdi
	call	bindtextdomain@PLT
.LVL88:
	.loc 1 195 3 view .LVU219
	leaq	.LC11(%rip), %rdi
	call	textdomain@PLT
.LVL89:
	.loc 1 197 3 view .LVU220
	movq	close_stdout@GOTPCREL(%rip), %rdi
	call	atexit@PLT
.LVL90:
	.loc 1 199 3 view .LVU221
	.loc 1 199 24 is_stmt 0 view .LVU222
	movb	$0, remove_empty_parents(%rip)
	.loc 1 201 3 is_stmt 1 view .LVU223
.L59:
	.loc 1 201 9 view .LVU224
	.loc 1 201 18 is_stmt 0 view .LVU225
	xorl	%r8d, %r8d
	movq	%r12, %rcx
	leaq	.LC27(%rip), %rdx
	movq	%rbx, %rsi
	movl	%ebp, %edi
	call	getopt_long@PLT
.LVL91:
	.loc 1 201 9 view .LVU226
	cmpl	$-1, %eax
	je	.L95
	.loc 1 203 7 is_stmt 1 view .LVU227
	cmpl	$112, %eax
	je	.L60
	jle	.L96
	cmpl	$118, %eax
	jne	.L97
	.loc 1 212 11 view .LVU228
	.loc 1 212 19 is_stmt 0 view .LVU229
	movb	$1, verbose(%rip)
	.loc 1 213 11 is_stmt 1 view .LVU230
	jmp	.L59
	.p2align 4,,10
	.p2align 3
.L96:
	.loc 1 203 7 is_stmt 0 view .LVU231
	cmpl	$-131, %eax
	jne	.L98
	.loc 1 214 9 is_stmt 1 view .LVU232
	.loc 1 214 30 view .LVU233
	.loc 1 215 9 view .LVU234
	movq	stdout(%rip), %rdi
	movq	Version(%rip), %rcx
	xorl	%eax, %eax
.LVL92:
	.loc 1 215 9 is_stmt 0 view .LVU235
	xorl	%r9d, %r9d
	leaq	.LC26(%rip), %r8
	leaq	.LC20(%rip), %rdx
	leaq	.LC0(%rip), %rsi
	call	version_etc@PLT
.LVL93:
	.loc 1 215 9 is_stmt 1 view .LVU236
	xorl	%edi, %edi
	call	exit@PLT
.LVL94:
	.p2align 4,,10
	.p2align 3
.L97:
	.loc 1 203 7 is_stmt 0 view .LVU237
	cmpl	$128, %eax
	jne	.L94
	.loc 1 209 11 is_stmt 1 view .LVU238
	.loc 1 209 36 is_stmt 0 view .LVU239
	movb	$1, ignore_fail_on_non_empty(%rip)
	.loc 1 210 11 is_stmt 1 view .LVU240
	jmp	.L59
.L98:
	.loc 1 203 7 is_stmt 0 view .LVU241
	cmpl	$-130, %eax
	jne	.L94
	.loc 1 214 9 is_stmt 1 view .LVU242
	xorl	%edi, %edi
	call	usage
.LVL95:
	.p2align 4,,10
	.p2align 3
.L60:
	.loc 1 206 11 view .LVU243
	.loc 1 206 32 is_stmt 0 view .LVU244
	movb	$1, remove_empty_parents(%rip)
	.loc 1 207 11 is_stmt 1 view .LVU245
	jmp	.L59
.L95:
	.loc 1 221 3 view .LVU246
	.loc 1 221 14 is_stmt 0 view .LVU247
	movl	optind(%rip), %eax
.LVL96:
	.loc 1 221 6 view .LVU248
	cmpl	%ebp, %eax
	je	.L69
	.loc 1 227 10 is_stmt 1 view .LVU249
	.loc 1 188 8 is_stmt 0 view .LVU250
	movb	$1, 14(%rsp)
.LBB140:
	.loc 1 233 31 view .LVU251
	leaq	.LC29(%rip), %r14
.LBE140:
	.loc 1 227 3 view .LVU252
	jl	.L70
	jmp	.L71
.LVL97:
	.p2align 4,,10
	.p2align 3
.L72:
.LBB149:
	.loc 1 235 7 is_stmt 1 view .LVU253
	.loc 1 235 11 is_stmt 0 view .LVU254
	movq	%r15, %rdi
	call	rmdir@PLT
.LVL98:
	.loc 1 235 10 view .LVU255
	testl	%eax, %eax
	jne	.L99
	.loc 1 246 12 is_stmt 1 view .LVU256
	.loc 1 246 16 is_stmt 0 view .LVU257
	movzbl	remove_empty_parents(%rip), %r12d
	.loc 1 246 15 view .LVU258
	testb	%r12b, %r12b
	jne	.L100
.LVL99:
.L74:
	.loc 1 246 15 view .LVU259
.LBE149:
	.loc 1 227 25 is_stmt 1 view .LVU260
	movl	optind(%rip), %eax
	addl	$1, %eax
	movl	%eax, optind(%rip)
	.loc 1 227 10 view .LVU261
	.loc 1 227 3 is_stmt 0 view .LVU262
	cmpl	%ebp, %eax
	jge	.L71
.LVL100:
.L70:
.LBB150:
	.loc 1 229 7 is_stmt 1 view .LVU263
	.loc 1 229 23 is_stmt 0 view .LVU264
	cltq
	.loc 1 232 10 view .LVU265
	cmpb	$0, verbose(%rip)
	.loc 1 229 13 view .LVU266
	movq	(%rbx,%rax,8), %r15
.LVL101:
	.loc 1 232 7 is_stmt 1 view .LVU267
	.loc 1 232 10 is_stmt 0 view .LVU268
	je	.L72
	.loc 1 233 9 is_stmt 1 view .LVU269
	movq	%r15, %rsi
	movl	$4, %edi
	call	quotearg_style@PLT
.LVL102:
	.loc 1 233 31 is_stmt 0 view .LVU270
	movq	%r14, %rsi
	xorl	%edi, %edi
	movl	$5, %edx
	.loc 1 233 9 view .LVU271
	movq	%rax, %r12
	.loc 1 233 31 view .LVU272
	call	dcgettext@PLT
.LVL103:
	.loc 1 233 9 view .LVU273
	movq	stdout(%rip), %rdi
	movq	%r12, %rdx
	.loc 1 233 31 view .LVU274
	movq	%rax, %rsi
	.loc 1 233 9 view .LVU275
	xorl	%eax, %eax
	call	prog_fprintf@PLT
.LVL104:
	jmp	.L72
.L99:
.LBB141:
	.loc 1 237 11 is_stmt 1 view .LVU276
	.loc 1 237 29 is_stmt 0 view .LVU277
	call	__errno_location@PLT
.LVL105:
	.loc 1 238 15 view .LVU278
	movq	%r15, %rsi
	.loc 1 237 15 view .LVU279
	movl	(%rax), %r12d
.LVL106:
	.loc 1 238 11 is_stmt 1 view .LVU280
	.loc 1 238 15 is_stmt 0 view .LVU281
	movl	%r12d, %edi
	call	ignorable_failure
.LVL107:
	.loc 1 238 14 view .LVU282
	testb	%al, %al
	jne	.L74
	.loc 1 243 11 is_stmt 1 view .LVU283
	movq	%r15, %rsi
	movl	$4, %edi
	call	quotearg_style@PLT
.LVL108:
	.loc 1 243 34 is_stmt 0 view .LVU284
	movl	$5, %edx
	leaq	.LC30(%rip), %rsi
	xorl	%edi, %edi
	.loc 1 243 11 view .LVU285
	movq	%rax, %r13
	.loc 1 243 34 view .LVU286
	call	dcgettext@PLT
.LVL109:
	.loc 1 243 11 view .LVU287
	movq	%r13, %rcx
	movl	%r12d, %esi
	xorl	%edi, %edi
	.loc 1 243 34 view .LVU288
	movq	%rax, %rdx
	.loc 1 243 11 view .LVU289
	xorl	%eax, %eax
	call	error@PLT
.LVL110:
	.loc 1 244 11 is_stmt 1 view .LVU290
	.loc 1 244 14 is_stmt 0 view .LVU291
	movb	$0, 14(%rsp)
.LBE141:
	jmp	.L74
.LVL111:
.L100:
	.loc 1 248 11 is_stmt 1 view .LVU292
.LBB142:
.LBI142:
	.loc 1 114 1 view .LVU293
.LBB143:
	.loc 1 116 3 view .LVU294
	.loc 1 117 3 view .LVU295
	.loc 1 119 3 view .LVU296
	movq	%r15, %rdi
	call	strip_trailing_slashes@PLT
.LVL112:
	.p2align 4,,10
	.p2align 3
.L81:
	.loc 1 120 3 view .LVU297
.LBB144:
	.loc 1 122 7 view .LVU298
	.loc 1 122 15 is_stmt 0 view .LVU299
	movl	$47, %esi
	movq	%r15, %rdi
	call	strrchr@PLT
.LVL113:
	.loc 1 123 7 is_stmt 1 view .LVU300
	.loc 1 123 10 is_stmt 0 view .LVU301
	testq	%rax, %rax
	je	.L82
	.loc 1 127 13 is_stmt 1 view .LVU302
	cmpq	%rax, %r15
	jb	.L77
	jmp	.L78
	.p2align 4,,10
	.p2align 3
.L79:
	.loc 1 128 9 view .LVU303
	subq	$1, %rax
.LVL114:
	.loc 1 127 13 view .LVU304
	cmpq	%rax, %r15
	je	.L84
.L77:
	.loc 1 127 26 is_stmt 0 view .LVU305
	cmpb	$47, (%rax)
	je	.L79
.L78:
	.loc 1 129 7 is_stmt 1 view .LVU306
	.loc 1 132 10 is_stmt 0 view .LVU307
	cmpb	$0, verbose(%rip)
	.loc 1 129 16 view .LVU308
	movb	$0, 1(%rax)
	.loc 1 132 7 is_stmt 1 view .LVU309
	.loc 1 132 10 is_stmt 0 view .LVU310
	jne	.L101
.LVL115:
.L80:
	.loc 1 135 7 is_stmt 1 view .LVU311
	.loc 1 135 13 is_stmt 0 view .LVU312
	movq	%r15, %rdi
	call	rmdir@PLT
.LVL116:
	.loc 1 136 7 is_stmt 1 view .LVU313
	.loc 1 138 7 view .LVU314
	.loc 1 138 10 is_stmt 0 view .LVU315
	testl	%eax, %eax
	je	.L81
	.loc 1 136 25 view .LVU316
	call	__errno_location@PLT
.LVL117:
	.loc 1 141 15 view .LVU317
	movq	%r15, %rsi
	.loc 1 136 11 view .LVU318
	movl	(%rax), %r9d
	.loc 1 141 11 is_stmt 1 view .LVU319
	.loc 1 141 15 is_stmt 0 view .LVU320
	movl	%r9d, %edi
	movl	%r9d, 8(%rsp)
	call	ignorable_failure
.LVL118:
	.loc 1 141 14 view .LVU321
	testb	%al, %al
	je	.L102
.L82:
	.loc 1 141 14 view .LVU322
	movl	%r12d, %r8d
.L76:
.LVL119:
	.loc 1 141 14 view .LVU323
.LBE144:
	.loc 1 154 3 is_stmt 1 view .LVU324
	.loc 1 154 3 is_stmt 0 view .LVU325
	andb	%r8b, 14(%rsp)
.LVL120:
	.loc 1 154 3 view .LVU326
	jmp	.L74
.LVL121:
	.p2align 4,,10
	.p2align 3
.L84:
.LBB145:
	.loc 1 154 3 view .LVU327
	movq	%r15, %rax
.LVL122:
	.loc 1 129 7 is_stmt 1 view .LVU328
	.loc 1 132 10 is_stmt 0 view .LVU329
	cmpb	$0, verbose(%rip)
	.loc 1 129 16 view .LVU330
	movb	$0, 1(%rax)
	.loc 1 132 7 is_stmt 1 view .LVU331
	.loc 1 132 10 is_stmt 0 view .LVU332
	je	.L80
.L101:
	.loc 1 133 9 is_stmt 1 view .LVU333
	movq	%r15, %rsi
	movl	$4, %edi
	call	quotearg_style@PLT
.LVL123:
	.loc 1 133 31 is_stmt 0 view .LVU334
	movq	%r14, %rsi
	xorl	%edi, %edi
	movl	$5, %edx
	.loc 1 133 9 view .LVU335
	movq	%rax, %r13
	.loc 1 133 31 view .LVU336
	call	dcgettext@PLT
.LVL124:
	.loc 1 133 9 view .LVU337
	movq	stdout(%rip), %rdi
	movq	%r13, %rdx
	.loc 1 133 31 view .LVU338
	movq	%rax, %rsi
	.loc 1 133 9 view .LVU339
	xorl	%eax, %eax
	call	prog_fprintf@PLT
.LVL125:
	jmp	.L80
.LVL126:
.L71:
	.loc 1 133 9 view .LVU340
.LBE145:
.LBE143:
.LBE142:
.LBE150:
	.loc 1 252 3 is_stmt 1 view .LVU341
	.loc 1 252 28 is_stmt 0 view .LVU342
	movzbl	14(%rsp), %r13d
	.loc 1 253 1 view .LVU343
	addq	$24, %rsp
	.cfi_remember_state
	.cfi_def_cfa_offset 56
	popq	%rbx
	.cfi_def_cfa_offset 48
.LVL127:
	.loc 1 253 1 view .LVU344
	popq	%rbp
	.cfi_def_cfa_offset 40
.LVL128:
	.loc 1 252 28 view .LVU345
	xorl	$1, %r13d
	.loc 1 253 1 view .LVU346
	popq	%r12
	.cfi_def_cfa_offset 32
	.loc 1 252 28 view .LVU347
	movzbl	%r13b, %eax
	.loc 1 253 1 view .LVU348
	popq	%r13
	.cfi_def_cfa_offset 24
	popq	%r14
	.cfi_def_cfa_offset 16
	popq	%r15
	.cfi_def_cfa_offset 8
	ret
.LVL129:
.L102:
	.cfi_restore_state
.LBB151:
.LBB148:
.LBB147:
.LBB146:
	.loc 1 148 15 view .LVU349
	movq	%r15, %rsi
	movl	$4, %edi
	movb	%al, 15(%rsp)
	.loc 1 148 15 is_stmt 1 view .LVU350
	call	quotearg_style@PLT
.LVL130:
	.loc 1 148 38 is_stmt 0 view .LVU351
	movl	$5, %edx
	leaq	.LC31(%rip), %rsi
	xorl	%edi, %edi
	.loc 1 148 15 view .LVU352
	movq	%rax, %r12
	.loc 1 148 38 view .LVU353
	call	dcgettext@PLT
.LVL131:
	.loc 1 148 15 view .LVU354
	movl	8(%rsp), %r9d
	movq	%r12, %rcx
	xorl	%edi, %edi
	.loc 1 148 38 view .LVU355
	movq	%rax, %rdx
	.loc 1 148 15 view .LVU356
	xorl	%eax, %eax
	movl	%r9d, %esi
	call	error@PLT
.LVL132:
	movzbl	15(%rsp), %r8d
	jmp	.L76
.LVL133:
.L69:
	.loc 1 148 15 view .LVU357
.LBE146:
.LBE147:
.LBE148:
.LBE151:
	.loc 1 223 7 is_stmt 1 view .LVU358
	.loc 1 223 20 is_stmt 0 view .LVU359
	movl	$5, %edx
	leaq	.LC28(%rip), %rsi
	xorl	%edi, %edi
	call	dcgettext@PLT
.LVL134:
	.loc 1 223 7 view .LVU360
	xorl	%esi, %esi
	xorl	%edi, %edi
	.loc 1 223 20 view .LVU361
	movq	%rax, %rdx
	.loc 1 223 7 view .LVU362
	xorl	%eax, %eax
	call	error@PLT
.LVL135:
.L94:
	.loc 1 224 7 is_stmt 1 view .LVU363
	movl	$1, %edi
	call	usage
.LVL136:
	.cfi_endproc
.LFE140:
	.size	main, .-main
	.section	.rodata.str1.1
.LC32:
	.string	"ignore-fail-on-non-empty"
.LC33:
	.string	"path"
.LC34:
	.string	"parents"
.LC35:
	.string	"verbose"
.LC36:
	.string	"help"
.LC37:
	.string	"version"
	.section	.data.rel.ro.local,"aw"
	.align 32
	.type	longopts, @object
	.size	longopts, 224
longopts:
	.quad	.LC32
	.long	0
	.zero	4
	.quad	0
	.long	128
	.zero	4
	.quad	.LC33
	.long	0
	.zero	4
	.quad	0
	.long	112
	.zero	4
	.quad	.LC34
	.long	0
	.zero	4
	.quad	0
	.long	112
	.zero	4
	.quad	.LC35
	.long	0
	.zero	4
	.quad	0
	.long	118
	.zero	4
	.quad	.LC36
	.long	0
	.zero	4
	.quad	0
	.long	-130
	.zero	4
	.quad	.LC37
	.long	0
	.zero	4
	.quad	0
	.long	-131
	.zero	4
	.quad	0
	.long	0
	.zero	4
	.quad	0
	.long	0
	.zero	4
	.local	verbose
	.comm	verbose,1,1
	.local	ignore_fail_on_non_empty
	.comm	ignore_fail_on_non_empty,1,1
	.local	remove_empty_parents
	.comm	remove_empty_parents,1,1
	.text
.Letext0:
	.file 5 "/usr/lib/gcc/x86_64-linux-gnu/9/include/stddef.h"
	.file 6 "/usr/include/x86_64-linux-gnu/bits/types.h"
	.file 7 "/usr/include/x86_64-linux-gnu/bits/types/struct_FILE.h"
	.file 8 "/usr/include/x86_64-linux-gnu/bits/types/FILE.h"
	.file 9 "/usr/include/stdio.h"
	.file 10 "/usr/include/x86_64-linux-gnu/bits/sys_errlist.h"
	.file 11 "/usr/include/x86_64-linux-gnu/bits/types/time_t.h"
	.file 12 "./lib/sys/select.h"
	.file 13 "/usr/include/x86_64-linux-gnu/bits/getopt_core.h"
	.file 14 "/usr/include/x86_64-linux-gnu/bits/getopt_ext.h"
	.file 15 "/usr/include/time.h"
	.file 16 "/usr/include/signal.h"
	.file 17 "/usr/include/unistd.h"
	.file 18 "/usr/include/errno.h"
	.file 19 "src/version.h"
	.file 20 "./lib/exitfail.h"
	.file 21 "/usr/include/x86_64-linux-gnu/bits/dirent.h"
	.file 22 "./lib/timespec.h"
	.file 23 "./lib/version-etc.h"
	.file 24 "./lib/progname.h"
	.file 25 "./lib/quotearg.h"
	.file 26 "./lib/error.h"
	.file 27 "/usr/include/libintl.h"
	.file 28 "/usr/include/string.h"
	.file 29 "src/prog-fprintf.h"
	.file 30 "./lib/dirname.h"
	.file 31 "/usr/include/locale.h"
	.file 32 "/usr/include/stdlib.h"
	.file 33 "/usr/include/dirent.h"
	.section	.note.GNU-stack,"",@progbits
	.section	.note.gnu.property,"a"
	.align 8
	.long	 1f - 0f
	.long	 4f - 1f
	.long	 5
0:
	.string	 "GNU"
1:
	.align 8
	.long	 0xc0000002
	.long	 3f - 2f
2:
	.long	 0x3
3:
	.align 8
4:
