	.file	"runcon.c"
	.text
.Ltext0:
	.section	.rodata.str1.1,"aMS",@progbits,1
.LC0:
	.string	"runcon"
.LC1:
	.string	" invocation"
.LC2:
	.string	""
	.section	.rodata.str1.8,"aMS",@progbits,1
	.align 8
.LC3:
	.string	"Try '%s --help' for more information.\n"
	.align 8
.LC4:
	.string	"Usage: %s CONTEXT COMMAND [args]\n  or:  %s [ -c ] [-u USER] [-r ROLE] [-t TYPE] [-l RANGE] COMMAND [args]\n"
	.align 8
.LC5:
	.string	"Run a program in a different SELinux security context.\nWith neither CONTEXT nor COMMAND, print the current security context.\n"
	.align 8
.LC6:
	.string	"\nMandatory arguments to long options are mandatory for short options too.\n"
	.align 8
.LC7:
	.ascii	"  CONTEXT"
	.string	"            Complete security context\n  -c, --compute      compute process transition context before modifying\n  -t, --type=TYPE    type (for same role as parent)\n  -u, --user=USER    user identity\n  -r, --role=ROLE    role\n  -l, --range=RANGE  levelrange\n"
	.align 8
.LC8:
	.string	"      --help     display this help and exit\n"
	.align 8
.LC9:
	.string	"      --version  output version information and exit\n"
	.section	.rodata.str1.1
.LC10:
	.string	"["
.LC11:
	.string	"test invocation"
.LC12:
	.string	"coreutils"
.LC13:
	.string	"Multi-call invocation"
.LC14:
	.string	"sha224sum"
.LC15:
	.string	"sha2 utilities"
.LC16:
	.string	"sha256sum"
.LC17:
	.string	"sha384sum"
.LC18:
	.string	"sha512sum"
.LC19:
	.string	"\n%s online help: <%s>\n"
	.section	.rodata.str1.8
	.align 8
.LC20:
	.string	"https://www.gnu.org/software/coreutils/"
	.section	.rodata.str1.1
.LC21:
	.string	"GNU coreutils"
.LC22:
	.string	"en_"
	.section	.rodata.str1.8
	.align 8
.LC23:
	.string	"Report any translation bugs to <https://translationproject.org/team/>\n"
	.section	.rodata.str1.1
.LC24:
	.string	"Full documentation <%s%s>\n"
	.section	.rodata.str1.8
	.align 8
.LC25:
	.string	"or available locally via: info '(coreutils) %s%s'\n"
	.text
	.p2align 4
	.globl	usage
	.type	usage, @function
usage:
.LVL0:
.LFB135:
	.file 1 "src/runcon.c"
	.loc 1 73 1 view -0
	.cfi_startproc
	.loc 1 73 1 is_stmt 0 view .LVU1
	endbr64
	pushq	%r13
	.cfi_def_cfa_offset 16
	.cfi_offset 13, -16
	.loc 1 75 5 view .LVU2
	movl	$5, %edx
	.loc 1 73 1 view .LVU3
	pushq	%r12
	.cfi_def_cfa_offset 24
	.cfi_offset 12, -24
	pushq	%rbp
	.cfi_def_cfa_offset 32
	.cfi_offset 6, -32
	movl	%edi, %ebp
	pushq	%rbx
	.cfi_def_cfa_offset 40
	.cfi_offset 3, -40
	subq	$136, %rsp
	.cfi_def_cfa_offset 176
	movq	program_name(%rip), %r12
	.loc 1 73 1 view .LVU4
	movq	%fs:40, %rax
	movq	%rax, 120(%rsp)
	xorl	%eax, %eax
	.loc 1 74 3 is_stmt 1 view .LVU5
	.loc 1 74 6 is_stmt 0 view .LVU6
	testl	%edi, %edi
	je	.L2
	.loc 1 75 5 is_stmt 1 view .LVU7
	.loc 1 75 5 view .LVU8
	leaq	.LC3(%rip), %rsi
	xorl	%edi, %edi
.LVL1:
	.loc 1 75 5 is_stmt 0 view .LVU9
	call	dcgettext@PLT
.LVL2:
.LBB52:
.LBB53:
	.file 2 "/usr/include/x86_64-linux-gnu/bits/stdio2.h"
	.loc 2 100 10 view .LVU10
	movq	stderr(%rip), %rdi
	movq	%r12, %rcx
	movl	$1, %esi
.LBE53:
.LBE52:
	.loc 1 75 5 view .LVU11
	movq	%rax, %rdx
.LVL3:
.LBB55:
.LBI52:
	.loc 2 98 1 is_stmt 1 view .LVU12
.LBB54:
	.loc 2 100 3 view .LVU13
	.loc 2 100 10 is_stmt 0 view .LVU14
	xorl	%eax, %eax
.LVL4:
	.loc 2 100 10 view .LVU15
	call	__fprintf_chk@PLT
.LVL5:
.L3:
	.loc 2 100 10 view .LVU16
.LBE54:
.LBE55:
	.loc 1 101 3 is_stmt 1 view .LVU17
	movl	%ebp, %edi
	call	exit@PLT
.LVL6:
.L2:
	.loc 1 78 7 view .LVU18
	.loc 1 78 15 is_stmt 0 view .LVU19
	leaq	.LC4(%rip), %rsi
	xorl	%edi, %edi
.LVL7:
.LBB56:
.LBB57:
	.file 3 "src/system.h"
	.loc 3 636 67 view .LVU20
	leaq	.LC16(%rip), %rbx
.LBE57:
.LBE56:
	.loc 1 78 15 view .LVU21
	call	dcgettext@PLT
.LVL8:
.LBB83:
.LBB84:
	.loc 2 107 10 view .LVU22
	movq	%r12, %rcx
	movq	%r12, %rdx
	movl	$1, %edi
.LBE84:
.LBE83:
	.loc 1 78 15 view .LVU23
	movq	%rax, %rsi
.LVL9:
.LBB86:
.LBI83:
	.loc 2 105 1 is_stmt 1 view .LVU24
.LBB85:
	.loc 2 107 3 view .LVU25
	.loc 2 107 10 is_stmt 0 view .LVU26
	xorl	%eax, %eax
.LVL10:
	.loc 2 107 10 view .LVU27
	call	__printf_chk@PLT
.LVL11:
	.loc 2 107 10 view .LVU28
.LBE85:
.LBE86:
	.loc 1 82 7 is_stmt 1 view .LVU29
	movq	stdout(%rip), %r12
	movl	$5, %edx
	xorl	%edi, %edi
	leaq	.LC5(%rip), %rsi
	call	dcgettext@PLT
.LVL12:
	movq	%r12, %rsi
	movq	%rax, %rdi
	call	fputs_unlocked@PLT
.LVL13:
	.loc 1 87 7 view .LVU30
.LBB87:
.LBI87:
	.loc 3 588 1 view .LVU31
.LBB88:
	.loc 3 590 3 view .LVU32
	movq	stdout(%rip), %r12
	movl	$5, %edx
	xorl	%edi, %edi
	leaq	.LC6(%rip), %rsi
	call	dcgettext@PLT
.LVL14:
	movq	%r12, %rsi
	movq	%rax, %rdi
	call	fputs_unlocked@PLT
.LVL15:
.LBE88:
.LBE87:
	.loc 1 89 7 view .LVU33
	movq	stdout(%rip), %r12
	movl	$5, %edx
	xorl	%edi, %edi
	leaq	.LC7(%rip), %rsi
	call	dcgettext@PLT
.LVL16:
	movq	%r12, %rsi
	movq	%rax, %rdi
	call	fputs_unlocked@PLT
.LVL17:
	.loc 1 97 7 view .LVU34
	movq	stdout(%rip), %r12
	movl	$5, %edx
	xorl	%edi, %edi
	leaq	.LC8(%rip), %rsi
	call	dcgettext@PLT
.LVL18:
	movq	%r12, %rsi
	movq	%rax, %rdi
	call	fputs_unlocked@PLT
.LVL19:
	.loc 1 98 7 view .LVU35
	movq	stdout(%rip), %r12
	movl	$5, %edx
	xorl	%edi, %edi
	leaq	.LC9(%rip), %rsi
	call	dcgettext@PLT
.LVL20:
	movq	%r12, %rsi
	movq	%rax, %rdi
	call	fputs_unlocked@PLT
.LVL21:
	.loc 1 99 7 view .LVU36
.LBB89:
.LBI56:
	.loc 3 634 1 view .LVU37
.LBB82:
	.loc 3 636 3 view .LVU38
	.loc 3 636 67 is_stmt 0 view .LVU39
	leaq	.LC10(%rip), %rax
	movq	%rbx, 48(%rsp)
	leaq	.LC17(%rip), %rbx
	movq	%rax, (%rsp)
	leaq	.LC11(%rip), %rax
	movq	%rax, 8(%rsp)
	leaq	.LC12(%rip), %rax
	movq	%rax, 16(%rsp)
	leaq	.LC13(%rip), %rax
	movq	%rax, 24(%rsp)
	leaq	.LC14(%rip), %rax
	movq	$0, 96(%rsp)
	movq	$0, 104(%rsp)
	.loc 3 646 3 is_stmt 1 view .LVU40
.LVL22:
	.loc 3 647 3 view .LVU41
	.loc 3 649 3 view .LVU42
	.loc 3 649 9 view .LVU43
	.loc 3 636 67 is_stmt 0 view .LVU44
	movq	%rax, 32(%rsp)
	leaq	.LC15(%rip), %rax
	movq	%rbx, 64(%rsp)
	leaq	.LC18(%rip), %rbx
	movq	%rax, 40(%rsp)
	movq	%rax, 56(%rsp)
	movq	%rax, 72(%rsp)
	movq	%rbx, 80(%rsp)
	leaq	.LC0(%rip), %rbx
	movq	%rax, 88(%rsp)
	.loc 3 647 25 view .LVU45
	movq	%rsp, %rax
.LVL23:
	.p2align 4,,10
	.p2align 3
.L5:
	.loc 3 650 5 is_stmt 1 view .LVU46
	.loc 3 649 18 is_stmt 0 view .LVU47
	movq	16(%rax), %rdi
	.loc 3 650 13 view .LVU48
	addq	$16, %rax
.LVL24:
	.loc 3 649 9 is_stmt 1 view .LVU49
	testq	%rdi, %rdi
	je	.L4
	.loc 3 649 33 is_stmt 0 view .LVU50
	movl	$7, %ecx
	movq	%rbx, %rsi
	repz cmpsb
	seta	%dl
	sbbb	$0, %dl
	.loc 3 649 28 view .LVU51
	testb	%dl, %dl
	jne	.L5
.L4:
	.loc 3 652 3 is_stmt 1 view .LVU52
	.loc 3 652 15 is_stmt 0 view .LVU53
	movq	8(%rax), %r12
	.loc 3 655 11 view .LVU54
	movl	$5, %edx
	leaq	.LC19(%rip), %rsi
	xorl	%edi, %edi
	.loc 3 652 6 view .LVU55
	testq	%r12, %r12
	je	.L6
	.loc 3 653 5 is_stmt 1 view .LVU56
.LVL25:
	.loc 3 655 3 view .LVU57
	.loc 3 655 11 is_stmt 0 view .LVU58
	call	dcgettext@PLT
.LVL26:
.LBB58:
.LBB59:
	.loc 2 107 10 view .LVU59
	leaq	.LC20(%rip), %rcx
	movl	$1, %edi
	leaq	.LC21(%rip), %rdx
.LBE59:
.LBE58:
	.loc 3 655 11 view .LVU60
	movq	%rax, %rsi
.LVL27:
.LBB63:
.LBI58:
	.loc 2 105 1 is_stmt 1 view .LVU61
.LBB60:
	.loc 2 107 3 view .LVU62
	.loc 2 107 10 is_stmt 0 view .LVU63
	xorl	%eax, %eax
.LVL28:
	.loc 2 107 10 view .LVU64
	call	__printf_chk@PLT
.LVL29:
	.loc 2 107 10 view .LVU65
.LBE60:
.LBE63:
	.loc 3 659 3 is_stmt 1 view .LVU66
	.loc 3 659 29 is_stmt 0 view .LVU67
	movl	$5, %edi
	xorl	%esi, %esi
	call	setlocale@PLT
.LVL30:
	movq	%rax, %rdi
.LVL31:
	.loc 3 660 3 is_stmt 1 view .LVU68
	.loc 3 660 6 is_stmt 0 view .LVU69
	testq	%rax, %rax
	je	.L7
	.loc 3 660 22 view .LVU70
	movl	$3, %edx
	leaq	.LC22(%rip), %rsi
	call	strncmp@PLT
.LVL32:
	.loc 3 660 19 view .LVU71
	testl	%eax, %eax
	jne	.L10
.LVL33:
.L7:
	.loc 3 669 3 is_stmt 1 view .LVU72
	.loc 3 669 11 is_stmt 0 view .LVU73
	xorl	%edi, %edi
	movl	$5, %edx
	leaq	.LC24(%rip), %rsi
	call	dcgettext@PLT
.LVL34:
.LBB64:
.LBB65:
	.loc 2 107 10 view .LVU74
	leaq	.LC0(%rip), %rcx
	leaq	.LC20(%rip), %rdx
	movl	$1, %edi
.LBE65:
.LBE64:
	.loc 3 669 11 view .LVU75
	movq	%rax, %rsi
.LVL35:
.LBB71:
.LBI64:
	.loc 2 105 1 is_stmt 1 view .LVU76
.LBB66:
	.loc 2 107 3 view .LVU77
	.loc 2 107 10 is_stmt 0 view .LVU78
	xorl	%eax, %eax
.LVL36:
	.loc 2 107 10 view .LVU79
.LBE66:
.LBE71:
	.loc 3 671 3 view .LVU80
	leaq	.LC1(%rip), %r13
.LBB72:
.LBB67:
	.loc 2 107 10 view .LVU81
	call	__printf_chk@PLT
.LVL37:
	.loc 2 107 10 view .LVU82
.LBE67:
.LBE72:
	.loc 3 671 3 is_stmt 1 view .LVU83
	cmpq	%rbx, %r12
	leaq	.LC2(%rip), %rcx
	cmovne	%rcx, %r13
.L8:
	.loc 3 671 11 is_stmt 0 view .LVU84
	xorl	%edi, %edi
	leaq	.LC25(%rip), %rsi
	movl	$5, %edx
	call	dcgettext@PLT
.LVL38:
.LBB73:
.LBB74:
	.loc 2 107 10 view .LVU85
	movq	%r13, %rcx
	movq	%r12, %rdx
	movl	$1, %edi
.LBE74:
.LBE73:
	.loc 3 671 11 view .LVU86
	movq	%rax, %rsi
.LVL39:
.LBB76:
.LBI73:
	.loc 2 105 1 is_stmt 1 view .LVU87
.LBB75:
	.loc 2 107 3 view .LVU88
	.loc 2 107 10 is_stmt 0 view .LVU89
	xorl	%eax, %eax
.LVL40:
	.loc 2 107 10 view .LVU90
	call	__printf_chk@PLT
.LVL41:
	.loc 2 107 10 view .LVU91
.LBE75:
.LBE76:
	.loc 3 673 1 view .LVU92
	jmp	.L3
.LVL42:
.L6:
	.loc 3 655 3 is_stmt 1 view .LVU93
	.loc 3 655 11 is_stmt 0 view .LVU94
	call	dcgettext@PLT
.LVL43:
.LBB77:
.LBB61:
	.loc 2 107 10 view .LVU95
	leaq	.LC20(%rip), %rcx
	movl	$1, %edi
	leaq	.LC21(%rip), %rdx
.LBE61:
.LBE77:
	.loc 3 655 11 view .LVU96
	movq	%rax, %rsi
.LVL44:
.LBB78:
	.loc 2 105 1 is_stmt 1 view .LVU97
.LBB62:
	.loc 2 107 3 view .LVU98
	.loc 2 107 10 is_stmt 0 view .LVU99
	xorl	%eax, %eax
.LVL45:
	.loc 2 107 10 view .LVU100
	call	__printf_chk@PLT
.LVL46:
	.loc 2 107 10 view .LVU101
.LBE62:
.LBE78:
	.loc 3 659 3 is_stmt 1 view .LVU102
	.loc 3 659 29 is_stmt 0 view .LVU103
	movl	$5, %edi
	xorl	%esi, %esi
	call	setlocale@PLT
.LVL47:
	movq	%rax, %rdi
.LVL48:
	.loc 3 660 3 is_stmt 1 view .LVU104
	.loc 3 660 6 is_stmt 0 view .LVU105
	testq	%rax, %rax
	je	.L9
	.loc 3 660 22 view .LVU106
	movl	$3, %edx
	leaq	.LC22(%rip), %rsi
	call	strncmp@PLT
.LVL49:
	.loc 3 660 19 view .LVU107
	testl	%eax, %eax
	jne	.L29
.L9:
	.loc 3 669 3 is_stmt 1 view .LVU108
	.loc 3 669 11 is_stmt 0 view .LVU109
	movl	$5, %edx
	leaq	.LC24(%rip), %rsi
	xorl	%edi, %edi
	call	dcgettext@PLT
.LVL50:
.LBB79:
.LBB68:
	.loc 2 107 10 view .LVU110
	leaq	.LC0(%rip), %rcx
	leaq	.LC20(%rip), %rdx
	movl	$1, %edi
.LBE68:
.LBE79:
	.loc 3 669 11 view .LVU111
	movq	%rax, %rsi
.LVL51:
.LBB80:
	.loc 2 105 1 is_stmt 1 view .LVU112
.LBB69:
	.loc 2 107 3 view .LVU113
	.loc 2 107 10 is_stmt 0 view .LVU114
	xorl	%eax, %eax
.LVL52:
	.loc 2 107 10 view .LVU115
.LBE69:
.LBE80:
	.loc 3 646 15 view .LVU116
	leaq	.LC0(%rip), %r12
.LBB81:
.LBB70:
	.loc 2 107 10 view .LVU117
	call	__printf_chk@PLT
.LVL53:
	.loc 2 107 10 view .LVU118
.LBE70:
.LBE81:
	.loc 3 671 3 is_stmt 1 view .LVU119
	leaq	.LC1(%rip), %r13
	jmp	.L8
.L29:
	.loc 3 646 15 is_stmt 0 view .LVU120
	leaq	.LC0(%rip), %r12
.LVL54:
.L10:
	.loc 3 666 7 is_stmt 1 view .LVU121
	movq	stdout(%rip), %r13
	xorl	%edi, %edi
	movl	$5, %edx
	leaq	.LC23(%rip), %rsi
	call	dcgettext@PLT
.LVL55:
	movq	%rax, %rdi
	movq	%r13, %rsi
	call	fputs_unlocked@PLT
.LVL56:
	jmp	.L7
.LBE82:
.LBE89:
	.cfi_endproc
.LFE135:
	.size	usage, .-usage
	.section	.rodata.str1.1
.LC26:
	.string	"/usr/local/share/locale"
.LC27:
	.string	"+r:t:u:l:c"
.LC28:
	.string	"multiple roles"
.LC29:
	.string	"multiple types"
.LC30:
	.string	"multiple users"
.LC31:
	.string	"multiple levelranges"
.LC32:
	.string	"Russell Coker"
.LC33:
	.string	"failed to get current context"
	.section	.rodata.str1.8
	.align 8
.LC34:
	.string	"you must specify -c, -t, -u, -l, -r, or context"
	.section	.rodata.str1.1
.LC35:
	.string	"no command specified"
	.section	.rodata.str1.8
	.align 8
.LC36:
	.string	"%s may be used only on a SELinux kernel"
	.align 8
.LC37:
	.string	"failed to create security context: %s"
	.align 8
.LC38:
	.string	"failed to get security context of %s"
	.section	.rodata.str1.1
.LC39:
	.string	"process"
	.section	.rodata.str1.8
	.align 8
.LC40:
	.string	"failed to compute a new context"
	.section	.rodata.str1.1
.LC41:
	.string	"failed to set new user: %s"
.LC42:
	.string	"failed to set new type: %s"
.LC43:
	.string	"failed to set new range: %s"
.LC44:
	.string	"failed to set new role: %s"
.LC45:
	.string	"invalid context: %s"
	.section	.rodata.str1.8
	.align 8
.LC46:
	.string	"unable to set security context %s"
	.section	.rodata.str1.1
.LC47:
	.string	"%s"
	.section	.text.startup,"ax",@progbits
	.p2align 4
	.globl	main
	.type	main, @function
main:
.LVL57:
.LFB136:
	.loc 1 106 1 view -0
	.cfi_startproc
	.loc 1 106 1 is_stmt 0 view .LVU123
	endbr64
	pushq	%r15
	.cfi_def_cfa_offset 16
	.cfi_offset 15, -16
	leaq	.L37(%rip), %r15
	pushq	%r14
	.cfi_def_cfa_offset 24
	.cfi_offset 14, -24
	.loc 1 109 9 view .LVU124
	xorl	%r14d, %r14d
	.loc 1 106 1 view .LVU125
	pushq	%r13
	.cfi_def_cfa_offset 32
	.cfi_offset 13, -32
	pushq	%r12
	.cfi_def_cfa_offset 40
	.cfi_offset 12, -40
	.loc 1 115 8 view .LVU126
	xorl	%r12d, %r12d
	.loc 1 106 1 view .LVU127
	pushq	%rbp
	.cfi_def_cfa_offset 48
	.cfi_offset 6, -48
	movl	%edi, %ebp
	pushq	%rbx
	.cfi_def_cfa_offset 56
	.cfi_offset 3, -56
	movq	%rsi, %rbx
	subq	$88, %rsp
	.cfi_def_cfa_offset 144
	.loc 1 120 3 view .LVU128
	movq	(%rsi), %rdi
.LVL58:
	.loc 1 106 1 view .LVU129
	movq	%fs:40, %rax
	movq	%rax, 72(%rsp)
	xorl	%eax, %eax
	.loc 1 107 3 is_stmt 1 view .LVU130
.LVL59:
	.loc 1 108 3 view .LVU131
	.loc 1 109 3 view .LVU132
	.loc 1 110 3 view .LVU133
	.loc 1 111 3 view .LVU134
	.loc 1 112 3 view .LVU135
	leaq	44(%rsp), %r13
	.loc 1 112 9 is_stmt 0 view .LVU136
	movq	$0, 48(%rsp)
	.loc 1 113 3 is_stmt 1 view .LVU137
	.loc 1 113 9 is_stmt 0 view .LVU138
	movq	$0, 56(%rsp)
	.loc 1 114 3 is_stmt 1 view .LVU139
	.loc 1 114 9 is_stmt 0 view .LVU140
	movq	$0, 64(%rsp)
	.loc 1 115 3 is_stmt 1 view .LVU141
.LVL60:
	.loc 1 117 3 view .LVU142
	.loc 1 119 33 view .LVU143
	.loc 1 120 3 view .LVU144
	call	set_program_name@PLT
.LVL61:
	.loc 1 121 3 view .LVU145
	leaq	.LC2(%rip), %rsi
	movl	$6, %edi
	call	setlocale@PLT
.LVL62:
	.loc 1 122 3 view .LVU146
	leaq	.LC26(%rip), %rsi
	leaq	.LC12(%rip), %rdi
	call	bindtextdomain@PLT
.LVL63:
	.loc 1 123 3 view .LVU147
	leaq	.LC12(%rip), %rdi
	call	textdomain@PLT
.LVL64:
	.loc 1 125 3 view .LVU148
	movq	close_stdout@GOTPCREL(%rip), %rdi
	call	atexit@PLT
.LVL65:
	.loc 1 110 9 is_stmt 0 view .LVU149
	movq	$0, 24(%rsp)
	.loc 1 108 9 view .LVU150
	movq	$0, 16(%rsp)
	.loc 1 107 9 view .LVU151
	movq	$0, 8(%rsp)
.LVL66:
.L46:
	.loc 1 127 3 is_stmt 1 view .LVU152
.LBB90:
	.loc 1 129 7 view .LVU153
	.loc 1 130 15 is_stmt 0 view .LVU154
	movq	%r13, %r8
	leaq	long_options(%rip), %rcx
	movq	%rbx, %rsi
	movl	%ebp, %edi
	leaq	.LC27(%rip), %rdx
	.loc 1 129 11 view .LVU155
	movl	$0, 44(%rsp)
	.loc 1 130 7 is_stmt 1 view .LVU156
	.loc 1 130 15 is_stmt 0 view .LVU157
	call	getopt_long@PLT
.LVL67:
	.loc 1 132 7 is_stmt 1 view .LVU158
	.loc 1 132 10 is_stmt 0 view .LVU159
	cmpl	$-1, %eax
	je	.L31
	.loc 1 134 7 is_stmt 1 view .LVU160
	cmpl	$117, %eax
	jg	.L104
	cmpl	$98, %eax
	jle	.L106
	subl	$99, %eax
.LVL68:
	.loc 1 134 7 is_stmt 0 view .LVU161
	cmpl	$18, %eax
	ja	.L104
	movslq	(%r15,%rax,4), %rax
	addq	%r15, %rax
	notrack jmp	*%rax
	.section	.rodata
	.align 4
	.align 4
.L37:
	.long	.L70-.L37
	.long	.L104-.L37
	.long	.L104-.L37
	.long	.L104-.L37
	.long	.L104-.L37
	.long	.L104-.L37
	.long	.L104-.L37
	.long	.L104-.L37
	.long	.L104-.L37
	.long	.L40-.L37
	.long	.L104-.L37
	.long	.L104-.L37
	.long	.L104-.L37
	.long	.L104-.L37
	.long	.L104-.L37
	.long	.L39-.L37
	.long	.L104-.L37
	.long	.L38-.L37
	.long	.L36-.L37
	.section	.text.startup
.L70:
	movl	$1, %r12d
.LVL69:
	.loc 1 164 11 is_stmt 1 view .LVU162
.LBE90:
	.loc 1 127 9 view .LVU163
	.loc 1 128 5 is_stmt 0 view .LVU164
	jmp	.L46
.L36:
.LBB95:
	.loc 1 147 11 is_stmt 1 view .LVU165
	.loc 1 147 14 is_stmt 0 view .LVU166
	testq	%r14, %r14
	jne	.L107
	.loc 1 149 11 is_stmt 1 view .LVU167
	.loc 1 149 16 is_stmt 0 view .LVU168
	movq	optarg(%rip), %r14
.LVL70:
	.loc 1 150 11 is_stmt 1 view .LVU169
	jmp	.L46
.L38:
	.loc 1 142 11 view .LVU170
	.loc 1 142 14 is_stmt 0 view .LVU171
	cmpq	$0, 24(%rsp)
	jne	.L108
	.loc 1 144 11 is_stmt 1 view .LVU172
	.loc 1 144 16 is_stmt 0 view .LVU173
	movq	optarg(%rip), %rax
	movq	%rax, 24(%rsp)
.LVL71:
	.loc 1 145 11 is_stmt 1 view .LVU174
	jmp	.L46
.LVL72:
.L39:
	.loc 1 137 11 view .LVU175
	.loc 1 137 14 is_stmt 0 view .LVU176
	cmpq	$0, 8(%rsp)
	jne	.L109
	.loc 1 139 11 is_stmt 1 view .LVU177
	.loc 1 139 16 is_stmt 0 view .LVU178
	movq	optarg(%rip), %rax
	movq	%rax, 8(%rsp)
.LVL73:
	.loc 1 140 11 is_stmt 1 view .LVU179
	jmp	.L46
.LVL74:
.L40:
	.loc 1 152 11 view .LVU180
	.loc 1 152 14 is_stmt 0 view .LVU181
	cmpq	$0, 16(%rsp)
	jne	.L110
	.loc 1 154 11 is_stmt 1 view .LVU182
	.loc 1 154 17 is_stmt 0 view .LVU183
	movq	optarg(%rip), %rax
	movq	%rax, 16(%rsp)
.LVL75:
	.loc 1 155 11 is_stmt 1 view .LVU184
	jmp	.L46
.LVL76:
	.p2align 4,,10
	.p2align 3
.L106:
	.loc 1 134 7 is_stmt 0 view .LVU185
	cmpl	$-131, %eax
	jne	.L111
	.loc 1 160 9 is_stmt 1 view .LVU186
	.loc 1 160 30 view .LVU187
	.loc 1 161 9 view .LVU188
	movq	stdout(%rip), %rdi
	movq	Version(%rip), %rcx
	xorl	%eax, %eax
.LVL77:
	.loc 1 161 9 is_stmt 0 view .LVU189
	xorl	%r9d, %r9d
	leaq	.LC32(%rip), %r8
	leaq	.LC21(%rip), %rdx
	leaq	.LC0(%rip), %rsi
	call	version_etc@PLT
.LVL78:
	.loc 1 161 9 is_stmt 1 view .LVU190
	xorl	%edi, %edi
	call	exit@PLT
.LVL79:
.L111:
	.loc 1 134 7 is_stmt 0 view .LVU191
	cmpl	$-130, %eax
	jne	.L104
	.loc 1 160 9 is_stmt 1 view .LVU192
	xorl	%edi, %edi
	call	usage
.LVL80:
.L31:
	.loc 1 160 9 is_stmt 0 view .LVU193
.LBE95:
	.loc 1 168 3 is_stmt 1 view .LVU194
	.loc 1 168 21 is_stmt 0 view .LVU195
	movslq	optind(%rip), %rax
.LVL81:
	.loc 1 168 6 view .LVU196
	cmpl	%ebp, %eax
	je	.L112
	.loc 1 177 3 is_stmt 1 view .LVU197
	.loc 1 177 6 is_stmt 0 view .LVU198
	movq	8(%rsp), %rcx
	orq	%r14, %rcx
	movq	%rcx, %r15
	je	.L113
	.loc 1 111 9 view .LVU199
	xorl	%r15d, %r15d
.LVL82:
.L51:
	.loc 1 187 3 is_stmt 1 view .LVU200
	.loc 1 187 6 is_stmt 0 view .LVU201
	cmpl	%ebp, optind(%rip)
	.loc 1 189 20 view .LVU202
	movl	$5, %edx
	leaq	.LC35(%rip), %rsi
	.loc 1 187 6 view .LVU203
	jge	.L105
	.loc 1 193 3 is_stmt 1 view .LVU204
	.loc 1 193 7 is_stmt 0 view .LVU205
	call	is_selinux_enabled@PLT
.LVL83:
	.loc 1 193 6 view .LVU206
	subl	$1, %eax
	jne	.L114
	.loc 1 197 3 is_stmt 1 view .LVU207
	call	__errno_location@PLT
.LVL84:
	movq	%rax, %rbp
.LVL85:
	.loc 1 197 6 is_stmt 0 view .LVU208
	testq	%r15, %r15
	je	.L55
	.loc 1 199 7 is_stmt 1 view .LVU209
	.loc 1 199 13 is_stmt 0 view .LVU210
	movq	%r15, %rdi
	call	context_new@PLT
.LVL86:
	movq	%rax, %r12
.LVL87:
	.loc 1 200 7 is_stmt 1 view .LVU211
	.loc 1 200 10 is_stmt 0 view .LVU212
	testq	%rax, %rax
	je	.L115
.LVL88:
.L56:
	.loc 1 248 3 is_stmt 1 view .LVU213
	.loc 1 248 31 is_stmt 0 view .LVU214
	movq	%r12, %rdi
	call	context_str@PLT
.LVL89:
	movq	%rax, %rdi
	.loc 1 248 7 view .LVU215
	call	security_check_context@PLT
.LVL90:
.LBB96:
	.loc 1 249 5 view .LVU216
	movq	%r12, %rdi
.LBE96:
	.loc 1 248 6 view .LVU217
	testl	%eax, %eax
	js	.L116
.LVL91:
	.loc 1 252 3 is_stmt 1 view .LVU218
	.loc 1 252 19 is_stmt 0 view .LVU219
	call	context_str@PLT
.LVL92:
	.loc 1 252 19 view .LVU220
	movq	%rax, %rdi
	.loc 1 252 7 view .LVU221
	call	setexeccon@PLT
.LVL93:
	.loc 1 252 6 view .LVU222
	testl	%eax, %eax
	jne	.L117
	.loc 1 255 3 is_stmt 1 view .LVU223
	.loc 1 255 19 is_stmt 0 view .LVU224
	movq	48(%rsp), %rdi
	.loc 1 255 6 view .LVU225
	testq	%rdi, %rdi
	je	.L67
	.loc 1 256 5 is_stmt 1 view .LVU226
	call	freecon@PLT
.LVL94:
.L67:
	.loc 1 258 3 view .LVU227
	.loc 1 258 30 is_stmt 0 view .LVU228
	movslq	optind(%rip), %rax
	.loc 1 260 51 view .LVU229
	xorl	%r12d, %r12d
.LVL95:
	.loc 1 258 30 view .LVU230
	leaq	(%rbx,%rax,8), %rax
	.loc 1 258 3 view .LVU231
	movq	(%rax), %rdi
	movq	%rax, %rsi
	call	execvp@PLT
.LVL96:
	.loc 1 260 3 is_stmt 1 view .LVU232
	.loc 1 261 37 is_stmt 0 view .LVU233
	movslq	optind(%rip), %rax
	.loc 1 260 51 view .LVU234
	cmpl	$2, 0(%rbp)
	sete	%r12b
	.loc 1 261 3 view .LVU235
	movq	(%rbx,%rax,8), %rdi
	.loc 1 260 51 view .LVU236
	addl	$126, %r12d
.LVL97:
	.loc 1 261 3 is_stmt 1 view .LVU237
	call	quote@PLT
.LVL98:
	movl	0(%rbp), %esi
	leaq	.LC47(%rip), %rdx
	xorl	%edi, %edi
	movq	%rax, %rcx
	xorl	%eax, %eax
	call	error@PLT
.LVL99:
	.loc 1 262 3 view .LVU238
.L30:
	.loc 1 263 1 is_stmt 0 view .LVU239
	movq	72(%rsp), %rax
	xorq	%fs:40, %rax
	jne	.L118
	addq	$88, %rsp
	.cfi_remember_state
	.cfi_def_cfa_offset 56
	movl	%r12d, %eax
	popq	%rbx
	.cfi_def_cfa_offset 48
.LVL100:
	.loc 1 263 1 view .LVU240
	popq	%rbp
	.cfi_def_cfa_offset 40
	popq	%r12
	.cfi_def_cfa_offset 32
	popq	%r13
	.cfi_def_cfa_offset 24
	popq	%r14
	.cfi_def_cfa_offset 16
.LVL101:
	.loc 1 263 1 view .LVU241
	popq	%r15
	.cfi_def_cfa_offset 8
	ret
.LVL102:
.L119:
	.cfi_restore_state
	.loc 1 181 11 is_stmt 1 view .LVU242
	.loc 1 181 24 is_stmt 0 view .LVU243
	movl	$5, %edx
	leaq	.LC34(%rip), %rsi
.LVL103:
.L105:
	.loc 1 181 24 view .LVU244
	xorl	%edi, %edi
	call	dcgettext@PLT
.LVL104:
	.loc 1 181 11 view .LVU245
	xorl	%esi, %esi
	xorl	%edi, %edi
	.loc 1 181 24 view .LVU246
	movq	%rax, %rdx
	.loc 1 181 11 view .LVU247
	xorl	%eax, %eax
	call	error@PLT
.LVL105:
.L104:
	.loc 1 182 11 is_stmt 1 view .LVU248
	movl	$1, %edi
	call	usage
.LVL106:
.L113:
	.loc 1 177 7 is_stmt 0 discriminator 1 view .LVU249
	movq	16(%rsp), %rdx
	orq	24(%rsp), %rdx
	jne	.L51
	testb	%r12b, %r12b
	jne	.L51
	.loc 1 179 7 is_stmt 1 view .LVU250
	.loc 1 179 10 is_stmt 0 view .LVU251
	cmpl	%ebp, %eax
	jge	.L119
	.loc 1 184 7 is_stmt 1 view .LVU252
	.loc 1 184 28 is_stmt 0 view .LVU253
	leal	1(%rax), %edx
	.loc 1 184 15 view .LVU254
	movq	(%rbx,%rax,8), %rax
	.loc 1 184 28 view .LVU255
	movl	%edx, optind(%rip)
	.loc 1 184 15 view .LVU256
	movq	%rax, %r15
.LVL107:
	.loc 1 184 15 view .LVU257
	jmp	.L51
.LVL108:
.L55:
	.loc 1 206 7 is_stmt 1 view .LVU258
	.loc 1 206 11 is_stmt 0 view .LVU259
	leaq	48(%rsp), %rdi
	call	getcon@PLT
.LVL109:
	.loc 1 206 10 view .LVU260
	testl	%eax, %eax
	js	.L120
	.loc 1 210 7 is_stmt 1 view .LVU261
	.loc 1 210 10 is_stmt 0 view .LVU262
	testb	%r12b, %r12b
	je	.L58
	.loc 1 213 11 is_stmt 1 view .LVU263
	.loc 1 213 31 is_stmt 0 view .LVU264
	movslq	optind(%rip), %rax
	.loc 1 213 15 view .LVU265
	leaq	56(%rsp), %rsi
	movq	(%rbx,%rax,8), %rdi
	call	rpl_getfilecon@PLT
.LVL110:
	.loc 1 213 14 view .LVU266
	addl	$1, %eax
	je	.L121
	.loc 1 218 11 is_stmt 1 view .LVU267
	.loc 1 219 40 is_stmt 0 view .LVU268
	leaq	.LC39(%rip), %rdi
	call	string_to_security_class@PLT
.LVL111:
	.loc 1 218 15 view .LVU269
	movq	56(%rsp), %rsi
	movq	48(%rsp), %rdi
	leaq	64(%rsp), %rcx
	movzwl	%ax, %edx
	call	security_compute_create@PLT
.LVL112:
	.loc 1 218 14 view .LVU270
	testl	%eax, %eax
	jne	.L122
	.loc 1 223 11 is_stmt 1 view .LVU271
	movq	56(%rsp), %rdi
	call	freecon@PLT
.LVL113:
	.loc 1 224 11 view .LVU272
	movq	48(%rsp), %rdi
	call	freecon@PLT
.LVL114:
	.loc 1 227 11 view .LVU273
	.loc 1 227 23 is_stmt 0 view .LVU274
	movq	64(%rsp), %rax
	movq	%rax, 48(%rsp)
.L58:
	.loc 1 230 7 is_stmt 1 view .LVU275
	.loc 1 230 13 is_stmt 0 view .LVU276
	movq	48(%rsp), %rdi
	call	context_new@PLT
.LVL115:
	movq	%rax, %r12
.LVL116:
	.loc 1 231 7 is_stmt 1 view .LVU277
	.loc 1 231 10 is_stmt 0 view .LVU278
	testq	%rax, %rax
	je	.L123
	.loc 1 234 7 is_stmt 1 view .LVU279
	.loc 1 234 10 is_stmt 0 view .LVU280
	testq	%r14, %r14
	je	.L62
	.loc 1 234 19 discriminator 1 view .LVU281
	movq	%r14, %rsi
	movq	%rax, %rdi
	call	context_user_set@PLT
.LVL117:
	.loc 1 234 16 discriminator 1 view .LVU282
	testl	%eax, %eax
	jne	.L124
.L62:
	.loc 1 237 7 is_stmt 1 view .LVU283
	.loc 1 237 10 is_stmt 0 view .LVU284
	movq	24(%rsp), %rax
	testq	%rax, %rax
	je	.L63
	.loc 1 237 19 discriminator 1 view .LVU285
	movq	%rax, %rsi
	movq	%r12, %rdi
	call	context_type_set@PLT
.LVL118:
	.loc 1 237 16 discriminator 1 view .LVU286
	testl	%eax, %eax
	jne	.L125
.L63:
	.loc 1 240 7 is_stmt 1 view .LVU287
	.loc 1 240 10 is_stmt 0 view .LVU288
	movq	16(%rsp), %rax
	testq	%rax, %rax
	je	.L64
	.loc 1 240 20 discriminator 1 view .LVU289
	movq	%rax, %rsi
	movq	%r12, %rdi
	call	context_range_set@PLT
.LVL119:
	.loc 1 240 17 discriminator 1 view .LVU290
	testl	%eax, %eax
	jne	.L126
.L64:
	.loc 1 243 7 is_stmt 1 view .LVU291
	.loc 1 243 10 is_stmt 0 view .LVU292
	movq	8(%rsp), %rax
	testq	%rax, %rax
	je	.L56
	.loc 1 243 19 discriminator 1 view .LVU293
	movq	%rax, %rsi
	movq	%r12, %rdi
	call	context_role_set@PLT
.LVL120:
	.loc 1 243 16 discriminator 1 view .LVU294
	testl	%eax, %eax
	je	.L56
.LBB97:
	.loc 1 244 9 is_stmt 1 view .LVU295
	movq	8(%rsp), %rdi
	call	quote@PLT
.LVL121:
	movl	$5, %edx
	leaq	.LC44(%rip), %rsi
	xorl	%edi, %edi
	movq	%rax, %r12
.LVL122:
	.loc 1 244 9 is_stmt 0 view .LVU296
	call	dcgettext@PLT
.LVL123:
	movl	0(%rbp), %esi
	movq	%r12, %rcx
	movl	$1, %edi
	movq	%rax, %rdx
	xorl	%eax, %eax
	call	error@PLT
.LVL124:
.L112:
	.loc 1 244 9 view .LVU297
.LBE97:
	.loc 1 170 7 is_stmt 1 view .LVU298
	.loc 1 170 11 is_stmt 0 view .LVU299
	leaq	48(%rsp), %rdi
	call	getcon@PLT
.LVL125:
	.loc 1 170 10 view .LVU300
	testl	%eax, %eax
	js	.L127
	.loc 1 172 7 is_stmt 1 view .LVU301
	movq	48(%rsp), %rdi
	movq	stdout(%rip), %rsi
	call	fputs_unlocked@PLT
.LVL126:
	.loc 1 173 7 view .LVU302
	movq	stdout(%rip), %rdi
.LVL127:
.LBB98:
.LBI98:
	.file 4 "/usr/include/x86_64-linux-gnu/bits/stdio.h"
	.loc 4 91 1 view .LVU303
.LBB99:
	.loc 4 93 3 view .LVU304
	.loc 4 93 10 is_stmt 0 view .LVU305
	movq	40(%rdi), %rax
	cmpq	%rax, 48(%rdi)
	jbe	.L128
	leaq	1(%rax), %rdx
.LBE99:
.LBE98:
	.loc 1 174 14 view .LVU306
	xorl	%r12d, %r12d
.LVL128:
.LBB102:
.LBB100:
	.loc 4 93 10 view .LVU307
	movq	%rdx, 40(%rdi)
	movb	$10, (%rax)
	jmp	.L30
.LVL129:
.L128:
	.loc 4 93 10 view .LVU308
	movl	$10, %esi
.LBE100:
.LBE102:
	.loc 1 174 14 view .LVU309
	xorl	%r12d, %r12d
.LVL130:
.LBB103:
.LBB101:
	.loc 4 93 10 view .LVU310
	call	__overflow@PLT
.LVL131:
	.loc 4 93 10 view .LVU311
	jmp	.L30
.LVL132:
.L109:
	.loc 4 93 10 view .LVU312
.LBE101:
.LBE103:
.LBB104:
.LBB91:
	.loc 1 138 13 is_stmt 1 view .LVU313
	movl	$5, %edx
	leaq	.LC28(%rip), %rsi
	xorl	%edi, %edi
	call	dcgettext@PLT
.LVL133:
	xorl	%esi, %esi
	movl	$1, %edi
	movq	%rax, %rdx
	xorl	%eax, %eax
	call	error@PLT
.LVL134:
.L107:
	.loc 1 138 13 is_stmt 0 view .LVU314
.LBE91:
.LBB92:
	.loc 1 148 13 is_stmt 1 view .LVU315
	movl	$5, %edx
	leaq	.LC30(%rip), %rsi
	xorl	%edi, %edi
	call	dcgettext@PLT
.LVL135:
	xorl	%esi, %esi
	movl	$1, %edi
	movq	%rax, %rdx
	xorl	%eax, %eax
	call	error@PLT
.LVL136:
.L108:
	.loc 1 148 13 is_stmt 0 view .LVU316
.LBE92:
.LBB93:
	.loc 1 143 13 is_stmt 1 view .LVU317
	movl	$5, %edx
	leaq	.LC29(%rip), %rsi
	xorl	%edi, %edi
	call	dcgettext@PLT
.LVL137:
	xorl	%esi, %esi
	movl	$1, %edi
	movq	%rax, %rdx
	xorl	%eax, %eax
	call	error@PLT
.LVL138:
.L110:
.LBE93:
.LBB94:
	.loc 1 153 13 view .LVU318
	movl	$5, %edx
	leaq	.LC31(%rip), %rsi
	xorl	%edi, %edi
	call	dcgettext@PLT
.LVL139:
	xorl	%esi, %esi
	movl	$1, %edi
	movq	%rax, %rdx
	xorl	%eax, %eax
	call	error@PLT
.LVL140:
.L127:
	.loc 1 153 13 is_stmt 0 view .LVU319
.LBE94:
.LBE104:
.LBB105:
	.loc 1 171 9 is_stmt 1 view .LVU320
	movl	$5, %edx
	leaq	.LC33(%rip), %rsi
	xorl	%edi, %edi
	call	dcgettext@PLT
.LVL141:
	movq	%rax, %r12
.LVL142:
	.loc 1 171 9 is_stmt 0 view .LVU321
	call	__errno_location@PLT
.LVL143:
	movq	%r12, %rdx
	movl	$1, %edi
	movl	(%rax), %esi
	xorl	%eax, %eax
	call	error@PLT
.LVL144:
.L114:
	.loc 1 171 9 view .LVU322
.LBE105:
.LBB106:
	.loc 1 194 5 is_stmt 1 view .LVU323
	movq	program_name(%rip), %r12
.LVL145:
	.loc 1 194 5 is_stmt 0 view .LVU324
	movl	$5, %edx
	leaq	.LC36(%rip), %rsi
	xorl	%edi, %edi
	call	dcgettext@PLT
.LVL146:
	xorl	%esi, %esi
	movl	$1, %edi
	movq	%rax, %rdx
	movq	%r12, %rcx
	xorl	%eax, %eax
	call	error@PLT
.LVL147:
.L123:
	.loc 1 194 5 view .LVU325
.LBE106:
.LBB107:
	.loc 1 232 9 is_stmt 1 view .LVU326
	movq	48(%rsp), %rdi
	call	quote@PLT
.LVL148:
	.loc 1 232 9 is_stmt 0 view .LVU327
	movl	$5, %edx
	leaq	.LC37(%rip), %rsi
	xorl	%edi, %edi
	movq	%rax, %r12
.LVL149:
	.loc 1 232 9 view .LVU328
	call	dcgettext@PLT
.LVL150:
	movl	0(%rbp), %esi
	movq	%r12, %rcx
	movl	$1, %edi
	movq	%rax, %rdx
	xorl	%eax, %eax
	call	error@PLT
.LVL151:
.L125:
	.loc 1 232 9 view .LVU329
.LBE107:
.LBB108:
	.loc 1 238 9 is_stmt 1 view .LVU330
	movq	24(%rsp), %rdi
	call	quote@PLT
.LVL152:
	movl	$5, %edx
	leaq	.LC42(%rip), %rsi
	xorl	%edi, %edi
	movq	%rax, %r12
.LVL153:
	.loc 1 238 9 is_stmt 0 view .LVU331
	call	dcgettext@PLT
.LVL154:
	movl	0(%rbp), %esi
	movq	%r12, %rcx
	movl	$1, %edi
	movq	%rax, %rdx
	xorl	%eax, %eax
	call	error@PLT
.LVL155:
.L126:
	.loc 1 238 9 view .LVU332
.LBE108:
.LBB109:
	.loc 1 241 9 is_stmt 1 view .LVU333
	movq	16(%rsp), %rdi
	call	quote@PLT
.LVL156:
	movl	$5, %edx
	leaq	.LC43(%rip), %rsi
	xorl	%edi, %edi
	movq	%rax, %r12
.LVL157:
	.loc 1 241 9 is_stmt 0 view .LVU334
	call	dcgettext@PLT
.LVL158:
	movl	0(%rbp), %esi
	movq	%r12, %rcx
	movl	$1, %edi
	movq	%rax, %rdx
	xorl	%eax, %eax
	call	error@PLT
.LVL159:
.L118:
	.loc 1 241 9 view .LVU335
.LBE109:
	.loc 1 263 1 view .LVU336
	call	__stack_chk_fail@PLT
.LVL160:
.L117:
.LBB110:
	.loc 1 253 5 is_stmt 1 view .LVU337
	movq	%r12, %rdi
	call	context_str@PLT
.LVL161:
	movq	%rax, %rdi
	call	quote@PLT
.LVL162:
	movl	$5, %edx
	leaq	.LC46(%rip), %rsi
	xorl	%edi, %edi
	movq	%rax, %r12
.LVL163:
	.loc 1 253 5 is_stmt 0 view .LVU338
	call	dcgettext@PLT
.LVL164:
	movl	0(%rbp), %esi
	movq	%r12, %rcx
	movl	$1, %edi
	movq	%rax, %rdx
	xorl	%eax, %eax
	call	error@PLT
.LVL165:
.L116:
	.loc 1 253 5 view .LVU339
.LBE110:
.LBB111:
	.loc 1 249 5 is_stmt 1 view .LVU340
	call	context_str@PLT
.LVL166:
	.loc 1 249 5 is_stmt 0 view .LVU341
	movq	%rax, %rdi
	call	quote@PLT
.LVL167:
	movl	$5, %edx
	leaq	.LC45(%rip), %rsi
	xorl	%edi, %edi
	movq	%rax, %r12
.LVL168:
	.loc 1 249 5 view .LVU342
	call	dcgettext@PLT
.LVL169:
	movl	0(%rbp), %esi
	movq	%r12, %rcx
	movl	$1, %edi
	movq	%rax, %rdx
	xorl	%eax, %eax
	call	error@PLT
.LVL170:
.L115:
	.loc 1 249 5 view .LVU343
.LBE111:
.LBB112:
	.loc 1 201 9 is_stmt 1 view .LVU344
	movq	%r15, %rdi
	call	quote@PLT
.LVL171:
	.loc 1 201 9 is_stmt 0 view .LVU345
	movl	$5, %edx
	leaq	.LC37(%rip), %rsi
	xorl	%edi, %edi
	movq	%rax, %r12
.LVL172:
	.loc 1 201 9 view .LVU346
	call	dcgettext@PLT
.LVL173:
	movl	0(%rbp), %esi
	movq	%r12, %rcx
	movl	$1, %edi
	movq	%rax, %rdx
	xorl	%eax, %eax
	call	error@PLT
.LVL174:
.L122:
	.loc 1 201 9 view .LVU347
.LBE112:
.LBB113:
	.loc 1 221 13 is_stmt 1 view .LVU348
	movl	$5, %edx
	leaq	.LC40(%rip), %rsi
	xorl	%edi, %edi
	call	dcgettext@PLT
.LVL175:
	movl	0(%rbp), %esi
	movl	$1, %edi
	movq	%rax, %rdx
	xorl	%eax, %eax
	call	error@PLT
.LVL176:
.L121:
.LBE113:
.LBB114:
	.loc 1 214 13 view .LVU349
	movslq	optind(%rip), %rax
	movl	$4, %edi
	movq	(%rbx,%rax,8), %rsi
	call	quotearg_style@PLT
.LVL177:
	movl	$5, %edx
	leaq	.LC38(%rip), %rsi
	xorl	%edi, %edi
	movq	%rax, %r12
.LVL178:
	.loc 1 214 13 is_stmt 0 view .LVU350
	call	dcgettext@PLT
.LVL179:
	movl	0(%rbp), %esi
	movq	%r12, %rcx
	movl	$1, %edi
	movq	%rax, %rdx
	xorl	%eax, %eax
	call	error@PLT
.LVL180:
.L120:
	.loc 1 214 13 view .LVU351
.LBE114:
.LBB115:
	.loc 1 207 9 is_stmt 1 view .LVU352
	movl	$5, %edx
	leaq	.LC33(%rip), %rsi
	xorl	%edi, %edi
	call	dcgettext@PLT
.LVL181:
	movl	0(%rbp), %esi
	movl	$1, %edi
	movq	%rax, %rdx
	xorl	%eax, %eax
	call	error@PLT
.LVL182:
.L124:
	.loc 1 207 9 is_stmt 0 view .LVU353
.LBE115:
.LBB116:
	.loc 1 235 9 is_stmt 1 view .LVU354
	movq	%r14, %rdi
	call	quote@PLT
.LVL183:
	movl	$5, %edx
	leaq	.LC41(%rip), %rsi
	xorl	%edi, %edi
	movq	%rax, %r12
.LVL184:
	.loc 1 235 9 is_stmt 0 view .LVU355
	call	dcgettext@PLT
.LVL185:
	movl	0(%rbp), %esi
	movq	%r12, %rcx
	movl	$1, %edi
	movq	%rax, %rdx
	xorl	%eax, %eax
	call	error@PLT
.LVL186:
.LBE116:
	.cfi_endproc
.LFE136:
	.size	main, .-main
	.section	.rodata.str1.1
.LC48:
	.string	"role"
.LC49:
	.string	"type"
.LC50:
	.string	"user"
.LC51:
	.string	"range"
.LC52:
	.string	"compute"
.LC53:
	.string	"help"
.LC54:
	.string	"version"
	.section	.data.rel.ro.local,"aw"
	.align 32
	.type	long_options, @object
	.size	long_options, 256
long_options:
	.quad	.LC48
	.long	1
	.zero	4
	.quad	0
	.long	114
	.zero	4
	.quad	.LC49
	.long	1
	.zero	4
	.quad	0
	.long	116
	.zero	4
	.quad	.LC50
	.long	1
	.zero	4
	.quad	0
	.long	117
	.zero	4
	.quad	.LC51
	.long	1
	.zero	4
	.quad	0
	.long	108
	.zero	4
	.quad	.LC52
	.long	0
	.zero	4
	.quad	0
	.long	99
	.zero	4
	.quad	.LC53
	.long	0
	.zero	4
	.quad	0
	.long	-130
	.zero	4
	.quad	.LC54
	.long	0
	.zero	4
	.quad	0
	.long	-131
	.zero	4
	.quad	0
	.long	0
	.zero	4
	.quad	0
	.long	0
	.zero	4
	.text
.Letext0:
	.file 5 "/usr/lib/gcc/x86_64-linux-gnu/9/include/stddef.h"
	.file 6 "/usr/include/x86_64-linux-gnu/bits/types.h"
	.file 7 "/usr/include/x86_64-linux-gnu/bits/types/struct_FILE.h"
	.file 8 "/usr/include/x86_64-linux-gnu/bits/types/FILE.h"
	.file 9 "/usr/include/stdio.h"
	.file 10 "/usr/include/x86_64-linux-gnu/bits/sys_errlist.h"
	.file 11 "/usr/include/x86_64-linux-gnu/bits/types/time_t.h"
	.file 12 "./lib/sys/select.h"
	.file 13 "/usr/include/x86_64-linux-gnu/bits/getopt_core.h"
	.file 14 "/usr/include/x86_64-linux-gnu/bits/getopt_ext.h"
	.file 15 "/usr/include/selinux/context.h"
	.file 16 "/usr/include/time.h"
	.file 17 "/usr/include/signal.h"
	.file 18 "/usr/include/unistd.h"
	.file 19 "/usr/include/errno.h"
	.file 20 "src/version.h"
	.file 21 "./lib/exitfail.h"
	.file 22 "./lib/timespec.h"
	.file 23 "./lib/version-etc.h"
	.file 24 "./lib/progname.h"
	.file 25 "./lib/quotearg.h"
	.file 26 "./lib/error.h"
	.file 27 "./lib/quote.h"
	.file 28 "/usr/include/libintl.h"
	.file 29 "/usr/include/stdlib.h"
	.file 30 "/usr/include/locale.h"
	.file 31 "/usr/include/selinux/selinux.h"
	.file 32 "/usr/include/string.h"
	.section	.note.GNU-stack,"",@progbits
	.section	.note.gnu.property,"a"
	.align 8
	.long	 1f - 0f
	.long	 4f - 1f
	.long	 5
0:
	.string	 "GNU"
1:
	.align 8
	.long	 0xc0000002
	.long	 3f - 2f
2:
	.long	 0x3
3:
	.align 8
4:
