	.file	"selinux.c"
	.text
.Ltext0:
	.p2align 4
	.type	restorecon_private, @function
restorecon_private:
.LVL0:
.LFB138:
	.file 1 "src/selinux.c"
	.loc 1 179 1 view -0
	.cfi_startproc
	.loc 1 179 1 is_stmt 0 view .LVU1
	pushq	%r15
	.cfi_def_cfa_offset 16
	.cfi_offset 15, -16
	pushq	%r14
	.cfi_def_cfa_offset 24
	.cfi_offset 14, -24
	pushq	%r13
	.cfi_def_cfa_offset 32
	.cfi_offset 13, -32
	pushq	%r12
	.cfi_def_cfa_offset 40
	.cfi_offset 12, -40
	pushq	%rbp
	.cfi_def_cfa_offset 48
	.cfi_offset 6, -48
	movq	%rsi, %rbp
	pushq	%rbx
	.cfi_def_cfa_offset 56
	.cfi_offset 3, -56
	subq	$184, %rsp
	.cfi_def_cfa_offset 240
	.loc 1 179 1 view .LVU2
	movq	%fs:40, %rax
	movq	%rax, 168(%rsp)
	xorl	%eax, %eax
	.loc 1 180 3 is_stmt 1 view .LVU3
.LVL1:
	.loc 1 181 3 view .LVU4
	.loc 1 182 3 view .LVU5
	.loc 1 182 9 is_stmt 0 view .LVU6
	movq	$0, (%rsp)
	.loc 1 183 3 is_stmt 1 view .LVU7
	.loc 1 183 9 is_stmt 0 view .LVU8
	movq	$0, 8(%rsp)
	.loc 1 184 3 is_stmt 1 view .LVU9
.LVL2:
	.loc 1 185 3 view .LVU10
	.loc 1 186 3 view .LVU11
	.loc 1 187 3 view .LVU12
	.loc 1 189 3 view .LVU13
	.loc 1 189 6 is_stmt 0 view .LVU14
	testq	%rdi, %rdi
	je	.L38
.LBB9:
.LBB10:
	.file 2 "/usr/include/x86_64-linux-gnu/bits/fcntl2.h"
	.loc 2 53 14 view .LVU15
	movl	$131072, %esi
.LVL3:
	.loc 2 53 14 view .LVU16
	movq	%rdi, %r13
.LBE10:
.LBE9:
	.loc 1 205 3 is_stmt 1 view .LVU17
.LVL4:
.LBB12:
.LBI9:
	.loc 2 41 1 view .LVU18
.LBB11:
	.loc 2 43 3 view .LVU19
	.loc 2 46 3 view .LVU20
	.loc 2 48 7 view .LVU21
	.loc 2 53 7 view .LVU22
	.loc 2 53 14 is_stmt 0 view .LVU23
	xorl	%eax, %eax
	movq	%rbp, %rdi
.LVL5:
	.loc 2 53 14 view .LVU24
	call	open@PLT
.LVL6:
	movl	%eax, %r12d
.LVL7:
	.loc 2 53 14 view .LVU25
.LBE11:
.LBE12:
	.loc 1 206 3 is_stmt 1 view .LVU26
	call	__errno_location@PLT
.LVL8:
	.loc 1 206 3 is_stmt 0 view .LVU27
	movq	%rax, %rbx
	.loc 1 206 6 view .LVU28
	cmpl	$-1, %r12d
	je	.L39
	.loc 1 209 3 is_stmt 1 view .LVU29
	.loc 1 211 7 view .LVU30
.LVL9:
.LBB13:
.LBI13:
	.file 3 "/usr/include/x86_64-linux-gnu/sys/stat.h"
	.loc 3 467 1 view .LVU31
.LBB14:
	.loc 3 469 3 view .LVU32
	.loc 3 469 10 is_stmt 0 view .LVU33
	leaq	16(%rsp), %rdx
.LVL10:
	.loc 3 469 10 view .LVU34
	movl	%r12d, %esi
	movl	$1, %edi
	call	__fxstat@PLT
.LVL11:
	.loc 3 469 10 view .LVU35
.LBE14:
.LBE13:
	.loc 1 211 10 view .LVU36
	testl	%eax, %eax
	js	.L40
.L9:
	.loc 1 220 3 is_stmt 1 view .LVU37
	.loc 1 220 7 is_stmt 0 view .LVU38
	movl	40(%rsp), %ecx
	movq	%rsp, %rsi
	movq	%rbp, %rdx
	movq	%r13, %rdi
	call	selabel_lookup@PLT
.LVL12:
	.loc 1 220 6 view .LVU39
	testl	%eax, %eax
	js	.L41
	.loc 1 231 3 is_stmt 1 view .LVU40
	.loc 1 231 20 is_stmt 0 view .LVU41
	movq	(%rsp), %rdi
	call	context_new@PLT
.LVL13:
	movq	%rax, %r13
.LVL14:
	.loc 1 231 6 view .LVU42
	testq	%rax, %rax
	je	.L42
	.loc 1 234 3 is_stmt 1 view .LVU43
	.loc 1 236 11 is_stmt 0 view .LVU44
	leaq	8(%rsp), %rsi
	.loc 1 234 6 view .LVU45
	cmpl	$-1, %r12d
	je	.L13
	.loc 1 236 7 is_stmt 1 view .LVU46
	.loc 1 236 11 is_stmt 0 view .LVU47
	movl	%r12d, %edi
	call	rpl_fgetfilecon@PLT
.LVL15:
	.loc 1 236 10 view .LVU48
	testl	%eax, %eax
	js	.L43
	.loc 1 245 3 is_stmt 1 view .LVU49
	.loc 1 245 20 is_stmt 0 view .LVU50
	movq	8(%rsp), %rdi
	call	context_new@PLT
.LVL16:
	movq	%rax, %r15
.LVL17:
	.loc 1 245 6 view .LVU51
	testq	%rax, %rax
	je	.L44
.L23:
	.loc 1 248 3 is_stmt 1 view .LVU52
	.loc 1 248 19 is_stmt 0 view .LVU53
	movq	%r13, %rdi
	call	context_type_get@PLT
.LVL18:
	.loc 1 248 19 view .LVU54
	movq	%rax, %rsi
.LVL19:
	.loc 1 248 6 view .LVU55
	testq	%rax, %rax
	je	.L36
	.loc 1 250 3 is_stmt 1 view .LVU56
	.loc 1 250 7 is_stmt 0 view .LVU57
	movq	%r15, %rdi
	call	context_type_set@PLT
.LVL20:
	.loc 1 250 6 view .LVU58
	testl	%eax, %eax
	je	.L17
.L36:
	.loc 1 250 6 view .LVU59
	movl	(%rbx), %r14d
.LVL21:
.L11:
	.loc 1 260 7 is_stmt 1 view .LVU60
	.loc 1 261 3 view .LVU61
	.loc 1 262 3 view .LVU62
	movl	$-1, %ebp
.LVL22:
	.loc 1 262 6 is_stmt 0 view .LVU63
	cmpl	$-1, %r12d
	je	.L20
.LVL23:
.L21:
	.loc 1 263 5 is_stmt 1 view .LVU64
	movl	%r12d, %edi
	call	close@PLT
.LVL24:
	jmp	.L20
.LVL25:
	.p2align 4,,10
	.p2align 3
.L39:
	.loc 1 206 20 is_stmt 0 discriminator 1 view .LVU65
	movl	(%rax), %r14d
	.loc 1 206 16 discriminator 1 view .LVU66
	cmpl	$40, %r14d
	jne	.L27
	.loc 1 209 3 is_stmt 1 view .LVU67
	.loc 1 216 7 view .LVU68
.LVL26:
.LBB15:
.LBI15:
	.loc 3 460 1 view .LVU69
.LBB16:
	.loc 3 462 3 view .LVU70
	.loc 3 462 10 is_stmt 0 view .LVU71
	leaq	16(%rsp), %rdx
.LVL27:
	.loc 3 462 10 view .LVU72
	movq	%rbp, %rsi
	movl	$1, %edi
	call	__lxstat@PLT
.LVL28:
	.loc 3 462 10 view .LVU73
.LBE16:
.LBE15:
	.loc 1 216 10 view .LVU74
	testl	%eax, %eax
	jns	.L9
	movl	(%rbx), %r14d
	.loc 1 184 27 view .LVU75
	xorl	%r15d, %r15d
	.loc 1 184 13 view .LVU76
	xorl	%r13d, %r13d
.LVL29:
.L6:
	.loc 1 260 7 is_stmt 1 view .LVU77
	.loc 1 261 3 view .LVU78
	.loc 1 262 3 view .LVU79
	.loc 1 261 7 is_stmt 0 view .LVU80
	movl	%r12d, %ebp
.LVL30:
.L20:
	.loc 1 264 3 is_stmt 1 view .LVU81
	movq	%r13, %rdi
	call	context_free@PLT
.LVL31:
	.loc 1 265 3 view .LVU82
	movq	%r15, %rdi
	call	context_free@PLT
.LVL32:
	.loc 1 266 3 view .LVU83
	movq	(%rsp), %rdi
	call	freecon@PLT
.LVL33:
	.loc 1 267 3 view .LVU84
	movq	8(%rsp), %rdi
	call	freecon@PLT
.LVL34:
	.loc 1 268 3 view .LVU85
	.loc 1 268 9 is_stmt 0 view .LVU86
	movl	%r14d, (%rbx)
	.loc 1 269 3 is_stmt 1 view .LVU87
	.loc 1 269 10 is_stmt 0 view .LVU88
	jmp	.L1
.LVL35:
	.p2align 4,,10
	.p2align 3
.L38:
.LBB17:
	.loc 1 191 7 is_stmt 1 view .LVU89
	.loc 1 191 11 is_stmt 0 view .LVU90
	leaq	8(%rsp), %rdi
.LVL36:
	.loc 1 191 11 view .LVU91
	call	getfscreatecon@PLT
.LVL37:
	.loc 1 191 10 view .LVU92
	testl	%eax, %eax
	js	.L26
	.loc 1 193 7 is_stmt 1 view .LVU93
	call	__errno_location@PLT
.LVL38:
	.loc 1 193 11 is_stmt 0 view .LVU94
	movq	8(%rsp), %r12
	movq	%rax, %rbx
	.loc 1 193 10 view .LVU95
	testq	%r12, %r12
	je	.L45
	.loc 1 198 7 is_stmt 1 view .LVU96
	.loc 1 198 12 is_stmt 0 view .LVU97
	movq	%r12, %rsi
	movq	%rbp, %rdi
	call	lsetfilecon@PLT
.LVL39:
	.loc 1 199 11 view .LVU98
	movl	(%rbx), %r12d
	.loc 1 200 7 view .LVU99
	movq	8(%rsp), %rdi
	.loc 1 198 12 view .LVU100
	movl	%eax, %ebp
.LVL40:
	.loc 1 199 7 is_stmt 1 view .LVU101
	.loc 1 200 7 view .LVU102
	call	freecon@PLT
.LVL41:
	.loc 1 201 7 view .LVU103
	.loc 1 201 13 is_stmt 0 view .LVU104
	movl	%r12d, (%rbx)
	.loc 1 202 7 is_stmt 1 view .LVU105
.LVL42:
.L1:
	.loc 1 202 7 is_stmt 0 view .LVU106
.LBE17:
	.loc 1 270 1 view .LVU107
	movq	168(%rsp), %rax
	xorq	%fs:40, %rax
	jne	.L46
	addq	$184, %rsp
	.cfi_remember_state
	.cfi_def_cfa_offset 56
	movl	%ebp, %eax
	popq	%rbx
	.cfi_def_cfa_offset 48
	popq	%rbp
	.cfi_def_cfa_offset 40
	popq	%r12
	.cfi_def_cfa_offset 32
	popq	%r13
	.cfi_def_cfa_offset 24
	popq	%r14
	.cfi_def_cfa_offset 16
	popq	%r15
	.cfi_def_cfa_offset 8
	ret
.LVL43:
	.p2align 4,,10
	.p2align 3
.L27:
	.cfi_restore_state
	.loc 1 184 27 view .LVU108
	xorl	%r15d, %r15d
	.loc 1 184 13 view .LVU109
	xorl	%r13d, %r13d
.LVL44:
	.loc 1 184 13 view .LVU110
	jmp	.L6
.LVL45:
	.p2align 4,,10
	.p2align 3
.L13:
	.loc 1 241 7 is_stmt 1 view .LVU111
	.loc 1 241 11 is_stmt 0 view .LVU112
	movq	%rbp, %rdi
	call	rpl_lgetfilecon@PLT
.LVL46:
	.loc 1 241 10 view .LVU113
	testl	%eax, %eax
	js	.L47
	.loc 1 245 3 is_stmt 1 view .LVU114
	.loc 1 245 20 is_stmt 0 view .LVU115
	movq	8(%rsp), %rdi
	call	context_new@PLT
.LVL47:
	movq	%rax, %r15
.LVL48:
	.loc 1 245 6 view .LVU116
	testq	%rax, %rax
	jne	.L23
.LVL49:
	.loc 1 260 7 is_stmt 1 view .LVU117
	.loc 1 261 3 view .LVU118
	.loc 1 261 7 is_stmt 0 view .LVU119
	movl	(%rbx), %r14d
.LVL50:
	.loc 1 262 3 is_stmt 1 view .LVU120
	.loc 1 261 7 is_stmt 0 view .LVU121
	movl	$-1, %ebp
.LVL51:
	.loc 1 261 7 view .LVU122
	jmp	.L20
.LVL52:
	.p2align 4,,10
	.p2align 3
.L41:
	.loc 1 227 7 is_stmt 1 view .LVU123
	.loc 1 227 11 is_stmt 0 view .LVU124
	movl	(%rbx), %r14d
	.loc 1 184 27 view .LVU125
	xorl	%r15d, %r15d
	.loc 1 184 13 view .LVU126
	xorl	%r13d, %r13d
.LVL53:
	.loc 1 227 10 view .LVU127
	cmpl	$2, %r14d
	jne	.L11
	.loc 1 228 9 is_stmt 1 view .LVU128
	.loc 1 228 15 is_stmt 0 view .LVU129
	movl	$61, (%rbx)
	movl	$61, %r14d
	jmp	.L11
.LVL54:
	.p2align 4,,10
	.p2align 3
.L40:
	.loc 1 184 27 view .LVU130
	xorl	%r15d, %r15d
	.loc 1 184 13 view .LVU131
	xorl	%r13d, %r13d
.LVL55:
	.loc 1 180 7 view .LVU132
	movl	$-1, %ebp
.LVL56:
.L8:
	.loc 1 260 7 is_stmt 1 view .LVU133
	.loc 1 261 3 view .LVU134
	.loc 1 261 7 is_stmt 0 view .LVU135
	movl	(%rbx), %r14d
.LVL57:
	.loc 1 262 3 is_stmt 1 view .LVU136
	jmp	.L21
.LVL58:
	.p2align 4,,10
	.p2align 3
.L17:
	.loc 1 252 3 view .LVU137
	.loc 1 252 18 is_stmt 0 view .LVU138
	movq	%r15, %rdi
	call	context_str@PLT
.LVL59:
	movq	%rax, %rsi
.LVL60:
	.loc 1 252 6 view .LVU139
	testq	%rax, %rax
	je	.L36
	.loc 1 255 3 is_stmt 1 view .LVU140
	.loc 1 255 6 is_stmt 0 view .LVU141
	cmpl	$-1, %r12d
	je	.L19
	.loc 1 256 5 is_stmt 1 view .LVU142
	.loc 1 256 10 is_stmt 0 view .LVU143
	movl	%r12d, %edi
	call	fsetfilecon@PLT
.LVL61:
	.loc 1 256 10 view .LVU144
	movl	%eax, %ebp
.LVL62:
	.loc 1 256 10 view .LVU145
	jmp	.L8
.LVL63:
	.p2align 4,,10
	.p2align 3
.L42:
	.loc 1 256 10 view .LVU146
	movl	(%rbx), %r14d
	.loc 1 184 27 view .LVU147
	xorl	%r15d, %r15d
	jmp	.L11
.LVL64:
	.p2align 4,,10
	.p2align 3
.L43:
	.loc 1 184 27 view .LVU148
	xorl	%r15d, %r15d
	.loc 1 180 7 view .LVU149
	movl	$-1, %ebp
.LVL65:
	.loc 1 180 7 view .LVU150
	jmp	.L8
.LVL66:
	.p2align 4,,10
	.p2align 3
.L44:
	.loc 1 260 7 is_stmt 1 view .LVU151
	.loc 1 261 3 view .LVU152
	.loc 1 261 7 is_stmt 0 view .LVU153
	movl	(%rbx), %r14d
.LVL67:
	.loc 1 262 3 is_stmt 1 view .LVU154
	.loc 1 261 7 is_stmt 0 view .LVU155
	movl	$-1, %ebp
.LVL68:
	.loc 1 261 7 view .LVU156
	jmp	.L21
.LVL69:
	.p2align 4,,10
	.p2align 3
.L47:
	.loc 1 261 7 view .LVU157
	movl	(%rbx), %r14d
	.loc 1 184 27 view .LVU158
	xorl	%r15d, %r15d
	jmp	.L6
.LVL70:
.L19:
	.loc 1 258 5 is_stmt 1 view .LVU159
	.loc 1 258 10 is_stmt 0 view .LVU160
	movq	%rbp, %rdi
	call	lsetfilecon@PLT
.LVL71:
	.loc 1 258 10 view .LVU161
	movl	(%rbx), %r14d
	movl	%eax, %r12d
.LVL72:
	.loc 1 258 10 view .LVU162
	jmp	.L6
.LVL73:
.L45:
.LBB18:
	.loc 1 195 11 is_stmt 1 view .LVU163
	.loc 1 195 17 is_stmt 0 view .LVU164
	movl	$61, (%rax)
	.loc 1 196 11 is_stmt 1 view .LVU165
	.loc 1 196 18 is_stmt 0 view .LVU166
	movl	$-1, %ebp
.LVL74:
	.loc 1 196 18 view .LVU167
	jmp	.L1
.LVL75:
.L26:
	.loc 1 192 16 view .LVU168
	movl	$-1, %ebp
.LVL76:
	.loc 1 192 16 view .LVU169
	jmp	.L1
.LVL77:
.L46:
	.loc 1 192 16 view .LVU170
.LBE18:
	.loc 1 270 1 view .LVU171
	call	__stack_chk_fail@PLT
.LVL78:
	.cfi_endproc
.LFE138:
	.size	restorecon_private, .-restorecon_private
	.p2align 4
	.globl	defaultcon
	.type	defaultcon, @function
defaultcon:
.LVL79:
.LFB137:
	.loc 1 112 1 is_stmt 1 view -0
	.cfi_startproc
	.loc 1 112 1 is_stmt 0 view .LVU173
	endbr64
	pushq	%r15
	.cfi_def_cfa_offset 16
	.cfi_offset 15, -16
	pushq	%r14
	.cfi_def_cfa_offset 24
	.cfi_offset 14, -24
	movq	%rdi, %r14
	pushq	%r13
	.cfi_def_cfa_offset 32
	.cfi_offset 13, -32
	pushq	%r12
	.cfi_def_cfa_offset 40
	.cfi_offset 12, -40
	movl	%edx, %r12d
	pushq	%rbp
	.cfi_def_cfa_offset 48
	.cfi_offset 6, -48
	movq	%rsi, %rbp
	pushq	%rbx
	.cfi_def_cfa_offset 56
	.cfi_offset 3, -56
	subq	$56, %rsp
	.cfi_def_cfa_offset 112
	.loc 1 112 1 view .LVU174
	movq	%fs:40, %rax
	movq	%rax, 40(%rsp)
	xorl	%eax, %eax
	.loc 1 113 3 is_stmt 1 view .LVU175
.LVL80:
	.loc 1 114 3 view .LVU176
	.loc 1 114 9 is_stmt 0 view .LVU177
	movq	$0, 8(%rsp)
	.loc 1 115 3 is_stmt 1 view .LVU178
	.loc 1 115 9 is_stmt 0 view .LVU179
	movq	$0, 16(%rsp)
	.loc 1 116 3 is_stmt 1 view .LVU180
.LVL81:
	.loc 1 117 3 view .LVU181
	.loc 1 118 3 view .LVU182
	.loc 1 119 3 view .LVU183
	.loc 1 121 3 view .LVU184
	call	__errno_location@PLT
.LVL82:
	.loc 1 121 6 is_stmt 0 view .LVU185
	cmpb	$47, 0(%rbp)
	movq	%rax, %rbx
	je	.L59
	.loc 1 124 7 is_stmt 1 view .LVU186
	.loc 1 124 17 is_stmt 0 view .LVU187
	movq	%rbp, %rdi
	movl	$2, %esi
	call	canonicalize_filename_mode@PLT
.LVL83:
	movq	%rax, %rbp
.LVL84:
	.loc 1 125 7 is_stmt 1 view .LVU188
	.loc 1 125 10 is_stmt 0 view .LVU189
	testq	%rax, %rax
	je	.L72
	movq	%rax, %r13
.LVL85:
.L49:
	.loc 1 130 3 is_stmt 1 view .LVU190
	.loc 1 130 7 is_stmt 0 view .LVU191
	leaq	8(%rsp), %rsi
	movl	%r12d, %ecx
	movq	%rbp, %rdx
	movq	%r14, %rdi
	call	selabel_lookup@PLT
.LVL86:
	.loc 1 130 6 view .LVU192
	testl	%eax, %eax
	js	.L73
	.loc 1 141 3 is_stmt 1 view .LVU193
.LVL87:
.LBB21:
.LBI21:
	.loc 1 72 1 view .LVU194
.LBB22:
	.loc 1 74 3 view .LVU195
	.loc 1 74 9 is_stmt 0 view .LVU196
	movq	$0, 24(%rsp)
	.loc 1 75 3 is_stmt 1 view .LVU197
	.loc 1 79 15 is_stmt 0 view .LVU198
	movq	%rbp, %rdi
	.loc 1 75 9 view .LVU199
	movq	$0, 32(%rsp)
	.loc 1 76 3 is_stmt 1 view .LVU200
	.loc 1 77 3 view .LVU201
.LVL88:
	.loc 1 79 3 view .LVU202
	.loc 1 79 15 is_stmt 0 view .LVU203
	call	dir_name@PLT
.LVL89:
	movq	%rax, %rbp
.LVL90:
	.loc 1 80 3 is_stmt 1 view .LVU204
	.loc 1 80 6 is_stmt 0 view .LVU205
	testq	%rax, %rax
	je	.L52
	.loc 1 82 3 is_stmt 1 view .LVU206
	.loc 1 82 7 is_stmt 0 view .LVU207
	leaq	24(%rsp), %rdi
	call	getcon@PLT
.LVL91:
	.loc 1 82 6 view .LVU208
	testl	%eax, %eax
	js	.L52
	.loc 1 84 3 is_stmt 1 view .LVU209
	.loc 1 84 7 is_stmt 0 view .LVU210
	leaq	32(%rsp), %rsi
	movq	%rbp, %rdi
	call	rpl_getfilecon@PLT
.LVL92:
	.loc 1 84 6 view .LVU211
	testl	%eax, %eax
	js	.L52
	.loc 1 86 3 is_stmt 1 view .LVU212
	.loc 1 86 12 is_stmt 0 view .LVU213
	movl	%r12d, %edi
	call	mode_to_security_class@PLT
.LVL93:
	.loc 1 87 3 is_stmt 1 view .LVU214
	.loc 1 87 6 is_stmt 0 view .LVU215
	testw	%ax, %ax
	je	.L52
	.loc 1 89 3 is_stmt 1 view .LVU216
	.loc 1 89 8 is_stmt 0 view .LVU217
	movq	32(%rsp), %rsi
	movq	24(%rsp), %rdi
	leaq	16(%rsp), %rcx
.LVL94:
	.loc 1 89 8 view .LVU218
	movzwl	%ax, %edx
	call	security_compute_create@PLT
.LVL95:
	.loc 1 93 3 view .LVU219
	movq	%rbp, %rdi
	.loc 1 92 7 view .LVU220
	movl	(%rbx), %r14d
.LVL96:
	.loc 1 89 8 view .LVU221
	movl	%eax, %r12d
.LVL97:
.LDL1:
	.loc 1 91 7 is_stmt 1 view .LVU222
	.loc 1 92 3 view .LVU223
	.loc 1 93 3 view .LVU224
	call	free@PLT
.LVL98:
	.loc 1 94 3 view .LVU225
	movq	24(%rsp), %rdi
	call	freecon@PLT
.LVL99:
	.loc 1 95 3 view .LVU226
	movq	32(%rsp), %rdi
	call	freecon@PLT
.LVL100:
	.loc 1 96 3 view .LVU227
	.loc 1 96 9 is_stmt 0 view .LVU228
	movl	%r14d, (%rbx)
	.loc 1 97 3 is_stmt 1 view .LVU229
.LVL101:
	.loc 1 97 3 is_stmt 0 view .LVU230
.LBE22:
.LBE21:
	.loc 1 141 6 view .LVU231
	testl	%r12d, %r12d
	js	.L62
	.loc 1 143 3 is_stmt 1 view .LVU232
	.loc 1 143 20 is_stmt 0 view .LVU233
	movq	8(%rsp), %rdi
	call	context_new@PLT
.LVL102:
	movq	%rax, %rbp
.LVL103:
	.loc 1 143 6 view .LVU234
	testq	%rax, %rax
	je	.L74
	.loc 1 145 3 is_stmt 1 view .LVU235
	.loc 1 145 20 is_stmt 0 view .LVU236
	movq	16(%rsp), %rdi
	call	context_new@PLT
.LVL104:
	.loc 1 145 20 view .LVU237
	movq	%rax, %r12
.LVL105:
	.loc 1 145 6 view .LVU238
	testq	%rax, %rax
	je	.L71
	.loc 1 148 3 is_stmt 1 view .LVU239
	.loc 1 148 19 is_stmt 0 view .LVU240
	movq	%rbp, %rdi
	call	context_type_get@PLT
.LVL106:
	.loc 1 148 19 view .LVU241
	movq	%rax, %rsi
.LVL107:
	.loc 1 148 6 view .LVU242
	testq	%rax, %rax
	je	.L71
	.loc 1 150 3 is_stmt 1 view .LVU243
	.loc 1 150 7 is_stmt 0 view .LVU244
	movq	%r12, %rdi
	call	context_type_set@PLT
.LVL108:
	.loc 1 150 6 view .LVU245
	testl	%eax, %eax
	jne	.L71
	.loc 1 152 3 is_stmt 1 view .LVU246
	.loc 1 152 18 is_stmt 0 view .LVU247
	movq	%r12, %rdi
	call	context_str@PLT
.LVL109:
	movq	%rax, %rdi
.LVL110:
	.loc 1 152 6 view .LVU248
	testq	%rax, %rax
	je	.L71
	.loc 1 155 3 is_stmt 1 view .LVU249
	.loc 1 155 8 is_stmt 0 view .LVU250
	call	setfscreatecon@PLT
.LVL111:
	.loc 1 155 8 view .LVU251
	movl	(%rbx), %r14d
	movl	%eax, %r15d
.LVL112:
.L50:
	.loc 1 157 7 is_stmt 1 view .LVU252
	.loc 1 158 3 view .LVU253
	.loc 1 159 3 view .LVU254
	movq	%rbp, %rdi
	call	context_free@PLT
.LVL113:
	.loc 1 160 3 view .LVU255
	movq	%r12, %rdi
	call	context_free@PLT
.LVL114:
	.loc 1 161 3 view .LVU256
	movq	8(%rsp), %rdi
	call	freecon@PLT
.LVL115:
	.loc 1 162 3 view .LVU257
	movq	16(%rsp), %rdi
	call	freecon@PLT
.LVL116:
	.loc 1 163 3 view .LVU258
	movq	%r13, %rdi
	call	free@PLT
.LVL117:
	.loc 1 164 3 view .LVU259
	.loc 1 164 9 is_stmt 0 view .LVU260
	movl	%r14d, (%rbx)
	.loc 1 165 3 is_stmt 1 view .LVU261
	.loc 1 166 1 is_stmt 0 view .LVU262
	movq	40(%rsp), %rax
	xorq	%fs:40, %rax
	jne	.L75
	addq	$56, %rsp
	.cfi_remember_state
	.cfi_def_cfa_offset 56
	movl	%r15d, %eax
	popq	%rbx
	.cfi_def_cfa_offset 48
	popq	%rbp
	.cfi_def_cfa_offset 40
.LVL118:
	.loc 1 166 1 view .LVU263
	popq	%r12
	.cfi_def_cfa_offset 32
.LVL119:
	.loc 1 166 1 view .LVU264
	popq	%r13
	.cfi_def_cfa_offset 24
.LVL120:
	.loc 1 166 1 view .LVU265
	popq	%r14
	.cfi_def_cfa_offset 16
	popq	%r15
	.cfi_def_cfa_offset 8
.LVL121:
	.loc 1 166 1 view .LVU266
	ret
.LVL122:
	.p2align 4,,10
	.p2align 3
.L59:
	.cfi_restore_state
	.loc 1 119 9 view .LVU267
	xorl	%r13d, %r13d
	jmp	.L49
.LVL123:
	.p2align 4,,10
	.p2align 3
.L52:
.LBB26:
.LBB23:
	.loc 1 91 7 is_stmt 1 view .LVU268
	.loc 1 92 3 view .LVU269
	.loc 1 93 3 is_stmt 0 view .LVU270
	movq	%rbp, %rdi
	.loc 1 92 7 view .LVU271
	movl	(%rbx), %r14d
.LVL124:
	.loc 1 93 3 is_stmt 1 view .LVU272
.LBE23:
.LBE26:
	.loc 1 116 27 is_stmt 0 view .LVU273
	xorl	%r12d, %r12d
.LVL125:
	.loc 1 116 13 view .LVU274
	xorl	%ebp, %ebp
.LVL126:
.LBB27:
.LBB24:
	.loc 1 93 3 view .LVU275
	call	free@PLT
.LVL127:
	.loc 1 94 3 is_stmt 1 view .LVU276
	movq	24(%rsp), %rdi
.LBE24:
.LBE27:
	.loc 1 113 7 is_stmt 0 view .LVU277
	movl	$-1, %r15d
.LBB28:
.LBB25:
	.loc 1 94 3 view .LVU278
	call	freecon@PLT
.LVL128:
	.loc 1 95 3 is_stmt 1 view .LVU279
	movq	32(%rsp), %rdi
	call	freecon@PLT
.LVL129:
	.loc 1 96 3 view .LVU280
	.loc 1 96 9 is_stmt 0 view .LVU281
	movl	%r14d, (%rbx)
	.loc 1 97 3 is_stmt 1 view .LVU282
.LVL130:
	.loc 1 97 3 is_stmt 0 view .LVU283
	jmp	.L50
.LVL131:
	.p2align 4,,10
	.p2align 3
.L71:
	.loc 1 97 3 view .LVU284
	movl	(%rbx), %r14d
.LBE25:
.LBE28:
	.loc 1 113 7 view .LVU285
	movl	$-1, %r15d
	jmp	.L50
.LVL132:
	.p2align 4,,10
	.p2align 3
.L73:
	.loc 1 137 7 is_stmt 1 view .LVU286
	.loc 1 137 11 is_stmt 0 view .LVU287
	movl	(%rbx), %r14d
.LVL133:
	.loc 1 137 10 view .LVU288
	cmpl	$2, %r14d
	je	.L76
.LVL134:
.L62:
	.loc 1 116 27 view .LVU289
	xorl	%r12d, %r12d
	.loc 1 116 13 view .LVU290
	xorl	%ebp, %ebp
	.loc 1 113 7 view .LVU291
	movl	$-1, %r15d
	jmp	.L50
.LVL135:
.L74:
	.loc 1 113 7 view .LVU292
	movl	(%rbx), %r14d
	.loc 1 116 27 view .LVU293
	xorl	%r12d, %r12d
	.loc 1 113 7 view .LVU294
	movl	$-1, %r15d
	jmp	.L50
.LVL136:
.L76:
	.loc 1 138 9 is_stmt 1 view .LVU295
	.loc 1 138 15 is_stmt 0 view .LVU296
	movl	$61, (%rbx)
	movl	$61, %r14d
	.loc 1 116 27 view .LVU297
	xorl	%r12d, %r12d
.LVL137:
	.loc 1 116 13 view .LVU298
	xorl	%ebp, %ebp
.LVL138:
	.loc 1 113 7 view .LVU299
	movl	$-1, %r15d
	jmp	.L50
.LVL139:
.L72:
	.loc 1 113 7 view .LVU300
	movl	(%rbx), %r14d
.LVL140:
	.loc 1 124 17 view .LVU301
	xorl	%r13d, %r13d
	.loc 1 116 27 view .LVU302
	xorl	%r12d, %r12d
.LVL141:
	.loc 1 113 7 view .LVU303
	movl	$-1, %r15d
	jmp	.L50
.LVL142:
.L75:
	.loc 1 166 1 view .LVU304
	call	__stack_chk_fail@PLT
.LVL143:
	.cfi_endproc
.LFE137:
	.size	defaultcon, .-defaultcon
	.p2align 4
	.globl	restorecon
	.type	restorecon, @function
restorecon:
.LVL144:
.LFB139:
	.loc 1 287 1 is_stmt 1 view -0
	.cfi_startproc
	.loc 1 287 1 is_stmt 0 view .LVU306
	endbr64
	pushq	%r14
	.cfi_def_cfa_offset 16
	.cfi_offset 14, -16
	movl	%edx, %r14d
	pushq	%r13
	.cfi_def_cfa_offset 24
	.cfi_offset 13, -24
	xorl	%r13d, %r13d
	pushq	%r12
	.cfi_def_cfa_offset 32
	.cfi_offset 12, -32
	movq	%rdi, %r12
	pushq	%rbp
	.cfi_def_cfa_offset 40
	.cfi_offset 6, -40
	movq	%rsi, %rbp
	pushq	%rbx
	.cfi_def_cfa_offset 48
	.cfi_offset 3, -48
	subq	$32, %rsp
	.cfi_def_cfa_offset 80
	.loc 1 287 1 view .LVU307
	movq	%fs:40, %rax
	movq	%rax, 24(%rsp)
	xorl	%eax, %eax
	.loc 1 288 3 is_stmt 1 view .LVU308
.LVL145:
	.loc 1 290 3 view .LVU309
	.loc 1 290 6 is_stmt 0 view .LVU310
	cmpb	$47, (%rsi)
	jne	.L96
.LVL146:
	.loc 1 301 3 is_stmt 1 view .LVU311
	call	__errno_location@PLT
.LVL147:
	.loc 1 301 3 is_stmt 0 view .LVU312
	movq	%rax, %rbx
	.loc 1 301 6 view .LVU313
	testb	%r14b, %r14b
	je	.L97
.L80:
	.loc 1 310 3 is_stmt 1 view .LVU314
	.loc 1 311 14 is_stmt 0 view .LVU315
	movq	%rsp, %rdi
	xorl	%edx, %edx
	movl	$16, %esi
	.loc 1 310 15 view .LVU316
	movq	%rbp, (%rsp)
	movq	$0, 8(%rsp)
	.loc 1 311 3 is_stmt 1 view .LVU317
	.loc 1 313 7 is_stmt 0 view .LVU318
	xorl	%r14d, %r14d
	.loc 1 311 14 view .LVU319
	call	xfts_open@PLT
.LVL148:
	movq	%rax, %rbp
.LVL149:
	.loc 1 313 3 is_stmt 1 view .LVU320
	.loc 1 314 3 view .LVU321
.LBB29:
	.loc 1 314 8 view .LVU322
	.p2align 4,,10
	.p2align 3
.L81:
	.loc 1 314 21 view .LVU323
	.loc 1 314 28 is_stmt 0 view .LVU324
	movq	%rbp, %rdi
	call	rpl_fts_read@PLT
.LVL150:
	.loc 1 314 3 view .LVU325
	testq	%rax, %rax
	je	.L98
.L83:
	.loc 1 315 5 is_stmt 1 view .LVU326
	.loc 1 315 9 is_stmt 0 view .LVU327
	movq	32(%rbp), %rsi
	movq	%r12, %rdi
	call	restorecon_private
.LVL151:
	.loc 1 315 8 view .LVU328
	testl	%eax, %eax
	jns	.L81
	.loc 1 316 7 is_stmt 1 view .LVU329
	.loc 1 314 28 is_stmt 0 view .LVU330
	movq	%rbp, %rdi
	.loc 1 316 11 view .LVU331
	movl	(%rbx), %r14d
.LVL152:
	.loc 1 314 21 is_stmt 1 view .LVU332
	.loc 1 314 28 is_stmt 0 view .LVU333
	call	rpl_fts_read@PLT
.LVL153:
	.loc 1 314 3 view .LVU334
	testq	%rax, %rax
	jne	.L83
.L98:
	.loc 1 314 3 view .LVU335
.LBE29:
	.loc 1 318 3 is_stmt 1 view .LVU336
	.loc 1 318 7 is_stmt 0 view .LVU337
	movl	(%rbx), %eax
.LVL154:
	.loc 1 321 7 view .LVU338
	movq	%rbp, %rdi
	.loc 1 318 6 view .LVU339
	testl	%eax, %eax
	cmovne	%eax, %r14d
.LVL155:
	.loc 1 321 3 is_stmt 1 view .LVU340
	.loc 1 321 7 is_stmt 0 view .LVU341
	call	rpl_fts_close@PLT
.LVL156:
	.loc 1 321 6 view .LVU342
	testl	%eax, %eax
	jne	.L99
.L85:
	.loc 1 324 3 is_stmt 1 view .LVU343
	movq	%r13, %rdi
	call	free@PLT
.LVL157:
	.loc 1 325 3 view .LVU344
	.loc 1 325 10 is_stmt 0 view .LVU345
	testl	%r14d, %r14d
	sete	%r12b
.LVL158:
.L77:
	.loc 1 326 1 view .LVU346
	movq	24(%rsp), %rax
	xorq	%fs:40, %rax
	jne	.L100
	addq	$32, %rsp
	.cfi_remember_state
	.cfi_def_cfa_offset 48
	movl	%r12d, %eax
	popq	%rbx
	.cfi_def_cfa_offset 40
	popq	%rbp
	.cfi_def_cfa_offset 32
	popq	%r12
	.cfi_def_cfa_offset 24
	popq	%r13
	.cfi_def_cfa_offset 16
	popq	%r14
	.cfi_def_cfa_offset 8
	ret
.LVL159:
	.p2align 4,,10
	.p2align 3
.L99:
	.cfi_restore_state
	.loc 1 322 5 is_stmt 1 view .LVU347
	.loc 1 322 9 is_stmt 0 view .LVU348
	movl	(%rbx), %r14d
.LVL160:
	.loc 1 322 9 view .LVU349
	jmp	.L85
.LVL161:
	.p2align 4,,10
	.p2align 3
.L96:
	.loc 1 295 7 is_stmt 1 view .LVU350
	.loc 1 295 17 is_stmt 0 view .LVU351
	movq	%rbp, %rdi
.LVL162:
	.loc 1 295 17 view .LVU352
	movl	$2, %esi
.LVL163:
	.loc 1 295 17 view .LVU353
	call	canonicalize_filename_mode@PLT
.LVL164:
	.loc 1 295 17 view .LVU354
	movq	%rax, %rbp
.LVL165:
	.loc 1 296 7 is_stmt 1 view .LVU355
	.loc 1 296 10 is_stmt 0 view .LVU356
	testq	%rax, %rax
	je	.L88
	movq	%rax, %r13
.LVL166:
	.loc 1 301 3 is_stmt 1 view .LVU357
	call	__errno_location@PLT
.LVL167:
	.loc 1 301 3 is_stmt 0 view .LVU358
	movq	%rax, %rbx
	.loc 1 301 6 view .LVU359
	testb	%r14b, %r14b
	jne	.L80
.LVL168:
.L97:
.LBB30:
	.loc 1 303 7 is_stmt 1 view .LVU360
	.loc 1 303 17 is_stmt 0 view .LVU361
	movq	%rbp, %rsi
	movq	%r12, %rdi
	call	restorecon_private
.LVL169:
	.loc 1 304 11 view .LVU362
	movl	(%rbx), %ebp
.LVL170:
	.loc 1 305 7 view .LVU363
	movq	%r13, %rdi
	.loc 1 303 12 view .LVU364
	cmpl	$-1, %eax
	setne	%r12b
.LVL171:
	.loc 1 304 7 is_stmt 1 view .LVU365
	.loc 1 305 7 view .LVU366
	call	free@PLT
.LVL172:
	.loc 1 306 7 view .LVU367
	.loc 1 306 13 is_stmt 0 view .LVU368
	movl	%ebp, (%rbx)
	.loc 1 307 7 is_stmt 1 view .LVU369
	.loc 1 307 14 is_stmt 0 view .LVU370
	jmp	.L77
.LVL173:
	.p2align 4,,10
	.p2align 3
.L88:
	.loc 1 307 14 view .LVU371
.LBE30:
	.loc 1 297 16 view .LVU372
	xorl	%r12d, %r12d
.LVL174:
	.loc 1 297 16 view .LVU373
	jmp	.L77
.LVL175:
.L100:
	.loc 1 326 1 view .LVU374
	call	__stack_chk_fail@PLT
.LVL176:
	.cfi_endproc
.LFE139:
	.size	restorecon, .-restorecon
.Letext0:
	.file 4 "/usr/include/x86_64-linux-gnu/bits/types.h"
	.file 5 "/usr/include/x86_64-linux-gnu/sys/types.h"
	.file 6 "/usr/lib/gcc/x86_64-linux-gnu/9/include/stddef.h"
	.file 7 "/usr/include/x86_64-linux-gnu/bits/types/struct_timespec.h"
	.file 8 "/usr/include/selinux/selinux.h"
	.file 9 "/usr/include/selinux/context.h"
	.file 10 "./lib/sys/select.h"
	.file 11 "/usr/include/time.h"
	.file 12 "/usr/include/x86_64-linux-gnu/bits/stat.h"
	.file 13 "/usr/include/signal.h"
	.file 14 "/usr/include/unistd.h"
	.file 15 "/usr/include/x86_64-linux-gnu/bits/getopt_core.h"
	.file 16 "/usr/include/errno.h"
	.file 17 "src/version.h"
	.file 18 "./lib/exitfail.h"
	.file 19 "/usr/include/x86_64-linux-gnu/bits/types/struct_FILE.h"
	.file 20 "/usr/include/x86_64-linux-gnu/bits/types/FILE.h"
	.file 21 "/usr/include/stdio.h"
	.file 22 "/usr/include/x86_64-linux-gnu/bits/sys_errlist.h"
	.file 23 "./lib/version-etc.h"
	.file 24 "./lib/progname.h"
	.file 25 "./lib/quotearg.h"
	.file 26 "./lib/canonicalize.h"
	.file 27 "./lib/i-ring.h"
	.file 28 "./lib/fts_.h"
	.file 29 "/usr/include/dirent.h"
	.file 30 "/usr/include/stdlib.h"
	.file 31 "./lib/xfts.h"
	.file 32 "/usr/include/selinux/label.h"
	.file 33 "./lib/dirname.h"
	.section	.note.GNU-stack,"",@progbits
	.section	.note.gnu.property,"a"
	.align 8
	.long	 1f - 0f
	.long	 4f - 1f
	.long	 5
0:
	.string	 "GNU"
1:
	.align 8
	.long	 0xc0000002
	.long	 3f - 2f
2:
	.long	 0x3
3:
	.align 8
4:
