	.file	"seq.c"
	.text
.Ltext0:
	.section	.rodata.str1.1,"aMS",@progbits,1
.LC0:
	.string	"0123456789"
	.text
	.p2align 4
	.type	all_digits_p, @function
all_digits_p:
.LVL0:
.LFB145:
	.file 1 "src/seq.c"
	.loc 1 563 1 view -0
	.cfi_startproc
	.loc 1 564 3 view .LVU1
	.loc 1 565 3 view .LVU2
	.loc 1 565 10 is_stmt 0 view .LVU3
	movsbl	(%rdi), %edx
	xorl	%eax, %eax
	subl	$48, %edx
	.loc 1 565 25 view .LVU4
	cmpl	$9, %edx
	ja	.L5
	.loc 1 563 1 discriminator 1 view .LVU5
	pushq	%rbx
	.cfi_def_cfa_offset 16
	.cfi_offset 3, -16
	.loc 1 564 14 discriminator 1 view .LVU6
	orq	$-1, %rcx
	movq	%rdi, %r8
	.loc 1 565 33 discriminator 1 view .LVU7
	leaq	.LC0(%rip), %rsi
	.loc 1 564 14 discriminator 1 view .LVU8
	repnz scasb
.LVL1:
	.loc 1 565 33 discriminator 1 view .LVU9
	movq	%r8, %rdi
	.loc 1 564 14 discriminator 1 view .LVU10
	notq	%rcx
	leaq	-1(%rcx), %rbx
	.loc 1 565 33 discriminator 1 view .LVU11
	call	strspn@PLT
.LVL2:
	.loc 1 565 25 discriminator 1 view .LVU12
	cmpq	%rbx, %rax
	.loc 1 566 1 discriminator 1 view .LVU13
	popq	%rbx
	.cfi_def_cfa_offset 8
	.loc 1 565 25 discriminator 1 view .LVU14
	sete	%al
	.loc 1 566 1 discriminator 1 view .LVU15
	ret
.LVL3:
.L5:
	.cfi_restore 3
	.loc 1 566 1 view .LVU16
	ret
	.cfi_endproc
.LFE145:
	.size	all_digits_p, .-all_digits_p
	.section	.rodata.str1.1
.LC1:
	.string	"write error"
	.text
	.p2align 4
	.type	io_error, @function
io_error:
.LFB138:
	.loc 1 292 1 is_stmt 1 view -0
	.cfi_startproc
	.loc 1 294 3 view .LVU18
	.loc 1 292 1 is_stmt 0 view .LVU19
	pushq	%r12
	.cfi_def_cfa_offset 16
	.cfi_offset 12, -16
	.loc 1 294 3 view .LVU20
	movq	stdout(%rip), %rdi
	call	clearerr_unlocked@PLT
.LVL4:
	.loc 1 295 3 is_stmt 1 view .LVU21
	movl	$5, %edx
	leaq	.LC1(%rip), %rsi
	xorl	%edi, %edi
	call	dcgettext@PLT
.LVL5:
	movq	%rax, %r12
	call	__errno_location@PLT
.LVL6:
	movq	%r12, %rdx
	movl	$1, %edi
	movl	(%rax), %esi
	xorl	%eax, %eax
	call	error@PLT
.LVL7:
	.cfi_endproc
.LFE138:
	.size	io_error, .-io_error
	.section	.rodata.str1.1
.LC2:
	.string	"inf"
	.text
	.p2align 4
	.type	seq_fast, @function
seq_fast:
.LVL8:
.LFB144:
	.loc 1 462 1 view -0
	.cfi_startproc
	.loc 1 463 3 view .LVU23
	.loc 1 462 1 is_stmt 0 view .LVU24
	pushq	%r15
	.cfi_def_cfa_offset 16
	.cfi_offset 15, -16
	movq	%rdi, %r9
	.loc 1 463 14 view .LVU25
	movl	$4, %ecx
	.loc 1 462 1 view .LVU26
	movq	%rsi, %r8
	pushq	%r14
	.cfi_def_cfa_offset 24
	.cfi_offset 14, -24
	.loc 1 463 14 view .LVU27
	leaq	.LC2(%rip), %rdi
.LVL9:
	.loc 1 462 1 view .LVU28
	pushq	%r13
	.cfi_def_cfa_offset 32
	.cfi_offset 13, -32
	pushq	%r12
	.cfi_def_cfa_offset 40
	.cfi_offset 12, -40
	pushq	%rbp
	.cfi_def_cfa_offset 48
	.cfi_offset 6, -48
	pushq	%rbx
	.cfi_def_cfa_offset 56
	.cfi_offset 3, -56
	subq	$72, %rsp
	.cfi_def_cfa_offset 128
	.loc 1 463 14 view .LVU29
	repz cmpsb
.LVL10:
	.loc 1 462 1 view .LVU30
	movq	%rdx, 8(%rsp)
	.loc 1 463 14 view .LVU31
	seta	%r15b
	sbbb	$0, %r15b
.LBB106:
.LBB107:
	.loc 1 448 9 view .LVU32
	cmpb	$48, (%r9)
.LBE107:
.LBE106:
	.loc 1 463 14 view .LVU33
	movsbl	%r15b, %r15d
.LVL11:
	.loc 1 467 3 is_stmt 1 view .LVU34
.LBB111:
.LBI106:
	.loc 1 445 1 view .LVU35
.LBB108:
	.loc 1 447 3 view .LVU36
	.loc 1 448 3 view .LVU37
	.loc 1 448 9 view .LVU38
	jne	.L32
	movq	%r9, %rax
.LVL12:
	.p2align 4,,10
	.p2align 3
.L13:
	.loc 1 449 5 view .LVU39
	movq	%rax, %r12
	.loc 1 448 10 is_stmt 0 view .LVU40
	movzbl	1(%rax), %edx
	.loc 1 449 5 view .LVU41
	addq	$1, %rax
.LVL13:
	.loc 1 448 9 is_stmt 1 view .LVU42
	cmpb	$48, %dl
	je	.L13
	.loc 1 452 3 view .LVU43
	.loc 1 452 11 is_stmt 0 view .LVU44
	testb	%dl, %dl
	jne	.L36
	cmpq	%rax, %r9
	je	.L36
.LVL14:
.L12:
	.loc 1 454 3 is_stmt 1 view .LVU45
	.loc 1 454 3 is_stmt 0 view .LVU46
.LBE108:
.LBE111:
	.loc 1 468 3 is_stmt 1 view .LVU47
.LBB112:
.LBI112:
	.loc 1 445 1 view .LVU48
.LBB113:
	.loc 1 448 9 view .LVU49
	cmpb	$48, (%r8)
	jne	.L33
	movq	%r8, %rax
.LVL15:
	.p2align 4,,10
	.p2align 3
.L16:
	.loc 1 449 5 view .LVU50
	movq	%rax, %rbp
	.loc 1 448 10 is_stmt 0 view .LVU51
	movzbl	1(%rax), %edx
	.loc 1 449 5 view .LVU52
	addq	$1, %rax
.LVL16:
	.loc 1 448 9 is_stmt 1 view .LVU53
	cmpb	$48, %dl
	je	.L16
	.loc 1 452 3 view .LVU54
	.loc 1 452 11 is_stmt 0 view .LVU55
	cmpq	%rax, %r8
	je	.L37
	testb	%dl, %dl
	jne	.L37
.LVL17:
.L15:
	.loc 1 454 3 is_stmt 1 view .LVU56
	.loc 1 454 3 is_stmt 0 view .LVU57
.LBE113:
.LBE112:
	.loc 1 470 3 is_stmt 1 view .LVU58
	.loc 1 470 18 is_stmt 0 view .LVU59
	movq	%r12, %rdi
	movl	$31, %ebx
	call	strlen@PLT
.LVL18:
	.loc 1 470 18 view .LVU60
	leaq	1(%rax), %rdx
	movq	%rax, %r14
	movq	%rax, %r13
.LVL19:
	.loc 1 471 3 is_stmt 1 view .LVU61
	cmpq	$31, %rdx
	cmovnb	%rdx, %rbx
	.loc 1 471 26 is_stmt 0 view .LVU62
	testl	%r15d, %r15d
	je	.L18
	movq	%rdx, 32(%rsp)
	.loc 1 471 28 discriminator 2 view .LVU63
	xorl	%eax, %eax
.LVL20:
	.loc 1 471 28 discriminator 2 view .LVU64
	orq	$-1, %rcx
	movq	%rbp, %rdi
	repnz scasb
	notq	%rcx
	leaq	-1(%rcx), %rax
.LVL21:
	.loc 1 476 3 is_stmt 1 discriminator 2 view .LVU65
	.loc 1 471 28 is_stmt 0 discriminator 2 view .LVU66
	movq	%rcx, 40(%rsp)
	.loc 1 476 10 discriminator 2 view .LVU67
	cmpq	%rax, %rbx
	movq	%rax, (%rsp)
	cmovb	%rax, %rbx
.LVL22:
	.loc 1 478 3 is_stmt 1 discriminator 2 view .LVU68
	.loc 1 481 3 discriminator 2 view .LVU69
	.loc 1 481 14 is_stmt 0 discriminator 2 view .LVU70
	leaq	1(%rbx), %r10
	movq	%r10, %rdi
	movq	%r10, 16(%rsp)
	call	xmalloc@PLT
.LVL23:
	.loc 1 482 35 discriminator 2 view .LVU71
	movq	%rbx, %rdi
.LBB116:
.LBB117:
	.file 2 "/usr/include/x86_64-linux-gnu/bits/string_fortified.h"
	.loc 2 34 10 discriminator 2 view .LVU72
	movq	32(%rsp), %rdx
	movq	%r12, %rsi
.LBE117:
.LBE116:
	.loc 1 482 35 discriminator 2 view .LVU73
	subq	%r14, %rdi
	.loc 1 481 14 discriminator 2 view .LVU74
	movq	%rax, 24(%rsp)
.LVL24:
	.loc 1 482 3 is_stmt 1 discriminator 2 view .LVU75
.LBB126:
.LBI116:
	.loc 2 31 1 discriminator 2 view .LVU76
.LBB118:
	.loc 2 34 3 discriminator 2 view .LVU77
.LBE118:
.LBE126:
	.loc 1 482 35 is_stmt 0 discriminator 2 view .LVU78
	addq	%rax, %rdi
.LBB127:
.LBB119:
	.loc 2 34 10 discriminator 2 view .LVU79
	call	memcpy@PLT
.LVL25:
	.loc 2 34 10 discriminator 2 view .LVU80
.LBE119:
.LBE127:
	.loc 1 487 12 discriminator 2 view .LVU81
	movq	16(%rsp), %r10
.LBB128:
.LBB120:
	.loc 2 34 10 discriminator 2 view .LVU82
	movq	%rax, 48(%rsp)
.LVL26:
	.loc 2 34 10 discriminator 2 view .LVU83
.LBE120:
.LBE128:
	.loc 1 483 3 is_stmt 1 discriminator 2 view .LVU84
	.loc 1 484 3 discriminator 2 view .LVU85
	.loc 1 485 3 discriminator 2 view .LVU86
	.loc 1 487 7 discriminator 2 view .LVU87
.LBB129:
.LBB121:
	.loc 2 34 10 is_stmt 0 discriminator 2 view .LVU88
	movq	%rax, %r12
.LVL27:
	.loc 2 34 10 discriminator 2 view .LVU89
.LBE121:
.LBE129:
	.loc 1 487 12 discriminator 2 view .LVU90
	movq	%r10, %rdi
	call	xmalloc@PLT
.LVL28:
.LBB130:
.LBB131:
	.loc 2 34 10 discriminator 2 view .LVU91
	movq	40(%rsp), %r11
.LBE131:
.LBE130:
	.loc 1 488 33 discriminator 2 view .LVU92
	movq	%rbx, %rdi
.LBB136:
.LBB132:
	.loc 2 34 10 discriminator 2 view .LVU93
	movq	%rbp, %rsi
.LBE132:
.LBE136:
	.loc 1 488 33 discriminator 2 view .LVU94
	subq	(%rsp), %rdi
	.loc 1 487 12 discriminator 2 view .LVU95
	movq	%rax, 32(%rsp)
.LVL29:
	.loc 1 488 7 is_stmt 1 discriminator 2 view .LVU96
.LBB137:
.LBI130:
	.loc 2 31 1 discriminator 2 view .LVU97
.LBB133:
	.loc 2 34 3 discriminator 2 view .LVU98
.LBE133:
.LBE137:
	.loc 1 488 33 is_stmt 0 discriminator 2 view .LVU99
	addq	%rax, %rdi
.LBB138:
.LBB134:
	.loc 2 34 10 discriminator 2 view .LVU100
	movq	%r11, %rdx
	call	memcpy@PLT
.LVL30:
	.loc 2 34 10 discriminator 2 view .LVU101
.LBE134:
.LBE138:
.LBB139:
.LBB140:
	.loc 1 435 6 discriminator 2 view .LVU102
	cmpq	(%rsp), %r14
	movq	16(%rsp), %r10
.LBE140:
.LBE139:
.LBB142:
.LBB135:
	.loc 2 34 10 discriminator 2 view .LVU103
	movq	%rax, 40(%rsp)
.LVL31:
	.loc 2 34 10 discriminator 2 view .LVU104
	movq	%rax, %rsi
.LVL32:
	.loc 2 34 10 discriminator 2 view .LVU105
.LBE135:
.LBE142:
	.loc 1 493 3 is_stmt 1 discriminator 2 view .LVU106
.LBB143:
.LBI139:
	.loc 1 433 1 discriminator 2 view .LVU107
.LBB141:
	.loc 1 435 3 discriminator 2 view .LVU108
	.loc 1 435 6 is_stmt 0 discriminator 2 view .LVU109
	jb	.L19
	.loc 1 437 3 is_stmt 1 view .LVU110
	.loc 1 437 6 is_stmt 0 view .LVU111
	ja	.L34
	.loc 1 439 3 is_stmt 1 view .LVU112
	.loc 1 439 11 is_stmt 0 view .LVU113
	movq	48(%rsp), %r8
	movq	%r14, %rdx
	movq	%r8, %rdi
	call	memcmp@PLT
.LVL33:
	.loc 1 439 11 view .LVU114
.LBE141:
.LBE143:
	.loc 1 493 17 view .LVU115
	movq	16(%rsp), %r10
	testl	%eax, %eax
	jle	.L19
.L34:
	.loc 1 493 8 view .LVU116
	xorl	%r12d, %r12d
.LVL34:
.L20:
	.loc 1 555 3 is_stmt 1 view .LVU117
	movq	24(%rsp), %rdi
	call	free@PLT
.LVL35:
	.loc 1 556 3 view .LVU118
	movq	32(%rsp), %rdi
	call	free@PLT
.LVL36:
	.loc 1 557 3 view .LVU119
	.loc 1 558 1 is_stmt 0 view .LVU120
	addq	$72, %rsp
	.cfi_remember_state
	.cfi_def_cfa_offset 56
	movl	%r12d, %eax
	popq	%rbx
	.cfi_def_cfa_offset 48
	popq	%rbp
	.cfi_def_cfa_offset 40
	popq	%r12
	.cfi_def_cfa_offset 32
	popq	%r13
	.cfi_def_cfa_offset 24
	popq	%r14
	.cfi_def_cfa_offset 16
	popq	%r15
	.cfi_def_cfa_offset 8
	ret
.LVL37:
.L37:
	.cfi_restore_state
.LBB144:
.LBB114:
	.loc 1 452 11 view .LVU121
	movq	%rax, %rbp
	jmp	.L15
.LVL38:
.L36:
	.loc 1 452 11 view .LVU122
.LBE114:
.LBE144:
.LBB145:
.LBB109:
	movq	%rax, %r12
	jmp	.L12
.LVL39:
.L18:
	.loc 1 452 11 view .LVU123
.LBE109:
.LBE145:
	.loc 1 481 14 view .LVU124
	leaq	1(%rbx), %r10
	movq	%rdx, (%rsp)
.LVL40:
	.loc 1 476 3 is_stmt 1 view .LVU125
	.loc 1 478 3 view .LVU126
	.loc 1 481 3 view .LVU127
	.loc 1 481 14 is_stmt 0 view .LVU128
	movq	%r10, %rdi
	movq	%r10, 16(%rsp)
	call	xmalloc@PLT
.LVL41:
	.loc 1 482 35 view .LVU129
	movq	%rbx, %rdi
.LBB146:
.LBB122:
	.loc 2 34 10 view .LVU130
	movq	(%rsp), %rdx
	movq	%r12, %rsi
.LBE122:
.LBE146:
	.loc 1 482 35 view .LVU131
	subq	%r14, %rdi
	.loc 1 481 14 view .LVU132
	movq	%rax, 24(%rsp)
.LVL42:
	.loc 1 482 3 is_stmt 1 view .LVU133
.LBB147:
	.loc 2 31 1 view .LVU134
.LBB123:
	.loc 2 34 3 view .LVU135
.LBE123:
.LBE147:
	.loc 1 482 35 is_stmt 0 view .LVU136
	addq	%rax, %rdi
.LBB148:
.LBB124:
	.loc 2 34 10 view .LVU137
	call	memcpy@PLT
.LVL43:
	.loc 2 34 10 view .LVU138
.LBE124:
.LBE148:
	.loc 1 471 26 view .LVU139
	movq	$0, (%rsp)
	movq	16(%rsp), %r10
	.loc 1 491 12 view .LVU140
	movq	$0, 32(%rsp)
.LBB149:
.LBB125:
	.loc 2 34 10 view .LVU141
	movq	%rax, %r12
.LVL44:
	.loc 2 34 10 view .LVU142
.LBE125:
.LBE149:
	.loc 1 483 3 is_stmt 1 view .LVU143
	.loc 1 484 3 view .LVU144
	.loc 1 485 3 view .LVU145
	.loc 1 493 3 view .LVU146
	.loc 1 491 7 is_stmt 0 view .LVU147
	movq	$0, 40(%rsp)
.LVL45:
.L19:
	.loc 1 494 3 is_stmt 1 view .LVU148
.LBB150:
	.loc 1 499 7 view .LVU149
	.loc 1 499 25 is_stmt 0 view .LVU150
	addq	%r10, %r10
	.loc 1 499 14 view .LVU151
	movl	$8192, %eax
	cmpq	$8192, %r10
	cmovnb	%r10, %rax
.LVL46:
	.loc 1 500 7 is_stmt 1 view .LVU152
	.loc 1 500 19 is_stmt 0 view .LVU153
	movq	%rax, %rdi
	movq	%rax, 48(%rsp)
	call	xmalloc@PLT
.LVL47:
.LBB151:
.LBB152:
	.loc 2 48 10 view .LVU154
	movq	%r14, %rdx
	movq	%r12, %rsi
.LBE152:
.LBE151:
	.loc 1 500 19 view .LVU155
	movq	%rax, %rbp
.LVL48:
	.loc 1 501 7 is_stmt 1 view .LVU156
	.loc 1 501 19 is_stmt 0 view .LVU157
	movq	48(%rsp), %rax
.LVL49:
.LBB155:
.LBB153:
	.loc 2 48 10 view .LVU158
	movq	%rbp, %rdi
.LBE153:
.LBE155:
	.loc 1 501 19 view .LVU159
	addq	%rbp, %rax
	movq	%rax, 16(%rsp)
.LVL50:
	.loc 1 503 7 is_stmt 1 view .LVU160
	.loc 1 506 7 view .LVU161
.LBB156:
.LBI151:
	.loc 2 45 1 view .LVU162
.LBB154:
	.loc 2 48 3 view .LVU163
	.loc 2 48 10 is_stmt 0 view .LVU164
	call	mempcpy@PLT
.LVL51:
	.loc 2 48 10 view .LVU165
	testl	%r15d, %r15d
	movq	%rax, %r14
.LVL52:
	.loc 2 48 10 view .LVU166
	movq	%r13, %rax
.LVL53:
	.loc 2 48 10 view .LVU167
	sete	%r15b
.LVL54:
	.loc 2 48 10 view .LVU168
	movq	%r12, %r13
.LVL55:
	.loc 2 48 10 view .LVU169
	movq	%rbx, %r12
	movq	%rax, %rbx
.LVL56:
	.p2align 4,,10
	.p2align 3
.L31:
	.loc 2 48 10 view .LVU170
.LBE154:
.LBE156:
	.loc 1 509 7 is_stmt 1 view .LVU171
	.loc 1 511 11 view .LVU172
.LBB157:
	.loc 1 511 16 view .LVU173
	.loc 1 511 41 view .LVU174
	.loc 1 511 11 is_stmt 0 view .LVU175
	movq	8(%rsp), %rax
	testq	%rax, %rax
	je	.L21
	.loc 1 511 11 view .LVU176
	movq	%rax, %rcx
.LVL57:
	.p2align 4,,10
	.p2align 3
.L25:
	.loc 1 512 13 is_stmt 1 view .LVU177
.LBB158:
.LBI158:
	.loc 1 414 1 view .LVU178
.LBB159:
	.loc 1 416 3 view .LVU179
	.loc 1 417 3 view .LVU180
	.loc 1 417 9 is_stmt 0 view .LVU181
	leaq	-1(%r13,%rbx), %rax
.LVL58:
	.loc 1 417 9 view .LVU182
	jmp	.L24
	.p2align 4,,10
	.p2align 3
.L22:
	.loc 1 423 7 is_stmt 1 view .LVU183
	.loc 1 423 12 is_stmt 0 view .LVU184
	subq	$1, %rax
.LVL59:
	.loc 1 423 15 view .LVU185
	movb	$48, 1(%rax)
	.loc 1 425 9 is_stmt 1 view .LVU186
	.loc 1 425 3 is_stmt 0 view .LVU187
	cmpq	%rax, %r13
	ja	.L55
.L24:
	.loc 1 419 3 is_stmt 1 view .LVU188
	.loc 1 421 7 view .LVU189
	.loc 1 421 12 is_stmt 0 view .LVU190
	movzbl	(%rax), %edx
	.loc 1 421 10 view .LVU191
	cmpb	$56, %dl
	jg	.L22
	.loc 1 421 18 view .LVU192
	addl	$1, %edx
	movb	%dl, (%rax)
.LVL60:
.L23:
	.loc 1 421 18 view .LVU193
.LBE159:
.LBE158:
	.loc 1 511 49 is_stmt 1 view .LVU194
	.loc 1 511 41 view .LVU195
	.loc 1 511 11 is_stmt 0 view .LVU196
	subq	$1, %rcx
.LVL61:
	.loc 1 511 11 view .LVU197
	jne	.L25
.LVL62:
.L21:
	.loc 1 511 11 view .LVU198
.LBE157:
	.loc 1 514 11 is_stmt 1 discriminator 1 view .LVU199
.LBB162:
.LBI162:
	.loc 1 433 1 discriminator 1 view .LVU200
.LBB163:
	.loc 1 435 3 discriminator 1 view .LVU201
	.loc 1 435 6 is_stmt 0 discriminator 1 view .LVU202
	movq	(%rsp), %rax
	cmpq	%rax, %rbx
	jb	.L26
	.loc 1 435 6 discriminator 1 view .LVU203
	testb	%r15b, %r15b
	jne	.L26
	.loc 1 437 3 is_stmt 1 view .LVU204
	.loc 1 437 6 is_stmt 0 view .LVU205
	cmpq	%rax, %rbx
	ja	.L27
	.loc 1 439 3 is_stmt 1 view .LVU206
	.loc 1 439 11 is_stmt 0 view .LVU207
	movq	40(%rsp), %rsi
	movq	%rbx, %rdx
	movq	%r13, %rdi
	call	memcmp@PLT
.LVL63:
	.loc 1 439 11 view .LVU208
.LBE163:
.LBE162:
	.loc 1 514 21 view .LVU209
	testl	%eax, %eax
	jg	.L27
.L26:
	.loc 1 517 11 is_stmt 1 view .LVU210
	.loc 1 517 21 is_stmt 0 view .LVU211
	movq	separator(%rip), %rax
	.loc 1 517 16 view .LVU212
	leaq	1(%r14), %r9
.LVL64:
	.loc 1 517 21 view .LVU213
	movzbl	(%rax), %eax
	.loc 1 517 19 view .LVU214
	movb	%al, (%r14)
	.loc 1 520 11 is_stmt 1 view .LVU215
	.loc 1 520 14 is_stmt 0 view .LVU216
	cmpq	%rbx, %r12
	je	.L56
.LVL65:
.L28:
	.loc 1 536 11 is_stmt 1 view .LVU217
.LBB164:
.LBI164:
	.loc 2 45 1 view .LVU218
.LBB165:
	.loc 2 48 3 view .LVU219
	.loc 2 48 10 is_stmt 0 view .LVU220
	movq	%rbx, %rdx
	movq	%r13, %rsi
	movq	%r9, %rdi
	call	mempcpy@PLT
.LVL66:
	.loc 2 48 10 view .LVU221
	movq	%rax, %r14
.LVL67:
	.loc 2 48 10 view .LVU222
.LBE165:
.LBE164:
	.loc 1 539 11 is_stmt 1 view .LVU223
	.loc 1 539 23 is_stmt 0 view .LVU224
	movq	%rbx, %rax
.LVL68:
	.loc 1 539 23 view .LVU225
	notq	%rax
	addq	16(%rsp), %rax
	.loc 1 539 14 view .LVU226
	cmpq	%rax, %r14
	jbe	.L31
	.loc 1 541 15 is_stmt 1 view .LVU227
	.loc 1 541 19 is_stmt 0 view .LVU228
	movq	%r14, %rsi
	movq	stdout(%rip), %rcx
	movl	$1, %edx
	movq	%rbp, %rdi
	subq	%rbp, %rsi
	call	fwrite_unlocked@PLT
.LVL69:
	.loc 1 541 18 view .LVU229
	cmpq	$1, %rax
	jne	.L30
	movq	%rbp, %r14
.LVL70:
	.loc 1 541 18 view .LVU230
	jmp	.L31
.LVL71:
	.p2align 4,,10
	.p2align 3
.L55:
.LBB166:
.LBB161:
.LBB160:
	.loc 1 426 3 is_stmt 1 view .LVU231
	.loc 1 426 12 is_stmt 0 view .LVU232
	movb	$49, -1(%r13)
	.loc 1 427 3 is_stmt 1 view .LVU233
	addq	$1, %rbx
.LVL72:
	.loc 1 426 12 is_stmt 0 view .LVU234
	subq	$1, %r13
.LVL73:
	.loc 1 426 12 view .LVU235
	jmp	.L23
.LVL74:
.L27:
	.loc 1 426 12 view .LVU236
.LBE160:
.LBE161:
.LBE166:
	.loc 1 548 7 is_stmt 1 view .LVU237
	.loc 1 548 15 is_stmt 0 view .LVU238
	movb	$10, (%r14)
	.loc 1 549 7 is_stmt 1 view .LVU239
	.loc 1 548 12 is_stmt 0 view .LVU240
	leaq	1(%r14), %rsi
.LVL75:
	.loc 1 549 11 view .LVU241
	movl	$1, %edx
	movq	%rbp, %rdi
	movq	stdout(%rip), %rcx
	subq	%rbp, %rsi
.LVL76:
	.loc 1 549 11 view .LVU242
	call	fwrite_unlocked@PLT
.LVL77:
	.loc 1 549 10 view .LVU243
	subq	$1, %rax
	jne	.L30
	.loc 1 552 7 is_stmt 1 view .LVU244
	movq	%rbp, %rdi
.LBE150:
	.loc 1 493 8 is_stmt 0 view .LVU245
	movl	$1, %r12d
.LVL78:
.LBB172:
	.loc 1 552 7 view .LVU246
	call	free@PLT
.LVL79:
	jmp	.L20
.LVL80:
.L56:
	.loc 1 522 24 view .LVU247
	addq	%r12, %r12
.LVL81:
	.loc 1 523 20 view .LVU248
	movq	24(%rsp), %rdi
	movq	%r9, 56(%rsp)
	.loc 1 522 15 is_stmt 1 view .LVU249
.LVL82:
	.loc 1 523 15 view .LVU250
	.loc 1 523 20 is_stmt 0 view .LVU251
	leaq	1(%r12), %r14
	movq	%r14, %rsi
	.loc 1 526 45 view .LVU252
	addq	%r14, %r14
	.loc 1 523 20 view .LVU253
	call	xrealloc@PLT
.LVL83:
	.loc 1 524 19 view .LVU254
	leaq	1(%rbx), %rdx
	.loc 1 523 20 view .LVU255
	movq	%rax, %rsi
	.loc 1 524 31 view .LVU256
	leaq	(%rax,%rbx), %rdi
	.loc 1 523 20 view .LVU257
	movq	%rax, 24(%rsp)
.LVL84:
	.loc 1 524 15 is_stmt 1 view .LVU258
.LBB167:
.LBI167:
	.loc 2 38 1 view .LVU259
.LBB168:
	.loc 2 40 3 view .LVU260
	.loc 2 40 10 is_stmt 0 view .LVU261
	call	memmove@PLT
.LVL85:
	.loc 2 40 10 view .LVU262
.LBE168:
.LBE167:
	.loc 1 526 18 view .LVU263
	cmpq	48(%rsp), %r14
	movq	56(%rsp), %r9
.LBB170:
.LBB169:
	.loc 2 40 10 view .LVU264
	movq	%rax, %r13
.LVL86:
	.loc 2 40 10 view .LVU265
.LBE169:
.LBE170:
	.loc 1 526 15 is_stmt 1 view .LVU266
	.loc 1 526 18 is_stmt 0 view .LVU267
	jbe	.L28
.LBB171:
	.loc 1 528 19 is_stmt 1 view .LVU268
.LVL87:
	.loc 1 529 19 view .LVU269
	.loc 1 530 19 view .LVU270
	.loc 1 528 44 is_stmt 0 view .LVU271
	subq	%rbp, %r9
	.loc 1 530 25 view .LVU272
	movq	%rbp, %rdi
	movq	%r14, %rsi
	.loc 1 528 44 view .LVU273
	movq	%r9, 48(%rsp)
.LVL88:
	.loc 1 530 25 view .LVU274
	call	xrealloc@PLT
.LVL89:
	.loc 1 532 24 view .LVU275
	movq	48(%rsp), %r9
	movq	%r14, 48(%rsp)
	.loc 1 530 25 view .LVU276
	movq	%rax, %rbp
.LVL90:
	.loc 1 531 19 is_stmt 1 view .LVU277
	.loc 1 531 27 is_stmt 0 view .LVU278
	leaq	(%rax,%r14), %rax
.LVL91:
	.loc 1 531 27 view .LVU279
	movq	%rax, 16(%rsp)
.LVL92:
	.loc 1 532 19 is_stmt 1 view .LVU280
	.loc 1 532 24 is_stmt 0 view .LVU281
	addq	%rbp, %r9
.LVL93:
	.loc 1 532 24 view .LVU282
	jmp	.L28
.LVL94:
.L32:
	.loc 1 532 24 view .LVU283
.LBE171:
.LBE172:
.LBB173:
.LBB110:
	.loc 1 448 9 view .LVU284
	movq	%r9, %r12
	jmp	.L12
.LVL95:
.L33:
	.loc 1 448 9 view .LVU285
.LBE110:
.LBE173:
.LBB174:
.LBB115:
	movq	%r8, %rbp
	jmp	.L15
.LVL96:
.L30:
	.loc 1 448 9 view .LVU286
.LBE115:
.LBE174:
.LBB175:
	.loc 1 542 17 is_stmt 1 view .LVU287
	call	io_error
.LVL97:
.LBE175:
	.cfi_endproc
.LFE144:
	.size	seq_fast, .-seq_fast
	.section	.rodata.str1.1
.LC3:
	.string	"seq"
.LC4:
	.string	" invocation"
.LC5:
	.string	""
	.section	.rodata.str1.8,"aMS",@progbits,1
	.align 8
.LC6:
	.string	"Try '%s --help' for more information.\n"
	.align 8
.LC7:
	.string	"Usage: %s [OPTION]... LAST\n  or:  %s [OPTION]... FIRST LAST\n  or:  %s [OPTION]... FIRST INCREMENT LAST\n"
	.align 8
.LC8:
	.string	"Print numbers from FIRST to LAST, in steps of INCREMENT.\n"
	.align 8
.LC9:
	.string	"\nMandatory arguments to long options are mandatory for short options too.\n"
	.align 8
.LC10:
	.string	"  -f, --format=FORMAT      use printf style floating-point FORMAT\n  -s, --separator=STRING   use STRING to separate numbers (default: \\n)\n  -w, --equal-width        equalize width by padding with leading zeroes\n"
	.align 8
.LC11:
	.string	"      --help     display this help and exit\n"
	.align 8
.LC12:
	.string	"      --version  output version information and exit\n"
	.align 8
.LC13:
	.ascii	"\nIf FIRST or INCREMENT is omitted, it defaults to 1.  That "
	.ascii	"is, an\nomitted INCREMENT defaults to 1 even when LAST is sm"
	.ascii	"aller than FIRST.\nThe sequence of numbers ends when the sum"
	.ascii	" of the current number and\nINCREMENT would become greater t"
	.ascii	"han LAST.\nFIRST, INC"
	.string	"REMENT, and LAST are interpreted as floating point values.\nINCREMENT is usually positive if FIRST is smaller than LAST, and\nINCREMENT is usually negative if FIRST is greater than LAST.\nINCREMENT must not be 0; none of FIRST, INCREMENT and LAST may be NaN.\n"
	.align 8
.LC14:
	.string	"FORMAT must be suitable for printing one argument of type 'double';\nit defaults to %.PRECf if FIRST, INCREMENT, and LAST are all fixed point\ndecimal numbers with maximum precision PREC, and to %g otherwise.\n"
	.section	.rodata.str1.1
.LC15:
	.string	"["
.LC16:
	.string	"test invocation"
.LC17:
	.string	"coreutils"
.LC18:
	.string	"Multi-call invocation"
.LC19:
	.string	"sha224sum"
.LC20:
	.string	"sha2 utilities"
.LC21:
	.string	"sha256sum"
.LC22:
	.string	"sha384sum"
.LC23:
	.string	"sha512sum"
.LC24:
	.string	"\n%s online help: <%s>\n"
	.section	.rodata.str1.8
	.align 8
.LC25:
	.string	"https://www.gnu.org/software/coreutils/"
	.section	.rodata.str1.1
.LC26:
	.string	"GNU coreutils"
.LC27:
	.string	"en_"
	.section	.rodata.str1.8
	.align 8
.LC28:
	.string	"Report any translation bugs to <https://translationproject.org/team/>\n"
	.section	.rodata.str1.1
.LC29:
	.string	"Full documentation <%s%s>\n"
	.section	.rodata.str1.8
	.align 8
.LC30:
	.string	"or available locally via: info '(coreutils) %s%s'\n"
	.text
	.p2align 4
	.globl	usage
	.type	usage, @function
usage:
.LVL98:
.LFB135:
	.loc 1 75 1 view -0
	.cfi_startproc
	.loc 1 75 1 is_stmt 0 view .LVU289
	endbr64
	pushq	%r13
	.cfi_def_cfa_offset 16
	.cfi_offset 13, -16
	.loc 1 77 5 view .LVU290
	movl	$5, %edx
	.loc 1 75 1 view .LVU291
	pushq	%r12
	.cfi_def_cfa_offset 24
	.cfi_offset 12, -24
	pushq	%rbp
	.cfi_def_cfa_offset 32
	.cfi_offset 6, -32
	movl	%edi, %ebp
	pushq	%rbx
	.cfi_def_cfa_offset 40
	.cfi_offset 3, -40
	subq	$136, %rsp
	.cfi_def_cfa_offset 176
	movq	program_name(%rip), %r12
	.loc 1 75 1 view .LVU292
	movq	%fs:40, %rax
	movq	%rax, 120(%rsp)
	xorl	%eax, %eax
	.loc 1 76 3 is_stmt 1 view .LVU293
	.loc 1 76 6 is_stmt 0 view .LVU294
	testl	%edi, %edi
	je	.L58
	.loc 1 77 5 is_stmt 1 view .LVU295
	.loc 1 77 5 view .LVU296
	leaq	.LC6(%rip), %rsi
	xorl	%edi, %edi
.LVL99:
	.loc 1 77 5 is_stmt 0 view .LVU297
	call	dcgettext@PLT
.LVL100:
.LBB190:
.LBB191:
	.file 3 "/usr/include/x86_64-linux-gnu/bits/stdio2.h"
	.loc 3 100 10 view .LVU298
	movq	stderr(%rip), %rdi
	movq	%r12, %rcx
	movl	$1, %esi
.LBE191:
.LBE190:
	.loc 1 77 5 view .LVU299
	movq	%rax, %rdx
.LVL101:
.LBB193:
.LBI190:
	.loc 3 98 1 is_stmt 1 view .LVU300
.LBB192:
	.loc 3 100 3 view .LVU301
	.loc 3 100 10 is_stmt 0 view .LVU302
	xorl	%eax, %eax
.LVL102:
	.loc 3 100 10 view .LVU303
	call	__fprintf_chk@PLT
.LVL103:
.L59:
	.loc 3 100 10 view .LVU304
.LBE192:
.LBE193:
	.loc 1 116 3 is_stmt 1 view .LVU305
	movl	%ebp, %edi
	call	exit@PLT
.LVL104:
.L58:
	.loc 1 80 7 view .LVU306
	.loc 1 80 15 is_stmt 0 view .LVU307
	leaq	.LC7(%rip), %rsi
	xorl	%edi, %edi
.LVL105:
.LBB194:
.LBB195:
	.file 4 "src/system.h"
	.loc 4 636 67 view .LVU308
	leaq	.LC21(%rip), %rbx
.LBE195:
.LBE194:
	.loc 1 80 15 view .LVU309
	call	dcgettext@PLT
.LVL106:
.LBB221:
.LBB222:
	.loc 3 107 10 view .LVU310
	movq	%r12, %r8
	movq	%r12, %rcx
	movq	%r12, %rdx
.LBE222:
.LBE221:
	.loc 1 80 15 view .LVU311
	movq	%rax, %rsi
.LVL107:
.LBB224:
.LBI221:
	.loc 3 105 1 is_stmt 1 view .LVU312
.LBB223:
	.loc 3 107 3 view .LVU313
	.loc 3 107 10 is_stmt 0 view .LVU314
	movl	$1, %edi
	xorl	%eax, %eax
.LVL108:
	.loc 3 107 10 view .LVU315
	call	__printf_chk@PLT
.LVL109:
	.loc 3 107 10 view .LVU316
.LBE223:
.LBE224:
	.loc 1 85 7 is_stmt 1 view .LVU317
	movq	stdout(%rip), %r12
	movl	$5, %edx
	xorl	%edi, %edi
	leaq	.LC8(%rip), %rsi
	call	dcgettext@PLT
.LVL110:
	movq	%r12, %rsi
	movq	%rax, %rdi
	call	fputs_unlocked@PLT
.LVL111:
	.loc 1 89 7 view .LVU318
.LBB225:
.LBI225:
	.loc 4 588 1 view .LVU319
.LBB226:
	.loc 4 590 3 view .LVU320
	movq	stdout(%rip), %r12
	movl	$5, %edx
	xorl	%edi, %edi
	leaq	.LC9(%rip), %rsi
	call	dcgettext@PLT
.LVL112:
	movq	%r12, %rsi
	movq	%rax, %rdi
	call	fputs_unlocked@PLT
.LVL113:
.LBE226:
.LBE225:
	.loc 1 91 7 view .LVU321
	movq	stdout(%rip), %r12
	movl	$5, %edx
	xorl	%edi, %edi
	leaq	.LC10(%rip), %rsi
	call	dcgettext@PLT
.LVL114:
	movq	%r12, %rsi
	movq	%rax, %rdi
	call	fputs_unlocked@PLT
.LVL115:
	.loc 1 96 7 view .LVU322
	movq	stdout(%rip), %r12
	movl	$5, %edx
	xorl	%edi, %edi
	leaq	.LC11(%rip), %rsi
	call	dcgettext@PLT
.LVL116:
	movq	%r12, %rsi
	movq	%rax, %rdi
	call	fputs_unlocked@PLT
.LVL117:
	.loc 1 97 7 view .LVU323
	movq	stdout(%rip), %r12
	movl	$5, %edx
	xorl	%edi, %edi
	leaq	.LC12(%rip), %rsi
	call	dcgettext@PLT
.LVL118:
	movq	%r12, %rsi
	movq	%rax, %rdi
	call	fputs_unlocked@PLT
.LVL119:
	.loc 1 98 7 view .LVU324
	movq	stdout(%rip), %r12
	movl	$5, %edx
	xorl	%edi, %edi
	leaq	.LC13(%rip), %rsi
	call	dcgettext@PLT
.LVL120:
	movq	%r12, %rsi
	movq	%rax, %rdi
	call	fputs_unlocked@PLT
.LVL121:
	.loc 1 109 7 view .LVU325
	movq	stdout(%rip), %r12
	movl	$5, %edx
	xorl	%edi, %edi
	leaq	.LC14(%rip), %rsi
	call	dcgettext@PLT
.LVL122:
	movq	%r12, %rsi
	movq	%rax, %rdi
	call	fputs_unlocked@PLT
.LVL123:
	.loc 1 114 7 view .LVU326
.LBB227:
.LBI194:
	.loc 4 634 1 view .LVU327
.LBB220:
	.loc 4 636 3 view .LVU328
	.loc 4 636 67 is_stmt 0 view .LVU329
	leaq	.LC15(%rip), %rax
	movq	%rbx, 48(%rsp)
	leaq	.LC22(%rip), %rbx
	movq	%rax, (%rsp)
	leaq	.LC16(%rip), %rax
	movq	%rax, 8(%rsp)
	leaq	.LC17(%rip), %rax
	movq	%rax, 16(%rsp)
	leaq	.LC18(%rip), %rax
	movq	%rax, 24(%rsp)
	leaq	.LC19(%rip), %rax
	movq	$0, 96(%rsp)
	movq	$0, 104(%rsp)
	.loc 4 646 3 is_stmt 1 view .LVU330
.LVL124:
	.loc 4 647 3 view .LVU331
	.loc 4 649 3 view .LVU332
	.loc 4 649 9 view .LVU333
	.loc 4 636 67 is_stmt 0 view .LVU334
	movq	%rax, 32(%rsp)
	leaq	.LC20(%rip), %rax
	movq	%rbx, 64(%rsp)
	leaq	.LC23(%rip), %rbx
	movq	%rax, 40(%rsp)
	movq	%rax, 56(%rsp)
	movq	%rax, 72(%rsp)
	movq	%rbx, 80(%rsp)
	leaq	.LC3(%rip), %rbx
	movq	%rax, 88(%rsp)
	.loc 4 647 25 view .LVU335
	movq	%rsp, %rax
.LVL125:
	.p2align 4,,10
	.p2align 3
.L61:
	.loc 4 650 5 is_stmt 1 view .LVU336
	.loc 4 649 18 is_stmt 0 view .LVU337
	movq	16(%rax), %rdi
	.loc 4 650 13 view .LVU338
	addq	$16, %rax
.LVL126:
	.loc 4 649 9 is_stmt 1 view .LVU339
	testq	%rdi, %rdi
	je	.L60
	.loc 4 649 33 is_stmt 0 view .LVU340
	movl	$4, %ecx
	movq	%rbx, %rsi
	repz cmpsb
	seta	%dl
	sbbb	$0, %dl
	.loc 4 649 28 view .LVU341
	testb	%dl, %dl
	jne	.L61
.L60:
	.loc 4 652 3 is_stmt 1 view .LVU342
	.loc 4 652 15 is_stmt 0 view .LVU343
	movq	8(%rax), %r12
	.loc 4 655 11 view .LVU344
	movl	$5, %edx
	leaq	.LC24(%rip), %rsi
	xorl	%edi, %edi
	.loc 4 652 6 view .LVU345
	testq	%r12, %r12
	je	.L62
	.loc 4 653 5 is_stmt 1 view .LVU346
.LVL127:
	.loc 4 655 3 view .LVU347
	.loc 4 655 11 is_stmt 0 view .LVU348
	call	dcgettext@PLT
.LVL128:
.LBB196:
.LBB197:
	.loc 3 107 10 view .LVU349
	leaq	.LC25(%rip), %rcx
	movl	$1, %edi
	leaq	.LC26(%rip), %rdx
.LBE197:
.LBE196:
	.loc 4 655 11 view .LVU350
	movq	%rax, %rsi
.LVL129:
.LBB201:
.LBI196:
	.loc 3 105 1 is_stmt 1 view .LVU351
.LBB198:
	.loc 3 107 3 view .LVU352
	.loc 3 107 10 is_stmt 0 view .LVU353
	xorl	%eax, %eax
.LVL130:
	.loc 3 107 10 view .LVU354
	call	__printf_chk@PLT
.LVL131:
	.loc 3 107 10 view .LVU355
.LBE198:
.LBE201:
	.loc 4 659 3 is_stmt 1 view .LVU356
	.loc 4 659 29 is_stmt 0 view .LVU357
	movl	$5, %edi
	xorl	%esi, %esi
	call	setlocale@PLT
.LVL132:
	movq	%rax, %rdi
.LVL133:
	.loc 4 660 3 is_stmt 1 view .LVU358
	.loc 4 660 6 is_stmt 0 view .LVU359
	testq	%rax, %rax
	je	.L63
	.loc 4 660 22 view .LVU360
	movl	$3, %edx
	leaq	.LC27(%rip), %rsi
	call	strncmp@PLT
.LVL134:
	.loc 4 660 19 view .LVU361
	testl	%eax, %eax
	jne	.L66
.LVL135:
.L63:
	.loc 4 669 3 is_stmt 1 view .LVU362
	.loc 4 669 11 is_stmt 0 view .LVU363
	xorl	%edi, %edi
	movl	$5, %edx
	leaq	.LC29(%rip), %rsi
	call	dcgettext@PLT
.LVL136:
.LBB202:
.LBB203:
	.loc 3 107 10 view .LVU364
	leaq	.LC3(%rip), %rcx
	leaq	.LC25(%rip), %rdx
	movl	$1, %edi
.LBE203:
.LBE202:
	.loc 4 669 11 view .LVU365
	movq	%rax, %rsi
.LVL137:
.LBB209:
.LBI202:
	.loc 3 105 1 is_stmt 1 view .LVU366
.LBB204:
	.loc 3 107 3 view .LVU367
	.loc 3 107 10 is_stmt 0 view .LVU368
	xorl	%eax, %eax
.LVL138:
	.loc 3 107 10 view .LVU369
.LBE204:
.LBE209:
	.loc 4 671 3 view .LVU370
	leaq	.LC4(%rip), %r13
.LBB210:
.LBB205:
	.loc 3 107 10 view .LVU371
	call	__printf_chk@PLT
.LVL139:
	.loc 3 107 10 view .LVU372
.LBE205:
.LBE210:
	.loc 4 671 3 is_stmt 1 view .LVU373
	cmpq	%rbx, %r12
	leaq	.LC5(%rip), %rcx
	cmovne	%rcx, %r13
.L64:
	.loc 4 671 11 is_stmt 0 view .LVU374
	xorl	%edi, %edi
	leaq	.LC30(%rip), %rsi
	movl	$5, %edx
	call	dcgettext@PLT
.LVL140:
.LBB211:
.LBB212:
	.loc 3 107 10 view .LVU375
	movq	%r13, %rcx
	movq	%r12, %rdx
	movl	$1, %edi
.LBE212:
.LBE211:
	.loc 4 671 11 view .LVU376
	movq	%rax, %rsi
.LVL141:
.LBB214:
.LBI211:
	.loc 3 105 1 is_stmt 1 view .LVU377
.LBB213:
	.loc 3 107 3 view .LVU378
	.loc 3 107 10 is_stmt 0 view .LVU379
	xorl	%eax, %eax
.LVL142:
	.loc 3 107 10 view .LVU380
	call	__printf_chk@PLT
.LVL143:
	.loc 3 107 10 view .LVU381
.LBE213:
.LBE214:
	.loc 4 673 1 view .LVU382
	jmp	.L59
.LVL144:
.L62:
	.loc 4 655 3 is_stmt 1 view .LVU383
	.loc 4 655 11 is_stmt 0 view .LVU384
	call	dcgettext@PLT
.LVL145:
.LBB215:
.LBB199:
	.loc 3 107 10 view .LVU385
	leaq	.LC25(%rip), %rcx
	movl	$1, %edi
	leaq	.LC26(%rip), %rdx
.LBE199:
.LBE215:
	.loc 4 655 11 view .LVU386
	movq	%rax, %rsi
.LVL146:
.LBB216:
	.loc 3 105 1 is_stmt 1 view .LVU387
.LBB200:
	.loc 3 107 3 view .LVU388
	.loc 3 107 10 is_stmt 0 view .LVU389
	xorl	%eax, %eax
.LVL147:
	.loc 3 107 10 view .LVU390
	call	__printf_chk@PLT
.LVL148:
	.loc 3 107 10 view .LVU391
.LBE200:
.LBE216:
	.loc 4 659 3 is_stmt 1 view .LVU392
	.loc 4 659 29 is_stmt 0 view .LVU393
	movl	$5, %edi
	xorl	%esi, %esi
	call	setlocale@PLT
.LVL149:
	movq	%rax, %rdi
.LVL150:
	.loc 4 660 3 is_stmt 1 view .LVU394
	.loc 4 660 6 is_stmt 0 view .LVU395
	testq	%rax, %rax
	je	.L65
	.loc 4 660 22 view .LVU396
	movl	$3, %edx
	leaq	.LC27(%rip), %rsi
	call	strncmp@PLT
.LVL151:
	.loc 4 660 19 view .LVU397
	testl	%eax, %eax
	jne	.L84
.L65:
	.loc 4 669 3 is_stmt 1 view .LVU398
	.loc 4 669 11 is_stmt 0 view .LVU399
	movl	$5, %edx
	leaq	.LC29(%rip), %rsi
	xorl	%edi, %edi
	call	dcgettext@PLT
.LVL152:
.LBB217:
.LBB206:
	.loc 3 107 10 view .LVU400
	leaq	.LC3(%rip), %rcx
	leaq	.LC25(%rip), %rdx
	movl	$1, %edi
.LBE206:
.LBE217:
	.loc 4 669 11 view .LVU401
	movq	%rax, %rsi
.LVL153:
.LBB218:
	.loc 3 105 1 is_stmt 1 view .LVU402
.LBB207:
	.loc 3 107 3 view .LVU403
	.loc 3 107 10 is_stmt 0 view .LVU404
	xorl	%eax, %eax
.LVL154:
	.loc 3 107 10 view .LVU405
.LBE207:
.LBE218:
	.loc 4 646 15 view .LVU406
	leaq	.LC3(%rip), %r12
.LBB219:
.LBB208:
	.loc 3 107 10 view .LVU407
	call	__printf_chk@PLT
.LVL155:
	.loc 3 107 10 view .LVU408
.LBE208:
.LBE219:
	.loc 4 671 3 is_stmt 1 view .LVU409
	leaq	.LC4(%rip), %r13
	jmp	.L64
.L84:
	.loc 4 646 15 is_stmt 0 view .LVU410
	leaq	.LC3(%rip), %r12
.LVL156:
.L66:
	.loc 4 666 7 is_stmt 1 view .LVU411
	movq	stdout(%rip), %r13
	xorl	%edi, %edi
	movl	$5, %edx
	leaq	.LC28(%rip), %rsi
	call	dcgettext@PLT
.LVL157:
	movq	%rax, %rdi
	movq	%r13, %rsi
	call	fputs_unlocked@PLT
.LVL158:
	jmp	.L63
.LBE220:
.LBE227:
	.cfi_endproc
.LFE135:
	.size	usage, .-usage
	.section	.rodata.str1.8
	.align 8
.LC31:
	.string	"invalid floating point argument: %s"
	.section	.rodata.str1.1
.LC32:
	.string	"not-a-number"
.LC33:
	.string	"invalid %s argument: %s"
.LC34:
	.string	"xX"
.LC36:
	.string	"eE"
	.text
	.p2align 4
	.type	scan_arg, @function
scan_arg:
.LVL159:
.LFB136:
	.loc 1 150 1 view -0
	.cfi_startproc
	.loc 1 150 1 is_stmt 0 view .LVU413
	pushq	%r15
	.cfi_def_cfa_offset 16
	.cfi_offset 15, -16
	pushq	%r14
	.cfi_def_cfa_offset 24
	.cfi_offset 14, -24
	pushq	%r13
	.cfi_def_cfa_offset 32
	.cfi_offset 13, -32
	pushq	%r12
	.cfi_def_cfa_offset 40
	.cfi_offset 12, -40
	movq	%rdi, %r12
	pushq	%rbp
	.cfi_def_cfa_offset 48
	.cfi_offset 6, -48
	movq	%rsi, %rbp
	.loc 1 153 9 view .LVU414
	xorl	%esi, %esi
.LVL160:
	.loc 1 150 1 view .LVU415
	pushq	%rbx
	.cfi_def_cfa_offset 56
	.cfi_offset 3, -56
	.loc 1 153 9 view .LVU416
	movq	%rbp, %rdi
.LVL161:
	.loc 1 150 1 view .LVU417
	subq	$72, %rsp
	.cfi_def_cfa_offset 128
	.loc 1 153 9 view .LVU418
	movq	cl_strtold@GOTPCREL(%rip), %rcx
	.loc 1 150 1 view .LVU419
	movq	%fs:40, %rax
	movq	%rax, 56(%rsp)
	xorl	%eax, %eax
	.loc 1 151 3 is_stmt 1 view .LVU420
	.loc 1 153 3 view .LVU421
	.loc 1 153 9 is_stmt 0 view .LVU422
	leaq	16(%rsp), %rdx
	call	xstrtold@PLT
.LVL162:
	.loc 1 153 6 view .LVU423
	testb	%al, %al
	je	.L126
	.loc 1 159 3 is_stmt 1 view .LVU424
	.loc 1 159 7 is_stmt 0 view .LVU425
	fldt	16(%rsp)
	fld	%st(0)
	fstpt	(%rsp)
	.loc 1 159 6 view .LVU426
	fucomip	%st(0), %st
	jp	.L87
	jne	.L87
	.loc 1 167 10 view .LVU427
	call	__ctype_b_loc@PLT
.LVL163:
	movq	(%rax), %rcx
	jmp	.L88
	.p2align 4,,10
	.p2align 3
.L89:
	.loc 1 168 5 is_stmt 1 view .LVU428
	.loc 1 168 8 is_stmt 0 view .LVU429
	addq	$1, %rbp
.LVL164:
.L88:
	.loc 1 167 9 is_stmt 1 view .LVU430
	.loc 1 167 10 is_stmt 0 view .LVU431
	movzbl	0(%rbp), %edx
.LVL165:
.LBB228:
.LBI228:
	.loc 4 156 29 is_stmt 1 view .LVU432
.LBB229:
	.loc 4 156 50 view .LVU433
	.loc 4 156 50 is_stmt 0 view .LVU434
.LBE229:
.LBE228:
	.loc 1 167 36 view .LVU435
	testb	$32, 1(%rcx,%rdx,2)
	jne	.L89
	.loc 1 167 36 view .LVU436
	cmpb	$43, %dl
	je	.L89
	.loc 1 171 3 is_stmt 1 view .LVU437
	.loc 1 175 31 is_stmt 0 view .LVU438
	movl	$46, %esi
	movq	%rbp, %rdi
	.loc 1 171 13 view .LVU439
	movq	$0, 32(%rsp)
	.loc 1 172 3 is_stmt 1 view .LVU440
	.loc 1 172 17 is_stmt 0 view .LVU441
	movl	$2147483647, 40(%rsp)
	.loc 1 175 3 is_stmt 1 view .LVU442
	.loc 1 175 31 is_stmt 0 view .LVU443
	call	strchr@PLT
.LVL166:
	movq	%rax, %rbx
.LVL167:
	.loc 1 176 3 is_stmt 1 view .LVU444
	.loc 1 176 6 is_stmt 0 view .LVU445
	testq	%rax, %rax
	je	.L127
.LVL168:
.L90:
	.loc 1 180 3 is_stmt 1 view .LVU446
	.loc 1 180 13 is_stmt 0 view .LVU447
	leaq	.LC34(%rip), %rsi
	movq	%rbp, %rdi
	call	strcspn@PLT
.LVL169:
	.loc 1 180 6 view .LVU448
	cmpb	$0, 0(%rbp,%rax)
	jne	.L92
	.loc 1 180 37 discriminator 1 view .LVU449
	fldz
	fldt	(%rsp)
	fmul	%st(1), %st
	.loc 1 180 34 discriminator 1 view .LVU450
	fucomip	%st(1), %st
	fstp	%st(0)
	jp	.L92
	jne	.L92
.LBB230:
	.loc 1 182 7 is_stmt 1 view .LVU451
.LVL170:
	.loc 1 183 7 view .LVU452
	.loc 1 183 19 is_stmt 0 view .LVU453
	xorl	%eax, %eax
	orq	$-1, %rcx
	movq	%rbp, %rdi
	repnz scasb
.LVL171:
	.loc 1 183 19 view .LVU454
	movq	%rcx, %rax
	notq	%rax
	leaq	-1(%rax), %r13
	.loc 1 183 17 view .LVU455
	movq	%r13, 32(%rsp)
	.loc 1 185 7 is_stmt 1 view .LVU456
	.loc 1 185 10 is_stmt 0 view .LVU457
	testq	%rbx, %rbx
	je	.L114
	.loc 1 187 11 is_stmt 1 view .LVU458
	.loc 1 187 26 is_stmt 0 view .LVU459
	leaq	1(%rbx), %rdi
	leaq	.LC36(%rip), %rsi
	call	strcspn@PLT
.LVL172:
	movq	%rax, %r14
.LVL173:
	.loc 1 188 11 is_stmt 1 view .LVU460
	.loc 1 188 14 is_stmt 0 view .LVU461
	cmpq	$2147483647, %rax
	jbe	.L96
.L99:
	.loc 1 193 28 view .LVU462
	cmpq	%rbx, %rbp
	je	.L128
	.loc 1 193 33 discriminator 2 view .LVU463
	movsbl	-1(%rbx), %eax
.LVL174:
	.loc 1 193 33 discriminator 2 view .LVU464
	subl	$48, %eax
	.loc 1 193 28 discriminator 2 view .LVU465
	cmpl	$9, %eax
	seta	%al
	movzbl	%al, %eax
.L100:
	.loc 1 190 21 view .LVU466
	addq	%rax, %r13
	movq	%r13, 32(%rsp)
.LVL175:
.L95:
	.loc 1 195 7 is_stmt 1 view .LVU467
	.loc 1 195 23 is_stmt 0 view .LVU468
	movl	$101, %esi
	movq	%rbp, %rdi
	call	strchr@PLT
.LVL176:
	movq	%rax, %r13
.LVL177:
	.loc 1 196 7 is_stmt 1 view .LVU469
	.loc 1 196 10 is_stmt 0 view .LVU470
	testq	%rax, %rax
	je	.L129
.L101:
.LBB231:
	.loc 1 200 11 is_stmt 1 view .LVU471
	.loc 1 200 27 is_stmt 0 view .LVU472
	leaq	1(%r13), %rdi
	xorl	%esi, %esi
	movl	$10, %edx
	movq	%r13, %r15
	movq	%rdi, (%rsp)
	subq	%rbp, %r15
	call	strtol@PLT
.LVL178:
	.loc 1 200 27 view .LVU473
	movq	(%rsp), %rdi
	movq	%rax, %r8
	movabsq	$-9223372036854775806, %rax
	cmpq	%rax, %r8
	jge	.L102
.LVL179:
	.loc 1 201 11 is_stmt 1 view .LVU474
	.loc 1 200 27 is_stmt 0 view .LVU475
	movabsq	$-9223372036854775807, %rdx
	.loc 1 201 25 view .LVU476
	movl	40(%rsp), %eax
.LVL180:
.L103:
	.loc 1 201 25 discriminator 1 view .LVU477
	subl	%edx, %eax
	.loc 1 204 24 discriminator 1 view .LVU478
	orq	$-1, %rcx
	movq	%rbp, %rdi
	.loc 1 204 21 discriminator 1 view .LVU479
	addq	32(%rsp), %r15
	.loc 1 201 25 discriminator 1 view .LVU480
	movl	%eax, 40(%rsp)
	.loc 1 204 11 is_stmt 1 discriminator 1 view .LVU481
	.loc 1 204 24 is_stmt 0 discriminator 1 view .LVU482
	xorl	%eax, %eax
	repnz scasb
	.loc 1 204 21 discriminator 1 view .LVU483
	leaq	2(%rcx,%r15), %rax
	.loc 1 206 11 is_stmt 1 discriminator 1 view .LVU484
	.loc 1 208 15 discriminator 1 view .LVU485
	.loc 1 208 18 is_stmt 0 discriminator 1 view .LVU486
	testq	%rbx, %rbx
	je	.L130
	.loc 1 210 19 is_stmt 1 view .LVU487
	.loc 1 210 42 is_stmt 0 view .LVU488
	addq	$1, %rbx
.LVL181:
	.loc 1 204 21 view .LVU489
	leaq	1(%rax), %rcx
	cmpq	%rbx, %r13
	cmove	%rcx, %rax
	movq	%rax, 32(%rsp)
.LVL182:
.L111:
	.loc 1 215 15 is_stmt 1 view .LVU490
	.loc 1 215 24 is_stmt 0 view .LVU491
	movq	%rdx, %rax
	negq	%rax
.LVL183:
.L112:
	.loc 1 223 11 is_stmt 1 view .LVU492
	.loc 1 223 21 is_stmt 0 view .LVU493
	addq	%rax, 32(%rsp)
.LVL184:
	.p2align 4,,10
	.p2align 3
.L92:
	.loc 1 223 21 view .LVU494
.LBE231:
.LBE230:
	.loc 1 227 3 is_stmt 1 view .LVU495
	.loc 1 227 10 is_stmt 0 view .LVU496
	movdqa	16(%rsp), %xmm0
	movdqa	32(%rsp), %xmm1
	movaps	%xmm0, (%r12)
	movaps	%xmm1, 16(%r12)
	.loc 1 228 1 view .LVU497
	movq	56(%rsp), %rax
	xorq	%fs:40, %rax
	jne	.L131
	addq	$72, %rsp
	.cfi_remember_state
	.cfi_def_cfa_offset 56
	movq	%r12, %rax
	popq	%rbx
	.cfi_def_cfa_offset 48
	popq	%rbp
	.cfi_def_cfa_offset 40
	popq	%r12
	.cfi_def_cfa_offset 32
.LVL185:
	.loc 1 228 1 view .LVU498
	popq	%r13
	.cfi_def_cfa_offset 24
	popq	%r14
	.cfi_def_cfa_offset 16
	popq	%r15
	.cfi_def_cfa_offset 8
	ret
.LVL186:
.L127:
	.cfi_restore_state
	.loc 1 176 28 discriminator 1 view .LVU499
	movl	$112, %esi
	movq	%rbp, %rdi
	call	strchr@PLT
.LVL187:
	.loc 1 176 23 discriminator 1 view .LVU500
	testq	%rax, %rax
	jne	.L90
	.loc 1 177 5 is_stmt 1 view .LVU501
	.loc 1 177 19 is_stmt 0 view .LVU502
	movl	$0, 40(%rsp)
	jmp	.L90
.LVL188:
.L114:
.LBB234:
	.loc 1 182 14 view .LVU503
	xorl	%r14d, %r14d
	jmp	.L95
.LVL189:
.L129:
	.loc 1 197 9 is_stmt 1 view .LVU504
	.loc 1 197 13 is_stmt 0 view .LVU505
	movl	$69, %esi
	movq	%rbp, %rdi
	call	strchr@PLT
.LVL190:
	.loc 1 197 13 view .LVU506
	movq	%rax, %r13
.LVL191:
	.loc 1 198 7 is_stmt 1 view .LVU507
	.loc 1 198 10 is_stmt 0 view .LVU508
	testq	%rax, %rax
	je	.L92
	jmp	.L101
.LVL192:
.L96:
	.loc 1 189 13 is_stmt 1 view .LVU509
	.loc 1 189 27 is_stmt 0 view .LVU510
	movl	%eax, 40(%rsp)
	.loc 1 190 11 is_stmt 1 view .LVU511
	.loc 1 192 25 is_stmt 0 view .LVU512
	testq	%rax, %rax
	jne	.L99
	orq	$-1, %rax
.LVL193:
	.loc 1 192 25 view .LVU513
	jmp	.L100
.LVL194:
.L102:
.LBB232:
	.loc 1 200 27 discriminator 1 view .LVU514
	movl	$10, %edx
	xorl	%esi, %esi
	call	strtol@PLT
.LVL195:
	.loc 1 201 25 discriminator 1 view .LVU515
	movl	40(%rsp), %ecx
	.loc 1 200 27 discriminator 1 view .LVU516
	movq	%rax, %rdx
.LVL196:
	.loc 1 201 11 is_stmt 1 discriminator 1 view .LVU517
	.loc 1 201 25 is_stmt 0 discriminator 1 view .LVU518
	movl	%ecx, %eax
.LVL197:
	.loc 1 201 25 discriminator 1 view .LVU519
	testq	%rdx, %rdx
	js	.L103
	.loc 1 202 45 discriminator 2 view .LVU520
	movslq	%ecx, %rax
	.loc 1 204 24 discriminator 2 view .LVU521
	movq	%rbp, %rdi
	.loc 1 202 45 discriminator 2 view .LVU522
	cmpq	%rdx, %rax
	cmovg	%rdx, %rax
	.loc 1 204 21 discriminator 2 view .LVU523
	addq	32(%rsp), %r15
	.loc 1 201 25 discriminator 2 view .LVU524
	subl	%eax, %ecx
	.loc 1 204 24 discriminator 2 view .LVU525
	xorl	%eax, %eax
	.loc 1 201 25 discriminator 2 view .LVU526
	movl	%ecx, 40(%rsp)
	.loc 1 204 11 is_stmt 1 discriminator 2 view .LVU527
	.loc 1 201 25 is_stmt 0 discriminator 2 view .LVU528
	movl	%ecx, %r8d
	.loc 1 204 24 discriminator 2 view .LVU529
	orq	$-1, %rcx
	repnz scasb
	.loc 1 219 55 discriminator 2 view .LVU530
	testq	%r14, %r14
	setne	%sil
	.loc 1 219 18 discriminator 2 view .LVU531
	testq	%rbx, %rbx
	.loc 1 204 21 discriminator 2 view .LVU532
	leaq	2(%rcx,%r15), %rax
	.loc 1 219 18 discriminator 2 view .LVU533
	setne	%cl
	.loc 1 204 21 discriminator 2 view .LVU534
	movq	%rax, 32(%rsp)
	.loc 1 206 11 is_stmt 1 discriminator 2 view .LVU535
	.loc 1 219 15 discriminator 2 view .LVU536
	.loc 1 219 55 is_stmt 0 discriminator 2 view .LVU537
	testb	%cl, %sil
	je	.L109
	testl	%r8d, %r8d
	je	.L132
.L109:
	.loc 1 221 15 is_stmt 1 view .LVU538
	.loc 1 221 27 is_stmt 0 view .LVU539
	cmpq	%r14, %rdx
	.loc 1 221 24 view .LVU540
	movq	%rdx, %rax
	.loc 1 221 27 view .LVU541
	cmovbe	%rdx, %r14
.LVL198:
	.loc 1 221 24 view .LVU542
	subq	%r14, %rax
.LVL199:
	.loc 1 221 24 view .LVU543
	jmp	.L112
.LVL200:
.L128:
	.loc 1 221 24 view .LVU544
.LBE232:
	.loc 1 193 28 view .LVU545
	movl	$1, %eax
.LVL201:
	.loc 1 193 28 view .LVU546
	jmp	.L100
.LVL202:
.L130:
.LBB233:
	.loc 1 214 17 is_stmt 1 view .LVU547
	.loc 1 214 26 is_stmt 0 view .LVU548
	addq	$1, %rax
	movq	%rax, 32(%rsp)
	jmp	.L111
.LVL203:
.L132:
	.loc 1 220 17 is_stmt 1 view .LVU549
	.loc 1 220 26 is_stmt 0 view .LVU550
	subq	$1, %rax
	movq	%rax, 32(%rsp)
	jmp	.L109
.LVL204:
.L131:
	.loc 1 220 26 view .LVU551
.LBE233:
.LBE234:
	.loc 1 228 1 view .LVU552
	call	__stack_chk_fail@PLT
.LVL205:
.L87:
	.loc 1 161 7 is_stmt 1 view .LVU553
	movq	%rbp, %rsi
	movl	$1, %edi
	call	quote_n@PLT
.LVL206:
	leaq	.LC32(%rip), %rsi
	xorl	%edi, %edi
	movq	%rax, %rbx
	call	quote_n@PLT
.LVL207:
	.loc 1 161 20 is_stmt 0 view .LVU554
	movl	$5, %edx
	leaq	.LC33(%rip), %rsi
	xorl	%edi, %edi
	.loc 1 161 7 view .LVU555
	movq	%rax, %r12
.LVL208:
	.loc 1 161 20 view .LVU556
	call	dcgettext@PLT
.LVL209:
	.loc 1 161 7 view .LVU557
	xorl	%edi, %edi
	movq	%rbx, %r8
	movq	%r12, %rcx
	.loc 1 161 20 view .LVU558
	movq	%rax, %rdx
	.loc 1 161 7 view .LVU559
	xorl	%esi, %esi
	xorl	%eax, %eax
	call	error@PLT
.LVL210:
	.loc 1 163 7 is_stmt 1 view .LVU560
	movl	$1, %edi
	call	usage
.LVL211:
.L126:
	.loc 1 155 7 view .LVU561
	movq	%rbp, %rdi
	call	quote@PLT
.LVL212:
	.loc 1 155 20 is_stmt 0 view .LVU562
	movl	$5, %edx
	leaq	.LC31(%rip), %rsi
	xorl	%edi, %edi
	.loc 1 155 7 view .LVU563
	movq	%rax, %r12
.LVL213:
	.loc 1 155 20 view .LVU564
	call	dcgettext@PLT
.LVL214:
	.loc 1 155 7 view .LVU565
	xorl	%edi, %edi
	movq	%r12, %rcx
	xorl	%esi, %esi
	.loc 1 155 20 view .LVU566
	movq	%rax, %rdx
	.loc 1 155 7 view .LVU567
	xorl	%eax, %eax
	call	error@PLT
.LVL215:
	.loc 1 156 7 is_stmt 1 view .LVU568
	movl	$1, %edi
	call	usage
.LVL216:
	.cfi_endproc
.LFE136:
	.size	scan_arg, .-scan_arg
	.section	.rodata.str1.1
.LC38:
	.string	"1"
.LC40:
	.string	"%Lg"
.LC41:
	.string	"/usr/local/share/locale"
.LC42:
	.string	"\n"
.LC43:
	.string	"+f:s:w"
.LC44:
	.string	"Ulrich Drepper"
.LC45:
	.string	"missing operand"
.LC46:
	.string	"extra operand %s"
.LC47:
	.string	"format %s has no %% directive"
.LC48:
	.string	"-+#0 '"
.LC49:
	.string	"format %s ends in %%"
.LC50:
	.string	"efgaEFGA"
	.section	.rodata.str1.8
	.align 8
.LC51:
	.string	"format %s has unknown %%%c directive"
	.align 8
.LC52:
	.string	"format %s has too many %% directives"
	.align 8
.LC53:
	.string	"format string may not be specified when printing equal width strings"
	.align 8
.LC56:
	.string	"invalid Zero increment value: %s"
	.section	.rodata.str1.1
.LC57:
	.string	"%0.Lf"
.LC58:
	.string	"%%0%d.%dLf"
.LC59:
	.string	"%%.%dLf"
.LC60:
	.string	"C"
	.section	.text.startup,"ax",@progbits
	.p2align 4
	.globl	main
	.type	main, @function
main:
.LVL217:
.LFB146:
	.loc 1 570 1 view -0
	.cfi_startproc
	.loc 1 570 1 is_stmt 0 view .LVU570
	endbr64
	pushq	%r15
	.cfi_def_cfa_offset 16
	.cfi_offset 15, -16
	.loc 1 573 11 view .LVU571
	fld1
	.loc 1 570 1 view .LVU572
	pushq	%r14
	.cfi_def_cfa_offset 24
	.cfi_offset 14, -24
	movq	%rsi, %r14
	pushq	%r13
	.cfi_def_cfa_offset 32
	.cfi_offset 13, -32
	pushq	%r12
	.cfi_def_cfa_offset 40
	.cfi_offset 12, -40
	pushq	%rbp
	.cfi_def_cfa_offset 48
	.cfi_offset 6, -48
	pushq	%rbx
	.cfi_def_cfa_offset 56
	.cfi_offset 3, -56
	movl	%edi, %ebx
	subq	$248, %rsp
	.cfi_def_cfa_offset 304
	.loc 1 581 3 view .LVU573
	movq	(%rsi), %rdi
.LVL218:
	.loc 1 570 1 view .LVU574
	movq	%fs:40, %rax
	movq	%rax, 232(%rsp)
	xorl	%eax, %eax
	.loc 1 571 3 is_stmt 1 view .LVU575
	.loc 1 572 3 view .LVU576
.LVL219:
	.loc 1 573 3 view .LVU577
	.loc 1 573 11 is_stmt 0 view .LVU578
	fstpt	160(%rsp)
	movq	$1, 176(%rsp)
	movl	$0, 184(%rsp)
	.loc 1 574 3 is_stmt 1 view .LVU579
	.loc 1 575 3 view .LVU580
.LVL220:
	.loc 1 578 3 view .LVU581
	.loc 1 580 33 view .LVU582
	.loc 1 581 3 view .LVU583
	call	set_program_name@PLT
.LVL221:
	.loc 1 582 3 view .LVU584
	.loc 1 582 17 is_stmt 0 view .LVU585
	leaq	.LC5(%rip), %rsi
	movl	$6, %edi
	call	setlocale@PLT
.LVL222:
	.loc 1 583 3 view .LVU586
	leaq	.LC41(%rip), %rsi
	leaq	.LC17(%rip), %rdi
	.loc 1 582 15 view .LVU587
	testq	%rax, %rax
	.loc 1 582 13 view .LVU588
	setne	locale_ok(%rip)
	.loc 1 583 3 is_stmt 1 view .LVU589
	.loc 1 578 15 is_stmt 0 view .LVU590
	xorl	%ebp, %ebp
	.loc 1 583 3 view .LVU591
	call	bindtextdomain@PLT
.LVL223:
	.loc 1 584 3 is_stmt 1 view .LVU592
	leaq	.LC17(%rip), %rdi
	call	textdomain@PLT
.LVL224:
	.loc 1 586 3 view .LVU593
	movq	close_stdout@GOTPCREL(%rip), %rdi
	call	atexit@PLT
.LVL225:
	.loc 1 588 3 view .LVU594
	.loc 1 594 17 is_stmt 0 view .LVU595
	movslq	optind(%rip), %rdx
	.loc 1 589 13 view .LVU596
	leaq	.LC42(%rip), %rax
	.loc 1 588 15 view .LVU597
	movb	$0, equal_width(%rip)
	.loc 1 589 3 is_stmt 1 view .LVU598
	.loc 1 589 13 is_stmt 0 view .LVU599
	movq	%rax, separator(%rip)
	.loc 1 594 3 is_stmt 1 view .LVU600
	.loc 1 594 9 view .LVU601
	cmpl	%edx, %ebx
	jle	.L134
	.loc 1 603 14 is_stmt 0 view .LVU602
	leaq	long_options(%rip), %r12
.LVL226:
.L144:
	.loc 1 596 7 is_stmt 1 view .LVU603
	.loc 1 596 15 is_stmt 0 view .LVU604
	movslq	%edx, %rax
	movq	(%r14,%rax,8), %rax
	.loc 1 596 10 view .LVU605
	cmpb	$45, (%rax)
	jne	.L135
	.loc 1 597 35 view .LVU606
	movsbl	1(%rax), %eax
.LVL227:
	.loc 1 597 11 view .LVU607
	cmpb	$46, %al
	je	.L134
	.loc 1 597 50 discriminator 1 view .LVU608
	subl	$48, %eax
.LVL228:
	.loc 1 597 47 discriminator 1 view .LVU609
	cmpl	$9, %eax
	jbe	.L134
.LVL229:
.L135:
	.loc 1 603 7 is_stmt 1 view .LVU610
	.loc 1 603 14 is_stmt 0 view .LVU611
	xorl	%r8d, %r8d
	movq	%r12, %rcx
	leaq	.LC43(%rip), %rdx
	movq	%r14, %rsi
	movl	%ebx, %edi
	call	getopt_long@PLT
.LVL230:
	.loc 1 604 7 is_stmt 1 view .LVU612
	.loc 1 604 10 is_stmt 0 view .LVU613
	cmpl	$-1, %eax
	je	.L333
	.loc 1 607 7 is_stmt 1 view .LVU614
	cmpl	$102, %eax
	je	.L136
	jle	.L334
	cmpl	$115, %eax
	jne	.L335
	.loc 1 614 11 view .LVU615
	.loc 1 614 21 is_stmt 0 view .LVU616
	movq	optarg(%rip), %rax
.LVL231:
	.loc 1 614 21 view .LVU617
	movq	%rax, separator(%rip)
	.loc 1 615 11 is_stmt 1 view .LVU618
.L143:
	.loc 1 594 9 view .LVU619
	.loc 1 594 17 is_stmt 0 view .LVU620
	movslq	optind(%rip), %rdx
	.loc 1 594 9 view .LVU621
	cmpl	%ebx, %edx
	jl	.L144
.LVL232:
.L134:
	.loc 1 630 3 is_stmt 1 view .LVU622
	.loc 1 631 3 view .LVU623
	.loc 1 631 6 is_stmt 0 view .LVU624
	movl	%ebx, %eax
	subl	%edx, %eax
.LVL233:
	.loc 1 631 6 view .LVU625
	movl	%eax, (%rsp)
	je	.L336
	.loc 1 637 3 is_stmt 1 view .LVU626
	.loc 1 637 6 is_stmt 0 view .LVU627
	cmpl	$3, (%rsp)
	ja	.L337
	.loc 1 643 3 is_stmt 1 view .LVU628
	.loc 1 643 6 is_stmt 0 view .LVU629
	testq	%rbp, %rbp
	je	.L338
	movl	$1, %edx
.LBB264:
.LBB265:
	.loc 1 244 10 view .LVU630
	xorl	%eax, %eax
.LVL234:
	.loc 1 244 10 view .LVU631
	jmp	.L147
.LVL235:
	.p2align 4,,10
	.p2align 3
.L149:
	.loc 1 246 7 is_stmt 1 view .LVU632
	.loc 1 246 10 is_stmt 0 view .LVU633
	testb	%cl, %cl
	je	.L217
	.loc 1 244 76 view .LVU634
	movl	$1, %ecx
.L150:
.LVL236:
	.loc 1 244 57 view .LVU635
	addq	%rcx, %rax
.LVL237:
	.loc 1 244 57 view .LVU636
	addq	$1, %rdx
.LVL238:
.L147:
	.loc 1 244 21 view .LVU637
	movzbl	0(%rbp,%rax), %ecx
	leaq	-1(%rdx), %r13
.LVL239:
	.loc 1 244 15 is_stmt 1 view .LVU638
	.loc 1 244 3 is_stmt 0 view .LVU639
	cmpb	$37, %cl
	jne	.L149
	.loc 1 244 38 view .LVU640
	leaq	1(%rax), %r12
	leaq	0(%rbp,%r12), %rdi
	.loc 1 244 15 view .LVU641
	cmpb	$37, (%rdi)
	jne	.L339
	.loc 1 244 76 view .LVU642
	movl	$2, %ecx
	jmp	.L150
.LVL240:
	.p2align 4,,10
	.p2align 3
.L334:
	.loc 1 244 76 view .LVU643
.LBE265:
.LBE264:
	.loc 1 607 7 view .LVU644
	cmpl	$-131, %eax
	jne	.L340
	.loc 1 621 9 is_stmt 1 view .LVU645
	.loc 1 621 30 view .LVU646
	.loc 1 623 9 view .LVU647
	movq	stdout(%rip), %rdi
	movq	Version(%rip), %rcx
	xorl	%eax, %eax
.LVL241:
	.loc 1 623 9 is_stmt 0 view .LVU648
	xorl	%r9d, %r9d
	leaq	.LC44(%rip), %r8
	leaq	.LC26(%rip), %rdx
	leaq	.LC3(%rip), %rsi
	call	version_etc@PLT
.LVL242:
	.loc 1 623 9 is_stmt 1 view .LVU649
	xorl	%edi, %edi
	call	exit@PLT
.LVL243:
	.p2align 4,,10
	.p2align 3
.L335:
	.loc 1 607 7 is_stmt 0 view .LVU650
	cmpl	$119, %eax
	jne	.L332
	.loc 1 618 11 is_stmt 1 view .LVU651
	.loc 1 618 23 is_stmt 0 view .LVU652
	movb	$1, equal_width(%rip)
	.loc 1 619 11 is_stmt 1 view .LVU653
	jmp	.L143
.L340:
	.loc 1 607 7 is_stmt 0 view .LVU654
	cmpl	$-130, %eax
	jne	.L332
	.loc 1 621 9 is_stmt 1 view .LVU655
	xorl	%edi, %edi
	call	usage
.LVL244:
	.p2align 4,,10
	.p2align 3
.L136:
	.loc 1 610 11 view .LVU656
	.loc 1 610 22 is_stmt 0 view .LVU657
	movq	optarg(%rip), %rbp
.LVL245:
	.loc 1 611 11 is_stmt 1 view .LVU658
	jmp	.L143
.LVL246:
.L338:
	.loc 1 575 17 is_stmt 0 view .LVU659
	xorl	%r12d, %r12d
	xorl	%r13d, %r13d
.LVL247:
.L148:
	.loc 1 660 3 is_stmt 1 view .LVU660
	.loc 1 661 3 view .LVU661
	.loc 1 661 6 is_stmt 0 view .LVU662
	cmpl	$3, (%rsp)
	movslq	%edx, %rcx
	je	.L341
	.loc 1 667 7 view .LVU663
	movq	(%r14,%rcx,8), %r15
	movl	%edx, 32(%rsp)
.LVL248:
	.loc 1 667 3 is_stmt 1 view .LVU664
	.loc 1 667 7 is_stmt 0 view .LVU665
	movq	%rcx, 16(%rsp)
	movq	%r15, %rdi
	call	all_digits_p
.LVL249:
	.loc 1 667 6 view .LVU666
	movq	16(%rsp), %rcx
	movslq	32(%rsp), %rdx
	testb	%al, %al
	je	.L167
	.loc 1 668 7 view .LVU667
	cmpl	$1, (%rsp)
	jne	.L342
.LVL250:
.L165:
	.loc 1 671 23 view .LVU668
	cmpb	$1, equal_width(%rip)
	je	.L167
	testq	%rbp, %rbp
	jne	.L167
	.loc 1 671 41 discriminator 2 view .LVU669
	movq	separator(%rip), %rdi
	orq	$-1, %rcx
	xorl	%eax, %eax
	repnz scasb
	.loc 1 671 38 discriminator 2 view .LVU670
	cmpq	$-3, %rcx
	jne	.L167
.LBB282:
	.loc 1 673 7 is_stmt 1 view .LVU671
	.loc 1 675 11 is_stmt 0 view .LVU672
	flds	.LC55(%rip)
	fldt	160(%rsp)
	.loc 1 673 42 view .LVU673
	leaq	.LC38(%rip), %rax
	cmpl	$1, (%rsp)
	cmove	%rax, %r15
.LVL251:
	.loc 1 674 7 is_stmt 1 view .LVU674
	.loc 1 675 7 view .LVU675
	.loc 1 675 11 is_stmt 0 view .LVU676
	fcomi	%st(1), %st
	jnb	.L169
	fstp	%st(1)
	.loc 1 675 11 discriminator 4 view .LVU677
	fnstcw	110(%rsp)
.LVL252:
	.loc 1 675 11 discriminator 4 view .LVU678
	movzwl	110(%rsp), %eax
	orb	$12, %ah
	movw	%ax, 108(%rsp)
	fldcw	108(%rsp)
	fistpq	16(%rsp)
	fldcw	110(%rsp)
	movq	16(%rsp), %r8
.L170:
	.loc 1 674 36 discriminator 4 view .LVU679
	movl	(%rsp), %eax
	.loc 1 675 11 discriminator 4 view .LVU680
	movq	%r15, %rdi
	.loc 1 674 36 discriminator 4 view .LVU681
	leal	-1(%rax,%rdx), %eax
	.loc 1 675 11 discriminator 4 view .LVU682
	movq	%r8, %rdx
	movq	(%r14,%rax,8), %rsi
	call	seq_fast
.LVL253:
	.loc 1 675 10 discriminator 4 view .LVU683
	testb	%al, %al
	jne	.L193
	movslq	optind(%rip), %rdx
.LVL254:
.L167:
	.loc 1 675 10 discriminator 4 view .LVU684
.LBE282:
	.loc 1 681 3 is_stmt 1 view .LVU685
	.loc 1 681 10 is_stmt 0 view .LVU686
	movq	(%r14,%rdx,8), %rsi
	leaq	192(%rsp), %r15
	.loc 1 681 31 view .LVU687
	leal	1(%rdx), %eax
	.loc 1 681 10 view .LVU688
	movq	%r15, %rdi
	.loc 1 681 31 view .LVU689
	movl	%eax, optind(%rip)
	.loc 1 681 10 view .LVU690
	call	scan_arg
.LVL255:
	fldt	192(%rsp)
	.loc 1 683 14 view .LVU691
	movslq	optind(%rip), %rax
	.loc 1 681 10 view .LVU692
	movq	208(%rsp), %r10
	movl	216(%rsp), %r8d
	fstpt	64(%rsp)
.LVL256:
	.loc 1 683 3 is_stmt 1 view .LVU693
	.loc 1 683 6 is_stmt 0 view .LVU694
	cmpl	%ebx, %eax
	jl	.L343
	.loc 1 704 51 view .LVU695
	movl	%r8d, %eax
	orl	184(%rsp), %eax
	je	.L237
	.loc 1 681 10 view .LVU696
	fldt	64(%rsp)
	.loc 1 681 10 view .LVU697
	pxor	%xmm0, %xmm0
	movl	%r8d, %eax
	movq	%r10, %rbx
.LVL257:
	.loc 1 572 11 view .LVU698
	xorl	%r8d, %r8d
.LVL258:
	.loc 1 572 11 view .LVU699
	movl	$1, %r10d
.LVL259:
	.loc 1 572 11 view .LVU700
	movss	%xmm0, 104(%rsp)
	.loc 1 681 10 view .LVU701
	fstpt	48(%rsp)
	.loc 1 572 11 view .LVU702
	fld1
.LVL260:
	.loc 1 572 11 view .LVU703
	fstpt	64(%rsp)
.LVL261:
.L176:
	.loc 1 730 3 is_stmt 1 view .LVU704
	.loc 1 730 6 is_stmt 0 view .LVU705
	testq	%rbp, %rbp
	je	.L194
	fldt	160(%rsp)
	fstpt	80(%rsp)
.LVL262:
.L183:
	.loc 1 733 3 is_stmt 1 view .LVU706
.LBB283:
.LBI283:
	.loc 1 302 1 view .LVU707
.LBB284:
	.loc 1 305 3 view .LVU708
	.loc 1 305 48 is_stmt 0 view .LVU709
	fldt	80(%rsp)
	fldz
	fcomip	%st(1), %st
	fstp	%st(0)
	ja	.L344
	fldt	48(%rsp)
	fldt	64(%rsp)
	fcomip	%st(1), %st
	fstp	%st(0)
	seta	%r14b
.L201:
.LVL263:
	.loc 1 307 3 is_stmt 1 view .LVU710
	.loc 1 307 6 is_stmt 0 view .LVU711
	testb	%r14b, %r14b
	jne	.L193
	fldt	64(%rsp)
.LBB285:
.LBB286:
.LBB287:
	.loc 1 337 26 view .LVU712
	leaq	128(%rsp), %r15
.LBE287:
.LBE286:
.LBE285:
	fstpt	32(%rsp)
.LBB298:
	.loc 1 312 14 view .LVU713
	fld1
	fstpt	16(%rsp)
	jmp	.L216
.LVL264:
	.p2align 4,,10
	.p2align 3
.L323:
	.loc 1 312 14 view .LVU714
	fstp	%st(0)
.LBB294:
	.loc 1 320 47 view .LVU715
	fldt	48(%rsp)
	fldt	(%rsp)
	fcomip	%st(1), %st
	fstp	%st(0)
	seta	%r14b
.LVL265:
.L207:
	.loc 1 322 11 is_stmt 1 view .LVU716
	.loc 1 322 14 is_stmt 0 view .LVU717
	testb	%r14b, %r14b
	je	.L208
.LBB289:
	.loc 1 331 15 is_stmt 1 view .LVU718
.LVL266:
	.loc 1 332 15 view .LVU719
	.loc 1 333 15 view .LVU720
	.loc 1 334 15 view .LVU721
	.loc 1 335 15 view .LVU722
	.loc 1 335 18 is_stmt 0 view .LVU723
	cmpb	$0, locale_ok(%rip)
	jne	.L345
.L209:
	.loc 1 337 15 is_stmt 1 view .LVU724
	.loc 1 337 26 is_stmt 0 view .LVU725
	pushq	8(%rsp)
	.cfi_def_cfa_offset 312
.LVL267:
	.loc 1 337 26 view .LVU726
	movq	%rbp, %rsi
	movq	%r15, %rdi
	xorl	%eax, %eax
	pushq	8(%rsp)
	.cfi_def_cfa_offset 320
	call	rpl_asprintf@PLT
.LVL268:
	.loc 1 338 18 view .LVU727
	cmpb	$0, locale_ok(%rip)
	popq	%rsi
	.cfi_def_cfa_offset 312
	.loc 1 337 26 view .LVU728
	movslq	%eax, %rbx
.LVL269:
	.loc 1 338 15 is_stmt 1 view .LVU729
	.loc 1 338 18 is_stmt 0 view .LVU730
	popq	%rdi
	.cfi_def_cfa_offset 304
.LVL270:
	.loc 1 338 18 view .LVU731
	jne	.L346
.L210:
	.loc 1 340 15 is_stmt 1 view .LVU732
	.loc 1 340 18 is_stmt 0 view .LVU733
	testl	%ebx, %ebx
	js	.L189
	.loc 1 342 15 is_stmt 1 view .LVU734
	.loc 1 342 51 is_stmt 0 view .LVU735
	movq	128(%rsp), %rax
	.loc 1 342 30 view .LVU736
	subq	%r12, %rbx
.LVL271:
	.loc 1 344 19 view .LVU737
	movq	cl_strtold@GOTPCREL(%rip), %rcx
	xorl	%esi, %esi
	leaq	144(%rsp), %rdx
	.loc 1 342 51 view .LVU738
	movb	$0, (%rax,%rbx)
	.loc 1 344 15 is_stmt 1 view .LVU739
	.loc 1 344 35 is_stmt 0 view .LVU740
	movq	128(%rsp), %rdi
	addq	%r13, %rdi
	.loc 1 344 19 view .LVU741
	call	xstrtold@PLT
.LVL272:
	.loc 1 344 18 view .LVU742
	testb	%al, %al
	je	.L213
	.loc 1 345 19 view .LVU743
	fldt	48(%rsp)
	fldt	144(%rsp)
	fucomip	%st(1), %st
	fstp	%st(0)
	jp	.L213
	jne	.L213
.LBB288:
	.loc 1 347 19 is_stmt 1 view .LVU744
	.loc 1 348 35 is_stmt 0 view .LVU745
	leaq	136(%rsp), %rdi
	movq	%rbp, %rsi
	xorl	%eax, %eax
	.loc 1 347 25 view .LVU746
	movq	$0, 136(%rsp)
	.loc 1 348 19 is_stmt 1 view .LVU747
	.loc 1 348 35 is_stmt 0 view .LVU748
	pushq	40(%rsp)
	.cfi_def_cfa_offset 312
.LVL273:
	.loc 1 348 35 view .LVU749
	pushq	40(%rsp)
	.cfi_def_cfa_offset 320
	call	rpl_asprintf@PLT
.LVL274:
	.loc 1 349 19 is_stmt 1 view .LVU750
	.loc 1 349 22 is_stmt 0 view .LVU751
	popq	%rdx
	.cfi_def_cfa_offset 312
	popq	%rcx
	.cfi_def_cfa_offset 304
.LVL275:
	.loc 1 349 22 view .LVU752
	testl	%eax, %eax
	js	.L189
	.loc 1 351 19 is_stmt 1 view .LVU753
	.loc 1 351 57 is_stmt 0 view .LVU754
	movq	136(%rsp), %rdx
	.loc 1 351 36 view .LVU755
	cltq
	.loc 1 351 36 view .LVU756
	subq	%r12, %rax
.LVL276:
	.loc 1 351 57 view .LVU757
	movb	$0, (%rdx,%rax)
	.loc 1 352 19 is_stmt 1 view .LVU758
	.loc 1 352 41 is_stmt 0 view .LVU759
	movq	136(%rsp), %rdi
	movq	128(%rsp), %rsi
	movq	%rdi, 32(%rsp)
.LVL277:
	.loc 1 352 41 view .LVU760
	call	strcmp@PLT
.LVL278:
	.loc 1 353 19 view .LVU761
	movq	32(%rsp), %rdi
	.loc 1 352 41 view .LVU762
	movl	%eax, %ebx
.LVL279:
	.loc 1 353 19 is_stmt 1 view .LVU763
	call	free@PLT
.LVL280:
	.loc 1 353 19 is_stmt 0 view .LVU764
.LBE288:
	.loc 1 356 15 is_stmt 1 view .LVU765
	movq	128(%rsp), %rdi
	call	free@PLT
.LVL281:
	.loc 1 357 15 view .LVU766
	.loc 1 357 18 is_stmt 0 view .LVU767
	testl	%ebx, %ebx
	je	.L204
.LVL282:
.L208:
	.loc 1 357 18 view .LVU768
.LBE289:
	.loc 1 361 11 is_stmt 1 view .LVU769
	.loc 1 361 15 is_stmt 0 view .LVU770
	movq	stdout(%rip), %rsi
	movq	separator(%rip), %rdi
	call	fputs_unlocked@PLT
.LVL283:
	.loc 1 361 14 view .LVU771
	cmpl	$-1, %eax
	je	.L215
.LBE294:
	.loc 1 312 21 is_stmt 1 view .LVU772
	.loc 1 312 22 is_stmt 0 view .LVU773
	fldt	16(%rsp)
	fld1
	faddp	%st, %st(1)
	fstpt	16(%rsp)
.LVL284:
	.loc 1 312 19 is_stmt 1 view .LVU774
.LBB295:
	.loc 1 319 13 is_stmt 0 view .LVU775
	fldt	(%rsp)
.LVL285:
	.loc 1 319 13 view .LVU776
	fstpt	32(%rsp)
.LVL286:
.L216:
	.loc 1 314 11 is_stmt 1 view .LVU777
	.loc 1 315 11 view .LVU778
.LBB290:
.LBI290:
	.loc 3 105 1 view .LVU779
.LBB291:
	.loc 3 107 3 view .LVU780
	.loc 3 107 10 is_stmt 0 view .LVU781
	movq	%rbp, %rsi
	movl	$1, %edi
	xorl	%eax, %eax
	pushq	40(%rsp)
	.cfi_def_cfa_offset 312
	pushq	40(%rsp)
	.cfi_def_cfa_offset 320
	call	__printf_chk@PLT
.LVL287:
	.loc 3 107 10 view .LVU782
.LBE291:
.LBE290:
	.loc 1 315 14 view .LVU783
	popq	%r8
	.cfi_def_cfa_offset 312
	popq	%r9
	.cfi_def_cfa_offset 304
	testl	%eax, %eax
	js	.L215
	.loc 1 317 11 is_stmt 1 view .LVU784
	.loc 1 317 14 is_stmt 0 view .LVU785
	testb	%r14b, %r14b
	jne	.L204
	.loc 1 319 11 is_stmt 1 view .LVU786
	.loc 1 319 25 is_stmt 0 view .LVU787
	fldt	80(%rsp)
	fld	%st(0)
	fldt	16(%rsp)
	fmulp	%st, %st(1)
	.loc 1 319 13 view .LVU788
	fldt	64(%rsp)
	faddp	%st, %st(1)
	fld	%st(0)
	fstpt	(%rsp)
.LVL288:
	.loc 1 320 11 is_stmt 1 view .LVU789
	.loc 1 320 47 is_stmt 0 view .LVU790
	fldz
.LVL289:
	.loc 1 320 47 view .LVU791
	fcomip	%st(2), %st
	fstp	%st(1)
	jbe	.L323
	fldt	48(%rsp)
	fcomip	%st(1), %st
	fstp	%st(0)
	seta	%r14b
.LVL290:
	.loc 1 320 47 view .LVU792
	jmp	.L207
.LVL291:
	.p2align 4,,10
	.p2align 3
.L213:
.LBB292:
	.loc 1 356 15 is_stmt 1 view .LVU793
	movq	128(%rsp), %rdi
	call	free@PLT
.LVL292:
	.loc 1 357 15 view .LVU794
.L204:
	.loc 1 357 15 is_stmt 0 view .LVU795
.LBE292:
.LBE295:
	.loc 1 365 7 is_stmt 1 view .LVU796
	.loc 1 365 11 is_stmt 0 view .LVU797
	movq	stdout(%rip), %rsi
	leaq	terminator(%rip), %rdi
	call	fputs_unlocked@PLT
.LVL293:
	.loc 1 365 10 view .LVU798
	addl	$1, %eax
	je	.L215
.LVL294:
.L193:
	.loc 1 365 10 view .LVU799
.LBE298:
.LBE284:
.LBE283:
	.loc 1 736 1 view .LVU800
	movq	232(%rsp), %rax
	xorq	%fs:40, %rax
	jne	.L347
	addq	$248, %rsp
	.cfi_remember_state
	.cfi_def_cfa_offset 56
	xorl	%eax, %eax
	popq	%rbx
	.cfi_def_cfa_offset 48
	popq	%rbp
	.cfi_def_cfa_offset 40
	popq	%r12
	.cfi_def_cfa_offset 32
	popq	%r13
	.cfi_def_cfa_offset 24
	popq	%r14
	.cfi_def_cfa_offset 16
	popq	%r15
	.cfi_def_cfa_offset 8
	ret
.LVL295:
.L346:
	.cfi_restore_state
.LBB304:
.LBB301:
.LBB299:
.LBB296:
.LBB293:
	.loc 1 339 17 is_stmt 1 view .LVU801
	leaq	.LC5(%rip), %rsi
	movl	$1, %edi
	call	setlocale@PLT
.LVL296:
	jmp	.L210
.LVL297:
.L345:
	.loc 1 336 17 view .LVU802
	leaq	.LC60(%rip), %rsi
	movl	$1, %edi
	call	setlocale@PLT
.LVL298:
	jmp	.L209
.LVL299:
.L339:
	.loc 1 336 17 is_stmt 0 view .LVU803
.LBE293:
.LBE296:
.LBE299:
.LBE301:
.LBE304:
.LBB305:
.LBB279:
	.loc 1 252 3 is_stmt 1 view .LVU804
	.loc 1 253 3 view .LVU805
	.loc 1 253 8 is_stmt 0 view .LVU806
	leaq	.LC48(%rip), %rsi
	call	strspn@PLT
.LVL300:
	.loc 1 254 8 view .LVU807
	leaq	.LC0(%rip), %rsi
	.loc 1 253 5 view .LVU808
	addq	%rax, %r12
.LVL301:
	.loc 1 254 3 is_stmt 1 view .LVU809
	.loc 1 254 8 is_stmt 0 view .LVU810
	leaq	0(%rbp,%r12), %rdi
	call	strspn@PLT
.LVL302:
	.loc 1 254 5 view .LVU811
	leaq	(%r12,%rax), %r15
.LVL303:
	.loc 1 255 3 is_stmt 1 view .LVU812
	.loc 1 255 6 is_stmt 0 view .LVU813
	cmpb	$46, 0(%rbp,%r15)
	jne	.L151
	.loc 1 257 7 is_stmt 1 view .LVU814
	.loc 1 257 8 is_stmt 0 view .LVU815
	addq	$1, %r15
.LVL304:
	.loc 1 258 7 is_stmt 1 view .LVU816
	.loc 1 258 12 is_stmt 0 view .LVU817
	leaq	.LC0(%rip), %rsi
	leaq	0(%rbp,%r15), %rdi
	call	strspn@PLT
.LVL305:
	.loc 1 258 9 view .LVU818
	addq	%rax, %r15
.LVL306:
.L151:
	.loc 1 261 3 is_stmt 1 view .LVU819
	.loc 1 262 3 view .LVU820
	.loc 1 263 3 view .LVU821
	.loc 1 262 9 is_stmt 0 view .LVU822
	xorl	%edi, %edi
	cmpb	$76, 0(%rbp,%r15)
	sete	%dil
	.loc 1 263 5 view .LVU823
	leaq	(%r15,%rdi), %r12
.LVL307:
	.loc 1 264 3 is_stmt 1 view .LVU824
	.loc 1 264 10 is_stmt 0 view .LVU825
	leaq	0(%rbp,%r12), %rax
	movsbl	(%rax), %r8d
	movq	%rax, 32(%rsp)
	.loc 1 264 6 view .LVU826
	testb	%r8b, %r8b
	je	.L348
	.loc 1 266 3 is_stmt 1 view .LVU827
	.loc 1 266 9 is_stmt 0 view .LVU828
	movl	%r8d, %esi
	leaq	.LC50(%rip), %rdi
	movl	%r8d, 16(%rsp)
	call	strchr@PLT
.LVL308:
	.loc 1 270 9 view .LVU829
	leaq	1(%r12), %rdi
.LVL309:
	.loc 1 270 9 view .LVU830
	xorl	%r12d, %r12d
	.loc 1 266 6 view .LVU831
	movl	16(%rsp), %r8d
	testq	%rax, %rax
	jne	.L157
	jmp	.L349
.LVL310:
	.p2align 4,,10
	.p2align 3
.L154:
	.loc 1 274 10 is_stmt 1 view .LVU832
	.loc 1 274 13 is_stmt 0 view .LVU833
	testb	%al, %al
	je	.L350
	.loc 1 270 36 view .LVU834
	movl	$1, %eax
.L155:
.LVL311:
	.loc 1 270 17 view .LVU835
	addq	%rax, %rdi
.LVL312:
	.loc 1 270 13 is_stmt 1 view .LVU836
	addq	$1, %r12
.L157:
.LVL313:
	.loc 1 271 5 view .LVU837
	.loc 1 271 12 is_stmt 0 view .LVU838
	movzbl	0(%rbp,%rdi), %eax
	.loc 1 271 8 view .LVU839
	cmpb	$37, %al
	jne	.L154
	.loc 1 271 23 view .LVU840
	cmpb	$37, 1(%rbp,%rdi)
	jne	.L351
	.loc 1 270 36 view .LVU841
	movl	$2, %eax
	jmp	.L155
.L350:
.LBB266:
	.loc 1 278 9 is_stmt 1 view .LVU842
.LVL314:
	.loc 1 279 9 view .LVU843
	.loc 1 279 23 is_stmt 0 view .LVU844
	addq	$2, %rdi
.LVL315:
	.loc 1 279 23 view .LVU845
	call	xmalloc@PLT
.LVL316:
	.loc 1 280 9 is_stmt 1 view .LVU846
.LBB267:
.LBI267:
	.loc 2 31 1 view .LVU847
.LBB268:
	.loc 2 34 3 view .LVU848
	.loc 2 34 10 is_stmt 0 view .LVU849
	movq	%r15, %rdx
	movq	%rbp, %rsi
	movq	%rax, %rdi
	call	memcpy@PLT
.LVL317:
	.loc 2 34 10 view .LVU850
.LBE268:
.LBE267:
	.loc 1 281 9 is_stmt 1 view .LVU851
.LBB269:
.LBB270:
	.loc 2 90 10 is_stmt 0 view .LVU852
	movq	32(%rsp), %rsi
.LBE270:
.LBE269:
	.loc 1 281 39 view .LVU853
	movb	$76, (%rax,%r15)
	.loc 1 282 9 is_stmt 1 view .LVU854
.LVL318:
.LBB273:
.LBI269:
	.loc 2 88 1 view .LVU855
.LBB271:
	.loc 2 90 3 view .LVU856
.LBE271:
.LBE273:
	.loc 1 282 9 is_stmt 0 view .LVU857
	leaq	1(%rax,%r15), %rdi
.LVL319:
	.loc 1 282 9 view .LVU858
	movq	%rax, 16(%rsp)
.LBB274:
.LBB272:
	.loc 2 90 10 view .LVU859
	call	strcpy@PLT
.LVL320:
	.loc 2 90 10 view .LVU860
.LBE272:
.LBE274:
	.loc 1 284 9 is_stmt 1 view .LVU861
	.loc 1 285 9 view .LVU862
	.loc 1 286 9 view .LVU863
	.loc 1 286 9 is_stmt 0 view .LVU864
.LBE266:
.LBE279:
.LBE305:
	.loc 1 646 3 is_stmt 1 view .LVU865
	.loc 1 646 26 is_stmt 0 view .LVU866
	cmpb	$0, equal_width(%rip)
	jne	.L156
	movq	16(%rsp), %rcx
	movl	optind(%rip), %edx
	movq	%rcx, %rbp
	jmp	.L148
.LVL321:
.L344:
.LBB306:
.LBB302:
	.loc 1 305 48 view .LVU867
	fldt	64(%rsp)
	fldt	48(%rsp)
	fcomip	%st(1), %st
	fstp	%st(0)
	seta	%r14b
	jmp	.L201
.LVL322:
.L341:
	.loc 1 305 48 view .LVU868
.LBE302:
.LBE306:
	.loc 1 662 11 view .LVU869
	movq	8(%r14,%rcx,8), %r15
	movl	%edx, 16(%rsp)
	movq	%r15, %rdi
	call	all_digits_p
.LVL323:
	.loc 1 662 7 view .LVU870
	movl	16(%rsp), %edx
	testb	%al, %al
	jne	.L352
.L159:
	.loc 1 660 8 view .LVU871
	movb	$0, 48(%rsp)
.L161:
.LVL324:
	.loc 1 667 3 is_stmt 1 view .LVU872
	.loc 1 667 25 is_stmt 0 view .LVU873
	movslq	%edx, %rcx
	movl	%edx, 32(%rsp)
	.loc 1 667 7 view .LVU874
	movq	(%r14,%rcx,8), %r15
	movq	%rcx, 16(%rsp)
	movq	%r15, %rdi
	call	all_digits_p
.LVL325:
	.loc 1 667 6 view .LVU875
	movq	16(%rsp), %rcx
	movslq	32(%rsp), %rdx
	testb	%al, %al
	je	.L167
	.loc 1 668 44 view .LVU876
	addq	$1, %rcx
	movl	%edx, 16(%rsp)
	.loc 1 668 26 view .LVU877
	movq	(%r14,%rcx,8), %rdi
	.loc 1 668 44 view .LVU878
	leaq	0(,%rcx,8), %rax
	movq	%rax, 32(%rsp)
	.loc 1 668 26 view .LVU879
	call	all_digits_p
.LVL326:
	.loc 1 668 23 view .LVU880
	movslq	16(%rsp), %rdx
	testb	%al, %al
	je	.L167
	.loc 1 669 22 discriminator 1 view .LVU881
	cmpb	$0, 48(%rsp)
	je	.L167
	.loc 1 670 29 view .LVU882
	movq	32(%rsp), %rax
	movl	%edx, 16(%rsp)
	movq	8(%r14,%rax), %rdi
	call	all_digits_p
.LVL327:
	.loc 1 670 26 view .LVU883
	movslq	16(%rsp), %rdx
	testb	%al, %al
	je	.L167
	jmp	.L165
.LVL328:
.L333:
	.loc 1 670 26 view .LVU884
	movslq	optind(%rip), %rdx
	jmp	.L134
.LVL329:
.L343:
	.loc 1 686 14 view .LVU885
	movq	(%r14,%rax,8), %rsi
	.loc 1 686 35 view .LVU886
	leal	1(%rax), %edx
	.loc 1 686 14 view .LVU887
	movq	%r15, %rdi
	movl	%r8d, 16(%rsp)
	movq	%r10, (%rsp)
.LVL330:
	.loc 1 685 7 is_stmt 1 view .LVU888
	.loc 1 686 7 view .LVU889
	.loc 1 686 35 is_stmt 0 view .LVU890
	movl	%edx, optind(%rip)
	.loc 1 686 14 view .LVU891
	call	scan_arg
.LVL331:
	.loc 1 688 18 view .LVU892
	movl	optind(%rip), %eax
	.loc 1 688 10 view .LVU893
	movq	(%rsp), %r10
	.loc 1 686 14 view .LVU894
	fldt	192(%rsp)
	.loc 1 688 10 view .LVU895
	movl	16(%rsp), %r8d
	cmpl	%ebx, %eax
	.loc 1 686 14 view .LVU896
	fstpt	48(%rsp)
.LVL332:
	.loc 1 688 7 is_stmt 1 view .LVU897
	.loc 1 688 10 is_stmt 0 view .LVU898
	jl	.L172
	.loc 1 688 10 view .LVU899
	pxor	%xmm1, %xmm1
	.loc 1 686 14 view .LVU900
	movq	208(%rsp), %rbx
.LVL333:
	.loc 1 686 14 view .LVU901
	movl	216(%rsp), %eax
	movss	%xmm1, 104(%rsp)
.LVL334:
.L173:
	.loc 1 704 3 is_stmt 1 view .LVU902
	.loc 1 704 3 is_stmt 0 view .LVU903
	movl	184(%rsp), %edx
	orl	%r8d, %edx
	.loc 1 704 51 view .LVU904
	orl	%eax, %edx
	jne	.L176
	.loc 1 705 10 view .LVU905
	flds	104(%rsp)
.LVL335:
	.loc 1 705 10 view .LVU906
	fld	%st(0)
	fldt	64(%rsp)
	fmulp	%st, %st(2)
	fxch	%st(1)
	.loc 1 705 7 view .LVU907
	fucomip	%st(1), %st
	jnp	.L353
	fstp	%st(0)
	jmp	.L177
.L362:
	fstp	%st(0)
.L177:
	.loc 1 730 3 is_stmt 1 view .LVU908
	.loc 1 730 6 is_stmt 0 view .LVU909
	testq	%rbp, %rbp
	je	.L222
.LVL336:
.L328:
	.loc 1 730 6 view .LVU910
	fldt	160(%rsp)
	fstpt	80(%rsp)
	jmp	.L183
.LVL337:
.L342:
	.loc 1 668 26 view .LVU911
	movq	8(%r14,%rcx,8), %rdi
	movl	%edx, 16(%rsp)
	call	all_digits_p
.LVL338:
	.loc 1 668 23 view .LVU912
	movslq	16(%rsp), %rdx
	testb	%al, %al
	je	.L167
	jmp	.L165
.LVL339:
.L172:
	.loc 1 690 11 is_stmt 1 view .LVU913
	.loc 1 691 14 is_stmt 0 view .LVU914
	fldz
.LVL340:
	.loc 1 691 14 view .LVU915
	movslq	%eax, %rdx
	pxor	%xmm4, %xmm4
	.loc 1 690 16 view .LVU916
	movdqa	192(%rsp), %xmm2
	.loc 1 691 14 view .LVU917
	fldt	48(%rsp)
	leaq	0(,%rdx,8), %rcx
	.loc 1 690 16 view .LVU918
	movdqa	208(%rsp), %xmm3
	.loc 1 691 14 view .LVU919
	movss	%xmm4, 104(%rsp)
	.loc 1 690 16 view .LVU920
	movaps	%xmm2, 160(%rsp)
	movaps	%xmm3, 176(%rsp)
	.loc 1 691 11 is_stmt 1 view .LVU921
	.loc 1 691 14 is_stmt 0 view .LVU922
	fucomip	%st(1), %st
	fstp	%st(0)
	jnp	.L354
.L174:
	.loc 1 698 18 view .LVU923
	movq	(%r14,%rdx,8), %rsi
	.loc 1 698 39 view .LVU924
	addl	$1, %eax
	.loc 1 698 18 view .LVU925
	movq	%r15, %rdi
	movl	%r8d, 16(%rsp)
.LVL341:
	.loc 1 698 18 view .LVU926
	movq	%r10, (%rsp)
.LVL342:
	.loc 1 698 11 is_stmt 1 view .LVU927
	.loc 1 698 39 is_stmt 0 view .LVU928
	movl	%eax, optind(%rip)
	.loc 1 698 18 view .LVU929
	call	scan_arg
.LVL343:
	fldt	192(%rsp)
	movl	16(%rsp), %r8d
	movq	208(%rsp), %rbx
.LVL344:
	.loc 1 698 18 view .LVU930
	movl	216(%rsp), %eax
	movq	(%rsp), %r10
	fstpt	48(%rsp)
.LVL345:
	.loc 1 698 18 view .LVU931
	jmp	.L173
.LVL346:
.L352:
	.loc 1 663 14 view .LVU932
	movq	cl_strtold@GOTPCREL(%rip), %rcx
	xorl	%esi, %esi
	leaq	160(%rsp), %rdx
	movq	%r15, %rdi
	call	xstrtold@PLT
.LVL347:
	.loc 1 663 11 view .LVU933
	testb	%al, %al
	je	.L329
	.loc 1 664 11 view .LVU934
	fldz
	.loc 1 664 22 view .LVU935
	fldt	160(%rsp)
	.loc 1 664 11 view .LVU936
	fcomi	%st(1), %st
	fstp	%st(1)
	jbe	.L358
	.loc 1 664 29 discriminator 1 view .LVU937
	flds	.LC54(%rip)
	movl	optind(%rip), %edx
	fcomip	%st(1), %st
	fstp	%st(0)
	setnb	48(%rsp)
	jmp	.L161
.LVL348:
.L357:
	.loc 1 664 29 discriminator 1 view .LVU938
	movq	%r10, (%rsp)
.LBB307:
	.loc 1 709 7 is_stmt 1 view .LVU939
	.loc 1 710 7 view .LVU940
	.loc 1 711 7 view .LVU941
	.loc 1 711 11 is_stmt 0 view .LVU942
	leaq	112(%rsp), %rdi
	leaq	.LC57(%rip), %rsi
	pushq	72(%rsp)
	.cfi_def_cfa_offset 312
	pushq	72(%rsp)
	.cfi_def_cfa_offset 320
	call	rpl_asprintf@PLT
.LVL349:
	.loc 1 711 10 view .LVU943
	popq	%rbp
	.cfi_def_cfa_offset 312
	popq	%r14
	.cfi_def_cfa_offset 304
.LVL350:
	.loc 1 711 10 view .LVU944
	testl	%eax, %eax
	movq	(%rsp), %r10
	fldz
	js	.L359
	.loc 1 713 7 is_stmt 1 view .LVU945
	.loc 1 713 13 is_stmt 0 view .LVU946
	fldt	48(%rsp)
	movq	%r10, (%rsp)
	fmul	%st(1), %st
	.loc 1 713 10 view .LVU947
	fucomip	%st(1), %st
	fstp	%st(0)
	jp	.L244
	je	.L320
.L244:
	.loc 1 714 9 is_stmt 1 view .LVU948
	.loc 1 714 14 is_stmt 0 view .LVU949
	leaq	.LC2(%rip), %rdi
	call	xstrdup@PLT
.LVL351:
	movq	(%rsp), %r10
	.loc 1 714 12 view .LVU950
	movq	%rax, 120(%rsp)
.L188:
	.loc 1 718 7 is_stmt 1 view .LVU951
	.loc 1 718 11 is_stmt 0 view .LVU952
	movq	112(%rsp), %rdi
	.loc 1 718 10 view .LVU953
	cmpb	$45, (%rdi)
	je	.L190
	.loc 1 718 25 discriminator 1 view .LVU954
	movq	120(%rsp), %rsi
	.loc 1 718 22 discriminator 1 view .LVU955
	cmpb	$45, (%rsi)
	je	.L190
	.loc 1 718 39 discriminator 2 view .LVU956
	flds	.LC55(%rip)
	fldt	160(%rsp)
	fcomi	%st(1), %st
	jnb	.L191
	fstp	%st(1)
	fnstcw	110(%rsp)
	movzwl	110(%rsp), %eax
	orb	$12, %ah
	movw	%ax, 108(%rsp)
	fldcw	108(%rsp)
	fistpq	(%rsp)
	fldcw	110(%rsp)
	movq	(%rsp), %rdx
.L192:
	movq	%r10, (%rsp)
	call	seq_fast
.LVL352:
	.loc 1 720 11 discriminator 2 view .LVU957
	movq	112(%rsp), %rdi
	.loc 1 718 36 discriminator 2 view .LVU958
	testb	%al, %al
	jne	.L321
	movq	(%rsp), %r10
.L190:
	movq	%r10, (%rsp)
	.loc 1 725 7 is_stmt 1 view .LVU959
	call	free@PLT
.LVL353:
	.loc 1 726 7 view .LVU960
	movq	120(%rsp), %rdi
	call	free@PLT
.LVL354:
	movq	(%rsp), %r10
	xorl	%eax, %eax
	xorl	%r8d, %r8d
.L194:
	.loc 1 726 7 is_stmt 0 view .LVU961
.LBE307:
	.loc 1 731 5 is_stmt 1 view .LVU962
.LBB308:
.LBI308:
	.loc 1 372 1 view .LVU963
.LVL355:
.LBB309:
	.loc 1 374 3 view .LVU964
	.loc 1 376 3 view .LVU965
	.loc 1 376 7 is_stmt 0 view .LVU966
	cmpl	%r8d, 184(%rsp)
	movl	%r8d, %r9d
	cmovge	184(%rsp), %r9d
.LVL356:
	.loc 1 378 3 is_stmt 1 view .LVU967
	.loc 1 378 23 is_stmt 0 view .LVU968
	cmpl	$2147483647, %eax
	je	.L235
	cmpl	$2147483647, %r9d
	je	.L235
.LVL357:
.L221:
	.loc 1 380 7 is_stmt 1 view .LVU969
	.loc 1 380 10 is_stmt 0 view .LVU970
	cmpb	$0, equal_width(%rip)
	je	.L195
.LBB310:
	.loc 1 383 11 is_stmt 1 view .LVU971
	.loc 1 383 52 is_stmt 0 view .LVU972
	movl	%r9d, %edx
	subl	%r8d, %edx
	movslq	%edx, %rdx
	.loc 1 383 18 view .LVU973
	leaq	(%rdx,%r10), %r15
.LVL358:
	.loc 1 385 11 is_stmt 1 view .LVU974
	.loc 1 385 50 is_stmt 0 view .LVU975
	movl	%r9d, %edx
	subl	%eax, %edx
	movslq	%edx, %rdx
	.loc 1 385 18 view .LVU976
	addq	%rdx, %rbx
.LVL359:
	.loc 1 386 11 is_stmt 1 view .LVU977
	testl	%r9d, %r9d
	setne	%dl
	.loc 1 386 30 is_stmt 0 view .LVU978
	jne	.L196
	testl	%eax, %eax
	jne	.L355
.L312:
	.loc 1 389 23 view .LVU979
	cmpb	$1, %dl
	sbbq	$-1, %rbx
.LVL360:
.L198:
	.loc 1 390 11 is_stmt 1 view .LVU980
	.loc 1 390 36 is_stmt 0 view .LVU981
	testl	%r8d, %r8d
	jne	.L197
	.loc 1 391 24 view .LVU982
	cmpb	$1, %dl
	sbbq	$-1, %r15
.LVL361:
.L197:
	.loc 1 392 11 is_stmt 1 view .LVU983
	.loc 1 392 18 is_stmt 0 view .LVU984
	cmpq	%rbx, %r15
	cmovb	%rbx, %r15
.LVL362:
	.loc 1 393 11 is_stmt 1 view .LVU985
	.loc 1 393 14 is_stmt 0 view .LVU986
	cmpq	$2147483647, %r15
	jbe	.L356
.LVL363:
.L235:
	.loc 1 393 14 view .LVU987
.LBE310:
	.loc 1 407 10 view .LVU988
	leaq	.LC40(%rip), %rbp
	jmp	.L328
.LVL364:
.L358:
	.loc 1 407 10 view .LVU989
	fstp	%st(0)
.L329:
	movl	optind(%rip), %edx
	jmp	.L159
.LVL365:
.L237:
	.loc 1 407 10 view .LVU990
.LBE309:
.LBE308:
	.loc 1 681 10 view .LVU991
	fldt	64(%rsp)
.LVL366:
	.loc 1 681 10 view .LVU992
	pxor	%xmm5, %xmm5
	movq	%r10, %rbx
.LVL367:
	.loc 1 572 11 view .LVU993
	movl	$1, %r10d
.LVL368:
	.loc 1 572 11 view .LVU994
	movss	%xmm5, 104(%rsp)
	.loc 1 681 10 view .LVU995
	fstpt	48(%rsp)
	.loc 1 572 11 view .LVU996
	fld1
	fstpt	64(%rsp)
.LVL369:
.L219:
	.loc 1 705 53 discriminator 2 view .LVU997
	fldz
	fldt	48(%rsp)
	fcomip	%st(1), %st
	jb	.L360
	.loc 1 706 18 view .LVU998
	fldt	160(%rsp)
	fld	%st(0)
	fstpt	80(%rsp)
	.loc 1 706 7 view .LVU999
	fcomi	%st(1), %st
	fstp	%st(1)
	jbe	.L361
	.loc 1 706 25 discriminator 1 view .LVU1000
	flds	.LC54(%rip)
	fcomip	%st(1), %st
	fstp	%st(0)
	jb	.L233
	.loc 1 707 7 view .LVU1001
	cmpb	$0, equal_width(%rip)
	jne	.L233
	.loc 1 707 23 discriminator 1 view .LVU1002
	testq	%rbp, %rbp
	jne	.L183
	.loc 1 707 41 discriminator 2 view .LVU1003
	movq	separator(%rip), %rdi
	orq	$-1, %rcx
	xorl	%eax, %eax
	repnz scasb
	.loc 1 707 38 discriminator 2 view .LVU1004
	cmpq	$-3, %rcx
	je	.L357
	.loc 1 731 5 is_stmt 1 view .LVU1005
	.loc 1 731 18 is_stmt 0 view .LVU1006
	movl	184(%rsp), %eax
.LBB323:
	.loc 1 372 1 is_stmt 1 view .LVU1007
.LVL370:
.LBB319:
	.loc 1 374 3 view .LVU1008
	.loc 1 376 3 view .LVU1009
	.loc 1 376 7 is_stmt 0 view .LVU1010
	movl	$0, %r9d
	.loc 1 407 10 view .LVU1011
	leaq	.LC40(%rip), %rbp
	.loc 1 376 7 view .LVU1012
	testl	%eax, %eax
	cmovns	%eax, %r9d
.LVL371:
	.loc 1 378 3 is_stmt 1 view .LVU1013
	.loc 1 378 23 is_stmt 0 view .LVU1014
	cmpl	$2147483647, %eax
	je	.L183
.LVL372:
.L195:
	.loc 1 402 11 is_stmt 1 view .LVU1015
.LBB314:
.LBI314:
	.loc 3 34 1 view .LVU1016
.LBB315:
	.loc 3 36 3 view .LVU1017
	.loc 3 36 10 is_stmt 0 view .LVU1018
	movl	%r9d, %r8d
	leaq	.LC59(%rip), %rcx
	xorl	%eax, %eax
	movl	$28, %edx
	movl	$1, %esi
	leaq	format_buf.7164(%rip), %rdi
	call	__sprintf_chk@PLT
.LVL373:
	.loc 3 36 10 view .LVU1019
.LBE315:
.LBE314:
	.loc 1 403 11 is_stmt 1 view .LVU1020
	fldt	160(%rsp)
	.loc 1 403 18 is_stmt 0 view .LVU1021
	leaq	format_buf.7164(%rip), %rbp
	fstpt	80(%rsp)
	jmp	.L183
.LVL374:
.L360:
	.loc 1 403 18 view .LVU1022
	fstp	%st(0)
	jmp	.L233
.L361:
	fstp	%st(0)
.L233:
.LBE319:
.LBE323:
	.loc 1 707 7 view .LVU1023
	xorl	%eax, %eax
	xorl	%r8d, %r8d
	jmp	.L176
.LVL375:
.L353:
	.loc 1 705 7 view .LVU1024
	jne	.L362
	.loc 1 705 33 discriminator 1 view .LVU1025
	fldt	64(%rsp)
	fcomip	%st(1), %st
	fstp	%st(0)
	jb	.L177
	jmp	.L219
.LVL376:
.L196:
.LBB324:
.LBB320:
.LBB316:
	.loc 1 388 11 is_stmt 1 view .LVU1026
	.loc 1 388 35 is_stmt 0 view .LVU1027
	testl	%eax, %eax
	jne	.L198
	jmp	.L312
.LVL377:
.L222:
	.loc 1 388 35 view .LVU1028
.LBE316:
.LBE320:
.LBE324:
	.loc 1 731 5 is_stmt 1 view .LVU1029
.LBB325:
	.loc 1 372 1 view .LVU1030
.LBB321:
	.loc 1 374 3 view .LVU1031
	.loc 1 376 3 view .LVU1032
	.loc 1 376 7 is_stmt 0 view .LVU1033
	cmpl	$0, 184(%rsp)
	movl	$0, %r9d
	cmovns	184(%rsp), %r9d
.LVL378:
	.loc 1 378 3 is_stmt 1 view .LVU1034
	.loc 1 376 7 is_stmt 0 view .LVU1035
	xorl	%eax, %eax
.LVL379:
	.loc 1 376 7 view .LVU1036
	xorl	%r8d, %r8d
.LVL380:
	.loc 1 376 7 view .LVU1037
	jmp	.L221
.LVL381:
.L355:
.LBB317:
	.loc 1 387 13 is_stmt 1 view .LVU1038
	.loc 1 387 23 is_stmt 0 view .LVU1039
	subq	$1, %rbx
.LVL382:
	.loc 1 388 11 is_stmt 1 view .LVU1040
	.loc 1 390 11 view .LVU1041
	jmp	.L197
.LVL383:
.L215:
	.loc 1 390 11 is_stmt 0 view .LVU1042
.LBE317:
.LBE321:
.LBE325:
.LBB326:
.LBB303:
.LBB300:
.LBB297:
	.loc 1 316 13 is_stmt 1 view .LVU1043
	call	io_error
.LVL384:
.L356:
	.loc 1 316 13 is_stmt 0 view .LVU1044
.LBE297:
.LBE300:
.LBE303:
.LBE326:
.LBB327:
.LBB322:
.LBB318:
.LBB311:
	.loc 1 395 15 is_stmt 1 view .LVU1045
	.loc 1 396 15 view .LVU1046
.LBB312:
.LBI312:
	.loc 3 34 1 view .LVU1047
.LBB313:
	.loc 3 36 3 view .LVU1048
	.loc 3 36 10 is_stmt 0 view .LVU1049
	movl	%r15d, %r8d
.LVL385:
	.loc 3 36 10 view .LVU1050
	movl	$28, %edx
	movl	$1, %esi
	xorl	%eax, %eax
.LVL386:
	.loc 3 36 10 view .LVU1051
	leaq	.LC58(%rip), %rcx
	leaq	format_buf.7164(%rip), %rdi
	call	__sprintf_chk@PLT
.LVL387:
	.loc 3 36 10 view .LVU1052
.LBE313:
.LBE312:
	.loc 1 397 15 is_stmt 1 view .LVU1053
	fldt	160(%rsp)
	.loc 1 397 22 is_stmt 0 view .LVU1054
	leaq	format_buf.7164(%rip), %rbp
	fstpt	80(%rsp)
	jmp	.L183
.LVL388:
.L217:
	.loc 1 397 22 view .LVU1055
.LBE311:
.LBE318:
.LBE322:
.LBE327:
.LBB328:
.LBB280:
.LBB275:
	.loc 1 247 9 is_stmt 1 view .LVU1056
	movq	%rbp, %rdi
	call	quote@PLT
.LVL389:
	.loc 1 247 9 is_stmt 0 view .LVU1057
	movl	$5, %edx
	leaq	.LC47(%rip), %rsi
	xorl	%edi, %edi
	movq	%rax, %r12
	call	dcgettext@PLT
.LVL390:
	movq	%r12, %rcx
	xorl	%esi, %esi
	movl	$1, %edi
	movq	%rax, %rdx
	xorl	%eax, %eax
	call	error@PLT
.LVL391:
.L169:
	.loc 1 247 9 view .LVU1058
.LBE275:
.LBE280:
.LBE328:
.LBB329:
	.loc 1 675 11 discriminator 4 view .LVU1059
	fnstcw	110(%rsp)
.LVL392:
	.loc 1 675 11 discriminator 4 view .LVU1060
	fsubp	%st, %st(1)
	movzwl	110(%rsp), %eax
	orb	$12, %ah
	movw	%ax, 108(%rsp)
	fldcw	108(%rsp)
	fistpq	16(%rsp)
	fldcw	110(%rsp)
	movq	16(%rsp), %r8
	btcq	$63, %r8
	jmp	.L170
.LVL393:
.L354:
	.loc 1 675 11 discriminator 4 view .LVU1061
.LBE329:
	.loc 1 691 14 view .LVU1062
	jne	.L174
	.loc 1 693 15 is_stmt 1 view .LVU1063
	movq	-8(%r14,%rcx), %rdi
	call	quote@PLT
.LVL394:
	.loc 1 693 28 is_stmt 0 view .LVU1064
	movl	$5, %edx
	leaq	.LC56(%rip), %rsi
	.loc 1 693 15 view .LVU1065
	movq	%rax, %r12
.LVL395:
.L331:
	.loc 1 693 28 view .LVU1066
	xorl	%edi, %edi
	call	dcgettext@PLT
.LVL396:
	.loc 1 693 15 view .LVU1067
	movq	%r12, %rcx
	xorl	%esi, %esi
	xorl	%edi, %edi
	.loc 1 693 28 view .LVU1068
	movq	%rax, %rdx
	.loc 1 693 15 view .LVU1069
	xorl	%eax, %eax
	call	error@PLT
.LVL397:
.L332:
	.loc 1 695 15 is_stmt 1 view .LVU1070
	movl	$1, %edi
	call	usage
.LVL398:
.L320:
.LBB330:
	.loc 1 715 12 view .LVU1071
	.loc 1 715 16 is_stmt 0 view .LVU1072
	leaq	120(%rsp), %rdi
	pushq	56(%rsp)
	.cfi_def_cfa_offset 312
	xorl	%eax, %eax
	leaq	.LC57(%rip), %rsi
	pushq	56(%rsp)
	.cfi_def_cfa_offset 320
	call	rpl_asprintf@PLT
.LVL399:
	.loc 1 715 15 view .LVU1073
	popq	%r10
	.cfi_def_cfa_offset 312
	popq	%r11
	.cfi_def_cfa_offset 304
	testl	%eax, %eax
	movq	(%rsp), %r10
	jns	.L188
	jmp	.L189
.L359:
	fstp	%st(0)
.LVL400:
.L189:
	.loc 1 712 9 is_stmt 1 view .LVU1074
	call	xalloc_die@PLT
.LVL401:
.L351:
	.loc 1 712 9 is_stmt 0 view .LVU1075
.LBE330:
.LBB331:
.LBB281:
.LBB276:
	.loc 1 272 7 is_stmt 1 view .LVU1076
	movq	%rbp, %rdi
.LVL402:
	.loc 1 272 7 is_stmt 0 view .LVU1077
	call	quote@PLT
.LVL403:
	movl	$5, %edx
	leaq	.LC52(%rip), %rsi
	xorl	%edi, %edi
	movq	%rax, %r12
.LVL404:
	.loc 1 272 7 view .LVU1078
	call	dcgettext@PLT
.LVL405:
	movq	%r12, %rcx
	xorl	%esi, %esi
	movl	$1, %edi
	movq	%rax, %rdx
	xorl	%eax, %eax
	call	error@PLT
.LVL406:
.L349:
	.loc 1 272 7 view .LVU1079
.LBE276:
.LBB277:
	.loc 1 267 5 view .LVU1080
	movq	%rbp, %rdi
.LVL407:
	.loc 1 267 5 view .LVU1081
	movl	%r8d, (%rsp)
.LVL408:
	.loc 1 267 5 is_stmt 1 view .LVU1082
	call	quote@PLT
.LVL409:
	movl	$5, %edx
	leaq	.LC51(%rip), %rsi
	xorl	%edi, %edi
	movq	%rax, %r12
	call	dcgettext@PLT
.LVL410:
	movl	(%rsp), %r8d
	movq	%r12, %rcx
	xorl	%esi, %esi
	movq	%rax, %rdx
	movl	$1, %edi
	xorl	%eax, %eax
	call	error@PLT
.LVL411:
.L348:
	.loc 1 267 5 is_stmt 0 view .LVU1083
.LBE277:
.LBB278:
	.loc 1 265 5 is_stmt 1 view .LVU1084
	movq	%rbp, %rdi
	call	quote@PLT
.LVL412:
	.loc 1 265 5 is_stmt 0 view .LVU1085
	movl	$5, %edx
	leaq	.LC49(%rip), %rsi
	xorl	%edi, %edi
	movq	%rax, %r12
.LVL413:
	.loc 1 265 5 view .LVU1086
	call	dcgettext@PLT
.LVL414:
	movq	%r12, %rcx
	xorl	%esi, %esi
	movl	$1, %edi
	movq	%rax, %rdx
	xorl	%eax, %eax
	call	error@PLT
.LVL415:
.L336:
	.loc 1 265 5 view .LVU1087
.LBE278:
.LBE281:
.LBE331:
	.loc 1 633 7 is_stmt 1 view .LVU1088
	.loc 1 633 20 is_stmt 0 view .LVU1089
	xorl	%edi, %edi
	movl	$5, %edx
	leaq	.LC45(%rip), %rsi
	call	dcgettext@PLT
.LVL416:
	.loc 1 633 7 view .LVU1090
	xorl	%esi, %esi
	xorl	%edi, %edi
	.loc 1 633 20 view .LVU1091
	movq	%rax, %rdx
	.loc 1 633 7 view .LVU1092
	xorl	%eax, %eax
	call	error@PLT
.LVL417:
	.loc 1 634 7 is_stmt 1 view .LVU1093
	jmp	.L332
.LVL418:
.L347:
	.loc 1 736 1 is_stmt 0 view .LVU1094
	call	__stack_chk_fail@PLT
.LVL419:
.L156:
	.loc 1 648 7 is_stmt 1 view .LVU1095
	.loc 1 648 20 is_stmt 0 view .LVU1096
	movl	$5, %edx
	leaq	.LC53(%rip), %rsi
	xorl	%edi, %edi
	call	dcgettext@PLT
.LVL420:
	.loc 1 648 7 view .LVU1097
	xorl	%edi, %edi
	xorl	%esi, %esi
	.loc 1 648 20 view .LVU1098
	movq	%rax, %rdx
	.loc 1 648 7 view .LVU1099
	xorl	%eax, %eax
	call	error@PLT
.LVL421:
	.loc 1 650 7 is_stmt 1 view .LVU1100
	movl	$1, %edi
	call	usage
.LVL422:
.L337:
	.loc 1 639 7 view .LVU1101
	movq	24(%r14,%rdx,8), %rdi
	call	quote@PLT
.LVL423:
	.loc 1 639 20 is_stmt 0 view .LVU1102
	movl	$5, %edx
	leaq	.LC46(%rip), %rsi
	.loc 1 639 7 view .LVU1103
	movq	%rax, %r12
	jmp	.L331
.LVL424:
.L321:
.LBB332:
	.loc 1 720 11 is_stmt 1 view .LVU1104
	call	free@PLT
.LVL425:
	.loc 1 721 11 view .LVU1105
	movq	120(%rsp), %rdi
	call	free@PLT
.LVL426:
	.loc 1 722 11 view .LVU1106
	jmp	.L193
.L191:
	.loc 1 718 39 is_stmt 0 discriminator 2 view .LVU1107
	fnstcw	110(%rsp)
	fsubp	%st, %st(1)
	movzwl	110(%rsp), %eax
	orb	$12, %ah
	movw	%ax, 108(%rsp)
	fldcw	108(%rsp)
	fistpq	(%rsp)
	fldcw	110(%rsp)
	movq	(%rsp), %rdx
	btcq	$63, %rdx
	jmp	.L192
.LBE332:
	.cfi_endproc
.LFE146:
	.size	main, .-main
	.local	format_buf.7164
	.comm	format_buf.7164,28,16
	.section	.rodata.str1.1
.LC61:
	.string	"equal-width"
.LC62:
	.string	"format"
.LC63:
	.string	"separator"
.LC64:
	.string	"help"
.LC65:
	.string	"version"
	.section	.data.rel.ro.local,"aw"
	.align 32
	.type	long_options, @object
	.size	long_options, 192
long_options:
	.quad	.LC61
	.long	0
	.zero	4
	.quad	0
	.long	119
	.zero	4
	.quad	.LC62
	.long	1
	.zero	4
	.quad	0
	.long	102
	.zero	4
	.quad	.LC63
	.long	1
	.zero	4
	.quad	0
	.long	115
	.zero	4
	.quad	.LC64
	.long	0
	.zero	4
	.quad	0
	.long	-130
	.zero	4
	.quad	.LC65
	.long	0
	.zero	4
	.quad	0
	.long	-131
	.zero	4
	.quad	0
	.long	0
	.zero	4
	.quad	0
	.long	0
	.zero	4
	.section	.rodata
	.type	terminator, @object
	.size	terminator, 2
terminator:
	.string	"\n"
	.local	separator
	.comm	separator,8,8
	.local	equal_width
	.comm	equal_width,1,1
	.local	locale_ok
	.comm	locale_ok,1,1
	.section	.rodata.cst4,"aM",@progbits,4
	.align 4
.LC54:
	.long	1128792064
	.align 4
.LC55:
	.long	1593835520
	.text
.Letext0:
	.file 5 "/usr/include/x86_64-linux-gnu/bits/getopt_core.h"
	.file 6 "/usr/include/x86_64-linux-gnu/bits/getopt_ext.h"
	.file 7 "/usr/lib/gcc/x86_64-linux-gnu/9/include/stddef.h"
	.file 8 "/usr/include/x86_64-linux-gnu/bits/types.h"
	.file 9 "/usr/include/x86_64-linux-gnu/bits/types/struct_FILE.h"
	.file 10 "/usr/include/x86_64-linux-gnu/bits/types/FILE.h"
	.file 11 "/usr/include/stdio.h"
	.file 12 "/usr/include/x86_64-linux-gnu/bits/sys_errlist.h"
	.file 13 "/usr/include/x86_64-linux-gnu/bits/types/time_t.h"
	.file 14 "./lib/sys/select.h"
	.file 15 "/usr/include/time.h"
	.file 16 "/usr/include/signal.h"
	.file 17 "/usr/include/unistd.h"
	.file 18 "/usr/include/errno.h"
	.file 19 "src/version.h"
	.file 20 "./lib/exitfail.h"
	.file 21 "/usr/include/stdint.h"
	.file 22 "./lib/timespec.h"
	.file 23 "/usr/include/ctype.h"
	.file 24 "./lib/version-etc.h"
	.file 25 "./lib/progname.h"
	.file 26 "./lib/quotearg.h"
	.file 27 "./lib/error.h"
	.file 28 "./lib/quote.h"
	.file 29 "/usr/include/x86_64-linux-gnu/bits/stdio.h"
	.file 30 "./lib/stdio.h"
	.file 31 "./lib/xalloc.h"
	.file 32 "/usr/include/stdlib.h"
	.file 33 "<built-in>"
	.file 34 "/usr/include/libintl.h"
	.file 35 "/usr/include/string.h"
	.file 36 "./lib/xstrtod.h"
	.file 37 "/usr/include/locale.h"
	.section	.note.GNU-stack,"",@progbits
	.section	.note.gnu.property,"a"
	.align 8
	.long	 1f - 0f
	.long	 4f - 1f
	.long	 5
0:
	.string	 "GNU"
1:
	.align 8
	.long	 0xc0000002
	.long	 3f - 2f
2:
	.long	 0x3
3:
	.align 8
4:
