	.file	"shuf.c"
	.text
.Ltext0:
	.section	.rodata.str1.1,"aMS",@progbits,1
.LC0:
	.string	"shuf"
.LC1:
	.string	" invocation"
.LC2:
	.string	""
	.section	.rodata.str1.8,"aMS",@progbits,1
	.align 8
.LC3:
	.string	"Try '%s --help' for more information.\n"
	.align 8
.LC4:
	.string	"Usage: %s [OPTION]... [FILE]\n  or:  %s -e [OPTION]... [ARG]...\n  or:  %s -i LO-HI [OPTION]...\n"
	.align 8
.LC5:
	.string	"Write a random permutation of the input lines to standard output.\n"
	.align 8
.LC6:
	.string	"\nWith no FILE, or when FILE is -, read standard input.\n"
	.align 8
.LC7:
	.string	"\nMandatory arguments to long options are mandatory for short options too.\n"
	.align 8
.LC8:
	.ascii	"  -e, --echo                treat each ARG as an input line\n"
	.ascii	"  -i, --input-range=LO-HI   treat each number LO through HI "
	.ascii	"as a"
	.string	"n input line\n  -n, --head-count=COUNT    output at most COUNT lines\n  -o, --output=FILE         write result to FILE instead of standard output\n      --random-source=FILE  get random bytes from FILE\n  -r, --repeat              output lines can be repeated\n"
	.align 8
.LC9:
	.string	"  -z, --zero-terminated     line delimiter is NUL, not newline\n"
	.align 8
.LC10:
	.string	"      --help     display this help and exit\n"
	.align 8
.LC11:
	.string	"      --version  output version information and exit\n"
	.section	.rodata.str1.1
.LC12:
	.string	"["
.LC13:
	.string	"test invocation"
.LC14:
	.string	"coreutils"
.LC15:
	.string	"Multi-call invocation"
.LC16:
	.string	"sha224sum"
.LC17:
	.string	"sha2 utilities"
.LC18:
	.string	"sha256sum"
.LC19:
	.string	"sha384sum"
.LC20:
	.string	"sha512sum"
.LC21:
	.string	"\n%s online help: <%s>\n"
	.section	.rodata.str1.8
	.align 8
.LC22:
	.string	"https://www.gnu.org/software/coreutils/"
	.section	.rodata.str1.1
.LC23:
	.string	"GNU coreutils"
.LC24:
	.string	"en_"
	.section	.rodata.str1.8
	.align 8
.LC25:
	.string	"Report any translation bugs to <https://translationproject.org/team/>\n"
	.section	.rodata.str1.1
.LC26:
	.string	"Full documentation <%s%s>\n"
	.section	.rodata.str1.8
	.align 8
.LC27:
	.string	"or available locally via: info '(coreutils) %s%s'\n"
	.text
	.p2align 4
	.globl	usage
	.type	usage, @function
usage:
.LVL0:
.LFB136:
	.file 1 "src/shuf.c"
	.loc 1 57 1 view -0
	.cfi_startproc
	.loc 1 57 1 is_stmt 0 view .LVU1
	endbr64
	pushq	%r13
	.cfi_def_cfa_offset 16
	.cfi_offset 13, -16
	.loc 1 59 5 view .LVU2
	movl	$5, %edx
	.loc 1 57 1 view .LVU3
	pushq	%r12
	.cfi_def_cfa_offset 24
	.cfi_offset 12, -24
	pushq	%rbp
	.cfi_def_cfa_offset 32
	.cfi_offset 6, -32
	movl	%edi, %ebp
	pushq	%rbx
	.cfi_def_cfa_offset 40
	.cfi_offset 3, -40
	subq	$136, %rsp
	.cfi_def_cfa_offset 176
	movq	program_name(%rip), %r12
	.loc 1 57 1 view .LVU4
	movq	%fs:40, %rax
	movq	%rax, 120(%rsp)
	xorl	%eax, %eax
	.loc 1 58 3 is_stmt 1 view .LVU5
	.loc 1 58 6 is_stmt 0 view .LVU6
	testl	%edi, %edi
	je	.L2
	.loc 1 59 5 is_stmt 1 view .LVU7
	.loc 1 59 5 view .LVU8
	leaq	.LC3(%rip), %rsi
	xorl	%edi, %edi
.LVL1:
	.loc 1 59 5 is_stmt 0 view .LVU9
	call	dcgettext@PLT
.LVL2:
.LBB107:
.LBB108:
	.file 2 "/usr/include/x86_64-linux-gnu/bits/stdio2.h"
	.loc 2 100 10 view .LVU10
	movq	stderr(%rip), %rdi
	movq	%r12, %rcx
	movl	$1, %esi
.LBE108:
.LBE107:
	.loc 1 59 5 view .LVU11
	movq	%rax, %rdx
.LVL3:
.LBB110:
.LBI107:
	.loc 2 98 1 is_stmt 1 view .LVU12
.LBB109:
	.loc 2 100 3 view .LVU13
	.loc 2 100 10 is_stmt 0 view .LVU14
	xorl	%eax, %eax
.LVL4:
	.loc 2 100 10 view .LVU15
	call	__fprintf_chk@PLT
.LVL5:
.L3:
	.loc 2 100 10 view .LVU16
.LBE109:
.LBE110:
	.loc 1 91 3 is_stmt 1 view .LVU17
	movl	%ebp, %edi
	call	exit@PLT
.LVL6:
.L2:
	.loc 1 62 7 view .LVU18
	.loc 1 62 15 is_stmt 0 view .LVU19
	leaq	.LC4(%rip), %rsi
	xorl	%edi, %edi
.LVL7:
.LBB111:
.LBB112:
	.file 3 "src/system.h"
	.loc 3 636 67 view .LVU20
	leaq	.LC18(%rip), %rbx
.LBE112:
.LBE111:
	.loc 1 62 15 view .LVU21
	call	dcgettext@PLT
.LVL8:
.LBB138:
.LBB139:
	.loc 2 107 10 view .LVU22
	movq	%r12, %r8
	movq	%r12, %rcx
	movq	%r12, %rdx
.LBE139:
.LBE138:
	.loc 1 62 15 view .LVU23
	movq	%rax, %rsi
.LVL9:
.LBB141:
.LBI138:
	.loc 2 105 1 is_stmt 1 view .LVU24
.LBB140:
	.loc 2 107 3 view .LVU25
	.loc 2 107 10 is_stmt 0 view .LVU26
	movl	$1, %edi
	xorl	%eax, %eax
.LVL10:
	.loc 2 107 10 view .LVU27
	call	__printf_chk@PLT
.LVL11:
	.loc 2 107 10 view .LVU28
.LBE140:
.LBE141:
	.loc 1 68 7 is_stmt 1 view .LVU29
	movq	stdout(%rip), %r12
	movl	$5, %edx
	xorl	%edi, %edi
	leaq	.LC5(%rip), %rsi
	call	dcgettext@PLT
.LVL12:
	movq	%r12, %rsi
	movq	%rax, %rdi
	call	fputs_unlocked@PLT
.LVL13:
	.loc 1 72 7 view .LVU30
.LBB142:
.LBI142:
	.loc 3 581 1 view .LVU31
.LBB143:
	.loc 3 583 3 view .LVU32
	movq	stdout(%rip), %r12
	movl	$5, %edx
	xorl	%edi, %edi
	leaq	.LC6(%rip), %rsi
	call	dcgettext@PLT
.LVL14:
	movq	%r12, %rsi
	movq	%rax, %rdi
	call	fputs_unlocked@PLT
.LVL15:
.LBE143:
.LBE142:
	.loc 1 73 7 view .LVU33
.LBB144:
.LBI144:
	.loc 3 588 1 view .LVU34
.LBB145:
	.loc 3 590 3 view .LVU35
	movq	stdout(%rip), %r12
	movl	$5, %edx
	xorl	%edi, %edi
	leaq	.LC7(%rip), %rsi
	call	dcgettext@PLT
.LVL16:
	movq	%r12, %rsi
	movq	%rax, %rdi
	call	fputs_unlocked@PLT
.LVL17:
.LBE145:
.LBE144:
	.loc 1 75 7 view .LVU36
	movq	stdout(%rip), %r12
	movl	$5, %edx
	xorl	%edi, %edi
	leaq	.LC8(%rip), %rsi
	call	dcgettext@PLT
.LVL18:
	movq	%r12, %rsi
	movq	%rax, %rdi
	call	fputs_unlocked@PLT
.LVL19:
	.loc 1 83 7 view .LVU37
	movq	stdout(%rip), %r12
	movl	$5, %edx
	xorl	%edi, %edi
	leaq	.LC9(%rip), %rsi
	call	dcgettext@PLT
.LVL20:
	movq	%r12, %rsi
	movq	%rax, %rdi
	call	fputs_unlocked@PLT
.LVL21:
	.loc 1 86 7 view .LVU38
	movq	stdout(%rip), %r12
	movl	$5, %edx
	xorl	%edi, %edi
	leaq	.LC10(%rip), %rsi
	call	dcgettext@PLT
.LVL22:
	movq	%r12, %rsi
	movq	%rax, %rdi
	call	fputs_unlocked@PLT
.LVL23:
	.loc 1 87 7 view .LVU39
	movq	stdout(%rip), %r12
	movl	$5, %edx
	xorl	%edi, %edi
	leaq	.LC11(%rip), %rsi
	call	dcgettext@PLT
.LVL24:
	movq	%r12, %rsi
	movq	%rax, %rdi
	call	fputs_unlocked@PLT
.LVL25:
	.loc 1 88 7 view .LVU40
.LBB146:
.LBI111:
	.loc 3 634 1 view .LVU41
.LBB137:
	.loc 3 636 3 view .LVU42
	.loc 3 636 67 is_stmt 0 view .LVU43
	leaq	.LC12(%rip), %rax
	movq	%rbx, 48(%rsp)
	leaq	.LC19(%rip), %rbx
	movq	%rax, (%rsp)
	leaq	.LC13(%rip), %rax
	movq	%rax, 8(%rsp)
	leaq	.LC14(%rip), %rax
	movq	%rax, 16(%rsp)
	leaq	.LC15(%rip), %rax
	movq	%rax, 24(%rsp)
	leaq	.LC16(%rip), %rax
	movq	$0, 96(%rsp)
	movq	$0, 104(%rsp)
	.loc 3 646 3 is_stmt 1 view .LVU44
.LVL26:
	.loc 3 647 3 view .LVU45
	.loc 3 649 3 view .LVU46
	.loc 3 649 9 view .LVU47
	.loc 3 636 67 is_stmt 0 view .LVU48
	movq	%rax, 32(%rsp)
	leaq	.LC17(%rip), %rax
	movq	%rbx, 64(%rsp)
	leaq	.LC20(%rip), %rbx
	movq	%rax, 40(%rsp)
	movq	%rax, 56(%rsp)
	movq	%rax, 72(%rsp)
	movq	%rbx, 80(%rsp)
	leaq	.LC0(%rip), %rbx
	movq	%rax, 88(%rsp)
	.loc 3 647 25 view .LVU49
	movq	%rsp, %rax
.LVL27:
	.p2align 4,,10
	.p2align 3
.L5:
	.loc 3 650 5 is_stmt 1 view .LVU50
	.loc 3 649 18 is_stmt 0 view .LVU51
	movq	16(%rax), %rdi
	.loc 3 650 13 view .LVU52
	addq	$16, %rax
.LVL28:
	.loc 3 649 9 is_stmt 1 view .LVU53
	testq	%rdi, %rdi
	je	.L4
	.loc 3 649 33 is_stmt 0 view .LVU54
	movl	$5, %ecx
	movq	%rbx, %rsi
	repz cmpsb
	seta	%dl
	sbbb	$0, %dl
	.loc 3 649 28 view .LVU55
	testb	%dl, %dl
	jne	.L5
.L4:
	.loc 3 652 3 is_stmt 1 view .LVU56
	.loc 3 652 15 is_stmt 0 view .LVU57
	movq	8(%rax), %r12
	.loc 3 655 11 view .LVU58
	movl	$5, %edx
	leaq	.LC21(%rip), %rsi
	xorl	%edi, %edi
	.loc 3 652 6 view .LVU59
	testq	%r12, %r12
	je	.L6
	.loc 3 653 5 is_stmt 1 view .LVU60
.LVL29:
	.loc 3 655 3 view .LVU61
	.loc 3 655 11 is_stmt 0 view .LVU62
	call	dcgettext@PLT
.LVL30:
.LBB113:
.LBB114:
	.loc 2 107 10 view .LVU63
	leaq	.LC22(%rip), %rcx
	movl	$1, %edi
	leaq	.LC23(%rip), %rdx
.LBE114:
.LBE113:
	.loc 3 655 11 view .LVU64
	movq	%rax, %rsi
.LVL31:
.LBB118:
.LBI113:
	.loc 2 105 1 is_stmt 1 view .LVU65
.LBB115:
	.loc 2 107 3 view .LVU66
	.loc 2 107 10 is_stmt 0 view .LVU67
	xorl	%eax, %eax
.LVL32:
	.loc 2 107 10 view .LVU68
	call	__printf_chk@PLT
.LVL33:
	.loc 2 107 10 view .LVU69
.LBE115:
.LBE118:
	.loc 3 659 3 is_stmt 1 view .LVU70
	.loc 3 659 29 is_stmt 0 view .LVU71
	movl	$5, %edi
	xorl	%esi, %esi
	call	setlocale@PLT
.LVL34:
	movq	%rax, %rdi
.LVL35:
	.loc 3 660 3 is_stmt 1 view .LVU72
	.loc 3 660 6 is_stmt 0 view .LVU73
	testq	%rax, %rax
	je	.L7
	.loc 3 660 22 view .LVU74
	movl	$3, %edx
	leaq	.LC24(%rip), %rsi
	call	strncmp@PLT
.LVL36:
	.loc 3 660 19 view .LVU75
	testl	%eax, %eax
	jne	.L10
.LVL37:
.L7:
	.loc 3 669 3 is_stmt 1 view .LVU76
	.loc 3 669 11 is_stmt 0 view .LVU77
	xorl	%edi, %edi
	movl	$5, %edx
	leaq	.LC26(%rip), %rsi
	call	dcgettext@PLT
.LVL38:
.LBB119:
.LBB120:
	.loc 2 107 10 view .LVU78
	leaq	.LC0(%rip), %rcx
	leaq	.LC22(%rip), %rdx
	movl	$1, %edi
.LBE120:
.LBE119:
	.loc 3 669 11 view .LVU79
	movq	%rax, %rsi
.LVL39:
.LBB126:
.LBI119:
	.loc 2 105 1 is_stmt 1 view .LVU80
.LBB121:
	.loc 2 107 3 view .LVU81
	.loc 2 107 10 is_stmt 0 view .LVU82
	xorl	%eax, %eax
.LVL40:
	.loc 2 107 10 view .LVU83
.LBE121:
.LBE126:
	.loc 3 671 3 view .LVU84
	leaq	.LC1(%rip), %r13
.LBB127:
.LBB122:
	.loc 2 107 10 view .LVU85
	call	__printf_chk@PLT
.LVL41:
	.loc 2 107 10 view .LVU86
.LBE122:
.LBE127:
	.loc 3 671 3 is_stmt 1 view .LVU87
	cmpq	%rbx, %r12
	leaq	.LC2(%rip), %rcx
	cmovne	%rcx, %r13
.L8:
	.loc 3 671 11 is_stmt 0 view .LVU88
	xorl	%edi, %edi
	leaq	.LC27(%rip), %rsi
	movl	$5, %edx
	call	dcgettext@PLT
.LVL42:
.LBB128:
.LBB129:
	.loc 2 107 10 view .LVU89
	movq	%r13, %rcx
	movq	%r12, %rdx
	movl	$1, %edi
.LBE129:
.LBE128:
	.loc 3 671 11 view .LVU90
	movq	%rax, %rsi
.LVL43:
.LBB131:
.LBI128:
	.loc 2 105 1 is_stmt 1 view .LVU91
.LBB130:
	.loc 2 107 3 view .LVU92
	.loc 2 107 10 is_stmt 0 view .LVU93
	xorl	%eax, %eax
.LVL44:
	.loc 2 107 10 view .LVU94
	call	__printf_chk@PLT
.LVL45:
	.loc 2 107 10 view .LVU95
.LBE130:
.LBE131:
	.loc 3 673 1 view .LVU96
	jmp	.L3
.LVL46:
.L6:
	.loc 3 655 3 is_stmt 1 view .LVU97
	.loc 3 655 11 is_stmt 0 view .LVU98
	call	dcgettext@PLT
.LVL47:
.LBB132:
.LBB116:
	.loc 2 107 10 view .LVU99
	leaq	.LC22(%rip), %rcx
	movl	$1, %edi
	leaq	.LC23(%rip), %rdx
.LBE116:
.LBE132:
	.loc 3 655 11 view .LVU100
	movq	%rax, %rsi
.LVL48:
.LBB133:
	.loc 2 105 1 is_stmt 1 view .LVU101
.LBB117:
	.loc 2 107 3 view .LVU102
	.loc 2 107 10 is_stmt 0 view .LVU103
	xorl	%eax, %eax
.LVL49:
	.loc 2 107 10 view .LVU104
	call	__printf_chk@PLT
.LVL50:
	.loc 2 107 10 view .LVU105
.LBE117:
.LBE133:
	.loc 3 659 3 is_stmt 1 view .LVU106
	.loc 3 659 29 is_stmt 0 view .LVU107
	movl	$5, %edi
	xorl	%esi, %esi
	call	setlocale@PLT
.LVL51:
	movq	%rax, %rdi
.LVL52:
	.loc 3 660 3 is_stmt 1 view .LVU108
	.loc 3 660 6 is_stmt 0 view .LVU109
	testq	%rax, %rax
	je	.L9
	.loc 3 660 22 view .LVU110
	movl	$3, %edx
	leaq	.LC24(%rip), %rsi
	call	strncmp@PLT
.LVL53:
	.loc 3 660 19 view .LVU111
	testl	%eax, %eax
	jne	.L29
.L9:
	.loc 3 669 3 is_stmt 1 view .LVU112
	.loc 3 669 11 is_stmt 0 view .LVU113
	movl	$5, %edx
	leaq	.LC26(%rip), %rsi
	xorl	%edi, %edi
	call	dcgettext@PLT
.LVL54:
.LBB134:
.LBB123:
	.loc 2 107 10 view .LVU114
	leaq	.LC0(%rip), %rcx
	leaq	.LC22(%rip), %rdx
	movl	$1, %edi
.LBE123:
.LBE134:
	.loc 3 669 11 view .LVU115
	movq	%rax, %rsi
.LVL55:
.LBB135:
	.loc 2 105 1 is_stmt 1 view .LVU116
.LBB124:
	.loc 2 107 3 view .LVU117
	.loc 2 107 10 is_stmt 0 view .LVU118
	xorl	%eax, %eax
.LVL56:
	.loc 2 107 10 view .LVU119
.LBE124:
.LBE135:
	.loc 3 646 15 view .LVU120
	leaq	.LC0(%rip), %r12
.LBB136:
.LBB125:
	.loc 2 107 10 view .LVU121
	call	__printf_chk@PLT
.LVL57:
	.loc 2 107 10 view .LVU122
.LBE125:
.LBE136:
	.loc 3 671 3 is_stmt 1 view .LVU123
	leaq	.LC1(%rip), %r13
	jmp	.L8
.L29:
	.loc 3 646 15 is_stmt 0 view .LVU124
	leaq	.LC0(%rip), %r12
.LVL58:
.L10:
	.loc 3 666 7 is_stmt 1 view .LVU125
	movq	stdout(%rip), %r13
	xorl	%edi, %edi
	movl	$5, %edx
	leaq	.LC25(%rip), %rsi
	call	dcgettext@PLT
.LVL59:
	movq	%rax, %rdi
	movq	%r13, %rsi
	call	fputs_unlocked@PLT
.LVL60:
	jmp	.L7
.LBE137:
.LBE146:
	.cfi_endproc
.LFE136:
	.size	usage, .-usage
	.section	.rodata.str1.1
.LC28:
	.string	"getrandom"
.LC29:
	.string	"/usr/local/share/locale"
.LC30:
	.string	"multiple -i options specified"
.LC31:
	.string	"invalid input range"
.LC32:
	.string	"%s: %s"
.LC33:
	.string	"invalid line count: %s"
	.section	.rodata.str1.8
	.align 8
.LC34:
	.string	"multiple output files specified"
	.align 8
.LC35:
	.string	"multiple random sources specified"
	.section	.rodata.str1.1
.LC36:
	.string	"Paul Eggert"
.LC37:
	.string	"ei:n:o:rz"
	.section	.rodata.str1.8
	.align 8
.LC38:
	.string	"cannot combine -e and -i options"
	.section	.rodata.str1.1
.LC39:
	.string	"extra operand %s"
.LC40:
	.string	"-"
.LC41:
	.string	"r"
.LC42:
	.string	"%s"
.LC43:
	.string	"read error"
.LC44:
	.string	"too many input lines"
.LC45:
	.string	"no lines to repeat"
.LC46:
	.string	"%lu%c"
.LC47:
	.string	"write error"
.LC48:
	.string	"w"
	.section	.text.startup,"ax",@progbits
	.p2align 4
	.globl	main
	.type	main, @function
main:
.LVL61:
.LFB147:
	.loc 1 373 1 view -0
	.cfi_startproc
	.loc 1 373 1 is_stmt 0 view .LVU127
	endbr64
	pushq	%r15
	.cfi_def_cfa_offset 16
	.cfi_offset 15, -16
	.loc 1 381 8 view .LVU128
	movl	$10, %r15d
	.loc 1 373 1 view .LVU129
	pushq	%r14
	.cfi_def_cfa_offset 24
	.cfi_offset 14, -24
	pushq	%r13
	.cfi_def_cfa_offset 32
	.cfi_offset 13, -32
	movl	%edi, %r13d
	pushq	%r12
	.cfi_def_cfa_offset 40
	.cfi_offset 12, -40
	.loc 1 384 8 view .LVU130
	xorl	%r12d, %r12d
	.loc 1 373 1 view .LVU131
	pushq	%rbp
	.cfi_def_cfa_offset 48
	.cfi_offset 6, -48
	movq	%rsi, %rbp
	pushq	%rbx
	.cfi_def_cfa_offset 56
	.cfi_offset 3, -56
	leaq	.L37(%rip), %rbx
	subq	$280, %rsp
	.cfi_def_cfa_offset 336
	.loc 1 397 3 view .LVU132
	movq	(%rsi), %rdi
.LVL62:
	.loc 1 373 1 view .LVU133
	movq	%fs:40, %rax
	movq	%rax, 264(%rsp)
	xorl	%eax, %eax
	.loc 1 374 3 is_stmt 1 view .LVU134
.LVL63:
	.loc 1 375 3 view .LVU135
	.loc 1 376 3 view .LVU136
	.loc 1 377 3 view .LVU137
	.loc 1 378 3 view .LVU138
	.loc 1 379 3 view .LVU139
	.loc 1 380 3 view .LVU140
	.loc 1 381 3 view .LVU141
	.loc 1 382 3 view .LVU142
	.loc 1 383 3 view .LVU143
	.loc 1 384 3 view .LVU144
	.loc 1 386 3 view .LVU145
	.loc 1 387 3 view .LVU146
	.loc 1 388 3 view .LVU147
	.loc 1 389 3 view .LVU148
	.loc 1 390 3 view .LVU149
	.loc 1 391 3 view .LVU150
	.loc 1 392 3 view .LVU151
	.loc 1 393 3 view .LVU152
	.loc 1 394 3 view .LVU153
	.loc 1 396 33 view .LVU154
	.loc 1 397 3 view .LVU155
	call	set_program_name@PLT
.LVL64:
	.loc 1 398 3 view .LVU156
	leaq	.LC2(%rip), %rsi
	movl	$6, %edi
	call	setlocale@PLT
.LVL65:
	.loc 1 399 3 view .LVU157
	leaq	.LC29(%rip), %rsi
	leaq	.LC14(%rip), %rdi
	call	bindtextdomain@PLT
.LVL66:
	.loc 1 400 3 view .LVU158
	leaq	.LC14(%rip), %rdi
	call	textdomain@PLT
.LVL67:
	.loc 1 402 3 view .LVU159
	movq	close_stdout@GOTPCREL(%rip), %rdi
	call	atexit@PLT
.LVL68:
	.loc 1 404 3 view .LVU160
	.loc 1 375 8 is_stmt 0 view .LVU161
	movb	$0, 78(%rsp)
	.loc 1 380 9 view .LVU162
	movq	$0, 8(%rsp)
	.loc 1 379 15 view .LVU163
	movq	$0, 24(%rsp)
	.loc 1 378 10 view .LVU164
	movq	$-1, 16(%rsp)
	.loc 1 377 10 view .LVU165
	movq	$0, 48(%rsp)
	.loc 1 376 10 view .LVU166
	movq	$-1, 32(%rsp)
	.loc 1 374 8 view .LVU167
	movb	$0, 40(%rsp)
.LVL69:
.L31:
	.loc 1 404 9 is_stmt 1 view .LVU168
	.loc 1 404 18 is_stmt 0 view .LVU169
	xorl	%r8d, %r8d
	leaq	long_opts(%rip), %rcx
	movq	%rbp, %rsi
	movl	%r13d, %edi
	leaq	.LC37(%rip), %rdx
	call	getopt_long@PLT
.LVL70:
	.loc 1 404 9 view .LVU170
	cmpl	$-1, %eax
	je	.L202
	.loc 1 405 5 is_stmt 1 view .LVU171
	cmpl	$128, %eax
	jg	.L201
	cmpl	$100, %eax
	jle	.L203
	subl	$101, %eax
.LVL71:
	.loc 1 405 5 is_stmt 0 view .LVU172
	cmpl	$27, %eax
	ja	.L201
	movslq	(%rbx,%rax,4), %rax
	addq	%rbx, %rax
	notrack jmp	*%rax
	.section	.rodata
	.align 4
	.align 4
.L37:
	.long	.L43-.L37
	.long	.L201-.L37
	.long	.L201-.L37
	.long	.L201-.L37
	.long	.L42-.L37
	.long	.L201-.L37
	.long	.L201-.L37
	.long	.L201-.L37
	.long	.L201-.L37
	.long	.L41-.L37
	.long	.L40-.L37
	.long	.L201-.L37
	.long	.L201-.L37
	.long	.L39-.L37
	.long	.L201-.L37
	.long	.L201-.L37
	.long	.L201-.L37
	.long	.L201-.L37
	.long	.L201-.L37
	.long	.L201-.L37
	.long	.L201-.L37
	.long	.L136-.L37
	.long	.L201-.L37
	.long	.L201-.L37
	.long	.L201-.L37
	.long	.L201-.L37
	.long	.L201-.L37
	.long	.L36-.L37
	.section	.text.startup
.L136:
.LVL72:
	.loc 1 471 17 view .LVU173
	xorl	%r15d, %r15d
	jmp	.L31
.LVL73:
.L39:
	.loc 1 405 5 view .LVU174
	movl	$1, %r12d
.LVL74:
	.loc 1 405 5 view .LVU175
	jmp	.L31
.LVL75:
.L40:
	.loc 1 455 9 is_stmt 1 view .LVU176
	.loc 1 455 12 is_stmt 0 view .LVU177
	movq	24(%rsp), %rax
	movq	optarg(%rip), %r14
	testq	%rax, %rax
	je	.L139
	.loc 1 455 25 discriminator 1 view .LVU178
	movq	%r14, %rsi
	movq	%rax, %rdi
	call	strcmp@PLT
.LVL76:
	.loc 1 455 21 discriminator 1 view .LVU179
	testl	%eax, %eax
	jne	.L204
.L139:
	movq	%r14, 24(%rsp)
.LVL77:
	.loc 1 455 21 discriminator 1 view .LVU180
	jmp	.L31
.LVL78:
.L41:
.LBB233:
	.loc 1 443 11 is_stmt 1 view .LVU181
	.loc 1 444 11 view .LVU182
	.loc 1 444 28 is_stmt 0 view .LVU183
	movq	optarg(%rip), %rdi
	xorl	%esi, %esi
	leaq	80(%rsp), %rcx
	leaq	.LC2(%rip), %r8
	movl	$10, %edx
	call	xstrtoumax@PLT
.LVL79:
	.loc 1 446 11 is_stmt 1 view .LVU184
	.loc 1 446 14 is_stmt 0 view .LVU185
	testl	%eax, %eax
	jne	.L47
	.loc 1 447 13 is_stmt 1 view .LVU186
	.loc 1 447 24 is_stmt 0 view .LVU187
	movq	16(%rsp), %rcx
	movq	80(%rsp), %rax
.LVL80:
	.loc 1 447 24 view .LVU188
	cmpq	%rax, %rcx
	cmovbe	%rcx, %rax
	movq	%rax, 16(%rsp)
.LVL81:
	.loc 1 447 24 view .LVU189
	jmp	.L31
.LVL82:
.L42:
	.loc 1 447 24 view .LVU190
.LBE233:
.LBB235:
	.loc 1 413 11 is_stmt 1 view .LVU191
	.loc 1 413 21 is_stmt 0 view .LVU192
	movq	optarg(%rip), %rdx
	movl	$45, %esi
	movq	%rdx, %rdi
	movq	%rdx, 32(%rsp)
	call	strchr@PLT
.LVL83:
	.loc 1 417 14 view .LVU193
	movq	32(%rsp), %rdx
	.loc 1 415 16 view .LVU194
	testq	%rax, %rax
	.loc 1 413 21 view .LVU195
	movq	%rax, %r14
.LVL84:
	.loc 1 414 11 is_stmt 1 view .LVU196
	.loc 1 415 11 view .LVU197
	.loc 1 417 11 view .LVU198
	.loc 1 415 16 is_stmt 0 view .LVU199
	sete	56(%rsp)
.LVL85:
	.loc 1 417 14 view .LVU200
	cmpb	$0, 78(%rsp)
	jne	.L205
	.loc 1 419 11 is_stmt 1 view .LVU201
.LVL86:
	.loc 1 421 11 view .LVU202
	.loc 1 421 14 is_stmt 0 view .LVU203
	testq	%rax, %rax
	je	.L45
	.loc 1 423 15 is_stmt 1 view .LVU204
	.loc 1 423 18 is_stmt 0 view .LVU205
	movb	$0, (%rax)
	.loc 1 424 15 is_stmt 1 view .LVU206
	.loc 1 425 38 is_stmt 0 view .LVU207
	xorl	%edi, %edi
	movl	$5, %edx
	leaq	.LC31(%rip), %rsi
	call	dcgettext@PLT
.LVL87:
	.loc 1 424 26 view .LVU208
	movq	optarg(%rip), %rdi
	xorl	%r9d, %r9d
	xorl	%esi, %esi
	.loc 1 425 38 view .LVU209
	movq	%rax, %r8
	.loc 1 424 26 view .LVU210
	leaq	.LC2(%rip), %rcx
	movq	$-1, %rdx
	call	xdectoumax@PLT
.LVL88:
	.loc 1 426 15 is_stmt 1 view .LVU211
	.loc 1 426 18 is_stmt 0 view .LVU212
	movb	$45, (%r14)
	.loc 1 427 15 is_stmt 1 view .LVU213
.LVL89:
	.loc 1 430 11 view .LVU214
	.loc 1 431 34 is_stmt 0 view .LVU215
	xorl	%edi, %edi
	movl	$5, %edx
	leaq	.LC31(%rip), %rsi
	.loc 1 424 26 view .LVU216
	movq	%rax, 32(%rsp)
	.loc 1 431 34 view .LVU217
	call	dcgettext@PLT
.LVL90:
	.loc 1 430 22 view .LVU218
	xorl	%esi, %esi
	xorl	%r9d, %r9d
	.loc 1 427 25 view .LVU219
	leaq	1(%r14), %rdi
.LVL91:
	.loc 1 430 22 view .LVU220
	leaq	.LC2(%rip), %rcx
	movq	$-1, %rdx
	.loc 1 431 34 view .LVU221
	movq	%rax, %r8
	.loc 1 430 22 view .LVU222
	call	xdectoumax@PLT
.LVL92:
	.loc 1 433 30 view .LVU223
	movq	32(%rsp), %rsi
	.loc 1 430 22 view .LVU224
	movq	%rax, %rcx
	movq	%rax, 48(%rsp)
.LVL93:
	.loc 1 433 11 is_stmt 1 view .LVU225
	.loc 1 434 11 view .LVU226
	.loc 1 435 11 view .LVU227
	.loc 1 433 30 is_stmt 0 view .LVU228
	subq	%rsi, %rax
.LVL94:
	.loc 1 434 46 view .LVU229
	cmpq	$-1, %rax
	sete	%dl
	cmpq	%rcx, %rsi
	seta	%al
	.loc 1 435 14 view .LVU230
	cmpb	%al, %dl
	jne	.L128
	cmpb	$0, 56(%rsp)
	jne	.L128
	.loc 1 419 23 view .LVU231
	movb	$1, 78(%rsp)
	jmp	.L31
.LVL95:
.L43:
	.loc 1 419 23 view .LVU232
.LBE235:
	.loc 1 408 14 view .LVU233
	movb	$1, 40(%rsp)
.LVL96:
	.loc 1 408 14 view .LVU234
	jmp	.L31
.LVL97:
.L36:
	.loc 1 461 9 is_stmt 1 view .LVU235
	.loc 1 461 12 is_stmt 0 view .LVU236
	cmpq	$0, 8(%rsp)
	.loc 1 461 31 view .LVU237
	movq	optarg(%rip), %r14
	.loc 1 461 12 view .LVU238
	je	.L49
	.loc 1 461 31 discriminator 1 view .LVU239
	movq	8(%rsp), %rdi
	movq	%r14, %rsi
	call	strcmp@PLT
.LVL98:
	.loc 1 461 27 discriminator 1 view .LVU240
	testl	%eax, %eax
	jne	.L206
.L49:
	.loc 1 463 9 is_stmt 1 view .LVU241
	.loc 1 463 23 is_stmt 0 view .LVU242
	movq	%r14, 8(%rsp)
.LVL99:
	.loc 1 464 9 is_stmt 1 view .LVU243
	jmp	.L31
.LVL100:
	.p2align 4,,10
	.p2align 3
.L203:
	.loc 1 405 5 is_stmt 0 view .LVU244
	cmpl	$-131, %eax
	jne	.L207
	.loc 1 474 7 is_stmt 1 view .LVU245
	.loc 1 474 28 view .LVU246
	.loc 1 475 7 view .LVU247
	movq	stdout(%rip), %rdi
	movq	Version(%rip), %rcx
	xorl	%eax, %eax
.LVL101:
	.loc 1 475 7 is_stmt 0 view .LVU248
	xorl	%r9d, %r9d
	leaq	.LC36(%rip), %r8
	leaq	.LC23(%rip), %rdx
	leaq	.LC0(%rip), %rsi
	call	version_etc@PLT
.LVL102:
	.loc 1 475 7 is_stmt 1 view .LVU249
	xorl	%edi, %edi
	call	exit@PLT
.LVL103:
.L207:
	.loc 1 405 5 is_stmt 0 view .LVU250
	cmpl	$-130, %eax
	jne	.L201
	.loc 1 474 7 is_stmt 1 view .LVU251
	xorl	%edi, %edi
	call	usage
.LVL104:
.L47:
.LBB238:
	.loc 1 448 16 view .LVU252
	.loc 1 448 19 is_stmt 0 view .LVU253
	subl	$1, %eax
.LVL105:
	.loc 1 448 19 view .LVU254
	je	.L31
.LBB234:
	.loc 1 449 13 is_stmt 1 view .LVU255
	movq	optarg(%rip), %rdi
	call	quote@PLT
.LVL106:
	movl	$5, %edx
	leaq	.LC33(%rip), %rsi
	xorl	%edi, %edi
	movq	%rax, %r12
.LVL107:
	.loc 1 449 13 is_stmt 0 view .LVU256
	call	dcgettext@PLT
.LVL108:
	movq	%r12, %rcx
	xorl	%esi, %esi
	movl	$1, %edi
	movq	%rax, %rdx
	xorl	%eax, %eax
	call	error@PLT
.LVL109:
.L202:
	.loc 1 449 13 view .LVU257
.LBE234:
.LBE238:
	.loc 1 480 3 is_stmt 1 view .LVU258
	.loc 1 480 21 is_stmt 0 view .LVU259
	movslq	optind(%rip), %rax
.LVL110:
	.loc 1 480 14 view .LVU260
	subl	%eax, %r13d
.LVL111:
	.loc 1 481 3 is_stmt 1 view .LVU261
	.loc 1 481 11 is_stmt 0 view .LVU262
	leaq	0(%rbp,%rax,8), %r14
.LVL112:
	.loc 1 484 3 is_stmt 1 view .LVU263
	.loc 1 484 6 is_stmt 0 view .LVU264
	movzbl	40(%rsp), %eax
	andb	78(%rsp), %al
	movb	%al, 79(%rsp)
	jne	.L208
	.loc 1 489 3 is_stmt 1 view .LVU265
	.loc 1 489 7 is_stmt 0 view .LVU266
	cmpb	$0, 78(%rsp)
	je	.L52
	.loc 1 489 6 discriminator 1 view .LVU267
	testl	%r13d, %r13d
	jg	.L209
	.loc 1 496 3 is_stmt 1 view .LVU268
	.loc 1 496 6 is_stmt 0 view .LVU269
	cmpq	$0, 16(%rsp)
	jne	.L210
.L148:
	.loc 1 498 15 view .LVU270
	movq	$0, 56(%rsp)
	.loc 1 499 12 view .LVU271
	xorl	%r14d, %r14d
.LVL113:
	.loc 1 382 10 view .LVU272
	movq	$0, 64(%rsp)
.LVL114:
.L56:
	.loc 1 537 3 is_stmt 1 view .LVU273
	.loc 1 537 68 is_stmt 0 view .LVU274
	movq	56(%rsp), %rax
	cmpq	%rax, 16(%rsp)
	jb	.L149
	movq	%rax, %rbx
	testb	%r12b, %r12b
	jne	.L82
.L80:
.LVL115:
	.loc 1 542 40 view .LVU275
	movq	56(%rsp), %rsi
	movq	%rbx, %rdi
	call	randperm_bound@PLT
.LVL116:
	.loc 1 539 20 view .LVU276
	movq	8(%rsp), %rdi
	.loc 1 542 40 view .LVU277
	movq	%rax, %rsi
	.loc 1 539 20 view .LVU278
	call	randint_all_new@PLT
.LVL117:
	movq	%rax, %r12
.LVL118:
	.loc 1 543 3 is_stmt 1 view .LVU279
	.loc 1 543 6 is_stmt 0 view .LVU280
	testq	%rax, %rax
	je	.L126
	.loc 1 559 3 is_stmt 1 view .LVU281
	movzbl	40(%rsp), %edx
	orb	78(%rsp), %dl
	cmpq	$0, 16(%rsp)
	sete	%al
.LVL119:
	.loc 1 391 22 is_stmt 0 view .LVU282
	xorl	%ebp, %ebp
	.loc 1 559 34 view .LVU283
	orb	%al, %dl
	je	.L211
.LVL120:
.L100:
	.loc 1 563 5 is_stmt 1 view .LVU284
	.loc 1 563 19 is_stmt 0 view .LVU285
	movq	56(%rsp), %rdx
	movq	%rbx, %rsi
	movq	%r12, %rdi
	call	randperm_new@PLT
.LVL121:
	.loc 1 565 6 view .LVU286
	cmpq	$0, 24(%rsp)
	.loc 1 563 19 view .LVU287
	movq	%rax, %r13
.LVL122:
	.loc 1 565 3 is_stmt 1 view .LVU288
	.loc 1 565 6 is_stmt 0 view .LVU289
	je	.L102
	.loc 1 565 20 view .LVU290
	movq	stdout(%rip), %rdx
	movq	24(%rsp), %rdi
	leaq	.LC48(%rip), %rsi
	call	freopen_safer@PLT
.LVL123:
	.loc 1 565 15 view .LVU291
	testq	%rax, %rax
	jne	.L102
.LVL124:
.L129:
.LBB239:
	.loc 1 566 5 is_stmt 1 view .LVU292
	movq	24(%rsp), %rdx
	movl	$3, %esi
	xorl	%edi, %edi
	call	quotearg_n_style_colon@PLT
.LVL125:
	movq	%rax, %r12
	call	__errno_location@PLT
.LVL126:
	movq	%r12, %rcx
	movl	$1, %edi
	leaq	.LC42(%rip), %rdx
	movl	(%rax), %esi
	xorl	%eax, %eax
	call	error@PLT
.LVL127:
.L102:
	.loc 1 566 5 is_stmt 0 view .LVU293
.LBE239:
	.loc 1 586 7 is_stmt 1 view .LVU294
	.loc 1 586 10 is_stmt 0 view .LVU295
	cmpb	$0, 79(%rsp)
	jne	.L212
	.loc 1 588 12 is_stmt 1 view .LVU296
	.loc 1 588 15 is_stmt 0 view .LVU297
	cmpb	$0, 78(%rsp)
	je	.L147
	.loc 1 589 9 is_stmt 1 view .LVU298
.LVL128:
.LBB240:
.LBI240:
	.loc 1 321 1 view .LVU299
.LBE240:
	.loc 1 324 3 view .LVU300
.LBB249:
.LBB241:
	.loc 1 324 8 view .LVU301
	.loc 1 324 15 is_stmt 0 view .LVU302
	xorl	%r14d, %r14d
	movq	%r12, %rax
	movq	%rbp, 8(%rsp)
	movq	32(%rsp), %rbp
	movq	%r14, %r12
	movq	%rax, %r14
	.loc 1 324 3 view .LVU303
	jmp	.L116
.LVL129:
.L117:
.LBB242:
	.loc 1 326 7 is_stmt 1 view .LVU304
	.loc 1 327 7 view .LVU305
.LBB243:
.LBI243:
	.loc 2 105 1 view .LVU306
.LBB244:
	.loc 2 107 3 view .LVU307
.LBE244:
.LBE243:
	.loc 1 326 25 is_stmt 0 view .LVU308
	movq	0(%r13,%r12,8), %rdx
.LBB247:
.LBB245:
	.loc 2 107 10 view .LVU309
	xorl	%eax, %eax
	movl	%r15d, %ecx
	movl	$1, %edi
	leaq	.LC46(%rip), %rsi
.LBE245:
.LBE247:
	.loc 1 326 25 view .LVU310
	addq	%rbp, %rdx
.LBB248:
.LBB246:
	.loc 2 107 10 view .LVU311
	call	__printf_chk@PLT
.LVL130:
	.loc 2 107 10 view .LVU312
.LBE246:
.LBE248:
	.loc 1 327 10 view .LVU313
	testl	%eax, %eax
	js	.L108
	.loc 1 327 10 view .LVU314
.LBE242:
	.loc 1 324 35 is_stmt 1 view .LVU315
	.loc 1 324 36 is_stmt 0 view .LVU316
	addq	$1, %r12
.LVL131:
.L116:
	.loc 1 324 22 is_stmt 1 view .LVU317
	.loc 1 324 3 is_stmt 0 view .LVU318
	cmpq	%rbx, %r12
	jne	.L117
	movq	8(%rsp), %rbp
	movq	%r14, %r12
.LVL132:
.L104:
	.loc 1 324 3 view .LVU319
.LBE241:
.LBE249:
	.loc 1 599 3 is_stmt 1 view .LVU320
	movq	%r13, %rdi
	call	free@PLT
.LVL133:
	.loc 1 600 3 view .LVU321
	movq	%r12, %rdi
	call	randint_all_free@PLT
.LVL134:
	.loc 1 601 3 view .LVU322
	.loc 1 601 6 is_stmt 0 view .LVU323
	movq	64(%rsp), %rbx
	testq	%rbx, %rbx
	je	.L119
	.loc 1 603 7 is_stmt 1 view .LVU324
	movq	(%rbx), %rdi
	call	free@PLT
.LVL135:
	.loc 1 604 7 view .LVU325
	movq	%rbx, %rdi
	call	free@PLT
.LVL136:
.L119:
	.loc 1 606 3 view .LVU326
	.loc 1 606 6 is_stmt 0 view .LVU327
	testq	%rbp, %rbp
	je	.L120
.LVL137:
.LBB250:
	.loc 1 609 19 is_stmt 1 view .LVU328
	.loc 1 609 7 is_stmt 0 view .LVU329
	cmpq	$0, 56(%rsp)
	je	.L123
	imulq	$24, 56(%rsp), %r12
	movq	%rbp, %rbx
	addq	%rbp, %r12
.LVL138:
	.p2align 4,,10
	.p2align 3
.L122:
	.loc 1 610 9 is_stmt 1 discriminator 3 view .LVU330
	movq	%rbx, %rdi
	addq	$24, %rbx
	call	freebuffer@PLT
.LVL139:
	.loc 1 609 32 discriminator 3 view .LVU331
	.loc 1 609 19 discriminator 3 view .LVU332
	.loc 1 609 7 is_stmt 0 discriminator 3 view .LVU333
	cmpq	%r12, %rbx
	jne	.L122
.L123:
	.loc 1 611 7 is_stmt 1 view .LVU334
	movq	%rbp, %rdi
	call	free@PLT
.LVL140:
.L120:
.LBE250:
	.loc 1 615 3 view .LVU335
	.loc 1 616 1 is_stmt 0 view .LVU336
	movq	264(%rsp), %rax
	xorq	%fs:40, %rax
	jne	.L213
	addq	$280, %rsp
	.cfi_remember_state
	.cfi_def_cfa_offset 56
	xorl	%eax, %eax
	popq	%rbx
	.cfi_def_cfa_offset 48
	popq	%rbp
	.cfi_def_cfa_offset 40
	popq	%r12
	.cfi_def_cfa_offset 32
	popq	%r13
	.cfi_def_cfa_offset 24
	popq	%r14
	.cfi_def_cfa_offset 16
	popq	%r15
	.cfi_def_cfa_offset 8
	ret
.LVL141:
.L52:
	.cfi_restore_state
	.loc 1 489 6 discriminator 2 view .LVU337
	cmpb	$0, 40(%rsp)
	jne	.L55
	.loc 1 491 57 discriminator 2 view .LVU338
	movl	$8, %eax
	.loc 1 489 6 discriminator 2 view .LVU339
	cmpl	$1, %r13d
	jle	.L55
.L53:
	.loc 1 491 7 discriminator 4 view .LVU340
	movq	(%r14,%rax), %rdi
	call	quote@PLT
.LVL142:
	.loc 1 491 20 discriminator 4 view .LVU341
	movl	$5, %edx
	leaq	.LC39(%rip), %rsi
	xorl	%edi, %edi
	.loc 1 491 7 discriminator 4 view .LVU342
	movq	%rax, %r12
.LVL143:
	.loc 1 491 20 discriminator 4 view .LVU343
	call	dcgettext@PLT
.LVL144:
	.loc 1 491 7 discriminator 4 view .LVU344
	xorl	%edi, %edi
	movq	%r12, %rcx
	xorl	%esi, %esi
	.loc 1 491 20 discriminator 4 view .LVU345
	movq	%rax, %rdx
	.loc 1 491 7 discriminator 4 view .LVU346
	xorl	%eax, %eax
	call	error@PLT
.LVL145:
	.loc 1 492 7 is_stmt 1 discriminator 4 view .LVU347
	movl	$1, %edi
	call	usage
.LVL146:
.L55:
	.loc 1 496 3 view .LVU348
	.loc 1 496 6 is_stmt 0 view .LVU349
	cmpq	$0, 16(%rsp)
	je	.L148
	.loc 1 501 8 is_stmt 1 view .LVU350
	.loc 1 501 11 is_stmt 0 view .LVU351
	cmpb	$0, 40(%rsp)
	je	.L57
	.loc 1 503 7 is_stmt 1 view .LVU352
.LVL147:
.LBB251:
.LBI251:
	.loc 1 116 1 view .LVU353
.LBB252:
	.loc 1 118 3 view .LVU354
	.loc 1 119 3 view .LVU355
	.loc 1 119 10 is_stmt 0 view .LVU356
	movslq	%r13d, %rax
	.loc 1 122 3 view .LVU357
	xorl	%edx, %edx
	.loc 1 123 13 view .LVU358
	orq	$-1, %rsi
	.loc 1 119 10 view .LVU359
	movq	%rax, 56(%rsp)
.LVL148:
	.loc 1 120 3 is_stmt 1 view .LVU360
	.loc 1 122 3 view .LVU361
	.loc 1 119 10 is_stmt 0 view .LVU362
	movq	%rax, %r8
	.loc 1 123 13 view .LVU363
	xorl	%eax, %eax
.LVL149:
	.loc 1 122 3 view .LVU364
	jmp	.L58
.LVL150:
.L59:
	.loc 1 123 5 is_stmt 1 view .LVU365
	.loc 1 123 13 is_stmt 0 view .LVU366
	movq	(%r14,%rdx,8), %rdi
	movq	%rsi, %rcx
	addq	$1, %rdx
.LVL151:
	.loc 1 123 13 view .LVU367
	repnz scasb
	notq	%rcx
	.loc 1 123 10 view .LVU368
	leaq	-1(%r8,%rcx), %r8
.LVL152:
	.loc 1 122 31 is_stmt 1 view .LVU369
.L58:
	.loc 1 122 15 view .LVU370
	.loc 1 122 3 is_stmt 0 view .LVU371
	cmpl	%edx, %r13d
	jg	.L59
	.loc 1 124 3 is_stmt 1 view .LVU372
	.loc 1 124 7 is_stmt 0 view .LVU373
	movq	%r8, %rdi
	.loc 1 126 3 view .LVU374
	xorl	%ebx, %ebx
	.loc 1 124 7 view .LVU375
	call	xmalloc@PLT
.LVL153:
	.loc 1 124 7 view .LVU376
	movq	%rax, %rbp
.LVL154:
	.loc 1 126 3 is_stmt 1 view .LVU377
	.loc 1 126 3 is_stmt 0 view .LVU378
	jmp	.L60
.LVL155:
.L61:
.LBB253:
	.loc 1 128 7 is_stmt 1 view .LVU379
.LBB254:
.LBI254:
	.file 4 "/usr/include/x86_64-linux-gnu/bits/string_fortified.h"
	.loc 4 95 1 view .LVU380
.LBB255:
	.loc 4 97 3 view .LVU381
	.loc 4 97 10 is_stmt 0 view .LVU382
	movq	(%r14,%rbx,8), %rsi
	movq	%rbp, %rdi
	call	stpcpy@PLT
.LVL156:
	.loc 4 97 10 view .LVU383
.LBE255:
.LBE254:
	.loc 1 129 7 is_stmt 1 view .LVU384
	.loc 1 129 18 is_stmt 0 view .LVU385
	movq	%rbp, (%r14,%rbx,8)
	.loc 1 130 7 is_stmt 1 view .LVU386
.LVL157:
	.loc 1 131 7 view .LVU387
	addq	$1, %rbx
.LVL158:
	.loc 1 131 12 is_stmt 0 view .LVU388
	movb	%r15b, (%rax)
	.loc 1 131 9 view .LVU389
	leaq	1(%rax), %rbp
.LVL159:
	.loc 1 131 9 view .LVU390
.LBE253:
	.loc 1 126 31 is_stmt 1 view .LVU391
.L60:
	.loc 1 126 15 view .LVU392
	.loc 1 126 3 is_stmt 0 view .LVU393
	cmpl	%ebx, %r13d
	jg	.L61
	.loc 1 134 3 is_stmt 1 view .LVU394
.LBE252:
.LBE251:
	.loc 1 382 10 is_stmt 0 view .LVU395
	movq	$0, 64(%rsp)
.LBB257:
.LBB256:
	.loc 1 134 23 view .LVU396
	movq	56(%rsp), %rax
	movq	%rbp, (%r14,%rax,8)
.LVL160:
	.loc 1 134 23 view .LVU397
.LBE256:
.LBE257:
	.loc 1 504 7 is_stmt 1 view .LVU398
	.loc 1 505 7 view .LVU399
	.loc 1 505 7 is_stmt 0 view .LVU400
	jmp	.L56
.LVL161:
.L82:
	.loc 1 539 20 view .LVU401
	movq	8(%rsp), %rdi
	orq	$-1, %rsi
	call	randint_all_new@PLT
.LVL162:
	movq	%rax, %r12
.LVL163:
	.loc 1 543 3 is_stmt 1 view .LVU402
	.loc 1 543 6 is_stmt 0 view .LVU403
	testq	%rax, %rax
	jne	.L214
.LVL164:
.L126:
.LBB258:
	.loc 1 544 5 is_stmt 1 view .LVU404
	cmpq	$0, 8(%rsp)
	je	.L215
.LVL165:
.L84:
	.loc 1 544 5 is_stmt 0 discriminator 4 view .LVU405
	movq	8(%rsp), %rdx
	movl	$3, %esi
	xorl	%edi, %edi
	call	quotearg_n_style_colon@PLT
.LVL166:
	movq	%rax, %r12
.LVL167:
	.loc 1 544 5 discriminator 4 view .LVU406
	call	__errno_location@PLT
.LVL168:
	movq	%r12, %rcx
	movl	$1, %edi
	leaq	.LC42(%rip), %rdx
	movl	(%rax), %esi
	xorl	%eax, %eax
	call	error@PLT
.LVL169:
.L208:
	.loc 1 544 5 discriminator 4 view .LVU407
.LBE258:
	.loc 1 486 7 is_stmt 1 view .LVU408
	.loc 1 486 20 is_stmt 0 view .LVU409
	movl	$5, %edx
	leaq	.LC38(%rip), %rsi
	xorl	%edi, %edi
	call	dcgettext@PLT
.LVL170:
	.loc 1 486 7 view .LVU410
	xorl	%esi, %esi
	xorl	%edi, %edi
	.loc 1 486 20 view .LVU411
	movq	%rax, %rdx
	.loc 1 486 7 view .LVU412
	xorl	%eax, %eax
	call	error@PLT
.LVL171:
.L201:
	.loc 1 487 7 is_stmt 1 view .LVU413
	movl	$1, %edi
	call	usage
.LVL172:
.L45:
	.loc 1 487 7 is_stmt 0 view .LVU414
	movq	%rdx, 8(%rsp)
.LVL173:
.LBB259:
	.loc 1 430 11 is_stmt 1 view .LVU415
	.loc 1 431 34 is_stmt 0 view .LVU416
	leaq	.LC31(%rip), %rsi
	movl	$5, %edx
	xorl	%edi, %edi
	call	dcgettext@PLT
.LVL174:
	.loc 1 430 22 view .LVU417
	movq	8(%rsp), %r10
	xorl	%r9d, %r9d
	xorl	%esi, %esi
	.loc 1 431 34 view .LVU418
	movq	%rax, %r8
	.loc 1 430 22 view .LVU419
	leaq	.LC2(%rip), %rcx
	orq	$-1, %rdx
	movq	%r10, %rdi
	call	xdectoumax@PLT
.LVL175:
	.loc 1 433 11 is_stmt 1 view .LVU420
	.loc 1 434 11 view .LVU421
	.loc 1 435 11 view .LVU422
.L128:
.LBB236:
	.loc 1 436 13 view .LVU423
	movq	optarg(%rip), %rdi
	call	quote@PLT
.LVL176:
	movl	$5, %edx
	leaq	.LC31(%rip), %rsi
	xorl	%edi, %edi
	movq	%rax, %rbx
	call	dcgettext@PLT
.LVL177:
	movq	%rax, %r12
.LVL178:
	.loc 1 436 13 is_stmt 0 view .LVU424
	call	__errno_location@PLT
.LVL179:
	movq	%rbx, %r8
	movq	%r12, %rcx
	movl	$1, %edi
	movl	(%rax), %esi
	leaq	.LC32(%rip), %rdx
	xorl	%eax, %eax
	call	error@PLT
.LVL180:
.L214:
	.loc 1 436 13 view .LVU425
.LBE236:
.LBE259:
	.loc 1 559 3 is_stmt 1 view .LVU426
	cmpq	$0, 16(%rsp)
	movzbl	40(%rsp), %eax
.LVL181:
	.loc 1 559 3 is_stmt 0 view .LVU427
	sete	%bl
	orb	78(%rsp), %al
	.loc 1 559 34 view .LVU428
	orb	%bl, %al
	je	.L216
.L132:
	.loc 1 565 3 is_stmt 1 view .LVU429
	.loc 1 565 6 is_stmt 0 view .LVU430
	cmpq	$0, 24(%rsp)
	je	.L125
	.loc 1 565 20 view .LVU431
	movq	stdout(%rip), %rdx
	movq	24(%rsp), %rdi
	leaq	.LC48(%rip), %rsi
	call	freopen_safer@PLT
.LVL182:
	.loc 1 565 15 view .LVU432
	testq	%rax, %rax
	je	.L129
.L125:
	.loc 1 571 7 is_stmt 1 view .LVU433
	.loc 1 571 10 is_stmt 0 view .LVU434
	testb	%bl, %bl
	jne	.L110
	.loc 1 575 11 is_stmt 1 view .LVU435
	.loc 1 575 14 is_stmt 0 view .LVU436
	cmpq	$0, 56(%rsp)
	je	.L217
	.loc 1 577 11 is_stmt 1 view .LVU437
	.loc 1 577 14 is_stmt 0 view .LVU438
	cmpb	$0, 78(%rsp)
	je	.L145
	.loc 1 578 13 is_stmt 1 view .LVU439
.LVL183:
.LBB260:
.LBI260:
	.loc 1 337 1 view .LVU440
.LBB261:
	.loc 1 340 3 view .LVU441
.LBB262:
	.loc 1 342 15 is_stmt 0 view .LVU442
	xorl	%r13d, %r13d
	movq	%r12, %rax
.LBE262:
	.loc 1 340 34 view .LVU443
	movq	48(%rsp), %rbp
	subq	32(%rsp), %rbp
.LVL184:
	.loc 1 342 3 is_stmt 1 view .LVU444
.LBB275:
	.loc 1 342 8 view .LVU445
	.loc 1 342 8 is_stmt 0 view .LVU446
	movq	%rbp, %r12
.LVL185:
	.loc 1 342 8 view .LVU447
	movq	16(%rsp), %r14
.LVL186:
	.loc 1 342 8 view .LVU448
	movq	%r13, %rbp
.LVL187:
.LBB263:
.LBB264:
.LBB265:
	.loc 2 107 10 view .LVU449
	leaq	.LC46(%rip), %rbx
	movq	%rax, %r13
.LBE265:
.LBE264:
.LBE263:
	.loc 1 342 3 view .LVU450
	jmp	.L107
.LVL188:
.L109:
.LBB274:
	.loc 1 344 7 is_stmt 1 view .LVU451
.LBB269:
.LBI269:
	.file 5 "./lib/randint.h"
	.loc 5 44 1 view .LVU452
.LBB270:
	.loc 5 46 3 view .LVU453
	.loc 5 46 10 is_stmt 0 view .LVU454
	movq	%r12, %rsi
	movq	%r13, %rdi
	call	randint_genmax@PLT
.LVL189:
	.loc 5 46 10 view .LVU455
.LBE270:
.LBE269:
	.loc 1 345 7 is_stmt 1 view .LVU456
.LBB271:
.LBI264:
	.loc 2 105 1 view .LVU457
.LBB266:
	.loc 2 107 3 view .LVU458
.LBE266:
.LBE271:
	.loc 1 344 25 is_stmt 0 view .LVU459
	movq	32(%rsp), %rcx
.LBB272:
.LBB267:
	.loc 2 107 10 view .LVU460
	movq	%rbx, %rsi
	movl	$1, %edi
.LBE267:
.LBE272:
	.loc 1 344 25 view .LVU461
	leaq	(%rcx,%rax), %rdx
.LBB273:
.LBB268:
	.loc 2 107 10 view .LVU462
	xorl	%eax, %eax
	movl	%r15d, %ecx
	call	__printf_chk@PLT
.LVL190:
	.loc 2 107 10 view .LVU463
.LBE268:
.LBE273:
	.loc 1 345 10 view .LVU464
	testl	%eax, %eax
	js	.L108
.LBE274:
	.loc 1 342 33 is_stmt 1 view .LVU465
	.loc 1 342 34 is_stmt 0 view .LVU466
	addq	$1, %rbp
.LVL191:
.L107:
	.loc 1 342 22 is_stmt 1 view .LVU467
	.loc 1 342 3 is_stmt 0 view .LVU468
	cmpq	%rbp, %r14
	jne	.L109
	movq	%r13, %r12
.LVL192:
.L110:
	.loc 1 342 3 view .LVU469
.LBE275:
.LBE261:
.LBE260:
.LBB276:
.LBB277:
	.loc 1 307 15 view .LVU470
	xorl	%ebp, %ebp
	xorl	%r13d, %r13d
	jmp	.L104
.LVL193:
.L212:
	.loc 1 307 15 view .LVU471
.LBE277:
.LBE276:
.LBB280:
.LBB281:
	.loc 1 243 15 view .LVU472
	movq	56(%rsp), %r14
	xorl	%r15d, %r15d
	jmp	.L112
.LVL194:
.L114:
.LBB282:
	.loc 1 245 7 is_stmt 1 view .LVU473
	.loc 1 245 42 is_stmt 0 view .LVU474
	imulq	$24, 0(%r13,%r15,8), %rbx
	.loc 1 246 11 view .LVU475
	movq	stdout(%rip), %rcx
	movl	$1, %esi
	.loc 1 245 32 view .LVU476
	addq	%rbp, %rbx
.LVL195:
	.loc 1 246 7 is_stmt 1 view .LVU477
	.loc 1 246 11 is_stmt 0 view .LVU478
	movq	8(%rbx), %rdx
	movq	16(%rbx), %rdi
	call	fwrite_unlocked@PLT
.LVL196:
	.loc 1 246 10 view .LVU479
	cmpq	8(%rbx), %rax
	jne	.L108
	.loc 1 246 10 view .LVU480
.LBE282:
	.loc 1 243 35 is_stmt 1 view .LVU481
	.loc 1 243 36 is_stmt 0 view .LVU482
	addq	$1, %r15
.LVL197:
.L112:
	.loc 1 243 22 is_stmt 1 view .LVU483
	.loc 1 243 3 is_stmt 0 view .LVU484
	cmpq	%r14, %r15
	jne	.L114
	jmp	.L104
.LVL198:
.L210:
	.loc 1 243 3 view .LVU485
.LBE281:
.LBE280:
	.loc 1 509 7 is_stmt 1 view .LVU486
	.loc 1 509 15 is_stmt 0 view .LVU487
	movq	48(%rsp), %rax
	.loc 1 510 12 view .LVU488
	xorl	%r14d, %r14d
.LVL199:
	.loc 1 382 10 view .LVU489
	movq	$0, 64(%rsp)
	.loc 1 509 15 view .LVU490
	addq	$1, %rax
	subq	32(%rsp), %rax
	movq	%rax, 56(%rsp)
.LVL200:
	.loc 1 510 7 is_stmt 1 view .LVU491
	.loc 1 510 7 is_stmt 0 view .LVU492
	jmp	.L56
.LVL201:
.L145:
.LBB283:
.LBB284:
.LBB285:
.LBB286:
.LBB287:
	.loc 5 46 10 view .LVU493
	movq	56(%rsp), %rax
	movq	16(%rsp), %r15
.LBE287:
.LBE286:
.LBE285:
	.loc 1 359 15 view .LVU494
	xorl	%r13d, %r13d
.LBB292:
.LBB290:
.LBB288:
	.loc 5 46 10 view .LVU495
	leaq	-1(%rax), %rbx
	jmp	.L106
.LVL202:
.L218:
	.loc 5 46 10 view .LVU496
.LBE288:
.LBE290:
.LBE292:
	.loc 1 359 33 is_stmt 1 view .LVU497
	.loc 1 359 34 is_stmt 0 view .LVU498
	addq	$1, %r13
.LVL203:
.L106:
	.loc 1 359 22 is_stmt 1 view .LVU499
	.loc 1 359 3 is_stmt 0 view .LVU500
	cmpq	%r13, %r15
	je	.L110
.LBB293:
	.loc 1 361 7 is_stmt 1 view .LVU501
.LVL204:
.LBB291:
.LBI286:
	.loc 5 44 1 view .LVU502
.LBB289:
	.loc 5 46 3 view .LVU503
	.loc 5 46 10 is_stmt 0 view .LVU504
	movq	%rbx, %rsi
	movq	%r12, %rdi
	call	randint_genmax@PLT
.LVL205:
	.loc 5 46 10 view .LVU505
.LBE289:
.LBE291:
	.loc 1 362 7 is_stmt 1 view .LVU506
	.loc 1 364 11 is_stmt 0 view .LVU507
	movq	stdout(%rip), %rcx
	movl	$1, %esi
	.loc 1 362 20 view .LVU508
	leaq	(%r14,%rax,8), %rax
.LVL206:
	.loc 1 363 7 is_stmt 1 view .LVU509
	.loc 1 363 28 is_stmt 0 view .LVU510
	movq	(%rax), %rdi
	.loc 1 363 25 view .LVU511
	movq	8(%rax), %rbp
	subq	%rdi, %rbp
.LVL207:
	.loc 1 364 7 is_stmt 1 view .LVU512
	.loc 1 364 11 is_stmt 0 view .LVU513
	movq	%rbp, %rdx
	call	fwrite_unlocked@PLT
.LVL208:
	.loc 1 364 10 view .LVU514
	cmpq	%rax, %rbp
	je	.L218
.LVL209:
.L108:
	.loc 1 364 10 view .LVU515
.LBE293:
.LBE284:
.LBE283:
	.loc 1 595 3 is_stmt 1 view .LVU516
.LBB294:
	.loc 1 596 5 view .LVU517
	movl	$5, %edx
	leaq	.LC47(%rip), %rsi
	xorl	%edi, %edi
	call	dcgettext@PLT
.LVL210:
	movq	%rax, %r12
	call	__errno_location@PLT
.LVL211:
	movq	%r12, %rdx
	movl	$1, %edi
	movl	(%rax), %esi
	xorl	%eax, %eax
	call	error@PLT
.LVL212:
.L149:
	.loc 1 596 5 is_stmt 0 view .LVU518
.LBE294:
	.loc 1 539 3 is_stmt 1 discriminator 4 view .LVU519
	.loc 1 539 20 is_stmt 0 discriminator 4 view .LVU520
	testb	%r12b, %r12b
	jne	.L82
	movq	16(%rsp), %rbx
	jmp	.L80
.LVL213:
.L147:
.LBB295:
.LBB279:
	.loc 1 307 15 view .LVU521
	xorl	%r8d, %r8d
	movq	%rbp, 8(%rsp)
	movq	%r13, %rbp
	movq	%r8, %r13
.LVL214:
	.loc 1 307 15 view .LVU522
	jmp	.L115
.LVL215:
.L220:
	.loc 1 307 35 is_stmt 1 view .LVU523
	.loc 1 307 36 is_stmt 0 view .LVU524
	addq	$1, %r13
.LVL216:
.L115:
	.loc 1 307 22 is_stmt 1 view .LVU525
	.loc 1 307 3 is_stmt 0 view .LVU526
	cmpq	%rbx, %r13
	je	.L219
.LBB278:
	.loc 1 309 7 is_stmt 1 view .LVU527
	.loc 1 309 29 is_stmt 0 view .LVU528
	movq	0(%rbp,%r13,8), %rax
	.loc 1 311 11 view .LVU529
	movq	stdout(%rip), %rcx
	movl	$1, %esi
	.loc 1 309 20 view .LVU530
	leaq	(%r14,%rax,8), %rax
.LVL217:
	.loc 1 310 7 is_stmt 1 view .LVU531
	.loc 1 310 28 is_stmt 0 view .LVU532
	movq	(%rax), %rdi
	.loc 1 310 25 view .LVU533
	movq	8(%rax), %r15
	subq	%rdi, %r15
.LVL218:
	.loc 1 311 7 is_stmt 1 view .LVU534
	.loc 1 311 11 is_stmt 0 view .LVU535
	movq	%r15, %rdx
	call	fwrite_unlocked@PLT
.LVL219:
	.loc 1 311 10 view .LVU536
	cmpq	%rax, %r15
	je	.L220
	jmp	.L108
.LVL220:
.L57:
	.loc 1 311 10 view .LVU537
.LBE278:
.LBE279:
.LBE295:
	.loc 1 507 8 is_stmt 1 view .LVU538
	.loc 1 515 7 view .LVU539
	.loc 1 515 10 is_stmt 0 view .LVU540
	subl	$1, %r13d
.LVL221:
	.loc 1 515 10 view .LVU541
	jne	.L62
	.loc 1 516 17 view .LVU542
	movq	(%r14), %rbp
.LVL222:
	.loc 1 516 17 view .LVU543
	leaq	.LC40(%rip), %rsi
	movq	%rbp, %rdi
	call	strcmp@PLT
.LVL223:
	.loc 1 516 11 view .LVU544
	testl	%eax, %eax
	jne	.L221
.L62:
	.loc 1 520 7 is_stmt 1 view .LVU545
	movq	stdin(%rip), %rdi
	movl	$2, %esi
	call	fadvise@PLT
.LVL224:
	.loc 1 522 7 view .LVU546
	.loc 1 522 10 is_stmt 0 view .LVU547
	cmpq	$-1, 16(%rsp)
	je	.L70
	testb	%r12b, %r12b
	jne	.L70
.LBB296:
.LBI296:
	.loc 1 150 1 is_stmt 1 view .LVU548
.LBB297:
	.loc 1 152 3 view .LVU549
	.loc 1 154 3 view .LVU550
	.loc 1 155 3 view .LVU551
.LVL225:
.LBB298:
.LBI298:
	.file 6 "/usr/include/x86_64-linux-gnu/sys/stat.h"
	.loc 6 467 1 view .LVU552
.LBB299:
	.loc 6 469 3 view .LVU553
	.loc 6 469 10 is_stmt 0 view .LVU554
	xorl	%esi, %esi
	leaq	112(%rsp), %rdx
.LVL226:
	.loc 6 469 10 view .LVU555
	movl	$1, %edi
	call	__fxstat@PLT
.LVL227:
	.loc 6 469 10 view .LVU556
.LBE299:
.LBE298:
	.loc 1 155 6 view .LVU557
	testl	%eax, %eax
	jne	.L68
	.loc 1 157 3 is_stmt 1 view .LVU558
.LBB300:
.LBI300:
	.loc 3 705 1 view .LVU559
.LVL228:
.LBB301:
	.loc 3 707 3 view .LVU560
	.loc 3 707 33 is_stmt 0 view .LVU561
	movl	136(%rsp), %eax
	andl	$53248, %eax
.LBE301:
.LBE300:
	.loc 1 157 6 view .LVU562
	cmpl	$32768, %eax
	jne	.L68
	.loc 1 158 5 is_stmt 1 view .LVU563
	.loc 1 162 24 is_stmt 0 view .LVU564
	xorl	%esi, %esi
	xorl	%edi, %edi
	movl	$1, %edx
	.loc 1 158 15 view .LVU565
	movq	160(%rsp), %rbx
.LVL229:
	.loc 1 162 3 is_stmt 1 view .LVU566
	.loc 1 162 24 is_stmt 0 view .LVU567
	call	lseek@PLT
.LVL230:
	.loc 1 163 3 is_stmt 1 view .LVU568
	.loc 1 163 6 is_stmt 0 view .LVU569
	testq	%rax, %rax
	js	.L68
	.loc 1 166 3 is_stmt 1 view .LVU570
.LVL231:
	.loc 1 168 3 view .LVU571
	.loc 1 166 13 is_stmt 0 view .LVU572
	subq	%rax, %rbx
.LBE297:
.LBE296:
	.loc 1 523 11 view .LVU573
	cmpq	$8388608, %rbx
	jg	.L68
.LVL232:
.L70:
	.loc 1 525 11 is_stmt 1 view .LVU574
.LBB302:
.LBB303:
	.loc 1 278 15 is_stmt 0 view .LVU575
	movq	stdin(%rip), %rdi
	leaq	80(%rsp), %rdx
	xorl	%esi, %esi
.LBE303:
.LBE302:
	.loc 1 525 21 view .LVU576
	movsbl	%r15b, %ebx
.LVL233:
.LBB329:
.LBI302:
	.loc 1 260 1 is_stmt 1 view .LVU577
.LBB326:
	.loc 1 262 3 view .LVU578
	.loc 1 263 3 view .LVU579
	.loc 1 264 3 view .LVU580
	.loc 1 265 3 view .LVU581
	.loc 1 266 3 view .LVU582
	.loc 1 267 3 view .LVU583
	.loc 1 278 3 view .LVU584
	.loc 1 278 15 is_stmt 0 view .LVU585
	call	fread_file@PLT
.LVL234:
	.loc 1 278 15 view .LVU586
	movq	%rax, %r8
.LVL235:
	.loc 1 278 6 view .LVU587
	testq	%rax, %rax
	je	.L222
	.loc 1 281 3 is_stmt 1 view .LVU588
	.loc 1 281 7 is_stmt 0 view .LVU589
	movq	80(%rsp), %rbp
	.loc 1 281 6 view .LVU590
	testq	%rbp, %rbp
	je	.L71
	.loc 1 281 12 view .LVU591
	cmpb	-1(%rax,%rbp), %r15b
	je	.L71
	.loc 1 282 5 is_stmt 1 view .LVU592
	.loc 1 282 13 is_stmt 0 view .LVU593
	leaq	1(%rbp), %rax
.LVL236:
	.loc 1 282 13 view .LVU594
	movq	%rax, 80(%rsp)
	.loc 1 282 17 view .LVU595
	movb	%r15b, (%r8,%rbp)
	movq	80(%rsp), %rbp
.L71:
	.loc 1 284 3 is_stmt 1 view .LVU596
	.loc 1 284 7 is_stmt 0 view .LVU597
	addq	%r8, %rbp
.LVL237:
	.loc 1 286 3 is_stmt 1 view .LVU598
	.loc 1 287 3 view .LVU599
	.loc 1 287 3 is_stmt 0 view .LVU600
	movq	%r8, %rdi
	.loc 1 286 11 view .LVU601
	xorl	%eax, %eax
	movq	%r8, %r14
.LVL238:
	.loc 1 287 3 view .LVU602
	jmp	.L72
.LVL239:
.L73:
	.loc 1 288 5 is_stmt 1 view .LVU603
	.loc 1 287 26 view .LVU604
.LBB304:
.LBI304:
	.loc 1 141 1 view .LVU605
.LBB305:
	.loc 1 143 3 view .LVU606
.LBE305:
.LBE304:
	.loc 1 287 57 is_stmt 0 view .LVU607
	movq	%rbp, %rdx
.LBB308:
.LBB306:
	.loc 1 143 13 view .LVU608
	movl	%ebx, %esi
.LBE306:
.LBE308:
	.loc 1 287 57 view .LVU609
	subq	%rdi, %rdx
.LVL240:
.LBB309:
.LBB307:
	.loc 1 143 13 view .LVU610
	call	memchr@PLT
.LVL241:
	.loc 1 144 3 is_stmt 1 view .LVU611
	.loc 1 144 12 is_stmt 0 view .LVU612
	leaq	1(%rax), %rdi
.LVL242:
	.loc 1 144 12 view .LVU613
	movq	%r13, %rax
.LVL243:
.L72:
	.loc 1 144 12 view .LVU614
.LBE307:
.LBE309:
	.loc 1 287 17 is_stmt 1 view .LVU615
	leaq	1(%rax), %r13
	.loc 1 287 3 is_stmt 0 view .LVU616
	cmpq	%rdi, %rbp
	ja	.L73
.LBB310:
.LBB311:
	.file 7 "./lib/xalloc.h"
	.loc 7 101 7 view .LVU617
	movl	$8, %edx
	movq	%rax, 56(%rsp)
.LBE311:
.LBE310:
	.loc 1 290 3 is_stmt 1 view .LVU618
.LVL244:
.LBB315:
.LBI310:
	.loc 7 99 1 view .LVU619
.LBB312:
	.loc 7 101 3 view .LVU620
	.loc 7 101 7 is_stmt 0 view .LVU621
	movq	%rdx, %rax
	mulq	%r13
	seto	%dl
	movzbl	%dl, %edx
	testq	%rax, %rax
	js	.L90
	.loc 7 101 6 view .LVU622
	testq	%rdx, %rdx
	jne	.L90
	.loc 7 103 10 view .LVU623
	leaq	0(,%r13,8), %rdi
.LVL245:
	.loc 7 103 10 view .LVU624
	movq	%r14, 64(%rsp)
	.loc 7 103 3 is_stmt 1 view .LVU625
	movq	%rbp, %r13
	movl	%ebx, %ebp
.LVL246:
	.loc 7 103 10 is_stmt 0 view .LVU626
	call	xmalloc@PLT
.LVL247:
.LBE312:
.LBE315:
	.loc 1 292 11 view .LVU627
	movq	64(%rsp), %r8
	movb	%r12b, 64(%rsp)
.LBB316:
.LBB313:
	.loc 7 103 10 view .LVU628
	movq	%rax, %r14
.LVL248:
	.loc 7 103 10 view .LVU629
.LBE313:
.LBE316:
	.loc 1 292 3 is_stmt 1 view .LVU630
	.loc 1 292 11 is_stmt 0 view .LVU631
	movq	%r8, (%rax)
	.loc 1 293 3 is_stmt 1 view .LVU632
.LBB317:
	.loc 1 293 8 view .LVU633
.LVL249:
	.loc 1 293 8 is_stmt 0 view .LVU634
	movq	56(%rsp), %rax
.LVL250:
	.loc 1 293 8 view .LVU635
	movq	%r14, %r12
.LVL251:
	.loc 1 293 8 view .LVU636
	movq	%r8, %rdi
	leaq	(%r14,%rax,8), %rax
	movq	%rax, %rbx
	.loc 1 293 3 view .LVU637
	jmp	.L78
.LVL252:
.L79:
	.loc 1 294 5 is_stmt 1 view .LVU638
.LBB318:
.LBI318:
	.loc 1 141 1 view .LVU639
.LBB319:
	.loc 1 143 3 view .LVU640
.LBE319:
.LBE318:
	.loc 1 294 46 is_stmt 0 view .LVU641
	movq	%r13, %rdx
.LBB322:
.LBB320:
	.loc 1 143 13 view .LVU642
	movl	%ebp, %esi
	addq	$8, %r12
.LBE320:
.LBE322:
	.loc 1 294 46 view .LVU643
	subq	%rdi, %rdx
.LVL253:
.LBB323:
.LBB321:
	.loc 1 143 13 view .LVU644
	call	memchr@PLT
.LVL254:
	.loc 1 144 3 is_stmt 1 view .LVU645
	.loc 1 144 12 is_stmt 0 view .LVU646
	leaq	1(%rax), %rdi
.LVL255:
	.loc 1 144 12 view .LVU647
.LBE321:
.LBE323:
	.loc 1 294 13 view .LVU648
	movq	%rdi, (%r12)
	.loc 1 293 36 is_stmt 1 view .LVU649
.LVL256:
.L78:
	.loc 1 293 22 view .LVU650
	.loc 1 293 3 is_stmt 0 view .LVU651
	cmpq	%rbx, %r12
	jne	.L79
	movzbl	64(%rsp), %r12d
.LBE317:
	.loc 1 296 3 is_stmt 1 view .LVU652
.LVL257:
	.loc 1 296 3 is_stmt 0 view .LVU653
.LBE326:
.LBE329:
	.loc 1 526 11 is_stmt 1 view .LVU654
	.loc 1 526 16 is_stmt 0 view .LVU655
	movq	%r14, 64(%rsp)
.LVL258:
	.loc 1 526 16 view .LVU656
	jmp	.L56
.LVL259:
.L215:
.LBB330:
	.loc 1 544 5 view .LVU657
	leaq	.LC28(%rip), %rax
.LVL260:
	.loc 1 544 5 view .LVU658
	movq	%rax, 8(%rsp)
.LVL261:
	.loc 1 544 5 view .LVU659
	jmp	.L84
.LVL262:
.L219:
	.loc 1 544 5 view .LVU660
	movq	%rbp, %r13
.LVL263:
	.loc 1 544 5 view .LVU661
	movq	8(%rsp), %rbp
.LVL264:
	.loc 1 544 5 view .LVU662
	jmp	.L104
.LVL265:
.L68:
	.loc 1 544 5 view .LVU663
.LBE330:
	.loc 1 537 3 is_stmt 1 view .LVU664
	.loc 1 539 20 is_stmt 0 view .LVU665
	movq	8(%rsp), %rdi
	orq	$-1, %rsi
	call	randint_all_new@PLT
.LVL266:
	movq	%rax, %r12
.LVL267:
	.loc 1 543 3 is_stmt 1 view .LVU666
	.loc 1 543 6 is_stmt 0 view .LVU667
	testq	%rax, %rax
	je	.L126
	.loc 1 547 3 is_stmt 1 view .LVU668
	.loc 1 551 7 view .LVU669
.LVL268:
.LBB331:
.LBI331:
	.loc 1 175 1 view .LVU670
.LBB332:
	.loc 1 179 3 view .LVU671
	.loc 1 180 3 view .LVU672
	.loc 1 180 10 is_stmt 0 view .LVU673
	movq	16(%rsp), %rcx
	movl	$1024, %ebx
.LBE332:
.LBE331:
	.loc 1 551 17 view .LVU674
	movq	stdin(%rip), %rax
.LVL269:
	.loc 1 551 17 view .LVU675
	movsbl	%r15b, %r13d
.LBB362:
.LBB356:
	.loc 1 184 10 view .LVU676
	movl	$24, %esi
.LBE356:
.LBE362:
	.loc 1 551 17 view .LVU677
	movl	%r13d, 56(%rsp)
.LBB363:
.LBB357:
	.loc 1 180 10 view .LVU678
	cmpq	$1024, %rcx
.LBE357:
.LBE363:
	.loc 1 551 17 view .LVU679
	movq	%rax, 8(%rsp)
.LVL270:
.LBB364:
.LBB358:
	.loc 1 180 10 view .LVU680
	cmovbe	%rcx, %rbx
.LVL271:
	.loc 1 181 3 is_stmt 1 view .LVU681
	.loc 1 182 3 view .LVU682
	.loc 1 184 3 view .LVU683
	.loc 1 179 11 is_stmt 0 view .LVU684
	xorl	%r14d, %r14d
.LVL272:
	.loc 1 184 10 view .LVU685
	movq	%rbx, %rdi
	call	xcalloc@PLT
.LVL273:
	movq	%r12, 48(%rsp)
.LVL274:
	.loc 1 184 10 view .LVU686
	movb	%r15b, 40(%rsp)
.LVL275:
	.loc 1 184 10 view .LVU687
	movq	8(%rsp), %r15
	movq	%rax, %rbp
.LVL276:
	.loc 1 187 3 is_stmt 1 view .LVU688
	.loc 1 187 9 view .LVU689
.L85:
	.loc 1 187 9 is_stmt 0 view .LVU690
	imulq	$24, %r14, %r12
	.loc 1 189 14 view .LVU691
	movl	%r13d, %edx
	movq	%r15, %rsi
	leaq	0(%rbp,%r12), %rdi
	call	readlinebuffer_delim@PLT
.LVL277:
	.loc 1 188 10 view .LVU692
	testq	%rax, %rax
	je	.L223
	.loc 1 191 7 is_stmt 1 view .LVU693
	.loc 1 191 14 is_stmt 0 view .LVU694
	addq	$1, %r14
.LVL278:
	.loc 1 194 7 is_stmt 1 view .LVU695
	.loc 1 194 10 is_stmt 0 view .LVU696
	cmpq	%r14, %rbx
	ja	.L86
	.loc 1 196 11 is_stmt 1 view .LVU697
.LBB333:
.LBB334:
	.loc 7 114 7 is_stmt 0 view .LVU698
	movl	$24, %edx
.LBE334:
.LBE333:
	.loc 1 196 25 view .LVU699
	addq	$1024, %rbx
.LVL279:
	.loc 1 197 11 is_stmt 1 view .LVU700
.LBB337:
.LBI333:
	.loc 7 112 1 view .LVU701
.LBB335:
	.loc 7 114 3 view .LVU702
	.loc 7 114 7 is_stmt 0 view .LVU703
	movq	%rdx, %rax
.LVL280:
	.loc 7 114 7 view .LVU704
	mulq	%rbx
	seto	%dl
	movzbl	%dl, %edx
	testq	%rax, %rax
	js	.L90
	.loc 7 114 6 view .LVU705
	testq	%rdx, %rdx
	jne	.L90
	.loc 7 116 3 is_stmt 1 view .LVU706
	.loc 7 116 10 is_stmt 0 view .LVU707
	movq	%rbp, %rdi
	movq	%rax, %rsi
	call	xrealloc@PLT
.LVL281:
.LBE335:
.LBE337:
.LBB338:
.LBB339:
	.loc 4 71 10 view .LVU708
	movl	$24576, %edx
	xorl	%esi, %esi
.LBE339:
.LBE338:
	.loc 1 198 19 view .LVU709
	leaq	24(%rax,%r12), %rdi
.LBB341:
.LBB336:
	.loc 7 116 10 view .LVU710
	movq	%rax, %rbp
.LVL282:
	.loc 7 116 10 view .LVU711
.LBE336:
.LBE341:
	.loc 1 198 11 is_stmt 1 view .LVU712
.LBB342:
.LBI338:
	.loc 4 59 1 view .LVU713
.LBB340:
	.loc 4 71 3 view .LVU714
	.loc 4 71 10 is_stmt 0 view .LVU715
	call	memset@PLT
.LVL283:
.L86:
	.loc 4 71 10 view .LVU716
.LBE340:
.LBE342:
	.loc 1 187 9 is_stmt 1 view .LVU717
	cmpq	%r14, 16(%rsp)
	jne	.L85
	.loc 1 187 9 is_stmt 0 view .LVU718
	movzbl	40(%rsp), %r15d
.LBB343:
	.loc 1 207 7 view .LVU719
	leaq	80(%rsp), %r13
	movq	48(%rsp), %r12
	.loc 1 207 7 view .LVU720
.LBE343:
	.loc 1 204 3 is_stmt 1 view .LVU721
.LBB350:
	.loc 1 206 7 view .LVU722
	.loc 1 207 7 view .LVU723
	movq	%r13, %rdi
	call	initbuffer@PLT
.LVL284:
	movb	%r15b, 48(%rsp)
.LVL285:
	.loc 1 207 7 is_stmt 0 view .LVU724
	movq	8(%rsp), %r15
	movq	%rbp, 40(%rsp)
	movl	56(%rsp), %ebp
.LVL286:
	.loc 1 207 7 view .LVU725
	jmp	.L96
.LVL287:
.L225:
	.loc 1 223 63 view .LVU726
	testq	%rbx, %rbx
	je	.L224
.L96:
	.loc 1 218 7 is_stmt 1 view .LVU727
.LBB344:
	.loc 1 220 11 view .LVU728
	movq	%r14, %rbx
.LBB345:
.LBB346:
	.loc 5 46 10 is_stmt 0 view .LVU729
	movq	%r12, %rdi
.LBE346:
.LBE345:
	.loc 1 220 23 view .LVU730
	addq	$1, %r14
.LVL288:
.LBB348:
.LBI345:
	.loc 5 44 1 is_stmt 1 view .LVU731
.LBB347:
	.loc 5 46 3 view .LVU732
	.loc 5 46 10 is_stmt 0 view .LVU733
	movq	%rbx, %rsi
	call	randint_genmax@PLT
.LVL289:
	.loc 5 46 10 view .LVU734
.LBE347:
.LBE348:
	.loc 1 221 11 is_stmt 1 view .LVU735
	.loc 1 221 39 is_stmt 0 view .LVU736
	movq	%r13, %rdi
	cmpq	%rax, 16(%rsp)
	jbe	.L94
	.loc 1 221 34 view .LVU737
	imulq	$24, %rax, %rax
.LVL290:
	.loc 1 221 39 view .LVU738
	movq	40(%rsp), %rcx
	leaq	(%rcx,%rax), %rdi
.L94:
.LVL291:
	.loc 1 221 39 view .LVU739
.LBE344:
	.loc 1 223 13 is_stmt 1 view .LVU740
	.loc 1 223 14 is_stmt 0 view .LVU741
	movl	%ebp, %edx
	movq	%r15, %rsi
	call	readlinebuffer_delim@PLT
.LVL292:
	.loc 1 223 7 view .LVU742
	testq	%rax, %rax
	jne	.L225
	movsbl	48(%rsp), %r15d
	movq	40(%rsp), %rbp
	.loc 1 225 7 is_stmt 1 view .LVU743
	.loc 1 225 10 is_stmt 0 view .LVU744
	testq	%rbx, %rbx
	je	.L226
.LVL293:
.L97:
	.loc 1 228 7 is_stmt 1 view .LVU745
	movq	%r13, %rdi
	movq	%rbx, %r14
	call	freebuffer@PLT
.LVL294:
.L93:
	.loc 1 228 7 is_stmt 0 view .LVU746
.LBE350:
	.loc 1 232 3 is_stmt 1 view .LVU747
.LBB351:
.LBI351:
	.file 8 "/usr/include/x86_64-linux-gnu/bits/stdio.h"
	.loc 8 135 1 view .LVU748
.LBB352:
	.loc 8 137 3 view .LVU749
	.loc 8 137 3 is_stmt 0 view .LVU750
.LBE352:
.LBE351:
	.loc 1 232 6 view .LVU751
	movq	8(%rsp), %rax
	testb	$32, (%rax)
	jne	.L227
	.loc 1 235 3 is_stmt 1 view .LVU752
.LVL295:
	.loc 1 236 3 view .LVU753
	.loc 1 236 10 is_stmt 0 view .LVU754
	movq	16(%rsp), %rax
	movb	$1, 79(%rsp)
	movq	$0, 64(%rsp)
	cmpq	%r14, %rax
	cmovbe	%rax, %r14
.LVL296:
	.loc 1 236 10 view .LVU755
	movq	%r14, 56(%rsp)
.LVL297:
	.loc 1 236 10 view .LVU756
.LBE358:
.LBE364:
	.loc 1 553 7 is_stmt 1 view .LVU757
	.loc 1 559 3 view .LVU758
.LBB365:
.LBB359:
	.loc 1 236 10 is_stmt 0 view .LVU759
	movq	%r14, %rbx
	xorl	%r14d, %r14d
.LVL298:
.L99:
	.loc 1 236 10 view .LVU760
.LBE359:
.LBE365:
	.loc 1 559 52 view .LVU761
	movq	stdin(%rip), %rdi
	call	rpl_fclose@PLT
.LVL299:
	.loc 1 559 7 view .LVU762
	testl	%eax, %eax
	je	.L100
.LVL300:
.L134:
.LBB366:
	.loc 1 560 5 is_stmt 1 view .LVU763
	movl	$5, %edx
	leaq	.LC43(%rip), %rsi
	xorl	%edi, %edi
	call	dcgettext@PLT
.LVL301:
	movq	%rax, %r12
	call	__errno_location@PLT
.LVL302:
	movq	%r12, %rdx
	movl	$1, %edi
	movl	(%rax), %esi
	xorl	%eax, %eax
	call	error@PLT
.LVL303:
.L223:
	.loc 1 560 5 is_stmt 0 view .LVU764
	movsbl	40(%rsp), %r15d
	movq	48(%rsp), %r12
.LBE366:
.LBB367:
.LBB360:
	jmp	.L93
.LVL304:
.L224:
	.loc 1 560 5 view .LVU765
	movsbl	48(%rsp), %r15d
	movq	40(%rsp), %rbp
.LBB353:
	movl	$1, %ebx
	jmp	.L97
.LVL305:
.L221:
	.loc 1 560 5 view .LVU766
.LBE353:
.LBE360:
.LBE367:
	.loc 1 517 20 discriminator 1 view .LVU767
	movq	stdin(%rip), %rdx
	leaq	.LC41(%rip), %rsi
	movq	%rbp, %rdi
	call	freopen_safer@PLT
.LVL306:
	.loc 1 516 14 discriminator 1 view .LVU768
	testq	%rax, %rax
	jne	.L62
.LBB368:
	.loc 1 518 9 is_stmt 1 view .LVU769
	movq	(%r14), %rdx
	movl	$3, %esi
	xorl	%edi, %edi
	call	quotearg_n_style_colon@PLT
.LVL307:
	movq	%rax, %r12
.LVL308:
	.loc 1 518 9 is_stmt 0 view .LVU770
	call	__errno_location@PLT
.LVL309:
	movq	%r12, %rcx
	movl	$1, %edi
	leaq	.LC42(%rip), %rdx
	movl	(%rax), %esi
	xorl	%eax, %eax
	call	error@PLT
.LVL310:
.L227:
	.loc 1 518 9 view .LVU771
.LBE368:
.LBB369:
.LBB361:
.LBB354:
	.loc 1 233 5 is_stmt 1 view .LVU772
	movl	$5, %edx
	leaq	.LC43(%rip), %rsi
	xorl	%edi, %edi
	call	dcgettext@PLT
.LVL311:
	movq	%rax, %r12
	call	__errno_location@PLT
.LVL312:
	movq	%r12, %rdx
	movl	$1, %edi
	movl	(%rax), %esi
	xorl	%eax, %eax
	call	error@PLT
.LVL313:
.L226:
	.loc 1 233 5 is_stmt 0 view .LVU773
.LBE354:
.LBB355:
.LBB349:
	.loc 1 226 9 is_stmt 1 view .LVU774
	movl	$5, %edx
	leaq	.LC44(%rip), %rsi
	xorl	%edi, %edi
	call	dcgettext@PLT
.LVL314:
	movl	$75, %esi
	movl	$1, %edi
	movq	%rax, %rdx
	xorl	%eax, %eax
	call	error@PLT
.LVL315:
.L90:
	.loc 1 226 9 is_stmt 0 view .LVU775
.LBE349:
.LBE355:
.LBE361:
.LBE369:
.LBB370:
.LBB327:
.LBB324:
.LBB314:
	.loc 7 102 5 is_stmt 1 view .LVU776
	call	xalloc_die@PLT
.LVL316:
.L217:
	.loc 7 102 5 is_stmt 0 view .LVU777
.LBE314:
.LBE324:
.LBE327:
.LBE370:
.LBB371:
	.loc 1 576 13 is_stmt 1 view .LVU778
	movl	$5, %edx
	leaq	.LC45(%rip), %rsi
	xorl	%edi, %edi
	call	dcgettext@PLT
.LVL317:
	xorl	%esi, %esi
	movl	$1, %edi
	movq	%rax, %rdx
	xorl	%eax, %eax
	call	error@PLT
.LVL318:
.L204:
	.loc 1 576 13 is_stmt 0 view .LVU779
.LBE371:
.LBB372:
	.loc 1 456 11 is_stmt 1 view .LVU780
	movl	$5, %edx
	leaq	.LC34(%rip), %rsi
	xorl	%edi, %edi
	call	dcgettext@PLT
.LVL319:
	xorl	%esi, %esi
	movl	$1, %edi
	movq	%rax, %rdx
	xorl	%eax, %eax
	call	error@PLT
.LVL320:
.L222:
	.loc 1 456 11 is_stmt 0 view .LVU781
.LBE372:
.LBB373:
.LBB328:
.LBB325:
	.loc 1 279 5 is_stmt 1 view .LVU782
	movl	$5, %edx
	leaq	.LC43(%rip), %rsi
	xorl	%edi, %edi
	call	dcgettext@PLT
.LVL321:
	.loc 1 279 5 is_stmt 0 view .LVU783
	movq	%rax, %r12
.LVL322:
	.loc 1 279 5 view .LVU784
	call	__errno_location@PLT
.LVL323:
	movq	%r12, %rdx
	movl	$1, %edi
	movl	(%rax), %esi
	xorl	%eax, %eax
	call	error@PLT
.LVL324:
.L213:
	.loc 1 279 5 view .LVU785
.LBE325:
.LBE328:
.LBE373:
	.loc 1 616 1 view .LVU786
	call	__stack_chk_fail@PLT
.LVL325:
.L216:
	.loc 1 559 52 view .LVU787
	movq	stdin(%rip), %rdi
	call	rpl_fclose@PLT
.LVL326:
	.loc 1 559 7 view .LVU788
	testl	%eax, %eax
	jne	.L134
	xorl	%ebx, %ebx
	jmp	.L132
.LVL327:
.L209:
	.loc 1 491 57 view .LVU789
	xorl	%eax, %eax
	jmp	.L53
.LVL328:
.L211:
	.loc 1 491 57 view .LVU790
	movb	$0, 79(%rsp)
	jmp	.L99
.LVL329:
.L206:
.LBB374:
	.loc 1 462 11 is_stmt 1 view .LVU791
	movl	$5, %edx
	leaq	.LC35(%rip), %rsi
	xorl	%edi, %edi
	call	dcgettext@PLT
.LVL330:
	xorl	%esi, %esi
	movl	$1, %edi
	movq	%rax, %rdx
	xorl	%eax, %eax
	call	error@PLT
.LVL331:
.L205:
	.loc 1 462 11 is_stmt 0 view .LVU792
.LBE374:
.LBB375:
.LBB237:
	.loc 1 418 13 is_stmt 1 view .LVU793
	movl	$5, %edx
.LVL332:
	.loc 1 418 13 is_stmt 0 view .LVU794
	leaq	.LC30(%rip), %rsi
	xorl	%edi, %edi
	call	dcgettext@PLT
.LVL333:
	.loc 1 418 13 view .LVU795
	xorl	%esi, %esi
	movl	$1, %edi
	movq	%rax, %rdx
	xorl	%eax, %eax
	call	error@PLT
.LVL334:
.LBE237:
.LBE375:
	.cfi_endproc
.LFE147:
	.size	main, .-main
	.section	.rodata.str1.1
.LC49:
	.string	"echo"
.LC50:
	.string	"input-range"
.LC51:
	.string	"head-count"
.LC52:
	.string	"output"
.LC53:
	.string	"random-source"
.LC54:
	.string	"repeat"
.LC55:
	.string	"zero-terminated"
.LC56:
	.string	"help"
.LC57:
	.string	"version"
	.section	.data.rel.ro.local,"aw"
	.align 32
	.type	long_opts, @object
	.size	long_opts, 320
long_opts:
	.quad	.LC49
	.long	0
	.zero	4
	.quad	0
	.long	101
	.zero	4
	.quad	.LC50
	.long	1
	.zero	4
	.quad	0
	.long	105
	.zero	4
	.quad	.LC51
	.long	1
	.zero	4
	.quad	0
	.long	110
	.zero	4
	.quad	.LC52
	.long	1
	.zero	4
	.quad	0
	.long	111
	.zero	4
	.quad	.LC53
	.long	1
	.zero	4
	.quad	0
	.long	128
	.zero	4
	.quad	.LC54
	.long	0
	.zero	4
	.quad	0
	.long	114
	.zero	4
	.quad	.LC55
	.long	0
	.zero	4
	.quad	0
	.long	122
	.zero	4
	.quad	.LC56
	.long	0
	.zero	4
	.quad	0
	.long	-130
	.zero	4
	.quad	.LC57
	.long	0
	.zero	4
	.quad	0
	.long	-131
	.zero	4
	.quad	0
	.long	0
	.zero	4
	.quad	0
	.long	0
	.zero	4
	.text
.Letext0:
	.file 9 "/usr/include/x86_64-linux-gnu/bits/types.h"
	.file 10 "/usr/include/x86_64-linux-gnu/sys/types.h"
	.file 11 "/usr/include/x86_64-linux-gnu/bits/types/time_t.h"
	.file 12 "/usr/lib/gcc/x86_64-linux-gnu/9/include/stddef.h"
	.file 13 "/usr/include/x86_64-linux-gnu/bits/types/struct_timespec.h"
	.file 14 "./lib/sys/select.h"
	.file 15 "/usr/include/time.h"
	.file 16 "/usr/include/x86_64-linux-gnu/bits/stat.h"
	.file 17 "/usr/include/signal.h"
	.file 18 "/usr/include/unistd.h"
	.file 19 "/usr/include/x86_64-linux-gnu/bits/getopt_core.h"
	.file 20 "/usr/include/errno.h"
	.file 21 "src/version.h"
	.file 22 "./lib/exitfail.h"
	.file 23 "/usr/include/stdint.h"
	.file 24 "./lib/timespec.h"
	.file 25 "./lib/xalloc-oversized.h"
	.file 26 "/usr/include/x86_64-linux-gnu/bits/types/struct_FILE.h"
	.file 27 "/usr/include/x86_64-linux-gnu/bits/types/FILE.h"
	.file 28 "/usr/include/stdio.h"
	.file 29 "/usr/include/x86_64-linux-gnu/bits/sys_errlist.h"
	.file 30 "./lib/version-etc.h"
	.file 31 "./lib/progname.h"
	.file 32 "./lib/quotearg.h"
	.file 33 "./lib/error.h"
	.file 34 "./lib/fadvise.h"
	.file 35 "/usr/include/x86_64-linux-gnu/bits/getopt_ext.h"
	.file 36 "./lib/linebuffer.h"
	.file 37 "./lib/quote.h"
	.file 38 "./lib/xstrtol.h"
	.file 39 "/usr/include/libintl.h"
	.file 40 "/usr/include/string.h"
	.file 41 "./lib/xdectoint.h"
	.file 42 "/usr/include/stdlib.h"
	.file 43 "./lib/read-file.h"
	.file 44 "<built-in>"
	.file 45 "/usr/include/locale.h"
	.file 46 "./lib/randperm.h"
	.file 47 "./lib/stdio-safer.h"
	.file 48 "./lib/stdio.h"
	.section	.note.GNU-stack,"",@progbits
	.section	.note.gnu.property,"a"
	.align 8
	.long	 1f - 0f
	.long	 4f - 1f
	.long	 5
0:
	.string	 "GNU"
1:
	.align 8
	.long	 0xc0000002
	.long	 3f - 2f
2:
	.long	 0x3
3:
	.align 8
4:
