	.file	"sleep.c"
	.text
.Ltext0:
	.section	.rodata.str1.1,"aMS",@progbits,1
.LC0:
	.string	"sleep"
.LC1:
	.string	" invocation"
.LC2:
	.string	""
	.section	.rodata.str1.8,"aMS",@progbits,1
	.align 8
.LC3:
	.string	"Try '%s --help' for more information.\n"
	.align 8
.LC4:
	.ascii	"Usage: %s NUMBER[SUFFIX]...\n  or:  %s O"
	.string	"PTION\nPause for NUMBER seconds.  SUFFIX may be 's' for seconds (the default),\n'm' for minutes, 'h' for hours or 'd' for days.  NUMBER need not be an\ninteger.  Given two or more arguments, pause for the amount of time\nspecified by the sum of their values.\n\n"
	.align 8
.LC5:
	.string	"      --help     display this help and exit\n"
	.align 8
.LC6:
	.string	"      --version  output version information and exit\n"
	.section	.rodata.str1.1
.LC7:
	.string	"["
.LC8:
	.string	"test invocation"
.LC9:
	.string	"coreutils"
.LC10:
	.string	"Multi-call invocation"
.LC11:
	.string	"sha224sum"
.LC12:
	.string	"sha2 utilities"
.LC13:
	.string	"sha256sum"
.LC14:
	.string	"sha384sum"
.LC15:
	.string	"sha512sum"
.LC16:
	.string	"\n%s online help: <%s>\n"
	.section	.rodata.str1.8
	.align 8
.LC17:
	.string	"https://www.gnu.org/software/coreutils/"
	.section	.rodata.str1.1
.LC18:
	.string	"GNU coreutils"
.LC19:
	.string	"en_"
	.section	.rodata.str1.8
	.align 8
.LC20:
	.string	"Report any translation bugs to <https://translationproject.org/team/>\n"
	.section	.rodata.str1.1
.LC21:
	.string	"Full documentation <%s%s>\n"
	.section	.rodata.str1.8
	.align 8
.LC22:
	.string	"or available locally via: info '(coreutils) %s%s'\n"
	.text
	.p2align 4
	.globl	usage
	.type	usage, @function
usage:
.LVL0:
.LFB135:
	.file 1 "src/sleep.c"
	.loc 1 39 1 view -0
	.cfi_startproc
	.loc 1 39 1 is_stmt 0 view .LVU1
	endbr64
	pushq	%r13
	.cfi_def_cfa_offset 16
	.cfi_offset 13, -16
	.loc 1 41 5 view .LVU2
	movl	$5, %edx
	.loc 1 39 1 view .LVU3
	pushq	%r12
	.cfi_def_cfa_offset 24
	.cfi_offset 12, -24
	pushq	%rbp
	.cfi_def_cfa_offset 32
	.cfi_offset 6, -32
	movl	%edi, %ebp
	pushq	%rbx
	.cfi_def_cfa_offset 40
	.cfi_offset 3, -40
	subq	$136, %rsp
	.cfi_def_cfa_offset 176
	movq	program_name(%rip), %r12
	.loc 1 39 1 view .LVU4
	movq	%fs:40, %rax
	movq	%rax, 120(%rsp)
	xorl	%eax, %eax
	.loc 1 40 3 is_stmt 1 view .LVU5
	.loc 1 40 6 is_stmt 0 view .LVU6
	testl	%edi, %edi
	je	.L2
	.loc 1 41 5 is_stmt 1 view .LVU7
	.loc 1 41 5 view .LVU8
	leaq	.LC3(%rip), %rsi
	xorl	%edi, %edi
.LVL1:
	.loc 1 41 5 is_stmt 0 view .LVU9
	call	dcgettext@PLT
.LVL2:
.LBB35:
.LBB36:
	.file 2 "/usr/include/x86_64-linux-gnu/bits/stdio2.h"
	.loc 2 100 10 view .LVU10
	movq	stderr(%rip), %rdi
	movq	%r12, %rcx
	movl	$1, %esi
.LBE36:
.LBE35:
	.loc 1 41 5 view .LVU11
	movq	%rax, %rdx
.LVL3:
.LBB38:
.LBI35:
	.loc 2 98 1 is_stmt 1 view .LVU12
.LBB37:
	.loc 2 100 3 view .LVU13
	.loc 2 100 10 is_stmt 0 view .LVU14
	xorl	%eax, %eax
.LVL4:
	.loc 2 100 10 view .LVU15
	call	__fprintf_chk@PLT
.LVL5:
.L3:
	.loc 2 100 10 view .LVU16
.LBE37:
.LBE38:
	.loc 1 58 3 is_stmt 1 view .LVU17
	movl	%ebp, %edi
	call	exit@PLT
.LVL6:
.L2:
	.loc 1 44 7 view .LVU18
	.loc 1 44 15 is_stmt 0 view .LVU19
	leaq	.LC4(%rip), %rsi
	xorl	%edi, %edi
.LVL7:
.LBB39:
.LBB40:
	.file 3 "src/system.h"
	.loc 3 636 67 view .LVU20
	leaq	.LC13(%rip), %rbx
.LBE40:
.LBE39:
	.loc 1 44 15 view .LVU21
	call	dcgettext@PLT
.LVL8:
.LBB66:
.LBB67:
	.loc 2 107 10 view .LVU22
	movq	%r12, %rcx
	movq	%r12, %rdx
	movl	$1, %edi
.LBE67:
.LBE66:
	.loc 1 44 15 view .LVU23
	movq	%rax, %rsi
.LVL9:
.LBB69:
.LBI66:
	.loc 2 105 1 is_stmt 1 view .LVU24
.LBB68:
	.loc 2 107 3 view .LVU25
	.loc 2 107 10 is_stmt 0 view .LVU26
	xorl	%eax, %eax
.LVL10:
	.loc 2 107 10 view .LVU27
	call	__printf_chk@PLT
.LVL11:
	.loc 2 107 10 view .LVU28
.LBE68:
.LBE69:
	.loc 1 54 7 is_stmt 1 view .LVU29
	movq	stdout(%rip), %r12
	movl	$5, %edx
	xorl	%edi, %edi
	leaq	.LC5(%rip), %rsi
	call	dcgettext@PLT
.LVL12:
	movq	%r12, %rsi
	movq	%rax, %rdi
	call	fputs_unlocked@PLT
.LVL13:
	.loc 1 55 7 view .LVU30
	movq	stdout(%rip), %r12
	movl	$5, %edx
	xorl	%edi, %edi
	leaq	.LC6(%rip), %rsi
	call	dcgettext@PLT
.LVL14:
	movq	%r12, %rsi
	movq	%rax, %rdi
	call	fputs_unlocked@PLT
.LVL15:
	.loc 1 56 7 view .LVU31
.LBB70:
.LBI39:
	.loc 3 634 1 view .LVU32
.LBB65:
	.loc 3 636 3 view .LVU33
	.loc 3 636 67 is_stmt 0 view .LVU34
	leaq	.LC7(%rip), %rax
	movq	%rbx, 48(%rsp)
	leaq	.LC14(%rip), %rbx
	movq	%rax, (%rsp)
	leaq	.LC8(%rip), %rax
	movq	%rax, 8(%rsp)
	leaq	.LC9(%rip), %rax
	movq	%rax, 16(%rsp)
	leaq	.LC10(%rip), %rax
	movq	%rax, 24(%rsp)
	leaq	.LC11(%rip), %rax
	movq	$0, 96(%rsp)
	movq	$0, 104(%rsp)
	.loc 3 646 3 is_stmt 1 view .LVU35
.LVL16:
	.loc 3 647 3 view .LVU36
	.loc 3 649 3 view .LVU37
	.loc 3 649 9 view .LVU38
	.loc 3 636 67 is_stmt 0 view .LVU39
	movq	%rax, 32(%rsp)
	leaq	.LC12(%rip), %rax
	movq	%rbx, 64(%rsp)
	leaq	.LC15(%rip), %rbx
	movq	%rax, 40(%rsp)
	movq	%rax, 56(%rsp)
	movq	%rax, 72(%rsp)
	movq	%rbx, 80(%rsp)
	leaq	.LC0(%rip), %rbx
	movq	%rax, 88(%rsp)
	.loc 3 647 25 view .LVU40
	movq	%rsp, %rax
.LVL17:
	.p2align 4,,10
	.p2align 3
.L5:
	.loc 3 650 5 is_stmt 1 view .LVU41
	.loc 3 649 18 is_stmt 0 view .LVU42
	movq	16(%rax), %rdi
	.loc 3 650 13 view .LVU43
	addq	$16, %rax
.LVL18:
	.loc 3 649 9 is_stmt 1 view .LVU44
	testq	%rdi, %rdi
	je	.L4
	.loc 3 649 33 is_stmt 0 view .LVU45
	movl	$6, %ecx
	movq	%rbx, %rsi
	repz cmpsb
	seta	%dl
	sbbb	$0, %dl
	.loc 3 649 28 view .LVU46
	testb	%dl, %dl
	jne	.L5
.L4:
	.loc 3 652 3 is_stmt 1 view .LVU47
	.loc 3 652 15 is_stmt 0 view .LVU48
	movq	8(%rax), %r12
	.loc 3 655 11 view .LVU49
	movl	$5, %edx
	leaq	.LC16(%rip), %rsi
	xorl	%edi, %edi
	.loc 3 652 6 view .LVU50
	testq	%r12, %r12
	je	.L6
	.loc 3 653 5 is_stmt 1 view .LVU51
.LVL19:
	.loc 3 655 3 view .LVU52
	.loc 3 655 11 is_stmt 0 view .LVU53
	call	dcgettext@PLT
.LVL20:
.LBB41:
.LBB42:
	.loc 2 107 10 view .LVU54
	leaq	.LC17(%rip), %rcx
	movl	$1, %edi
	leaq	.LC18(%rip), %rdx
.LBE42:
.LBE41:
	.loc 3 655 11 view .LVU55
	movq	%rax, %rsi
.LVL21:
.LBB46:
.LBI41:
	.loc 2 105 1 is_stmt 1 view .LVU56
.LBB43:
	.loc 2 107 3 view .LVU57
	.loc 2 107 10 is_stmt 0 view .LVU58
	xorl	%eax, %eax
.LVL22:
	.loc 2 107 10 view .LVU59
	call	__printf_chk@PLT
.LVL23:
	.loc 2 107 10 view .LVU60
.LBE43:
.LBE46:
	.loc 3 659 3 is_stmt 1 view .LVU61
	.loc 3 659 29 is_stmt 0 view .LVU62
	movl	$5, %edi
	xorl	%esi, %esi
	call	setlocale@PLT
.LVL24:
	movq	%rax, %rdi
.LVL25:
	.loc 3 660 3 is_stmt 1 view .LVU63
	.loc 3 660 6 is_stmt 0 view .LVU64
	testq	%rax, %rax
	je	.L7
	.loc 3 660 22 view .LVU65
	movl	$3, %edx
	leaq	.LC19(%rip), %rsi
	call	strncmp@PLT
.LVL26:
	.loc 3 660 19 view .LVU66
	testl	%eax, %eax
	jne	.L10
.LVL27:
.L7:
	.loc 3 669 3 is_stmt 1 view .LVU67
	.loc 3 669 11 is_stmt 0 view .LVU68
	xorl	%edi, %edi
	movl	$5, %edx
	leaq	.LC21(%rip), %rsi
	call	dcgettext@PLT
.LVL28:
.LBB47:
.LBB48:
	.loc 2 107 10 view .LVU69
	leaq	.LC0(%rip), %rcx
	leaq	.LC17(%rip), %rdx
	movl	$1, %edi
.LBE48:
.LBE47:
	.loc 3 669 11 view .LVU70
	movq	%rax, %rsi
.LVL29:
.LBB54:
.LBI47:
	.loc 2 105 1 is_stmt 1 view .LVU71
.LBB49:
	.loc 2 107 3 view .LVU72
	.loc 2 107 10 is_stmt 0 view .LVU73
	xorl	%eax, %eax
.LVL30:
	.loc 2 107 10 view .LVU74
.LBE49:
.LBE54:
	.loc 3 671 3 view .LVU75
	leaq	.LC1(%rip), %r13
.LBB55:
.LBB50:
	.loc 2 107 10 view .LVU76
	call	__printf_chk@PLT
.LVL31:
	.loc 2 107 10 view .LVU77
.LBE50:
.LBE55:
	.loc 3 671 3 is_stmt 1 view .LVU78
	cmpq	%rbx, %r12
	leaq	.LC2(%rip), %rcx
	cmovne	%rcx, %r13
.L8:
	.loc 3 671 11 is_stmt 0 view .LVU79
	xorl	%edi, %edi
	leaq	.LC22(%rip), %rsi
	movl	$5, %edx
	call	dcgettext@PLT
.LVL32:
.LBB56:
.LBB57:
	.loc 2 107 10 view .LVU80
	movq	%r13, %rcx
	movq	%r12, %rdx
	movl	$1, %edi
.LBE57:
.LBE56:
	.loc 3 671 11 view .LVU81
	movq	%rax, %rsi
.LVL33:
.LBB59:
.LBI56:
	.loc 2 105 1 is_stmt 1 view .LVU82
.LBB58:
	.loc 2 107 3 view .LVU83
	.loc 2 107 10 is_stmt 0 view .LVU84
	xorl	%eax, %eax
.LVL34:
	.loc 2 107 10 view .LVU85
	call	__printf_chk@PLT
.LVL35:
	.loc 2 107 10 view .LVU86
.LBE58:
.LBE59:
	.loc 3 673 1 view .LVU87
	jmp	.L3
.LVL36:
.L6:
	.loc 3 655 3 is_stmt 1 view .LVU88
	.loc 3 655 11 is_stmt 0 view .LVU89
	call	dcgettext@PLT
.LVL37:
.LBB60:
.LBB44:
	.loc 2 107 10 view .LVU90
	leaq	.LC17(%rip), %rcx
	movl	$1, %edi
	leaq	.LC18(%rip), %rdx
.LBE44:
.LBE60:
	.loc 3 655 11 view .LVU91
	movq	%rax, %rsi
.LVL38:
.LBB61:
	.loc 2 105 1 is_stmt 1 view .LVU92
.LBB45:
	.loc 2 107 3 view .LVU93
	.loc 2 107 10 is_stmt 0 view .LVU94
	xorl	%eax, %eax
.LVL39:
	.loc 2 107 10 view .LVU95
	call	__printf_chk@PLT
.LVL40:
	.loc 2 107 10 view .LVU96
.LBE45:
.LBE61:
	.loc 3 659 3 is_stmt 1 view .LVU97
	.loc 3 659 29 is_stmt 0 view .LVU98
	movl	$5, %edi
	xorl	%esi, %esi
	call	setlocale@PLT
.LVL41:
	movq	%rax, %rdi
.LVL42:
	.loc 3 660 3 is_stmt 1 view .LVU99
	.loc 3 660 6 is_stmt 0 view .LVU100
	testq	%rax, %rax
	je	.L9
	.loc 3 660 22 view .LVU101
	movl	$3, %edx
	leaq	.LC19(%rip), %rsi
	call	strncmp@PLT
.LVL43:
	.loc 3 660 19 view .LVU102
	testl	%eax, %eax
	jne	.L29
.L9:
	.loc 3 669 3 is_stmt 1 view .LVU103
	.loc 3 669 11 is_stmt 0 view .LVU104
	movl	$5, %edx
	leaq	.LC21(%rip), %rsi
	xorl	%edi, %edi
	call	dcgettext@PLT
.LVL44:
.LBB62:
.LBB51:
	.loc 2 107 10 view .LVU105
	leaq	.LC0(%rip), %rcx
	leaq	.LC17(%rip), %rdx
	movl	$1, %edi
.LBE51:
.LBE62:
	.loc 3 669 11 view .LVU106
	movq	%rax, %rsi
.LVL45:
.LBB63:
	.loc 2 105 1 is_stmt 1 view .LVU107
.LBB52:
	.loc 2 107 3 view .LVU108
	.loc 2 107 10 is_stmt 0 view .LVU109
	xorl	%eax, %eax
.LVL46:
	.loc 2 107 10 view .LVU110
.LBE52:
.LBE63:
	.loc 3 646 15 view .LVU111
	leaq	.LC0(%rip), %r12
.LBB64:
.LBB53:
	.loc 2 107 10 view .LVU112
	call	__printf_chk@PLT
.LVL47:
	.loc 2 107 10 view .LVU113
.LBE53:
.LBE64:
	.loc 3 671 3 is_stmt 1 view .LVU114
	leaq	.LC1(%rip), %r13
	jmp	.L8
.L29:
	.loc 3 646 15 is_stmt 0 view .LVU115
	leaq	.LC0(%rip), %r12
.LVL48:
.L10:
	.loc 3 666 7 is_stmt 1 view .LVU116
	movq	stdout(%rip), %r13
	xorl	%edi, %edi
	movl	$5, %edx
	leaq	.LC20(%rip), %rsi
	call	dcgettext@PLT
.LVL49:
	movq	%rax, %rdi
	movq	%r13, %rsi
	call	fputs_unlocked@PLT
.LVL50:
	jmp	.L7
.LBE65:
.LBE70:
	.cfi_endproc
.LFE135:
	.size	usage, .-usage
	.section	.rodata.str1.1
.LC24:
	.string	"/usr/local/share/locale"
.LC25:
	.string	"Paul Eggert"
.LC26:
	.string	"Jim Meyering"
.LC27:
	.string	"missing operand"
.LC31:
	.string	"invalid time interval %s"
.LC32:
	.string	"cannot read realtime clock"
	.section	.text.startup,"ax",@progbits
	.p2align 4
	.globl	main
	.type	main, @function
main:
.LVL51:
.LFB137:
	.loc 1 98 1 view -0
	.cfi_startproc
	.loc 1 98 1 is_stmt 0 view .LVU118
	endbr64
	pushq	%r15
	.cfi_def_cfa_offset 16
	.cfi_offset 15, -16
	pushq	%r14
	.cfi_def_cfa_offset 24
	.cfi_offset 14, -24
	pushq	%r13
	.cfi_def_cfa_offset 32
	.cfi_offset 13, -32
	pushq	%r12
	.cfi_def_cfa_offset 40
	.cfi_offset 12, -40
	movq	%rsi, %r12
	pushq	%rbp
	.cfi_def_cfa_offset 48
	.cfi_offset 6, -48
	movl	%edi, %ebp
	pushq	%rbx
	.cfi_def_cfa_offset 56
	.cfi_offset 3, -56
	subq	$56, %rsp
	.cfi_def_cfa_offset 112
	.loc 1 103 3 view .LVU119
	movq	(%rsi), %rdi
.LVL52:
	.loc 1 98 1 view .LVU120
	movq	%fs:40, %rax
	movq	%rax, 40(%rsp)
	xorl	%eax, %eax
	.loc 1 99 3 is_stmt 1 view .LVU121
.LVL53:
	.loc 1 100 3 view .LVU122
	.loc 1 102 33 view .LVU123
	.loc 1 103 3 view .LVU124
	call	set_program_name@PLT
.LVL54:
	.loc 1 104 3 view .LVU125
	leaq	.LC2(%rip), %rsi
	movl	$6, %edi
	call	setlocale@PLT
.LVL55:
	.loc 1 105 3 view .LVU126
	leaq	.LC24(%rip), %rsi
	leaq	.LC9(%rip), %rdi
	call	bindtextdomain@PLT
.LVL56:
	.loc 1 106 3 view .LVU127
	leaq	.LC9(%rip), %rdi
	call	textdomain@PLT
.LVL57:
	.loc 1 108 3 view .LVU128
	movq	close_stdout@GOTPCREL(%rip), %rdi
	call	atexit@PLT
.LVL58:
	.loc 1 110 3 view .LVU129
	leaq	.LC25(%rip), %rax
	pushq	$0
	.cfi_def_cfa_offset 120
	movl	%ebp, %edi
	pushq	%rax
	.cfi_def_cfa_offset 128
	movl	$1, %r9d
	leaq	.LC26(%rip), %rax
	movq	Version(%rip), %r8
	pushq	%rax
	.cfi_def_cfa_offset 136
	leaq	usage(%rip), %rax
	leaq	.LC18(%rip), %rcx
	movq	%r12, %rsi
	pushq	%rax
	.cfi_def_cfa_offset 144
	leaq	.LC0(%rip), %rdx
	xorl	%eax, %eax
	call	parse_gnu_standard_options_only@PLT
.LVL59:
	.loc 1 114 3 view .LVU130
	.loc 1 114 6 is_stmt 0 view .LVU131
	addq	$32, %rsp
	.cfi_def_cfa_offset 112
	cmpl	$1, %ebp
	je	.L55
	.loc 1 120 3 is_stmt 1 view .LVU132
.LBB71:
	.loc 1 120 8 view .LVU133
	.loc 1 120 12 is_stmt 0 view .LVU134
	movl	optind(%rip), %eax
.LVL60:
	.loc 1 120 24 is_stmt 1 view .LVU135
	.loc 1 120 3 is_stmt 0 view .LVU136
	cmpl	%eax, %ebp
	jle	.L45
	movslq	%eax, %rdx
	notl	%eax
.LVL61:
	.loc 1 120 3 view .LVU137
.LBE71:
	.loc 1 100 8 view .LVU138
	movl	$1, %r15d
	.loc 1 99 10 view .LVU139
	movq	$0x000000000, 8(%rsp)
	addl	%ebp, %eax
	leaq	(%r12,%rdx,8), %rbx
	movq	cl_strtod@GOTPCREL(%rip), %rbp
.LVL62:
	.loc 1 99 10 view .LVU140
	leaq	24(%rsp), %r13
	addq	%rdx, %rax
	leaq	8(%r12,%rax,8), %r14
	leaq	32(%rsp), %r12
.LVL63:
	.loc 1 99 10 view .LVU141
	jmp	.L42
.LVL64:
	.p2align 4,,10
	.p2align 3
.L57:
.LBB79:
.LBB72:
	.loc 1 124 54 discriminator 1 view .LVU142
	call	__errno_location@PLT
.LVL65:
	.loc 1 124 11 discriminator 1 view .LVU143
	cmpl	$34, (%rax)
	je	.L33
.L34:
	.loc 1 132 11 is_stmt 1 view .LVU144
	movq	(%rbx), %rdi
	call	quote@PLT
.LVL66:
	.loc 1 132 24 is_stmt 0 view .LVU145
	movl	$5, %edx
	leaq	.LC31(%rip), %rsi
	xorl	%edi, %edi
	.loc 1 132 11 view .LVU146
	movq	%rax, %r15
.LVL67:
	.loc 1 132 24 view .LVU147
	call	dcgettext@PLT
.LVL68:
	.loc 1 132 11 view .LVU148
	movq	%r15, %rcx
	xorl	%esi, %esi
	xorl	%edi, %edi
	.loc 1 132 24 view .LVU149
	movq	%rax, %rdx
	.loc 1 132 11 view .LVU150
	xorl	%eax, %eax
	.loc 1 133 14 view .LVU151
	xorl	%r15d, %r15d
	.loc 1 132 11 view .LVU152
	call	error@PLT
.LVL69:
	.loc 1 133 11 is_stmt 1 view .LVU153
	.loc 1 133 11 is_stmt 0 view .LVU154
	movsd	24(%rsp), %xmm0
.LVL70:
.L41:
	.loc 1 136 7 is_stmt 1 discriminator 2 view .LVU155
	.loc 1 136 15 is_stmt 0 discriminator 2 view .LVU156
	addsd	8(%rsp), %xmm0
	addq	$8, %rbx
	movsd	%xmm0, 8(%rsp)
.LVL71:
	.loc 1 136 15 discriminator 2 view .LVU157
.LBE72:
	.loc 1 120 34 is_stmt 1 discriminator 2 view .LVU158
	.loc 1 120 24 discriminator 2 view .LVU159
	.loc 1 120 3 is_stmt 0 discriminator 2 view .LVU160
	cmpq	%r14, %rbx
	je	.L56
.LVL72:
.L42:
.LBB77:
	.loc 1 122 7 is_stmt 1 view .LVU161
	.loc 1 123 7 view .LVU162
	.loc 1 124 7 view .LVU163
	.loc 1 124 14 is_stmt 0 view .LVU164
	movq	(%rbx), %rdi
	movq	%rbp, %rcx
	movq	%r13, %rdx
	movq	%r12, %rsi
	call	xstrtod@PLT
.LVL73:
	.loc 1 124 10 view .LVU165
	testb	%al, %al
	je	.L57
.L33:
	.loc 1 126 19 view .LVU166
	movsd	24(%rsp), %xmm0
	.loc 1 126 11 view .LVU167
	pxor	%xmm2, %xmm2
	comisd	%xmm2, %xmm0
	jb	.L34
	.loc 1 128 15 view .LVU168
	movq	32(%rsp), %rdx
	movzbl	(%rdx), %eax
	.loc 1 128 11 view .LVU169
	testb	%al, %al
	je	.L41
	.loc 1 128 18 discriminator 1 view .LVU170
	cmpb	$0, 1(%rdx)
	jne	.L34
.LVL74:
.LBB73:
.LBI73:
	.loc 1 68 1 is_stmt 1 view .LVU171
.LBB74:
	.loc 1 70 3 view .LVU172
	.loc 1 72 3 view .LVU173
	cmpb	$104, %al
	je	.L37
	jg	.L38
	cmpb	$100, %al
	jne	.L34
	.loc 1 85 7 view .LVU174
.LVL75:
	.loc 1 86 7 view .LVU175
	mulsd	.LC30(%rip), %xmm0
.LVL76:
	.loc 1 91 3 view .LVU176
	.loc 1 93 3 view .LVU177
	.loc 1 86 7 is_stmt 0 view .LVU178
	jmp	.L41
.LVL77:
	.p2align 4,,10
	.p2align 3
.L38:
	.loc 1 72 3 view .LVU179
	cmpb	$109, %al
	jne	.L58
	.loc 1 79 7 is_stmt 1 view .LVU180
.LVL78:
	.loc 1 80 7 view .LVU181
	mulsd	.LC28(%rip), %xmm0
	jmp	.L41
.LVL79:
	.p2align 4,,10
	.p2align 3
.L58:
	.loc 1 72 3 is_stmt 0 view .LVU182
	cmpb	$115, %al
	jne	.L34
	jmp	.L41
.LVL80:
	.p2align 4,,10
	.p2align 3
.L56:
	.loc 1 72 3 view .LVU183
.LBE74:
.LBE73:
.LBE77:
.LBE79:
	.loc 1 139 3 is_stmt 1 view .LVU184
	.loc 1 139 6 is_stmt 0 view .LVU185
	testb	%r15b, %r15b
	je	.L59
.LVL81:
.L32:
	.loc 1 142 3 is_stmt 1 view .LVU186
	.loc 1 142 7 is_stmt 0 view .LVU187
	movsd	8(%rsp), %xmm0
	call	xnanosleep@PLT
.LVL82:
	.loc 1 142 6 view .LVU188
	testl	%eax, %eax
	jne	.L60
	.loc 1 145 3 is_stmt 1 view .LVU189
	.loc 1 146 1 is_stmt 0 view .LVU190
	movq	40(%rsp), %rax
	xorq	%fs:40, %rax
	jne	.L61
	addq	$56, %rsp
	.cfi_remember_state
	.cfi_def_cfa_offset 56
	xorl	%eax, %eax
	popq	%rbx
	.cfi_def_cfa_offset 48
	popq	%rbp
	.cfi_def_cfa_offset 40
	popq	%r12
	.cfi_def_cfa_offset 32
	popq	%r13
	.cfi_def_cfa_offset 24
	popq	%r14
	.cfi_def_cfa_offset 16
	popq	%r15
	.cfi_def_cfa_offset 8
	ret
.LVL83:
.L37:
	.cfi_restore_state
.LBB80:
.LBB78:
.LBB76:
.LBB75:
	.loc 1 82 7 is_stmt 1 view .LVU191
	.loc 1 83 7 view .LVU192
	mulsd	.LC29(%rip), %xmm0
	jmp	.L41
.LVL84:
.L45:
	.loc 1 83 7 is_stmt 0 view .LVU193
.LBE75:
.LBE76:
.LBE78:
.LBE80:
	.loc 1 99 10 view .LVU194
	pxor	%xmm3, %xmm3
	movsd	%xmm3, 8(%rsp)
	jmp	.L32
.LVL85:
.L59:
	.loc 1 140 5 is_stmt 1 view .LVU195
	movl	$1, %edi
	call	usage
.LVL86:
.L55:
	.loc 1 116 7 view .LVU196
	.loc 1 116 20 is_stmt 0 view .LVU197
	movl	$5, %edx
	leaq	.LC27(%rip), %rsi
	xorl	%edi, %edi
	call	dcgettext@PLT
.LVL87:
	.loc 1 116 7 view .LVU198
	xorl	%edi, %edi
	xorl	%esi, %esi
	.loc 1 116 20 view .LVU199
	movq	%rax, %rdx
	.loc 1 116 7 view .LVU200
	xorl	%eax, %eax
	call	error@PLT
.LVL88:
	.loc 1 117 7 is_stmt 1 view .LVU201
	movl	$1, %edi
	call	usage
.LVL89:
.L61:
	.loc 1 146 1 is_stmt 0 view .LVU202
	call	__stack_chk_fail@PLT
.LVL90:
.L60:
.LBB81:
	.loc 1 143 5 is_stmt 1 view .LVU203
	movl	$5, %edx
	leaq	.LC32(%rip), %rsi
	xorl	%edi, %edi
	call	dcgettext@PLT
.LVL91:
	movq	%rax, %r12
	call	__errno_location@PLT
.LVL92:
	movq	%r12, %rdx
	movl	$1, %edi
	movl	(%rax), %esi
	xorl	%eax, %eax
	call	error@PLT
.LVL93:
.LBE81:
	.cfi_endproc
.LFE137:
	.size	main, .-main
	.section	.rodata.cst8,"aM",@progbits,8
	.align 8
.LC28:
	.long	0
	.long	1078853632
	.align 8
.LC29:
	.long	0
	.long	1085022208
	.align 8
.LC30:
	.long	0
	.long	1089804288
	.text
.Letext0:
	.file 4 "/usr/lib/gcc/x86_64-linux-gnu/9/include/stddef.h"
	.file 5 "/usr/include/x86_64-linux-gnu/bits/types.h"
	.file 6 "/usr/include/x86_64-linux-gnu/bits/types/struct_FILE.h"
	.file 7 "/usr/include/x86_64-linux-gnu/bits/types/FILE.h"
	.file 8 "/usr/include/stdio.h"
	.file 9 "/usr/include/x86_64-linux-gnu/bits/sys_errlist.h"
	.file 10 "./lib/sys/select.h"
	.file 11 "/usr/include/time.h"
	.file 12 "/usr/include/signal.h"
	.file 13 "/usr/include/unistd.h"
	.file 14 "/usr/include/x86_64-linux-gnu/bits/getopt_core.h"
	.file 15 "/usr/include/errno.h"
	.file 16 "src/version.h"
	.file 17 "./lib/exitfail.h"
	.file 18 "./lib/version-etc.h"
	.file 19 "./lib/progname.h"
	.file 20 "./lib/quotearg.h"
	.file 21 "./lib/error.h"
	.file 22 "./lib/quote.h"
	.file 23 "/usr/include/libintl.h"
	.file 24 "./lib/xstrtod.h"
	.file 25 "/usr/include/locale.h"
	.file 26 "/usr/include/stdlib.h"
	.file 27 "./lib/long-options.h"
	.file 28 "./lib/xnanosleep.h"
	.file 29 "/usr/include/string.h"
	.section	.note.GNU-stack,"",@progbits
	.section	.note.gnu.property,"a"
	.align 8
	.long	 1f - 0f
	.long	 4f - 1f
	.long	 5
0:
	.string	 "GNU"
1:
	.align 8
	.long	 0xc0000002
	.long	 3f - 2f
2:
	.long	 0x3
3:
	.align 8
4:
