	.file	"sort.c"
	.text
.Ltext0:
	.p2align 4
	.type	proctab_hasher, @function
proctab_hasher:
.LVL0:
.LFB141:
	.file 1 "src/sort.c"
	.loc 1 684 1 view -0
	.cfi_startproc
	.loc 1 684 1 is_stmt 0 view .LVU1
	endbr64
	.loc 1 685 3 is_stmt 1 view .LVU2
.LVL1:
	.loc 1 686 3 view .LVU3
	.loc 1 686 14 is_stmt 0 view .LVU4
	movslq	8(%rdi), %rax
	.loc 1 686 20 view .LVU5
	xorl	%edx, %edx
	divq	%rsi
	.loc 1 687 1 view .LVU6
	movq	%rdx, %rax
	ret
	.cfi_endproc
.LFE141:
	.size	proctab_hasher, .-proctab_hasher
	.p2align 4
	.type	proctab_comparator, @function
proctab_comparator:
.LVL2:
.LFB142:
	.loc 1 691 1 is_stmt 1 view -0
	.cfi_startproc
	.loc 1 691 1 is_stmt 0 view .LVU8
	endbr64
	.loc 1 692 3 is_stmt 1 view .LVU9
.LVL3:
	.loc 1 693 3 view .LVU10
	.loc 1 694 3 view .LVU11
	.loc 1 694 18 is_stmt 0 view .LVU12
	movl	8(%rsi), %eax
	cmpl	%eax, 8(%rdi)
	sete	%al
	.loc 1 695 1 view .LVU13
	ret
	.cfi_endproc
.LFE142:
	.size	proctab_comparator, .-proctab_comparator
	.p2align 4
	.type	traverse_raw_number, @function
traverse_raw_number:
.LVL4:
.LFB176:
	.loc 1 1908 1 is_stmt 1 view -0
	.cfi_startproc
	.loc 1 1909 3 view .LVU15
	.loc 1 1909 15 is_stmt 0 view .LVU16
	movq	(%rdi), %rax
.LVL5:
	.loc 1 1910 3 is_stmt 1 view .LVU17
	.loc 1 1911 3 view .LVU18
	.loc 1 1912 3 view .LVU19
	.loc 1 1920 3 view .LVU20
	.loc 1 1920 9 view .LVU21
	.loc 1 1920 10 is_stmt 0 view .LVU22
	movzbl	(%rax), %ecx
	leaq	1(%rax), %rsi
.LVL6:
	.loc 1 1920 10 view .LVU23
	leal	-48(%rcx), %r8d
	movl	%ecx, %edx
.LVL7:
	.loc 1 1920 9 view .LVU24
	cmpl	$9, %r8d
	ja	.L12
	.loc 1 1928 37 view .LVU25
	movl	thousands_sep(%rip), %r10d
	.loc 1 1911 17 view .LVU26
	xorl	%r8d, %r8d
.LVL8:
	.p2align 4,,10
	.p2align 3
.L7:
	.loc 1 1922 7 is_stmt 1 view .LVU27
	cmpb	%dl, %r8b
	.loc 1 1930 9 is_stmt 0 view .LVU28
	movl	$1, %r11d
	cmovb	%edx, %r8d
.LVL9:
	.loc 1 1928 7 is_stmt 1 view .LVU29
	.loc 1 1929 7 view .LVU30
	.loc 1 1928 34 is_stmt 0 view .LVU31
	movsbl	1(%rax), %edx
.LVL10:
	.loc 1 1930 9 view .LVU32
	addq	$2, %rax
.LVL11:
	.loc 1 1929 10 view .LVU33
	cmpl	%r10d, %edx
	je	.L6
	movq	%rsi, %rax
.LVL12:
	.loc 1 1929 10 view .LVU34
	xorl	%r11d, %r11d
.L6:
.LVL13:
	.loc 1 1920 9 is_stmt 1 view .LVU35
	.loc 1 1920 10 is_stmt 0 view .LVU36
	movzbl	(%rax), %ecx
	leaq	1(%rax), %rsi
.LVL14:
	.loc 1 1920 10 view .LVU37
	leal	-48(%rcx), %r9d
	movl	%ecx, %edx
.LVL15:
	.loc 1 1920 9 view .LVU38
	cmpl	$9, %r9d
	jbe	.L7
	.loc 1 1933 3 is_stmt 1 view .LVU39
	.loc 1 1933 6 is_stmt 0 view .LVU40
	testb	%r11b, %r11b
	jne	.L19
.LVL16:
.L5:
	.loc 1 1940 3 is_stmt 1 view .LVU41
	.loc 1 1940 6 is_stmt 0 view .LVU42
	cmpl	decimal_point(%rip), %ecx
	je	.L20
	subq	$1, %rsi
.LVL17:
.L10:
	.loc 1 1945 3 is_stmt 1 view .LVU43
	.loc 1 1945 11 is_stmt 0 view .LVU44
	movq	%rsi, (%rdi)
	.loc 1 1946 3 is_stmt 1 view .LVU45
	.loc 1 1947 1 is_stmt 0 view .LVU46
	movl	%r8d, %eax
	ret
.LVL18:
	.p2align 4,,10
	.p2align 3
.L20:
	.loc 1 1941 11 is_stmt 1 view .LVU47
	.loc 1 1941 12 is_stmt 0 view .LVU48
	movzbl	(%rsi), %ecx
.LVL19:
	.loc 1 1941 12 view .LVU49
	leaq	1(%rsi), %rdx
.LVL20:
	.loc 1 1941 12 view .LVU50
	movl	%ecx, %eax
.LVL21:
	.loc 1 1941 12 view .LVU51
	subl	$48, %ecx
.LVL22:
	.loc 1 1941 11 view .LVU52
	cmpl	$9, %ecx
	ja	.L10
.LVL23:
	.p2align 4,,10
	.p2align 3
.L11:
	.loc 1 1942 7 is_stmt 1 view .LVU53
	cmpb	%al, %r8b
	movq	%rdx, %rsi
	cmovb	%eax, %r8d
.LVL24:
	.loc 1 1941 11 view .LVU54
	.loc 1 1941 12 is_stmt 0 view .LVU55
	movzbl	(%rdx), %ecx
	addq	$1, %rdx
.LVL25:
	.loc 1 1941 12 view .LVU56
	movl	%ecx, %eax
.LVL26:
	.loc 1 1941 12 view .LVU57
	subl	$48, %ecx
.LVL27:
	.loc 1 1941 11 view .LVU58
	cmpl	$9, %ecx
	jbe	.L11
	jmp	.L10
.LVL28:
	.p2align 4,,10
	.p2align 3
.L19:
	.loc 1 1936 7 is_stmt 1 view .LVU59
	.loc 1 1936 19 is_stmt 0 view .LVU60
	subq	$1, %rax
	movq	%rax, (%rdi)
	.loc 1 1937 7 is_stmt 1 view .LVU61
	.loc 1 1947 1 is_stmt 0 view .LVU62
	movl	%r8d, %eax
	ret
.LVL29:
	.p2align 4,,10
	.p2align 3
.L12:
	.loc 1 1911 17 view .LVU63
	xorl	%r8d, %r8d
	jmp	.L5
	.cfi_endproc
.LFE176:
	.size	traverse_raw_number, .-traverse_raw_number
	.p2align 4
	.type	find_unit_order, @function
find_unit_order:
.LVL30:
.LFB177:
	.loc 1 1956 1 is_stmt 1 view -0
	.cfi_startproc
	.loc 1 1956 1 is_stmt 0 view .LVU65
	pushq	%rbx
	.cfi_def_cfa_offset 16
	.cfi_offset 3, -16
	subq	$16, %rsp
	.cfi_def_cfa_offset 32
	.loc 1 1957 22 view .LVU66
	movzbl	(%rdi), %ebx
	.loc 1 1956 1 view .LVU67
	movq	%fs:40, %rax
	movq	%rax, 8(%rsp)
	xorl	%eax, %eax
	.loc 1 1957 3 is_stmt 1 view .LVU68
.LVL31:
	.loc 1 1958 3 view .LVU69
	.loc 1 1957 8 is_stmt 0 view .LVU70
	xorl	%eax, %eax
	cmpb	$45, %bl
	sete	%al
	.loc 1 1958 26 view .LVU71
	addq	%rax, %rdi
.LVL32:
	.loc 1 1958 26 view .LVU72
	movq	%rdi, (%rsp)
	.loc 1 1959 3 is_stmt 1 view .LVU73
	.loc 1 1959 29 is_stmt 0 view .LVU74
	movq	%rsp, %rdi
	call	traverse_raw_number
.LVL33:
	movl	%eax, %r8d
.LVL34:
	.loc 1 1960 3 is_stmt 1 view .LVU75
	xorl	%eax, %eax
.LVL35:
	.loc 1 1960 6 is_stmt 0 view .LVU76
	cmpb	$48, %r8b
	jbe	.L21
.LBB560:
	.loc 1 1962 7 is_stmt 1 view .LVU77
.LVL36:
	.loc 1 1963 7 view .LVU78
	.loc 1 1963 29 is_stmt 0 view .LVU79
	movq	(%rsp), %rax
	.loc 1 1963 11 view .LVU80
	leaq	unit_order(%rip), %rdx
	.loc 1 1963 29 view .LVU81
	movzbl	(%rax), %eax
	.loc 1 1963 11 view .LVU82
	movsbl	(%rdx,%rax), %eax
.LVL37:
	.loc 1 1964 7 is_stmt 1 view .LVU83
	.loc 1 1964 35 is_stmt 0 view .LVU84
	movl	%eax, %edx
	negl	%edx
	cmpb	$45, %bl
	cmove	%edx, %eax
.LVL38:
.L21:
	.loc 1 1964 35 view .LVU85
.LBE560:
	.loc 1 1968 1 view .LVU86
	movq	8(%rsp), %rcx
	xorq	%fs:40, %rcx
	jne	.L27
	addq	$16, %rsp
	.cfi_remember_state
	.cfi_def_cfa_offset 16
	popq	%rbx
	.cfi_def_cfa_offset 8
.LVL39:
	.loc 1 1968 1 view .LVU87
	ret
.LVL40:
.L27:
	.cfi_restore_state
	.loc 1 1968 1 view .LVU88
	call	__stack_chk_fail@PLT
.LVL41:
	.loc 1 1968 1 view .LVU89
	.cfi_endproc
.LFE177:
	.size	find_unit_order, .-find_unit_order
	.p2align 4
	.type	getmonth, @function
getmonth:
.LVL42:
.LFB182:
	.loc 1 2051 1 is_stmt 1 view -0
	.cfi_startproc
	.loc 1 2052 3 view .LVU91
	.loc 1 2053 3 view .LVU92
	.loc 1 2055 3 view .LVU93
	.loc 1 2055 9 view .LVU94
.LBB561:
.LBI561:
	.file 2 "src/system.h"
	.loc 2 156 29 view .LVU95
.LBB562:
	.loc 2 156 50 view .LVU96
	.loc 2 156 50 is_stmt 0 view .LVU97
.LBE562:
.LBE561:
	.loc 1 2055 16 view .LVU98
	movzbl	(%rdi), %eax
	leaq	blanks(%rip), %rdx
	.loc 1 2051 1 view .LVU99
	pushq	%rbp
	.cfi_def_cfa_offset 16
	.cfi_offset 6, -16
	pushq	%rbx
	.cfi_def_cfa_offset 24
	.cfi_offset 3, -24
	.loc 1 2051 1 view .LVU100
	movq	%rsi, %rbx
	.loc 1 2055 9 view .LVU101
	cmpb	$0, (%rdx,%rax)
	je	.L29
	.p2align 4,,10
	.p2align 3
.L30:
	.loc 1 2056 5 is_stmt 1 view .LVU102
	.loc 1 2055 16 is_stmt 0 view .LVU103
	movzbl	1(%rdi), %eax
	.loc 1 2056 10 view .LVU104
	addq	$1, %rdi
.LVL43:
	.loc 1 2055 9 is_stmt 1 view .LVU105
.LBB564:
	.loc 2 156 29 view .LVU106
.LBB563:
	.loc 2 156 50 view .LVU107
	.loc 2 156 50 is_stmt 0 view .LVU108
.LBE563:
.LBE564:
	.loc 1 2055 9 view .LVU109
	cmpb	$0, (%rdx,%rax)
	jne	.L30
.L29:
	.loc 1 2053 10 view .LVU110
	movl	$12, %r11d
	.loc 1 2052 10 view .LVU111
	xorl	%esi, %esi
.LVL44:
	.loc 1 2052 10 view .LVU112
	leaq	monthtab(%rip), %rbp
	leaq	fold_toupper(%rip), %r9
.LVL45:
.L37:
	.loc 1 2058 3 is_stmt 1 view .LVU113
.LBB565:
	.loc 1 2060 7 view .LVU114
	.loc 1 2060 23 is_stmt 0 view .LVU115
	leaq	(%rsi,%r11), %r10
	.loc 1 2066 14 view .LVU116
	movq	%rdi, %rcx
	.loc 1 2060 14 view .LVU117
	shrq	%r10
.LVL46:
	.loc 1 2061 7 is_stmt 1 view .LVU118
	.loc 1 2062 7 view .LVU119
	.loc 1 2062 19 is_stmt 0 view .LVU120
	movq	%r10, %rax
	salq	$4, %rax
	movq	0(%rbp,%rax), %rdx
.LVL47:
	.loc 1 2064 7 is_stmt 1 view .LVU121
	.loc 1 2066 11 view .LVU122
	.loc 1 2066 16 is_stmt 0 view .LVU123
	movzbl	(%rdx), %eax
	.loc 1 2066 14 view .LVU124
	testb	%al, %al
	jne	.L31
.LVL48:
	.loc 1 2066 14 view .LVU125
	jmp	.L36
.LVL49:
	.p2align 4,,10
	.p2align 3
.L50:
	.loc 1 2077 16 is_stmt 1 view .LVU126
	.loc 1 2077 16 is_stmt 0 view .LVU127
.LBE565:
	.loc 2 156 50 is_stmt 1 view .LVU128
	.loc 2 156 50 view .LVU129
	.loc 2 156 50 view .LVU130
.LBB572:
	.loc 1 2077 19 is_stmt 0 view .LVU131
	ja	.L49
	.loc 1 2064 15 is_stmt 1 view .LVU132
	.loc 1 2066 16 is_stmt 0 view .LVU133
	movzbl	1(%rdx), %eax
	.loc 1 2064 21 view .LVU134
	addq	$1, %rdx
.LVL50:
	.loc 1 2064 16 view .LVU135
	addq	$1, %rcx
.LVL51:
	.loc 1 2064 13 is_stmt 1 view .LVU136
	.loc 1 2064 7 view .LVU137
	.loc 1 2066 11 view .LVU138
	.loc 1 2066 14 is_stmt 0 view .LVU139
	testb	%al, %al
	je	.L36
.L31:
	.loc 1 2072 11 is_stmt 1 view .LVU140
.LVL52:
.LBB566:
.LBI566:
	.loc 2 156 29 view .LVU141
.LBB567:
	.loc 2 156 50 view .LVU142
	.loc 2 156 50 is_stmt 0 view .LVU143
.LBE567:
.LBE566:
.LBB568:
.LBI568:
	.loc 2 156 29 is_stmt 1 view .LVU144
.LBB569:
	.loc 2 156 50 view .LVU145
	.loc 2 156 50 is_stmt 0 view .LVU146
.LBE569:
.LBE568:
.LBB570:
.LBI570:
	.loc 2 156 29 is_stmt 1 view .LVU147
.LBB571:
	.loc 2 156 50 view .LVU148
	.loc 2 156 50 is_stmt 0 view .LVU149
.LBE571:
.LBE570:
	.loc 1 2072 37 view .LVU150
	movzbl	(%rcx), %r8d
	.loc 1 2072 14 view .LVU151
	cmpb	%al, (%r9,%r8)
	jnb	.L50
	.loc 1 2060 14 view .LVU152
	movq	%r10, %r11
.LVL53:
.L34:
	.loc 1 2060 14 view .LVU153
.LBE572:
	.loc 1 2084 9 is_stmt 1 view .LVU154
	.loc 1 2084 3 is_stmt 0 view .LVU155
	cmpq	%r11, %rsi
	jb	.L37
	.loc 1 2086 10 view .LVU156
	xorl	%eax, %eax
	jmp	.L28
	.p2align 4,,10
	.p2align 3
.L36:
.LBB573:
	.loc 1 2068 15 is_stmt 1 view .LVU157
	.loc 1 2068 18 is_stmt 0 view .LVU158
	testq	%rbx, %rbx
	je	.L32
	.loc 1 2069 17 is_stmt 1 view .LVU159
	.loc 1 2069 21 is_stmt 0 view .LVU160
	movq	%rcx, (%rbx)
.L32:
	.loc 1 2070 15 is_stmt 1 view .LVU161
	.loc 1 2070 34 is_stmt 0 view .LVU162
	salq	$4, %r10
.LVL54:
	.loc 1 2070 34 view .LVU163
	movl	8(%rbp,%r10), %eax
.LVL55:
.L28:
	.loc 1 2070 34 view .LVU164
.LBE573:
	.loc 1 2087 1 view .LVU165
	popq	%rbx
	.cfi_remember_state
	.cfi_def_cfa_offset 16
.LVL56:
	.loc 1 2087 1 view .LVU166
	popq	%rbp
	.cfi_def_cfa_offset 8
	ret
.LVL57:
	.p2align 4,,10
	.p2align 3
.L49:
	.cfi_restore_state
.LBB574:
	.loc 1 2079 15 is_stmt 1 view .LVU167
	.loc 1 2079 18 is_stmt 0 view .LVU168
	leaq	1(%r10), %rsi
.LVL58:
	.loc 1 2080 15 is_stmt 1 view .LVU169
	jmp	.L34
.LBE574:
	.cfi_endproc
.LFE182:
	.size	getmonth, .-getmonth
	.p2align 4
	.type	default_key_compare, @function
default_key_compare:
.LVL59:
.LFB191:
	.loc 1 2377 1 view -0
	.cfi_startproc
	.loc 1 2378 3 view .LVU171
	xorl	%eax, %eax
	.loc 1 2378 10 is_stmt 0 view .LVU172
	cmpq	$0, 32(%rdi)
	je	.L58
.L51:
	.loc 1 2388 1 view .LVU173
	ret
	.p2align 4,,10
	.p2align 3
.L58:
	.loc 1 2379 13 view .LVU174
	cmpq	$0, 40(%rdi)
	jne	.L51
	.loc 1 2380 19 view .LVU175
	movzbl	48(%rdi), %eax
	.loc 1 2380 13 view .LVU176
	testb	%al, %al
	jne	.L57
	.loc 1 2381 13 view .LVU177
	cmpb	$0, 49(%rdi)
	jne	.L51
.LVL60:
.LBB575:
.LBI575:
	.loc 1 2298 1 is_stmt 1 view .LVU178
.LBB576:
	.loc 1 2300 3 view .LVU179
	.loc 1 2300 3 is_stmt 0 view .LVU180
.LBE576:
.LBE575:
	.loc 1 2382 13 view .LVU181
	movabsq	$281470698455040, %rdx
	testq	%rdx, 48(%rdi)
	jne	.L51
	.loc 1 2383 19 view .LVU182
	movzbl	54(%rdi), %eax
	.loc 1 2383 13 view .LVU183
	testb	%al, %al
	jne	.L57
	.loc 1 2384 13 view .LVU184
	cmpb	$0, 56(%rdi)
	jne	.L51
	.loc 1 2378 10 discriminator 3 view .LVU185
	movzbl	51(%rdi), %eax
	xorl	$1, %eax
	ret
	.p2align 4,,10
	.p2align 3
.L57:
	xorl	%eax, %eax
	.loc 1 2388 1 view .LVU186
	ret
	.cfi_endproc
.LFE191:
	.size	default_key_compare, .-default_key_compare
	.p2align 4
	.type	key_to_opts, @function
key_to_opts:
.LVL61:
.LFB192:
	.loc 1 2394 1 is_stmt 1 view -0
	.cfi_startproc
	.loc 1 2395 3 view .LVU188
	.loc 1 2395 6 is_stmt 0 view .LVU189
	cmpw	$0, 48(%rdi)
	je	.L60
	.loc 1 2396 5 is_stmt 1 view .LVU190
.LVL62:
	.loc 1 2396 13 is_stmt 0 view .LVU191
	movb	$98, (%rsi)
	.loc 1 2396 10 view .LVU192
	addq	$1, %rsi
.LVL63:
.L60:
	.loc 1 2397 3 is_stmt 1 view .LVU193
	.loc 1 2397 6 is_stmt 0 view .LVU194
	leaq	nondictionary(%rip), %rax
	cmpq	%rax, 32(%rdi)
	je	.L72
.L61:
	.loc 1 2399 3 is_stmt 1 view .LVU195
	.loc 1 2399 6 is_stmt 0 view .LVU196
	cmpq	$0, 40(%rdi)
	movq	%rsi, %rax
	je	.L62
.LVL64:
	.loc 1 2400 5 is_stmt 1 view .LVU197
	.loc 1 2400 13 is_stmt 0 view .LVU198
	movb	$102, (%rsi)
	.loc 1 2400 10 view .LVU199
	addq	$1, %rax
.LVL65:
.L62:
	.loc 1 2401 3 is_stmt 1 view .LVU200
	.loc 1 2401 6 is_stmt 0 view .LVU201
	cmpb	$0, 52(%rdi)
	je	.L63
	.loc 1 2402 5 is_stmt 1 view .LVU202
.LVL66:
	.loc 1 2402 13 is_stmt 0 view .LVU203
	movb	$103, (%rax)
	.loc 1 2402 10 view .LVU204
	addq	$1, %rax
.LVL67:
.L63:
	.loc 1 2403 3 is_stmt 1 view .LVU205
	.loc 1 2403 6 is_stmt 0 view .LVU206
	cmpb	$0, 53(%rdi)
	je	.L64
	.loc 1 2404 5 is_stmt 1 view .LVU207
.LVL68:
	.loc 1 2404 13 is_stmt 0 view .LVU208
	movb	$104, (%rax)
	.loc 1 2404 10 view .LVU209
	addq	$1, %rax
.LVL69:
.L64:
	.loc 1 2405 3 is_stmt 1 view .LVU210
	.loc 1 2405 6 is_stmt 0 view .LVU211
	leaq	nonprinting(%rip), %rdx
	cmpq	%rdx, 32(%rdi)
	je	.L73
.L65:
	.loc 1 2407 3 is_stmt 1 view .LVU212
	.loc 1 2407 6 is_stmt 0 view .LVU213
	cmpb	$0, 54(%rdi)
	je	.L66
	.loc 1 2408 5 is_stmt 1 view .LVU214
.LVL70:
	.loc 1 2408 13 is_stmt 0 view .LVU215
	movb	$77, (%rax)
	.loc 1 2408 10 view .LVU216
	addq	$1, %rax
.LVL71:
.L66:
	.loc 1 2409 3 is_stmt 1 view .LVU217
	.loc 1 2409 6 is_stmt 0 view .LVU218
	cmpb	$0, 50(%rdi)
	je	.L67
	.loc 1 2410 5 is_stmt 1 view .LVU219
.LVL72:
	.loc 1 2410 13 is_stmt 0 view .LVU220
	movb	$110, (%rax)
	.loc 1 2410 10 view .LVU221
	addq	$1, %rax
.LVL73:
.L67:
	.loc 1 2411 3 is_stmt 1 view .LVU222
	.loc 1 2411 6 is_stmt 0 view .LVU223
	cmpb	$0, 51(%rdi)
	je	.L68
	.loc 1 2412 5 is_stmt 1 view .LVU224
.LVL74:
	.loc 1 2412 13 is_stmt 0 view .LVU225
	movb	$82, (%rax)
	.loc 1 2412 10 view .LVU226
	addq	$1, %rax
.LVL75:
.L68:
	.loc 1 2413 3 is_stmt 1 view .LVU227
	.loc 1 2413 6 is_stmt 0 view .LVU228
	cmpb	$0, 55(%rdi)
	je	.L69
	.loc 1 2414 5 is_stmt 1 view .LVU229
.LVL76:
	.loc 1 2414 13 is_stmt 0 view .LVU230
	movb	$114, (%rax)
	.loc 1 2414 10 view .LVU231
	addq	$1, %rax
.LVL77:
.L69:
	.loc 1 2415 3 is_stmt 1 view .LVU232
	.loc 1 2415 6 is_stmt 0 view .LVU233
	cmpb	$0, 56(%rdi)
	je	.L70
	.loc 1 2416 5 is_stmt 1 view .LVU234
.LVL78:
	.loc 1 2416 13 is_stmt 0 view .LVU235
	movb	$86, (%rax)
	.loc 1 2416 10 view .LVU236
	addq	$1, %rax
.LVL79:
.L70:
	.loc 1 2417 3 is_stmt 1 view .LVU237
	.loc 1 2417 9 is_stmt 0 view .LVU238
	movb	$0, (%rax)
	.loc 1 2418 1 view .LVU239
	ret
.LVL80:
.L72:
	.loc 1 2398 5 is_stmt 1 view .LVU240
	.loc 1 2398 13 is_stmt 0 view .LVU241
	movb	$100, (%rsi)
	.loc 1 2398 10 view .LVU242
	addq	$1, %rsi
.LVL81:
	.loc 1 2398 10 view .LVU243
	jmp	.L61
.LVL82:
.L73:
	.loc 1 2406 5 is_stmt 1 view .LVU244
	.loc 1 2406 13 is_stmt 0 view .LVU245
	movb	$105, (%rax)
	.loc 1 2406 10 view .LVU246
	addq	$1, %rax
.LVL83:
	.loc 1 2406 10 view .LVU247
	jmp	.L65
	.cfi_endproc
.LFE192:
	.size	key_to_opts, .-key_to_opts
	.p2align 4
	.type	set_ordering, @function
set_ordering:
.LVL84:
.LFB231:
	.loc 1 4132 1 is_stmt 1 view -0
	.cfi_startproc
	.loc 1 4133 3 view .LVU249
	.loc 1 4133 9 view .LVU250
	.loc 1 4133 10 is_stmt 0 view .LVU251
	movzbl	(%rdi), %ecx
	.loc 1 4132 1 view .LVU252
	movq	%rdi, %rax
	.loc 1 4133 9 view .LVU253
	testb	%cl, %cl
	je	.L98
	.loc 1 4138 25 view .LVU254
	movl	%edx, %r9d
	.loc 1 4132 1 view .LVU255
	pushq	%rbx
	.cfi_def_cfa_offset 16
	.cfi_offset 3, -16
	leaq	.L77(%rip), %rdi
.LVL85:
	.loc 1 4140 35 view .LVU256
	leal	-1(%rdx), %r8d
	.loc 1 4159 25 view .LVU257
	leaq	nonprinting(%rip), %rbx
	.loc 1 4147 26 view .LVU258
	leaq	fold_toupper(%rip), %r11
	.loc 1 4138 25 view .LVU259
	andl	$-3, %r9d
	.loc 1 4144 23 view .LVU260
	leaq	nondictionary(%rip), %r10
.LVL86:
	.p2align 4,,10
	.p2align 3
.L92:
	.loc 1 4135 7 is_stmt 1 view .LVU261
	subl	$77, %ecx
	cmpb	$37, %cl
	ja	.L75
	.loc 1 4135 7 is_stmt 0 view .LVU262
	movzbl	%cl, %ecx
	movslq	(%rdi,%rcx,4), %rdx
	addq	%rdi, %rdx
	notrack jmp	*%rdx
	.section	.rodata
	.align 4
	.align 4
.L77:
	.long	.L87-.L77
	.long	.L75-.L77
	.long	.L75-.L77
	.long	.L75-.L77
	.long	.L75-.L77
	.long	.L86-.L77
	.long	.L75-.L77
	.long	.L75-.L77
	.long	.L75-.L77
	.long	.L85-.L77
	.long	.L75-.L77
	.long	.L75-.L77
	.long	.L75-.L77
	.long	.L75-.L77
	.long	.L75-.L77
	.long	.L75-.L77
	.long	.L75-.L77
	.long	.L75-.L77
	.long	.L75-.L77
	.long	.L75-.L77
	.long	.L75-.L77
	.long	.L84-.L77
	.long	.L75-.L77
	.long	.L83-.L77
	.long	.L75-.L77
	.long	.L82-.L77
	.long	.L81-.L77
	.long	.L80-.L77
	.long	.L79-.L77
	.long	.L75-.L77
	.long	.L75-.L77
	.long	.L75-.L77
	.long	.L75-.L77
	.long	.L78-.L77
	.long	.L75-.L77
	.long	.L75-.L77
	.long	.L75-.L77
	.long	.L76-.L77
	.text
	.p2align 4,,10
	.p2align 3
.L76:
	.loc 1 4171 11 is_stmt 1 view .LVU263
	.loc 1 4171 24 is_stmt 0 view .LVU264
	movb	$1, 55(%rsi)
	.loc 1 4172 11 is_stmt 1 view .LVU265
	.p2align 4,,10
	.p2align 3
.L90:
	.loc 1 4179 7 view .LVU266
	.loc 1 4133 10 is_stmt 0 view .LVU267
	movzbl	1(%rax), %ecx
	.loc 1 4179 7 view .LVU268
	addq	$1, %rax
.LVL87:
	.loc 1 4133 9 is_stmt 1 view .LVU269
	testb	%cl, %cl
	jne	.L92
.L75:
	.loc 1 4182 1 is_stmt 0 view .LVU270
	popq	%rbx
	.cfi_remember_state
	.cfi_def_cfa_offset 8
	ret
	.p2align 4,,10
	.p2align 3
.L78:
	.cfi_restore_state
	.loc 1 4165 11 is_stmt 1 view .LVU271
	.loc 1 4165 24 is_stmt 0 view .LVU272
	movb	$1, 50(%rsi)
	.loc 1 4166 11 is_stmt 1 view .LVU273
	jmp	.L90
	.p2align 4,,10
	.p2align 3
.L79:
	.loc 1 4158 11 view .LVU274
	.loc 1 4158 14 is_stmt 0 view .LVU275
	cmpq	$0, 32(%rsi)
	jne	.L90
	.loc 1 4159 13 is_stmt 1 view .LVU276
	.loc 1 4159 25 is_stmt 0 view .LVU277
	movq	%rbx, 32(%rsi)
	jmp	.L90
	.p2align 4,,10
	.p2align 3
.L80:
	.loc 1 4153 11 is_stmt 1 view .LVU278
	.loc 1 4153 30 is_stmt 0 view .LVU279
	movb	$1, 53(%rsi)
	.loc 1 4154 11 is_stmt 1 view .LVU280
	jmp	.L90
	.p2align 4,,10
	.p2align 3
.L81:
	.loc 1 4150 11 view .LVU281
	.loc 1 4150 32 is_stmt 0 view .LVU282
	movb	$1, 52(%rsi)
	.loc 1 4151 11 is_stmt 1 view .LVU283
	jmp	.L90
	.p2align 4,,10
	.p2align 3
.L82:
	.loc 1 4147 11 view .LVU284
	.loc 1 4147 26 is_stmt 0 view .LVU285
	movq	%r11, 40(%rsi)
	.loc 1 4148 11 is_stmt 1 view .LVU286
	jmp	.L90
	.p2align 4,,10
	.p2align 3
.L83:
	.loc 1 4144 11 view .LVU287
	.loc 1 4144 23 is_stmt 0 view .LVU288
	movq	%r10, 32(%rsi)
	.loc 1 4145 11 is_stmt 1 view .LVU289
	jmp	.L90
	.p2align 4,,10
	.p2align 3
.L84:
	.loc 1 4138 11 view .LVU290
	.loc 1 4138 14 is_stmt 0 view .LVU291
	testl	%r9d, %r9d
	jne	.L88
	.loc 1 4139 13 is_stmt 1 view .LVU292
	.loc 1 4139 30 is_stmt 0 view .LVU293
	movb	$1, 48(%rsi)
.L88:
	.loc 1 4140 11 is_stmt 1 view .LVU294
	.loc 1 4140 14 is_stmt 0 view .LVU295
	cmpl	$1, %r8d
	ja	.L90
	.loc 1 4141 13 is_stmt 1 view .LVU296
	.loc 1 4141 30 is_stmt 0 view .LVU297
	movb	$1, 49(%rsi)
	jmp	.L90
	.p2align 4,,10
	.p2align 3
.L85:
	.loc 1 4174 11 is_stmt 1 view .LVU298
	.loc 1 4174 24 is_stmt 0 view .LVU299
	movb	$1, 56(%rsi)
	.loc 1 4175 11 is_stmt 1 view .LVU300
	jmp	.L90
	.p2align 4,,10
	.p2align 3
.L86:
	.loc 1 4168 11 view .LVU301
	.loc 1 4168 23 is_stmt 0 view .LVU302
	movb	$1, 51(%rsi)
	.loc 1 4169 11 is_stmt 1 view .LVU303
	jmp	.L90
	.p2align 4,,10
	.p2align 3
.L87:
	.loc 1 4162 11 view .LVU304
	.loc 1 4162 22 is_stmt 0 view .LVU305
	movb	$1, 54(%rsi)
	.loc 1 4163 11 is_stmt 1 view .LVU306
	jmp	.L90
.LVL88:
.L98:
	.cfi_def_cfa_offset 8
	.cfi_restore 3
	.loc 1 4182 1 is_stmt 0 view .LVU307
	ret
	.cfi_endproc
.LFE231:
	.size	set_ordering, .-set_ordering
	.p2align 4
	.type	struct_month_cmp, @function
struct_month_cmp:
.LVL89:
.LFB164:
	.loc 1 1277 1 is_stmt 1 view -0
	.cfi_startproc
	.loc 1 1277 1 is_stmt 0 view .LVU309
	endbr64
	.loc 1 1278 3 is_stmt 1 view .LVU310
.LVL90:
	.loc 1 1279 3 view .LVU311
	.loc 1 1280 3 view .LVU312
	.loc 1 1280 10 is_stmt 0 view .LVU313
	movq	(%rsi), %rsi
.LVL91:
	.loc 1 1280 10 view .LVU314
	movq	(%rdi), %rdi
.LVL92:
	.loc 1 1280 10 view .LVU315
	jmp	strcmp@PLT
.LVL93:
	.cfi_endproc
.LFE164:
	.size	struct_month_cmp, .-struct_month_cmp
	.section	.rodata.str1.8,"aMS",@progbits,1
	.align 8
.LC0:
	.string	"options '-%s' are incompatible"
	.text
	.p2align 4
	.type	incompatible_options, @function
incompatible_options:
.LVL94:
.LFB227:
	.loc 1 4052 1 is_stmt 1 view -0
	.cfi_startproc
	.loc 1 4053 3 view .LVU317
	.loc 1 4052 1 is_stmt 0 view .LVU318
	pushq	%r12
	.cfi_def_cfa_offset 16
	.cfi_offset 12, -16
	.loc 1 4053 3 view .LVU319
	movl	$5, %edx
	.loc 1 4052 1 view .LVU320
	movq	%rdi, %r12
	.loc 1 4053 3 view .LVU321
	leaq	.LC0(%rip), %rsi
	xorl	%edi, %edi
.LVL95:
	.loc 1 4053 3 view .LVU322
	call	dcgettext@PLT
.LVL96:
	movq	%r12, %rcx
	xorl	%esi, %esi
	movl	$2, %edi
	movq	%rax, %rdx
	xorl	%eax, %eax
	call	error@PLT
.LVL97:
	.cfi_endproc
.LFE227:
	.size	incompatible_options, .-incompatible_options
	.section	.rodata.str1.8
	.align 8
.LC1:
	.string	"%s: invalid field specification %s"
	.text
	.p2align 4
	.type	badfieldspec, @function
badfieldspec:
.LVL98:
.LFB226:
	.loc 1 4042 1 is_stmt 1 view -0
	.cfi_startproc
	.loc 1 4043 3 view .LVU324
	.loc 1 4042 1 is_stmt 0 view .LVU325
	pushq	%r12
	.cfi_def_cfa_offset 16
	.cfi_offset 12, -16
	movq	%rsi, %r12
	pushq	%rbx
	.cfi_def_cfa_offset 24
	.cfi_offset 3, -24
	subq	$8, %rsp
	.cfi_def_cfa_offset 32
	.loc 1 4043 3 view .LVU326
	call	quote@PLT
.LVL99:
	.loc 1 4043 3 view .LVU327
	movq	%r12, %rsi
	movl	$5, %edx
	xorl	%edi, %edi
	movq	%rax, %rbx
	call	dcgettext@PLT
.LVL100:
	movl	$5, %edx
	leaq	.LC1(%rip), %rsi
	xorl	%edi, %edi
	movq	%rax, %r12
.LVL101:
	.loc 1 4043 3 view .LVU328
	call	dcgettext@PLT
.LVL102:
	movq	%rbx, %r8
	movq	%r12, %rcx
	xorl	%esi, %esi
	movq	%rax, %rdx
	movl	$2, %edi
	xorl	%eax, %eax
	call	error@PLT
.LVL103:
	.cfi_endproc
.LFE226:
	.size	badfieldspec, .-badfieldspec
	.p2align 4
	.type	sighandler, @function
sighandler:
.LVL104:
.LFB230:
	.loc 1 4115 1 is_stmt 1 view -0
	.cfi_startproc
	.loc 1 4115 1 is_stmt 0 view .LVU330
	endbr64
	.loc 1 4116 3 is_stmt 1 view .LVU331
	.loc 1 4119 3 view .LVU332
.LBB577:
.LBI577:
	.loc 1 808 1 view .LVU333
.LBB578:
	.loc 1 810 3 view .LVU334
	.loc 1 812 3 view .LVU335
.LBE578:
.LBE577:
	.loc 1 4115 1 is_stmt 0 view .LVU336
	pushq	%rbp
	.cfi_def_cfa_offset 16
	.cfi_offset 6, -16
	movl	%edi, %ebp
	pushq	%rbx
	.cfi_def_cfa_offset 24
	.cfi_offset 3, -24
	subq	$8, %rsp
	.cfi_def_cfa_offset 32
.LBB580:
.LBB579:
	.loc 1 812 13 view .LVU337
	movq	temphead(%rip), %rbx
.LVL105:
	.loc 1 812 25 is_stmt 1 view .LVU338
	.loc 1 812 3 is_stmt 0 view .LVU339
	testq	%rbx, %rbx
	je	.L107
.LVL106:
	.p2align 4,,10
	.p2align 3
.L108:
	.loc 1 813 5 is_stmt 1 view .LVU340
	.loc 1 813 17 is_stmt 0 view .LVU341
	leaq	13(%rbx), %rdi
	.loc 1 813 5 view .LVU342
	call	unlink@PLT
.LVL107:
	.loc 1 812 31 is_stmt 1 view .LVU343
	.loc 1 812 36 is_stmt 0 view .LVU344
	movq	(%rbx), %rbx
.LVL108:
	.loc 1 812 25 is_stmt 1 view .LVU345
	.loc 1 812 3 is_stmt 0 view .LVU346
	testq	%rbx, %rbx
	jne	.L108
.L107:
	.loc 1 814 3 is_stmt 1 view .LVU347
	.loc 1 814 12 is_stmt 0 view .LVU348
	movq	$0, temphead(%rip)
.LVL109:
	.loc 1 814 12 view .LVU349
.LBE579:
.LBE580:
	.loc 1 4121 3 is_stmt 1 view .LVU350
	movl	%ebp, %edi
	xorl	%esi, %esi
	call	signal@PLT
.LVL110:
	.loc 1 4122 3 view .LVU351
	.loc 1 4123 1 is_stmt 0 view .LVU352
	addq	$8, %rsp
	.cfi_def_cfa_offset 24
	.loc 1 4122 3 view .LVU353
	movl	%ebp, %edi
	.loc 1 4123 1 view .LVU354
	popq	%rbx
	.cfi_def_cfa_offset 16
	popq	%rbp
	.cfi_def_cfa_offset 8
.LVL111:
	.loc 1 4122 3 view .LVU355
	jmp	raise@PLT
.LVL112:
	.loc 1 4122 3 view .LVU356
	.cfi_endproc
.LFE230:
	.size	sighandler, .-sighandler
	.section	.rodata.str1.1,"aMS",@progbits,1
.LC2:
	.string	"standard output"
.LC3:
	.string	"%s: %s"
	.text
	.p2align 4
	.type	sort_die, @function
sort_die:
.LVL113:
.LFB137:
	.loc 1 403 1 is_stmt 1 view -0
	.cfi_startproc
	.loc 1 404 3 view .LVU358
	.loc 1 403 1 is_stmt 0 view .LVU359
	pushq	%r12
	.cfi_def_cfa_offset 16
	.cfi_offset 12, -16
	movq	%rsi, %rdx
	movq	%rdi, %r12
	pushq	%rbx
	.cfi_def_cfa_offset 24
	.cfi_offset 3, -24
	subq	$8, %rsp
	.cfi_def_cfa_offset 32
	.loc 1 404 3 view .LVU360
	testq	%rsi, %rsi
	je	.L118
.LVL114:
.L115:
	.loc 1 404 3 discriminator 4 view .LVU361
	movl	$3, %esi
	xorl	%edi, %edi
	call	quotearg_n_style_colon@PLT
.LVL115:
	movq	%rax, %rbx
	call	__errno_location@PLT
.LVL116:
	movq	%rbx, %r8
	movq	%r12, %rcx
	movl	$2, %edi
	movl	(%rax), %esi
	leaq	.LC3(%rip), %rdx
	xorl	%eax, %eax
	call	error@PLT
.LVL117:
.L118:
	.loc 1 404 3 discriminator 1 view .LVU362
	movl	$5, %edx
.LVL118:
	.loc 1 404 3 discriminator 1 view .LVU363
	leaq	.LC2(%rip), %rsi
.LVL119:
	.loc 1 404 3 discriminator 1 view .LVU364
	xorl	%edi, %edi
.LVL120:
	.loc 1 404 3 discriminator 1 view .LVU365
	call	dcgettext@PLT
.LVL121:
	movq	%rax, %rdx
	jmp	.L115
	.cfi_endproc
.LFE137:
	.size	sort_die, .-sort_die
	.p2align 4
	.type	get_outstatus, @function
get_outstatus:
.LFB153:
	.loc 1 890 1 is_stmt 1 view -0
	.cfi_startproc
	.loc 1 891 3 view .LVU367
	.loc 1 892 3 view .LVU368
	.loc 1 893 3 view .LVU369
	.loc 1 893 21 is_stmt 0 view .LVU370
	movl	outstat_errno.8793(%rip), %eax
	.loc 1 893 6 view .LVU371
	testl	%eax, %eax
	je	.L131
	.loc 1 895 3 is_stmt 1 view .LVU372
	.loc 1 895 39 is_stmt 0 view .LVU373
	xorl	%r8d, %r8d
	testl	%eax, %eax
	jns	.L128
	leaq	outstat.8794(%rip), %r8
.L128:
	.loc 1 896 1 view .LVU374
	movq	%r8, %rax
	ret
	.p2align 4,,10
	.p2align 3
.L131:
	.loc 1 894 5 is_stmt 1 view .LVU375
.LVL122:
.LBB581:
.LBI581:
	.file 3 "/usr/include/x86_64-linux-gnu/sys/stat.h"
	.loc 3 467 1 view .LVU376
.LBB582:
	.loc 3 469 3 view .LVU377
.LBE582:
.LBE581:
	.loc 1 890 1 is_stmt 0 view .LVU378
	subq	$8, %rsp
	.cfi_def_cfa_offset 16
.LBB584:
.LBB583:
	.loc 3 469 10 view .LVU379
	movl	$1, %esi
	movl	$1, %edi
	leaq	outstat.8794(%rip), %rdx
	call	__fxstat@PLT
.LVL123:
	.loc 3 469 10 view .LVU380
.LBE583:
.LBE584:
	.loc 1 894 63 view .LVU381
	testl	%eax, %eax
	jne	.L121
	.loc 1 894 19 view .LVU382
	movl	$-1, outstat_errno.8793(%rip)
	.loc 1 895 3 is_stmt 1 view .LVU383
.L122:
	.loc 1 895 39 is_stmt 0 view .LVU384
	leaq	outstat.8794(%rip), %r8
.L119:
	.loc 1 896 1 view .LVU385
	movq	%r8, %rax
	addq	$8, %rsp
	.cfi_remember_state
	.cfi_def_cfa_offset 8
	ret
	.p2align 4,,10
	.p2align 3
.L121:
	.cfi_restore_state
	.loc 1 894 65 discriminator 1 view .LVU386
	call	__errno_location@PLT
.LVL124:
	.loc 1 895 39 discriminator 1 view .LVU387
	xorl	%r8d, %r8d
	.loc 1 894 63 discriminator 1 view .LVU388
	movl	(%rax), %eax
	.loc 1 894 19 discriminator 1 view .LVU389
	movl	%eax, outstat_errno.8793(%rip)
	.loc 1 895 3 is_stmt 1 discriminator 1 view .LVU390
	.loc 1 895 39 is_stmt 0 discriminator 1 view .LVU391
	testl	%eax, %eax
	js	.L122
	jmp	.L119
	.cfi_endproc
.LFE153:
	.size	get_outstatus, .-get_outstatus
	.p2align 4
	.type	add_temp_dir, @function
add_temp_dir:
.LVL125:
.LFB162:
	.loc 1 1233 1 is_stmt 1 view -0
	.cfi_startproc
	.loc 1 1234 3 view .LVU393
	.loc 1 1234 22 is_stmt 0 view .LVU394
	movq	temp_dir_count(%rip), %rdx
	movq	temp_dir_alloc(%rip), %rax
	.loc 1 1233 1 view .LVU395
	pushq	%rbx
	.cfi_def_cfa_offset 16
	.cfi_offset 3, -16
	.loc 1 1233 1 view .LVU396
	movq	%rdi, %rbx
	movq	temp_dirs(%rip), %rdi
.LVL126:
	.loc 1 1234 6 view .LVU397
	cmpq	%rax, %rdx
	je	.L144
.L133:
	.loc 1 1237 3 is_stmt 1 view .LVU398
	.loc 1 1237 27 is_stmt 0 view .LVU399
	leaq	1(%rdx), %rax
	.loc 1 1237 31 view .LVU400
	movq	%rbx, (%rdi,%rdx,8)
	.loc 1 1238 1 view .LVU401
	popq	%rbx
	.cfi_remember_state
	.cfi_def_cfa_offset 8
.LVL127:
	.loc 1 1237 27 view .LVU402
	movq	%rax, temp_dir_count(%rip)
	.loc 1 1238 1 view .LVU403
	ret
.LVL128:
	.p2align 4,,10
	.p2align 3
.L144:
	.cfi_restore_state
.LBB589:
	.loc 1 1235 5 is_stmt 1 view .LVU404
.LBB590:
.LBI590:
	.file 4 "./lib/xalloc.h"
	.loc 4 174 1 view .LVU405
.LBB591:
	.loc 4 176 3 view .LVU406
	.loc 4 178 3 view .LVU407
	.loc 4 178 6 is_stmt 0 view .LVU408
	testq	%rdi, %rdi
	je	.L145
	.loc 4 200 7 is_stmt 1 view .LVU409
	.loc 4 200 10 is_stmt 0 view .LVU410
	movabsq	$768614336404564649, %rdx
	cmpq	%rdx, %rax
	ja	.L139
	.loc 4 203 7 is_stmt 1 view .LVU411
	.loc 4 203 14 is_stmt 0 view .LVU412
	movq	%rax, %rdx
	shrq	%rdx
	.loc 4 203 9 view .LVU413
	leaq	1(%rax,%rdx), %rax
.LVL129:
	.loc 4 203 9 view .LVU414
	leaq	0(,%rax,8), %rsi
.LVL130:
.L135:
	.loc 4 206 3 is_stmt 1 view .LVU415
	.loc 4 206 7 is_stmt 0 view .LVU416
	movq	%rax, temp_dir_alloc(%rip)
	.loc 4 207 3 is_stmt 1 view .LVU417
	.loc 4 207 10 is_stmt 0 view .LVU418
	call	xrealloc@PLT
.LVL131:
	.loc 4 207 10 view .LVU419
	movq	temp_dir_count(%rip), %rdx
.LBE591:
.LBE590:
	.loc 1 1235 15 view .LVU420
	movq	%rax, temp_dirs(%rip)
.LBB594:
.LBB593:
	.loc 4 207 10 view .LVU421
	movq	%rax, %rdi
.LVL132:
	.loc 4 207 10 view .LVU422
	jmp	.L133
.LVL133:
	.p2align 4,,10
	.p2align 3
.L145:
	.loc 4 180 7 is_stmt 1 view .LVU423
	.loc 4 180 10 is_stmt 0 view .LVU424
	testq	%rax, %rax
	je	.L140
	.loc 4 191 7 is_stmt 1 view .LVU425
	.loc 4 191 11 is_stmt 0 view .LVU426
	movq	%rax, %rcx
	xorl	%edx, %edx
	movq	%rax, %rsi
	shrq	$61, %rcx
	setne	%dl
	salq	$3, %rsi
	js	.L139
	.loc 4 191 10 view .LVU427
	testq	%rdx, %rdx
	je	.L135
.L139:
	.loc 4 192 9 is_stmt 1 view .LVU428
	call	xalloc_die@PLT
.LVL134:
	.p2align 4,,10
	.p2align 3
.L140:
	.loc 4 192 9 is_stmt 0 view .LVU429
	movl	$128, %esi
.LBB592:
	.loc 4 189 13 view .LVU430
	movl	$16, %eax
.LVL135:
	.loc 4 189 13 view .LVU431
	jmp	.L135
.LBE592:
.LBE593:
.LBE594:
.LBE589:
	.cfi_endproc
.LFE162:
	.size	add_temp_dir, .-add_temp_dir
	.p2align 4
	.type	initbuf, @function
initbuf:
.LVL136:
.LFB171:
	.loc 1 1578 1 is_stmt 1 view -0
	.cfi_startproc
	.loc 1 1578 1 is_stmt 0 view .LVU433
	pushq	%r13
	.cfi_def_cfa_offset 16
	.cfi_offset 13, -16
	movq	%rsi, %r13
	pushq	%r12
	.cfi_def_cfa_offset 24
	.cfi_offset 12, -24
	.loc 1 1590 31 view .LVU434
	leaq	1(%rsi), %r12
	.loc 1 1578 1 view .LVU435
	pushq	%rbp
	.cfi_def_cfa_offset 32
	.cfi_offset 6, -32
	movq	%rdx, %rbp
	pushq	%rbx
	.cfi_def_cfa_offset 40
	.cfi_offset 3, -40
	movq	%rdi, %rbx
	subq	$8, %rsp
	.cfi_def_cfa_offset 48
.LVL137:
.L148:
	.loc 1 1583 3 is_stmt 1 view .LVU436
	.loc 1 1585 7 view .LVU437
	.loc 1 1585 13 is_stmt 0 view .LVU438
	andq	$-32, %rbp
.LVL138:
	.loc 1 1585 13 view .LVU439
	addq	$32, %rbp
.LVL139:
	.loc 1 1586 7 is_stmt 1 view .LVU440
	.loc 1 1586 18 is_stmt 0 view .LVU441
	movq	%rbp, %rdi
	call	malloc@PLT
.LVL140:
	.loc 1 1586 16 view .LVU442
	movq	%rax, (%rbx)
	.loc 1 1587 7 is_stmt 1 view .LVU443
	.loc 1 1587 10 is_stmt 0 view .LVU444
	testq	%rax, %rax
	je	.L151
	.loc 1 1594 3 is_stmt 1 view .LVU445
	.loc 1 1594 19 is_stmt 0 view .LVU446
	movq	%r13, 40(%rbx)
	.loc 1 1595 3 is_stmt 1 view .LVU447
	.loc 1 1595 14 is_stmt 0 view .LVU448
	movq	%rbp, 24(%rbx)
	.loc 1 1596 3 is_stmt 1 view .LVU449
	.loc 1 1596 39 is_stmt 0 view .LVU450
	movq	$0, 16(%rbx)
	.loc 1 1596 25 view .LVU451
	movq	$0, 32(%rbx)
	.loc 1 1596 13 view .LVU452
	movq	$0, 8(%rbx)
	.loc 1 1597 3 is_stmt 1 view .LVU453
	.loc 1 1597 12 is_stmt 0 view .LVU454
	movb	$0, 48(%rbx)
	.loc 1 1598 1 view .LVU455
	addq	$8, %rsp
	.cfi_remember_state
	.cfi_def_cfa_offset 40
	popq	%rbx
	.cfi_def_cfa_offset 32
.LVL141:
	.loc 1 1598 1 view .LVU456
	popq	%rbp
	.cfi_def_cfa_offset 24
.LVL142:
	.loc 1 1598 1 view .LVU457
	popq	%r12
	.cfi_def_cfa_offset 16
	popq	%r13
	.cfi_def_cfa_offset 8
.LVL143:
	.loc 1 1598 1 view .LVU458
	ret
.LVL144:
.L151:
	.cfi_restore_state
	.loc 1 1589 7 is_stmt 1 view .LVU459
	.loc 1 1589 13 is_stmt 0 view .LVU460
	shrq	%rbp
.LVL145:
	.loc 1 1590 7 is_stmt 1 view .LVU461
	.loc 1 1590 10 is_stmt 0 view .LVU462
	cmpq	%rbp, %r12
	jb	.L148
	.loc 1 1591 9 is_stmt 1 view .LVU463
	call	xalloc_die@PLT
.LVL146:
	.cfi_endproc
.LFE171:
	.size	initbuf, .-initbuf
	.p2align 4
	.type	debug_width, @function
debug_width:
.LVL147:
.LFB186:
	.loc 1 2267 1 view -0
	.cfi_startproc
	.loc 1 2268 3 view .LVU465
	.loc 1 2267 1 is_stmt 0 view .LVU466
	pushq	%rbp
	.cfi_def_cfa_offset 16
	.cfi_offset 6, -16
	.loc 1 2268 18 view .LVU467
	xorl	%edx, %edx
	.loc 1 2267 1 view .LVU468
	movq	%rsi, %rbp
	.loc 1 2268 39 view .LVU469
	subq	%rdi, %rsi
.LVL148:
	.loc 1 2267 1 view .LVU470
	pushq	%rbx
	.cfi_def_cfa_offset 24
	.cfi_offset 3, -24
	movq	%rdi, %rbx
	subq	$8, %rsp
	.cfi_def_cfa_offset 32
	.loc 1 2268 18 view .LVU471
	call	mbsnwidth@PLT
.LVL149:
	.loc 1 2268 10 view .LVU472
	cltq
.LVL150:
	.loc 1 2269 3 is_stmt 1 view .LVU473
	.loc 1 2269 9 view .LVU474
	cmpq	%rbx, %rbp
	jbe	.L152
	.p2align 4,,10
	.p2align 3
.L154:
	.loc 1 2270 5 view .LVU475
	.loc 1 2270 20 is_stmt 0 view .LVU476
	addq	$1, %rbx
.LVL151:
	.loc 1 2270 23 view .LVU477
	xorl	%edx, %edx
	cmpb	$9, -1(%rbx)
	sete	%dl
	.loc 1 2270 11 view .LVU478
	addq	%rdx, %rax
.LVL152:
	.loc 1 2269 9 is_stmt 1 view .LVU479
	cmpq	%rbx, %rbp
	jne	.L154
.L152:
	.loc 1 2272 1 is_stmt 0 view .LVU480
	addq	$8, %rsp
	.cfi_def_cfa_offset 24
	popq	%rbx
	.cfi_def_cfa_offset 16
.LVL153:
	.loc 1 2272 1 view .LVU481
	popq	%rbp
	.cfi_def_cfa_offset 8
.LVL154:
	.loc 1 2272 1 view .LVU482
	ret
	.cfi_endproc
.LFE186:
	.size	debug_width, .-debug_width
	.section	.rodata.str1.1
.LC4:
	.string	"string transformation failed"
	.section	.rodata.str1.8
	.align 8
.LC5:
	.string	"set LC_ALL='C' to work around the problem"
	.align 8
.LC6:
	.string	"the untransformed string was %s"
	.text
	.p2align 4
	.type	xstrxfrm, @function
xstrxfrm:
.LVL155:
.LFB184:
	.loc 1 2112 1 is_stmt 1 view -0
	.cfi_startproc
	.loc 1 2113 3 view .LVU484
	.loc 1 2112 1 is_stmt 0 view .LVU485
	pushq	%r13
	.cfi_def_cfa_offset 16
	.cfi_offset 13, -16
	movq	%rdx, %r13
	pushq	%r12
	.cfi_def_cfa_offset 24
	.cfi_offset 12, -24
	movq	%rsi, %r12
	pushq	%rbp
	.cfi_def_cfa_offset 32
	.cfi_offset 6, -32
	movq	%rdi, %rbp
	pushq	%rbx
	.cfi_def_cfa_offset 40
	.cfi_offset 3, -40
	subq	$8, %rsp
	.cfi_def_cfa_offset 48
	.loc 1 2113 3 view .LVU486
	call	__errno_location@PLT
.LVL156:
	.loc 1 2114 28 view .LVU487
	movq	%r13, %rdx
	movq	%r12, %rsi
	movq	%rbp, %rdi
	.loc 1 2113 9 view .LVU488
	movl	$0, (%rax)
	.loc 1 2114 3 is_stmt 1 view .LVU489
	.loc 1 2113 3 is_stmt 0 view .LVU490
	movq	%rax, %rbx
	.loc 1 2114 28 view .LVU491
	call	strxfrm@PLT
.LVL157:
	.loc 1 2116 3 is_stmt 1 view .LVU492
	.loc 1 2116 6 is_stmt 0 view .LVU493
	movl	(%rbx), %edx
	testl	%edx, %edx
	jne	.L160
	.loc 1 2126 1 view .LVU494
	addq	$8, %rsp
	.cfi_remember_state
	.cfi_def_cfa_offset 40
	popq	%rbx
	.cfi_def_cfa_offset 32
	popq	%rbp
	.cfi_def_cfa_offset 24
.LVL158:
	.loc 1 2126 1 view .LVU495
	popq	%r12
	.cfi_def_cfa_offset 16
.LVL159:
	.loc 1 2126 1 view .LVU496
	popq	%r13
	.cfi_def_cfa_offset 8
.LVL160:
	.loc 1 2126 1 view .LVU497
	ret
.LVL161:
.L160:
	.cfi_restore_state
.LBB595:
	.loc 1 2118 7 is_stmt 1 view .LVU498
	.loc 1 2118 24 is_stmt 0 view .LVU499
	movl	$5, %edx
	leaq	.LC4(%rip), %rsi
	xorl	%edi, %edi
	call	dcgettext@PLT
.LVL162:
	.loc 1 2118 7 view .LVU500
	movl	(%rbx), %esi
	xorl	%edi, %edi
	.loc 1 2118 24 view .LVU501
	movq	%rax, %rdx
	.loc 1 2118 7 view .LVU502
	xorl	%eax, %eax
	call	error@PLT
.LVL163:
	.loc 1 2119 7 is_stmt 1 view .LVU503
	.loc 1 2119 20 is_stmt 0 view .LVU504
	movl	$5, %edx
	leaq	.LC5(%rip), %rsi
	xorl	%edi, %edi
	call	dcgettext@PLT
.LVL164:
	.loc 1 2119 7 view .LVU505
	xorl	%esi, %esi
	xorl	%edi, %edi
	.loc 1 2119 20 view .LVU506
	movq	%rax, %rdx
	.loc 1 2119 7 view .LVU507
	xorl	%eax, %eax
	call	error@PLT
.LVL165:
	.loc 1 2120 7 is_stmt 1 view .LVU508
	movq	%r12, %rdx
	movl	$8, %esi
	xorl	%edi, %edi
	call	quotearg_n_style@PLT
.LVL166:
	movl	$5, %edx
	leaq	.LC6(%rip), %rsi
	xorl	%edi, %edi
	movq	%rax, %r12
.LVL167:
	.loc 1 2120 7 is_stmt 0 view .LVU509
	call	dcgettext@PLT
.LVL168:
	movq	%r12, %rcx
	xorl	%esi, %esi
	movl	$2, %edi
	movq	%rax, %rdx
	xorl	%eax, %eax
	call	error@PLT
.LVL169:
.LBE595:
	.cfi_endproc
.LFE184:
	.size	xstrxfrm, .-xstrxfrm
	.section	.rodata.str1.1
.LC7:
	.string	"waiting for %s [-d]"
.LC8:
	.string	"%s [-d] terminated abnormally"
	.text
	.p2align 4
	.type	reap, @function
reap:
.LVL170:
.LFB143:
	.loc 1 711 1 is_stmt 1 view -0
	.cfi_startproc
	.loc 1 711 1 is_stmt 0 view .LVU511
	pushq	%r13
	.cfi_def_cfa_offset 16
	.cfi_offset 13, -16
	.loc 1 713 16 view .LVU512
	xorl	%edx, %edx
	.loc 1 711 1 view .LVU513
	pushq	%r12
	.cfi_def_cfa_offset 24
	.cfi_offset 12, -24
	pushq	%rbx
	.cfi_def_cfa_offset 32
	.cfi_offset 3, -32
	movl	%edi, %ebx
	subq	$48, %rsp
	.cfi_def_cfa_offset 80
	.loc 1 711 1 view .LVU514
	movq	%fs:40, %rax
	movq	%rax, 40(%rsp)
	xorl	%eax, %eax
	.loc 1 712 3 is_stmt 1 view .LVU515
	.loc 1 713 3 view .LVU516
	.loc 1 713 16 is_stmt 0 view .LVU517
	testl	%edi, %edi
	movl	$-1, %edi
.LVL171:
	.loc 1 713 16 view .LVU518
	leaq	12(%rsp), %rsi
	cmovne	%ebx, %edi
	sete	%dl
	call	waitpid@PLT
.LVL172:
	.loc 1 715 3 is_stmt 1 view .LVU519
	.loc 1 715 6 is_stmt 0 view .LVU520
	testl	%eax, %eax
	js	.L174
	movl	%eax, %r12d
	.loc 1 718 8 is_stmt 1 view .LVU521
	.loc 1 718 11 is_stmt 0 view .LVU522
	je	.L161
	.loc 1 718 21 discriminator 1 view .LVU523
	testl	%ebx, %ebx
	jle	.L175
.LVL173:
.L165:
	.loc 1 720 7 is_stmt 1 view .LVU524
	.loc 1 720 13 is_stmt 0 view .LVU525
	movl	12(%rsp), %eax
	.loc 1 720 35 view .LVU526
	movzbl	%ah, %edx
	.loc 1 720 13 view .LVU527
	andl	$127, %eax
	.loc 1 720 32 view .LVU528
	orl	%eax, %edx
	jne	.L176
	.loc 1 723 7 is_stmt 1 view .LVU529
	subl	$1, nprocs(%rip)
	.loc 1 726 3 view .LVU530
.L161:
	.loc 1 727 1 is_stmt 0 view .LVU531
	movq	40(%rsp), %rax
	xorq	%fs:40, %rax
	jne	.L177
	addq	$48, %rsp
	.cfi_remember_state
	.cfi_def_cfa_offset 32
	movl	%r12d, %eax
	popq	%rbx
	.cfi_def_cfa_offset 24
.LVL174:
	.loc 1 727 1 view .LVU532
	popq	%r12
	.cfi_def_cfa_offset 16
.LVL175:
	.loc 1 727 1 view .LVU533
	popq	%r13
	.cfi_def_cfa_offset 8
	ret
.LVL176:
	.p2align 4,,10
	.p2align 3
.L175:
	.cfi_restore_state
.LBB596:
.LBI596:
	.loc 1 755 1 is_stmt 1 view .LVU534
.LBB597:
	.loc 1 757 3 view .LVU535
	.loc 1 759 3 view .LVU536
	.loc 1 760 27 is_stmt 0 view .LVU537
	movq	proctab(%rip), %rdi
	leaq	16(%rsp), %rsi
	.loc 1 759 12 view .LVU538
	movl	%eax, 24(%rsp)
	.loc 1 760 3 is_stmt 1 view .LVU539
	.loc 1 760 27 is_stmt 0 view .LVU540
	call	hash_remove@PLT
.LVL177:
	.loc 1 761 3 is_stmt 1 view .LVU541
	.loc 1 761 6 is_stmt 0 view .LVU542
	testq	%rax, %rax
	je	.L161
	.loc 1 763 3 is_stmt 1 view .LVU543
	.loc 1 763 15 is_stmt 0 view .LVU544
	movb	$2, 12(%rax)
	.loc 1 764 3 is_stmt 1 view .LVU545
.LVL178:
	.loc 1 764 3 is_stmt 0 view .LVU546
	jmp	.L165
.L177:
	.loc 1 764 3 view .LVU547
.LBE597:
.LBE596:
	.loc 1 727 1 view .LVU548
	call	__stack_chk_fail@PLT
.LVL179:
.L176:
.LBB598:
	.loc 1 721 9 is_stmt 1 view .LVU549
	movq	compress_program(%rip), %rsi
	movl	$4, %edi
	call	quotearg_style@PLT
.LVL180:
	movl	$5, %edx
	leaq	.LC8(%rip), %rsi
	xorl	%edi, %edi
	movq	%rax, %r12
.LVL181:
	.loc 1 721 9 is_stmt 0 view .LVU550
	call	dcgettext@PLT
.LVL182:
	movq	%r12, %rcx
	xorl	%esi, %esi
	movl	$2, %edi
	movq	%rax, %rdx
	xorl	%eax, %eax
	call	error@PLT
.LVL183:
.L174:
	.loc 1 721 9 view .LVU551
.LBE598:
.LBB599:
	.loc 1 716 5 is_stmt 1 view .LVU552
	movq	compress_program(%rip), %rsi
	movl	$4, %edi
	call	quotearg_style@PLT
.LVL184:
	.loc 1 716 5 is_stmt 0 view .LVU553
	movl	$5, %edx
	leaq	.LC7(%rip), %rsi
	xorl	%edi, %edi
	movq	%rax, %r13
	call	dcgettext@PLT
.LVL185:
	movq	%rax, %r12
	call	__errno_location@PLT
.LVL186:
	movq	%r13, %rcx
	movq	%r12, %rdx
	movl	$2, %edi
	movl	(%rax), %esi
	xorl	%eax, %eax
	call	error@PLT
.LVL187:
.LBE599:
	.cfi_endproc
.LFE143:
	.size	reap, .-reap
	.p2align 4
	.type	wait_proc, @function
wait_proc:
.LVL188:
.LFB146:
	.loc 1 772 1 is_stmt 1 view -0
	.cfi_startproc
	.loc 1 772 1 is_stmt 0 view .LVU555
	pushq	%rbp
	.cfi_def_cfa_offset 16
	.cfi_offset 6, -16
	movl	%edi, %ebp
	subq	$32, %rsp
	.cfi_def_cfa_offset 48
	.loc 1 772 1 view .LVU556
	movq	%fs:40, %rax
	movq	%rax, 24(%rsp)
	xorl	%eax, %eax
	.loc 1 773 3 is_stmt 1 view .LVU557
.LVL189:
.LBB600:
.LBI600:
	.loc 1 755 1 view .LVU558
.LBB601:
	.loc 1 757 3 view .LVU559
	.loc 1 759 3 view .LVU560
	.loc 1 759 12 is_stmt 0 view .LVU561
	movl	%edi, 8(%rsp)
	.loc 1 760 3 is_stmt 1 view .LVU562
	.loc 1 760 27 is_stmt 0 view .LVU563
	movq	proctab(%rip), %rdi
.LVL190:
	.loc 1 760 27 view .LVU564
	movq	%rsp, %rsi
	call	hash_remove@PLT
.LVL191:
	.loc 1 761 3 is_stmt 1 view .LVU565
	.loc 1 761 6 is_stmt 0 view .LVU566
	testq	%rax, %rax
	je	.L178
	.loc 1 763 3 is_stmt 1 view .LVU567
	.loc 1 763 15 is_stmt 0 view .LVU568
	movb	$2, 12(%rax)
	.loc 1 764 3 is_stmt 1 view .LVU569
.LVL192:
	.loc 1 764 3 is_stmt 0 view .LVU570
.LBE601:
.LBE600:
	.loc 1 774 5 is_stmt 1 view .LVU571
	movl	%ebp, %edi
	call	reap
.LVL193:
.L178:
	.loc 1 775 1 is_stmt 0 view .LVU572
	movq	24(%rsp), %rax
	xorq	%fs:40, %rax
	jne	.L183
	addq	$32, %rsp
	.cfi_remember_state
	.cfi_def_cfa_offset 16
	popq	%rbp
	.cfi_def_cfa_offset 8
.LVL194:
	.loc 1 775 1 view .LVU573
	ret
.LVL195:
.L183:
	.cfi_restore_state
	.loc 1 775 1 view .LVU574
	call	__stack_chk_fail@PLT
.LVL196:
	.cfi_endproc
.LFE146:
	.size	wait_proc, .-wait_proc
	.section	.rodata.str1.1
.LC9:
	.string	": errno "
.LC10:
	.string	"\n"
	.text
	.p2align 4
	.type	async_safe_die, @function
async_safe_die:
.LVL197:
.LFB136:
	.loc 1 376 1 is_stmt 1 view -0
	.cfi_startproc
	.loc 1 376 1 is_stmt 0 view .LVU576
	pushq	%rbp
	.cfi_def_cfa_offset 16
	.cfi_offset 6, -16
.LBB602:
	.loc 1 377 3 view .LVU577
	movq	%rsi, %rdx
.LBE602:
	.loc 1 376 1 view .LVU578
	movl	%edi, %ebp
	subq	$32, %rsp
	.cfi_def_cfa_offset 48
	.loc 1 376 1 view .LVU579
	movq	%fs:40, %rax
	movq	%rax, 24(%rsp)
	xorl	%eax, %eax
	.loc 1 377 3 is_stmt 1 view .LVU580
.LBB603:
	.loc 1 377 3 view .LVU581
.L185:
	.loc 1 377 3 is_stmt 0 view .LVU582
	movl	(%rdx), %ecx
	addq	$4, %rdx
	leal	-16843009(%rcx), %eax
	notl	%ecx
	andl	%ecx, %eax
	andl	$-2139062144, %eax
	je	.L185
	movl	%eax, %ecx
	shrl	$16, %ecx
	testl	$32896, %eax
	cmove	%ecx, %eax
	leaq	2(%rdx), %rcx
	cmove	%rcx, %rdx
	movl	%eax, %edi
.LVL198:
	.loc 1 377 3 view .LVU583
	addb	%al, %dil
	movl	$2, %edi
	sbbq	$3, %rdx
	subq	%rsi, %rdx
	call	write@PLT
.LVL199:
	.loc 1 377 3 is_stmt 1 view .LVU584
.LBE603:
	.loc 1 384 3 view .LVU585
	.loc 1 384 6 is_stmt 0 view .LVU586
	testl	%ebp, %ebp
	jne	.L195
.LVL200:
.L187:
	.loc 1 392 3 is_stmt 1 view .LVU587
.LBB604:
	.loc 1 392 3 view .LVU588
	movl	$2, %edi
	movl	$1, %edx
	leaq	.LC10(%rip), %rsi
	call	write@PLT
.LVL201:
	.loc 1 392 3 view .LVU589
.LBE604:
	.loc 1 394 3 view .LVU590
	movl	$2, %edi
	call	_exit@PLT
.LVL202:
.L195:
.LBB605:
	.loc 1 386 7 view .LVU591
	.loc 1 387 7 view .LVU592
	.loc 1 387 17 is_stmt 0 view .LVU593
	leaq	12(%rsp), %rsi
	movl	%ebp, %edi
	call	inttostr@PLT
.LVL203:
.LBB606:
	.loc 1 388 7 view .LVU594
	movl	$8, %edx
	movl	$2, %edi
	leaq	.LC9(%rip), %rsi
.LBE606:
	.loc 1 387 17 view .LVU595
	movq	%rax, %rbp
.LVL204:
	.loc 1 388 7 is_stmt 1 view .LVU596
.LBB607:
	.loc 1 388 7 view .LVU597
	call	write@PLT
.LVL205:
	.loc 1 388 7 view .LVU598
.LBE607:
	.loc 1 389 7 view .LVU599
.LBB608:
	.loc 1 389 7 view .LVU600
	movq	%rbp, %rdi
	orq	$-1, %rcx
	xorl	%eax, %eax
	repnz scasb
.LVL206:
	.loc 1 389 7 is_stmt 0 view .LVU601
	movq	%rbp, %rsi
	movl	$2, %edi
	notq	%rcx
	leaq	-1(%rcx), %rdx
	call	write@PLT
.LVL207:
	.loc 1 389 7 is_stmt 1 view .LVU602
	jmp	.L187
.LBE608:
.LBE605:
	.cfi_endproc
.LFE136:
	.size	async_safe_die, .-async_safe_die
	.p2align 4
	.type	register_proc, @function
register_proc:
.LVL208:
.LFB144:
	.loc 1 734 1 view -0
	.cfi_startproc
	.loc 1 735 3 view .LVU604
	.loc 1 734 1 is_stmt 0 view .LVU605
	pushq	%rbp
	.cfi_def_cfa_offset 16
	.cfi_offset 6, -16
	.loc 1 734 1 view .LVU606
	movq	%rdi, %rbp
	.loc 1 735 7 view .LVU607
	movq	proctab(%rip), %rdi
.LVL209:
	.loc 1 735 6 view .LVU608
	testq	%rdi, %rdi
	je	.L203
.L197:
	.loc 1 745 3 is_stmt 1 view .LVU609
	.loc 1 745 15 is_stmt 0 view .LVU610
	movb	$1, 12(%rbp)
	.loc 1 747 3 is_stmt 1 view .LVU611
	.loc 1 747 9 is_stmt 0 view .LVU612
	movq	%rbp, %rsi
	call	hash_insert@PLT
.LVL210:
	.loc 1 747 6 view .LVU613
	testq	%rax, %rax
	je	.L198
	.loc 1 749 1 view .LVU614
	popq	%rbp
	.cfi_remember_state
	.cfi_def_cfa_offset 8
.LVL211:
	.loc 1 749 1 view .LVU615
	ret
.LVL212:
	.p2align 4,,10
	.p2align 3
.L203:
	.cfi_restore_state
	.loc 1 737 7 is_stmt 1 view .LVU616
	.loc 1 737 17 is_stmt 0 view .LVU617
	movl	$47, %edi
	xorl	%r8d, %r8d
	leaq	proctab_comparator(%rip), %rcx
	xorl	%esi, %esi
	leaq	proctab_hasher(%rip), %rdx
	call	hash_initialize@PLT
.LVL213:
	.loc 1 737 15 view .LVU618
	movq	%rax, proctab(%rip)
	.loc 1 741 7 is_stmt 1 view .LVU619
	.loc 1 737 17 is_stmt 0 view .LVU620
	movq	%rax, %rdi
	.loc 1 741 10 view .LVU621
	testq	%rax, %rax
	jne	.L197
.L198:
	.loc 1 742 9 is_stmt 1 view .LVU622
	call	xalloc_die@PLT
.LVL214:
	.cfi_endproc
.LFE144:
	.size	register_proc, .-register_proc
	.p2align 4
	.type	init_node, @function
init_node:
.LVL215:
.LFB205:
	.loc 1 3299 1 view -0
	.cfi_startproc
	.loc 1 3299 1 is_stmt 0 view .LVU624
	pushq	%r15
	.cfi_def_cfa_offset 16
	.cfi_offset 15, -16
	movq	%r8, %rax
	pushq	%r14
	.cfi_def_cfa_offset 24
	.cfi_offset 14, -24
	salq	$5, %rax
	pushq	%r13
	.cfi_def_cfa_offset 32
	.cfi_offset 13, -32
	subq	%rax, %rdx
.LVL216:
	.loc 1 3299 1 view .LVU625
	movq	%r8, %r13
	pushq	%r12
	.cfi_def_cfa_offset 40
	.cfi_offset 12, -40
	movq	%rdx, %r12
	pushq	%rbp
	.cfi_def_cfa_offset 48
	.cfi_offset 6, -48
	movq	%rsi, %rbp
	.loc 1 3300 3 is_stmt 1 view .LVU626
	.loc 1 3299 1 is_stmt 0 view .LVU627
	pushq	%rbx
	.cfi_def_cfa_offset 56
	.cfi_offset 3, -56
	movq	%rcx, %rbx
	subq	$8, %rsp
	.cfi_def_cfa_offset 64
	.loc 1 3300 46 view .LVU628
	testb	%r9b, %r9b
	je	.L205
	.loc 1 3300 46 discriminator 1 view .LVU629
	movq	40(%rdi), %rax
.LVL217:
	.loc 1 3301 3 is_stmt 1 discriminator 1 view .LVU630
	.loc 1 3304 16 is_stmt 0 discriminator 1 view .LVU631
	movq	%r12, %r14
	.loc 1 3301 10 discriminator 1 view .LVU632
	movq	%rax, %rdx
	shrq	%rdx
.LVL218:
	.loc 1 3302 3 is_stmt 1 discriminator 1 view .LVU633
	.loc 1 3304 24 is_stmt 0 discriminator 1 view .LVU634
	movq	%rdx, %rcx
.LVL219:
	.loc 1 3302 10 discriminator 1 view .LVU635
	subq	%rdx, %rax
.LVL220:
	.loc 1 3303 3 is_stmt 1 discriminator 1 view .LVU636
	.loc 1 3304 3 discriminator 1 view .LVU637
	.loc 1 3304 24 is_stmt 0 discriminator 1 view .LVU638
	salq	$5, %rcx
	.loc 1 3304 16 discriminator 1 view .LVU639
	subq	%rcx, %r14
.LVL221:
	.loc 1 3305 3 is_stmt 1 discriminator 1 view .LVU640
	.loc 1 3305 61 is_stmt 0 discriminator 1 view .LVU641
	leaq	16(%rdi), %rcx
.LVL222:
.L206:
	.loc 1 3307 3 is_stmt 1 discriminator 4 view .LVU642
	.loc 1 3312 13 is_stmt 0 discriminator 4 view .LVU643
	movq	%rax, 48(%rbp)
	.loc 1 3314 31 discriminator 4 view .LVU644
	movl	80(%rdi), %eax
.LVL223:
	.loc 1 3316 3 discriminator 4 view .LVU645
	xorl	%esi, %esi
.LVL224:
	.loc 1 3307 38 discriminator 4 view .LVU646
	leaq	128(%rbp), %r15
.LVL225:
	.loc 1 3308 3 is_stmt 1 discriminator 4 view .LVU647
	.loc 1 3313 16 is_stmt 0 discriminator 4 view .LVU648
	movq	%rdi, 56(%rbp)
	.loc 1 3316 3 discriminator 4 view .LVU649
	leaq	88(%rbp), %rdi
.LVL226:
	.loc 1 3314 31 discriminator 4 view .LVU650
	addl	$1, %eax
	.loc 1 3308 27 discriminator 4 view .LVU651
	movq	%r12, 16(%rbp)
	.loc 1 3308 12 discriminator 4 view .LVU652
	movq	%r12, 0(%rbp)
	.loc 1 3309 3 is_stmt 1 discriminator 4 view .LVU653
	.loc 1 3309 27 is_stmt 0 discriminator 4 view .LVU654
	movq	%r14, 24(%rbp)
	.loc 1 3309 12 discriminator 4 view .LVU655
	movq	%r14, 8(%rbp)
	.loc 1 3310 3 is_stmt 1 discriminator 4 view .LVU656
	.loc 1 3310 14 is_stmt 0 discriminator 4 view .LVU657
	movq	%rcx, 32(%rbp)
	.loc 1 3311 3 is_stmt 1 discriminator 4 view .LVU658
	.loc 1 3311 13 is_stmt 0 discriminator 4 view .LVU659
	movq	%rdx, 40(%rbp)
	.loc 1 3312 3 is_stmt 1 discriminator 4 view .LVU660
	.loc 1 3313 3 discriminator 4 view .LVU661
	.loc 1 3314 3 discriminator 4 view .LVU662
	.loc 1 3314 15 is_stmt 0 discriminator 4 view .LVU663
	movl	%eax, 80(%rbp)
	.loc 1 3315 3 is_stmt 1 discriminator 4 view .LVU664
	.loc 1 3315 16 is_stmt 0 discriminator 4 view .LVU665
	movb	$0, 84(%rbp)
	.loc 1 3316 3 is_stmt 1 discriminator 4 view .LVU666
	call	pthread_mutex_init@PLT
.LVL227:
	.loc 1 3318 3 discriminator 4 view .LVU667
	.loc 1 3318 6 is_stmt 0 discriminator 4 view .LVU668
	cmpq	$1, %rbx
	ja	.L209
	.loc 1 3331 7 is_stmt 1 view .LVU669
	.loc 1 3331 22 is_stmt 0 view .LVU670
	movq	$0, 64(%rbp)
	.loc 1 3332 7 is_stmt 1 view .LVU671
	.loc 1 3335 1 is_stmt 0 view .LVU672
	movq	%r15, %rax
	.loc 1 3332 22 view .LVU673
	movq	$0, 72(%rbp)
	.loc 1 3334 3 is_stmt 1 view .LVU674
	.loc 1 3335 1 is_stmt 0 view .LVU675
	addq	$8, %rsp
	.cfi_remember_state
	.cfi_def_cfa_offset 56
	popq	%rbx
	.cfi_def_cfa_offset 48
.LVL228:
	.loc 1 3335 1 view .LVU676
	popq	%rbp
	.cfi_def_cfa_offset 40
.LVL229:
	.loc 1 3335 1 view .LVU677
	popq	%r12
	.cfi_def_cfa_offset 32
	popq	%r13
	.cfi_def_cfa_offset 24
.LVL230:
	.loc 1 3335 1 view .LVU678
	popq	%r14
	.cfi_def_cfa_offset 16
.LVL231:
	.loc 1 3335 1 view .LVU679
	popq	%r15
	.cfi_def_cfa_offset 8
.LVL232:
	.loc 1 3335 1 view .LVU680
	ret
.LVL233:
	.p2align 4,,10
	.p2align 3
.L205:
	.cfi_restore_state
	.loc 1 3300 46 discriminator 2 view .LVU681
	movq	48(%rdi), %rax
.LVL234:
	.loc 1 3301 3 is_stmt 1 discriminator 2 view .LVU682
	.loc 1 3304 16 is_stmt 0 discriminator 2 view .LVU683
	movq	%r12, %r14
	.loc 1 3301 10 discriminator 2 view .LVU684
	movq	%rax, %rdx
	shrq	%rdx
.LVL235:
	.loc 1 3302 3 is_stmt 1 discriminator 2 view .LVU685
	.loc 1 3304 24 is_stmt 0 discriminator 2 view .LVU686
	movq	%rdx, %rcx
.LVL236:
	.loc 1 3302 10 discriminator 2 view .LVU687
	subq	%rdx, %rax
.LVL237:
	.loc 1 3303 3 is_stmt 1 discriminator 2 view .LVU688
	.loc 1 3304 3 discriminator 2 view .LVU689
	.loc 1 3304 24 is_stmt 0 discriminator 2 view .LVU690
	salq	$5, %rcx
	.loc 1 3304 16 discriminator 2 view .LVU691
	subq	%rcx, %r14
.LVL238:
	.loc 1 3305 3 is_stmt 1 discriminator 2 view .LVU692
	.loc 1 3305 61 is_stmt 0 discriminator 2 view .LVU693
	leaq	24(%rdi), %rcx
	jmp	.L206
.LVL239:
	.p2align 4,,10
	.p2align 3
.L209:
.LBB609:
	.loc 1 3320 7 is_stmt 1 view .LVU694
	.loc 1 3322 22 is_stmt 0 view .LVU695
	movq	%r15, 64(%rbp)
	.loc 1 3320 14 view .LVU696
	movq	%rbx, %rcx
	.loc 1 3323 19 view .LVU697
	movq	%r13, %r8
	movq	%r12, %rdx
	.loc 1 3320 14 view .LVU698
	shrq	%rcx
.LVL240:
	.loc 1 3321 7 is_stmt 1 view .LVU699
	.loc 1 3323 19 is_stmt 0 view .LVU700
	movq	%r15, %rsi
	movq	%rbp, %rdi
	movl	$1, %r9d
	.loc 1 3321 14 view .LVU701
	subq	%rcx, %rbx
.LVL241:
	.loc 1 3322 7 is_stmt 1 view .LVU702
	.loc 1 3323 7 view .LVU703
	.loc 1 3323 19 is_stmt 0 view .LVU704
	call	init_node
.LVL242:
	.loc 1 3326 19 view .LVU705
	movq	%r13, %r8
	movq	%rbx, %rcx
	movq	%r14, %rdx
	.loc 1 3325 22 view .LVU706
	movq	%rax, 72(%rbp)
.LBE609:
	.loc 1 3335 1 view .LVU707
	addq	$8, %rsp
	.cfi_def_cfa_offset 56
.LBB610:
	.loc 1 3326 19 view .LVU708
	movq	%rbp, %rdi
	.loc 1 3323 19 view .LVU709
	movq	%rax, %rsi
.LVL243:
	.loc 1 3325 7 is_stmt 1 view .LVU710
	.loc 1 3326 7 view .LVU711
.LBE610:
	.loc 1 3335 1 is_stmt 0 view .LVU712
	popq	%rbx
	.cfi_def_cfa_offset 48
.LVL244:
.LBB611:
	.loc 1 3326 19 view .LVU713
	xorl	%r9d, %r9d
.LBE611:
	.loc 1 3335 1 view .LVU714
	popq	%rbp
	.cfi_def_cfa_offset 40
.LVL245:
	.loc 1 3335 1 view .LVU715
	popq	%r12
	.cfi_def_cfa_offset 32
	popq	%r13
	.cfi_def_cfa_offset 24
.LVL246:
	.loc 1 3335 1 view .LVU716
	popq	%r14
	.cfi_def_cfa_offset 16
.LVL247:
	.loc 1 3335 1 view .LVU717
	popq	%r15
	.cfi_def_cfa_offset 8
.LBB612:
	.loc 1 3326 19 view .LVU718
	jmp	init_node
.LVL248:
	.loc 1 3326 19 view .LVU719
.LBE612:
	.cfi_endproc
.LFE205:
	.size	init_node, .-init_node
	.p2align 4
	.type	queue_insert, @function
queue_insert:
.LVL249:
.LFB211:
	.loc 1 3395 1 is_stmt 1 view -0
	.cfi_startproc
	.loc 1 3396 3 view .LVU721
	.loc 1 3395 1 is_stmt 0 view .LVU722
	pushq	%r12
	.cfi_def_cfa_offset 16
	.cfi_offset 12, -16
	.loc 1 3396 3 view .LVU723
	leaq	8(%rdi), %r12
	.loc 1 3395 1 view .LVU724
	pushq	%rbp
	.cfi_def_cfa_offset 24
	.cfi_offset 6, -24
	movq	%rsi, %rbp
	pushq	%rbx
	.cfi_def_cfa_offset 32
	.cfi_offset 3, -32
	.loc 1 3395 1 view .LVU725
	movq	%rdi, %rbx
	.loc 1 3396 3 view .LVU726
	movq	%r12, %rdi
.LVL250:
	.loc 1 3396 3 view .LVU727
	call	pthread_mutex_lock@PLT
.LVL251:
	.loc 1 3397 3 is_stmt 1 view .LVU728
	movq	(%rbx), %rdi
	movq	%rbp, %rsi
	call	heap_insert@PLT
.LVL252:
	.loc 1 3398 3 view .LVU729
	.loc 1 3398 16 is_stmt 0 view .LVU730
	movb	$1, 84(%rbp)
	.loc 1 3399 3 is_stmt 1 view .LVU731
	leaq	48(%rbx), %rdi
	call	pthread_cond_signal@PLT
.LVL253:
	.loc 1 3400 3 view .LVU732
	.loc 1 3401 1 is_stmt 0 view .LVU733
	popq	%rbx
	.cfi_def_cfa_offset 24
.LVL254:
	.loc 1 3400 3 view .LVU734
	movq	%r12, %rdi
	.loc 1 3401 1 view .LVU735
	popq	%rbp
	.cfi_def_cfa_offset 16
.LVL255:
	.loc 1 3401 1 view .LVU736
	popq	%r12
	.cfi_def_cfa_offset 8
.LVL256:
	.loc 1 3400 3 view .LVU737
	jmp	pthread_mutex_unlock@PLT
.LVL257:
	.loc 1 3400 3 view .LVU738
	.cfi_endproc
.LFE211:
	.size	queue_insert, .-queue_insert
	.p2align 4
	.type	begfield.isra.0, @function
begfield.isra.0:
.LVL258:
.LFB235:
	.loc 1 1613 1 is_stmt 1 view -0
	.cfi_startproc
	.loc 1 1615 3 view .LVU740
	.loc 1 1615 28 is_stmt 0 view .LVU741
	leaq	-1(%rdi,%rsi), %rax
.LVL259:
	.loc 1 1616 3 is_stmt 1 view .LVU742
	.loc 1 1622 11 is_stmt 0 view .LVU743
	movl	tab(%rip), %esi
	.loc 1 1616 10 view .LVU744
	movq	(%rdx), %rcx
.LVL260:
	.loc 1 1617 3 is_stmt 1 view .LVU745
	.loc 1 1617 10 is_stmt 0 view .LVU746
	movq	8(%rdx), %r9
.LVL261:
	.loc 1 1622 3 is_stmt 1 view .LVU747
	.loc 1 1622 6 is_stmt 0 view .LVU748
	cmpl	$128, %esi
	je	.L244
	.loc 1 1623 11 is_stmt 1 view .LVU749
	cmpq	%rdi, %rax
	jbe	.L227
	.loc 1 1623 30 is_stmt 0 view .LVU750
	leaq	-1(%rcx), %r8
.LVL262:
	.loc 1 1623 22 view .LVU751
	testq	%rcx, %rcx
	je	.L216
	.p2align 4,,10
	.p2align 3
.L220:
	.loc 1 1625 29 view .LVU752
	movsbl	(%rdi), %ecx
	.loc 1 1625 26 view .LVU753
	cmpl	%ecx, %esi
	je	.L245
	.loc 1 1626 11 is_stmt 1 view .LVU754
	addq	$1, %rdi
.LVL263:
	.loc 1 1625 15 view .LVU755
	cmpq	%rdi, %rax
	ja	.L220
.LVL264:
.L227:
	.loc 1 1646 3 view .LVU756
	.loc 1 1646 9 is_stmt 0 view .LVU757
	addq	%r9, %rdi
.LVL265:
	.loc 1 1648 3 is_stmt 1 view .LVU758
	.loc 1 1646 7 is_stmt 0 view .LVU759
	cmpq	%rdi, %rax
	cmova	%rdi, %rax
.LVL266:
	.loc 1 1649 1 view .LVU760
	ret
.LVL267:
	.p2align 4,,10
	.p2align 3
.L245:
	.loc 1 1627 9 is_stmt 1 view .LVU761
	.loc 1 1627 12 is_stmt 0 view .LVU762
	cmpq	%rdi, %rax
	jbe	.L227
	.loc 1 1628 11 is_stmt 1 view .LVU763
	addq	$1, %rdi
.LVL268:
	.loc 1 1623 11 view .LVU764
	cmpq	%rdi, %rax
	jbe	.L227
	.loc 1 1623 30 is_stmt 0 view .LVU765
	subq	$1, %r8
.LVL269:
	.loc 1 1623 22 view .LVU766
	cmpq	$-1, %r8
	jne	.L220
.LVL270:
.L216:
	.loc 1 1641 3 is_stmt 1 view .LVU767
	.loc 1 1641 6 is_stmt 0 view .LVU768
	cmpb	$0, 48(%rdx)
	leaq	blanks(%rip), %rsi
	jne	.L229
	.loc 1 1641 6 view .LVU769
	jmp	.L227
.LVL271:
	.p2align 4,,10
	.p2align 3
.L228:
	.loc 1 1643 7 is_stmt 1 view .LVU770
	addq	$1, %rdi
.LVL272:
	.loc 1 1642 11 view .LVU771
	cmpq	%rdi, %rax
	jbe	.L227
.L229:
.LVL273:
.LBB613:
.LBI613:
	.loc 2 156 29 view .LVU772
.LBB614:
	.loc 2 156 50 view .LVU773
	.loc 2 156 50 is_stmt 0 view .LVU774
.LBE614:
.LBE613:
	.loc 1 1642 31 view .LVU775
	movzbl	(%rdi), %edx
	.loc 1 1642 22 view .LVU776
	cmpb	$0, (%rsi,%rdx)
	jne	.L228
	.loc 1 1646 3 is_stmt 1 view .LVU777
	.loc 1 1646 9 is_stmt 0 view .LVU778
	addq	%r9, %rdi
.LVL274:
	.loc 1 1648 3 is_stmt 1 view .LVU779
	.loc 1 1646 7 is_stmt 0 view .LVU780
	cmpq	%rdi, %rax
	cmova	%rdi, %rax
.LVL275:
	.loc 1 1649 1 view .LVU781
	ret
.LVL276:
.L244:
	.loc 1 1631 11 is_stmt 1 view .LVU782
	cmpq	%rdi, %rax
	jbe	.L227
	.loc 1 1631 30 is_stmt 0 view .LVU783
	leaq	-1(%rcx), %r8
.LVL277:
	.loc 1 1631 30 view .LVU784
	leaq	blanks(%rip), %rsi
	.loc 1 1631 22 view .LVU785
	testq	%rcx, %rcx
	je	.L216
	.p2align 4,,10
	.p2align 3
.L242:
	.loc 1 1631 22 view .LVU786
	movzbl	(%rdi), %ecx
	movzbl	(%rsi,%rcx), %ecx
.L222:
.LVL278:
	.loc 2 156 50 is_stmt 1 view .LVU787
	.loc 1 1633 26 is_stmt 0 view .LVU788
	testb	%cl, %cl
	je	.L246
	.loc 1 1634 11 is_stmt 1 view .LVU789
	addq	$1, %rdi
.LVL279:
	.loc 1 1633 15 view .LVU790
	cmpq	%rdi, %rax
	ja	.L242
	.loc 1 1646 3 view .LVU791
	.loc 1 1646 9 is_stmt 0 view .LVU792
	addq	%r9, %rdi
.LVL280:
	.loc 1 1648 3 is_stmt 1 view .LVU793
	.loc 1 1646 7 is_stmt 0 view .LVU794
	cmpq	%rdi, %rax
	cmova	%rdi, %rax
.LVL281:
	.loc 1 1649 1 view .LVU795
	ret
.LVL282:
	.p2align 4,,10
	.p2align 3
.L246:
	.loc 1 1635 15 is_stmt 1 view .LVU796
	cmpq	%rdi, %rax
	jbe	.L227
	.p2align 4,,10
	.p2align 3
.L223:
	.loc 1 1636 11 view .LVU797
	addq	$1, %rdi
.LVL283:
	.loc 1 1635 15 view .LVU798
	cmpq	%rdi, %rax
	je	.L230
	movzbl	(%rdi), %ecx
	movzbl	(%rsi,%rcx), %ecx
.LVL284:
	.loc 2 156 50 view .LVU799
	.loc 1 1635 26 is_stmt 0 view .LVU800
	testb	%cl, %cl
	je	.L223
	.loc 1 1631 11 is_stmt 1 view .LVU801
	cmpq	%rdi, %rax
	jbe	.L227
.LVL285:
	.loc 1 1631 30 is_stmt 0 view .LVU802
	subq	$1, %r8
.LVL286:
	.loc 1 1631 22 view .LVU803
	cmpq	$-1, %r8
	jne	.L222
	jmp	.L216
	.p2align 4,,10
	.p2align 3
.L230:
	.loc 1 1631 22 view .LVU804
	movq	%rax, %rdi
.LVL287:
	.loc 1 1631 11 is_stmt 1 view .LVU805
	jmp	.L227
	.cfi_endproc
.LFE235:
	.size	begfield.isra.0, .-begfield.isra.0
	.p2align 4
	.type	limfield.isra.0, @function
limfield.isra.0:
.LVL288:
.LFB236:
	.loc 1 1655 1 view -0
	.cfi_startproc
	.loc 1 1657 3 view .LVU807
	.loc 1 1658 30 is_stmt 0 view .LVU808
	movq	24(%rdx), %r9
	.loc 1 1657 28 view .LVU809
	leaq	-1(%rdi,%rsi), %rcx
.LVL289:
	.loc 1 1658 3 is_stmt 1 view .LVU810
	.loc 1 1655 1 is_stmt 0 view .LVU811
	movq	%rdi, %rax
	.loc 1 1658 10 view .LVU812
	movq	16(%rdx), %rsi
.LVL290:
	.loc 1 1660 3 is_stmt 1 view .LVU813
	.loc 1 1670 11 is_stmt 0 view .LVU814
	movl	tab(%rip), %edi
.LVL291:
	.loc 1 1661 10 view .LVU815
	cmpq	$1, %r9
	adcq	$0, %rsi
.LVL292:
	.loc 1 1670 3 is_stmt 1 view .LVU816
	.loc 1 1670 6 is_stmt 0 view .LVU817
	cmpl	$128, %edi
	je	.L287
	.loc 1 1671 11 is_stmt 1 view .LVU818
	cmpq	%rax, %rcx
	jbe	.L250
	.loc 1 1671 30 is_stmt 0 view .LVU819
	leaq	-1(%rsi), %r8
.LVL293:
	.loc 1 1671 22 view .LVU820
	testq	%rsi, %rsi
	je	.L250
	.p2align 4,,10
	.p2align 3
.L256:
	.loc 1 1673 29 view .LVU821
	movsbl	(%rax), %esi
	.loc 1 1673 26 view .LVU822
	cmpl	%esi, %edi
	je	.L288
	.loc 1 1674 11 is_stmt 1 view .LVU823
	addq	$1, %rax
.LVL294:
	.loc 1 1673 15 view .LVU824
	cmpq	%rax, %rcx
	ja	.L256
.LVL295:
.L250:
	.loc 1 1738 3 view .LVU825
	.loc 1 1738 6 is_stmt 0 view .LVU826
	testq	%r9, %r9
	je	.L272
	.loc 1 1742 7 is_stmt 1 view .LVU827
	.loc 1 1742 10 is_stmt 0 view .LVU828
	cmpb	$0, 49(%rdx)
	je	.L263
	.loc 1 1743 15 is_stmt 1 view .LVU829
	leaq	blanks(%rip), %rdi
	cmpq	%rax, %rcx
	ja	.L264
	jmp	.L263
.LVL296:
	.p2align 4,,10
	.p2align 3
.L265:
	.loc 1 1744 11 view .LVU830
	addq	$1, %rax
.LVL297:
	.loc 1 1743 15 view .LVU831
	cmpq	%rax, %rcx
	je	.L267
.L264:
.LVL298:
.LBB615:
.LBI615:
	.loc 2 156 29 view .LVU832
.LBB616:
	.loc 2 156 50 view .LVU833
	.loc 2 156 50 is_stmt 0 view .LVU834
.LBE616:
.LBE615:
	.loc 1 1743 35 view .LVU835
	movzbl	(%rax), %edx
	.loc 1 1743 26 view .LVU836
	cmpb	$0, (%rdi,%rdx)
	jne	.L265
.L263:
	.loc 1 1747 7 is_stmt 1 view .LVU837
	.loc 1 1747 13 is_stmt 0 view .LVU838
	addq	%r9, %rax
.LVL299:
	.loc 1 1747 11 view .LVU839
	cmpq	%rax, %rcx
	cmovbe	%rcx, %rax
.LVL300:
	.loc 1 1750 3 is_stmt 1 view .LVU840
	.loc 1 1750 10 is_stmt 0 view .LVU841
	ret
.LVL301:
	.p2align 4,,10
	.p2align 3
.L288:
	.loc 1 1675 9 is_stmt 1 view .LVU842
	.loc 1 1675 12 is_stmt 0 view .LVU843
	cmpq	%rax, %rcx
	jbe	.L250
	.loc 1 1675 23 view .LVU844
	movq	%r9, %rsi
	orq	%r8, %rsi
	je	.L272
	.loc 1 1676 11 is_stmt 1 view .LVU845
	addq	$1, %rax
.LVL302:
	.loc 1 1671 11 view .LVU846
	cmpq	%rax, %rcx
	jbe	.L250
	.loc 1 1671 30 is_stmt 0 view .LVU847
	subq	$1, %r8
.LVL303:
	.loc 1 1671 22 view .LVU848
	cmpq	$-1, %r8
	jne	.L256
	jmp	.L250
.LVL304:
	.p2align 4,,10
	.p2align 3
.L272:
	.loc 1 1751 1 view .LVU849
	ret
.LVL305:
.L287:
	.loc 1 1679 11 is_stmt 1 view .LVU850
	cmpq	%rax, %rcx
	jbe	.L250
	.loc 1 1679 30 is_stmt 0 view .LVU851
	leaq	-1(%rsi), %r8
.LVL306:
	.loc 1 1679 30 view .LVU852
	leaq	blanks(%rip), %rdi
	.loc 1 1679 22 view .LVU853
	testq	%rsi, %rsi
	je	.L250
	.p2align 4,,10
	.p2align 3
.L286:
	.loc 1 1679 22 view .LVU854
	movzbl	(%rax), %esi
	movzbl	(%rdi,%rsi), %esi
.L258:
.LVL307:
	.loc 2 156 50 is_stmt 1 view .LVU855
	.loc 1 1681 26 is_stmt 0 view .LVU856
	testb	%sil, %sil
	je	.L289
	.loc 1 1682 11 is_stmt 1 view .LVU857
	addq	$1, %rax
.LVL308:
	.loc 1 1681 15 view .LVU858
	cmpq	%rax, %rcx
	ja	.L286
	jmp	.L250
	.p2align 4,,10
	.p2align 3
.L289:
	.loc 1 1683 15 view .LVU859
	cmpq	%rax, %rcx
	jbe	.L250
	.p2align 4,,10
	.p2align 3
.L259:
	.loc 1 1684 11 view .LVU860
	addq	$1, %rax
.LVL309:
	.loc 1 1683 15 view .LVU861
	cmpq	%rax, %rcx
	je	.L266
	movzbl	(%rax), %esi
	movzbl	(%rdi,%rsi), %esi
.LVL310:
	.loc 2 156 50 view .LVU862
	.loc 1 1683 26 is_stmt 0 view .LVU863
	testb	%sil, %sil
	je	.L259
	.loc 1 1679 11 is_stmt 1 view .LVU864
	cmpq	%rax, %rcx
	jbe	.L250
.LVL311:
	.loc 1 1679 30 is_stmt 0 view .LVU865
	subq	$1, %r8
.LVL312:
	.loc 1 1679 22 view .LVU866
	cmpq	$-1, %r8
	jne	.L258
	jmp	.L250
	.p2align 4,,10
	.p2align 3
.L266:
	.loc 1 1679 22 view .LVU867
	movq	%rcx, %rax
.LVL313:
	.loc 1 1679 11 is_stmt 1 view .LVU868
	jmp	.L250
.LVL314:
.L267:
	.loc 1 1679 11 is_stmt 0 view .LVU869
	movq	%rcx, %rax
.LVL315:
	.loc 1 1747 7 is_stmt 1 view .LVU870
	.loc 1 1747 13 is_stmt 0 view .LVU871
	addq	%r9, %rax
.LVL316:
	.loc 1 1747 11 view .LVU872
	cmpq	%rax, %rcx
	cmovbe	%rcx, %rax
.LVL317:
	.loc 1 1750 3 is_stmt 1 view .LVU873
	.loc 1 1750 10 is_stmt 0 view .LVU874
	ret
	.cfi_endproc
.LFE236:
	.size	limfield.isra.0, .-limfield.isra.0
	.p2align 4
	.type	keycompare, @function
keycompare:
.LVL318:
.LFB194:
	.loc 1 2531 1 is_stmt 1 view -0
	.cfi_startproc
	.loc 1 2531 1 is_stmt 0 view .LVU876
	pushq	%r15
	.cfi_def_cfa_offset 16
	.cfi_offset 15, -16
	pushq	%r14
	.cfi_def_cfa_offset 24
	.cfi_offset 14, -24
	pushq	%r13
	.cfi_def_cfa_offset 32
	.cfi_offset 13, -32
	pushq	%r12
	.cfi_def_cfa_offset 40
	.cfi_offset 12, -40
	pushq	%rbp
	.cfi_def_cfa_offset 48
	.cfi_offset 6, -48
	pushq	%rbx
	.cfi_def_cfa_offset 56
	.cfi_offset 3, -56
	subq	$4096, %rsp
	.cfi_def_cfa_offset 4152
	orq	$0, (%rsp)
	subq	$4096, %rsp
	.cfi_def_cfa_offset 8248
	orq	$0, (%rsp)
	subq	$424, %rsp
	.cfi_def_cfa_offset 8672
	.loc 1 2532 20 view .LVU877
	movq	keylist(%rip), %r14
.LBB682:
.LBB683:
.LBB684:
.LBB685:
	.loc 1 1976 16 view .LVU878
	leaq	blanks(%rip), %r12
.LBE685:
.LBE684:
.LBE683:
.LBE682:
	.loc 1 2537 9 view .LVU879
	movq	16(%rsi), %r8
	.loc 1 2536 9 view .LVU880
	movq	16(%rdi), %r15
	.loc 1 2538 9 view .LVU881
	movq	24(%rdi), %r11
	.loc 1 2539 9 view .LVU882
	movq	24(%rsi), %r10
.LBB814:
.LBB769:
.LBB696:
.LBB694:
	.loc 1 1976 16 view .LVU883
	movq	%r8, %rbp
.LBE694:
.LBE696:
.LBE769:
.LBE814:
	.loc 1 2531 1 view .LVU884
	movq	%rdi, 80(%rsp)
.LBB815:
.LBB770:
.LBB697:
.LBB698:
	.loc 1 2143 9 view .LVU885
	leaq	4592(%rsp), %rax
.LBE698:
.LBE697:
.LBE770:
.LBE815:
	.loc 1 2531 1 view .LVU886
	movq	%rsi, 24(%rsp)
	movq	%fs:40, %rbx
	movq	%rbx, 8600(%rsp)
	xorl	%ebx, %ebx
	.loc 1 2532 3 is_stmt 1 view .LVU887
.LVL319:
	.loc 1 2536 3 view .LVU888
	.loc 1 2537 3 view .LVU889
	.loc 1 2538 3 view .LVU890
	.loc 1 2539 3 view .LVU891
.LBB816:
.LBB771:
.LBB718:
.LBB713:
	.loc 1 2143 9 is_stmt 0 view .LVU892
	movq	%rax, 184(%rsp)
.LVL320:
	.p2align 4,,10
	.p2align 3
.L291:
	.loc 1 2143 9 view .LVU893
.LBE713:
.LBE718:
.LBE771:
.LBE816:
	.loc 1 2541 3 is_stmt 1 view .LVU894
	.loc 1 2543 3 view .LVU895
.LBB817:
	.loc 1 2545 7 view .LVU896
	.loc 1 2549 12 is_stmt 0 view .LVU897
	cmpq	%r11, %r15
	.loc 1 2545 19 view .LVU898
	movq	40(%r14), %rcx
.LVL321:
	.loc 1 2546 7 is_stmt 1 view .LVU899
	.loc 1 2546 19 is_stmt 0 view .LVU900
	movq	32(%r14), %r13
.LVL322:
	.loc 1 2549 7 is_stmt 1 view .LVU901
	.loc 1 2549 12 is_stmt 0 view .LVU902
	cmovnb	%r15, %r11
.LVL323:
	.loc 1 2550 7 is_stmt 1 view .LVU903
	.loc 1 2550 12 is_stmt 0 view .LVU904
	cmpq	%r10, %rbp
	cmovnb	%rbp, %r10
.LVL324:
	.loc 1 2553 7 is_stmt 1 view .LVU905
	.loc 1 2553 26 is_stmt 0 view .LVU906
	movq	%r11, %rbx
	.loc 1 2554 26 view .LVU907
	movq	%r10, %r9
	.loc 1 2553 26 view .LVU908
	subq	%r15, %rbx
.LVL325:
	.loc 1 2554 7 is_stmt 1 view .LVU909
	.loc 1 2554 26 is_stmt 0 view .LVU910
	subq	%rbp, %r9
.LVL326:
	.loc 1 2556 7 is_stmt 1 view .LVU911
	.loc 1 2556 10 is_stmt 0 view .LVU912
	cmpb	$0, hard_LC_COLLATE(%rip)
	jne	.L292
.LVL327:
.LBB772:
.LBI772:
	.loc 1 2298 1 is_stmt 1 view .LVU913
.LBB773:
	.loc 1 2300 3 view .LVU914
	.loc 1 2300 3 is_stmt 0 view .LVU915
.LBE773:
.LBE772:
	.loc 1 2557 25 view .LVU916
	movabsq	$72057594037862400, %rax
	testq	%rax, 48(%r14)
	je	.L475
.L292:
.LBB774:
	.loc 1 2559 11 is_stmt 1 view .LVU917
	.loc 1 2560 11 view .LVU918
	.loc 1 2561 11 view .LVU919
	.loc 1 2562 11 view .LVU920
	.loc 1 2564 11 view .LVU921
.LVL328:
	.loc 1 2565 11 view .LVU922
	.loc 1 2566 11 view .LVU923
	.loc 1 2567 11 view .LVU924
	.loc 1 2569 11 view .LVU925
	.loc 1 2569 14 is_stmt 0 view .LVU926
	movq	%rcx, %rax
	orq	%r13, %rax
	movq	%rax, 32(%rsp)
	jne	.L476
	.loc 1 2604 15 is_stmt 1 view .LVU927
.LVL329:
	.loc 1 2604 27 view .LVU928
	.loc 1 2604 41 view .LVU929
	.loc 1 2566 17 is_stmt 0 view .LVU930
	movq	$0, 56(%rsp)
	.loc 1 2604 46 view .LVU931
	movzbl	(%r11), %eax
	.loc 1 2604 69 view .LVU932
	movb	$0, (%r11)
	.loc 1 2604 46 view .LVU933
	movb	%al, 40(%rsp)
.LVL330:
	.loc 1 2604 59 is_stmt 1 view .LVU934
	.loc 1 2605 15 view .LVU935
	.loc 1 2605 27 view .LVU936
	.loc 1 2605 41 view .LVU937
	.loc 1 2605 46 is_stmt 0 view .LVU938
	movzbl	(%r10), %eax
.LVL331:
	.loc 1 2605 69 view .LVU939
	movb	$0, (%r10)
	.loc 1 2605 46 view .LVU940
	movb	%al, 55(%rsp)
.LVL332:
	.loc 1 2605 59 is_stmt 1 view .LVU941
.L306:
	.loc 1 2608 11 view .LVU942
	.loc 1 2608 14 is_stmt 0 view .LVU943
	cmpb	$0, 50(%r14)
	jne	.L477
	.loc 1 2610 16 is_stmt 1 view .LVU944
	.loc 1 2610 19 is_stmt 0 view .LVU945
	cmpb	$0, 52(%r14)
	jne	.L478
	.loc 1 2612 16 is_stmt 1 view .LVU946
	.loc 1 2612 19 is_stmt 0 view .LVU947
	cmpb	$0, 53(%r14)
	jne	.L479
	.loc 1 2614 16 is_stmt 1 view .LVU948
	.loc 1 2614 19 is_stmt 0 view .LVU949
	cmpb	$0, 54(%r14)
	jne	.L480
	.loc 1 2616 16 is_stmt 1 view .LVU950
	.loc 1 2616 19 is_stmt 0 view .LVU951
	cmpb	$0, 51(%r14)
	jne	.L481
	.loc 1 2618 16 is_stmt 1 view .LVU952
	.loc 1 2618 19 is_stmt 0 view .LVU953
	cmpb	$0, 56(%r14)
	je	.L346
	.loc 1 2619 20 view .LVU954
	movq	%rbp, %rsi
	movq	%r15, %rdi
	movq	%r9, 64(%rsp)
	.loc 1 2619 13 is_stmt 1 view .LVU955
	.loc 1 2619 20 is_stmt 0 view .LVU956
	call	filevercmp@PLT
.LVL333:
	.loc 1 2619 20 view .LVU957
	movq	64(%rsp), %r9
	movl	%eax, (%rsp)
.LVL334:
	.loc 1 2619 20 view .LVU958
	jmp	.L312
.LVL335:
	.p2align 4,,10
	.p2align 3
.L503:
	.loc 1 2619 20 view .LVU959
	fstp	%st(0)
	fstp	%st(0)
.LVL336:
	.p2align 4,,10
	.p2align 3
.L312:
	.loc 1 2632 11 is_stmt 1 view .LVU960
	.loc 1 2632 14 is_stmt 0 view .LVU961
	cmpq	$0, 32(%rsp)
	jne	.L482
	.loc 1 2636 15 is_stmt 1 view .LVU962
	.loc 1 2636 25 is_stmt 0 view .LVU963
	movzbl	40(%rsp), %eax
	movb	%al, (%r15,%rbx)
	.loc 1 2637 15 is_stmt 1 view .LVU964
	.loc 1 2637 25 is_stmt 0 view .LVU965
	movzbl	55(%rsp), %eax
	movb	%al, 0(%rbp,%r9)
.LVL337:
.L350:
	.loc 1 2637 25 view .LVU966
.LBE774:
	.loc 1 2695 7 is_stmt 1 view .LVU967
	.loc 1 2695 10 is_stmt 0 view .LVU968
	movl	(%rsp), %eax
	testl	%eax, %eax
	jne	.L467
.LVL338:
.L484:
	.loc 1 2698 7 is_stmt 1 view .LVU969
	.loc 1 2698 11 is_stmt 0 view .LVU970
	movq	64(%r14), %r14
.LVL339:
	.loc 1 2699 7 is_stmt 1 view .LVU971
	.loc 1 2699 10 is_stmt 0 view .LVU972
	testq	%r14, %r14
	je	.L468
	.loc 1 2703 7 is_stmt 1 view .LVU973
	movq	80(%rsp), %rax
.LVL340:
	.loc 1 2703 10 is_stmt 0 view .LVU974
	cmpq	$-1, 16(%r14)
	movq	(%rax), %r15
	movq	8(%rax), %rbp
	je	.L373
	.loc 1 2704 9 is_stmt 1 view .LVU975
	.loc 1 2704 16 is_stmt 0 view .LVU976
	movq	%r14, %rdx
	movq	%rbp, %rsi
	movq	%r15, %rdi
	call	limfield.isra.0
.LVL341:
	.loc 1 2704 42 view .LVU977
	movq	%r14, %rdx
	.loc 1 2704 16 view .LVU978
	movq	%rax, %r11
.LVL342:
	.loc 1 2704 42 view .LVU979
	movq	24(%rsp), %rax
.LVL343:
	.loc 1 2704 42 view .LVU980
	movq	8(%rax), %rsi
	movq	(%rax), %rdi
	call	limfield.isra.0
.LVL344:
	.loc 1 2708 10 view .LVU981
	cmpq	$-1, (%r14)
	.loc 1 2704 42 view .LVU982
	movq	%rax, %r10
.LVL345:
	.loc 1 2708 7 is_stmt 1 view .LVU983
	.loc 1 2708 10 is_stmt 0 view .LVU984
	je	.L375
.LVL346:
.L483:
	.loc 1 2709 9 is_stmt 1 view .LVU985
	.loc 1 2709 17 is_stmt 0 view .LVU986
	movq	%rbp, %rsi
	movq	%r15, %rdi
	movq	%r14, %rdx
	call	begfield.isra.0
.LVL347:
	.loc 1 2709 44 view .LVU987
	movq	%r14, %rdx
	.loc 1 2709 17 view .LVU988
	movq	%rax, %r15
.LVL348:
	.loc 1 2709 44 view .LVU989
	movq	24(%rsp), %rax
.LVL349:
	.loc 1 2709 44 view .LVU990
	movq	8(%rax), %rsi
	movq	(%rax), %rdi
	call	begfield.isra.0
.LVL350:
	.loc 1 2709 44 view .LVU991
	movq	%rax, %rbp
	.loc 1 2709 44 view .LVU992
	jmp	.L291
.LVL351:
	.p2align 4,,10
	.p2align 3
.L373:
	.loc 1 2706 9 is_stmt 1 view .LVU993
	.loc 1 2706 68 is_stmt 0 view .LVU994
	movq	24(%rsp), %rcx
	.loc 1 2708 10 view .LVU995
	cmpq	$-1, (%r14)
	.loc 1 2706 14 view .LVU996
	leaq	-1(%r15,%rbp), %r11
.LVL352:
	.loc 1 2706 68 view .LVU997
	movq	8(%rcx), %rax
	.loc 1 2706 46 view .LVU998
	movq	(%rcx), %rdx
	leaq	-1(%rdx,%rax), %r10
.LVL353:
	.loc 1 2708 7 is_stmt 1 view .LVU999
	.loc 1 2708 10 is_stmt 0 view .LVU1000
	jne	.L483
.L375:
	.loc 1 2712 11 is_stmt 1 view .LVU1001
.LVL354:
	.loc 1 2712 34 is_stmt 0 view .LVU1002
	movq	24(%rsp), %rax
	.loc 1 2713 14 view .LVU1003
	cmpb	$0, 48(%r14)
	.loc 1 2712 34 view .LVU1004
	movq	(%rax), %rbp
	.loc 1 2713 11 is_stmt 1 view .LVU1005
	.loc 1 2713 14 is_stmt 0 view .LVU1006
	je	.L291
	.loc 1 2715 21 is_stmt 1 view .LVU1007
	cmpq	%r15, %r11
	ja	.L377
	.loc 1 2715 21 is_stmt 0 view .LVU1008
	jmp	.L378
.LVL355:
	.p2align 4,,10
	.p2align 3
.L379:
	.loc 1 2716 17 is_stmt 1 view .LVU1009
	.loc 1 2716 17 is_stmt 0 view .LVU1010
	addq	$1, %r15
.LVL356:
	.loc 1 2715 21 is_stmt 1 view .LVU1011
	cmpq	%r15, %r11
	je	.L378
.LVL357:
.L377:
.LBB775:
.LBI775:
	.loc 2 156 29 discriminator 1 view .LVU1012
.LBB776:
	.loc 2 156 50 discriminator 1 view .LVU1013
	.loc 2 156 50 is_stmt 0 discriminator 1 view .LVU1014
.LBE776:
.LBE775:
	.loc 1 2715 44 discriminator 1 view .LVU1015
	movzbl	(%r15), %eax
	.loc 1 2715 35 discriminator 1 view .LVU1016
	cmpb	$0, (%r12,%rax)
	jne	.L379
.LVL358:
.L378:
	.loc 1 2717 21 is_stmt 1 view .LVU1017
	cmpq	%rbp, %r10
	ja	.L380
	.loc 1 2717 21 is_stmt 0 view .LVU1018
	jmp	.L291
	.p2align 4,,10
	.p2align 3
.L381:
	.loc 1 2718 17 is_stmt 1 view .LVU1019
.LVL359:
	.loc 1 2718 17 is_stmt 0 view .LVU1020
	addq	$1, %rbp
.LVL360:
	.loc 1 2717 21 is_stmt 1 view .LVU1021
	cmpq	%rbp, %r10
	je	.L291
.L380:
.LVL361:
.LBB777:
.LBI777:
	.loc 2 156 29 discriminator 1 view .LVU1022
.LBB778:
	.loc 2 156 50 discriminator 1 view .LVU1023
	.loc 2 156 50 is_stmt 0 discriminator 1 view .LVU1024
.LBE778:
.LBE777:
	.loc 1 2717 44 discriminator 1 view .LVU1025
	movzbl	0(%rbp), %eax
	.loc 1 2717 35 discriminator 1 view .LVU1026
	cmpb	$0, (%r12,%rax)
	jne	.L381
	.loc 1 2717 35 discriminator 1 view .LVU1027
	jmp	.L291
.LVL362:
	.p2align 4,,10
	.p2align 3
.L482:
.LBB779:
	.loc 1 2633 13 is_stmt 1 view .LVU1028
	movq	56(%rsp), %rdi
	call	free@PLT
.LVL363:
	.loc 1 2633 13 is_stmt 0 view .LVU1029
.LBE779:
	.loc 1 2695 7 is_stmt 1 view .LVU1030
	.loc 1 2695 10 is_stmt 0 view .LVU1031
	movl	(%rsp), %eax
	testl	%eax, %eax
	je	.L484
.LVL364:
.L467:
	.loc 1 2695 10 view .LVU1032
	movl	(%rsp), %ebx
	jmp	.L360
.LVL365:
	.p2align 4,,10
	.p2align 3
.L477:
.LBB780:
.LBB719:
.LBB720:
	.loc 1 1992 9 is_stmt 1 view .LVU1033
.LBB721:
.LBI721:
	.loc 2 156 29 view .LVU1034
.LBB722:
	.loc 2 156 50 view .LVU1035
	.loc 2 156 50 is_stmt 0 view .LVU1036
.LBE722:
.LBE721:
	.loc 1 1992 16 view .LVU1037
	movzbl	(%r15), %eax
	.loc 1 1992 9 view .LVU1038
	movq	%r15, %rdi
	cmpb	$0, (%r12,%rax)
	je	.L308
	.p2align 4,,10
	.p2align 3
.L309:
.LVL366:
	.loc 1 1993 5 is_stmt 1 view .LVU1039
	.loc 1 1992 16 is_stmt 0 view .LVU1040
	movzbl	1(%rdi), %eax
	.loc 1 1993 6 view .LVU1041
	addq	$1, %rdi
.LVL367:
	.loc 1 1992 9 is_stmt 1 view .LVU1042
.LBB724:
	.loc 2 156 29 view .LVU1043
.LBB723:
	.loc 2 156 50 view .LVU1044
	.loc 2 156 50 is_stmt 0 view .LVU1045
.LBE723:
.LBE724:
	.loc 1 1992 9 view .LVU1046
	cmpb	$0, (%r12,%rax)
	jne	.L309
.LVL368:
.L308:
	.loc 1 1994 9 is_stmt 1 view .LVU1047
.LBB725:
.LBI725:
	.loc 2 156 29 view .LVU1048
.LBB726:
	.loc 2 156 50 view .LVU1049
	.loc 2 156 50 is_stmt 0 view .LVU1050
.LBE726:
.LBE725:
	.loc 1 1994 16 view .LVU1051
	movzbl	0(%rbp), %eax
	.loc 1 1994 9 view .LVU1052
	movq	%rbp, %rsi
	cmpb	$0, (%r12,%rax)
	je	.L310
	.p2align 4,,10
	.p2align 3
.L311:
.LVL369:
	.loc 1 1995 5 is_stmt 1 view .LVU1053
	.loc 1 1994 16 is_stmt 0 view .LVU1054
	movzbl	1(%rsi), %eax
	.loc 1 1995 6 view .LVU1055
	addq	$1, %rsi
.LVL370:
	.loc 1 1994 9 is_stmt 1 view .LVU1056
.LBB728:
	.loc 2 156 29 view .LVU1057
.LBB727:
	.loc 2 156 50 view .LVU1058
	.loc 2 156 50 is_stmt 0 view .LVU1059
.LBE727:
.LBE728:
	.loc 1 1994 9 view .LVU1060
	cmpb	$0, (%r12,%rax)
	jne	.L311
.LVL371:
.L310:
	.loc 1 1997 10 view .LVU1061
	movl	thousands_sep(%rip), %ecx
	movl	decimal_point(%rip), %edx
	movq	%r9, 64(%rsp)
	.loc 1 1997 3 is_stmt 1 view .LVU1062
	.loc 1 1997 10 is_stmt 0 view .LVU1063
	call	strnumcmp@PLT
.LVL372:
	.loc 1 1997 10 view .LVU1064
.LBE720:
.LBE719:
	movq	64(%rsp), %r9
.LBB730:
.LBB729:
	movl	%eax, (%rsp)
.LVL373:
	.loc 1 1997 10 view .LVU1065
.LBE729:
.LBE730:
	jmp	.L312
.LVL374:
	.p2align 4,,10
	.p2align 3
.L476:
.LBB731:
	.loc 1 2575 15 is_stmt 1 view .LVU1066
	.loc 1 2578 15 view .LVU1067
	.loc 1 2578 22 is_stmt 0 view .LVU1068
	leaq	2(%rbx,%r9), %r10
.LVL375:
	.loc 1 2579 15 is_stmt 1 view .LVU1069
	.loc 1 2580 20 is_stmt 0 view .LVU1070
	leaq	592(%rsp), %rdi
	.loc 1 2580 42 view .LVU1071
	movq	$0, 56(%rsp)
	.loc 1 2579 18 view .LVU1072
	cmpq	$4000, %r10
	ja	.L485
.LVL376:
	.loc 1 2583 15 is_stmt 1 view .LVU1073
	.loc 1 2583 18 is_stmt 0 view .LVU1074
	leaq	1(%rdi,%rbx), %r10
.LVL377:
	.loc 1 2587 15 is_stmt 1 view .LVU1075
	.loc 1 2587 35 view .LVU1076
	.loc 1 2587 15 is_stmt 0 view .LVU1077
	testq	%rbx, %rbx
	je	.L390
.LVL378:
.L490:
	.loc 1 2587 15 view .LVU1078
	leaq	(%r15,%rbx), %rax
	.loc 1 2587 26 view .LVU1079
	xorl	%ebx, %ebx
.LVL379:
	.p2align 4,,10
	.p2align 3
.L300:
	.loc 1 2588 17 is_stmt 1 view .LVU1080
	movzbl	(%r15), %edx
	.loc 1 2588 20 is_stmt 0 view .LVU1081
	testq	%r13, %r13
	je	.L297
.LVL380:
.LBB732:
.LBI732:
	.loc 2 156 29 is_stmt 1 discriminator 1 view .LVU1082
.LBB733:
	.loc 2 156 50 discriminator 1 view .LVU1083
	.loc 2 156 50 is_stmt 0 discriminator 1 view .LVU1084
.LBE733:
.LBE732:
	.loc 1 2588 41 discriminator 1 view .LVU1085
	movzbl	%dl, %esi
	.loc 1 2588 21 discriminator 1 view .LVU1086
	cmpb	$0, 0(%r13,%rsi)
	jne	.L298
.L297:
	.loc 1 2589 19 is_stmt 1 view .LVU1087
	.loc 1 2589 31 is_stmt 0 view .LVU1088
	testq	%rcx, %rcx
	je	.L299
.LVL381:
.LBB734:
.LBI734:
	.loc 2 156 29 is_stmt 1 discriminator 1 view .LVU1089
.LBB735:
	.loc 2 156 50 discriminator 1 view .LVU1090
	.loc 2 156 50 is_stmt 0 discriminator 1 view .LVU1091
.LBE735:
.LBE734:
	.loc 1 2589 31 discriminator 1 view .LVU1092
	movzbl	(%rcx,%rdx), %edx
.L299:
.LVL382:
	.loc 1 2589 31 discriminator 4 view .LVU1093
	movb	%dl, (%rdi,%rbx)
	.loc 1 2589 27 discriminator 4 view .LVU1094
	addq	$1, %rbx
.LVL383:
.L298:
	.loc 1 2587 45 is_stmt 1 discriminator 2 view .LVU1095
	.loc 1 2587 35 discriminator 2 view .LVU1096
	addq	$1, %r15
	.loc 1 2587 15 is_stmt 0 discriminator 2 view .LVU1097
	cmpq	%r15, %rax
	jne	.L300
	.loc 1 2587 15 discriminator 2 view .LVU1098
	leaq	(%rdi,%rbx), %rax
	.loc 1 2592 15 is_stmt 1 view .LVU1099
	.loc 1 2592 25 is_stmt 0 view .LVU1100
	movb	$0, (%rax)
	.loc 1 2594 15 is_stmt 1 view .LVU1101
.LVL384:
	.loc 1 2594 35 view .LVU1102
	.loc 1 2594 15 is_stmt 0 view .LVU1103
	testq	%r9, %r9
	je	.L391
.LVL385:
.L491:
	.loc 1 2594 15 view .LVU1104
	leaq	0(%rbp,%r9), %rsi
	.loc 1 2594 26 view .LVU1105
	xorl	%r9d, %r9d
.LVL386:
	.p2align 4,,10
	.p2align 3
.L305:
	.loc 1 2595 17 is_stmt 1 view .LVU1106
	movzbl	0(%rbp), %eax
	.loc 1 2595 20 is_stmt 0 view .LVU1107
	testq	%r13, %r13
	je	.L302
.LVL387:
.LBB736:
.LBI736:
	.loc 2 156 29 is_stmt 1 discriminator 1 view .LVU1108
.LBB737:
	.loc 2 156 50 discriminator 1 view .LVU1109
	.loc 2 156 50 is_stmt 0 discriminator 1 view .LVU1110
.LBE737:
.LBE736:
	.loc 1 2595 41 discriminator 1 view .LVU1111
	movzbl	%al, %edx
	.loc 1 2595 21 discriminator 1 view .LVU1112
	cmpb	$0, 0(%r13,%rdx)
	jne	.L303
.L302:
	.loc 1 2596 19 is_stmt 1 view .LVU1113
	.loc 1 2596 31 is_stmt 0 view .LVU1114
	testq	%rcx, %rcx
	je	.L304
.LVL388:
.LBB738:
.LBI738:
	.loc 2 156 29 is_stmt 1 discriminator 1 view .LVU1115
.LBB739:
	.loc 2 156 50 discriminator 1 view .LVU1116
	.loc 2 156 50 is_stmt 0 discriminator 1 view .LVU1117
.LBE739:
.LBE738:
	.loc 1 2596 31 discriminator 1 view .LVU1118
	movzbl	(%rcx,%rax), %eax
.L304:
.LVL389:
	.loc 1 2596 31 discriminator 4 view .LVU1119
	movb	%al, (%r10,%r9)
	.loc 1 2596 27 discriminator 4 view .LVU1120
	addq	$1, %r9
.LVL390:
.L303:
	.loc 1 2594 45 is_stmt 1 discriminator 2 view .LVU1121
	.loc 1 2594 35 discriminator 2 view .LVU1122
	addq	$1, %rbp
	.loc 1 2594 15 is_stmt 0 discriminator 2 view .LVU1123
	cmpq	%rbp, %rsi
	jne	.L305
	.loc 1 2594 15 discriminator 2 view .LVU1124
	leaq	(%r10,%r9), %rax
.LVL391:
.L301:
	.loc 1 2599 15 is_stmt 1 view .LVU1125
	.loc 1 2599 25 is_stmt 0 view .LVU1126
	movb	$0, (%rax)
.LVL392:
	.loc 1 2583 18 view .LVU1127
	movq	%r10, %rbp
.LVL393:
	.loc 1 2583 18 view .LVU1128
.LBE731:
	movq	%rdi, %r15
	.loc 1 2565 16 view .LVU1129
	movb	$0, 55(%rsp)
	.loc 1 2564 16 view .LVU1130
	movb	$0, 40(%rsp)
	jmp	.L306
.LVL394:
	.p2align 4,,10
	.p2align 3
.L478:
.LBB740:
.LBB741:
	.loc 1 2026 19 view .LVU1131
	leaq	192(%rsp), %rsi
	movq	%r15, %rdi
	movq	%r9, 64(%rsp)
.LBE741:
.LBE740:
	.loc 1 2611 13 is_stmt 1 view .LVU1132
.LBB757:
.LBI740:
	.loc 1 2019 1 view .LVU1133
.LBB751:
	.loc 1 2024 3 view .LVU1134
	.loc 1 2025 3 view .LVU1135
	.loc 1 2026 3 view .LVU1136
	.loc 1 2026 19 is_stmt 0 view .LVU1137
	call	strtold@PLT
.LVL395:
	.loc 1 2027 19 view .LVU1138
	leaq	200(%rsp), %rsi
	movq	%rbp, %rdi
	.loc 1 2026 19 view .LVU1139
	fstpt	(%rsp)
.LVL396:
	.loc 1 2027 3 is_stmt 1 view .LVU1140
	.loc 1 2027 19 is_stmt 0 view .LVU1141
	call	strtold@PLT
.LVL397:
	.loc 1 2030 3 is_stmt 1 view .LVU1142
	.loc 1 2030 6 is_stmt 0 view .LVU1143
	movq	64(%rsp), %r9
	cmpq	192(%rsp), %r15
	fldt	(%rsp)
.LVL398:
	.loc 1 2030 6 view .LVU1144
	je	.L486
	.loc 1 2032 3 is_stmt 1 view .LVU1145
	.loc 1 2032 6 is_stmt 0 view .LVU1146
	cmpq	200(%rsp), %rbp
	je	.L501
	fxch	%st(1)
	.loc 1 2038 3 is_stmt 1 view .LVU1147
	.loc 1 2039 11 is_stmt 0 view .LVU1148
	fcomi	%st(1), %st
	ja	.L502
	fxch	%st(1)
	.loc 1 2040 11 view .LVU1149
	fcomi	%st(1), %st
	.loc 1 2033 12 view .LVU1150
	movl	$1, (%rsp)
.LVL399:
	.loc 1 2040 11 view .LVU1151
	ja	.L503
	.loc 1 2041 11 view .LVU1152
	fucomi	%st(1), %st
	jp	.L504
	je	.L451
	fxch	%st(1)
	jmp	.L410
.L504:
	fxch	%st(1)
	.p2align 4,,10
	.p2align 3
.L410:
	.loc 1 2042 11 view .LVU1153
	fucomip	%st(0), %st
	jp	.L411
	je	.L505
.L411:
	.loc 1 2043 11 view .LVU1154
	fucomip	%st(0), %st
	jp	.L412
	jne	.L412
	jmp	.L453
.LVL400:
	.p2align 4,,10
	.p2align 3
.L501:
	.loc 1 2043 11 view .LVU1155
	fstp	%st(0)
	fstp	%st(0)
.LVL401:
.L453:
	.loc 1 2033 12 view .LVU1156
	movl	$1, (%rsp)
.LVL402:
	.loc 1 2033 12 view .LVU1157
	jmp	.L312
.LVL403:
	.p2align 4,,10
	.p2align 3
.L479:
	.loc 1 2033 12 view .LVU1158
.LBE751:
.LBE757:
.LBB758:
.LBB695:
	.loc 1 1976 9 is_stmt 1 view .LVU1159
.LBB686:
.LBI686:
	.loc 2 156 29 view .LVU1160
.LBB687:
	.loc 2 156 50 view .LVU1161
	.loc 2 156 50 is_stmt 0 view .LVU1162
.LBE687:
.LBE686:
	.loc 1 1976 16 view .LVU1163
	movzbl	(%r15), %eax
	.loc 1 1976 9 view .LVU1164
	movq	%r15, %r13
.LVL404:
	.loc 1 1976 9 view .LVU1165
	cmpb	$0, (%r12,%rax)
	je	.L320
	.p2align 4,,10
	.p2align 3
.L321:
.LVL405:
	.loc 1 1977 5 is_stmt 1 view .LVU1166
	.loc 1 1976 16 is_stmt 0 view .LVU1167
	movzbl	1(%r13), %eax
	.loc 1 1977 6 view .LVU1168
	addq	$1, %r13
.LVL406:
	.loc 1 1976 9 is_stmt 1 view .LVU1169
.LBB689:
	.loc 2 156 29 view .LVU1170
.LBB688:
	.loc 2 156 50 view .LVU1171
	.loc 2 156 50 is_stmt 0 view .LVU1172
.LBE688:
.LBE689:
	.loc 1 1976 9 view .LVU1173
	cmpb	$0, (%r12,%rax)
	jne	.L321
.LVL407:
.L320:
	.loc 1 1978 9 is_stmt 1 view .LVU1174
.LBB690:
.LBI690:
	.loc 2 156 29 view .LVU1175
.LBB691:
	.loc 2 156 50 view .LVU1176
	.loc 2 156 50 is_stmt 0 view .LVU1177
.LBE691:
.LBE690:
	.loc 1 1978 16 view .LVU1178
	movzbl	0(%rbp), %eax
	.loc 1 1978 9 view .LVU1179
	movq	%rbp, %rsi
	cmpb	$0, (%r12,%rax)
	je	.L322
	.p2align 4,,10
	.p2align 3
.L323:
.LVL408:
	.loc 1 1979 5 is_stmt 1 view .LVU1180
	.loc 1 1978 16 is_stmt 0 view .LVU1181
	movzbl	1(%rsi), %eax
	.loc 1 1979 6 view .LVU1182
	addq	$1, %rsi
.LVL409:
	.loc 1 1978 9 is_stmt 1 view .LVU1183
.LBB693:
	.loc 2 156 29 view .LVU1184
.LBB692:
	.loc 2 156 50 view .LVU1185
	.loc 2 156 50 is_stmt 0 view .LVU1186
.LBE692:
.LBE693:
	.loc 1 1978 9 view .LVU1187
	cmpb	$0, (%r12,%rax)
	jne	.L323
.LVL410:
.L322:
	.loc 1 1981 14 view .LVU1188
	movq	%r13, %rdi
	movq	%r9, 72(%rsp)
	.loc 1 1981 3 is_stmt 1 view .LVU1189
	movq	%rsi, 64(%rsp)
	.loc 1 1981 14 is_stmt 0 view .LVU1190
	call	find_unit_order
.LVL411:
	.loc 1 1981 36 view .LVU1191
	movq	64(%rsp), %rsi
	.loc 1 1981 14 view .LVU1192
	movl	%eax, (%rsp)
	.loc 1 1981 36 view .LVU1193
	movq	%rsi, %rdi
	call	find_unit_order
.LVL412:
	.loc 1 1982 3 is_stmt 1 view .LVU1194
	.loc 1 1982 23 is_stmt 0 view .LVU1195
	subl	%eax, (%rsp)
.LVL413:
	.loc 1 1982 23 view .LVU1196
	movq	64(%rsp), %rsi
	movq	72(%rsp), %r9
	jne	.L312
.LVL414:
	.loc 1 1982 25 view .LVU1197
	movl	thousands_sep(%rip), %ecx
	movl	decimal_point(%rip), %edx
	movq	%r13, %rdi
	movq	%r9, 64(%rsp)
	call	strnumcmp@PLT
.LVL415:
	.loc 1 1982 25 view .LVU1198
	movq	64(%rsp), %r9
	movl	%eax, (%rsp)
.LVL416:
	.loc 1 1982 25 view .LVU1199
	jmp	.L312
.LVL417:
	.p2align 4,,10
	.p2align 3
.L475:
	.loc 1 1982 25 view .LVU1200
.LBE695:
.LBE758:
.LBE780:
	.loc 1 2557 40 discriminator 1 view .LVU1201
	cmpb	$0, 56(%r14)
	jne	.L292
	.loc 1 2640 12 is_stmt 1 view .LVU1202
	.loc 1 2640 15 is_stmt 0 view .LVU1203
	testq	%r13, %r13
	je	.L351
	.loc 1 2664 11 is_stmt 1 view .LVU1204
	movq	%r15, %rsi
	.loc 1 2664 14 is_stmt 0 view .LVU1205
	testq	%rcx, %rcx
	je	.L353
	.p2align 4,,10
	.p2align 3
.L354:
.LVL418:
	.loc 1 2665 13 is_stmt 1 discriminator 1 view .LVU1206
	cmpq	%r11, %rsi
	jnb	.L355
.LVL419:
.LBB781:
.LBI781:
	.loc 2 156 29 discriminator 2 view .LVU1207
.LBB782:
	.loc 2 156 50 discriminator 2 view .LVU1208
	.loc 2 156 50 is_stmt 0 discriminator 2 view .LVU1209
.LBE782:
.LBE781:
	.loc 1 2665 13 discriminator 2 view .LVU1210
	movzbl	(%rsi), %eax
	cmpb	$0, 0(%r13,%rax)
	jne	.L356
.L355:
	.loc 1 2665 13 is_stmt 1 discriminator 6 view .LVU1211
	cmpq	%r10, %rbp
	jb	.L357
	jmp	.L358
	.p2align 4,,10
	.p2align 3
.L359:
	.loc 1 2665 13 discriminator 9 view .LVU1212
.LVL420:
	.loc 1 2665 13 is_stmt 0 discriminator 9 view .LVU1213
	addq	$1, %rbp
.LVL421:
	.loc 1 2665 13 is_stmt 1 discriminator 9 view .LVU1214
	cmpq	%rbp, %r10
	je	.L487
.LVL422:
.L357:
.LBB783:
.LBI783:
	.loc 2 156 29 discriminator 7 view .LVU1215
.LBB784:
	.loc 2 156 50 discriminator 7 view .LVU1216
	.loc 2 156 50 is_stmt 0 discriminator 7 view .LVU1217
.LBE784:
.LBE783:
	.loc 1 2665 13 discriminator 7 view .LVU1218
	movzbl	0(%rbp), %eax
	cmpb	$0, 0(%r13,%rax)
	jne	.L359
	.loc 1 2665 13 is_stmt 1 discriminator 10 view .LVU1219
	cmpq	%rsi, %r11
	jbe	.L358
	cmpq	%rbp, %r10
	jbe	.L358
	.loc 1 2665 13 discriminator 12 view .LVU1220
.LVL423:
.LBB785:
.LBI785:
	.loc 2 156 29 discriminator 12 view .LVU1221
.LBB786:
	.loc 2 156 50 discriminator 12 view .LVU1222
	.loc 2 156 50 is_stmt 0 discriminator 12 view .LVU1223
.LBE786:
.LBE785:
.LBB787:
.LBI787:
	.loc 2 156 29 is_stmt 1 discriminator 12 view .LVU1224
.LBB788:
	.loc 2 156 50 discriminator 12 view .LVU1225
	.loc 2 156 50 is_stmt 0 discriminator 12 view .LVU1226
.LBE788:
.LBE787:
.LBE817:
	.loc 2 156 50 is_stmt 1 discriminator 12 view .LVU1227
.LBB818:
.LBB789:
.LBI789:
	.loc 2 156 29 discriminator 12 view .LVU1228
.LBB790:
	.loc 2 156 50 discriminator 12 view .LVU1229
	.loc 2 156 50 is_stmt 0 discriminator 12 view .LVU1230
.LBE790:
.LBE789:
	.loc 1 2665 13 discriminator 12 view .LVU1231
	movzbl	(%rsi), %edx
	movzbl	(%rcx,%rax), %eax
	movzbl	(%rcx,%rdx), %edx
.LVL424:
	.loc 1 2665 13 is_stmt 1 discriminator 12 view .LVU1232
	subl	%eax, %edx
.LVL425:
	.loc 1 2665 13 is_stmt 0 discriminator 12 view .LVU1233
	jne	.L463
	.loc 1 2665 13 is_stmt 1 discriminator 14 view .LVU1234
.LVL426:
	.loc 1 2665 13 discriminator 14 view .LVU1235
	.loc 1 2665 13 is_stmt 0 discriminator 14 view .LVU1236
	addq	$1, %rbp
.LVL427:
	.loc 1 2665 13 is_stmt 1 discriminator 14 view .LVU1237
.L356:
	.loc 1 2665 13 is_stmt 0 discriminator 14 view .LVU1238
	addq	$1, %rsi
	jmp	.L354
.LVL428:
	.p2align 4,,10
	.p2align 3
.L489:
	.loc 1 2668 13 is_stmt 1 discriminator 10 view .LVU1239
	cmpq	%r15, %r11
	jbe	.L364
	.loc 1 2668 13 is_stmt 0 discriminator 10 view .LVU1240
	cmpq	%rbp, %r10
	jbe	.L364
	.loc 1 2668 13 is_stmt 1 discriminator 12 view .LVU1241
.LVL429:
.LBB791:
.LBI791:
	.loc 2 156 29 discriminator 12 view .LVU1242
.LBB792:
	.loc 2 156 50 discriminator 12 view .LVU1243
	.loc 2 156 50 is_stmt 0 discriminator 12 view .LVU1244
.LBE792:
.LBE791:
.LBE818:
	.loc 2 156 50 is_stmt 1 discriminator 12 view .LVU1245
.LBB819:
	.loc 1 2668 13 is_stmt 0 discriminator 12 view .LVU1246
	movzbl	(%r15), %edx
.LVL430:
	.loc 1 2668 13 is_stmt 1 discriminator 12 view .LVU1247
	subl	%eax, %edx
.LVL431:
	.loc 1 2668 13 is_stmt 0 discriminator 12 view .LVU1248
	jne	.L463
	.loc 1 2668 13 is_stmt 1 discriminator 14 view .LVU1249
.LVL432:
	.loc 1 2668 13 discriminator 14 view .LVU1250
	.loc 1 2668 13 is_stmt 0 discriminator 14 view .LVU1251
	addq	$1, %rbp
.LVL433:
	.loc 1 2668 13 is_stmt 1 discriminator 14 view .LVU1252
.L362:
	.loc 1 2668 13 is_stmt 0 discriminator 14 view .LVU1253
	addq	$1, %r15
.L353:
.LVL434:
	.loc 1 2668 13 is_stmt 1 discriminator 1 view .LVU1254
	cmpq	%r11, %r15
	jnb	.L361
.LVL435:
.LBB793:
.LBI793:
	.loc 2 156 29 discriminator 2 view .LVU1255
.LBB794:
	.loc 2 156 50 discriminator 2 view .LVU1256
	.loc 2 156 50 is_stmt 0 discriminator 2 view .LVU1257
.LBE794:
.LBE793:
	.loc 1 2668 13 discriminator 2 view .LVU1258
	movzbl	(%r15), %eax
	cmpb	$0, 0(%r13,%rax)
	jne	.L362
.L361:
	.loc 1 2668 13 is_stmt 1 discriminator 6 view .LVU1259
	cmpq	%r10, %rbp
	jb	.L363
	jmp	.L364
	.p2align 4,,10
	.p2align 3
.L365:
	.loc 1 2668 13 discriminator 9 view .LVU1260
.LVL436:
	.loc 1 2668 13 is_stmt 0 discriminator 9 view .LVU1261
	addq	$1, %rbp
.LVL437:
	.loc 1 2668 13 is_stmt 1 discriminator 9 view .LVU1262
	cmpq	%rbp, %r10
	je	.L488
.LVL438:
.L363:
.LBB795:
.LBI795:
	.loc 2 156 29 discriminator 7 view .LVU1263
.LBB796:
	.loc 2 156 50 discriminator 7 view .LVU1264
	.loc 2 156 57 is_stmt 0 discriminator 7 view .LVU1265
	movzbl	0(%rbp), %edx
.LBE796:
.LBE795:
	.loc 1 2668 13 discriminator 7 view .LVU1266
	cmpb	$0, 0(%r13,%rdx)
.LBB798:
.LBB797:
	.loc 2 156 57 discriminator 7 view .LVU1267
	movq	%rdx, %rax
	.loc 2 156 57 discriminator 7 view .LVU1268
.LBE797:
.LBE798:
	.loc 1 2668 13 discriminator 7 view .LVU1269
	jne	.L365
	jmp	.L489
.LVL439:
	.p2align 4,,10
	.p2align 3
.L487:
	.loc 1 2668 13 discriminator 7 view .LVU1270
	movq	%r10, %rbp
.LVL440:
.L358:
	.loc 1 2665 13 is_stmt 1 discriminator 11 view .LVU1271
	cmpq	%r11, %rsi
.LVL441:
.L474:
	.loc 1 2668 13 is_stmt 0 discriminator 11 view .LVU1272
	setb	%al
	xorl	%edx, %edx
	cmpq	%rbp, %r10
	movzbl	%al, %eax
	seta	%dl
	subl	%edx, %eax
	movl	%eax, (%rsp)
.LVL442:
	.loc 1 2668 13 discriminator 11 view .LVU1273
	jmp	.L350
.LVL443:
	.p2align 4,,10
	.p2align 3
.L480:
.LBB799:
	.loc 1 2615 20 view .LVU1274
	xorl	%esi, %esi
	movq	%r15, %rdi
	movq	%r9, 64(%rsp)
	.loc 1 2615 13 is_stmt 1 view .LVU1275
	.loc 1 2615 20 is_stmt 0 view .LVU1276
	call	getmonth
.LVL444:
	.loc 1 2615 42 view .LVU1277
	xorl	%esi, %esi
	movq	%rbp, %rdi
	.loc 1 2615 20 view .LVU1278
	movl	%eax, %r13d
.LVL445:
	.loc 1 2615 42 view .LVU1279
	call	getmonth
.LVL446:
	movq	64(%rsp), %r9
	.loc 1 2615 18 view .LVU1280
	subl	%eax, %r13d
	movl	%r13d, (%rsp)
.LVL447:
	.loc 1 2615 18 view .LVU1281
	jmp	.L312
.LVL448:
	.p2align 4,,10
	.p2align 3
.L485:
.LBB759:
	.loc 1 2582 34 view .LVU1282
	movq	%r10, %rdi
	movq	%rcx, 40(%rsp)
	movq	%r9, (%rsp)
	.loc 1 2582 17 is_stmt 1 view .LVU1283
	.loc 1 2582 34 is_stmt 0 view .LVU1284
	call	xmalloc@PLT
.LVL449:
	.loc 1 2582 34 view .LVU1285
	movq	40(%rsp), %rcx
	movq	(%rsp), %r9
	movq	%rax, %rdi
.LVL450:
	.loc 1 2583 15 is_stmt 1 view .LVU1286
	.loc 1 2582 34 is_stmt 0 view .LVU1287
	movq	%rax, 56(%rsp)
.LVL451:
	.loc 1 2583 18 view .LVU1288
	leaq	1(%rdi,%rbx), %r10
.LVL452:
	.loc 1 2587 15 is_stmt 1 view .LVU1289
	.loc 1 2587 35 view .LVU1290
	.loc 1 2587 15 is_stmt 0 view .LVU1291
	testq	%rbx, %rbx
	jne	.L490
.LVL453:
.L390:
	.loc 1 2587 15 view .LVU1292
	movq	%rdi, %rax
	.loc 1 2592 15 is_stmt 1 view .LVU1293
	.loc 1 2592 25 is_stmt 0 view .LVU1294
	movb	$0, (%rax)
	.loc 1 2594 15 is_stmt 1 view .LVU1295
.LVL454:
	.loc 1 2594 35 view .LVU1296
	.loc 1 2594 15 is_stmt 0 view .LVU1297
	testq	%r9, %r9
	jne	.L491
.LVL455:
	.p2align 4,,10
	.p2align 3
.L391:
	.loc 1 2594 15 view .LVU1298
	movq	%r10, %rax
	jmp	.L301
.LVL456:
	.p2align 4,,10
	.p2align 3
.L346:
	.loc 1 2594 15 view .LVU1299
.LBE759:
	.loc 1 2624 15 is_stmt 1 view .LVU1300
	.loc 1 2624 18 is_stmt 0 view .LVU1301
	testq	%rbx, %rbx
	jne	.L347
	.loc 1 2625 17 is_stmt 1 view .LVU1302
	.loc 1 2625 26 is_stmt 0 view .LVU1303
	xorl	%eax, %eax
	testq	%r9, %r9
	setne	%al
	.loc 1 2625 22 view .LVU1304
	negl	%eax
	movl	%eax, (%rsp)
.LVL457:
	.loc 1 2625 22 view .LVU1305
	jmp	.L312
.LVL458:
	.p2align 4,,10
	.p2align 3
.L481:
	.loc 1 2617 13 is_stmt 1 view .LVU1306
.LBB760:
.LBI697:
	.loc 1 2133 1 view .LVU1307
.LBB714:
	.loc 1 2140 3 view .LVU1308
	.loc 1 2142 3 view .LVU1309
	.loc 1 2143 3 view .LVU1310
	.loc 1 2144 3 view .LVU1311
	.loc 1 2145 3 view .LVU1312
	.loc 1 2146 3 view .LVU1313
	.loc 1 2147 3 view .LVU1314
	.loc 1 2148 3 view .LVU1315
	.loc 1 2148 15 is_stmt 0 view .LVU1316
	movdqa	random_md5_state(%rip), %xmm8
	movdqa	16+random_md5_state(%rip), %xmm7
	movdqa	32+random_md5_state(%rip), %xmm6
	movdqa	48+random_md5_state(%rip), %xmm5
	movdqa	64+random_md5_state(%rip), %xmm4
	movdqa	80+random_md5_state(%rip), %xmm3
	movups	%xmm8, 428(%rsp)
	movdqa	96+random_md5_state(%rip), %xmm2
	movdqa	112+random_md5_state(%rip), %xmm1
	movups	%xmm7, 444(%rsp)
	movdqa	128+random_md5_state(%rip), %xmm0
	movq	144+random_md5_state(%rip), %rdx
	movups	%xmm6, 460(%rsp)
	movl	152+random_md5_state(%rip), %eax
	movups	%xmm5, 476(%rsp)
	movq	%rdx, 572(%rsp)
	movl	%eax, 580(%rsp)
	.loc 1 2148 8 view .LVU1317
	movq	%rdx, 416(%rsp)
	.loc 1 2148 15 view .LVU1318
	movups	%xmm4, 492(%rsp)
	movups	%xmm3, 508(%rsp)
	movups	%xmm2, 524(%rsp)
	movups	%xmm1, 540(%rsp)
	movups	%xmm0, 556(%rsp)
	.loc 1 2148 8 view .LVU1319
	movaps	%xmm8, 272(%rsp)
	movaps	%xmm7, 288(%rsp)
	movaps	%xmm6, 304(%rsp)
	movaps	%xmm5, 320(%rsp)
	movaps	%xmm4, 336(%rsp)
	movaps	%xmm3, 352(%rsp)
	movaps	%xmm2, 368(%rsp)
	movaps	%xmm1, 384(%rsp)
	movaps	%xmm0, 400(%rsp)
	movl	%eax, 424(%rsp)
	.loc 1 2150 3 is_stmt 1 view .LVU1320
	.loc 1 2150 6 is_stmt 0 view .LVU1321
	cmpb	$0, hard_LC_COLLATE(%rip)
	je	.L326
.LBB699:
	.loc 1 2152 7 is_stmt 1 view .LVU1322
	.loc 1 2152 19 is_stmt 0 view .LVU1323
	leaq	(%r15,%rbx), %rax
.LBE699:
	.loc 1 2140 7 view .LVU1324
	movl	$0, (%rsp)
.LBB707:
	.loc 1 2152 19 view .LVU1325
	movq	%rax, 96(%rsp)
.LVL459:
	.loc 1 2153 7 is_stmt 1 view .LVU1326
	.loc 1 2153 19 is_stmt 0 view .LVU1327
	leaq	0(%rbp,%r9), %rax
.LVL460:
	.loc 1 2153 19 view .LVU1328
	movq	%rax, 104(%rsp)
.LVL461:
.LBB700:
	.loc 1 2172 44 view .LVU1329
	leaq	(%rbx,%r9), %rax
.LVL462:
	.loc 1 2172 18 view .LVU1330
	leaq	2(%rax,%rax,2), %rax
	movq	%r14, 144(%rsp)
	movq	%rax, 120(%rsp)
.LBE700:
.LBE707:
	.loc 1 2143 9 view .LVU1331
	movq	184(%rsp), %rax
	.loc 1 2145 9 view .LVU1332
	movq	$0, 64(%rsp)
	.loc 1 2143 9 view .LVU1333
	movq	%rax, 72(%rsp)
	leaq	272(%rsp), %rax
	movq	%rax, 136(%rsp)
	leaq	428(%rsp), %rax
	.loc 1 2144 10 view .LVU1334
	movq	$4000, 88(%rsp)
	movq	%rax, 128(%rsp)
	movq	%r15, 152(%rsp)
	movq	%rbp, 160(%rsp)
	movq	%rbx, 168(%rsp)
	movq	%r9, 176(%rsp)
.LVL463:
	.p2align 4,,10
	.p2align 3
.L327:
.LBB708:
	.loc 1 2155 7 is_stmt 1 view .LVU1335
.LBB701:
	.loc 1 2172 11 view .LVU1336
	.loc 1 2173 11 view .LVU1337
	.loc 1 2173 14 is_stmt 0 view .LVU1338
	movq	88(%rsp), %rcx
	cmpq	%rcx, 120(%rsp)
	ja	.L492
.LVL464:
.L328:
	.loc 1 2185 11 is_stmt 1 view .LVU1339
	.loc 1 2186 64 is_stmt 0 view .LVU1340
	cmpq	%r15, 96(%rsp)
	ja	.L493
.L329:
.LVL465:
	.loc 1 2187 11 is_stmt 1 view .LVU1341
	.loc 1 2188 11 view .LVU1342
	.loc 1 2193 14 is_stmt 0 view .LVU1343
	cmpq	%rbp, 104(%rsp)
	ja	.L409
	.loc 1 2193 14 view .LVU1344
	movq	72(%rsp), %rax
	.loc 1 2186 64 view .LVU1345
	xorl	%r13d, %r13d
	.loc 1 2193 14 view .LVU1346
	xorl	%ebx, %ebx
	movq	%rax, 112(%rsp)
.LVL466:
.L334:
	.loc 1 2214 11 is_stmt 1 view .LVU1347
	.loc 1 2214 14 is_stmt 0 view .LVU1348
	cmpq	%rbp, 104(%rsp)
	jbe	.L472
.L385:
	.loc 1 2215 13 is_stmt 1 view .LVU1349
	.loc 1 2215 22 is_stmt 0 view .LVU1350
	movq	%rbp, %rdi
	call	strlen@PLT
.LVL467:
	.loc 1 2215 19 view .LVU1351
	leaq	1(%rbp,%rax), %rbp
.LVL468:
.L341:
	.loc 1 2216 11 is_stmt 1 view .LVU1352
	.loc 1 2216 14 is_stmt 0 view .LVU1353
	cmpq	%r15, 96(%rsp)
	ja	.L342
	.loc 1 2216 14 view .LVU1354
	cmpq	%rbp, 104(%rsp)
	jbe	.L472
.L342:
	.loc 1 2225 11 is_stmt 1 view .LVU1355
	movq	136(%rsp), %rdx
	movq	72(%rsp), %rdi
	movq	%r13, %rsi
	call	md5_process_bytes@PLT
.LVL469:
	.loc 1 2226 11 view .LVU1356
	movq	112(%rsp), %r14
	movq	128(%rsp), %rdx
	movq	%rbx, %rsi
	movq	%r14, %rdi
	call	md5_process_bytes@PLT
.LVL470:
	.loc 1 2229 11 view .LVU1357
	.loc 1 2229 14 is_stmt 0 view .LVU1358
	movl	(%rsp), %ecx
	testl	%ecx, %ecx
	jne	.L327
	.loc 1 2231 15 is_stmt 1 view .LVU1359
	.loc 1 2231 27 is_stmt 0 view .LVU1360
	cmpq	%rbx, %r13
	movq	%rbx, %rdx
	movq	72(%rsp), %rdi
	movq	%r14, %rsi
	cmovbe	%r13, %rdx
	call	memcmp@PLT
.LVL471:
	movl	%eax, (%rsp)
.LVL472:
	.loc 1 2232 15 is_stmt 1 view .LVU1361
	.loc 1 2232 18 is_stmt 0 view .LVU1362
	testl	%eax, %eax
	jne	.L327
	.loc 1 2233 17 is_stmt 1 view .LVU1363
	.loc 1 2233 36 is_stmt 0 view .LVU1364
	xorl	%eax, %eax
.LVL473:
	.loc 1 2233 36 view .LVU1365
	cmpq	%rbx, %r13
	.loc 1 2173 14 view .LVU1366
	movq	88(%rsp), %rcx
	.loc 1 2233 36 view .LVU1367
	seta	%al
	.loc 1 2233 27 view .LVU1368
	sbbl	$0, %eax
	movl	%eax, (%rsp)
.LVL474:
	.loc 1 2233 27 view .LVU1369
.LBE701:
	.loc 1 2155 7 is_stmt 1 view .LVU1370
.LBB702:
	.loc 1 2172 11 view .LVU1371
	.loc 1 2173 11 view .LVU1372
	.loc 1 2173 14 is_stmt 0 view .LVU1373
	cmpq	%rcx, 120(%rsp)
	jbe	.L328
.LVL475:
.L492:
	.loc 1 2175 15 is_stmt 1 view .LVU1374
	.loc 1 2175 23 is_stmt 0 view .LVU1375
	movq	120(%rsp), %rax
	.loc 1 2175 25 view .LVU1376
	leaq	(%rcx,%rcx,2), %rbx
	.loc 1 2176 15 view .LVU1377
	movq	64(%rsp), %rdi
	.loc 1 2175 25 view .LVU1378
	shrq	%rbx
	.loc 1 2175 23 view .LVU1379
	cmpq	%rbx, %rax
	cmovnb	%rax, %rbx
	movq	%rbx, 88(%rsp)
.LVL476:
	.loc 1 2176 15 is_stmt 1 view .LVU1380
	call	free@PLT
.LVL477:
	.loc 1 2177 15 view .LVU1381
	.loc 1 2177 33 is_stmt 0 view .LVU1382
	movq	%rbx, %rdi
	call	malloc@PLT
.LVL478:
	movq	%rax, 64(%rsp)
.LVL479:
	.loc 1 2178 15 is_stmt 1 view .LVU1383
	.loc 1 2178 18 is_stmt 0 view .LVU1384
	testq	%rax, %rax
	je	.L494
	movq	64(%rsp), %rax
	.loc 1 2178 18 view .LVU1385
	movq	%rax, 72(%rsp)
.LVL480:
	.loc 1 2185 11 is_stmt 1 view .LVU1386
	.loc 1 2186 64 is_stmt 0 view .LVU1387
	cmpq	%r15, 96(%rsp)
	jbe	.L329
.LVL481:
.L493:
	.loc 1 2186 29 view .LVU1388
	movq	88(%rsp), %rbx
	movq	72(%rsp), %rdi
	movq	%r15, %rsi
	movq	%rbx, %rdx
	call	xstrxfrm
.LVL482:
	.loc 1 2186 64 view .LVU1389
	leaq	1(%rax), %r13
.LVL483:
	.loc 1 2187 11 is_stmt 1 view .LVU1390
	.loc 1 2188 11 view .LVU1391
	.loc 1 2193 14 is_stmt 0 view .LVU1392
	cmpq	%rbp, 104(%rsp)
	jbe	.L403
	.loc 1 2190 17 view .LVU1393
	cmpq	%r13, %rbx
	jnb	.L495
	xorl	%edx, %edx
	xorl	%edi, %edi
.LVL484:
.L331:
	.loc 1 2190 17 view .LVU1394
	movq	%rbp, %rsi
	call	xstrxfrm
.LVL485:
	.loc 1 2193 14 view .LVU1395
	leaq	1(%rax), %rbx
	leaq	(%rbx,%r13), %r14
.L330:
.LVL486:
	.loc 1 2195 11 is_stmt 1 view .LVU1396
	.loc 1 2195 14 is_stmt 0 view .LVU1397
	cmpq	%r13, 88(%rsp)
	jnb	.L496
.L332:
	.loc 1 2197 15 is_stmt 1 view .LVU1398
.LVL487:
	.loc 1 2198 15 view .LVU1399
	.loc 1 2198 18 is_stmt 0 view .LVU1400
	movabsq	$6148914691236517204, %rax
	cmpq	%rax, %r14
	ja	.L335
	.loc 1 2199 17 is_stmt 1 view .LVU1401
	.loc 1 2199 35 is_stmt 0 view .LVU1402
	leaq	(%r14,%r14,2), %r14
	.loc 1 2199 25 view .LVU1403
	shrq	%r14
.LVL488:
.L335:
	.loc 1 2200 15 is_stmt 1 view .LVU1404
	movq	64(%rsp), %rdi
	call	free@PLT
.LVL489:
	.loc 1 2201 15 view .LVU1405
	.loc 1 2201 33 is_stmt 0 view .LVU1406
	movq	%r14, %rdi
	call	xmalloc@PLT
.LVL490:
	movq	%rax, 64(%rsp)
.LVL491:
	.loc 1 2202 15 is_stmt 1 view .LVU1407
	.loc 1 2202 18 is_stmt 0 view .LVU1408
	cmpq	%r15, 96(%rsp)
	ja	.L497
	.loc 1 2204 15 is_stmt 1 view .LVU1409
	movq	64(%rsp), %rax
	.loc 1 2204 15 is_stmt 0 view .LVU1410
	addq	%r13, %rax
.LVL492:
	.loc 1 2204 15 view .LVU1411
	movq	%rax, 112(%rsp)
	.loc 1 2204 18 view .LVU1412
	cmpq	%rbp, 104(%rsp)
	ja	.L498
.L338:
	.loc 1 2212 11 is_stmt 1 view .LVU1413
	.loc 1 2212 14 is_stmt 0 view .LVU1414
	cmpq	%r15, 96(%rsp)
	ja	.L387
	.loc 1 2201 19 view .LVU1415
	movq	64(%rsp), %rax
	movq	%rbx, 88(%rsp)
	movq	144(%rsp), %r14
.LVL493:
	.loc 1 2201 19 view .LVU1416
	movq	152(%rsp), %r15
.LVL494:
	.loc 1 2201 19 view .LVU1417
	movq	%rax, 72(%rsp)
	movq	160(%rsp), %rbp
.LVL495:
	.loc 1 2201 19 view .LVU1418
	movq	176(%rsp), %r9
	movq	168(%rsp), %rbx
.LVL496:
.L386:
	.loc 1 2201 19 view .LVU1419
.LBE702:
.LBE708:
	.loc 1 2239 3 view .LVU1420
	movq	136(%rsp), %rdx
	movq	72(%rsp), %rdi
	movq	%r13, %rsi
	movq	%r9, 120(%rsp)
.LBB709:
.LBB703:
	.loc 1 2218 15 is_stmt 1 view .LVU1421
.LVL497:
	.loc 1 2218 29 view .LVU1422
	.loc 1 2219 15 view .LVU1423
	.loc 1 2219 29 view .LVU1424
	.loc 1 2220 15 view .LVU1425
	.loc 1 2220 15 is_stmt 0 view .LVU1426
.LBE703:
.LBE709:
	.loc 1 2239 3 is_stmt 1 view .LVU1427
	call	md5_process_bytes@PLT
.LVL498:
	.loc 1 2239 43 view .LVU1428
	leaq	240(%rsp), %r8
	movq	136(%rsp), %rdi
	movq	%r8, %rsi
	movq	%r8, 104(%rsp)
.LVL499:
	.loc 1 2239 43 is_stmt 0 view .LVU1429
	call	md5_finish_ctx@PLT
.LVL500:
	.loc 1 2240 3 is_stmt 1 view .LVU1430
	movq	88(%rsp), %rsi
	movq	112(%rsp), %rdi
	movq	128(%rsp), %rdx
	call	md5_process_bytes@PLT
.LVL501:
	.loc 1 2240 43 view .LVU1431
	movq	128(%rsp), %rdi
	leaq	256(%rsp), %rsi
	movq	%rsi, 96(%rsp)
.LVL502:
	.loc 1 2240 43 is_stmt 0 view .LVU1432
	call	md5_finish_ctx@PLT
.LVL503:
	.loc 1 2241 3 is_stmt 1 view .LVU1433
	.loc 1 2241 14 is_stmt 0 view .LVU1434
	movq	104(%rsp), %r8
	movq	96(%rsp), %rsi
	movl	$16, %edx
	movq	%r8, %rdi
	call	memcmp@PLT
.LVL504:
	.loc 1 2244 3 is_stmt 1 view .LVU1435
	.loc 1 2244 6 is_stmt 0 view .LVU1436
	movq	120(%rsp), %r9
	testl	%eax, %eax
	jne	.L473
	.loc 1 2246 7 is_stmt 1 view .LVU1437
	.loc 1 2246 10 is_stmt 0 view .LVU1438
	movl	(%rsp), %edx
	testl	%edx, %edx
	jne	.L344
	jmp	.L382
.LVL505:
	.p2align 4,,10
	.p2align 3
.L488:
	.loc 1 2246 10 view .LVU1439
.LBE714:
.LBE760:
.LBE799:
	movq	%r10, %rbp
.LVL506:
.L364:
	.loc 1 2668 13 is_stmt 1 discriminator 11 view .LVU1440
	cmpq	%r11, %r15
	jmp	.L474
.LVL507:
	.p2align 4,,10
	.p2align 3
.L486:
	.loc 1 2668 13 is_stmt 0 discriminator 11 view .LVU1441
	fstp	%st(0)
	fstp	%st(0)
.LBB800:
.LBB761:
.LBB752:
	.loc 1 2031 5 is_stmt 1 view .LVU1442
	.loc 1 2031 25 is_stmt 0 view .LVU1443
	xorl	%eax, %eax
	cmpq	%rbp, 200(%rsp)
	setne	%al
	negl	%eax
	movl	%eax, (%rsp)
.LVL508:
	.loc 1 2031 25 view .LVU1444
	jmp	.L312
	.p2align 4,,10
	.p2align 3
.L451:
	fstp	%st(0)
	fstp	%st(0)
	.loc 1 2041 11 view .LVU1445
	movl	$0, (%rsp)
	jmp	.L312
.LVL509:
	.p2align 4,,10
	.p2align 3
.L347:
	.loc 1 2041 11 view .LVU1446
.LBE752:
.LBE761:
	.loc 1 2626 20 is_stmt 1 view .LVU1447
	.loc 1 2627 22 is_stmt 0 view .LVU1448
	movl	$1, (%rsp)
	.loc 1 2626 23 view .LVU1449
	testq	%r9, %r9
	je	.L312
	.loc 1 2629 17 is_stmt 1 view .LVU1450
	.loc 1 2629 24 is_stmt 0 view .LVU1451
	leaq	1(%r9), %rcx
	leaq	1(%rbx), %rsi
	movq	%rbp, %rdx
	movq	%r15, %rdi
	movq	%r9, 64(%rsp)
	call	xmemcoll0@PLT
.LVL510:
	.loc 1 2629 24 view .LVU1452
	movq	64(%rsp), %r9
.LVL511:
	.loc 1 2629 24 view .LVU1453
	movl	%eax, (%rsp)
.LVL512:
	.loc 1 2629 24 view .LVU1454
	jmp	.L312
.LVL513:
	.p2align 4,,10
	.p2align 3
.L326:
.LBB762:
.LBB715:
	.loc 1 2239 3 view .LVU1455
	leaq	272(%rsp), %rax
	movq	%rbx, %rsi
	movq	%r15, %rdi
	movq	%r9, (%rsp)
.LVL514:
	.loc 1 2239 3 is_stmt 1 view .LVU1456
	movq	%rax, %rdx
	movq	%rax, 136(%rsp)
	.loc 1 2239 43 is_stmt 0 view .LVU1457
	leaq	240(%rsp), %r13
.LVL515:
	.loc 1 2239 3 view .LVU1458
	call	md5_process_bytes@PLT
.LVL516:
	.loc 1 2239 43 is_stmt 1 view .LVU1459
	movq	136(%rsp), %rdi
	movq	%r13, %rsi
	call	md5_finish_ctx@PLT
.LVL517:
	.loc 1 2240 3 view .LVU1460
	movq	(%rsp), %r9
	leaq	428(%rsp), %rax
	movq	%rbp, %rdi
	movq	%rax, %rdx
	movq	%rax, 128(%rsp)
	movq	%r9, %rsi
	movq	%r9, 64(%rsp)
	call	md5_process_bytes@PLT
.LVL518:
	.loc 1 2240 43 view .LVU1461
	movq	128(%rsp), %rdi
	leaq	256(%rsp), %rsi
	movq	%rsi, (%rsp)
.LVL519:
	.loc 1 2240 43 is_stmt 0 view .LVU1462
	call	md5_finish_ctx@PLT
.LVL520:
	.loc 1 2241 3 is_stmt 1 view .LVU1463
	.loc 1 2241 14 is_stmt 0 view .LVU1464
	movq	(%rsp), %rsi
	movl	$16, %edx
	movq	%r13, %rdi
	call	memcmp@PLT
.LVL521:
	.loc 1 2244 6 view .LVU1465
	movq	64(%rsp), %r9
	testl	%eax, %eax
	.loc 1 2241 14 view .LVU1466
	movl	%eax, (%rsp)
.LVL522:
	.loc 1 2244 3 is_stmt 1 view .LVU1467
	.loc 1 2244 6 is_stmt 0 view .LVU1468
	je	.L408
	.loc 1 2145 9 view .LVU1469
	movq	$0, 64(%rsp)
.LVL523:
.L344:
	.loc 1 2256 3 view .LVU1470
	movq	64(%rsp), %rdi
	movq	%r9, 72(%rsp)
.LVL524:
	.loc 1 2256 3 is_stmt 1 view .LVU1471
	call	free@PLT
.LVL525:
	.loc 1 2258 3 view .LVU1472
	.loc 1 2258 3 is_stmt 0 view .LVU1473
.LBE715:
.LBE762:
	movq	72(%rsp), %r9
	jmp	.L312
.LVL526:
	.p2align 4,,10
	.p2align 3
.L387:
.LBB763:
.LBB716:
.LBB710:
.LBB704:
	.loc 1 2213 13 is_stmt 1 view .LVU1474
	.loc 1 2213 22 is_stmt 0 view .LVU1475
	movq	%r15, %rdi
	call	strlen@PLT
.LVL527:
	.loc 1 2213 19 view .LVU1476
	movq	%r14, 88(%rsp)
	leaq	1(%r15,%rax), %r15
.LVL528:
	.loc 1 2214 11 is_stmt 1 view .LVU1477
	.loc 1 2201 19 is_stmt 0 view .LVU1478
	movq	64(%rsp), %rax
	movq	%rax, 72(%rsp)
	jmp	.L341
.LVL529:
	.p2align 4,,10
	.p2align 3
.L409:
	.loc 1 2193 14 view .LVU1479
	movq	72(%rsp), %rdi
	movq	88(%rsp), %rdx
	.loc 1 2186 64 view .LVU1480
	xorl	%r13d, %r13d
	jmp	.L331
.LVL530:
	.p2align 4,,10
	.p2align 3
.L497:
	.loc 1 2203 17 is_stmt 1 view .LVU1481
	movq	%r13, %rdx
	movq	%r15, %rsi
	movq	%rax, %rdi
	call	strxfrm@PLT
.LVL531:
	.loc 1 2204 15 view .LVU1482
	movq	64(%rsp), %rax
	addq	%r13, %rax
	movq	%rax, 112(%rsp)
	.loc 1 2204 18 is_stmt 0 view .LVU1483
	cmpq	%rbp, 104(%rsp)
	jbe	.L338
	.loc 1 2205 17 is_stmt 1 view .LVU1484
	movq	112(%rsp), %rdi
	movq	%rbx, %rdx
	movq	%rbp, %rsi
	call	strxfrm@PLT
.LVL532:
	.loc 1 2212 11 view .LVU1485
	.loc 1 2213 13 view .LVU1486
	.loc 1 2213 22 is_stmt 0 view .LVU1487
	movq	%r15, %rdi
	call	strlen@PLT
.LVL533:
	.loc 1 2213 19 view .LVU1488
	movq	%r14, 88(%rsp)
	leaq	1(%r15,%rax), %r15
.LVL534:
	.loc 1 2214 11 is_stmt 1 view .LVU1489
	.loc 1 2201 19 is_stmt 0 view .LVU1490
	movq	64(%rsp), %rax
	movq	%rax, 72(%rsp)
	jmp	.L385
	.p2align 4,,10
	.p2align 3
.L498:
	.loc 1 2205 17 is_stmt 1 view .LVU1491
	movq	%rbx, %rdx
	movq	%rbp, %rsi
	movq	%rax, %rdi
	call	strxfrm@PLT
.LVL535:
	.loc 1 2212 11 view .LVU1492
	.loc 1 2201 19 is_stmt 0 view .LVU1493
	movq	64(%rsp), %rax
	.loc 1 2212 14 view .LVU1494
	movq	%r14, 88(%rsp)
	.loc 1 2201 19 view .LVU1495
	movq	%rax, 72(%rsp)
	jmp	.L385
.LVL536:
.L408:
	.loc 1 2201 19 view .LVU1496
.LBE704:
.LBE710:
	.loc 1 2244 6 view .LVU1497
	movq	%r9, 88(%rsp)
	movq	%rbx, %r13
	movq	%rbp, 112(%rsp)
	movq	%r15, 72(%rsp)
	.loc 1 2145 9 view .LVU1498
	movq	$0, 64(%rsp)
.LVL537:
.L382:
	.loc 1 2248 23 view .LVU1499
	movq	88(%rsp), %rcx
	movq	112(%rsp), %rsi
	movq	%r9, 96(%rsp)
	.loc 1 2248 11 is_stmt 1 view .LVU1500
	.loc 1 2248 23 is_stmt 0 view .LVU1501
	movq	72(%rsp), %rdi
	cmpq	%rcx, %r13
	movq	%rcx, %rdx
	cmovbe	%r13, %rdx
	call	memcmp@PLT
.LVL538:
	.loc 1 2249 14 view .LVU1502
	movq	96(%rsp), %r9
	testl	%eax, %eax
	.loc 1 2248 23 view .LVU1503
	movl	%eax, (%rsp)
.LVL539:
	.loc 1 2249 11 is_stmt 1 view .LVU1504
	.loc 1 2249 14 is_stmt 0 view .LVU1505
	jne	.L344
	.loc 1 2250 13 is_stmt 1 view .LVU1506
	.loc 1 2250 31 is_stmt 0 view .LVU1507
	movq	88(%rsp), %rcx
	xorl	%eax, %eax
.LVL540:
	.loc 1 2250 31 view .LVU1508
	cmpq	%rcx, %r13
	seta	%al
	.loc 1 2250 23 view .LVU1509
	sbbl	$0, %eax
.LVL541:
.L473:
	.loc 1 2250 23 view .LVU1510
	movl	%eax, (%rsp)
.LVL542:
	.loc 1 2250 23 view .LVU1511
	jmp	.L344
.LVL543:
.L496:
.LBB711:
.LBB705:
	.loc 1 2195 15 view .LVU1512
	cmpq	%r14, 88(%rsp)
	jb	.L332
	movq	72(%rsp), %rax
	addq	%r13, %rax
	movq	%rax, 112(%rsp)
	.loc 1 2212 11 is_stmt 1 view .LVU1513
	.loc 1 2212 14 is_stmt 0 view .LVU1514
	cmpq	%r15, 96(%rsp)
	jbe	.L334
	.loc 1 2213 13 is_stmt 1 view .LVU1515
	.loc 1 2213 22 is_stmt 0 view .LVU1516
	movq	%r15, %rdi
	call	strlen@PLT
.LVL544:
	.loc 1 2213 19 view .LVU1517
	leaq	1(%r15,%rax), %r15
.LVL545:
	.loc 1 2214 11 is_stmt 1 view .LVU1518
	.loc 1 2214 14 is_stmt 0 view .LVU1519
	cmpq	%rbp, 104(%rsp)
	jbe	.L341
	.loc 1 2214 14 view .LVU1520
	jmp	.L385
.LVL546:
	.p2align 4,,10
	.p2align 3
.L403:
	.loc 1 2186 64 view .LVU1521
	movq	%r13, %r14
	.loc 1 2193 14 view .LVU1522
	xorl	%ebx, %ebx
.LVL547:
	.loc 1 2193 14 view .LVU1523
	jmp	.L330
.LVL548:
.L463:
	.loc 1 2193 14 view .LVU1524
	movl	%edx, %ebx
.LVL549:
.L360:
.LDL1:
	.loc 1 2193 14 view .LVU1525
.LBE705:
.LBE711:
.LBE716:
.LBE763:
.LBE800:
.LBE819:
	.loc 1 2728 3 is_stmt 1 view .LVU1526
	.loc 1 2728 31 is_stmt 0 view .LVU1527
	cmpb	$0, 55(%r14)
	je	.L290
	.loc 1 2728 31 discriminator 1 view .LVU1528
	negl	%ebx
.LVL550:
.L290:
	.loc 1 2729 1 view .LVU1529
	movq	8600(%rsp), %rax
	xorq	%fs:40, %rax
	jne	.L499
	addq	$8616, %rsp
	.cfi_remember_state
	.cfi_def_cfa_offset 56
	movl	%ebx, %eax
	popq	%rbx
	.cfi_def_cfa_offset 48
	popq	%rbp
	.cfi_def_cfa_offset 40
	popq	%r12
	.cfi_def_cfa_offset 32
	popq	%r13
	.cfi_def_cfa_offset 24
	popq	%r14
	.cfi_def_cfa_offset 16
	popq	%r15
	.cfi_def_cfa_offset 8
	ret
.LVL551:
.L468:
	.cfi_restore_state
	.loc 1 2729 1 view .LVU1530
	movl	(%rsp), %ebx
	jmp	.L290
.LVL552:
.L351:
.LBB820:
	.loc 1 2670 12 is_stmt 1 view .LVU1531
	.loc 1 2670 15 is_stmt 0 view .LVU1532
	testq	%rbx, %rbx
	je	.L500
	.loc 1 2672 12 is_stmt 1 view .LVU1533
	.loc 1 2672 15 is_stmt 0 view .LVU1534
	testq	%r9, %r9
	je	.L406
	.loc 1 2676 11 is_stmt 1 view .LVU1535
	.loc 1 2676 14 is_stmt 0 view .LVU1536
	testq	%rcx, %rcx
	jne	.L367
	.loc 1 2688 15 is_stmt 1 view .LVU1537
	.loc 1 2688 22 is_stmt 0 view .LVU1538
	cmpq	%r9, %rbx
	movq	%r9, %rdx
	movq	%rbp, %rsi
	movq	%r15, %rdi
	cmovbe	%rbx, %rdx
	movq	%r9, 32(%rsp)
	call	memcmp@PLT
.LVL553:
	.loc 1 2688 22 view .LVU1539
	movl	%eax, (%rsp)
.LVL554:
	.loc 1 2689 15 is_stmt 1 view .LVU1540
	.loc 1 2689 18 is_stmt 0 view .LVU1541
	testl	%eax, %eax
	jne	.L467
	.loc 1 2689 18 view .LVU1542
	movq	32(%rsp), %r9
.LVL555:
.L371:
	.loc 1 2692 11 is_stmt 1 view .LVU1543
	.loc 1 2692 35 is_stmt 0 view .LVU1544
	cmpq	%r9, %rbx
	jb	.L407
	.loc 1 2692 42 discriminator 1 view .LVU1545
	setne	%al
	movzbl	%al, %eax
	movl	%eax, (%rsp)
.LVL556:
	.loc 1 2692 42 discriminator 1 view .LVU1546
	jmp	.L350
.LVL557:
.L412:
.LBB801:
.LBB764:
.LBB753:
.LBB742:
.LBB743:
	.loc 1 2009 7 view .LVU1547
	xorl	%esi, %esi
	movq	%r15, %rdi
	movq	%r9, 64(%rsp)
.LVL558:
	.loc 1 2009 7 view .LVU1548
.LBE743:
.LBI742:
	.loc 1 2005 1 is_stmt 1 view .LVU1549
.LBB744:
	.loc 1 2007 3 view .LVU1550
	.loc 1 2008 3 view .LVU1551
	.loc 1 2008 3 is_stmt 0 view .LVU1552
.LBE744:
.LBE742:
.LBE753:
.LBE764:
.LBE801:
.LBE820:
	.file 5 "/usr/include/x86_64-linux-gnu/bits/string_fortified.h"
	.loc 5 71 3 is_stmt 1 view .LVU1553
.LBB821:
.LBB802:
.LBB765:
.LBB754:
.LBB748:
.LBB745:
	.loc 1 2009 3 view .LVU1554
	.loc 1 2009 7 is_stmt 0 view .LVU1555
	call	strtold@PLT
.LVL559:
	.loc 1 2013 7 view .LVU1556
	xorl	%esi, %esi
	movq	%rbp, %rdi
	.loc 1 2009 5 view .LVU1557
	fstpt	208(%rsp)
	.loc 1 2011 3 is_stmt 1 view .LVU1558
	.loc 1 2012 3 view .LVU1559
.LVL560:
	.loc 1 2012 3 is_stmt 0 view .LVU1560
.LBE745:
.LBE748:
.LBE754:
.LBE765:
.LBE802:
.LBE821:
	.loc 5 71 3 is_stmt 1 view .LVU1561
.LBB822:
.LBB803:
.LBB766:
.LBB755:
.LBB749:
.LBB746:
	.loc 1 2013 3 view .LVU1562
	.loc 1 2013 7 is_stmt 0 view .LVU1563
	call	strtold@PLT
.LVL561:
	.loc 1 2015 10 view .LVU1564
	leaq	224(%rsp), %rsi
	movl	$16, %edx
	leaq	208(%rsp), %rdi
	.loc 1 2013 5 view .LVU1565
	fstpt	224(%rsp)
	.loc 1 2015 3 is_stmt 1 view .LVU1566
	.loc 1 2015 10 is_stmt 0 view .LVU1567
	call	memcmp@PLT
.LVL562:
.LBE746:
.LBE749:
	movq	64(%rsp), %r9
.LBB750:
.LBB747:
	movl	%eax, (%rsp)
	.loc 1 2015 10 view .LVU1568
.LBE747:
.LBE750:
	jmp	.L312
.LVL563:
.L500:
	.loc 1 2015 10 view .LVU1569
.LBE755:
.LBE766:
.LBE803:
	.loc 1 2671 9 is_stmt 1 view .LVU1570
	.loc 1 2671 18 is_stmt 0 view .LVU1571
	xorl	%eax, %eax
	testq	%r9, %r9
	setne	%al
	.loc 1 2671 14 view .LVU1572
	negl	%eax
	movl	%eax, (%rsp)
.LVL564:
	.loc 1 2671 14 view .LVU1573
	jmp	.L350
.LVL565:
	.p2align 4,,10
	.p2align 3
.L367:
	.loc 1 2678 21 is_stmt 1 view .LVU1574
	cmpq	%r11, %r15
	jnb	.L371
	cmpq	%r10, %rbp
	jnb	.L371
	.loc 1 2680 19 view .LVU1575
.LVL566:
	.loc 1 2680 47 is_stmt 0 view .LVU1576
	movzbl	(%r15), %eax
	.loc 1 2681 49 view .LVU1577
	movzbl	0(%rbp), %edx
	.loc 1 2680 63 view .LVU1578
	addq	$1, %r15
.LVL567:
.LBB804:
.LBI804:
	.loc 2 156 29 is_stmt 1 view .LVU1579
.LBB805:
	.loc 2 156 50 view .LVU1580
	.loc 2 156 50 is_stmt 0 view .LVU1581
.LBE805:
.LBE804:
.LBB806:
.LBI806:
	.loc 2 156 29 is_stmt 1 view .LVU1582
.LBB807:
	.loc 2 156 50 view .LVU1583
	.loc 2 156 50 is_stmt 0 view .LVU1584
.LBE807:
.LBE806:
	.loc 1 2681 65 view .LVU1585
	addq	$1, %rbp
.LVL568:
.LBB808:
.LBI808:
	.loc 2 156 29 is_stmt 1 view .LVU1586
.LBB809:
	.loc 2 156 50 view .LVU1587
	.loc 2 156 50 is_stmt 0 view .LVU1588
.LBE809:
.LBE808:
.LBB810:
.LBI810:
	.loc 2 156 29 is_stmt 1 view .LVU1589
.LBB811:
	.loc 2 156 50 view .LVU1590
	.loc 2 156 50 is_stmt 0 view .LVU1591
.LBE811:
.LBE810:
	.loc 1 2680 27 view .LVU1592
	movzbl	(%rcx,%rax), %eax
	.loc 1 2681 29 view .LVU1593
	movzbl	(%rcx,%rdx), %edx
.LVL569:
	.loc 1 2682 19 is_stmt 1 view .LVU1594
	.loc 1 2682 22 is_stmt 0 view .LVU1595
	subl	%edx, %eax
.LVL570:
	.loc 1 2682 22 view .LVU1596
	je	.L367
	movl	%eax, %ebx
.LVL571:
	.loc 1 2682 22 view .LVU1597
	jmp	.L360
.LVL572:
.L502:
	.loc 1 2682 22 view .LVU1598
	fstp	%st(0)
	fstp	%st(0)
	jmp	.L452
.LVL573:
.L505:
	.loc 1 2682 22 view .LVU1599
	fstp	%st(0)
.L452:
.LBB812:
.LBB767:
.LBB756:
	.loc 1 2039 11 view .LVU1600
	movl	$-1, (%rsp)
	jmp	.L312
.LVL574:
.L407:
	.loc 1 2039 11 view .LVU1601
.LBE756:
.LBE767:
.LBE812:
	.loc 1 2692 35 view .LVU1602
	movl	$-1, %ebx
.LVL575:
	.loc 1 2692 35 view .LVU1603
	jmp	.L360
.LVL576:
.L406:
	.loc 1 2692 35 view .LVU1604
.LBE822:
	.loc 1 2726 8 view .LVU1605
	movl	$1, %ebx
.LVL577:
	.loc 1 2726 8 view .LVU1606
	jmp	.L360
.LVL578:
.L495:
	.loc 1 2726 8 view .LVU1607
	movq	88(%rsp), %rdx
	movq	72(%rsp), %rax
	subq	%r13, %rdx
	leaq	(%rax,%r13), %rdi
	jmp	.L331
.LVL579:
.L494:
.LBB823:
.LBB813:
.LBB768:
.LBB717:
.LBB712:
.LBB706:
	.loc 1 2180 23 view .LVU1608
	movq	184(%rsp), %rax
.LVL580:
	.loc 1 2181 27 view .LVU1609
	movq	$4000, 88(%rsp)
	.loc 1 2180 23 view .LVU1610
	movq	%rax, 72(%rsp)
	jmp	.L328
.LVL581:
.L472:
	.loc 1 2180 23 view .LVU1611
	movq	%rbx, 88(%rsp)
	movq	144(%rsp), %r14
	movq	152(%rsp), %r15
.LVL582:
	.loc 1 2180 23 view .LVU1612
	movq	160(%rsp), %rbp
.LVL583:
	.loc 1 2180 23 view .LVU1613
	movq	176(%rsp), %r9
	movq	168(%rsp), %rbx
	jmp	.L386
.LVL584:
.L499:
	.loc 1 2180 23 view .LVU1614
.LBE706:
.LBE712:
.LBE717:
.LBE768:
.LBE813:
.LBE823:
	.loc 1 2729 1 view .LVU1615
	call	__stack_chk_fail@PLT
.LVL585:
	.cfi_endproc
.LFE194:
	.size	keycompare, .-keycompare
	.p2align 4
	.type	compare_nodes, @function
compare_nodes:
.LVL586:
.LFB206:
	.loc 1 3342 1 is_stmt 1 view -0
	.cfi_startproc
	.loc 1 3342 1 is_stmt 0 view .LVU1617
	endbr64
	.loc 1 3343 3 is_stmt 1 view .LVU1618
.LVL587:
	.loc 1 3344 3 view .LVU1619
	.loc 1 3345 3 view .LVU1620
	.loc 1 3345 6 is_stmt 0 view .LVU1621
	movl	80(%rsi), %eax
	cmpl	%eax, 80(%rdi)
	je	.L509
	.loc 1 3347 3 is_stmt 1 view .LVU1622
	.loc 1 3347 23 is_stmt 0 view .LVU1623
	setb	%al
	movzbl	%al, %eax
	.loc 1 3348 1 view .LVU1624
	ret
	.p2align 4,,10
	.p2align 3
.L509:
.LVL588:
.LBB826:
.LBI826:
	.loc 1 3341 1 is_stmt 1 view .LVU1625
.LBB827:
	.loc 1 3346 7 view .LVU1626
	.loc 1 3346 26 is_stmt 0 view .LVU1627
	movq	48(%rdi), %rdx
	.loc 1 3346 54 view .LVU1628
	movq	48(%rsi), %rax
	.loc 1 3346 26 view .LVU1629
	addq	40(%rdi), %rdx
	.loc 1 3346 54 view .LVU1630
	addq	40(%rsi), %rax
	.loc 1 3346 40 view .LVU1631
	cmpq	%rax, %rdx
	setb	%al
	movzbl	%al, %eax
.LVL589:
	.loc 1 3346 40 view .LVU1632
	ret
.LBE827:
.LBE826:
	.cfi_endproc
.LFE206:
	.size	compare_nodes, .-compare_nodes
	.p2align 4
	.type	cs_leave.part.0, @function
cs_leave.part.0:
.LVL590:
.LFB238:
	.loc 1 642 1 is_stmt 1 view -0
	.cfi_startproc
	.loc 1 647 7 view .LVU1634
	.loc 1 647 37 is_stmt 0 view .LVU1635
	leaq	8(%rdi), %rsi
	.loc 1 647 7 view .LVU1636
	xorl	%edx, %edx
	movl	$2, %edi
.LVL591:
	.loc 1 647 7 view .LVU1637
	jmp	pthread_sigmask@PLT
.LVL592:
	.loc 1 647 7 view .LVU1638
	.cfi_endproc
.LFE238:
	.size	cs_leave.part.0, .-cs_leave.part.0
	.p2align 4
	.type	exit_cleanup, @function
exit_cleanup:
.LFB151:
	.loc 1 821 1 is_stmt 1 view -0
	.cfi_startproc
	endbr64
	pushq	%rbx
	.cfi_def_cfa_offset 16
	.cfi_offset 3, -16
	subq	$144, %rsp
	.cfi_def_cfa_offset 160
	.loc 1 821 1 is_stmt 0 view .LVU1640
	movq	%fs:40, %rax
	movq	%rax, 136(%rsp)
	xorl	%eax, %eax
	.loc 1 822 3 is_stmt 1 view .LVU1641
	.loc 1 822 7 is_stmt 0 view .LVU1642
	movq	temphead(%rip), %rax
	.loc 1 822 6 view .LVU1643
	testq	%rax, %rax
	je	.L512
.LBB828:
	.loc 1 826 7 is_stmt 1 view .LVU1644
	.loc 1 827 7 view .LVU1645
.LVL593:
.LBB829:
.LBI829:
	.loc 1 634 1 view .LVU1646
.LBB830:
	.loc 1 636 3 view .LVU1647
	.loc 1 636 13 is_stmt 0 view .LVU1648
	xorl	%edi, %edi
	leaq	8(%rsp), %rdx
	leaq	caught_signals(%rip), %rsi
	call	pthread_sigmask@PLT
.LVL594:
	.loc 1 637 3 is_stmt 1 view .LVU1649
.LBE830:
.LBE829:
.LBB832:
.LBB833:
	.loc 1 812 13 is_stmt 0 view .LVU1650
	movq	temphead(%rip), %rbx
.LBE833:
.LBE832:
.LBB835:
.LBB831:
	.loc 1 637 23 view .LVU1651
	testl	%eax, %eax
	sete	%al
.LVL595:
	.loc 1 637 17 view .LVU1652
	movb	%al, (%rsp)
.LVL596:
	.loc 1 637 17 view .LVU1653
.LBE831:
.LBE835:
	.loc 1 828 7 is_stmt 1 view .LVU1654
.LBB836:
.LBI832:
	.loc 1 808 1 view .LVU1655
.LBB834:
	.loc 1 810 3 view .LVU1656
	.loc 1 812 3 view .LVU1657
	.loc 1 812 25 view .LVU1658
	.loc 1 812 3 is_stmt 0 view .LVU1659
	testq	%rbx, %rbx
	je	.L513
	.p2align 4,,10
	.p2align 3
.L514:
	.loc 1 813 5 is_stmt 1 view .LVU1660
	.loc 1 813 17 is_stmt 0 view .LVU1661
	leaq	13(%rbx), %rdi
	.loc 1 813 5 view .LVU1662
	call	unlink@PLT
.LVL597:
	.loc 1 812 31 is_stmt 1 view .LVU1663
	.loc 1 812 36 is_stmt 0 view .LVU1664
	movq	(%rbx), %rbx
.LVL598:
	.loc 1 812 25 is_stmt 1 view .LVU1665
	.loc 1 812 3 is_stmt 0 view .LVU1666
	testq	%rbx, %rbx
	jne	.L514
	movzbl	(%rsp), %eax
.L513:
	.loc 1 814 3 is_stmt 1 view .LVU1667
	.loc 1 814 12 is_stmt 0 view .LVU1668
	movq	$0, temphead(%rip)
.LVL599:
	.loc 1 814 12 view .LVU1669
.LBE834:
.LBE836:
	.loc 1 829 7 is_stmt 1 view .LVU1670
.LBB837:
.LBI837:
	.loc 1 642 1 view .LVU1671
.LBB838:
	.loc 1 644 3 view .LVU1672
	.loc 1 644 6 is_stmt 0 view .LVU1673
	testb	%al, %al
	jne	.L528
.LVL600:
.L512:
	.loc 1 644 6 view .LVU1674
.LBE838:
.LBE837:
.LBE828:
	.loc 1 832 3 is_stmt 1 view .LVU1675
	call	close_stdout@PLT
.LVL601:
	.loc 1 833 1 is_stmt 0 view .LVU1676
	movq	136(%rsp), %rax
	xorq	%fs:40, %rax
	jne	.L529
	addq	$144, %rsp
	.cfi_remember_state
	.cfi_def_cfa_offset 16
	popq	%rbx
	.cfi_def_cfa_offset 8
	ret
.LVL602:
	.p2align 4,,10
	.p2align 3
.L528:
	.cfi_restore_state
.LBB841:
.LBB840:
.LBB839:
	.loc 1 833 1 view .LVU1677
	movq	%rsp, %rdi
	call	cs_leave.part.0
.LVL603:
	.loc 1 833 1 view .LVU1678
	jmp	.L512
.L529:
.LBE839:
.LBE840:
.LBE841:
	call	__stack_chk_fail@PLT
.LVL604:
	.cfi_endproc
.LFE151:
	.size	exit_cleanup, .-exit_cleanup
	.section	.rodata.str1.1
.LC12:
	.string	"warning: cannot remove: %s"
	.text
	.p2align 4
	.type	zaptemp, @function
zaptemp:
.LVL605:
.LFB163:
	.loc 1 1244 1 is_stmt 1 view -0
	.cfi_startproc
	.loc 1 1244 1 is_stmt 0 view .LVU1680
	pushq	%r15
	.cfi_def_cfa_offset 16
	.cfi_offset 15, -16
	pushq	%r14
	.cfi_def_cfa_offset 24
	.cfi_offset 14, -24
	pushq	%r13
	.cfi_def_cfa_offset 32
	.cfi_offset 13, -32
	pushq	%r12
	.cfi_def_cfa_offset 40
	.cfi_offset 12, -40
	movq	%rdi, %r12
	pushq	%rbp
	.cfi_def_cfa_offset 48
	.cfi_offset 6, -48
	pushq	%rbx
	.cfi_def_cfa_offset 56
	.cfi_offset 3, -56
	leaq	temphead(%rip), %rbx
	subq	$168, %rsp
	.cfi_def_cfa_offset 224
	.loc 1 1244 1 view .LVU1681
	movq	%fs:40, %rax
	movq	%rax, 152(%rsp)
	xorl	%eax, %eax
	.loc 1 1245 3 is_stmt 1 view .LVU1682
	.loc 1 1246 3 view .LVU1683
	.loc 1 1247 3 view .LVU1684
	.loc 1 1248 3 view .LVU1685
	.loc 1 1249 3 view .LVU1686
.LVL606:
	.loc 1 1250 3 view .LVU1687
	.loc 1 1252 3 view .LVU1688
	.loc 1 1252 27 view .LVU1689
	.loc 1 1252 33 is_stmt 0 view .LVU1690
	movq	temphead(%rip), %rbp
.LVL607:
	.loc 1 1252 27 view .LVU1691
	leaq	13(%rbp), %rax
	.loc 1 1252 3 view .LVU1692
	cmpq	%rax, %rdi
	je	.L531
.LVL608:
.L532:
	.loc 1 1253 5 is_stmt 1 view .LVU1693
	.loc 1 1252 58 view .LVU1694
	.loc 1 1252 27 view .LVU1695
	movq	%rbp, %rbx
	.loc 1 1252 33 is_stmt 0 view .LVU1696
	movq	0(%rbp), %rbp
.LVL609:
	.loc 1 1252 27 view .LVU1697
	leaq	13(%rbp), %rax
	.loc 1 1252 3 view .LVU1698
	cmpq	%rax, %r12
	jne	.L532
.LVL610:
.L531:
	.loc 1 1255 3 is_stmt 1 view .LVU1699
	.loc 1 1255 6 is_stmt 0 view .LVU1700
	cmpb	$1, 12(%rbp)
	je	.L545
.LVL611:
.L533:
	.loc 1 1259 3 is_stmt 1 view .LVU1701
.LBB842:
.LBB843:
	.loc 1 636 13 is_stmt 0 view .LVU1702
	leaq	24(%rsp), %rdx
	xorl	%edi, %edi
.LBE843:
.LBE842:
	.loc 1 1259 8 view .LVU1703
	movq	0(%rbp), %r14
.LVL612:
	.loc 1 1260 3 is_stmt 1 view .LVU1704
.LBB846:
.LBI842:
	.loc 1 634 1 view .LVU1705
.LBB844:
	.loc 1 636 3 view .LVU1706
	.loc 1 636 13 is_stmt 0 view .LVU1707
	leaq	16(%rsp), %r15
.LVL613:
	.loc 1 636 13 view .LVU1708
	leaq	caught_signals(%rip), %rsi
	call	pthread_sigmask@PLT
.LVL614:
	.loc 1 637 3 is_stmt 1 view .LVU1709
.LBE844:
.LBE846:
	.loc 1 1261 19 is_stmt 0 view .LVU1710
	movq	%r12, %rdi
.LBB847:
.LBB845:
	.loc 1 637 23 view .LVU1711
	testl	%eax, %eax
	.loc 1 637 17 view .LVU1712
	sete	16(%rsp)
.LVL615:
	.loc 1 637 17 view .LVU1713
.LBE845:
.LBE847:
	.loc 1 1261 3 is_stmt 1 view .LVU1714
	.loc 1 1261 19 is_stmt 0 view .LVU1715
	call	unlink@PLT
.LVL616:
	movl	%eax, %r13d
.LVL617:
	.loc 1 1262 3 is_stmt 1 view .LVU1716
	.loc 1 1262 18 is_stmt 0 view .LVU1717
	call	__errno_location@PLT
.LVL618:
.LBB848:
.LBB849:
	.loc 1 644 6 view .LVU1718
	cmpb	$0, 16(%rsp)
.LBE849:
.LBE848:
	.loc 1 1262 16 view .LVU1719
	movl	(%rax), %r8d
.LVL619:
	.loc 1 1263 3 is_stmt 1 view .LVU1720
	.loc 1 1263 10 is_stmt 0 view .LVU1721
	movq	%r14, (%rbx)
	.loc 1 1264 3 is_stmt 1 view .LVU1722
.LVL620:
.LBB852:
.LBI848:
	.loc 1 642 1 view .LVU1723
.LBB850:
	.loc 1 644 3 view .LVU1724
	.loc 1 644 6 is_stmt 0 view .LVU1725
	jne	.L546
.LVL621:
	.loc 1 644 6 view .LVU1726
.LBE850:
.LBE852:
	.loc 1 1266 3 is_stmt 1 view .LVU1727
	.loc 1 1266 6 is_stmt 0 view .LVU1728
	testl	%r13d, %r13d
	jne	.L547
.LVL622:
.L535:
	.loc 1 1268 3 is_stmt 1 view .LVU1729
	.loc 1 1268 6 is_stmt 0 view .LVU1730
	testq	%r14, %r14
	je	.L548
.LVL623:
.L536:
	.loc 1 1270 3 is_stmt 1 view .LVU1731
	movq	%rbp, %rdi
	call	free@PLT
.LVL624:
	.loc 1 1271 1 is_stmt 0 view .LVU1732
	movq	152(%rsp), %rax
	xorq	%fs:40, %rax
	jne	.L549
	addq	$168, %rsp
	.cfi_remember_state
	.cfi_def_cfa_offset 56
	popq	%rbx
	.cfi_def_cfa_offset 48
	popq	%rbp
	.cfi_def_cfa_offset 40
.LVL625:
	.loc 1 1271 1 view .LVU1733
	popq	%r12
	.cfi_def_cfa_offset 32
	popq	%r13
	.cfi_def_cfa_offset 24
.LVL626:
	.loc 1 1271 1 view .LVU1734
	popq	%r14
	.cfi_def_cfa_offset 16
.LVL627:
	.loc 1 1271 1 view .LVU1735
	popq	%r15
	.cfi_def_cfa_offset 8
	ret
.LVL628:
	.p2align 4,,10
	.p2align 3
.L546:
	.cfi_restore_state
.LBB853:
.LBB851:
	.loc 1 1271 1 view .LVU1736
	movq	%r15, %rdi
	movl	%r8d, 12(%rsp)
	call	cs_leave.part.0
.LVL629:
	.loc 1 1271 1 view .LVU1737
	movl	12(%rsp), %r8d
.LVL630:
	.loc 1 1271 1 view .LVU1738
.LBE851:
.LBE853:
	.loc 1 1266 3 is_stmt 1 view .LVU1739
	.loc 1 1266 6 is_stmt 0 view .LVU1740
	testl	%r13d, %r13d
	je	.L535
.LVL631:
.L547:
	.loc 1 1267 5 view .LVU1741
	movq	%r12, %rdx
	xorl	%edi, %edi
	movl	$3, %esi
	movl	%r8d, 12(%rsp)
	.loc 1 1267 5 is_stmt 1 view .LVU1742
	call	quotearg_n_style_colon@PLT
.LVL632:
	.loc 1 1267 29 is_stmt 0 view .LVU1743
	xorl	%edi, %edi
	movl	$5, %edx
	leaq	.LC12(%rip), %rsi
	.loc 1 1267 5 view .LVU1744
	movq	%rax, %r12
.LVL633:
	.loc 1 1267 29 view .LVU1745
	call	dcgettext@PLT
.LVL634:
	.loc 1 1267 5 view .LVU1746
	movl	12(%rsp), %r8d
	xorl	%edi, %edi
	movq	%r12, %rcx
	.loc 1 1267 29 view .LVU1747
	movq	%rax, %rdx
	.loc 1 1267 5 view .LVU1748
	xorl	%eax, %eax
	movl	%r8d, %esi
	call	error@PLT
.LVL635:
	.loc 1 1268 3 is_stmt 1 view .LVU1749
	.loc 1 1268 6 is_stmt 0 view .LVU1750
	testq	%r14, %r14
	jne	.L536
.L548:
	.loc 1 1269 5 is_stmt 1 view .LVU1751
	.loc 1 1269 14 is_stmt 0 view .LVU1752
	movq	%rbx, temptail(%rip)
	jmp	.L536
.LVL636:
	.p2align 4,,10
	.p2align 3
.L545:
	.loc 1 1256 5 is_stmt 1 view .LVU1753
	movl	8(%rbp), %edi
.LVL637:
	.loc 1 1256 5 is_stmt 0 view .LVU1754
	call	wait_proc
.LVL638:
	jmp	.L533
.LVL639:
.L549:
	.loc 1 1271 1 view .LVU1755
	call	__stack_chk_fail@PLT
.LVL640:
	.cfi_endproc
.LFE163:
	.size	zaptemp, .-zaptemp
	.p2align 4
	.type	pipe_fork, @function
pipe_fork:
.LVL641:
.LFB158:
	.loc 1 1041 1 is_stmt 1 view -0
	.cfi_startproc
	.loc 1 1041 1 is_stmt 0 view .LVU1757
	pushq	%r15
	.cfi_def_cfa_offset 16
	.cfi_offset 15, -16
	pushq	%r14
	.cfi_def_cfa_offset 24
	.cfi_offset 14, -24
	pushq	%r13
	.cfi_def_cfa_offset 32
	.cfi_offset 13, -32
	pushq	%r12
	.cfi_def_cfa_offset 40
	.cfi_offset 12, -40
	pushq	%rbp
	.cfi_def_cfa_offset 48
	.cfi_offset 6, -48
	pushq	%rbx
	.cfi_def_cfa_offset 56
	.cfi_offset 3, -56
	movq	%rsi, %rbx
	.loc 1 1049 7 view .LVU1758
	movl	$524288, %esi
.LVL642:
	.loc 1 1041 1 view .LVU1759
	subq	$184, %rsp
	.cfi_def_cfa_offset 240
	.loc 1 1041 1 view .LVU1760
	movq	%rdi, 24(%rsp)
	movq	%fs:40, %rax
	movq	%rax, 168(%rsp)
	xorl	%eax, %eax
	.loc 1 1043 3 is_stmt 1 view .LVU1761
	.loc 1 1044 3 view .LVU1762
	.loc 1 1045 3 view .LVU1763
.LVL643:
	.loc 1 1046 3 view .LVU1764
	.loc 1 1047 3 view .LVU1765
	.loc 1 1049 3 view .LVU1766
	.loc 1 1049 7 is_stmt 0 view .LVU1767
	call	rpl_pipe2@PLT
.LVL644:
	.loc 1 1049 6 view .LVU1768
	testl	%eax, %eax
	js	.L568
	.loc 1 1059 3 is_stmt 1 view .LVU1769
	.loc 1 1059 14 is_stmt 0 view .LVU1770
	movl	nmerge(%rip), %eax
	addl	$1, %eax
	.loc 1 1059 6 view .LVU1771
	cmpl	nprocs(%rip), %eax
	jb	.L552
.L554:
	.loc 1 1062 9 is_stmt 1 view .LVU1772
	call	__errno_location@PLT
.LVL645:
	.loc 1 1062 15 is_stmt 0 view .LVU1773
	subq	$1, %rbx
.LVL646:
	.loc 1 1062 15 view .LVU1774
	leaq	40(%rsp), %r14
	movsd	.LC13(%rip), %xmm3
	movq	%rax, %rbp
.LBB864:
.LBB865:
	leaq	32(%rsp), %rax
	movq	%rax, 16(%rsp)
.LBE865:
.LBE864:
	movsd	%xmm3, (%rsp)
	jmp	.L553
.LVL647:
	.p2align 4,,10
	.p2align 3
.L580:
	.loc 1 1073 9 is_stmt 1 view .LVU1775
.LBB869:
.LBB866:
	.loc 1 644 6 is_stmt 0 view .LVU1776
	cmpb	$0, 32(%rsp)
.LBE866:
.LBE869:
	.loc 1 1073 18 view .LVU1777
	movq	%r12, temphead(%rip)
	.loc 1 1075 7 is_stmt 1 view .LVU1778
.LVL648:
.LBB870:
.LBI864:
	.loc 1 642 1 view .LVU1779
.LBB867:
	.loc 1 644 3 view .LVU1780
	.loc 1 644 6 is_stmt 0 view .LVU1781
	jne	.L566
.LVL649:
.L557:
	.loc 1 644 6 view .LVU1782
.LBE867:
.LBE870:
	.loc 1 1076 7 is_stmt 1 view .LVU1783
	.loc 1 1076 13 is_stmt 0 view .LVU1784
	movl	%r15d, 0(%rbp)
	.loc 1 1078 7 is_stmt 1 view .LVU1785
	.loc 1 1078 10 is_stmt 0 view .LVU1786
	testl	%eax, %eax
	jns	.L578
	.loc 1 1078 20 discriminator 1 view .LVU1787
	cmpl	$11, %r15d
	jne	.L561
	.loc 1 1082 11 is_stmt 1 view .LVU1788
	movsd	(%rsp), %xmm0
	call	xnanosleep@PLT
.LVL650:
	.loc 1 1083 11 view .LVU1789
	.loc 1 1083 22 is_stmt 0 view .LVU1790
	movsd	(%rsp), %xmm2
	movapd	%xmm2, %xmm1
	addsd	%xmm2, %xmm1
	movsd	%xmm1, (%rsp)
.LVL651:
	.loc 1 1084 11 is_stmt 1 view .LVU1791
.LBB871:
.LBI871:
	.loc 1 781 1 view .LVU1792
.LBB872:
	.loc 1 783 3 view .LVU1793
.L564:
	.loc 1 783 9 view .LVU1794
	movl	nprocs(%rip), %eax
	testl	%eax, %eax
	jle	.L565
	.loc 1 783 24 is_stmt 0 view .LVU1795
	xorl	%edi, %edi
	call	reap
.LVL652:
	.loc 1 783 21 view .LVU1796
	testl	%eax, %eax
	jne	.L564
.L565:
	.loc 1 783 21 view .LVU1797
.LBE872:
.LBE871:
	.loc 1 1062 9 is_stmt 1 view .LVU1798
	.loc 1 1062 15 is_stmt 0 view .LVU1799
	subq	$1, %rbx
.LVL653:
	.loc 1 1062 9 view .LVU1800
	cmpq	$-1, %rbx
	je	.L579
.LVL654:
.L553:
	.loc 1 1066 7 is_stmt 1 view .LVU1801
.LBB873:
.LBI873:
	.loc 1 634 1 view .LVU1802
.LBB874:
	.loc 1 636 3 view .LVU1803
	.loc 1 636 13 is_stmt 0 view .LVU1804
	xorl	%edi, %edi
	movq	%r14, %rdx
	leaq	caught_signals(%rip), %rsi
	call	pthread_sigmask@PLT
.LVL655:
	.loc 1 637 3 is_stmt 1 view .LVU1805
.LBE874:
.LBE873:
	.loc 1 1067 22 is_stmt 0 view .LVU1806
	movq	temphead(%rip), %r12
	.loc 1 1068 16 view .LVU1807
	movq	$0, temphead(%rip)
.LBB876:
.LBB875:
	.loc 1 637 23 view .LVU1808
	testl	%eax, %eax
	.loc 1 637 17 view .LVU1809
	sete	32(%rsp)
.LVL656:
	.loc 1 637 17 view .LVU1810
.LBE875:
.LBE876:
	.loc 1 1067 7 is_stmt 1 view .LVU1811
	.loc 1 1068 7 view .LVU1812
	.loc 1 1070 7 view .LVU1813
	.loc 1 1070 13 is_stmt 0 view .LVU1814
	call	fork@PLT
.LVL657:
	.loc 1 1071 19 view .LVU1815
	movl	0(%rbp), %r15d
	.loc 1 1070 13 view .LVU1816
	movl	%eax, %r13d
.LVL658:
	.loc 1 1071 7 is_stmt 1 view .LVU1817
	.loc 1 1072 7 view .LVU1818
	.loc 1 1072 10 is_stmt 0 view .LVU1819
	testl	%eax, %eax
	jne	.L580
	.loc 1 1075 7 is_stmt 1 view .LVU1820
.LVL659:
.LBB877:
	.loc 1 642 1 view .LVU1821
.LBB868:
	.loc 1 644 3 view .LVU1822
	.loc 1 644 6 is_stmt 0 view .LVU1823
	cmpb	$0, 32(%rsp)
	je	.L559
.L566:
	movq	16(%rsp), %rdi
	movl	%eax, 12(%rsp)
	call	cs_leave.part.0
.LVL660:
	.loc 1 644 6 view .LVU1824
	movl	12(%rsp), %eax
	jmp	.L557
.LVL661:
.L578:
	.loc 1 644 6 view .LVU1825
.LBE868:
.LBE877:
	.loc 1 1088 3 is_stmt 1 view .LVU1826
	.loc 1 1095 8 view .LVU1827
	.loc 1 1095 11 is_stmt 0 view .LVU1828
	je	.L559
	.loc 1 1101 5 is_stmt 1 view .LVU1829
	addl	$1, nprocs(%rip)
.LVL662:
.L550:
	.loc 1 1108 1 is_stmt 0 view .LVU1830
	movq	168(%rsp), %rax
	xorq	%fs:40, %rax
	jne	.L581
	addq	$184, %rsp
	.cfi_remember_state
	.cfi_def_cfa_offset 56
	movl	%r13d, %eax
	popq	%rbx
	.cfi_def_cfa_offset 48
	popq	%rbp
	.cfi_def_cfa_offset 40
	popq	%r12
	.cfi_def_cfa_offset 32
	popq	%r13
	.cfi_def_cfa_offset 24
	popq	%r14
	.cfi_def_cfa_offset 16
	popq	%r15
	.cfi_def_cfa_offset 8
	ret
.LVL663:
	.p2align 4,,10
	.p2align 3
.L559:
	.cfi_restore_state
	.loc 1 1097 7 is_stmt 1 view .LVU1831
	xorl	%edi, %edi
	xorl	%r13d, %r13d
	call	close@PLT
.LVL664:
	.loc 1 1098 7 view .LVU1832
	movl	$1, %edi
	call	close@PLT
.LVL665:
	jmp	.L550
.LVL666:
	.p2align 4,,10
	.p2align 3
.L552:
	.loc 1 1060 5 view .LVU1833
.LBB878:
.LBI878:
	.loc 1 790 1 view .LVU1834
.LBB879:
	.loc 1 792 3 view .LVU1835
	movl	$-1, %edi
	call	reap
.LVL667:
	.loc 1 793 3 view .LVU1836
.LBB880:
.LBI880:
	.loc 1 781 1 view .LVU1837
.LBB881:
	.loc 1 783 3 view .LVU1838
.L555:
	.loc 1 783 9 view .LVU1839
	movl	nprocs(%rip), %edx
	testl	%edx, %edx
	jle	.L554
	.loc 1 783 24 is_stmt 0 view .LVU1840
	xorl	%edi, %edi
	call	reap
.LVL668:
	.loc 1 783 21 view .LVU1841
	testl	%eax, %eax
	je	.L554
	jmp	.L555
.LVL669:
	.p2align 4,,10
	.p2align 3
.L579:
	.loc 1 783 21 view .LVU1842
	movl	0(%rbp), %r15d
.LVL670:
.L561:
	.loc 1 783 21 view .LVU1843
.LBE881:
.LBE880:
.LBE879:
.LBE878:
	.loc 1 1088 3 is_stmt 1 view .LVU1844
	.loc 1 1090 7 view .LVU1845
	.loc 1 1091 7 view .LVU1846
	movq	24(%rsp), %rbx
.LVL671:
	.loc 1 1091 7 is_stmt 0 view .LVU1847
	movl	(%rbx), %edi
	call	close@PLT
.LVL672:
	.loc 1 1092 7 is_stmt 1 view .LVU1848
	movl	4(%rbx), %edi
	call	close@PLT
.LVL673:
	.loc 1 1093 7 view .LVU1849
	.loc 1 1093 13 is_stmt 0 view .LVU1850
	movl	%r15d, 0(%rbp)
	jmp	.L550
.LVL674:
.L568:
	.loc 1 1050 12 view .LVU1851
	movl	$-1, %r13d
	jmp	.L550
.LVL675:
.L581:
	.loc 1 1108 1 view .LVU1852
	call	__stack_chk_fail@PLT
.LVL676:
	.cfi_endproc
.LFE158:
	.size	pipe_fork, .-pipe_fork
	.section	.rodata.str1.1
.LC14:
	.string	""
	.section	.rodata.str1.8
	.align 8
.LC15:
	.string	"%s: invalid count at start of %s"
	.text
	.p2align 4
	.type	parse_field_count, @function
parse_field_count:
.LVL677:
.LFB229:
	.loc 1 4084 1 is_stmt 1 view -0
	.cfi_startproc
	.loc 1 4084 1 is_stmt 0 view .LVU1854
	pushq	%r12
	.cfi_def_cfa_offset 16
	.cfi_offset 12, -16
	.loc 1 4088 11 view .LVU1855
	leaq	.LC14(%rip), %r8
	.loc 1 4084 1 view .LVU1856
	movq	%rdx, %r12
	.loc 1 4088 11 view .LVU1857
	movl	$10, %edx
.LVL678:
	.loc 1 4084 1 view .LVU1858
	pushq	%rbp
	.cfi_def_cfa_offset 24
	.cfi_offset 6, -24
	movq	%rdi, %rbp
	pushq	%rbx
	.cfi_def_cfa_offset 32
	.cfi_offset 3, -32
	movq	%rsi, %rbx
	subq	$32, %rsp
	.cfi_def_cfa_offset 64
	.loc 1 4084 1 view .LVU1859
	movq	%fs:40, %rax
	movq	%rax, 24(%rsp)
	xorl	%eax, %eax
	.loc 1 4085 3 is_stmt 1 view .LVU1860
	.loc 1 4086 3 view .LVU1861
	.loc 1 4088 3 view .LVU1862
	.loc 1 4088 11 is_stmt 0 view .LVU1863
	leaq	16(%rsp), %rcx
	leaq	8(%rsp), %rsi
.LVL679:
	.loc 1 4088 11 view .LVU1864
	call	xstrtoumax@PLT
.LVL680:
	.loc 1 4088 11 view .LVU1865
	cmpl	$4, %eax
	ja	.L583
	leaq	.L585(%rip), %rdx
	movl	%eax, %eax
	movslq	(%rdx,%rax,4), %rax
	addq	%rdx, %rax
	notrack jmp	*%rax
	.section	.rodata
	.align 4
	.align 4
.L585:
	.long	.L587-.L585
	.long	.L586-.L585
	.long	.L587-.L585
	.long	.L586-.L585
	.long	.L584-.L585
	.text
	.p2align 4,,10
	.p2align 3
.L587:
	.loc 1 4092 7 is_stmt 1 view .LVU1866
	.loc 1 4092 12 is_stmt 0 view .LVU1867
	movq	16(%rsp), %rax
	movq	%rax, (%rbx)
	.loc 1 4093 7 is_stmt 1 view .LVU1868
.L583:
	.loc 1 4108 3 view .LVU1869
	.loc 1 4108 10 is_stmt 0 view .LVU1870
	movq	8(%rsp), %rax
.L582:
	.loc 1 4109 1 view .LVU1871
	movq	24(%rsp), %rbx
	xorq	%fs:40, %rbx
.LVL681:
	.loc 1 4109 1 view .LVU1872
	jne	.L592
	addq	$32, %rsp
	.cfi_remember_state
	.cfi_def_cfa_offset 32
	popq	%rbx
	.cfi_def_cfa_offset 24
	popq	%rbp
	.cfi_def_cfa_offset 16
.LVL682:
	.loc 1 4109 1 view .LVU1873
	popq	%r12
	.cfi_def_cfa_offset 8
.LVL683:
	.loc 1 4109 1 view .LVU1874
	ret
.LVL684:
	.p2align 4,,10
	.p2align 3
.L586:
	.cfi_restore_state
	.loc 1 4095 7 is_stmt 1 view .LVU1875
	.loc 1 4098 7 view .LVU1876
	.loc 1 4098 12 is_stmt 0 view .LVU1877
	movq	$-1, (%rbx)
	.loc 1 4099 7 is_stmt 1 view .LVU1878
	jmp	.L583
	.p2align 4,,10
	.p2align 3
.L584:
	.loc 1 4102 7 view .LVU1879
	.loc 1 4102 10 is_stmt 0 view .LVU1880
	testq	%r12, %r12
	jne	.L593
	.loc 1 4105 14 view .LVU1881
	xorl	%eax, %eax
	jmp	.L582
.LVL685:
.L592:
	.loc 1 4109 1 view .LVU1882
	call	__stack_chk_fail@PLT
.LVL686:
.L593:
.LBB886:
.LBI886:
	.loc 1 4083 1 is_stmt 1 view .LVU1883
.LBB887:
.LBB888:
	.loc 1 4103 9 view .LVU1884
	movq	%rbp, %rdi
	call	quote@PLT
.LVL687:
	movq	%r12, %rsi
	movl	$5, %edx
	xorl	%edi, %edi
	movq	%rax, %rbx
.LVL688:
	.loc 1 4103 9 is_stmt 0 view .LVU1885
	call	dcgettext@PLT
.LVL689:
	movl	$5, %edx
	leaq	.LC15(%rip), %rsi
	xorl	%edi, %edi
	movq	%rax, %r12
.LVL690:
	.loc 1 4103 9 view .LVU1886
	call	dcgettext@PLT
.LVL691:
	movq	%rbx, %r8
	movq	%r12, %rcx
	xorl	%esi, %esi
	movq	%rax, %rdx
	movl	$2, %edi
	xorl	%eax, %eax
	call	error@PLT
.LVL692:
.LBE888:
.LBE887:
.LBE886:
	.cfi_endproc
.LFE229:
	.size	parse_field_count, .-parse_field_count
	.section	.rodata.str1.1
.LC16:
	.string	"%s: error truncating"
.LC17:
	.string	"src/sort.c"
	.section	.rodata.str1.8
	.align 8
.LC18:
	.string	"!\"unexpected mode passed to stream_open\""
	.text
	.p2align 4
	.type	stream_open, @function
stream_open:
.LVL693:
.LFB154:
	.loc 1 948 1 is_stmt 1 view -0
	.cfi_startproc
	.loc 1 948 1 is_stmt 0 view .LVU1888
	pushq	%r13
	.cfi_def_cfa_offset 16
	.cfi_offset 13, -16
	pushq	%r12
	.cfi_def_cfa_offset 24
	.cfi_offset 12, -24
	pushq	%rbp
	.cfi_def_cfa_offset 32
	.cfi_offset 6, -32
	.loc 1 951 7 view .LVU1889
	movzbl	(%rsi), %eax
	.loc 1 948 1 view .LVU1890
	movq	%rdi, %rbp
	.loc 1 949 3 is_stmt 1 view .LVU1891
	.loc 1 951 3 view .LVU1892
	.loc 1 951 6 is_stmt 0 view .LVU1893
	cmpb	$114, %al
	je	.L614
	.loc 1 965 8 is_stmt 1 view .LVU1894
	.loc 1 965 11 is_stmt 0 view .LVU1895
	cmpb	$119, %al
	jne	.L600
.LVL694:
.LBB901:
.LBI901:
	.loc 1 947 1 is_stmt 1 view .LVU1896
.LBB902:
	.loc 1 967 7 view .LVU1897
	.loc 1 967 10 is_stmt 0 view .LVU1898
	testq	%rdi, %rdi
	je	.L601
	.loc 1 967 19 view .LVU1899
	xorl	%esi, %esi
.LVL695:
	.loc 1 967 19 view .LVU1900
	movl	$1, %edi
.LVL696:
	.loc 1 967 19 view .LVU1901
	call	ftruncate@PLT
.LVL697:
	.loc 1 967 16 view .LVU1902
	testl	%eax, %eax
	jne	.L615
.L601:
	.loc 1 975 7 is_stmt 1 view .LVU1903
	.loc 1 975 10 is_stmt 0 view .LVU1904
	movq	stdout(%rip), %r13
.LVL698:
	.loc 1 980 3 is_stmt 1 view .LVU1905
	.loc 1 980 3 is_stmt 0 view .LVU1906
.LBE902:
.LBE901:
	.loc 1 981 1 view .LVU1907
	popq	%rbp
	.cfi_remember_state
	.cfi_def_cfa_offset 24
.LVL699:
	.loc 1 981 1 view .LVU1908
	popq	%r12
	.cfi_def_cfa_offset 16
	movq	%r13, %rax
	popq	%r13
	.cfi_def_cfa_offset 8
	ret
.LVL700:
	.p2align 4,,10
	.p2align 3
.L614:
	.cfi_restore_state
	.loc 1 953 11 view .LVU1909
	cmpb	$45, (%rdi)
	movq	%rsi, %r12
	.loc 1 953 7 is_stmt 1 view .LVU1910
	.loc 1 953 11 is_stmt 0 view .LVU1911
	jne	.L597
	.loc 1 953 10 view .LVU1912
	cmpb	$0, 1(%rdi)
	jne	.L597
	.loc 1 955 11 is_stmt 1 view .LVU1913
	.loc 1 955 27 is_stmt 0 view .LVU1914
	movb	$1, have_read_stdin(%rip)
	.loc 1 956 11 is_stmt 1 view .LVU1915
	.loc 1 956 14 is_stmt 0 view .LVU1916
	movq	stdin(%rip), %r13
.LVL701:
.L598:
	.loc 1 963 7 is_stmt 1 view .LVU1917
	movq	%r13, %rdi
	movl	$2, %esi
	call	fadvise@PLT
.LVL702:
	.loc 1 981 1 is_stmt 0 view .LVU1918
	movq	%r13, %rax
	popq	%rbp
	.cfi_remember_state
	.cfi_def_cfa_offset 24
.LVL703:
	.loc 1 981 1 view .LVU1919
	popq	%r12
	.cfi_def_cfa_offset 16
.LVL704:
	.loc 1 981 1 view .LVU1920
	popq	%r13
	.cfi_def_cfa_offset 8
.LVL705:
	.loc 1 981 1 view .LVU1921
	ret
.LVL706:
	.p2align 4,,10
	.p2align 3
.L597:
	.cfi_restore_state
.LBB906:
	.loc 1 960 11 is_stmt 1 view .LVU1922
.LBB907:
.LBI907:
	.file 6 "/usr/include/x86_64-linux-gnu/bits/fcntl2.h"
	.loc 6 41 1 view .LVU1923
.LBB908:
	.loc 6 43 3 view .LVU1924
	.loc 6 46 3 view .LVU1925
	.loc 6 48 7 view .LVU1926
	.loc 6 53 7 view .LVU1927
	.loc 6 53 14 is_stmt 0 view .LVU1928
	movq	%rbp, %rdi
.LVL707:
	.loc 6 53 14 view .LVU1929
	movl	$524288, %esi
.LVL708:
	.loc 6 53 14 view .LVU1930
	xorl	%eax, %eax
.LBE908:
.LBE907:
	.loc 1 961 30 view .LVU1931
	xorl	%r13d, %r13d
.LBB910:
.LBB909:
	.loc 6 53 14 view .LVU1932
	call	open@PLT
.LVL709:
	.loc 6 53 14 view .LVU1933
	movl	%eax, %edi
.LVL710:
	.loc 6 53 14 view .LVU1934
.LBE909:
.LBE910:
	.loc 1 961 11 is_stmt 1 view .LVU1935
	.loc 1 961 30 is_stmt 0 view .LVU1936
	testl	%eax, %eax
	js	.L598
	.loc 1 961 32 discriminator 1 view .LVU1937
	movq	%r12, %rsi
	call	fdopen@PLT
.LVL711:
	.loc 1 961 32 discriminator 1 view .LVU1938
	movq	%rax, %r13
	jmp	.L598
.LVL712:
	.p2align 4,,10
	.p2align 3
.L615:
	.loc 1 961 32 discriminator 1 view .LVU1939
.LBE906:
.LBB911:
.LBB905:
.LBB903:
	.loc 1 969 11 is_stmt 1 view .LVU1940
	.loc 1 969 33 is_stmt 0 view .LVU1941
	call	__errno_location@PLT
.LVL713:
	.loc 1 969 15 view .LVU1942
	movl	(%rax), %r12d
.LVL714:
	.loc 1 970 11 is_stmt 1 view .LVU1943
	.loc 1 970 32 is_stmt 0 view .LVU1944
	call	get_outstatus
.LVL715:
	.loc 1 971 11 is_stmt 1 view .LVU1945
	.loc 1 971 14 is_stmt 0 view .LVU1946
	testq	%rax, %rax
	je	.L602
	.loc 1 971 25 view .LVU1947
	movl	24(%rax), %eax
.LVL716:
	.loc 1 971 25 view .LVU1948
	andl	$61440, %eax
	.loc 1 971 50 view .LVU1949
	cmpl	$32768, %eax
	jne	.L601
.L602:
.LBB904:
	.loc 1 972 13 is_stmt 1 view .LVU1950
	movq	%rbp, %rdx
	movl	$3, %esi
	xorl	%edi, %edi
	call	quotearg_n_style_colon@PLT
.LVL717:
	movl	$5, %edx
	leaq	.LC16(%rip), %rsi
	xorl	%edi, %edi
	movq	%rax, %r13
	call	dcgettext@PLT
.LVL718:
	movq	%r13, %rcx
	movl	%r12d, %esi
	movl	$2, %edi
	movq	%rax, %rdx
	xorl	%eax, %eax
	call	error@PLT
.LVL719:
.L600:
	.loc 1 972 13 is_stmt 0 view .LVU1951
.LBE904:
.LBE903:
.LBE905:
.LBE911:
	.loc 1 978 5 is_stmt 1 discriminator 1 view .LVU1952
	.loc 1 978 5 discriminator 1 view .LVU1953
	leaq	__PRETTY_FUNCTION__.8805(%rip), %rcx
	movl	$978, %edx
	leaq	.LC17(%rip), %rsi
.LVL720:
	.loc 1 978 5 is_stmt 0 discriminator 1 view .LVU1954
	leaq	.LC18(%rip), %rdi
.LVL721:
	.loc 1 978 5 discriminator 1 view .LVU1955
	call	__assert_fail@PLT
.LVL722:
	.cfi_endproc
.LFE154:
	.size	stream_open, .-stream_open
	.section	.rodata.str1.1
.LC19:
	.string	"open failed"
	.text
	.p2align 4
	.type	xfopen.part.0, @function
xfopen.part.0:
.LVL723:
.LFB241:
	.loc 1 987 1 is_stmt 1 view -0
	.cfi_startproc
	.loc 1 991 5 view .LVU1957
	.loc 1 987 1 is_stmt 0 view .LVU1958
	pushq	%rbp
	.cfi_def_cfa_offset 16
	.cfi_offset 6, -16
	.loc 1 991 15 view .LVU1959
	leaq	.LC19(%rip), %rsi
	.loc 1 987 1 view .LVU1960
	movq	%rdi, %rbp
	.loc 1 991 15 view .LVU1961
	movl	$5, %edx
	xorl	%edi, %edi
.LVL724:
	.loc 1 991 15 view .LVU1962
	call	dcgettext@PLT
.LVL725:
	.loc 1 991 5 view .LVU1963
	movq	%rbp, %rsi
	.loc 1 991 15 view .LVU1964
	movq	%rax, %rdi
	.loc 1 991 5 view .LVU1965
	call	sort_die
.LVL726:
	.cfi_endproc
.LFE241:
	.size	xfopen.part.0, .-xfopen.part.0
	.section	.rodata.str1.1
.LC20:
	.string	"fflush failed"
.LC21:
	.string	"close failed"
	.text
	.p2align 4
	.type	xfclose, @function
xfclose:
.LVL727:
.LFB156:
	.loc 1 999 1 is_stmt 1 view -0
	.cfi_startproc
	.loc 1 1000 3 view .LVU1967
	.loc 1 999 1 is_stmt 0 view .LVU1968
	pushq	%r12
	.cfi_def_cfa_offset 16
	.cfi_offset 12, -16
	movq	%rsi, %r12
	pushq	%rbp
	.cfi_def_cfa_offset 24
	.cfi_offset 6, -24
	movq	%rdi, %rbp
	subq	$8, %rsp
	.cfi_def_cfa_offset 32
	.loc 1 1000 11 view .LVU1969
	call	fileno@PLT
.LVL728:
	.loc 1 1000 3 view .LVU1970
	testl	%eax, %eax
	je	.L619
	cmpl	$1, %eax
	je	.L620
	.loc 1 1015 7 is_stmt 1 view .LVU1971
	.loc 1 1015 11 is_stmt 0 view .LVU1972
	movq	%rbp, %rdi
	call	rpl_fclose@PLT
.LVL729:
	.loc 1 1015 10 view .LVU1973
	testl	%eax, %eax
	jne	.L635
.L618:
	.loc 1 1019 1 view .LVU1974
	addq	$8, %rsp
	.cfi_remember_state
	.cfi_def_cfa_offset 24
	popq	%rbp
	.cfi_def_cfa_offset 16
.LVL730:
	.loc 1 1019 1 view .LVU1975
	popq	%r12
	.cfi_def_cfa_offset 8
.LVL731:
	.loc 1 1019 1 view .LVU1976
	ret
.LVL732:
	.p2align 4,,10
	.p2align 3
.L619:
	.cfi_restore_state
	.loc 1 1004 7 is_stmt 1 view .LVU1977
.LBB918:
.LBI918:
	.file 7 "/usr/include/x86_64-linux-gnu/bits/stdio.h"
	.loc 7 128 1 view .LVU1978
.LBB919:
	.loc 7 130 3 view .LVU1979
	.loc 7 130 3 is_stmt 0 view .LVU1980
.LBE919:
.LBE918:
	.loc 1 1004 10 view .LVU1981
	testb	$16, 0(%rbp)
	je	.L618
	.loc 1 1005 9 is_stmt 1 view .LVU1982
	.loc 1 1019 1 is_stmt 0 view .LVU1983
	addq	$8, %rsp
	.cfi_remember_state
	.cfi_def_cfa_offset 24
	.loc 1 1005 9 view .LVU1984
	movq	%rbp, %rdi
	.loc 1 1019 1 view .LVU1985
	popq	%rbp
	.cfi_def_cfa_offset 16
.LVL733:
	.loc 1 1019 1 view .LVU1986
	popq	%r12
	.cfi_def_cfa_offset 8
.LVL734:
	.loc 1 1005 9 view .LVU1987
	jmp	clearerr_unlocked@PLT
.LVL735:
	.p2align 4,,10
	.p2align 3
.L620:
	.cfi_restore_state
	.loc 1 1010 7 is_stmt 1 view .LVU1988
	.loc 1 1010 11 is_stmt 0 view .LVU1989
	movq	%rbp, %rdi
	call	fflush_unlocked@PLT
.LVL736:
	.loc 1 1010 10 view .LVU1990
	testl	%eax, %eax
	je	.L618
	.loc 1 1011 9 is_stmt 1 view .LVU1991
	.loc 1 1011 19 is_stmt 0 view .LVU1992
	movl	$5, %edx
	leaq	.LC20(%rip), %rsi
	jmp	.L634
.L635:
.LVL737:
.LBB920:
.LBI920:
	.loc 1 998 1 is_stmt 1 view .LVU1993
.LBB921:
	.loc 1 1016 9 view .LVU1994
	.loc 1 1016 19 is_stmt 0 view .LVU1995
	movl	$5, %edx
	leaq	.LC21(%rip), %rsi
.LVL738:
.L634:
	.loc 1 1016 19 view .LVU1996
	xorl	%edi, %edi
	call	dcgettext@PLT
.LVL739:
	.loc 1 1016 9 view .LVU1997
	movq	%r12, %rsi
	.loc 1 1016 19 view .LVU1998
	movq	%rax, %rdi
	.loc 1 1016 9 view .LVU1999
	call	sort_die
.LVL740:
.LBE921:
.LBE920:
	.cfi_endproc
.LFE156:
	.size	xfclose, .-xfclose
	.section	.rodata.str1.1
.LC22:
	.string	"write failed"
.LC23:
	.string	"^ no match for key\n"
	.text
	.p2align 4
	.type	write_line, @function
write_line:
.LVL741:
.LFB196:
	.loc 1 2779 1 is_stmt 1 view -0
	.cfi_startproc
	.loc 1 2779 1 is_stmt 0 view .LVU2001
	pushq	%r15
	.cfi_def_cfa_offset 16
	.cfi_offset 15, -16
	movq	%rdx, %r15
	pushq	%r14
	.cfi_def_cfa_offset 24
	.cfi_offset 14, -24
	pushq	%r13
	.cfi_def_cfa_offset 32
	.cfi_offset 13, -32
	pushq	%r12
	.cfi_def_cfa_offset 40
	.cfi_offset 12, -40
	movq	%rsi, %r12
	pushq	%rbp
	.cfi_def_cfa_offset 48
	.cfi_offset 6, -48
	pushq	%rbx
	.cfi_def_cfa_offset 56
	.cfi_offset 3, -56
	subq	$40, %rsp
	.cfi_def_cfa_offset 96
	.loc 1 2780 9 view .LVU2002
	movq	(%rdi), %rbp
	.loc 1 2781 10 view .LVU2003
	movq	8(%rdi), %r13
	.loc 1 2779 1 view .LVU2004
	movq	%fs:40, %rax
	movq	%rax, 24(%rsp)
	xorl	%eax, %eax
	.loc 1 2780 3 is_stmt 1 view .LVU2005
.LVL742:
	.loc 1 2781 3 view .LVU2006
	.loc 1 2782 3 view .LVU2007
	.loc 1 2782 9 is_stmt 0 view .LVU2008
	leaq	0(%rbp,%r13), %r14
.LVL743:
	.loc 1 2784 3 is_stmt 1 view .LVU2009
	.loc 1 2784 6 is_stmt 0 view .LVU2010
	testq	%rdx, %rdx
	je	.L697
.L637:
	.loc 1 2804 7 is_stmt 1 view .LVU2011
	.loc 1 2804 16 is_stmt 0 view .LVU2012
	movzbl	eolchar(%rip), %eax
	.loc 1 2805 11 view .LVU2013
	movq	%r12, %rcx
	movq	%r13, %rdx
.LVL744:
	.loc 1 2805 11 view .LVU2014
	movq	%rbp, %rdi
.LVL745:
	.loc 1 2805 11 view .LVU2015
	movl	$1, %esi
.LVL746:
	.loc 1 2804 16 view .LVU2016
	movb	%al, -1(%r14)
	.loc 1 2805 7 is_stmt 1 view .LVU2017
	.loc 1 2805 11 is_stmt 0 view .LVU2018
	call	fwrite_unlocked@PLT
.LVL747:
	.loc 1 2805 10 view .LVU2019
	cmpq	%rax, %r13
	jne	.L698
	.loc 1 2807 7 is_stmt 1 view .LVU2020
	.loc 1 2807 16 is_stmt 0 view .LVU2021
	movb	$0, -1(%r14)
.LVL748:
.L636:
	.loc 1 2809 1 view .LVU2022
	movq	24(%rsp), %rax
	xorq	%fs:40, %rax
	jne	.L699
	addq	$40, %rsp
	.cfi_remember_state
	.cfi_def_cfa_offset 56
	popq	%rbx
	.cfi_def_cfa_offset 48
	popq	%rbp
	.cfi_def_cfa_offset 40
	popq	%r12
	.cfi_def_cfa_offset 32
	popq	%r13
	.cfi_def_cfa_offset 24
	popq	%r14
	.cfi_def_cfa_offset 16
	popq	%r15
	.cfi_def_cfa_offset 8
	ret
.LVL749:
	.p2align 4,,10
	.p2align 3
.L697:
	.cfi_restore_state
	.loc 1 2784 20 discriminator 1 view .LVU2023
	cmpb	$0, debug(%rip)
	je	.L637
	movq	%rdi, %rbx
.LVL750:
.LBB951:
	.loc 1 2789 13 is_stmt 1 view .LVU2024
	cmpq	%r14, %rbp
	jb	.L643
.LVL751:
	.loc 1 2789 13 is_stmt 0 view .LVU2025
	jmp	.L638
.LVL752:
	.p2align 4,,10
	.p2align 3
.L703:
.LBB952:
	.loc 1 2794 16 is_stmt 1 view .LVU2026
	movsbl	%al, %esi
	.loc 1 2794 19 is_stmt 0 view .LVU2027
	cmpq	%rbp, %r14
	je	.L700
.LVL753:
.L639:
	.loc 1 2796 11 is_stmt 1 view .LVU2028
.LBB953:
.LBI953:
	.loc 7 91 1 view .LVU2029
.LBB954:
	.loc 7 93 3 view .LVU2030
	.loc 7 93 10 is_stmt 0 view .LVU2031
	movq	40(%r12), %rdx
	cmpq	%rdx, 48(%r12)
	jbe	.L701
.LVL754:
.L640:
	.loc 7 93 10 view .LVU2032
	leaq	1(%rdx), %rcx
	movq	%rcx, 40(%r12)
	movb	%al, (%rdx)
.LVL755:
.L642:
	.loc 7 93 10 view .LVU2033
.LBE954:
.LBE953:
.LBE952:
	.loc 1 2789 13 is_stmt 1 view .LVU2034
	cmpq	%rbp, %r14
	je	.L702
.L643:
.LBB959:
	.loc 1 2791 11 view .LVU2035
	.loc 1 2791 16 is_stmt 0 view .LVU2036
	movzbl	0(%rbp), %eax
	.loc 1 2791 23 view .LVU2037
	addq	$1, %rbp
.LVL756:
	.loc 1 2792 11 is_stmt 1 view .LVU2038
	.loc 1 2792 14 is_stmt 0 view .LVU2039
	cmpb	$9, %al
	jne	.L703
.LBB957:
.LBB955:
	.loc 7 93 10 view .LVU2040
	movq	40(%r12), %rdx
.LBE955:
.LBE957:
	movl	$62, %esi
	.loc 1 2793 16 view .LVU2041
	movl	$62, %eax
.LVL757:
	.loc 1 2796 11 is_stmt 1 view .LVU2042
.LBB958:
	.loc 7 91 1 view .LVU2043
.LBB956:
	.loc 7 93 3 view .LVU2044
	.loc 7 93 10 is_stmt 0 view .LVU2045
	cmpq	%rdx, 48(%r12)
	ja	.L640
.LVL758:
.L701:
	.loc 7 93 10 view .LVU2046
	movzbl	%sil, %esi
	movq	%r12, %rdi
	call	__overflow@PLT
.LVL759:
	.loc 7 93 10 view .LVU2047
.LBE956:
.LBE958:
	.loc 1 2796 14 view .LVU2048
	cmpl	$-1, %eax
	jne	.L642
	.loc 1 2797 13 is_stmt 1 view .LVU2049
	.loc 1 2797 23 is_stmt 0 view .LVU2050
	leaq	.LC22(%rip), %rsi
	xorl	%edi, %edi
	movl	$5, %edx
	call	dcgettext@PLT
.LVL760:
	.loc 1 2797 13 view .LVU2051
	xorl	%esi, %esi
	.loc 1 2797 23 view .LVU2052
	movq	%rax, %rdi
	.loc 1 2797 13 view .LVU2053
	call	sort_die
.LVL761:
	.p2align 4,,10
	.p2align 3
.L700:
	.loc 1 2797 13 view .LVU2054
	movl	$10, %esi
	.loc 1 2795 16 view .LVU2055
	movl	$10, %eax
.LVL762:
	.loc 1 2795 16 view .LVU2056
	jmp	.L639
.LVL763:
	.p2align 4,,10
	.p2align 3
.L702:
	.loc 1 2795 16 view .LVU2057
	movq	(%rbx), %rbp
.LVL764:
	.loc 1 2795 16 view .LVU2058
	movq	8(%rbx), %r13
.LVL765:
.L638:
	.loc 1 2795 16 view .LVU2059
.LBE959:
	.loc 1 2800 7 is_stmt 1 view .LVU2060
.LBB960:
.LBI960:
	.loc 1 2364 1 view .LVU2061
.LBB961:
	.loc 1 2366 3 view .LVU2062
	.loc 1 2366 26 is_stmt 0 view .LVU2063
	movq	keylist(%rip), %r15
.LVL766:
	.loc 1 2368 3 is_stmt 1 view .LVU2064
	.loc 1 2369 5 view .LVU2065
.LBB962:
.LBI962:
	.loc 1 2307 1 view .LVU2066
.LBB963:
	.loc 1 2309 3 view .LVU2067
	.loc 1 2310 3 view .LVU2068
	.loc 1 2311 3 view .LVU2069
	.loc 1 2311 9 is_stmt 0 view .LVU2070
	leaq	-1(%rbp,%r13), %r12
.LVL767:
	.loc 1 2313 3 is_stmt 1 view .LVU2071
	.loc 1 2313 6 is_stmt 0 view .LVU2072
	testq	%r15, %r15
	je	.L680
.LVL768:
	.p2align 4,,10
	.p2align 3
.L712:
	.loc 1 2315 7 is_stmt 1 view .LVU2073
	.loc 1 2315 14 is_stmt 0 view .LVU2074
	movq	(%r15), %r10
	.loc 1 2315 10 view .LVU2075
	cmpq	$-1, %r10
	je	.L647
	.loc 1 2316 9 is_stmt 1 view .LVU2076
	.loc 1 2316 15 is_stmt 0 view .LVU2077
	movq	%r15, %rdx
	movq	%r13, %rsi
	movq	%rbp, %rdi
	call	begfield.isra.0
.LVL769:
	.loc 1 2317 10 view .LVU2078
	cmpq	$-1, 16(%r15)
	.loc 1 2316 15 view .LVU2079
	movq	%rax, %r14
.LVL770:
	.loc 1 2317 7 is_stmt 1 view .LVU2080
	.loc 1 2317 10 is_stmt 0 view .LVU2081
	je	.L649
.LVL771:
.L648:
	.loc 1 2318 9 is_stmt 1 view .LVU2082
	.loc 1 2318 15 is_stmt 0 view .LVU2083
	movq	%r15, %rdx
	movq	%r13, %rsi
	movq	%rbp, %rdi
	call	limfield.isra.0
.LVL772:
	movq	%rax, %r12
.LVL773:
.L650:
	.loc 1 2320 7 is_stmt 1 view .LVU2084
	.loc 1 2320 29 is_stmt 0 view .LVU2085
	cmpb	$0, 48(%r15)
	je	.L649
	.loc 1 2320 29 view .LVU2086
	cmpq	$-1, %r10
	je	.L651
.L649:
	.loc 1 2321 11 view .LVU2087
	cmpb	$0, 54(%r15)
	jne	.L651
.LVL774:
.LBB964:
.LBI964:
	.loc 1 2298 1 is_stmt 1 view .LVU2088
.LBB965:
	.loc 1 2300 3 view .LVU2089
	.loc 1 2300 3 is_stmt 0 view .LVU2090
.LBE965:
.LBE964:
	.loc 1 2321 25 view .LVU2091
	movabsq	$281470698455040, %rax
	testq	%rax, 48(%r15)
	je	.L645
.L651:
.LBB966:
	.loc 1 2323 11 is_stmt 1 view .LVU2092
	.loc 1 2323 16 is_stmt 0 view .LVU2093
	movzbl	(%r12), %r13d
.LVL775:
	.loc 1 2324 11 is_stmt 1 view .LVU2094
	.loc 1 2324 16 is_stmt 0 view .LVU2095
	movb	$0, (%r12)
	.loc 1 2326 11 is_stmt 1 view .LVU2096
.LVL776:
	.loc 1 2326 17 view .LVU2097
.LBB967:
.LBI967:
	.loc 2 156 29 view .LVU2098
.LBB968:
	.loc 2 156 50 view .LVU2099
	.loc 2 156 50 is_stmt 0 view .LVU2100
.LBE968:
.LBE967:
	.loc 1 2326 17 view .LVU2101
	leaq	blanks(%rip), %rcx
	.loc 1 2326 24 view .LVU2102
	movzbl	(%r14), %eax
	.loc 1 2326 17 view .LVU2103
	cmpb	$0, (%rcx,%rax)
	je	.L653
	.p2align 4,,10
	.p2align 3
.L654:
	.loc 1 2327 13 is_stmt 1 view .LVU2104
	.loc 1 2326 24 is_stmt 0 view .LVU2105
	movzbl	1(%r14), %eax
	.loc 1 2326 17 view .LVU2106
	leaq	blanks(%rip), %rcx
	.loc 1 2327 16 view .LVU2107
	addq	$1, %r14
.LVL777:
	.loc 1 2326 17 is_stmt 1 view .LVU2108
.LBB970:
	.loc 2 156 29 view .LVU2109
.LBB969:
	.loc 2 156 50 view .LVU2110
	.loc 2 156 50 is_stmt 0 view .LVU2111
.LBE969:
.LBE970:
	.loc 1 2326 17 view .LVU2112
	cmpb	$0, (%rcx,%rax)
	jne	.L654
.L653:
	.loc 1 2329 11 is_stmt 1 view .LVU2113
	.loc 1 2329 17 is_stmt 0 view .LVU2114
	movq	%r14, 8(%rsp)
	.loc 1 2331 11 is_stmt 1 view .LVU2115
	.loc 1 2331 14 is_stmt 0 view .LVU2116
	cmpq	%r12, %r14
	ja	.L659
	.loc 1 2333 16 is_stmt 1 view .LVU2117
	.loc 1 2333 19 is_stmt 0 view .LVU2118
	cmpb	$0, 54(%r15)
	jne	.L704
	.loc 1 2335 16 is_stmt 1 view .LVU2119
	.loc 1 2335 19 is_stmt 0 view .LVU2120
	cmpb	$0, 52(%r15)
	jne	.L705
	.loc 1 2337 16 is_stmt 1 view .LVU2121
	.loc 1 2337 19 is_stmt 0 view .LVU2122
	movabsq	$280375481794560, %rax
	testq	%rax, 48(%r15)
	je	.L659
.LBB971:
	.loc 1 2339 15 is_stmt 1 view .LVU2123
	movq	%r14, %rax
	.loc 1 2339 48 is_stmt 0 view .LVU2124
	cmpq	%r12, %r14
	jnb	.L660
	xorl	%eax, %eax
	cmpb	$45, (%r14)
	sete	%al
	addq	%r14, %rax
.L660:
	.loc 1 2340 41 view .LVU2125
	leaq	16(%rsp), %rdi
	.loc 1 2339 27 view .LVU2126
	movq	%rax, 16(%rsp)
	.loc 1 2340 15 is_stmt 1 view .LVU2127
	.loc 1 2340 41 is_stmt 0 view .LVU2128
	call	traverse_raw_number
.LVL778:
	.loc 1 2341 15 is_stmt 1 view .LVU2129
	.loc 1 2341 18 is_stmt 0 view .LVU2130
	cmpb	$47, %al
	jbe	.L656
.LBB972:
	.loc 1 2343 19 is_stmt 1 view .LVU2131
	.loc 1 2345 43 is_stmt 0 view .LVU2132
	cmpb	$0, 53(%r15)
	.loc 1 2343 38 view .LVU2133
	movq	16(%rsp), %rax
.LVL779:
	.loc 1 2344 19 is_stmt 1 view .LVU2134
	.loc 1 2345 43 is_stmt 0 view .LVU2135
	jne	.L706
.LVL780:
.L662:
	.loc 1 2344 31 view .LVU2136
	movq	%rax, 8(%rsp)
.LVL781:
	.p2align 4,,10
	.p2align 3
.L656:
	.loc 1 2344 31 view .LVU2137
.LBE972:
.LBE971:
	.loc 1 2351 11 is_stmt 1 view .LVU2138
	.loc 1 2351 16 is_stmt 0 view .LVU2139
	movb	%r13b, (%r12)
	.loc 1 2352 11 is_stmt 1 view .LVU2140
	.loc 1 2352 15 is_stmt 0 view .LVU2141
	movq	8(%rsp), %r12
.LVL782:
.L645:
	.loc 1 2352 15 view .LVU2142
.LBE966:
	.loc 1 2356 3 is_stmt 1 view .LVU2143
	.loc 1 2356 19 is_stmt 0 view .LVU2144
	movq	%rbp, %rdi
	movq	%r14, %rsi
	call	debug_width
.LVL783:
	.loc 1 2357 18 view .LVU2145
	movq	%r12, %rsi
	movq	%r14, %rdi
	.loc 1 2356 19 view .LVU2146
	movq	%rax, %r13
.LVL784:
	.loc 1 2357 3 is_stmt 1 view .LVU2147
	.loc 1 2357 18 is_stmt 0 view .LVU2148
	call	debug_width
.LVL785:
.LBB976:
.LBB977:
	.loc 1 2280 16 view .LVU2149
	leaq	-1(%r13), %r12
.LVL786:
	.loc 1 2280 16 view .LVU2150
.LBE977:
.LBE976:
	.loc 1 2357 18 view .LVU2151
	movq	%rax, %rbp
.LVL787:
	.loc 1 2358 3 is_stmt 1 view .LVU2152
.LBB998:
.LBI976:
	.loc 1 2278 1 view .LVU2153
.LBB994:
	.loc 1 2280 3 view .LVU2154
	.loc 1 2280 9 view .LVU2155
	.loc 1 2280 9 is_stmt 0 view .LVU2156
	testq	%r13, %r13
	je	.L668
.LVL788:
	.p2align 4,,10
	.p2align 3
.L663:
	.loc 1 2281 5 is_stmt 1 view .LVU2157
.LBB978:
.LBI978:
	.loc 7 108 1 view .LVU2158
.LBB979:
	.loc 7 110 3 view .LVU2159
	.loc 7 110 10 is_stmt 0 view .LVU2160
	movq	stdout(%rip), %rdi
	movq	40(%rdi), %rax
	cmpq	48(%rdi), %rax
	jnb	.L707
	.loc 7 110 10 view .LVU2161
	leaq	1(%rax), %rdx
	movq	%rdx, 40(%rdi)
	movb	$32, (%rax)
.L667:
.LVL789:
	.loc 7 110 10 view .LVU2162
.LBE979:
.LBE978:
	.loc 1 2280 9 is_stmt 1 view .LVU2163
	.loc 1 2280 16 is_stmt 0 view .LVU2164
	subq	$1, %r12
.LVL790:
	.loc 1 2280 9 view .LVU2165
	cmpq	$-1, %r12
	jne	.L663
.L668:
	.loc 1 2283 3 is_stmt 1 view .LVU2166
	.loc 1 2283 6 is_stmt 0 view .LVU2167
	testq	%rbp, %rbp
	je	.L708
.LVL791:
	.p2align 4,,10
	.p2align 3
.L665:
	.loc 1 2287 7 is_stmt 1 view .LVU2168
	.loc 1 2288 9 view .LVU2169
.LBB981:
.LBI981:
	.loc 7 108 1 view .LVU2170
.LBB982:
	.loc 7 110 3 view .LVU2171
	.loc 7 110 10 is_stmt 0 view .LVU2172
	movq	stdout(%rip), %rdi
	movq	40(%rdi), %rax
	cmpq	48(%rdi), %rax
	jnb	.L709
	.loc 7 110 10 view .LVU2173
	leaq	1(%rax), %rdx
	movq	%rdx, 40(%rdi)
	movb	$95, (%rax)
.L671:
.LVL792:
	.loc 7 110 10 view .LVU2174
.LBE982:
.LBE981:
	.loc 1 2289 13 is_stmt 1 view .LVU2175
	.loc 1 2289 7 is_stmt 0 view .LVU2176
	subq	$1, %rbp
.LVL793:
	.loc 1 2289 7 view .LVU2177
	jne	.L665
	.loc 1 2291 7 is_stmt 1 view .LVU2178
.LVL794:
.LBB984:
.LBI984:
	.loc 7 108 1 view .LVU2179
.LBB985:
	.loc 7 110 3 view .LVU2180
	.loc 7 110 10 is_stmt 0 view .LVU2181
	movq	stdout(%rip), %rdi
	movq	40(%rdi), %rax
	cmpq	48(%rdi), %rax
	jnb	.L710
	leaq	1(%rax), %rdx
	movq	%rdx, 40(%rdi)
	movb	$10, (%rax)
.LVL795:
.L669:
	.loc 7 110 10 view .LVU2182
.LBE985:
.LBE984:
.LBE994:
.LBE998:
.LBE963:
.LBE962:
	.loc 1 2370 9 is_stmt 1 view .LVU2183
	.loc 1 2370 3 is_stmt 0 view .LVU2184
	testq	%r15, %r15
	je	.L636
	.loc 1 2370 23 view .LVU2185
	movq	64(%r15), %r15
.LVL796:
	.loc 1 2370 14 view .LVU2186
	testq	%r15, %r15
	je	.L711
	movq	(%rbx), %rbp
	movq	8(%rbx), %r13
	.loc 1 2368 3 is_stmt 1 view .LVU2187
	.loc 1 2369 5 view .LVU2188
.LVL797:
.LBB1010:
	.loc 1 2307 1 view .LVU2189
.LBB1005:
	.loc 1 2309 3 view .LVU2190
	.loc 1 2310 3 view .LVU2191
	.loc 1 2311 3 view .LVU2192
	.loc 1 2311 9 is_stmt 0 view .LVU2193
	leaq	-1(%rbp,%r13), %r12
.LVL798:
	.loc 1 2313 3 is_stmt 1 view .LVU2194
	.loc 1 2313 6 is_stmt 0 view .LVU2195
	testq	%r15, %r15
	jne	.L712
.LVL799:
.L680:
	.loc 1 2313 6 view .LVU2196
.LBE1005:
.LBE1010:
	.loc 1 2369 5 view .LVU2197
	movq	%rbp, %r14
	jmp	.L645
.LVL800:
	.p2align 4,,10
	.p2align 3
.L707:
.LBB1011:
.LBB1006:
.LBB999:
.LBB995:
.LBB987:
.LBB980:
	.loc 7 110 10 view .LVU2198
	movl	$32, %esi
	call	__overflow@PLT
.LVL801:
	jmp	.L667
.LVL802:
	.p2align 4,,10
	.p2align 3
.L709:
	.loc 7 110 10 view .LVU2199
.LBE980:
.LBE987:
.LBB988:
.LBB983:
	movl	$95, %esi
	call	__overflow@PLT
.LVL803:
	jmp	.L671
.LVL804:
	.p2align 4,,10
	.p2align 3
.L659:
	.loc 7 110 10 view .LVU2200
.LBE983:
.LBE988:
.LBE995:
.LBE999:
.LBB1000:
	.loc 1 2349 13 is_stmt 1 view .LVU2201
	.loc 1 2349 25 is_stmt 0 view .LVU2202
	movq	%r12, 8(%rsp)
	jmp	.L656
.LVL805:
	.p2align 4,,10
	.p2align 3
.L708:
	.loc 1 2349 25 view .LVU2203
.LBE1000:
.LBB1001:
.LBB996:
	.loc 1 2284 5 is_stmt 1 view .LVU2204
	.loc 1 2284 13 is_stmt 0 view .LVU2205
	xorl	%edi, %edi
	movl	$5, %edx
	leaq	.LC23(%rip), %rsi
	call	dcgettext@PLT
.LVL806:
.LBB989:
.LBB990:
	.file 8 "/usr/include/x86_64-linux-gnu/bits/stdio2.h"
	.loc 8 107 10 view .LVU2206
	movl	$1, %edi
.LBE990:
.LBE989:
	.loc 1 2284 13 view .LVU2207
	movq	%rax, %rsi
.LVL807:
.LBB992:
.LBI989:
	.loc 8 105 1 is_stmt 1 view .LVU2208
.LBB991:
	.loc 8 107 3 view .LVU2209
	.loc 8 107 10 is_stmt 0 view .LVU2210
	xorl	%eax, %eax
.LVL808:
	.loc 8 107 10 view .LVU2211
	call	__printf_chk@PLT
.LVL809:
	.loc 8 107 10 view .LVU2212
	jmp	.L669
.LVL810:
	.p2align 4,,10
	.p2align 3
.L711:
	.loc 8 107 10 view .LVU2213
.LBE991:
.LBE992:
.LBE996:
.LBE1001:
.LBE1006:
.LBE1011:
	.loc 1 2370 36 view .LVU2214
	cmpb	$0, unique(%rip)
	jne	.L636
	.loc 1 2370 39 view .LVU2215
	cmpb	$0, stable(%rip)
	jne	.L636
.LVL811:
	.loc 1 2368 3 is_stmt 1 view .LVU2216
	.loc 1 2369 5 view .LVU2217
	movq	(%rbx), %r14
.LVL812:
.LBB1012:
	.loc 1 2307 1 view .LVU2218
.LBB1007:
	.loc 1 2309 3 view .LVU2219
	.loc 1 2310 3 view .LVU2220
	.loc 1 2311 3 view .LVU2221
	.loc 1 2311 35 is_stmt 0 view .LVU2222
	movq	8(%rbx), %rax
.LBE1007:
.LBE1012:
	.loc 1 2369 5 view .LVU2223
	movq	%r14, %rbp
.LBB1013:
.LBB1008:
	.loc 1 2311 9 view .LVU2224
	leaq	-1(%r14,%rax), %r12
.LVL813:
	.loc 1 2313 3 is_stmt 1 view .LVU2225
	jmp	.L645
.LVL814:
	.p2align 4,,10
	.p2align 3
.L647:
	.loc 1 2317 7 view .LVU2226
	.loc 1 2317 10 is_stmt 0 view .LVU2227
	cmpq	$-1, 16(%r15)
.LBE1008:
.LBE1013:
	.loc 1 2369 5 view .LVU2228
	movq	%rbp, %r14
.LBB1014:
.LBB1009:
	.loc 1 2317 10 view .LVU2229
	jne	.L648
	jmp	.L650
.LVL815:
	.p2align 4,,10
	.p2align 3
.L704:
.LBB1002:
	.loc 1 2334 13 is_stmt 1 view .LVU2230
	leaq	8(%rsp), %rsi
	movq	%r14, %rdi
	call	getmonth
.LVL816:
	jmp	.L656
.LVL817:
	.p2align 4,,10
	.p2align 3
.L710:
	.loc 1 2334 13 is_stmt 0 view .LVU2231
.LBE1002:
.LBB1003:
.LBB997:
.LBB993:
.LBB986:
	.loc 7 110 10 view .LVU2232
	movl	$10, %esi
	call	__overflow@PLT
.LVL818:
	jmp	.L669
.LVL819:
	.p2align 4,,10
	.p2align 3
.L705:
	.loc 7 110 10 view .LVU2233
.LBE986:
.LBE993:
.LBE997:
.LBE1003:
.LBB1004:
	.loc 1 2336 13 is_stmt 1 view .LVU2234
.LBB974:
	.loc 1 2336 13 view .LVU2235
	leaq	8(%rsp), %rsi
	movq	%r14, %rdi
	call	strtold@PLT
.LVL820:
	fstp	%st(0)
	.loc 1 2336 13 view .LVU2236
.LBE974:
	jmp	.L656
.LVL821:
	.p2align 4,,10
	.p2align 3
.L706:
.LBB975:
.LBB973:
	.loc 1 2345 56 is_stmt 0 view .LVU2237
	movzbl	(%rax), %edx
	leaq	unit_order(%rip), %rcx
	cmpb	$1, (%rcx,%rdx)
	sbbq	$-1, %rax
.LVL822:
	.loc 1 2345 56 view .LVU2238
	jmp	.L662
.LVL823:
.L699:
	.loc 1 2345 56 view .LVU2239
.LBE973:
.LBE975:
.LBE1004:
.LBE1009:
.LBE1014:
.LBE961:
.LBE960:
.LBE951:
	.loc 1 2809 1 view .LVU2240
	call	__stack_chk_fail@PLT
.LVL824:
.L698:
	.loc 1 2806 9 is_stmt 1 view .LVU2241
	.loc 1 2806 19 is_stmt 0 view .LVU2242
	leaq	.LC22(%rip), %rsi
	xorl	%edi, %edi
	movl	$5, %edx
	call	dcgettext@PLT
.LVL825:
	.loc 1 2806 9 view .LVU2243
	movq	%r15, %rsi
	.loc 1 2806 19 view .LVU2244
	movq	%rax, %rdi
	.loc 1 2806 9 view .LVU2245
	call	sort_die
.LVL826:
	.cfi_endproc
.LFE196:
	.size	write_line, .-write_line
	.p2align 4
	.type	compare, @function
compare:
.LVL827:
.LFB195:
	.loc 1 2736 1 is_stmt 1 view -0
	.cfi_startproc
	.loc 1 2737 3 view .LVU2247
	.loc 1 2738 3 view .LVU2248
	.loc 1 2743 3 view .LVU2249
	.loc 1 2736 1 is_stmt 0 view .LVU2250
	pushq	%r15
	.cfi_def_cfa_offset 16
	.cfi_offset 15, -16
	pushq	%r14
	.cfi_def_cfa_offset 24
	.cfi_offset 14, -24
	pushq	%r13
	.cfi_def_cfa_offset 32
	.cfi_offset 13, -32
	pushq	%r12
	.cfi_def_cfa_offset 40
	.cfi_offset 12, -40
	pushq	%rbp
	.cfi_def_cfa_offset 48
	.cfi_offset 6, -48
	movq	%rsi, %rbp
	pushq	%rbx
	.cfi_def_cfa_offset 56
	.cfi_offset 3, -56
	movq	%rdi, %rbx
	subq	$8, %rsp
	.cfi_def_cfa_offset 64
	.loc 1 2743 6 view .LVU2251
	cmpq	$0, keylist(%rip)
	je	.L718
	.loc 1 2745 7 is_stmt 1 view .LVU2252
	.loc 1 2745 14 is_stmt 0 view .LVU2253
	call	keycompare
.LVL828:
	.loc 1 2746 7 is_stmt 1 view .LVU2254
	.loc 1 2746 10 is_stmt 0 view .LVU2255
	testl	%eax, %eax
	jne	.L713
	.loc 1 2746 16 discriminator 1 view .LVU2256
	cmpb	$0, unique(%rip)
	jne	.L713
	.loc 1 2746 26 discriminator 2 view .LVU2257
	cmpb	$0, stable(%rip)
	jne	.L713
.LVL829:
.L718:
.LBB1017:
.LBI1017:
	.loc 1 2735 1 is_stmt 1 view .LVU2258
.LBB1018:
	.loc 1 2752 3 view .LVU2259
	.loc 1 2752 11 is_stmt 0 view .LVU2260
	movq	8(%rbx), %r12
.LVL830:
	.loc 1 2752 33 view .LVU2261
	movq	8(%rbp), %r14
	.loc 1 2754 6 view .LVU2262
	movq	%r12, %r15
	.loc 1 2752 30 view .LVU2263
	leaq	-1(%r14), %r13
.LVL831:
	.loc 1 2754 3 is_stmt 1 view .LVU2264
	.loc 1 2754 6 is_stmt 0 view .LVU2265
	subq	$1, %r15
.LVL832:
	.loc 1 2754 6 view .LVU2266
	jne	.L726
	.loc 1 2755 5 is_stmt 1 view .LVU2267
	.loc 1 2755 14 is_stmt 0 view .LVU2268
	xorl	%eax, %eax
	testq	%r13, %r13
	setne	%al
	.loc 1 2755 10 view .LVU2269
	negl	%eax
.LVL833:
.L719:
	.loc 1 2769 3 is_stmt 1 view .LVU2270
	.loc 1 2769 26 is_stmt 0 view .LVU2271
	cmpb	$0, reverse(%rip)
	je	.L713
	negl	%eax
.LVL834:
.L713:
	.loc 1 2769 26 view .LVU2272
.LBE1018:
.LBE1017:
	.loc 1 2770 1 view .LVU2273
	addq	$8, %rsp
	.cfi_remember_state
	.cfi_def_cfa_offset 56
	popq	%rbx
	.cfi_def_cfa_offset 48
.LVL835:
	.loc 1 2770 1 view .LVU2274
	popq	%rbp
	.cfi_def_cfa_offset 40
.LVL836:
	.loc 1 2770 1 view .LVU2275
	popq	%r12
	.cfi_def_cfa_offset 32
	popq	%r13
	.cfi_def_cfa_offset 24
	popq	%r14
	.cfi_def_cfa_offset 16
	popq	%r15
	.cfi_def_cfa_offset 8
	ret
.LVL837:
	.p2align 4,,10
	.p2align 3
.L726:
	.cfi_restore_state
.LBB1020:
.LBB1019:
	.loc 1 2756 8 is_stmt 1 view .LVU2276
	.loc 1 2757 10 is_stmt 0 view .LVU2277
	movl	$1, %eax
	.loc 1 2756 11 view .LVU2278
	testq	%r13, %r13
	je	.L719
	.loc 1 2758 8 is_stmt 1 view .LVU2279
	.loc 1 2758 11 is_stmt 0 view .LVU2280
	cmpb	$0, hard_LC_COLLATE(%rip)
	movq	0(%rbp), %rsi
	movq	(%rbx), %rdi
	jne	.L727
	.loc 1 2766 8 is_stmt 1 view .LVU2281
	.loc 1 2766 22 is_stmt 0 view .LVU2282
	cmpq	%r13, %r15
	movq	%r13, %rdx
	cmovbe	%r15, %rdx
	call	memcmp@PLT
.LVL838:
	.loc 1 2766 11 view .LVU2283
	testl	%eax, %eax
	jne	.L719
	.loc 1 2767 5 is_stmt 1 view .LVU2284
	.loc 1 2767 29 is_stmt 0 view .LVU2285
	movl	$-1, %eax
.LVL839:
	.loc 1 2767 29 view .LVU2286
	cmpq	%r13, %r15
	jb	.L719
	.loc 1 2767 36 view .LVU2287
	xorl	%eax, %eax
	cmpq	%r14, %r12
	setne	%al
	jmp	.L719
	.p2align 4,,10
	.p2align 3
.L727:
	.loc 1 2764 7 is_stmt 1 view .LVU2288
	.loc 1 2764 14 is_stmt 0 view .LVU2289
	movq	%rsi, %rdx
	movq	%r14, %rcx
	movq	%r12, %rsi
	call	xmemcoll0@PLT
.LVL840:
	.loc 1 2764 14 view .LVU2290
	jmp	.L719
.LBE1019:
.LBE1020:
	.cfi_endproc
.LFE195:
	.size	compare, .-compare
	.p2align 4
	.type	sequential_sort, @function
sequential_sort:
.LVL841:
.LFB202:
	.loc 1 3198 1 is_stmt 1 view -0
	.cfi_startproc
	.loc 1 3198 1 is_stmt 0 view .LVU2292
	pushq	%r15
	.cfi_def_cfa_offset 16
	.cfi_offset 15, -16
	pushq	%r14
	.cfi_def_cfa_offset 24
	.cfi_offset 14, -24
	pushq	%r13
	.cfi_def_cfa_offset 32
	.cfi_offset 13, -32
	pushq	%r12
	.cfi_def_cfa_offset 40
	.cfi_offset 12, -40
	pushq	%rbp
	.cfi_def_cfa_offset 48
	.cfi_offset 6, -48
	movq	%rdi, %rbp
	.loc 1 3199 3 is_stmt 1 view .LVU2293
	.loc 1 3198 1 is_stmt 0 view .LVU2294
	pushq	%rbx
	.cfi_def_cfa_offset 56
	.cfi_offset 3, -56
	movq	%rdx, %rbx
	subq	$24, %rsp
	.cfi_def_cfa_offset 80
	.loc 1 3199 6 view .LVU2295
	cmpq	$2, %rsi
	je	.L751
.LBB1025:
	.loc 1 3219 14 view .LVU2296
	movq	%rsi, %r12
	.loc 1 3220 14 view .LVU2297
	movq	%rsi, %r15
	.loc 1 3222 20 view .LVU2298
	movq	%rdi, %r8
	movq	%rsi, %r13
	.loc 1 3219 7 is_stmt 1 view .LVU2299
	.loc 1 3219 14 is_stmt 0 view .LVU2300
	shrq	%r12
.LVL842:
	.loc 1 3220 7 is_stmt 1 view .LVU2301
	.loc 1 3222 31 is_stmt 0 view .LVU2302
	movq	%r12, %rax
	.loc 1 3220 14 view .LVU2303
	subq	%r12, %r15
.LVL843:
	.loc 1 3221 7 is_stmt 1 view .LVU2304
	.loc 1 3222 7 view .LVU2305
	.loc 1 3222 31 is_stmt 0 view .LVU2306
	salq	$5, %rax
	movq	%rax, %r14
	.loc 1 3222 20 view .LVU2307
	subq	%rax, %r8
.LVL844:
	.loc 1 3224 7 is_stmt 1 view .LVU2308
	.loc 1 3222 31 is_stmt 0 view .LVU2309
	negq	%r14
	.loc 1 3224 38 view .LVU2310
	testb	%cl, %cl
	jne	.L733
	.loc 1 3224 7 view .LVU2311
	xorl	%ecx, %ecx
.LVL845:
	.loc 1 3224 7 view .LVU2312
	movq	%r8, %rdi
.LVL846:
	.loc 1 3224 7 view .LVU2313
	movq	%r15, %rsi
.LVL847:
	.loc 1 3224 7 view .LVU2314
	movq	%r8, 8(%rsp)
	call	sequential_sort
.LVL848:
	.loc 1 3225 7 is_stmt 1 view .LVU2315
	.loc 1 3225 10 is_stmt 0 view .LVU2316
	cmpq	$3, %r13
	movq	8(%rsp), %r8
	ja	.L752
	.loc 1 3228 9 is_stmt 1 view .LVU2317
	.loc 1 3228 18 is_stmt 0 view .LVU2318
	movdqu	-32(%rbp), %xmm0
	movdqu	-16(%rbp), %xmm1
	movq	%rbx, %rax
	movq	%r8, %r14
	movups	%xmm0, -32(%rbx)
	movups	%xmm1, -16(%rbx)
	.loc 1 3230 7 is_stmt 1 view .LVU2319
	.loc 1 3231 7 view .LVU2320
	.loc 1 3232 7 view .LVU2321
	.loc 1 3228 18 is_stmt 0 view .LVU2322
	movq	%rbp, %rbx
.LVL849:
	.loc 1 3228 18 view .LVU2323
	movq	%rax, %rbp
.LVL850:
.L742:
	.loc 1 3242 7 is_stmt 1 view .LVU2324
.LBB1026:
.LBI1026:
	.loc 1 3149 1 view .LVU2325
.LBB1027:
	.loc 1 3152 3 view .LVU2326
	.loc 1 3153 3 view .LVU2327
	.loc 1 3154 3 view .LVU2328
	.loc 1 3154 3 is_stmt 0 view .LVU2329
	leaq	-32(%rbp), %rdx
	leaq	-32(%r14), %r13
.LVL851:
	.p2align 4,,10
	.p2align 3
.L735:
	.loc 1 3156 3 is_stmt 1 view .LVU2330
	.loc 1 3157 5 view .LVU2331
	.loc 1 3157 9 is_stmt 0 view .LVU2332
	movq	%rdx, %rdi
	movq	%r13, %rsi
	movq	%rdx, 8(%rsp)
	subq	$32, %rbx
.LVL852:
	.loc 1 3157 9 view .LVU2333
	call	compare
.LVL853:
	.loc 1 3157 8 view .LVU2334
	movq	8(%rsp), %rdx
	testl	%eax, %eax
	jle	.L753
	.loc 1 3169 9 is_stmt 1 view .LVU2335
.LVL854:
	.loc 1 3170 9 view .LVU2336
	.loc 1 3169 14 is_stmt 0 view .LVU2337
	movdqu	-32(%r14), %xmm4
	movups	%xmm4, (%rbx)
	movdqu	-16(%r14), %xmm5
	movups	%xmm5, 16(%rbx)
	.loc 1 3170 12 view .LVU2338
	subq	$1, %r15
.LVL855:
	.loc 1 3170 12 view .LVU2339
	je	.L754
	.loc 1 3169 14 view .LVU2340
	movq	%r13, %r14
	subq	$32, %r13
.LVL856:
	.loc 1 3169 14 view .LVU2341
	jmp	.L735
.LVL857:
	.p2align 4,,10
	.p2align 3
.L733:
	.loc 1 3169 14 view .LVU2342
.LBE1027:
.LBE1026:
	.loc 1 3224 7 view .LVU2343
	addq	%rdx, %r14
	movl	$1, %ecx
.LVL858:
	.loc 1 3224 7 view .LVU2344
	movq	%r15, %rsi
.LVL859:
	.loc 1 3224 7 view .LVU2345
	movq	%r8, %rdi
.LVL860:
	.loc 1 3224 7 view .LVU2346
	movq	%r14, %rdx
.LVL861:
	.loc 1 3224 7 view .LVU2347
	call	sequential_sort
.LVL862:
	.loc 1 3225 7 is_stmt 1 view .LVU2348
	.loc 1 3225 10 is_stmt 0 view .LVU2349
	cmpq	$3, %r13
	jbe	.L742
	.loc 1 3226 9 is_stmt 1 view .LVU2350
	xorl	%ecx, %ecx
	movq	%rbx, %rdx
	movq	%r12, %rsi
	movq	%rbp, %rdi
	call	sequential_sort
.LVL863:
	.loc 1 3230 7 view .LVU2351
	.loc 1 3231 7 view .LVU2352
	.loc 1 3232 7 view .LVU2353
	jmp	.L742
.LVL864:
	.p2align 4,,10
	.p2align 3
.L753:
.LBB1030:
.LBB1028:
	.loc 1 3159 9 view .LVU2354
	.loc 1 3160 9 view .LVU2355
	.loc 1 3159 14 is_stmt 0 view .LVU2356
	movdqu	-32(%rbp), %xmm2
	movups	%xmm2, (%rbx)
	movdqu	-16(%rbp), %xmm3
	movups	%xmm3, 16(%rbx)
	.loc 1 3160 12 view .LVU2357
	subq	$1, %r12
.LVL865:
	.loc 1 3160 12 view .LVU2358
	je	.L728
	.loc 1 3159 14 view .LVU2359
	movq	%rdx, %rbp
	subq	$32, %rdx
.LVL866:
	.loc 1 3159 14 view .LVU2360
	jmp	.L735
.LVL867:
	.p2align 4,,10
	.p2align 3
.L751:
	.loc 1 3159 14 view .LVU2361
.LBE1028:
.LBE1030:
.LBE1025:
.LBB1032:
	.loc 1 3204 44 view .LVU2362
	leaq	-64(%rdi), %rsi
.LVL868:
	.loc 1 3204 23 view .LVU2363
	leaq	-32(%rdi), %rdi
.LVL869:
	.loc 1 3204 23 view .LVU2364
	movl	%ecx, 8(%rsp)
	.loc 1 3204 7 is_stmt 1 view .LVU2365
	.loc 1 3204 23 is_stmt 0 view .LVU2366
	call	compare
.LVL870:
	.loc 1 3205 7 is_stmt 1 view .LVU2367
	.loc 1 3205 10 is_stmt 0 view .LVU2368
	movl	8(%rsp), %ecx
	testb	%cl, %cl
	jne	.L755
	.loc 1 3210 12 is_stmt 1 view .LVU2369
	.loc 1 3210 15 is_stmt 0 view .LVU2370
	testl	%eax, %eax
	jle	.L728
	.loc 1 3212 11 is_stmt 1 view .LVU2371
	.loc 1 3212 20 is_stmt 0 view .LVU2372
	movdqu	-32(%rbp), %xmm1
	movdqu	-16(%rbp), %xmm0
	.loc 1 3213 21 view .LVU2373
	movdqu	-64(%rbp), %xmm2
	movdqu	-48(%rbp), %xmm3
	.loc 1 3212 20 view .LVU2374
	movups	%xmm1, -32(%rbx)
	movups	%xmm0, -16(%rbx)
	.loc 1 3213 11 is_stmt 1 view .LVU2375
	.loc 1 3213 21 is_stmt 0 view .LVU2376
	movups	%xmm2, -32(%rbp)
	movups	%xmm3, -16(%rbp)
	.loc 1 3214 11 is_stmt 1 view .LVU2377
	.loc 1 3214 21 is_stmt 0 view .LVU2378
	movups	%xmm1, -64(%rbp)
	movups	%xmm0, -48(%rbp)
.LVL871:
.L728:
	.loc 1 3214 21 view .LVU2379
.LBE1032:
	.loc 1 3244 1 view .LVU2380
	addq	$24, %rsp
	.cfi_remember_state
	.cfi_def_cfa_offset 56
	popq	%rbx
	.cfi_def_cfa_offset 48
	popq	%rbp
	.cfi_def_cfa_offset 40
	popq	%r12
	.cfi_def_cfa_offset 32
	popq	%r13
	.cfi_def_cfa_offset 24
	popq	%r14
	.cfi_def_cfa_offset 16
	popq	%r15
	.cfi_def_cfa_offset 8
	ret
.LVL872:
	.p2align 4,,10
	.p2align 3
.L754:
	.cfi_restore_state
.LBB1033:
.LBB1031:
.LBB1029:
	.loc 1 3244 1 view .LVU2381
	movq	$-32, %rax
.LVL873:
	.p2align 4,,10
	.p2align 3
.L739:
	.loc 1 3172 13 is_stmt 1 view .LVU2382
	.loc 1 3173 15 view .LVU2383
	.loc 1 3173 20 is_stmt 0 view .LVU2384
	movdqu	0(%rbp,%rax), %xmm6
	movups	%xmm6, (%rbx,%rax)
	movdqu	16(%rbp,%rax), %xmm7
	movups	%xmm7, 16(%rbx,%rax)
	.loc 1 3174 19 is_stmt 1 view .LVU2385
.LVL874:
	.loc 1 3174 19 is_stmt 0 view .LVU2386
	subq	$32, %rax
.LVL875:
	.loc 1 3174 13 view .LVU2387
	subq	$1, %r12
.LVL876:
	.loc 1 3174 13 view .LVU2388
	jne	.L739
.LBE1029:
.LBE1031:
.LBE1033:
	.loc 1 3244 1 view .LVU2389
	addq	$24, %rsp
	.cfi_remember_state
	.cfi_def_cfa_offset 56
	popq	%rbx
	.cfi_def_cfa_offset 48
.LVL877:
	.loc 1 3244 1 view .LVU2390
	popq	%rbp
	.cfi_def_cfa_offset 40
.LVL878:
	.loc 1 3244 1 view .LVU2391
	popq	%r12
	.cfi_def_cfa_offset 32
.LVL879:
	.loc 1 3244 1 view .LVU2392
	popq	%r13
	.cfi_def_cfa_offset 24
.LVL880:
	.loc 1 3244 1 view .LVU2393
	popq	%r14
	.cfi_def_cfa_offset 16
	popq	%r15
	.cfi_def_cfa_offset 8
.LVL881:
	.loc 1 3244 1 view .LVU2394
	ret
.LVL882:
	.p2align 4,,10
	.p2align 3
.L755:
	.cfi_restore_state
.LBB1034:
	.loc 1 3204 21 view .LVU2395
	testl	%eax, %eax
	setg	%al
.LVL883:
	.loc 1 3204 21 view .LVU2396
	movzbl	%al, %eax
	.loc 1 3207 11 is_stmt 1 view .LVU2397
	.loc 1 3208 11 view .LVU2398
	.loc 1 3207 31 is_stmt 0 view .LVU2399
	movl	%eax, %edx
	.loc 1 3208 31 view .LVU2400
	subl	$2, %eax
	.loc 1 3207 31 view .LVU2401
	notl	%edx
	.loc 1 3208 31 view .LVU2402
	cltq
	.loc 1 3207 31 view .LVU2403
	movslq	%edx, %rdx
	.loc 1 3208 20 view .LVU2404
	salq	$5, %rax
	.loc 1 3207 20 view .LVU2405
	salq	$5, %rdx
	addq	%rbp, %rdx
	.loc 1 3208 20 view .LVU2406
	addq	%rax, %rbp
.LVL884:
	.loc 1 3207 20 view .LVU2407
	movdqu	(%rdx), %xmm0
	movdqu	16(%rdx), %xmm1
	movups	%xmm0, -32(%rbx)
	.loc 1 3208 20 view .LVU2408
	movdqu	0(%rbp), %xmm0
	.loc 1 3207 20 view .LVU2409
	movups	%xmm1, -16(%rbx)
	.loc 1 3208 20 view .LVU2410
	movdqu	16(%rbp), %xmm1
	movups	%xmm0, -64(%rbx)
	movups	%xmm1, -48(%rbx)
.LBE1034:
	.loc 1 3244 1 view .LVU2411
	addq	$24, %rsp
	.cfi_remember_state
	.cfi_def_cfa_offset 56
	popq	%rbx
	.cfi_def_cfa_offset 48
.LVL885:
	.loc 1 3244 1 view .LVU2412
	popq	%rbp
	.cfi_def_cfa_offset 40
	popq	%r12
	.cfi_def_cfa_offset 32
	popq	%r13
	.cfi_def_cfa_offset 24
	popq	%r14
	.cfi_def_cfa_offset 16
	popq	%r15
	.cfi_def_cfa_offset 8
	ret
.LVL886:
	.p2align 4,,10
	.p2align 3
.L752:
	.cfi_restore_state
.LBB1035:
	.loc 1 3226 9 view .LVU2413
	movq	%rbx, %rdx
	movq	%rbp, %rdi
	movl	$1, %ecx
	movq	%r12, %rsi
	movq	%r8, 8(%rsp)
.LVL887:
	.loc 1 3226 9 is_stmt 1 view .LVU2414
	call	sequential_sort
.LVL888:
	.loc 1 3230 7 view .LVU2415
	.loc 1 3231 7 view .LVU2416
	.loc 1 3232 7 view .LVU2417
	.loc 1 3226 9 is_stmt 0 view .LVU2418
	movq	8(%rsp), %r8
	movq	%rbx, %rax
	movq	%rbp, %rbx
.LVL889:
	.loc 1 3226 9 view .LVU2419
	movq	%rax, %rbp
.LVL890:
	.loc 1 3226 9 view .LVU2420
	movq	%r8, %r14
.LVL891:
	.loc 1 3226 9 view .LVU2421
	jmp	.L742
.LBE1035:
	.cfi_endproc
.LFE202:
	.size	sequential_sort, .-sequential_sort
	.p2align 4
	.type	write_unique, @function
write_unique:
.LVL892:
.LFB213:
	.loc 1 3427 1 is_stmt 1 view -0
	.cfi_startproc
	.loc 1 3428 3 view .LVU2423
	.loc 1 3427 1 is_stmt 0 view .LVU2424
	pushq	%r12
	.cfi_def_cfa_offset 16
	.cfi_offset 12, -16
	movq	%rsi, %r12
	subq	$16, %rsp
	.cfi_def_cfa_offset 32
	.loc 1 3428 6 view .LVU2425
	cmpb	$0, unique(%rip)
	je	.L757
	.loc 1 3430 7 is_stmt 1 view .LVU2426
	.loc 1 3430 10 is_stmt 0 view .LVU2427
	cmpq	$0, saved_line(%rip)
	je	.L760
	.loc 1 3430 32 discriminator 1 view .LVU2428
	leaq	saved_line(%rip), %rsi
.LVL893:
	.loc 1 3430 32 discriminator 1 view .LVU2429
	movq	%rdx, 8(%rsp)
	movq	%rdi, (%rsp)
	call	compare
.LVL894:
	.loc 1 3430 27 discriminator 1 view .LVU2430
	movq	(%rsp), %rdi
	movq	8(%rsp), %rdx
	testl	%eax, %eax
	je	.L762
.LVL895:
.L760:
	.loc 1 3432 7 is_stmt 1 view .LVU2431
	.loc 1 3432 18 is_stmt 0 view .LVU2432
	movdqu	(%rdi), %xmm0
	movaps	%xmm0, saved_line(%rip)
	movdqu	16(%rdi), %xmm1
	movaps	%xmm1, 16+saved_line(%rip)
.L757:
	.loc 1 3435 3 is_stmt 1 view .LVU2433
	.loc 1 3436 1 is_stmt 0 view .LVU2434
	addq	$16, %rsp
	.cfi_remember_state
	.cfi_def_cfa_offset 16
	.loc 1 3435 3 view .LVU2435
	movq	%r12, %rsi
	.loc 1 3436 1 view .LVU2436
	popq	%r12
	.cfi_def_cfa_offset 8
.LVL896:
	.loc 1 3435 3 view .LVU2437
	jmp	write_line
.LVL897:
	.p2align 4,,10
	.p2align 3
.L762:
	.cfi_restore_state
	.loc 1 3436 1 view .LVU2438
	addq	$16, %rsp
	.cfi_def_cfa_offset 16
.LVL898:
	.loc 1 3436 1 view .LVU2439
	popq	%r12
	.cfi_def_cfa_offset 8
.LVL899:
	.loc 1 3436 1 view .LVU2440
	ret
	.cfi_endproc
.LFE213:
	.size	write_unique, .-write_unique
	.p2align 4
	.type	move_fd.part.0, @function
move_fd.part.0:
.LVL900:
.LFB245:
	.loc 1 1024 1 is_stmt 1 view -0
	.cfi_startproc
	.loc 1 1029 7 view .LVU2442
	.loc 1 1024 1 is_stmt 0 view .LVU2443
	pushq	%rbp
	.cfi_def_cfa_offset 16
	.cfi_offset 6, -16
	.loc 1 1024 1 view .LVU2444
	movl	%edi, %ebp
	.loc 1 1029 7 view .LVU2445
	call	dup2@PLT
.LVL901:
	.loc 1 1030 7 is_stmt 1 view .LVU2446
	movl	%ebp, %edi
	.loc 1 1032 1 is_stmt 0 view .LVU2447
	popq	%rbp
	.cfi_def_cfa_offset 8
.LVL902:
	.loc 1 1030 7 view .LVU2448
	jmp	close@PLT
.LVL903:
	.loc 1 1030 7 view .LVU2449
	.cfi_endproc
.LFE245:
	.size	move_fd.part.0, .-move_fd.part.0
	.section	.rodata.str1.8
	.align 8
.LC24:
	.string	"couldn't create process for %s -d"
	.section	.rodata.str1.1
.LC25:
	.string	"-d"
	.section	.rodata.str1.8
	.align 8
.LC26:
	.string	"couldn't execute compress program (with -d)"
	.section	.rodata.str1.1
.LC27:
	.string	"r"
	.text
	.p2align 4
	.type	open_input_files, @function
open_input_files:
.LVL904:
.LFB198:
	.loc 1 2906 1 is_stmt 1 view -0
	.cfi_startproc
	.loc 1 2906 1 is_stmt 0 view .LVU2451
	pushq	%r15
	.cfi_def_cfa_offset 16
	.cfi_offset 15, -16
	pushq	%r14
	.cfi_def_cfa_offset 24
	.cfi_offset 14, -24
	pushq	%r13
	.cfi_def_cfa_offset 32
	.cfi_offset 13, -32
	pushq	%r12
	.cfi_def_cfa_offset 40
	.cfi_offset 12, -40
	pushq	%rbp
	.cfi_def_cfa_offset 48
	.cfi_offset 6, -48
	pushq	%rbx
	.cfi_def_cfa_offset 56
	.cfi_offset 3, -56
	movq	%rdi, %rbx
.LBB1048:
.LBB1049:
	.loc 4 101 7 view .LVU2452
	movq	%rsi, %rdi
.LVL905:
	.loc 4 101 7 view .LVU2453
.LBE1049:
.LBE1048:
	.loc 1 2906 1 view .LVU2454
	subq	$40, %rsp
	.cfi_def_cfa_offset 96
	.loc 1 2906 1 view .LVU2455
	movq	%fs:40, %rax
	movq	%rax, 24(%rsp)
	xorl	%eax, %eax
	.loc 1 2907 3 is_stmt 1 view .LVU2456
.LVL906:
.LBB1053:
.LBI1048:
	.loc 4 99 1 view .LVU2457
.LBB1050:
	.loc 4 101 3 view .LVU2458
	.loc 4 101 7 is_stmt 0 view .LVU2459
	movq	%rsi, %rax
	shrq	$61, %rax
	setne	%al
	salq	$3, %rdi
	js	.L803
	movzbl	%al, %eax
	.loc 4 101 6 view .LVU2460
	testq	%rax, %rax
	jne	.L803
	movq	%rdx, %r12
	.loc 4 103 3 is_stmt 1 view .LVU2461
	movq	%rsi, %rbp
	.loc 4 103 10 is_stmt 0 view .LVU2462
	call	xmalloc@PLT
.LVL907:
	.loc 4 103 10 view .LVU2463
.LBE1050:
.LBE1053:
	.loc 1 2907 22 view .LVU2464
	movq	%rax, (%r12)
.LBB1054:
.LBB1051:
	.loc 4 103 10 view .LVU2465
	movq	%rax, %r13
.LVL908:
	.loc 4 103 10 view .LVU2466
.LBE1051:
.LBE1054:
	.loc 1 2908 3 is_stmt 1 view .LVU2467
	.loc 1 2911 3 view .LVU2468
	.loc 1 2911 15 view .LVU2469
	.loc 1 2911 17 is_stmt 0 view .LVU2470
	xorl	%r12d, %r12d
.LVL909:
	.loc 1 2911 3 view .LVU2471
	testq	%rbp, %rbp
	je	.L765
.LBB1055:
.LBB1056:
	.loc 1 1188 17 view .LVU2472
	leaq	16(%rsp), %rax
.LVL910:
	.loc 1 1188 17 view .LVU2473
	movq	%rax, 8(%rsp)
	jmp	.L782
.LVL911:
	.p2align 4,,10
	.p2align 3
.L771:
	.loc 1 1188 17 view .LVU2474
.LBE1056:
.LBE1055:
	.loc 1 2915 19 discriminator 1 view .LVU2475
	movq	(%rbx), %rdi
	leaq	.LC27(%rip), %rsi
	call	stream_open
.LVL912:
	.loc 1 2913 14 discriminator 1 view .LVU2476
	movq	%rax, 0(%r13,%r12,8)
	.loc 1 2916 7 is_stmt 1 discriminator 1 view .LVU2477
	.loc 1 2916 10 is_stmt 0 discriminator 1 view .LVU2478
	testq	%rax, %rax
	je	.L765
.L781:
	.loc 1 2911 27 is_stmt 1 discriminator 2 view .LVU2479
.LVL913:
	.loc 1 2911 15 discriminator 2 view .LVU2480
	addq	$1, %r12
.LVL914:
	.loc 1 2911 15 is_stmt 0 discriminator 2 view .LVU2481
	addq	$16, %rbx
	.loc 1 2911 3 discriminator 2 view .LVU2482
	cmpq	%rbp, %r12
	je	.L765
.L782:
.LVL915:
	.loc 1 2913 7 is_stmt 1 view .LVU2483
	.loc 1 2913 25 is_stmt 0 view .LVU2484
	movq	8(%rbx), %r15
	.loc 1 2915 17 view .LVU2485
	testq	%r15, %r15
	je	.L771
	.loc 1 2913 47 view .LVU2486
	movzbl	12(%r15), %eax
	.loc 1 2913 31 view .LVU2487
	testb	%al, %al
	je	.L771
.LVL916:
.LBB1074:
.LBI1055:
	.loc 1 1176 1 is_stmt 1 view .LVU2488
.LBB1068:
	.loc 1 1178 3 view .LVU2489
	.loc 1 1179 3 view .LVU2490
	.loc 1 1181 3 view .LVU2491
	.loc 1 1181 6 is_stmt 0 view .LVU2492
	cmpb	$1, %al
	je	.L807
.L772:
	.loc 1 1184 3 is_stmt 1 view .LVU2493
.LVL917:
.LBB1057:
.LBI1057:
	.loc 6 41 1 view .LVU2494
.LBB1058:
	.loc 6 43 3 view .LVU2495
	.loc 6 46 3 view .LVU2496
	.loc 6 48 7 view .LVU2497
	.loc 6 53 7 view .LVU2498
.LBE1058:
.LBE1057:
	.loc 1 1184 22 is_stmt 0 view .LVU2499
	leaq	13(%r15), %rdi
.LVL918:
.LBB1060:
.LBB1059:
	.loc 6 53 14 view .LVU2500
	xorl	%esi, %esi
	xorl	%eax, %eax
	call	open@PLT
.LVL919:
	.loc 6 53 14 view .LVU2501
	movl	%eax, %r14d
.LVL920:
	.loc 6 53 14 view .LVU2502
.LBE1059:
.LBE1060:
	.loc 1 1185 3 is_stmt 1 view .LVU2503
	.loc 1 1185 6 is_stmt 0 view .LVU2504
	testl	%eax, %eax
	js	.L806
	.loc 1 1188 3 is_stmt 1 view .LVU2505
	.loc 1 1188 17 is_stmt 0 view .LVU2506
	movq	8(%rsp), %rdi
	movl	$9, %esi
	call	pipe_fork
.LVL921:
	.loc 1 1190 3 is_stmt 1 view .LVU2507
	cmpl	$-1, %eax
	jne	.L808
	.loc 1 1193 7 view .LVU2508
	.loc 1 1193 11 is_stmt 0 view .LVU2509
	call	__errno_location@PLT
.LVL922:
	.loc 1 1193 10 view .LVU2510
	cmpl	$24, (%rax)
	.loc 1 1193 11 view .LVU2511
	movq	%rax, %rbx
	.loc 1 1193 10 view .LVU2512
	jne	.L809
	.loc 1 1196 7 is_stmt 1 view .LVU2513
	movl	%r14d, %edi
	call	close@PLT
.LVL923:
	.loc 1 1197 7 view .LVU2514
	.loc 1 1197 13 is_stmt 0 view .LVU2515
	movl	$24, (%rbx)
.L806:
	.loc 1 1198 7 is_stmt 1 view .LVU2516
.LVL924:
	.loc 1 1198 7 is_stmt 0 view .LVU2517
.LBE1068:
.LBE1074:
	.loc 1 2913 14 view .LVU2518
	movq	$0, 0(%r13,%r12,8)
	.loc 1 2916 7 is_stmt 1 view .LVU2519
.LVL925:
.L765:
	.loc 1 2921 1 is_stmt 0 view .LVU2520
	movq	24(%rsp), %rax
	xorq	%fs:40, %rax
	jne	.L810
	addq	$40, %rsp
	.cfi_remember_state
	.cfi_def_cfa_offset 56
	movq	%r12, %rax
	popq	%rbx
	.cfi_def_cfa_offset 48
	popq	%rbp
	.cfi_def_cfa_offset 40
	popq	%r12
	.cfi_def_cfa_offset 32
	popq	%r13
	.cfi_def_cfa_offset 24
.LVL926:
	.loc 1 2921 1 view .LVU2521
	popq	%r14
	.cfi_def_cfa_offset 16
	popq	%r15
	.cfi_def_cfa_offset 8
	ret
.LVL927:
	.p2align 4,,10
	.p2align 3
.L808:
	.cfi_restore_state
.LBB1075:
.LBB1069:
	.loc 1 1190 3 view .LVU2522
	testl	%eax, %eax
	je	.L811
	.loc 1 1212 7 is_stmt 1 view .LVU2523
	.loc 1 1212 17 is_stmt 0 view .LVU2524
	movl	%eax, 8(%r15)
	.loc 1 1213 7 is_stmt 1 view .LVU2525
	movq	%r15, %rdi
	leaq	0(%r13,%r12,8), %r15
.LVL928:
	.loc 1 1213 7 is_stmt 0 view .LVU2526
	call	register_proc
.LVL929:
	.loc 1 1214 7 is_stmt 1 view .LVU2527
	movl	%r14d, %edi
	call	close@PLT
.LVL930:
	.loc 1 1215 7 view .LVU2528
	movl	20(%rsp), %edi
	call	close@PLT
.LVL931:
	.loc 1 1217 7 view .LVU2529
	.loc 1 1217 12 is_stmt 0 view .LVU2530
	movl	16(%rsp), %edi
	leaq	.LC27(%rip), %rsi
	call	fdopen@PLT
.LVL932:
	.loc 1 1218 7 is_stmt 1 view .LVU2531
	.loc 1 1218 10 is_stmt 0 view .LVU2532
	testq	%rax, %rax
	je	.L812
.LVL933:
	.loc 1 1218 10 view .LVU2533
.LBE1069:
.LBE1075:
	.loc 1 2913 14 view .LVU2534
	movq	%rax, 0(%r13,%r12,8)
	.loc 1 2916 7 is_stmt 1 view .LVU2535
	jmp	.L781
.LVL934:
	.p2align 4,,10
	.p2align 3
.L807:
.LBB1076:
.LBB1070:
	.loc 1 1182 5 view .LVU2536
	movl	8(%r15), %edi
	call	wait_proc
.LVL935:
	jmp	.L772
.LVL936:
.L812:
.LBB1061:
	.loc 1 1220 11 view .LVU2537
	.loc 1 1220 29 is_stmt 0 view .LVU2538
	call	__errno_location@PLT
.LVL937:
	.loc 1 1221 11 view .LVU2539
	movl	16(%rsp), %edi
	.loc 1 1220 15 view .LVU2540
	movl	(%rax), %ebp
.LVL938:
	.loc 1 1221 11 is_stmt 1 view .LVU2541
	.loc 1 1220 29 is_stmt 0 view .LVU2542
	movq	%rax, %rbx
	.loc 1 1221 11 view .LVU2543
	call	close@PLT
.LVL939:
	.loc 1 1222 11 is_stmt 1 view .LVU2544
.LBE1061:
.LBE1070:
.LBE1076:
	.loc 1 2913 14 is_stmt 0 view .LVU2545
	movq	$0, (%r15)
.LBB1077:
.LBB1071:
.LBB1062:
	.loc 1 1222 17 view .LVU2546
	movl	%ebp, (%rbx)
.LVL940:
	.loc 1 1222 17 view .LVU2547
.LBE1062:
.LBE1071:
.LBE1077:
	.loc 1 2916 7 is_stmt 1 view .LVU2548
	jmp	.L765
.LVL941:
.L811:
.LBB1078:
.LBB1072:
	.loc 1 1203 7 view .LVU2549
	movl	16(%rsp), %edi
	call	close@PLT
.LVL942:
	.loc 1 1204 7 view .LVU2550
.LBB1063:
.LBI1063:
	.loc 1 1024 1 view .LVU2551
.LBB1064:
	.loc 1 1026 3 view .LVU2552
	.loc 1 1026 6 is_stmt 0 view .LVU2553
	testl	%r14d, %r14d
	je	.L778
	xorl	%esi, %esi
	movl	%r14d, %edi
	call	move_fd.part.0
.LVL943:
.L778:
	.loc 1 1026 6 view .LVU2554
.LBE1064:
.LBE1063:
	.loc 1 1205 7 is_stmt 1 view .LVU2555
	movl	20(%rsp), %edi
.LVL944:
.LBB1065:
.LBI1065:
	.loc 1 1024 1 view .LVU2556
.LBB1066:
	.loc 1 1026 3 view .LVU2557
	.loc 1 1026 6 is_stmt 0 view .LVU2558
	cmpl	$1, %edi
	je	.L779
	movl	$1, %esi
	call	move_fd.part.0
.LVL945:
.L779:
	.loc 1 1026 6 view .LVU2559
.LBE1066:
.LBE1065:
	.loc 1 1207 7 is_stmt 1 view .LVU2560
	movq	compress_program(%rip), %rdi
	xorl	%ecx, %ecx
	leaq	.LC25(%rip), %rdx
	xorl	%eax, %eax
	movq	%rdi, %rsi
	call	execlp@PLT
.LVL946:
	.loc 1 1209 7 view .LVU2561
	.loc 1 1209 23 is_stmt 0 view .LVU2562
	call	__errno_location@PLT
.LVL947:
	.loc 1 1209 7 view .LVU2563
	leaq	.LC26(%rip), %rsi
	movl	(%rax), %edi
	call	async_safe_die
.LVL948:
.L810:
	.loc 1 1209 7 view .LVU2564
.LBE1072:
.LBE1078:
	.loc 1 2921 1 view .LVU2565
	call	__stack_chk_fail@PLT
.LVL949:
.L809:
.LBB1079:
.LBB1073:
.LBB1067:
	.loc 1 1194 9 is_stmt 1 view .LVU2566
	movq	compress_program(%rip), %rsi
	movl	$4, %edi
	call	quotearg_style@PLT
.LVL950:
	movl	$5, %edx
	leaq	.LC24(%rip), %rsi
	xorl	%edi, %edi
	movq	%rax, %r12
.LVL951:
	.loc 1 1194 9 is_stmt 0 view .LVU2567
	call	dcgettext@PLT
.LVL952:
	movl	(%rbx), %esi
	movq	%r12, %rcx
	movl	$2, %edi
	movq	%rax, %rdx
	xorl	%eax, %eax
	call	error@PLT
.LVL953:
.L803:
	.loc 1 1194 9 view .LVU2568
.LBE1067:
.LBE1073:
.LBE1079:
.LBB1080:
.LBB1052:
	.loc 4 102 5 is_stmt 1 view .LVU2569
	call	xalloc_die@PLT
.LVL954:
	.loc 4 102 5 is_stmt 0 view .LVU2570
.LBE1052:
.LBE1080:
	.cfi_endproc
.LFE198:
	.size	open_input_files, .-open_input_files
	.section	.rodata.str1.8
	.align 8
.LC28:
	.string	"cannot create temporary file in %s"
	.align 8
.LC29:
	.string	"couldn't execute compress program"
	.section	.rodata.str1.1
.LC30:
	.string	"w"
	.section	.rodata.str1.8
	.align 8
.LC31:
	.string	"couldn't create temporary file"
	.text
	.p2align 4
	.type	maybe_create_temp, @function
maybe_create_temp:
.LVL955:
.LFB159:
	.loc 1 1118 1 is_stmt 1 view -0
	.cfi_startproc
	.loc 1 1118 1 is_stmt 0 view .LVU2572
	pushq	%r15
	.cfi_def_cfa_offset 16
	.cfi_offset 15, -16
	pushq	%r14
	.cfi_def_cfa_offset 24
	.cfi_offset 14, -24
	pushq	%r13
	.cfi_def_cfa_offset 32
	.cfi_offset 13, -32
	pushq	%r12
	.cfi_def_cfa_offset 40
	.cfi_offset 12, -40
	pushq	%rbp
	.cfi_def_cfa_offset 48
	.cfi_offset 6, -48
	pushq	%rbx
	.cfi_def_cfa_offset 56
	.cfi_offset 3, -56
	subq	$168, %rsp
	.cfi_def_cfa_offset 224
.LBB1097:
.LBB1098:
	.loc 1 848 15 view .LVU2573
	movq	temp_dir_index.8780(%rip), %rdx
.LBE1098:
.LBE1097:
	.loc 1 1118 1 view .LVU2574
	movl	%esi, 12(%rsp)
	movq	%rdi, (%rsp)
	movq	%fs:40, %rax
	movq	%rax, 152(%rsp)
	xorl	%eax, %eax
	.loc 1 1119 3 is_stmt 1 view .LVU2575
	.loc 1 1120 3 view .LVU2576
.LVL956:
.LBB1127:
.LBI1097:
	.loc 1 842 1 view .LVU2577
.LBB1122:
	.loc 1 844 3 view .LVU2578
	.loc 1 845 3 view .LVU2579
	.loc 1 846 3 view .LVU2580
	.loc 1 847 3 view .LVU2581
	.loc 1 848 3 view .LVU2582
	.loc 1 848 15 is_stmt 0 view .LVU2583
	movq	temp_dirs(%rip), %rax
	movq	(%rax,%rdx,8), %r14
.LVL957:
	.loc 1 849 3 is_stmt 1 view .LVU2584
	.loc 1 849 16 is_stmt 0 view .LVU2585
	movq	%r14, %rdi
.LVL958:
	.loc 1 849 16 view .LVU2586
	call	strlen@PLT
.LVL959:
	.loc 1 851 14 view .LVU2587
	leaq	32(%rax), %rdi
	.loc 1 849 16 view .LVU2588
	movq	%rax, %rbx
.LVL960:
	.loc 1 850 3 is_stmt 1 view .LVU2589
	.loc 1 851 5 is_stmt 0 view .LVU2590
	andq	$-8, %rdi
	call	xmalloc@PLT
.LVL961:
.LBB1099:
.LBB1100:
	.loc 5 34 10 view .LVU2591
	movq	%rbx, %rdx
	movq	%r14, %rsi
.LBE1100:
.LBE1099:
	.loc 1 852 9 view .LVU2592
	leaq	13(%rax), %r15
	.loc 1 851 5 view .LVU2593
	movq	%rax, %r12
.LVL962:
	.loc 1 852 3 is_stmt 1 view .LVU2594
	.loc 1 853 3 view .LVU2595
	.loc 1 855 3 view .LVU2596
.LBB1102:
.LBI1099:
	.loc 5 31 1 view .LVU2597
.LBB1101:
	.loc 5 34 3 view .LVU2598
	.loc 5 34 10 is_stmt 0 view .LVU2599
	movq	%r15, %rdi
	call	memcpy@PLT
.LVL963:
	.loc 5 34 10 view .LVU2600
.LBE1101:
.LBE1102:
	.loc 1 856 3 is_stmt 1 view .LVU2601
.LBB1103:
.LBI1103:
	.loc 5 31 1 view .LVU2602
.LBB1104:
	.loc 5 34 3 view .LVU2603
	.loc 5 34 10 is_stmt 0 view .LVU2604
	movq	slashbase.8779(%rip), %rax
	movq	%rax, 13(%r12,%rbx)
	movl	8+slashbase.8779(%rip), %eax
	movl	%eax, 8(%r15,%rbx)
.LVL964:
	.loc 5 34 10 view .LVU2605
.LBE1104:
.LBE1103:
	.loc 1 857 3 is_stmt 1 view .LVU2606
	.loc 1 858 7 is_stmt 0 view .LVU2607
	movq	temp_dir_index.8780(%rip), %rax
	.loc 1 857 14 view .LVU2608
	movq	$0, (%r12)
	.loc 1 858 3 is_stmt 1 view .LVU2609
	.loc 1 858 7 is_stmt 0 view .LVU2610
	addq	$1, %rax
	.loc 1 858 6 view .LVU2611
	cmpq	temp_dir_count(%rip), %rax
	movq	%rax, temp_dir_index.8780(%rip)
	jne	.L814
	.loc 1 859 5 is_stmt 1 view .LVU2612
	.loc 1 859 20 is_stmt 0 view .LVU2613
	movq	$0, temp_dir_index.8780(%rip)
.L814:
	.loc 1 862 3 is_stmt 1 view .LVU2614
.LVL965:
.LBB1105:
.LBI1105:
	.loc 1 634 1 view .LVU2615
.LBB1106:
	.loc 1 636 3 view .LVU2616
	.loc 1 636 13 is_stmt 0 view .LVU2617
	leaq	24(%rsp), %rdx
	xorl	%edi, %edi
	leaq	16(%rsp), %r13
.LVL966:
	.loc 1 636 13 view .LVU2618
	leaq	caught_signals(%rip), %rsi
	call	pthread_sigmask@PLT
.LVL967:
	.loc 1 637 3 is_stmt 1 view .LVU2619
.LBE1106:
.LBE1105:
	.loc 1 863 8 is_stmt 0 view .LVU2620
	movl	$524288, %esi
	movq	%r15, %rdi
.LBB1108:
.LBB1107:
	.loc 1 637 23 view .LVU2621
	testl	%eax, %eax
	.loc 1 637 17 view .LVU2622
	sete	16(%rsp)
.LVL968:
	.loc 1 637 17 view .LVU2623
.LBE1107:
.LBE1108:
	.loc 1 863 3 is_stmt 1 view .LVU2624
	.loc 1 863 8 is_stmt 0 view .LVU2625
	call	mkostemp_safer@PLT
.LVL969:
	movl	%eax, %ebp
.LVL970:
	.loc 1 864 3 is_stmt 1 view .LVU2626
	call	__errno_location@PLT
.LVL971:
	.loc 1 864 3 is_stmt 0 view .LVU2627
	movq	%rax, %rbx
.LVL972:
	.loc 1 864 6 view .LVU2628
	testl	%ebp, %ebp
	js	.L815
	.loc 1 866 7 is_stmt 1 view .LVU2629
	movq	temptail(%rip), %rax
.LBB1109:
.LBB1110:
	.loc 1 644 6 is_stmt 0 view .LVU2630
	cmpb	$0, 16(%rsp)
.LBE1110:
.LBE1109:
	.loc 1 867 16 view .LVU2631
	movq	%r12, temptail(%rip)
	.loc 1 866 17 view .LVU2632
	movq	%r12, (%rax)
	.loc 1 867 7 is_stmt 1 view .LVU2633
	.loc 1 869 3 view .LVU2634
.LVL973:
	.loc 1 870 3 view .LVU2635
.LBB1116:
.LBI1109:
	.loc 1 642 1 view .LVU2636
.LBB1111:
	.loc 1 644 3 view .LVU2637
	.loc 1 644 6 is_stmt 0 view .LVU2638
	jne	.L836
.LVL974:
.L817:
	.loc 1 644 6 view .LVU2639
.LBE1111:
.LBE1116:
	.loc 1 882 3 is_stmt 1 view .LVU2640
	.loc 1 883 3 view .LVU2641
	.loc 1 883 3 is_stmt 0 view .LVU2642
.LBE1122:
.LBE1127:
	.loc 1 1121 3 is_stmt 1 view .LVU2643
	.loc 1 1124 3 view .LVU2644
	.loc 1 1126 6 is_stmt 0 view .LVU2645
	cmpq	$0, compress_program(%rip)
	.loc 1 1124 15 view .LVU2646
	movb	$0, 12(%r12)
	.loc 1 1126 3 is_stmt 1 view .LVU2647
	.loc 1 1126 6 is_stmt 0 view .LVU2648
	je	.L821
.LBB1128:
	.loc 1 1128 7 is_stmt 1 view .LVU2649
	.loc 1 1130 7 view .LVU2650
	.loc 1 1130 19 is_stmt 0 view .LVU2651
	movl	$4, %esi
	movq	%r13, %rdi
	call	pipe_fork
.LVL975:
	.loc 1 1130 17 view .LVU2652
	movl	%eax, 8(%r12)
	.loc 1 1131 7 is_stmt 1 view .LVU2653
	.loc 1 1131 10 is_stmt 0 view .LVU2654
	testl	%eax, %eax
	jg	.L837
	.loc 1 1139 12 is_stmt 1 view .LVU2655
	.loc 1 1139 15 is_stmt 0 view .LVU2656
	je	.L838
.L821:
	.loc 1 1139 15 view .LVU2657
.LBE1128:
	.loc 1 1153 3 is_stmt 1 view .LVU2658
	.loc 1 1153 10 is_stmt 0 view .LVU2659
	leaq	.LC30(%rip), %rsi
	movl	%ebp, %edi
	call	fdopen@PLT
.LVL976:
	.loc 1 1153 8 view .LVU2660
	movq	(%rsp), %rcx
	movq	%rax, (%rcx)
	.loc 1 1154 3 is_stmt 1 view .LVU2661
	.loc 1 1154 6 is_stmt 0 view .LVU2662
	testq	%rax, %rax
	je	.L839
.LVL977:
.L813:
	.loc 1 1158 1 view .LVU2663
	movq	152(%rsp), %rax
	xorq	%fs:40, %rax
	jne	.L840
	addq	$168, %rsp
	.cfi_remember_state
	.cfi_def_cfa_offset 56
.LVL978:
	.loc 1 1158 1 view .LVU2664
	movq	%r12, %rax
	popq	%rbx
	.cfi_def_cfa_offset 48
	popq	%rbp
	.cfi_def_cfa_offset 40
	popq	%r12
	.cfi_def_cfa_offset 32
	popq	%r13
	.cfi_def_cfa_offset 24
	popq	%r14
	.cfi_def_cfa_offset 16
	popq	%r15
	.cfi_def_cfa_offset 8
	ret
.LVL979:
	.p2align 4,,10
	.p2align 3
.L837:
	.cfi_restore_state
.LBB1133:
	.loc 1 1133 11 is_stmt 1 view .LVU2665
	movl	%ebp, %edi
	call	close@PLT
.LVL980:
	.loc 1 1134 11 view .LVU2666
	movl	16(%rsp), %edi
	call	close@PLT
.LVL981:
	.loc 1 1135 11 view .LVU2667
	.loc 1 1137 11 is_stmt 0 view .LVU2668
	movq	%r12, %rdi
	.loc 1 1135 27 view .LVU2669
	movl	20(%rsp), %ebp
	.loc 1 1137 11 is_stmt 1 view .LVU2670
	call	register_proc
.LVL982:
	.loc 1 1137 11 is_stmt 0 view .LVU2671
	jmp	.L821
.LVL983:
	.p2align 4,,10
	.p2align 3
.L815:
	.loc 1 1137 11 view .LVU2672
.LBE1133:
.LBB1134:
.LBB1123:
	.loc 1 869 3 is_stmt 1 view .LVU2673
.LBB1117:
.LBB1112:
	.loc 1 644 6 is_stmt 0 view .LVU2674
	cmpb	$0, 16(%rsp)
.LBE1112:
.LBE1117:
	.loc 1 869 15 view .LVU2675
	movl	(%rax), %ebp
.LVL984:
	.loc 1 870 3 is_stmt 1 view .LVU2676
.LBB1118:
	.loc 1 642 1 view .LVU2677
.LBB1113:
	.loc 1 644 3 view .LVU2678
	.loc 1 644 6 is_stmt 0 view .LVU2679
	jne	.L841
.LVL985:
.L826:
	.loc 1 644 6 view .LVU2680
.LBE1113:
.LBE1118:
	.loc 1 875 7 is_stmt 1 view .LVU2681
	.loc 1 875 11 is_stmt 0 view .LVU2682
	cmpl	$24, %ebp
	jne	.L828
	cmpb	$1, 12(%rsp)
	jne	.L828
	.loc 1 878 7 is_stmt 1 view .LVU2683
	movq	%r12, %rdi
.LBE1123:
.LBE1134:
	.loc 1 1122 12 is_stmt 0 view .LVU2684
	xorl	%r12d, %r12d
.LVL986:
.LBB1135:
.LBB1124:
	.loc 1 878 7 view .LVU2685
	call	free@PLT
.LVL987:
	.loc 1 879 7 is_stmt 1 view .LVU2686
	.loc 1 882 3 view .LVU2687
	.loc 1 883 3 view .LVU2688
	.loc 1 883 3 is_stmt 0 view .LVU2689
.LBE1124:
.LBE1135:
	.loc 1 1121 3 is_stmt 1 view .LVU2690
	jmp	.L813
.LVL988:
	.p2align 4,,10
	.p2align 3
.L836:
.LBB1136:
.LBB1125:
	.loc 1 869 15 is_stmt 0 view .LVU2691
	movl	(%rbx), %r14d
.LVL989:
.LBB1119:
.LBB1114:
	.loc 1 869 15 view .LVU2692
	movq	%r13, %rdi
	call	cs_leave.part.0
.LVL990:
	.loc 1 869 15 view .LVU2693
.LBE1114:
.LBE1119:
	.loc 1 871 3 is_stmt 1 view .LVU2694
	.loc 1 871 9 is_stmt 0 view .LVU2695
	movl	%r14d, (%rbx)
	.loc 1 873 3 is_stmt 1 view .LVU2696
	jmp	.L817
.LVL991:
	.p2align 4,,10
	.p2align 3
.L841:
.LBB1120:
.LBB1115:
	.loc 1 873 3 is_stmt 0 view .LVU2697
	movq	%r13, %rdi
	call	cs_leave.part.0
.LVL992:
	.loc 1 873 3 view .LVU2698
.LBE1115:
.LBE1120:
	.loc 1 871 3 is_stmt 1 view .LVU2699
	.loc 1 871 9 is_stmt 0 view .LVU2700
	movl	%ebp, (%rbx)
	.loc 1 873 3 is_stmt 1 view .LVU2701
	jmp	.L826
.LVL993:
.L838:
	.loc 1 873 3 is_stmt 0 view .LVU2702
.LBE1125:
.LBE1136:
.LBB1137:
	.loc 1 1143 11 is_stmt 1 view .LVU2703
	movl	20(%rsp), %edi
	call	close@PLT
.LVL994:
	.loc 1 1144 11 view .LVU2704
.LBB1129:
.LBI1129:
	.loc 1 1024 1 view .LVU2705
.LBB1130:
	.loc 1 1026 3 view .LVU2706
	.loc 1 1026 6 is_stmt 0 view .LVU2707
	cmpl	$1, %ebp
	je	.L824
	movl	$1, %esi
	movl	%ebp, %edi
	call	move_fd.part.0
.LVL995:
.L824:
	.loc 1 1026 6 view .LVU2708
.LBE1130:
.LBE1129:
	.loc 1 1145 11 is_stmt 1 view .LVU2709
	movl	16(%rsp), %edi
.LVL996:
.LBB1131:
.LBI1131:
	.loc 1 1024 1 view .LVU2710
.LBB1132:
	.loc 1 1026 3 view .LVU2711
	.loc 1 1026 6 is_stmt 0 view .LVU2712
	testl	%edi, %edi
	je	.L825
	xorl	%esi, %esi
	call	move_fd.part.0
.LVL997:
.L825:
	.loc 1 1026 6 view .LVU2713
.LBE1132:
.LBE1131:
	.loc 1 1147 11 is_stmt 1 view .LVU2714
	movq	compress_program(%rip), %rdi
	xorl	%edx, %edx
	xorl	%eax, %eax
	movq	%rdi, %rsi
	call	execlp@PLT
.LVL998:
	.loc 1 1149 11 view .LVU2715
	movl	(%rbx), %edi
	leaq	.LC29(%rip), %rsi
	call	async_safe_die
.LVL999:
.L840:
	.loc 1 1149 11 is_stmt 0 view .LVU2716
.LBE1137:
	.loc 1 1158 1 view .LVU2717
	call	__stack_chk_fail@PLT
.LVL1000:
.L839:
	.loc 1 1155 5 is_stmt 1 view .LVU2718
	.loc 1 1155 15 is_stmt 0 view .LVU2719
	leaq	.LC31(%rip), %rsi
	xorl	%edi, %edi
	movl	$5, %edx
	call	dcgettext@PLT
.LVL1001:
	.loc 1 1155 5 view .LVU2720
	movq	%r15, %rsi
	.loc 1 1155 15 view .LVU2721
	movq	%rax, %rdi
	.loc 1 1155 5 view .LVU2722
	call	sort_die
.LVL1002:
.L828:
.LBB1138:
.LBB1126:
.LBB1121:
	.loc 1 876 9 is_stmt 1 view .LVU2723
	movq	%r14, %rsi
	movl	$4, %edi
	call	quotearg_style@PLT
.LVL1003:
	movl	$5, %edx
	leaq	.LC28(%rip), %rsi
	xorl	%edi, %edi
	movq	%rax, %r12
.LVL1004:
	.loc 1 876 9 is_stmt 0 view .LVU2724
	call	dcgettext@PLT
.LVL1005:
	movl	(%rbx), %esi
	movq	%r12, %rcx
	movl	$2, %edi
	movq	%rax, %rdx
	xorl	%eax, %eax
	call	error@PLT
.LVL1006:
.LBE1121:
.LBE1126:
.LBE1138:
	.cfi_endproc
.LFE159:
	.size	maybe_create_temp, .-maybe_create_temp
	.p2align 4
	.type	queue_check_insert.part.0, @function
queue_check_insert.part.0:
.LVL1007:
.LFB246:
	.loc 1 3514 1 is_stmt 1 view -0
	.cfi_startproc
.LBB1139:
	.loc 1 3518 7 view .LVU2726
	.loc 1 3519 7 view .LVU2727
	.loc 1 3519 28 is_stmt 0 view .LVU2728
	movq	8(%rsi), %rdx
	.loc 1 3519 39 view .LVU2729
	movq	24(%rsi), %rax
.LVL1008:
	.loc 1 3520 7 is_stmt 1 view .LVU2730
	.loc 1 3520 11 is_stmt 0 view .LVU2731
	movq	16(%rsi), %rcx
	cmpq	%rcx, (%rsi)
	je	.L843
	.loc 1 3520 31 view .LVU2732
	cmpq	%rax, %rdx
	je	.L846
.L844:
	.loc 1 3521 9 is_stmt 1 view .LVU2733
	jmp	queue_insert
.LVL1009:
	.p2align 4,,10
	.p2align 3
.L846:
	.loc 1 3520 10 is_stmt 0 view .LVU2734
	cmpq	$0, 48(%rsi)
	je	.L844
.L842:
	.loc 1 3520 10 view .LVU2735
.LBE1139:
	.loc 1 3523 1 view .LVU2736
	ret
	.p2align 4,,10
	.p2align 3
.L843:
.LBB1140:
	.loc 1 3520 57 view .LVU2737
	cmpq	%rax, %rdx
	je	.L842
	cmpq	$0, 40(%rsi)
	jne	.L842
	.loc 1 3521 9 is_stmt 1 view .LVU2738
	jmp	queue_insert
.LVL1010:
	.loc 1 3521 9 is_stmt 0 view .LVU2739
.LBE1140:
	.cfi_endproc
.LFE246:
	.size	queue_check_insert.part.0, .-queue_check_insert.part.0
	.p2align 4
	.type	sortlines, @function
sortlines:
.LVL1011:
.LFB219:
	.loc 1 3647 1 is_stmt 1 view -0
	.cfi_startproc
	.loc 1 3647 1 is_stmt 0 view .LVU2741
	pushq	%r15
	.cfi_def_cfa_offset 16
	.cfi_offset 15, -16
	movq	%r8, %r15
	.loc 1 3651 10 view .LVU2742
	movq	%rsi, %r8
.LVL1012:
	.loc 1 3647 1 view .LVU2743
	pushq	%r14
	.cfi_def_cfa_offset 24
	.cfi_offset 14, -24
	.loc 1 3651 10 view .LVU2744
	shrq	%r8
	.loc 1 3647 1 view .LVU2745
	pushq	%r13
	.cfi_def_cfa_offset 32
	.cfi_offset 13, -32
	pushq	%r12
	.cfi_def_cfa_offset 40
	.cfi_offset 12, -40
	pushq	%rbp
	.cfi_def_cfa_offset 48
	.cfi_offset 6, -48
	movq	%rcx, %rbp
	pushq	%rbx
	.cfi_def_cfa_offset 56
	.cfi_offset 3, -56
	movq	%rdi, %rbx
	subq	$152, %rsp
	.cfi_def_cfa_offset 208
	.loc 1 3648 23 view .LVU2746
	movq	40(%rcx), %r14
	.loc 1 3648 35 view .LVU2747
	movq	48(%rcx), %r12
	.loc 1 3647 1 view .LVU2748
	movq	208(%rsp), %rdi
.LVL1013:
	.loc 1 3647 1 view .LVU2749
	movq	%rdx, 32(%rsp)
	movq	%r9, 8(%rsp)
	movq	%rdi, 16(%rsp)
	movq	%fs:40, %rax
	movq	%rax, 136(%rsp)
	xorl	%eax, %eax
	.loc 1 3648 3 is_stmt 1 view .LVU2750
.LVL1014:
	.loc 1 3651 3 view .LVU2751
	.loc 1 3652 3 view .LVU2752
	.loc 1 3653 3 view .LVU2753
	.loc 1 3654 3 view .LVU2754
	.loc 1 3654 22 is_stmt 0 view .LVU2755
	movq	64(%rcx), %rax
	movq	%rbx, 80(%rsp)
	movq	%r8, 88(%rsp)
	movq	%rax, 104(%rsp)
	.loc 1 3648 10 view .LVU2756
	leaq	(%r14,%r12), %rax
.LVL1015:
	.loc 1 3654 22 view .LVU2757
	movq	%r8, 24(%rsp)
	movq	%rdx, 96(%rsp)
	movq	%r15, 112(%rsp)
	movq	%r9, 120(%rsp)
	movq	%rdi, 128(%rsp)
	.loc 1 3657 3 is_stmt 1 view .LVU2758
	.loc 1 3657 6 is_stmt 0 view .LVU2759
	cmpq	$131071, %rax
	jbe	.L848
	movq	%rsi, %r13
	cmpq	$1, %rsi
	ja	.L924
.LVL1016:
.L848:
.LBB1168:
	.loc 1 3668 7 is_stmt 1 view .LVU2760
	.loc 1 3669 7 view .LVU2761
	.loc 1 3670 7 view .LVU2762
	.loc 1 3670 33 is_stmt 0 view .LVU2763
	movq	32(%rsp), %rax
	.loc 1 3670 20 view .LVU2764
	movq	%rbx, %r8
	movq	%rbx, %r9
	.loc 1 3670 33 view .LVU2765
	salq	$5, %rax
	.loc 1 3670 20 view .LVU2766
	subq	%rax, %r8
.LVL1017:
	.loc 1 3671 7 is_stmt 1 view .LVU2767
	movq	%r14, %rax
	salq	$5, %rax
	movq	%rax, %r13
	subq	%rax, %r9
	negq	%r13
	.loc 1 3671 10 is_stmt 0 view .LVU2768
	cmpq	$1, %r12
	jbe	.L851
	.loc 1 3672 9 is_stmt 1 view .LVU2769
	.loc 1 3672 55 is_stmt 0 view .LVU2770
	movq	%r14, %rax
	.loc 1 3672 9 view .LVU2771
	movq	%r8, %rdx
	movq	%r9, %rdi
	xorl	%ecx, %ecx
	.loc 1 3672 55 view .LVU2772
	shrq	%rax
	.loc 1 3672 9 view .LVU2773
	movq	%r12, %rsi
	movq	%r8, 40(%rsp)
	.loc 1 3672 49 view .LVU2774
	salq	$5, %rax
	.loc 1 3672 9 view .LVU2775
	movq	%r9, 24(%rsp)
.LVL1018:
	.loc 1 3672 9 view .LVU2776
	subq	%rax, %rdx
	call	sequential_sort
.LVL1019:
	.loc 1 3672 9 view .LVU2777
	movq	40(%rsp), %r8
	movq	24(%rsp), %r9
.LVL1020:
.L851:
	.loc 1 3673 7 is_stmt 1 view .LVU2778
	.loc 1 3673 10 is_stmt 0 view .LVU2779
	cmpq	$1, %r14
	jbe	.L852
	.loc 1 3674 9 view .LVU2780
	xorl	%ecx, %ecx
	movq	%r8, %rdx
	movq	%r14, %rsi
	movq	%rbx, %rdi
	movq	%r9, 24(%rsp)
	.loc 1 3674 9 is_stmt 1 view .LVU2781
	call	sequential_sort
.LVL1021:
	movq	24(%rsp), %r9
.L852:
	.loc 1 3677 7 view .LVU2782
	.loc 1 3680 34 is_stmt 0 view .LVU2783
	salq	$5, %r12
	.loc 1 3677 16 view .LVU2784
	movq	%rbx, 0(%rbp)
	.loc 1 3678 7 is_stmt 1 view .LVU2785
	.loc 1 3682 7 is_stmt 0 view .LVU2786
	movq	%rbp, %rsi
	movq	%r15, %rdi
	.loc 1 3680 34 view .LVU2787
	subq	%r12, %r13
	.loc 1 3678 16 view .LVU2788
	movq	%r9, 8(%rbp)
	.loc 1 3679 7 is_stmt 1 view .LVU2789
	.loc 1 3680 34 is_stmt 0 view .LVU2790
	addq	%r13, %rbx
.LVL1022:
	.loc 1 3679 20 view .LVU2791
	movq	%r9, 16(%rbp)
	.loc 1 3680 7 is_stmt 1 view .LVU2792
	.loc 1 3680 34 is_stmt 0 view .LVU2793
	movq	%rbx, 24(%rbp)
	.loc 1 3682 7 is_stmt 1 view .LVU2794
	call	queue_insert
.LVL1023:
	.loc 1 3683 7 view .LVU2795
.LBB1169:
.LBI1169:
	.loc 1 3552 1 view .LVU2796
	leaq	8(%r15), %rax
	movq	%rax, 24(%rsp)
.LBB1170:
.LBB1171:
.LBB1172:
.LBB1173:
	.loc 1 3411 5 is_stmt 0 view .LVU2797
	leaq	48(%r15), %rax
	movq	%rax, 56(%rsp)
.LVL1024:
	.p2align 4,,10
	.p2align 3
.L888:
	.loc 1 3411 5 view .LVU2798
.LBE1173:
.LBE1172:
.LBE1171:
	.loc 1 3555 3 is_stmt 1 view .LVU2799
.LBB1207:
	.loc 1 3557 7 view .LVU2800
.LBB1178:
.LBI1172:
	.loc 1 3406 1 view .LVU2801
.LBB1176:
	.loc 1 3408 3 view .LVU2802
	.loc 1 3409 3 view .LVU2803
	movq	24(%rsp), %rdi
	call	pthread_mutex_lock@PLT
.LVL1025:
	.loc 1 3410 3 view .LVU2804
	.loc 1 3410 9 is_stmt 0 view .LVU2805
	jmp	.L853
.LVL1026:
	.p2align 4,,10
	.p2align 3
.L854:
	.loc 1 3411 5 is_stmt 1 view .LVU2806
	movq	24(%rsp), %rsi
	movq	56(%rsp), %rdi
	call	pthread_cond_wait@PLT
.LVL1027:
.L853:
	.loc 1 3410 9 view .LVU2807
	.loc 1 3410 20 is_stmt 0 view .LVU2808
	movq	(%r15), %rdi
	call	heap_remove_top@PLT
.LVL1028:
	movq	%rax, %rbp
.LVL1029:
	.loc 1 3410 9 view .LVU2809
	testq	%rax, %rax
	je	.L854
	.loc 1 3412 3 is_stmt 1 view .LVU2810
	movq	24(%rsp), %rdi
	call	pthread_mutex_unlock@PLT
.LVL1030:
	.loc 1 3413 3 view .LVU2811
.LBB1174:
.LBI1174:
	.loc 1 3353 1 view .LVU2812
.LBB1175:
	.loc 1 3355 3 view .LVU2813
	leaq	88(%rbp), %rax
	movq	%rax, %rdi
	movq	%rax, 40(%rsp)
	call	pthread_mutex_lock@PLT
.LVL1031:
	.loc 1 3355 3 is_stmt 0 view .LVU2814
.LBE1175:
.LBE1174:
	.loc 1 3414 3 is_stmt 1 view .LVU2815
.LBE1176:
.LBE1178:
	.loc 1 3559 15 is_stmt 0 view .LVU2816
	movl	80(%rbp), %eax
.LBB1179:
.LBB1177:
	.loc 1 3414 16 view .LVU2817
	movb	$0, 84(%rbp)
	.loc 1 3415 3 is_stmt 1 view .LVU2818
.LVL1032:
	.loc 1 3415 3 is_stmt 0 view .LVU2819
.LBE1177:
.LBE1179:
	.loc 1 3559 7 is_stmt 1 view .LVU2820
	.loc 1 3559 10 is_stmt 0 view .LVU2821
	testl	%eax, %eax
	je	.L925
	.loc 1 3566 7 is_stmt 1 view .LVU2822
.LVL1033:
.LBB1180:
.LBI1180:
	.loc 1 3446 1 view .LVU2823
.LBB1181:
	.loc 1 3449 3 view .LVU2824
	.loc 1 3451 21 is_stmt 0 view .LVU2825
	movq	32(%rsp), %rsi
	.loc 1 3449 16 view .LVU2826
	movq	0(%rbp), %r14
	.loc 1 3451 21 view .LVU2827
	leal	2(%rax,%rax), %ecx
	.loc 1 3450 16 view .LVU2828
	movq	8(%rbp), %r12
	movq	16(%rbp), %r8
	.loc 1 3451 21 view .LVU2829
	shrq	%cl, %rsi
	.loc 1 3449 16 view .LVU2830
	movq	%r14, %rbx
.LVL1034:
	.loc 1 3450 3 is_stmt 1 view .LVU2831
	.loc 1 3451 3 view .LVU2832
	.loc 1 3451 10 is_stmt 0 view .LVU2833
	addq	$1, %rsi
.LVL1035:
	.loc 1 3452 3 is_stmt 1 view .LVU2834
	.loc 1 3453 3 view .LVU2835
	.loc 1 3455 3 view .LVU2836
	.loc 1 3455 6 is_stmt 0 view .LVU2837
	cmpl	$1, %eax
	jbe	.L926
.LBB1182:
	.loc 1 3458 7 is_stmt 1 view .LVU2838
	.loc 1 3458 32 is_stmt 0 view .LVU2839
	movq	32(%rbp), %r10
	.loc 1 3459 13 view .LVU2840
	movq	%r12, %rcx
	movq	%r14, %rdx
	movq	%r14, %r9
	.loc 1 3458 20 view .LVU2841
	movq	(%r10), %r13
.LVL1036:
	.loc 1 3459 7 is_stmt 1 view .LVU2842
	.loc 1 3459 13 view .LVU2843
	cmpq	%r8, %r14
	jne	.L859
	jmp	.L927
.LVL1037:
	.p2align 4,,10
	.p2align 3
.L861:
	.loc 1 3463 11 view .LVU2844
	.loc 1 3463 28 is_stmt 0 view .LVU2845
	movq	8(%rbp), %rax
	movq	0(%rbp), %rdx
	.loc 1 3459 30 view .LVU2846
	movq	16(%rbp), %r8
	.loc 1 3463 19 view .LVU2847
	movdqu	-32(%rax), %xmm2
	.loc 1 3463 22 view .LVU2848
	leaq	-32(%rax), %rcx
	.loc 1 3463 19 view .LVU2849
	movq	%rcx, 8(%rbp)
.LVL1038:
	.loc 1 3459 13 is_stmt 1 view .LVU2850
	.loc 1 3463 19 is_stmt 0 view .LVU2851
	movups	%xmm2, 0(%r13)
	movdqu	-16(%rax), %xmm3
	movups	%xmm3, 16(%r13)
	.loc 1 3459 13 view .LVU2852
	cmpq	%rdx, %r8
	je	.L928
.L893:
	.loc 1 3459 13 view .LVU2853
	movq	%rbx, %rsi
.LVL1039:
.L859:
	.loc 1 3459 39 view .LVU2854
	cmpq	%rcx, 24(%rbp)
	je	.L929
	.loc 1 3459 78 view .LVU2855
	leaq	-1(%rsi), %rbx
.LVL1040:
	.loc 1 3459 67 view .LVU2856
	testq	%rsi, %rsi
	je	.L930
	.loc 1 3460 45 view .LVU2857
	leaq	-32(%rcx), %rsi
	.loc 1 3460 31 view .LVU2858
	leaq	-32(%rdx), %rdi
	movq	%r9, 48(%rsp)
	.loc 1 3460 9 is_stmt 1 view .LVU2859
	subq	$32, %r13
.LVL1041:
	.loc 1 3460 13 is_stmt 0 view .LVU2860
	call	compare
.LVL1042:
	.loc 1 3460 12 view .LVU2861
	movq	48(%rsp), %r9
	testl	%eax, %eax
	jg	.L861
	.loc 1 3461 11 is_stmt 1 view .LVU2862
	.loc 1 3461 28 is_stmt 0 view .LVU2863
	movq	0(%rbp), %rax
	.loc 1 3459 30 view .LVU2864
	movq	16(%rbp), %r8
	movq	8(%rbp), %rcx
	.loc 1 3461 19 view .LVU2865
	movdqu	-32(%rax), %xmm0
	.loc 1 3461 22 view .LVU2866
	leaq	-32(%rax), %rdx
	.loc 1 3461 19 view .LVU2867
	movq	%rdx, 0(%rbp)
.LVL1043:
	.loc 1 3459 13 is_stmt 1 view .LVU2868
	.loc 1 3461 19 is_stmt 0 view .LVU2869
	movups	%xmm0, 0(%r13)
	movdqu	-16(%rax), %xmm1
	movups	%xmm1, 16(%r13)
	.loc 1 3459 13 view .LVU2870
	cmpq	%rdx, %r8
	jne	.L893
.L928:
	movq	%rbx, %r11
	movq	%r12, %rax
	movq	%r9, %rbx
.LVL1044:
	.loc 1 3459 13 view .LVU2871
	movq	32(%rbp), %r10
	subq	%rdx, %rbx
	subq	%rcx, %rax
	movzbl	84(%rbp), %r9d
	.loc 1 3459 78 view .LVU2872
	movq	%r11, %rsi
	sarq	$5, %rbx
	sarq	$5, %rax
.LVL1045:
.L860:
	.loc 1 3465 7 is_stmt 1 view .LVU2873
	.loc 1 3466 7 view .LVU2874
	.loc 1 3468 7 view .LVU2875
	.loc 1 3468 15 is_stmt 0 view .LVU2876
	movq	48(%rbp), %r11
	movq	40(%rbp), %rdi
	.loc 1 3468 10 view .LVU2877
	cmpq	%rax, %r11
	je	.L867
.LVL1046:
.L866:
	.loc 1 3471 12 is_stmt 1 view .LVU2878
	.loc 1 3471 15 is_stmt 0 view .LVU2879
	cmpq	%rbx, %rdi
	jne	.L867
	.loc 1 3472 15 is_stmt 1 view .LVU2880
	.loc 1 3472 32 is_stmt 0 view .LVU2881
	movq	24(%rbp), %rbx
	.loc 1 3472 15 view .LVU2882
	cmpq	%rcx, %rbx
	je	.L867
	.loc 1 3472 52 view .LVU2883
	leaq	-1(%rsi), %r8
.LVL1047:
	.loc 1 3472 41 view .LVU2884
	testq	%rsi, %rsi
	je	.L867
	subq	$32, %rcx
	jmp	.L870
	.p2align 4,,10
	.p2align 3
.L869:
	.loc 1 3472 52 view .LVU2885
	subq	$1, %r8
.LVL1048:
	.loc 1 3472 52 view .LVU2886
	subq	$32, %rcx
	.loc 1 3472 41 view .LVU2887
	cmpq	$-1, %r8
	je	.L931
.L870:
	.loc 1 3473 11 is_stmt 1 view .LVU2888
	.loc 1 3473 19 is_stmt 0 view .LVU2889
	movdqu	(%rcx), %xmm6
	subq	$32, %r13
.LVL1049:
	.loc 1 3473 19 view .LVU2890
	movq	%rcx, 8(%rbp)
	.loc 1 3473 22 view .LVU2891
	movq	%rcx, %rax
	.loc 1 3473 19 view .LVU2892
	movups	%xmm6, 0(%r13)
	movdqu	16(%rcx), %xmm7
	movups	%xmm7, 16(%r13)
	.loc 1 3472 15 is_stmt 1 view .LVU2893
	cmpq	%rbx, %rcx
	jne	.L869
	.loc 1 3472 15 is_stmt 0 view .LVU2894
	movq	%r12, %rax
	subq	%rcx, %rax
	sarq	$5, %rax
	jmp	.L867
.LVL1050:
	.p2align 4,,10
	.p2align 3
.L930:
	.loc 1 3472 15 view .LVU2895
	movq	%r9, %rbx
.LVL1051:
	.loc 1 3472 15 view .LVU2896
	movq	%r12, %rax
	movq	32(%rbp), %r10
	movzbl	84(%rbp), %r9d
	subq	%rdx, %rbx
	subq	%rcx, %rax
	.loc 1 3459 67 view .LVU2897
	movq	0(%rbp), %rdx
	movq	$-1, %rsi
.LVL1052:
	.loc 1 3459 67 view .LVU2898
	sarq	$5, %rbx
	sarq	$5, %rax
.L864:
.LVL1053:
	.loc 1 3465 7 is_stmt 1 view .LVU2899
	.loc 1 3466 7 view .LVU2900
	.loc 1 3468 7 view .LVU2901
	.loc 1 3468 15 is_stmt 0 view .LVU2902
	movq	48(%rbp), %r11
	movq	40(%rbp), %rdi
	.loc 1 3468 10 view .LVU2903
	cmpq	%rax, %r11
	jne	.L866
	.loc 1 3469 15 is_stmt 1 view .LVU2904
	cmpq	%rdx, %r8
	je	.L867
	.loc 1 3469 52 is_stmt 0 view .LVU2905
	leaq	-1(%rsi), %rcx
.LVL1054:
	.loc 1 3469 41 view .LVU2906
	testq	%rsi, %rsi
	je	.L867
	leaq	-32(%rdx), %rsi
	jmp	.L868
	.p2align 4,,10
	.p2align 3
.L932:
	.loc 1 3469 52 view .LVU2907
	subq	$1, %rcx
.LVL1055:
	.loc 1 3469 52 view .LVU2908
	subq	$32, %rsi
	.loc 1 3469 41 view .LVU2909
	cmpq	$-1, %rcx
	je	.L867
.L868:
	.loc 1 3470 11 is_stmt 1 view .LVU2910
	.loc 1 3470 19 is_stmt 0 view .LVU2911
	movdqu	(%rsi), %xmm4
	subq	$32, %r13
.LVL1056:
	.loc 1 3470 19 view .LVU2912
	movq	%rsi, 0(%rbp)
	.loc 1 3470 22 view .LVU2913
	movq	%rsi, %rdx
	.loc 1 3470 19 view .LVU2914
	movups	%xmm4, 0(%r13)
	movdqu	16(%rsi), %xmm5
	movups	%xmm5, 16(%r13)
	.loc 1 3469 15 is_stmt 1 view .LVU2915
	cmpq	%r8, %rsi
	jne	.L932
	.loc 1 3469 15 is_stmt 0 view .LVU2916
	movq	%r8, %rdx
.LVL1057:
	.p2align 4,,10
	.p2align 3
.L867:
	.loc 1 3474 7 is_stmt 1 view .LVU2917
	.loc 1 3474 19 is_stmt 0 view .LVU2918
	movq	%r13, (%r10)
.LVL1058:
.L871:
	.loc 1 3474 19 view .LVU2919
.LBE1182:
	.loc 1 3503 3 is_stmt 1 view .LVU2920
	.loc 1 3504 3 view .LVU2921
	.loc 1 3505 3 view .LVU2922
	.loc 1 3503 23 is_stmt 0 view .LVU2923
	subq	%rdx, %r14
.LVL1059:
	.loc 1 3506 13 view .LVU2924
	subq	%rax, %r11
	.loc 1 3503 23 view .LVU2925
	movq	%r14, %rdx
	.loc 1 3506 13 view .LVU2926
	movq	%r11, 48(%rbp)
	.loc 1 3503 23 view .LVU2927
	sarq	$5, %rdx
	.loc 1 3505 13 view .LVU2928
	subq	%rdx, %rdi
	movq	%rdi, 40(%rbp)
	.loc 1 3506 3 is_stmt 1 view .LVU2929
.LVL1060:
	.loc 1 3506 3 is_stmt 0 view .LVU2930
.LBE1181:
.LBE1180:
	.loc 1 3567 7 is_stmt 1 view .LVU2931
.LBB1188:
.LBI1188:
	.loc 1 3514 1 view .LVU2932
.LBB1189:
	.loc 1 3516 3 view .LVU2933
	.loc 1 3516 6 is_stmt 0 view .LVU2934
	testb	%r9b, %r9b
	jne	.L884
	movq	%rbp, %rsi
	movq	%r15, %rdi
	call	queue_check_insert.part.0
.LVL1061:
.L884:
	.loc 1 3516 6 view .LVU2935
.LBE1189:
.LBE1188:
	.loc 1 3568 7 is_stmt 1 view .LVU2936
.LBB1190:
.LBI1190:
	.loc 1 3528 1 view .LVU2937
.LBB1191:
	.loc 1 3531 3 view .LVU2938
	.loc 1 3531 6 is_stmt 0 view .LVU2939
	cmpl	$1, 80(%rbp)
	ja	.L933
	.loc 1 3537 8 is_stmt 1 view .LVU2940
	.loc 1 3537 22 is_stmt 0 view .LVU2941
	movq	48(%rbp), %rax
	.loc 1 3537 11 view .LVU2942
	addq	40(%rbp), %rax
	je	.L934
.L887:
.LVL1062:
	.loc 1 3537 11 view .LVU2943
.LBE1191:
.LBE1190:
	.loc 1 3570 7 is_stmt 1 view .LVU2944
.LBB1199:
.LBI1199:
	.loc 1 3361 1 view .LVU2945
.LBB1200:
	.loc 1 3363 3 view .LVU2946
	movq	40(%rsp), %rdi
	call	pthread_mutex_unlock@PLT
.LVL1063:
	.loc 1 3364 1 is_stmt 0 view .LVU2947
	jmp	.L888
.LVL1064:
	.p2align 4,,10
	.p2align 3
.L934:
	.loc 1 3364 1 view .LVU2948
.LBE1200:
.LBE1199:
.LBB1201:
.LBB1198:
	.loc 1 3541 7 is_stmt 1 view .LVU2949
	movq	56(%rbp), %rsi
	movq	%r15, %rdi
	call	queue_insert
.LVL1065:
	jmp	.L887
	.p2align 4,,10
	.p2align 3
.L933:
	.loc 1 3533 7 view .LVU2950
.LVL1066:
.LBB1192:
.LBI1192:
	.loc 1 3353 1 view .LVU2951
.LBB1193:
	.loc 1 3355 3 view .LVU2952
	movq	56(%rbp), %rax
	leaq	88(%rax), %rdi
	call	pthread_mutex_lock@PLT
.LVL1067:
	.loc 1 3355 3 is_stmt 0 view .LVU2953
.LBE1193:
.LBE1192:
	.loc 1 3534 7 is_stmt 1 view .LVU2954
	movq	56(%rbp), %rsi
.LVL1068:
.LBB1194:
.LBI1194:
	.loc 1 3514 1 view .LVU2955
.LBB1195:
	.loc 1 3516 3 view .LVU2956
	.loc 1 3516 6 is_stmt 0 view .LVU2957
	cmpb	$0, 84(%rsi)
	jne	.L886
	movq	%r15, %rdi
	call	queue_check_insert.part.0
.LVL1069:
	.loc 1 3516 6 view .LVU2958
	movq	56(%rbp), %rsi
.L886:
.LVL1070:
	.loc 1 3516 6 view .LVU2959
.LBE1195:
.LBE1194:
	.loc 1 3535 7 is_stmt 1 view .LVU2960
.LBB1196:
.LBI1196:
	.loc 1 3361 1 view .LVU2961
.LBB1197:
	.loc 1 3363 3 view .LVU2962
	leaq	88(%rsi), %rdi
	call	pthread_mutex_unlock@PLT
.LVL1071:
	.loc 1 3364 1 is_stmt 0 view .LVU2963
	jmp	.L887
.LVL1072:
	.p2align 4,,10
	.p2align 3
.L929:
	.loc 1 3364 1 view .LVU2964
	movq	%r9, %rbx
	movq	%r12, %rax
	movq	32(%rbp), %r10
	movzbl	84(%rbp), %r9d
	subq	%rdx, %rbx
	subq	%rcx, %rax
.LBE1197:
.LBE1196:
.LBE1198:
.LBE1201:
.LBB1202:
.LBB1185:
.LBB1183:
	.loc 1 3459 39 view .LVU2965
	movq	0(%rbp), %rdx
	sarq	$5, %rbx
	sarq	$5, %rax
	jmp	.L864
.LVL1073:
	.p2align 4,,10
	.p2align 3
.L926:
	.loc 1 3459 39 view .LVU2966
.LBE1183:
	.loc 1 3479 13 is_stmt 1 view .LVU2967
	movq	%r12, %rcx
	xorl	%eax, %eax
	xorl	%edx, %edx
	cmpq	%r8, %r14
	jne	.L857
.LVL1074:
	.loc 1 3479 13 is_stmt 0 view .LVU2968
	jmp	.L858
.LVL1075:
	.p2align 4,,10
	.p2align 3
.L872:
	.loc 1 3484 13 is_stmt 1 view .LVU2969
	movq	8(%rbp), %rax
	movq	16(%rsp), %rdx
	movq	8(%rsp), %rsi
	leaq	-32(%rax), %rdi
	movq	%rdi, 8(%rbp)
	call	write_unique
.LVL1076:
	.loc 1 3479 13 view .LVU2970
	.loc 1 3479 18 is_stmt 0 view .LVU2971
	movq	0(%rbp), %rbx
	movq	8(%rbp), %rcx
	.loc 1 3479 13 view .LVU2972
	cmpq	16(%rbp), %rbx
	je	.L935
.L895:
	.loc 1 3479 13 view .LVU2973
	movq	%r13, %rsi
.LVL1077:
.L857:
	.loc 1 3479 39 view .LVU2974
	cmpq	%rcx, 24(%rbp)
	je	.L874
	.loc 1 3479 78 view .LVU2975
	leaq	-1(%rsi), %r13
.LVL1078:
	.loc 1 3479 67 view .LVU2976
	testq	%rsi, %rsi
	je	.L936
	.loc 1 3481 11 is_stmt 1 view .LVU2977
	.loc 1 3481 47 is_stmt 0 view .LVU2978
	leaq	-32(%rcx), %rsi
	.loc 1 3481 33 view .LVU2979
	leaq	-32(%rbx), %rdi
	.loc 1 3481 15 view .LVU2980
	call	compare
.LVL1079:
	.loc 1 3481 14 view .LVU2981
	testl	%eax, %eax
	jg	.L872
	.loc 1 3482 13 is_stmt 1 view .LVU2982
	movq	0(%rbp), %rax
	movq	16(%rsp), %rdx
	movq	8(%rsp), %rsi
	leaq	-32(%rax), %rdi
	movq	%rdi, 0(%rbp)
	call	write_unique
.LVL1080:
	.loc 1 3479 13 view .LVU2983
	.loc 1 3479 18 is_stmt 0 view .LVU2984
	movq	0(%rbp), %rbx
	movq	8(%rbp), %rcx
	.loc 1 3479 13 view .LVU2985
	cmpq	16(%rbp), %rbx
	jne	.L895
.L935:
	movq	%r14, %rdx
	movq	%r12, %rax
	.loc 1 3479 78 view .LVU2986
	movq	%r13, %rsi
	subq	%rbx, %rdx
	subq	%rcx, %rax
	sarq	$5, %rdx
	sarq	$5, %rax
.LVL1081:
.L858:
	.loc 1 3487 7 is_stmt 1 view .LVU2987
	.loc 1 3488 7 view .LVU2988
	.loc 1 3490 7 view .LVU2989
	movq	40(%rbp), %rdi
	.loc 1 3490 10 is_stmt 0 view .LVU2990
	cmpq	%rax, 48(%rbp)
	je	.L937
	.loc 1 3495 12 is_stmt 1 view .LVU2991
	.loc 1 3495 15 is_stmt 0 view .LVU2992
	cmpq	%rdi, %rdx
	je	.L880
.LVL1082:
.L922:
	.loc 1 3495 15 view .LVU2993
	movq	%r12, %rax
	subq	8(%rbp), %rax
	movq	48(%rbp), %r11
	movq	%rbx, %rdx
	movzbl	84(%rbp), %r9d
	sarq	$5, %rax
	jmp	.L871
.LVL1083:
	.p2align 4,,10
	.p2align 3
.L936:
	.loc 1 3495 15 view .LVU2994
	movq	$-1, %rsi
.LVL1084:
.L874:
	.loc 1 3487 7 is_stmt 1 view .LVU2995
	.loc 1 3488 7 view .LVU2996
	.loc 1 3490 7 view .LVU2997
	.loc 1 3488 27 is_stmt 0 view .LVU2998
	movq	%r12, %rdx
	.loc 1 3490 15 view .LVU2999
	movq	48(%rbp), %rax
	.loc 1 3488 27 view .LVU3000
	subq	%rcx, %rdx
	sarq	$5, %rdx
	.loc 1 3490 10 view .LVU3001
	cmpq	%rax, %rdx
	jne	.L876
	.loc 1 3492 17 is_stmt 1 view .LVU3002
	.loc 1 3492 22 is_stmt 0 view .LVU3003
	movq	%rbx, %rcx
.LVL1085:
	.loc 1 3492 17 view .LVU3004
	cmpq	16(%rbp), %rbx
	je	.L877
	.loc 1 3492 54 view .LVU3005
	leaq	-1(%rsi), %r13
.LVL1086:
	.loc 1 3492 43 view .LVU3006
	testq	%rsi, %rsi
	jne	.L878
	jmp	.L877
	.p2align 4,,10
	.p2align 3
.L879:
	.loc 1 3492 54 view .LVU3007
	subq	$1, %r13
.LVL1087:
	.loc 1 3492 43 view .LVU3008
	cmpq	$-1, %r13
	je	.L938
.L878:
	.loc 1 3493 13 is_stmt 1 view .LVU3009
	leaq	-32(%rcx), %rdi
	movq	16(%rsp), %rdx
	movq	8(%rsp), %rsi
	movq	%rdi, 0(%rbp)
	call	write_unique
.LVL1088:
	.loc 1 3492 17 view .LVU3010
	.loc 1 3492 22 is_stmt 0 view .LVU3011
	movq	0(%rbp), %rcx
	.loc 1 3492 34 view .LVU3012
	movq	16(%rbp), %rdx
	.loc 1 3492 17 view .LVU3013
	cmpq	%rdx, %rcx
	jne	.L879
	.loc 1 3492 17 view .LVU3014
	movq	%r12, %rax
	subq	8(%rbp), %rax
	movq	40(%rbp), %rdi
	movq	48(%rbp), %r11
	movzbl	84(%rbp), %r9d
	sarq	$5, %rax
	jmp	.L871
.LVL1089:
	.p2align 4,,10
	.p2align 3
.L876:
	.loc 1 3487 27 view .LVU3015
	movq	%r14, %rdx
	movq	40(%rbp), %rdi
	.loc 1 3495 12 is_stmt 1 view .LVU3016
	.loc 1 3487 27 is_stmt 0 view .LVU3017
	subq	%rbx, %rdx
	.loc 1 3487 17 view .LVU3018
	sarq	$5, %rdx
	.loc 1 3495 15 view .LVU3019
	cmpq	%rdi, %rdx
	jne	.L922
.LVL1090:
.L880:
	.loc 1 3497 17 is_stmt 1 view .LVU3020
	cmpq	%rcx, 24(%rbp)
	je	.L922
	.loc 1 3497 54 is_stmt 0 view .LVU3021
	leaq	-1(%rsi), %r13
.LVL1091:
	.loc 1 3497 43 view .LVU3022
	testq	%rsi, %rsi
	je	.L922
	movq	%rbp, %rbx
	movq	%r13, %rbp
.LVL1092:
	.loc 1 3497 43 view .LVU3023
	movq	16(%rsp), %r13
.LVL1093:
	.loc 1 3497 43 view .LVU3024
	jmp	.L882
	.p2align 4,,10
	.p2align 3
.L883:
	.loc 1 3497 54 view .LVU3025
	subq	$1, %rbp
.LVL1094:
	.loc 1 3497 43 view .LVU3026
	cmpq	$-1, %rbp
	je	.L923
.L882:
	.loc 1 3498 13 is_stmt 1 view .LVU3027
	leaq	-32(%rcx), %rdi
	movq	8(%rsp), %rsi
	movq	%r13, %rdx
	movq	%rdi, 8(%rbx)
	call	write_unique
.LVL1095:
	.loc 1 3497 17 view .LVU3028
	.loc 1 3497 22 is_stmt 0 view .LVU3029
	movq	8(%rbx), %rcx
	.loc 1 3497 17 view .LVU3030
	cmpq	24(%rbx), %rcx
	jne	.L883
.L923:
	.loc 1 3497 17 view .LVU3031
	movq	%r12, %rax
	movq	(%rbx), %rdx
	movq	40(%rbx), %rdi
	movq	%rbx, %rbp
.LVL1096:
	.loc 1 3497 17 view .LVU3032
	subq	%rcx, %rax
	movq	48(%rbx), %r11
	movzbl	84(%rbx), %r9d
	sarq	$5, %rax
	jmp	.L871
.LVL1097:
	.p2align 4,,10
	.p2align 3
.L925:
	.loc 1 3497 17 view .LVU3033
.LBE1185:
.LBE1202:
	.loc 1 3561 11 is_stmt 1 view .LVU3034
.LBB1203:
.LBI1203:
	.loc 1 3361 1 view .LVU3035
.LBB1204:
	.loc 1 3363 3 view .LVU3036
	movq	40(%rsp), %rdi
	call	pthread_mutex_unlock@PLT
.LVL1098:
	.loc 1 3363 3 is_stmt 0 view .LVU3037
.LBE1204:
.LBE1203:
	.loc 1 3563 11 is_stmt 1 view .LVU3038
	movq	%rbp, %rsi
	movq	%r15, %rdi
	call	queue_insert
.LVL1099:
	.loc 1 3564 11 view .LVU3039
.L847:
	.loc 1 3564 11 is_stmt 0 view .LVU3040
.LBE1207:
.LBE1170:
.LBE1169:
.LBE1168:
	.loc 1 3685 1 view .LVU3041
	movq	136(%rsp), %rax
	xorq	%fs:40, %rax
	jne	.L939
	addq	$152, %rsp
	.cfi_remember_state
	.cfi_def_cfa_offset 56
	popq	%rbx
	.cfi_def_cfa_offset 48
	popq	%rbp
	.cfi_def_cfa_offset 40
	popq	%r12
	.cfi_def_cfa_offset 32
	popq	%r13
	.cfi_def_cfa_offset 24
	popq	%r14
	.cfi_def_cfa_offset 16
	popq	%r15
	.cfi_def_cfa_offset 8
.LVL1100:
	.loc 1 3685 1 view .LVU3042
	ret
.LVL1101:
	.p2align 4,,10
	.p2align 3
.L924:
	.cfi_restore_state
	.loc 1 3658 10 view .LVU3043
	xorl	%esi, %esi
.LVL1102:
	.loc 1 3658 10 view .LVU3044
	leaq	80(%rsp), %rcx
.LVL1103:
	.loc 1 3658 10 view .LVU3045
	leaq	72(%rsp), %rdi
	leaq	sortlines_thread(%rip), %rdx
.LVL1104:
	.loc 1 3658 10 view .LVU3046
	call	pthread_create@PLT
.LVL1105:
	.loc 1 3658 7 view .LVU3047
	movq	24(%rsp), %r8
	testl	%eax, %eax
	je	.L849
	movq	40(%rbp), %r14
.LVL1106:
	.loc 1 3658 7 view .LVU3048
	movq	48(%rbp), %r12
	jmp	.L848
.LVL1107:
	.p2align 4,,10
	.p2align 3
.L938:
	.loc 1 3658 7 view .LVU3049
	movq	%r12, %rax
	subq	8(%rbp), %rax
	movq	40(%rbp), %rdi
.LBB1214:
.LBB1212:
.LBB1210:
.LBB1208:
.LBB1205:
.LBB1186:
	.loc 1 3492 22 view .LVU3050
	movq	%rcx, %rdx
	movq	48(%rbp), %r11
	movzbl	84(%rbp), %r9d
	sarq	$5, %rax
	jmp	.L871
.LVL1108:
	.p2align 4,,10
	.p2align 3
.L931:
	.loc 1 3492 22 view .LVU3051
	subq	%rax, %r12
.LVL1109:
	.loc 1 3492 22 view .LVU3052
	movq	%r12, %rax
	sarq	$5, %rax
	jmp	.L867
.LVL1110:
	.p2align 4,,10
	.p2align 3
.L927:
.LBB1184:
	.loc 1 3459 13 view .LVU3053
	xorl	%r9d, %r9d
	xorl	%eax, %eax
	xorl	%ebx, %ebx
	jmp	.L860
.LVL1111:
	.p2align 4,,10
	.p2align 3
.L849:
	.loc 1 3459 13 view .LVU3054
.LBE1184:
.LBE1186:
.LBE1205:
.LBE1208:
.LBE1210:
.LBE1212:
.LBE1214:
	.loc 1 3660 7 is_stmt 1 view .LVU3055
	.loc 1 3660 24 is_stmt 0 view .LVU3056
	movq	40(%rbp), %rax
	.loc 1 3660 7 view .LVU3057
	subq	$8, %rsp
	.cfi_def_cfa_offset 216
	movq	72(%rbp), %rcx
	.loc 1 3652 10 view .LVU3058
	movq	%r13, %rsi
	.loc 1 3660 7 view .LVU3059
	pushq	24(%rsp)
	.cfi_def_cfa_offset 224
	movq	24(%rsp), %r9
	.loc 1 3652 10 view .LVU3060
	subq	%r8, %rsi
	.loc 1 3660 7 view .LVU3061
	movq	%r15, %r8
	.loc 1 3660 24 view .LVU3062
	salq	$5, %rax
	.loc 1 3660 7 view .LVU3063
	movq	48(%rsp), %rdx
	subq	%rax, %rbx
.LVL1112:
	.loc 1 3660 7 view .LVU3064
	movq	%rbx, %rdi
	call	sortlines
.LVL1113:
	.loc 1 3662 7 is_stmt 1 view .LVU3065
	movq	88(%rsp), %rdi
	xorl	%esi, %esi
	call	pthread_join@PLT
.LVL1114:
	popq	%rax
	.cfi_def_cfa_offset 216
	popq	%rdx
	.cfi_def_cfa_offset 208
	jmp	.L847
.LVL1115:
	.p2align 4,,10
	.p2align 3
.L937:
	.loc 1 3662 7 is_stmt 0 view .LVU3066
	movzbl	84(%rbp), %r9d
	movq	%rbx, %rdx
.LBB1215:
.LBB1213:
.LBB1211:
.LBB1209:
.LBB1206:
.LBB1187:
	.loc 1 3490 10 view .LVU3067
	movq	%rax, %r11
	jmp	.L871
.LVL1116:
	.p2align 4,,10
	.p2align 3
.L877:
	.loc 1 3490 10 view .LVU3068
	movq	40(%rbp), %rdi
	movzbl	84(%rbp), %r9d
	.loc 1 3492 17 view .LVU3069
	movq	%rax, %r11
	movq	%rbx, %rdx
	jmp	.L871
.LVL1117:
.L939:
	.loc 1 3492 17 view .LVU3070
.LBE1187:
.LBE1206:
.LBE1209:
.LBE1211:
.LBE1213:
.LBE1215:
	.loc 1 3685 1 view .LVU3071
	call	__stack_chk_fail@PLT
.LVL1118:
	.cfi_endproc
.LFE219:
	.size	sortlines, .-sortlines
	.p2align 4
	.type	sortlines_thread, @function
sortlines_thread:
.LVL1119:
.LFB218:
	.loc 1 3611 1 is_stmt 1 view -0
	.cfi_startproc
	.loc 1 3611 1 is_stmt 0 view .LVU3073
	endbr64
	.loc 1 3612 3 is_stmt 1 view .LVU3074
.LVL1120:
	.loc 1 3613 3 view .LVU3075
	.loc 1 3611 1 is_stmt 0 view .LVU3076
	subq	$16, %rsp
	.cfi_def_cfa_offset 24
	.loc 1 3613 3 view .LVU3077
	movq	24(%rdi), %rcx
	movq	16(%rdi), %rdx
	movq	8(%rdi), %rsi
	movq	40(%rdi), %r9
	pushq	48(%rdi)
	.cfi_def_cfa_offset 32
	movq	32(%rdi), %r8
	movq	(%rdi), %rdi
.LVL1121:
	.loc 1 3613 3 view .LVU3078
	call	sortlines
.LVL1122:
	.loc 1 3616 3 is_stmt 1 view .LVU3079
	.loc 1 3617 1 is_stmt 0 view .LVU3080
	xorl	%eax, %eax
	addq	$24, %rsp
	.cfi_def_cfa_offset 8
	ret
	.cfi_endproc
.LFE218:
	.size	sortlines_thread, .-sortlines_thread
	.section	.rodata.str1.1
.LC32:
	.string	"read failed"
	.text
	.p2align 4
	.type	fillbuf, @function
fillbuf:
.LVL1123:
.LFB175:
	.loc 1 1761 1 is_stmt 1 view -0
	.cfi_startproc
	.loc 1 1762 3 view .LVU3082
	.loc 1 1763 3 view .LVU3083
	.loc 1 1764 3 view .LVU3084
	.loc 1 1765 3 view .LVU3085
	.loc 1 1767 3 view .LVU3086
	.loc 1 1761 1 is_stmt 0 view .LVU3087
	pushq	%r15
	.cfi_def_cfa_offset 16
	.cfi_offset 15, -16
.LVL1124:
	.loc 1 1761 1 view .LVU3088
	pushq	%r14
	.cfi_def_cfa_offset 24
	.cfi_offset 14, -24
	pushq	%r13
	.cfi_def_cfa_offset 32
	.cfi_offset 13, -32
	pushq	%r12
	.cfi_def_cfa_offset 40
	.cfi_offset 12, -40
	pushq	%rbp
	.cfi_def_cfa_offset 48
	.cfi_offset 6, -48
	pushq	%rbx
	.cfi_def_cfa_offset 56
	.cfi_offset 3, -56
	subq	$72, %rsp
	.cfi_def_cfa_offset 128
	.loc 1 1767 6 view .LVU3089
	cmpb	$0, 48(%rdi)
	.loc 1 1761 1 view .LVU3090
	movq	%rdi, 40(%rsp)
	movq	%rsi, 32(%rsp)
	movq	%rdx, 56(%rsp)
	.loc 1 1767 6 view .LVU3091
	jne	.L943
	.loc 1 1763 8 view .LVU3092
	movzbl	eolchar(%rip), %esi
.LVL1125:
	.loc 1 1770 10 view .LVU3093
	movq	8(%rdi), %r10
	.loc 1 1770 23 view .LVU3094
	movq	32(%rdi), %rdx
.LVL1126:
	.loc 1 1762 26 view .LVU3095
	movq	keylist(%rip), %rbx
	.loc 1 1765 40 view .LVU3096
	movq	merge_buffer_size(%rip), %rbp
	.loc 1 1770 3 is_stmt 1 view .LVU3097
	movq	(%rdi), %r15
	.loc 1 1763 8 is_stmt 0 view .LVU3098
	movb	%sil, 55(%rsp)
	.loc 1 1764 10 view .LVU3099
	movq	40(%rdi), %rsi
	movq	%rsi, 8(%rsp)
	.loc 1 1770 6 view .LVU3100
	cmpq	%rdx, %r10
	jne	.L944
	movq	16(%rdi), %rax
.LVL1127:
.L945:
	.loc 1 1770 6 view .LVU3101
	movq	8(%rsp), %rsi
	.loc 1 1765 10 view .LVU3102
	subq	$34, %rbp
	addq	$1, %rsi
	movq	%rsi, 16(%rsp)
	movq	40(%rsp), %rsi
	movq	24(%rsi), %r12
	movsbl	55(%rsp), %esi
	movl	%esi, 48(%rsp)
.L967:
.LVL1128:
	.loc 1 1777 3 is_stmt 1 view .LVU3103
.LBB1240:
	.loc 1 1779 7 view .LVU3104
.LBB1241:
.LBB1242:
	.loc 1 1605 9 is_stmt 0 view .LVU3105
	addq	%r15, %r12
.LBE1242:
.LBE1241:
	.loc 1 1781 35 view .LVU3106
	movq	%rax, %rdx
	.loc 1 1779 13 view .LVU3107
	leaq	(%r15,%r10), %r14
.LVL1129:
	.loc 1 1780 7 is_stmt 1 view .LVU3108
.LBB1244:
.LBI1241:
	.loc 1 1603 1 view .LVU3109
.LBB1243:
	.loc 1 1605 3 view .LVU3110
	.loc 1 1606 3 view .LVU3111
	.loc 1 1606 3 is_stmt 0 view .LVU3112
.LBE1243:
.LBE1244:
	.loc 1 1781 7 is_stmt 1 view .LVU3113
	.loc 1 1781 35 is_stmt 0 view .LVU3114
	salq	$5, %rdx
	.loc 1 1781 20 view .LVU3115
	movq	%r12, %r13
	subq	%rdx, %r13
.LVL1130:
	.loc 1 1782 7 is_stmt 1 view .LVU3116
	.loc 1 1782 53 is_stmt 0 view .LVU3117
	movq	8(%rsp), %rdx
	imulq	%rax, %rdx
	.loc 1 1782 39 view .LVU3118
	subq	%rdx, %r12
.LVL1131:
	.loc 1 1782 66 view .LVU3119
	subq	%r14, %r12
.LVL1132:
	.loc 1 1783 7 is_stmt 1 view .LVU3120
	.loc 1 1783 66 is_stmt 0 view .LVU3121
	testq	%rax, %rax
	je	.L982
	.loc 1 1783 66 discriminator 1 view .LVU3122
	movq	8(%r13), %r8
	addq	0(%r13), %r8
	movq	%r14, %r15
	movq	%r13, %r14
.LVL1133:
	.loc 1 1783 66 discriminator 1 view .LVU3123
	movq	%r8, %r13
.LVL1134:
.L957:
	.loc 1 1785 13 is_stmt 1 view .LVU3124
	cmpq	16(%rsp), %r12
	jbe	.L988
	.p2align 4,,10
	.p2align 3
.L958:
.LBB1245:
	.loc 1 1792 11 view .LVU3125
	.loc 1 1792 36 is_stmt 0 view .LVU3126
	leaq	-1(%r12), %rax
	.loc 1 1792 18 view .LVU3127
	xorl	%edx, %edx
.LBB1246:
.LBB1247:
	.loc 8 382 10 view .LVU3128
	movq	32(%rsp), %rcx
	movq	%r15, %rdi
.LBE1247:
.LBE1246:
	.loc 1 1792 18 view .LVU3129
	divq	16(%rsp)
.LVL1135:
	.loc 1 1793 11 is_stmt 1 view .LVU3130
.LBB1249:
.LBI1246:
	.loc 8 345 1 view .LVU3131
.LBB1248:
	.loc 8 348 3 view .LVU3132
	.loc 8 362 3 view .LVU3133
	.loc 8 382 3 view .LVU3134
	.loc 8 382 10 is_stmt 0 view .LVU3135
	movl	$1, %esi
	movq	%rax, %rdx
	movq	%rax, 24(%rsp)
	call	fread_unlocked@PLT
.LVL1136:
	.loc 8 382 10 view .LVU3136
.LBE1248:
.LBE1249:
	.loc 1 1794 11 is_stmt 1 view .LVU3137
	.loc 1 1798 14 is_stmt 0 view .LVU3138
	movq	24(%rsp), %r11
	.loc 1 1794 17 view .LVU3139
	leaq	(%r15,%rax), %rdi
	.loc 1 1796 17 view .LVU3140
	subq	%rax, %r12
.LVL1137:
	.loc 1 1794 17 view .LVU3141
	movq	%rdi, (%rsp)
.LVL1138:
	.loc 1 1795 11 is_stmt 1 view .LVU3142
	.loc 1 1796 11 view .LVU3143
	.loc 1 1798 11 view .LVU3144
	.loc 1 1798 14 is_stmt 0 view .LVU3145
	cmpq	%rax, %r11
	je	.L986
	.loc 1 1800 15 is_stmt 1 view .LVU3146
.LVL1139:
.LBB1250:
.LBI1250:
	.loc 7 135 1 view .LVU3147
.LBB1251:
	.loc 7 137 3 view .LVU3148
	.loc 7 137 10 is_stmt 0 view .LVU3149
	movq	32(%rsp), %rax
.LVL1140:
	.loc 7 137 10 view .LVU3150
	movl	(%rax), %eax
.LVL1141:
	.loc 7 137 10 view .LVU3151
.LBE1251:
.LBE1250:
	.loc 1 1800 18 view .LVU3152
	testb	$32, %al
	jne	.L989
	.loc 1 1802 15 is_stmt 1 view .LVU3153
.LVL1142:
.LBB1252:
.LBI1252:
	.loc 7 128 1 view .LVU3154
.LBB1253:
	.loc 7 130 3 view .LVU3155
	.loc 7 130 3 is_stmt 0 view .LVU3156
.LBE1253:
.LBE1252:
	.loc 1 1802 18 view .LVU3157
	testb	$16, %al
	je	.L986
	.loc 1 1804 19 is_stmt 1 view .LVU3158
	.loc 1 1804 28 is_stmt 0 view .LVU3159
	movq	40(%rsp), %rax
	.loc 1 1805 22 view .LVU3160
	movq	%rax, %rdi
.LVL1143:
	.loc 1 1804 28 view .LVU3161
	movb	$1, 48(%rax)
	.loc 1 1805 19 is_stmt 1 view .LVU3162
	.loc 1 1805 22 is_stmt 0 view .LVU3163
	movq	(%rsp), %rax
	cmpq	%rax, (%rdi)
	je	.L943
	.loc 1 1807 19 is_stmt 1 view .LVU3164
	.loc 1 1807 22 is_stmt 0 view .LVU3165
	cmpq	%rax, %r13
	je	.L986
	.loc 1 1807 44 discriminator 1 view .LVU3166
	movzbl	55(%rsp), %edi
	cmpb	%dil, -1(%rax)
	je	.L986
	.loc 1 1808 21 is_stmt 1 view .LVU3167
.LVL1144:
	.loc 1 1808 31 is_stmt 0 view .LVU3168
	movb	%dil, (%rax)
	.loc 1 1808 28 view .LVU3169
	addq	$1, %rax
.LVL1145:
	.loc 1 1808 28 view .LVU3170
	movq	%rax, (%rsp)
.LVL1146:
	.p2align 4,,10
	.p2align 3
.L986:
	.loc 1 1808 28 view .LVU3171
	movq	%r13, %rax
	movq	%r15, %r10
	movq	%r14, %r13
.LVL1147:
	.loc 1 1808 28 view .LVU3172
	movq	%rbx, %r15
.LVL1148:
	.loc 1 1808 28 view .LVU3173
	movq	%rax, %r14
.LVL1149:
	.loc 1 1808 28 view .LVU3174
	movl	48(%rsp), %ebx
	jmp	.L954
.LVL1150:
	.p2align 4,,10
	.p2align 3
.L991:
	.loc 1 1835 21 is_stmt 1 view .LVU3175
	.loc 1 1835 36 is_stmt 0 view .LVU3176
	movq	%r15, %rdx
	movq	%r11, %rsi
	movq	%r14, %rdi
	call	begfield.isra.0
.LVL1151:
	.loc 1 1835 34 view .LVU3177
	movq	%rax, 16(%r13)
.L949:
	.loc 1 1808 28 view .LVU3178
	movq	%r10, %r14
.LVL1152:
.L954:
	.loc 1 1813 17 is_stmt 1 view .LVU3179
	.loc 1 1813 48 is_stmt 0 view .LVU3180
	movq	(%rsp), %rdx
	.loc 1 1813 23 view .LVU3181
	movl	%ebx, %esi
	movq	%r10, %rdi
	.loc 1 1813 48 view .LVU3182
	subq	%r10, %rdx
	.loc 1 1813 23 view .LVU3183
	call	memchr@PLT
.LVL1153:
	.loc 1 1813 17 view .LVU3184
	testq	%rax, %rax
	je	.L990
	.loc 1 1818 15 is_stmt 1 view .LVU3185
	.loc 1 1819 19 is_stmt 0 view .LVU3186
	leaq	1(%rax), %r10
	.loc 1 1820 19 view .LVU3187
	subq	$32, %r13
.LVL1154:
	.loc 1 1818 18 view .LVU3188
	movb	$0, (%rax)
	.loc 1 1819 15 is_stmt 1 view .LVU3189
.LVL1155:
	.loc 1 1820 15 view .LVU3190
	.loc 1 1821 15 view .LVU3191
	.loc 1 1822 34 is_stmt 0 view .LVU3192
	movq	%r10, %r11
	.loc 1 1821 26 view .LVU3193
	movq	%r14, 0(%r13)
	.loc 1 1822 15 is_stmt 1 view .LVU3194
	.loc 1 1822 34 is_stmt 0 view .LVU3195
	subq	%r14, %r11
	.loc 1 1823 25 view .LVU3196
	cmpq	%r11, %rbp
	.loc 1 1822 28 view .LVU3197
	movq	%r11, 8(%r13)
	.loc 1 1823 15 is_stmt 1 view .LVU3198
	.loc 1 1823 25 is_stmt 0 view .LVU3199
	cmovb	%r11, %rbp
.LVL1156:
	.loc 1 1824 15 is_stmt 1 view .LVU3200
	.loc 1 1824 21 is_stmt 0 view .LVU3201
	subq	8(%rsp), %r12
.LVL1157:
	.loc 1 1826 15 is_stmt 1 view .LVU3202
	.loc 1 1826 18 is_stmt 0 view .LVU3203
	testq	%r15, %r15
	je	.L949
	.loc 1 1830 19 is_stmt 1 view .LVU3204
	.loc 1 1832 35 is_stmt 0 view .LVU3205
	cmpq	$-1, 16(%r15)
	je	.L950
	.loc 1 1832 37 discriminator 1 view .LVU3206
	movq	%r15, %rdx
	movq	%r11, %rsi
	movq	%r14, %rdi
	call	limfield.isra.0
.LVL1158:
.L950:
	.loc 1 1834 22 view .LVU3207
	cmpq	$-1, (%r15)
	.loc 1 1830 32 view .LVU3208
	movq	%rax, 24(%r13)
	.loc 1 1834 19 is_stmt 1 view .LVU3209
	.loc 1 1834 22 is_stmt 0 view .LVU3210
	jne	.L991
	.loc 1 1838 23 is_stmt 1 view .LVU3211
	.loc 1 1838 26 is_stmt 0 view .LVU3212
	cmpb	$0, 48(%r15)
	jne	.L992
.L952:
	.loc 1 1841 23 is_stmt 1 view .LVU3213
	.loc 1 1841 36 is_stmt 0 view .LVU3214
	movq	%r14, 16(%r13)
	jmp	.L949
.LVL1159:
.L943:
	.loc 1 1841 36 view .LVU3215
.LBE1245:
.LBE1240:
	.loc 1 1871 1 view .LVU3216
	addq	$72, %rsp
	.cfi_remember_state
	.cfi_def_cfa_offset 56
	.loc 1 1768 12 view .LVU3217
	xorl	%eax, %eax
	.loc 1 1871 1 view .LVU3218
	popq	%rbx
	.cfi_def_cfa_offset 48
	popq	%rbp
	.cfi_def_cfa_offset 40
	popq	%r12
	.cfi_def_cfa_offset 32
	popq	%r13
	.cfi_def_cfa_offset 24
	popq	%r14
	.cfi_def_cfa_offset 16
	popq	%r15
	.cfi_def_cfa_offset 8
	ret
.LVL1160:
.L944:
	.cfi_restore_state
	.loc 1 1772 7 is_stmt 1 view .LVU3219
.LBB1272:
.LBI1272:
	.loc 5 38 1 view .LVU3220
.LBB1273:
	.loc 5 40 3 view .LVU3221
.LBE1273:
.LBE1272:
	.loc 1 1772 47 is_stmt 0 view .LVU3222
	subq	%rdx, %r10
.LVL1161:
.LBB1276:
.LBB1274:
	.loc 5 40 10 view .LVU3223
	movq	%r15, %rdi
.LVL1162:
	.loc 5 40 10 view .LVU3224
.LBE1274:
.LBE1276:
	.loc 1 1772 47 view .LVU3225
	leaq	(%r15,%r10), %rsi
.LBB1277:
.LBB1275:
	.loc 5 40 10 view .LVU3226
	call	memmove@PLT
.LVL1163:
	.loc 5 40 10 view .LVU3227
.LBE1275:
.LBE1277:
	.loc 1 1773 7 is_stmt 1 view .LVU3228
	.loc 1 1773 22 is_stmt 0 view .LVU3229
	movq	40(%rsp), %rax
	movq	32(%rax), %r10
	movq	(%rax), %r15
	.loc 1 1774 19 view .LVU3230
	movq	$0, 16(%rax)
	.loc 1 1773 17 view .LVU3231
	movq	%r10, 8(%rax)
	.loc 1 1774 7 is_stmt 1 view .LVU3232
	.loc 1 1774 19 is_stmt 0 view .LVU3233
	xorl	%eax, %eax
	jmp	.L945
.LVL1164:
	.p2align 4,,10
	.p2align 3
.L990:
	.loc 1 1774 19 view .LVU3234
	movq	%r14, %rax
.LVL1165:
	.loc 1 1774 19 view .LVU3235
	movq	%r13, %r14
.LVL1166:
	.loc 1 1774 19 view .LVU3236
	movq	%r15, %rbx
	movq	%rax, %r13
.LVL1167:
.LBB1278:
.LBB1258:
	.loc 1 1848 11 is_stmt 1 view .LVU3237
	.loc 1 1849 11 view .LVU3238
	.loc 1 1849 14 is_stmt 0 view .LVU3239
	movq	40(%rsp), %rax
.LVL1168:
	.loc 1 1849 14 view .LVU3240
	cmpb	$0, 48(%rax)
	jne	.L968
	.loc 1 1848 15 view .LVU3241
	movq	(%rsp), %r15
	.loc 1 1848 15 view .LVU3242
.LBE1258:
	.loc 1 1785 13 is_stmt 1 view .LVU3243
	cmpq	16(%rsp), %r12
	ja	.L958
.LVL1169:
.L988:
	.loc 1 1785 13 is_stmt 0 view .LVU3244
	movq	%r13, %rax
	movq	%r14, %r13
.LVL1170:
	.loc 1 1785 13 view .LVU3245
	movq	%r15, %r14
.LVL1171:
	.loc 1 1785 13 view .LVU3246
	movq	%rax, %r15
.LVL1172:
.L956:
	.loc 1 1853 7 is_stmt 1 view .LVU3247
	.loc 1 1853 28 is_stmt 0 view .LVU3248
	movq	40(%rsp), %rsi
	.loc 1 1853 23 view .LVU3249
	movq	%r14, %rax
	.loc 1 1853 28 view .LVU3250
	movq	(%rsi), %rdi
	.loc 1 1854 21 view .LVU3251
	movq	24(%rsi), %rdx
	.loc 1 1853 23 view .LVU3252
	subq	%rdi, %rax
	movq	%rax, 8(%rsi)
	.loc 1 1854 7 is_stmt 1 view .LVU3253
.LVL1173:
.LBB1259:
.LBI1259:
	.loc 1 1603 1 view .LVU3254
.LBB1260:
	.loc 1 1605 3 view .LVU3255
	.loc 1 1606 3 view .LVU3256
	.loc 1 1605 9 is_stmt 0 view .LVU3257
	leaq	(%rdi,%rdx), %rax
.LBE1260:
.LBE1259:
	.loc 1 1854 42 view .LVU3258
	subq	%r13, %rax
	sarq	$5, %rax
	.loc 1 1854 19 view .LVU3259
	movq	%rax, 16(%rsi)
	.loc 1 1855 7 is_stmt 1 view .LVU3260
	.loc 1 1855 10 is_stmt 0 view .LVU3261
	jne	.L993
.LBB1261:
	.loc 1 1866 9 is_stmt 1 view .LVU3262
	.loc 1 1866 40 is_stmt 0 view .LVU3263
	movq	%rdx, %rax
	shrq	$5, %rax
.LVL1174:
	.loc 1 1867 9 is_stmt 1 view .LVU3264
.LBB1262:
.LBI1262:
	.loc 4 174 1 view .LVU3265
.LBB1263:
	.loc 4 176 3 view .LVU3266
	.loc 4 178 3 view .LVU3267
	.loc 4 178 6 is_stmt 0 view .LVU3268
	testq	%rdi, %rdi
	je	.L994
	.loc 4 200 7 is_stmt 1 view .LVU3269
	.loc 4 200 10 is_stmt 0 view .LVU3270
	movabsq	$192153584101141161, %rsi
.LVL1175:
	.loc 4 200 10 view .LVU3271
	cmpq	%rsi, %rax
	ja	.L966
	.loc 4 203 7 is_stmt 1 view .LVU3272
.LVL1176:
	.loc 4 203 14 is_stmt 0 view .LVU3273
	shrq	$6, %rdx
.LVL1177:
	.loc 4 203 9 view .LVU3274
	leaq	1(%rax,%rdx), %r12
.LVL1178:
	.loc 4 203 9 view .LVU3275
	salq	$5, %r12
.LVL1179:
.L962:
	.loc 4 206 3 is_stmt 1 view .LVU3276
	.loc 4 207 3 view .LVU3277
	.loc 4 207 10 is_stmt 0 view .LVU3278
	movq	%r12, %rsi
	call	xrealloc@PLT
.LVL1180:
	.loc 4 207 10 view .LVU3279
	movq	%rax, %r15
.LVL1181:
	.loc 4 207 10 view .LVU3280
.LBE1263:
.LBE1262:
	.loc 1 1867 18 view .LVU3281
	movq	40(%rsp), %rax
	movq	%r15, (%rax)
	.loc 1 1868 9 is_stmt 1 view .LVU3282
	movq	8(%rax), %r10
	.loc 1 1868 20 is_stmt 0 view .LVU3283
	movq	%r12, 24(%rax)
	.loc 1 1868 20 view .LVU3284
.LBE1261:
.LBE1278:
	.loc 1 1777 9 is_stmt 1 view .LVU3285
	movq	16(%rax), %rax
	.loc 1 1778 5 is_stmt 0 view .LVU3286
	jmp	.L967
.LVL1182:
	.p2align 4,,10
	.p2align 3
.L992:
.LBB1279:
.LBB1268:
	.loc 1 1839 31 is_stmt 1 view .LVU3287
.LBB1254:
.LBI1254:
	.loc 2 156 29 view .LVU3288
.LBB1255:
	.loc 2 156 50 view .LVU3289
	.loc 2 156 50 is_stmt 0 view .LVU3290
.LBE1255:
.LBE1254:
	.loc 1 1839 38 view .LVU3291
	movzbl	(%r14), %eax
	.loc 1 1839 31 view .LVU3292
	leaq	blanks(%rip), %rsi
	cmpb	$0, (%rsi,%rax)
	je	.L952
	.p2align 4,,10
	.p2align 3
.L953:
	.loc 1 1840 27 is_stmt 1 view .LVU3293
	.loc 1 1839 38 is_stmt 0 view .LVU3294
	movzbl	1(%r14), %eax
	.loc 1 1839 31 view .LVU3295
	leaq	blanks(%rip), %rcx
	.loc 1 1840 37 view .LVU3296
	addq	$1, %r14
.LVL1183:
	.loc 1 1839 31 is_stmt 1 view .LVU3297
.LBB1257:
	.loc 2 156 29 view .LVU3298
.LBB1256:
	.loc 2 156 50 view .LVU3299
	.loc 2 156 50 is_stmt 0 view .LVU3300
.LBE1256:
.LBE1257:
	.loc 1 1839 31 view .LVU3301
	cmpb	$0, (%rcx,%rax)
	jne	.L953
	jmp	.L952
.LVL1184:
.L982:
	.loc 1 1839 31 view .LVU3302
	movq	%r15, %rax
	movq	%r14, %r15
	movq	%r13, %r14
.LVL1185:
	.loc 1 1839 31 view .LVU3303
	movq	%rax, %r13
.LVL1186:
	.loc 1 1839 31 view .LVU3304
	jmp	.L957
.LVL1187:
.L968:
	.loc 1 1839 31 view .LVU3305
	movq	%r13, %r15
	movq	%r14, %r13
.LVL1188:
	.loc 1 1848 15 view .LVU3306
	movq	(%rsp), %r14
.LVL1189:
	.loc 1 1848 15 view .LVU3307
	jmp	.L956
.LVL1190:
.L994:
	.loc 1 1848 15 view .LVU3308
.LBE1268:
.LBB1269:
.LBB1266:
.LBB1264:
	.loc 4 180 7 is_stmt 1 view .LVU3309
	.loc 4 180 10 is_stmt 0 view .LVU3310
	testq	%rax, %rax
	je	.L969
	.loc 4 191 7 is_stmt 1 view .LVU3311
	.loc 4 191 11 is_stmt 0 view .LVU3312
	salq	$5, %rax
.LVL1191:
	.loc 4 191 11 view .LVU3313
	js	.L966
	movq	%rax, %r12
.LVL1192:
	.loc 4 191 11 view .LVU3314
	jmp	.L962
.LVL1193:
.L969:
	.loc 4 191 11 view .LVU3315
	movl	$128, %r12d
.LVL1194:
	.loc 4 191 11 view .LVU3316
	jmp	.L962
.LVL1195:
.L993:
	.loc 4 191 11 view .LVU3317
.LBE1264:
.LBE1266:
.LBE1269:
	.loc 1 1857 11 is_stmt 1 view .LVU3318
	.loc 1 1857 27 is_stmt 0 view .LVU3319
	movq	%r14, %r10
	.loc 1 1858 41 view .LVU3320
	addq	$34, %rbp
.LVL1196:
	.loc 1 1859 18 view .LVU3321
	movl	$1, %eax
	.loc 1 1857 27 view .LVU3322
	subq	%r15, %r10
	.loc 1 1858 41 view .LVU3323
	movq	%rbp, merge_buffer_size(%rip)
	.loc 1 1857 27 view .LVU3324
	movq	%r10, 32(%rsi)
	.loc 1 1858 11 is_stmt 1 view .LVU3325
	.loc 1 1859 11 view .LVU3326
.LBE1279:
	.loc 1 1871 1 is_stmt 0 view .LVU3327
	addq	$72, %rsp
	.cfi_remember_state
	.cfi_def_cfa_offset 56
	popq	%rbx
	.cfi_def_cfa_offset 48
	popq	%rbp
	.cfi_def_cfa_offset 40
.LVL1197:
	.loc 1 1871 1 view .LVU3328
	popq	%r12
	.cfi_def_cfa_offset 32
.LVL1198:
	.loc 1 1871 1 view .LVU3329
	popq	%r13
	.cfi_def_cfa_offset 24
.LVL1199:
	.loc 1 1871 1 view .LVU3330
	popq	%r14
	.cfi_def_cfa_offset 16
.LVL1200:
	.loc 1 1871 1 view .LVU3331
	popq	%r15
	.cfi_def_cfa_offset 8
.LVL1201:
	.loc 1 1871 1 view .LVU3332
	ret
.LVL1202:
.L989:
	.cfi_restore_state
.LBB1280:
.LBB1270:
	.loc 1 1801 17 is_stmt 1 view .LVU3333
	.loc 1 1801 27 is_stmt 0 view .LVU3334
	leaq	.LC32(%rip), %rsi
	xorl	%edi, %edi
.LVL1203:
	.loc 1 1801 27 view .LVU3335
	movl	$5, %edx
	call	dcgettext@PLT
.LVL1204:
	.loc 1 1801 17 view .LVU3336
	movq	56(%rsp), %rsi
	.loc 1 1801 27 view .LVU3337
	movq	%rax, %rdi
	.loc 1 1801 17 view .LVU3338
	call	sort_die
.LVL1205:
.L966:
	.loc 1 1801 17 view .LVU3339
.LBE1270:
.LBB1271:
.LBB1267:
.LBB1265:
	.loc 4 192 9 is_stmt 1 view .LVU3340
	call	xalloc_die@PLT
.LVL1206:
	.loc 4 192 9 is_stmt 0 view .LVU3341
.LBE1265:
.LBE1267:
.LBE1271:
.LBE1280:
	.cfi_endproc
.LFE175:
	.size	fillbuf, .-fillbuf
	.p2align 4
	.type	mergefps, @function
mergefps:
.LVL1207:
.LFB199:
	.loc 1 2934 1 is_stmt 1 view -0
	.cfi_startproc
	.loc 1 2934 1 is_stmt 0 view .LVU3343
	pushq	%r15
	.cfi_def_cfa_offset 16
	.cfi_offset 15, -16
	pushq	%r14
	.cfi_def_cfa_offset 24
	.cfi_offset 14, -24
	pushq	%r13
	.cfi_def_cfa_offset 32
	.cfi_offset 13, -32
	pushq	%r12
	.cfi_def_cfa_offset 40
	.cfi_offset 12, -40
	pushq	%rbp
	.cfi_def_cfa_offset 48
	.cfi_offset 6, -48
	pushq	%rbx
	.cfi_def_cfa_offset 56
	.cfi_offset 3, -56
	subq	$168, %rsp
	.cfi_def_cfa_offset 224
	.loc 1 2934 1 view .LVU3344
	movq	%rdi, 32(%rsp)
	movq	%rdx, %rdi
.LVL1208:
	.loc 1 2934 1 view .LVU3345
	movq	%rdx, 16(%rsp)
.LBB1281:
.LBB1282:
	.loc 4 101 7 view .LVU3346
	movl	$56, %edx
.LVL1209:
	.loc 4 101 7 view .LVU3347
.LBE1282:
.LBE1281:
	.loc 1 2934 1 view .LVU3348
	movq	%rsi, 80(%rsp)
	movq	%rcx, 64(%rsp)
	movq	%r8, 72(%rsp)
	movq	%r9, 56(%rsp)
	movq	%fs:40, %rax
	movq	%rax, 152(%rsp)
	xorl	%eax, %eax
	.loc 1 2935 3 is_stmt 1 view .LVU3349
.LVL1210:
.LBB1285:
.LBI1281:
	.loc 4 99 1 view .LVU3350
.LBB1283:
	.loc 4 101 3 view .LVU3351
	.loc 4 101 7 is_stmt 0 view .LVU3352
	movq	%rdx, %rax
	mulq	%rdi
	seto	%dl
	testq	%rax, %rax
	js	.L1003
	movzbl	%dl, %edx
	.loc 4 101 6 view .LVU3353
	testq	%rdx, %rdx
	jne	.L1003
	.loc 4 103 3 is_stmt 1 view .LVU3354
	.loc 4 103 10 is_stmt 0 view .LVU3355
	movq	16(%rsp), %rbx
	leaq	0(,%rbx,8), %rbp
	movq	%rbp, %rdi
.LVL1211:
	.loc 4 103 10 view .LVU3356
	subq	%rbx, %rdi
	salq	$3, %rdi
	call	xmalloc@PLT
.LVL1212:
	.loc 4 103 10 view .LVU3357
	movq	%rax, 40(%rsp)
.LVL1213:
	.loc 4 103 10 view .LVU3358
.LBE1283:
.LBE1285:
	.loc 1 2937 3 is_stmt 1 view .LVU3359
	.loc 1 2938 3 view .LVU3360
	.loc 1 2940 3 view .LVU3361
	.loc 1 2941 3 view .LVU3362
.LBB1286:
.LBI1286:
	.loc 4 99 1 view .LVU3363
.LBB1287:
	.loc 4 101 3 view .LVU3364
	.loc 4 101 7 is_stmt 0 view .LVU3365
	movq	%rbx, %rax
.LVL1214:
	.loc 4 101 7 view .LVU3366
	shrq	$61, %rax
	setne	%al
	movzbl	%al, %eax
	testq	%rbp, %rbp
	js	.L1003
	.loc 4 101 6 view .LVU3367
	testq	%rax, %rax
	jne	.L1003
	.loc 4 103 3 is_stmt 1 view .LVU3368
	.loc 4 103 10 is_stmt 0 view .LVU3369
	movq	%rbp, %rdi
	call	xmalloc@PLT
.LVL1215:
.LBE1287:
.LBE1286:
.LBB1289:
.LBB1290:
	movq	%rbp, %rdi
.LBE1290:
.LBE1289:
.LBB1293:
.LBB1288:
	movq	%rax, %r13
.LVL1216:
	.loc 4 103 10 view .LVU3370
.LBE1288:
.LBE1293:
	.loc 1 2943 3 is_stmt 1 view .LVU3371
.LBB1294:
.LBI1289:
	.loc 4 99 1 view .LVU3372
.LBB1291:
	.loc 4 101 3 view .LVU3373
	.loc 4 103 3 view .LVU3374
	.loc 4 103 10 is_stmt 0 view .LVU3375
	call	xmalloc@PLT
.LVL1217:
	.loc 4 103 10 view .LVU3376
.LBE1291:
.LBE1294:
.LBB1295:
.LBB1296:
	movq	%rbp, %rdi
.LBE1296:
.LBE1295:
.LBB1299:
.LBB1292:
	movq	%rax, 24(%rsp)
.LVL1218:
	.loc 4 103 10 view .LVU3377
.LBE1292:
.LBE1299:
	.loc 1 2945 3 is_stmt 1 view .LVU3378
.LBB1300:
.LBI1295:
	.loc 4 99 1 view .LVU3379
.LBB1297:
	.loc 4 101 3 view .LVU3380
	.loc 4 103 3 view .LVU3381
	.loc 4 103 10 is_stmt 0 view .LVU3382
	call	xmalloc@PLT
.LVL1219:
	.loc 4 103 10 view .LVU3383
.LBE1297:
.LBE1300:
	.loc 1 2953 14 view .LVU3384
	movq	$0, 112(%rsp)
.LBB1301:
.LBB1298:
	.loc 4 103 10 view .LVU3385
	movq	%rax, %rbp
.LVL1220:
	.loc 4 103 10 view .LVU3386
.LBE1298:
.LBE1301:
	.loc 1 2949 3 is_stmt 1 view .LVU3387
	.loc 1 2950 3 view .LVU3388
	.loc 1 2951 3 view .LVU3389
	.loc 1 2952 3 view .LVU3390
	.loc 1 2952 26 is_stmt 0 view .LVU3391
	movq	keylist(%rip), %rax
.LVL1221:
	.loc 1 2952 26 view .LVU3392
	movq	%rax, 104(%rsp)
.LVL1222:
	.loc 1 2953 3 is_stmt 1 view .LVU3393
	.loc 1 2956 3 view .LVU3394
	.loc 1 2956 15 view .LVU3395
	.loc 1 2956 3 is_stmt 0 view .LVU3396
	testq	%rbx, %rbx
	je	.L1016
	.loc 1 2956 10 view .LVU3397
	movq	%rbp, 48(%rsp)
	movq	56(%rsp), %r14
	xorl	%r15d, %r15d
	movq	%r13, 8(%rsp)
.LVL1223:
	.p2align 4,,10
	.p2align 3
.L1010:
	.loc 1 2958 7 is_stmt 1 view .LVU3398
	movq	40(%rsp), %rdi
	.loc 1 2959 16 is_stmt 0 view .LVU3399
	movq	16(%rsp), %r12
	xorl	%edx, %edx
	.loc 1 2960 45 view .LVU3400
	movq	%r15, %rbx
	.loc 1 2958 23 view .LVU3401
	leaq	0(,%r15,8), %rbp
	.loc 1 2958 7 view .LVU3402
	movl	$32, %esi
	.loc 1 2958 23 view .LVU3403
	movq	%rbp, %rax
	subq	%r15, %rax
	.loc 1 2958 7 view .LVU3404
	leaq	(%rdi,%rax,8), %r13
	.loc 1 2959 16 view .LVU3405
	movq	sort_size(%rip), %rax
	.loc 1 2958 7 view .LVU3406
	movq	%r13, %rdi
	.loc 1 2959 16 view .LVU3407
	divq	%r12
	.loc 1 2958 7 view .LVU3408
	movq	merge_buffer_size(%rip), %rdx
	cmpq	%rdx, %rax
	cmovnb	%rax, %rdx
	.loc 1 2960 45 view .LVU3409
	salq	$4, %rbx
	.loc 1 2958 7 view .LVU3410
	call	initbuf
.LVL1224:
	.loc 1 2960 7 is_stmt 1 view .LVU3411
	.loc 1 2960 35 is_stmt 0 view .LVU3412
	leaq	(%r14,%rbp), %r10
	.loc 1 2960 45 view .LVU3413
	addq	32(%rsp), %rbx
	.loc 1 2960 11 view .LVU3414
	movq	%r13, %rdi
	movq	(%r10), %rsi
	movq	(%rbx), %rdx
	movq	%r10, (%rsp)
	call	fillbuf
.LVL1225:
	.loc 1 2960 10 view .LVU3415
	movq	(%rsp), %r10
	testb	%al, %al
	je	.L1005
.LBB1302:
	.loc 1 2962 11 is_stmt 1 view .LVU3416
.LBB1303:
.LBI1303:
	.loc 1 1603 1 view .LVU3417
.LVL1226:
.LBB1304:
	.loc 1 1605 3 view .LVU3418
	.loc 1 1605 9 is_stmt 0 view .LVU3419
	movq	24(%r13), %rax
.LBE1304:
.LBE1303:
	.loc 1 2963 28 view .LVU3420
	movq	8(%rsp), %rcx
.LBB1306:
.LBB1305:
	.loc 1 1605 9 view .LVU3421
	addq	0(%r13), %rax
.LVL1227:
	.loc 1 1606 3 is_stmt 1 view .LVU3422
	.loc 1 1606 3 is_stmt 0 view .LVU3423
.LBE1305:
.LBE1306:
	.loc 1 2963 11 is_stmt 1 view .LVU3424
	.loc 1 2964 29 is_stmt 0 view .LVU3425
	movq	24(%rsp), %rdi
	.loc 1 2963 28 view .LVU3426
	leaq	-32(%rax), %rdx
	movq	%rdx, (%rcx,%r15,8)
	.loc 1 2964 11 is_stmt 1 view .LVU3427
	.loc 1 2964 29 is_stmt 0 view .LVU3428
	movq	16(%r13), %rdx
	salq	$5, %rdx
	subq	%rdx, %rax
.LVL1228:
	.loc 1 2964 29 view .LVU3429
	movq	%rax, (%rdi,%r15,8)
	.loc 1 2965 11 is_stmt 1 view .LVU3430
	.loc 1 2965 12 is_stmt 0 view .LVU3431
	addq	$1, %r15
.LVL1229:
	.loc 1 2965 12 view .LVU3432
.LBE1302:
	.loc 1 2956 15 is_stmt 1 view .LVU3433
	.loc 1 2956 3 is_stmt 0 view .LVU3434
	cmpq	%r12, %r15
	jb	.L1010
	movq	48(%rsp), %rbp
	movq	%rcx, %r13
.LVL1230:
.L1007:
	.loc 1 2989 15 is_stmt 1 view .LVU3435
	.loc 1 2989 3 is_stmt 0 view .LVU3436
	movq	16(%rsp), %rdx
	testq	%rdx, %rdx
	je	.L1016
	.loc 1 2989 10 view .LVU3437
	xorl	%eax, %eax
.LVL1231:
	.p2align 4,,10
	.p2align 3
.L1011:
	.loc 1 2990 5 is_stmt 1 discriminator 3 view .LVU3438
	.loc 1 2990 12 is_stmt 0 discriminator 3 view .LVU3439
	movq	%rax, 0(%rbp,%rax,8)
	.loc 1 2989 27 is_stmt 1 discriminator 3 view .LVU3440
	addq	$1, %rax
.LVL1232:
	.loc 1 2989 15 discriminator 3 view .LVU3441
	.loc 1 2989 3 is_stmt 0 discriminator 3 view .LVU3442
	cmpq	%rdx, %rax
	jne	.L1011
.LVL1233:
	.loc 1 2991 15 is_stmt 1 view .LVU3443
	.loc 1 2991 3 is_stmt 0 view .LVU3444
	cmpq	$1, 16(%rsp)
	je	.L1012
	.loc 1 2991 10 view .LVU3445
	movq	%r13, %rdx
	movl	$1, %ebx
	movq	%rbp, %r13
.LVL1234:
	.p2align 4,,10
	.p2align 3
.L1015:
	.loc 1 2992 5 is_stmt 1 view .LVU3446
	.loc 1 2992 46 is_stmt 0 view .LVU3447
	leaq	0(,%rbx,8), %rax
	.loc 1 2992 13 view .LVU3448
	movq	%rdx, (%rsp)
	.loc 1 2992 46 view .LVU3449
	leaq	0(%r13,%rax), %r12
	.loc 1 2992 29 view .LVU3450
	leaq	-8(%r13,%rax), %r15
	.loc 1 2992 46 view .LVU3451
	movq	(%r12), %rbp
	.loc 1 2992 29 view .LVU3452
	movq	(%r15), %r14
	.loc 1 2992 13 view .LVU3453
	movq	(%rdx,%rbp,8), %rsi
	movq	(%rdx,%r14,8), %rdi
	call	compare
.LVL1235:
	.loc 1 2992 8 view .LVU3454
	movq	(%rsp), %rdx
	testl	%eax, %eax
	jle	.L1013
	.loc 1 2993 7 is_stmt 1 view .LVU3455
.LVL1236:
	.loc 1 2993 34 is_stmt 0 view .LVU3456
	movq	%rbp, (%r15)
	.loc 1 2991 27 view .LVU3457
	movl	$1, %ebx
.LVL1237:
	.loc 1 2993 51 view .LVU3458
	movq	%r14, (%r12)
.LVL1238:
	.loc 1 2991 27 is_stmt 1 view .LVU3459
	.loc 1 2991 15 view .LVU3460
	jmp	.L1015
.LVL1239:
	.p2align 4,,10
	.p2align 3
.L1013:
	.loc 1 2991 27 discriminator 2 view .LVU3461
	addq	$1, %rbx
.LVL1240:
	.loc 1 2991 15 discriminator 2 view .LVU3462
	.loc 1 2991 3 is_stmt 0 discriminator 2 view .LVU3463
	cmpq	16(%rsp), %rbx
	jb	.L1015
	movq	%r13, %rbp
	movq	%rdx, %r13
.LVL1241:
.L1012:
.LBB1307:
	.loc 1 3007 15 view .LVU3464
	leaq	112(%rsp), %rax
	movq	%r13, %r14
.LBE1307:
	.loc 1 2991 27 view .LVU3465
	movq	$0, 88(%rsp)
	movq	$0, 48(%rsp)
.LVL1242:
.LBB1322:
	.loc 1 3007 15 view .LVU3466
	movq	%rax, 96(%rsp)
.LVL1243:
	.p2align 4,,10
	.p2align 3
.L1045:
	.loc 1 2998 7 is_stmt 1 view .LVU3467
	.loc 1 2998 44 is_stmt 0 view .LVU3468
	movq	0(%rbp), %rax
	.loc 1 3002 10 view .LVU3469
	cmpb	$0, unique(%rip)
	.loc 1 2998 40 view .LVU3470
	leaq	0(,%rax,8), %r15
	.loc 1 2998 44 view .LVU3471
	movq	%rax, 8(%rsp)
	.loc 1 2998 40 view .LVU3472
	leaq	(%r14,%r15), %rbx
	.loc 1 2998 26 view .LVU3473
	movq	(%rbx), %r13
.LVL1244:
	.loc 1 3002 7 is_stmt 1 view .LVU3474
	.loc 1 3002 10 is_stmt 0 view .LVU3475
	je	.L1017
	.loc 1 3004 11 is_stmt 1 view .LVU3476
	.loc 1 3004 14 is_stmt 0 view .LVU3477
	movq	48(%rsp), %rax
	testq	%rax, %rax
	je	.L1018
	.loc 1 3004 28 discriminator 1 view .LVU3478
	movq	%r13, %rsi
	movq	%rax, %rdi
	call	compare
.LVL1245:
	.loc 1 3004 25 discriminator 1 view .LVU3479
	testl	%eax, %eax
	jne	.L1097
.LVL1246:
.L1019:
	.loc 1 3040 7 is_stmt 1 view .LVU3480
	.loc 1 3040 15 is_stmt 0 view .LVU3481
	movq	24(%rsp), %rax
	leaq	(%rax,%r15), %r11
	.loc 1 3040 10 view .LVU3482
	cmpq	%r13, (%r11)
	jb	.L1098
	.loc 1 3044 59 view .LVU3483
	movq	8(%rsp), %rax
	.loc 1 3044 15 view .LVU3484
	movq	40(%rsp), %rcx
	movq	%r11, (%rsp)
	.loc 1 3044 11 is_stmt 1 view .LVU3485
	.loc 1 3044 44 is_stmt 0 view .LVU3486
	addq	56(%rsp), %r15
	.loc 1 3044 31 view .LVU3487
	movq	%rax, %rdi
	.loc 1 3044 59 view .LVU3488
	movq	%rax, %r13
.LVL1247:
	.loc 1 3044 31 view .LVU3489
	leaq	0(,%rax,8), %rax
	.loc 1 3044 15 view .LVU3490
	movq	(%r15), %rsi
	.loc 1 3044 31 view .LVU3491
	subq	%rdi, %rax
	.loc 1 3044 59 view .LVU3492
	salq	$4, %r13
	addq	32(%rsp), %r13
	.loc 1 3044 15 view .LVU3493
	leaq	(%rcx,%rax,8), %r12
	movq	0(%r13), %rdx
	movq	%r12, %rdi
	call	fillbuf
.LVL1248:
	.loc 1 3044 14 view .LVU3494
	movq	(%rsp), %r11
	testb	%al, %al
	je	.L1099
.LBB1308:
	.loc 1 3046 15 is_stmt 1 view .LVU3495
.LBB1309:
.LBI1309:
	.loc 1 1603 1 view .LVU3496
.LVL1249:
.LBB1310:
	.loc 1 1605 3 view .LVU3497
	.loc 1 1605 9 is_stmt 0 view .LVU3498
	movq	24(%r12), %rax
	addq	(%r12), %rax
.LVL1250:
	.loc 1 1606 3 is_stmt 1 view .LVU3499
	.loc 1 1606 3 is_stmt 0 view .LVU3500
.LBE1310:
.LBE1309:
	.loc 1 3047 15 is_stmt 1 view .LVU3501
	.loc 1 3047 37 is_stmt 0 view .LVU3502
	leaq	-32(%rax), %rdx
	movq	%rdx, (%rbx)
	.loc 1 3048 15 is_stmt 1 view .LVU3503
	.loc 1 3048 38 is_stmt 0 view .LVU3504
	movq	16(%r12), %rdx
	salq	$5, %rdx
	subq	%rdx, %rax
.LVL1251:
	.loc 1 3048 38 view .LVU3505
.LBE1308:
.LBB1311:
	.loc 1 3089 15 view .LVU3506
	cmpq	$1, 16(%rsp)
.LBE1311:
.LBB1314:
	.loc 1 3048 38 view .LVU3507
	movq	%rax, (%r11)
.LVL1252:
	.loc 1 3048 38 view .LVU3508
.LBE1314:
.LBB1315:
	.loc 1 3089 15 is_stmt 1 view .LVU3509
	je	.L1100
.LVL1253:
.L1024:
	.loc 1 3089 15 is_stmt 0 view .LVU3510
	movq	(%rbx), %r13
	movq	16(%rsp), %rbx
	movq	%rbp, (%rsp)
	movl	$1, %r15d
	movl	$1, %r12d
	movq	%r14, %rbp
	movq	%rbx, %rax
	movq	%r15, %rbx
	movq	%rax, %r15
	jmp	.L1042
.LVL1254:
	.p2align 4,,10
	.p2align 3
.L1102:
.LBB1312:
	.loc 1 3092 38 discriminator 2 view .LVU3511
	cmpq	%r14, 8(%rsp)
	jnb	.L1052
	testl	%eax, %eax
	je	.L1051
.L1052:
	.loc 1 3095 15 is_stmt 1 view .LVU3512
	.loc 1 3095 18 is_stmt 0 view .LVU3513
	leaq	1(%r12), %rbx
.LVL1255:
	.loc 1 3096 13 is_stmt 1 view .LVU3514
	.loc 1 3096 25 is_stmt 0 view .LVU3515
	leaq	(%rbx,%r15), %r12
.LVL1256:
	.loc 1 3096 19 view .LVU3516
	shrq	%r12
.LVL1257:
	.loc 1 3096 19 view .LVU3517
.LBE1312:
	.loc 1 3089 15 is_stmt 1 view .LVU3518
	cmpq	%r15, %rbx
	jnb	.L1101
.LVL1258:
.L1042:
.LBB1313:
	.loc 1 3091 13 view .LVU3519
	.loc 1 3091 50 is_stmt 0 view .LVU3520
	movq	(%rsp), %rax
	.loc 1 3091 23 view .LVU3521
	movq	%r13, %rdi
	.loc 1 3091 50 view .LVU3522
	movq	(%rax,%r12,8), %r14
	.loc 1 3091 23 view .LVU3523
	movq	0(%rbp,%r14,8), %rsi
	call	compare
.LVL1259:
	.loc 1 3092 13 is_stmt 1 view .LVU3524
	.loc 1 3092 16 is_stmt 0 view .LVU3525
	testl	%eax, %eax
	jns	.L1102
.L1051:
.LVL1260:
	.loc 1 3092 16 view .LVU3526
	movq	%r12, %r15
	.loc 1 3096 13 is_stmt 1 view .LVU3527
	.loc 1 3096 25 is_stmt 0 view .LVU3528
	leaq	(%rbx,%r15), %r12
.LVL1261:
	.loc 1 3096 19 view .LVU3529
	shrq	%r12
.LVL1262:
	.loc 1 3096 19 view .LVU3530
.LBE1313:
	.loc 1 3089 15 is_stmt 1 view .LVU3531
	cmpq	%r15, %rbx
	jb	.L1042
.L1101:
	.loc 1 3089 15 is_stmt 0 view .LVU3532
	movq	%rbp, %r14
	movq	(%rsp), %rbp
	.loc 1 3099 9 is_stmt 1 view .LVU3533
	.loc 1 3099 32 is_stmt 0 view .LVU3534
	leaq	-1(%rbx), %rax
.LVL1263:
	.loc 1 3100 9 is_stmt 1 view .LVU3535
	.loc 1 3100 21 view .LVU3536
	leaq	0(%rbp,%rax,8), %rsi
	.loc 1 3100 9 is_stmt 0 view .LVU3537
	testq	%rax, %rax
	je	.L1043
	.loc 1 3100 9 view .LVU3538
	movq	%rbp, %rax
.LVL1264:
	.loc 1 3100 9 view .LVU3539
	leaq	-8(%rbp,%rbx,8), %rcx
.LVL1265:
	.p2align 4,,10
	.p2align 3
.L1044:
	.loc 1 3101 11 is_stmt 1 discriminator 3 view .LVU3540
	.loc 1 3101 18 is_stmt 0 discriminator 3 view .LVU3541
	movq	8(%rax), %rdx
	addq	$8, %rax
	movq	%rdx, -8(%rax)
	.loc 1 3100 49 is_stmt 1 discriminator 3 view .LVU3542
	.loc 1 3100 21 discriminator 3 view .LVU3543
	.loc 1 3100 9 is_stmt 0 discriminator 3 view .LVU3544
	cmpq	%rcx, %rax
	jne	.L1044
.L1043:
.LVL1266:
	.loc 1 3102 9 is_stmt 1 view .LVU3545
	.loc 1 3102 37 is_stmt 0 view .LVU3546
	movq	8(%rsp), %rax
	movq	%rax, (%rsi)
	.loc 1 3102 37 view .LVU3547
.LBE1315:
.LBE1322:
	.loc 1 2996 9 is_stmt 1 view .LVU3548
	jmp	.L1045
.LVL1267:
	.p2align 4,,10
	.p2align 3
.L1098:
.LBB1323:
	.loc 1 3041 9 view .LVU3549
	.loc 1 3041 32 is_stmt 0 view .LVU3550
	subq	$32, %r13
.LVL1268:
.LBB1316:
	.loc 1 3089 15 view .LVU3551
	cmpq	$1, 16(%rsp)
.LBE1316:
	.loc 1 3041 32 view .LVU3552
	movq	%r13, (%rbx)
.LVL1269:
.LBB1317:
	.loc 1 3089 15 is_stmt 1 view .LVU3553
	jne	.L1024
.LVL1270:
.L1100:
	.loc 1 3102 9 view .LVU3554
	.loc 1 3102 37 is_stmt 0 view .LVU3555
	movq	8(%rsp), %rax
	movq	%rax, 0(%rbp)
.LVL1271:
	.loc 1 3102 37 view .LVU3556
.LBE1317:
.LBE1323:
	.loc 1 2996 9 is_stmt 1 view .LVU3557
	jmp	.L1045
.LVL1272:
	.p2align 4,,10
	.p2align 3
.L1017:
.LBB1324:
	.loc 1 3037 9 view .LVU3558
	movq	72(%rsp), %rdx
	movq	64(%rsp), %rsi
	movq	%r13, %rdi
	call	write_line
.LVL1273:
	jmp	.L1019
	.p2align 4,,10
	.p2align 3
.L1097:
	.loc 1 3006 15 view .LVU3559
.LVL1274:
	.loc 1 3007 15 view .LVU3560
	movq	72(%rsp), %rdx
	movq	64(%rsp), %rsi
	movq	96(%rsp), %rdi
	call	write_line
.LVL1275:
	.loc 1 3009 11 view .LVU3561
.L1018:
	.loc 1 3011 15 view .LVU3562
	.loc 1 3012 15 view .LVU3563
	.loc 1 3012 39 is_stmt 0 view .LVU3564
	movq	8(%r13), %r12
	movq	112(%rsp), %rdi
	.loc 1 3012 18 view .LVU3565
	cmpq	88(%rsp), %r12
	ja	.L1103
.L1020:
	.loc 1 3025 15 is_stmt 1 view .LVU3566
.LBB1318:
.LBB1319:
	.loc 5 34 10 is_stmt 0 view .LVU3567
	movq	0(%r13), %rsi
	movq	%r12, %rdx
.LBE1319:
.LBE1318:
	.loc 1 3025 28 view .LVU3568
	movq	%r12, 120(%rsp)
	.loc 1 3026 15 is_stmt 1 view .LVU3569
.LVL1276:
.LBB1321:
.LBI1318:
	.loc 5 31 1 view .LVU3570
.LBB1320:
	.loc 5 34 3 view .LVU3571
	.loc 5 34 10 is_stmt 0 view .LVU3572
	call	memcpy@PLT
.LVL1277:
	.loc 5 34 10 view .LVU3573
.LBE1320:
.LBE1321:
	.loc 1 3027 15 is_stmt 1 view .LVU3574
	.loc 1 3011 25 is_stmt 0 view .LVU3575
	movq	96(%rsp), %rcx
	.loc 1 3027 18 view .LVU3576
	cmpq	$0, 104(%rsp)
	.loc 1 3011 25 view .LVU3577
	movq	%rcx, 48(%rsp)
	.loc 1 3027 18 view .LVU3578
	je	.L1019
	.loc 1 3029 19 is_stmt 1 view .LVU3579
	.loc 1 3030 52 is_stmt 0 view .LVU3580
	movq	16(%r13), %rdx
	.loc 1 3030 26 view .LVU3581
	movq	112(%rsp), %rax
	.loc 1 3030 62 view .LVU3582
	movq	0(%r13), %rsi
	.loc 1 3030 52 view .LVU3583
	addq	%rax, %rdx
	.loc 1 3032 52 view .LVU3584
	addq	24(%r13), %rax
	.loc 1 3030 32 view .LVU3585
	subq	%rsi, %rdx
	.loc 1 3032 32 view .LVU3586
	subq	%rsi, %rax
	.loc 1 3030 32 view .LVU3587
	movq	%rdx, 128(%rsp)
	.loc 1 3031 19 is_stmt 1 view .LVU3588
	.loc 1 3032 32 is_stmt 0 view .LVU3589
	movq	%rax, 136(%rsp)
	jmp	.L1019
.LVL1278:
	.p2align 4,,10
	.p2align 3
.L1099:
	.loc 1 3053 27 is_stmt 1 view .LVU3590
	movq	16(%rsp), %rcx
	leaq	8(%rbp), %rax
	leaq	0(%rbp,%rcx,8), %rsi
	.loc 1 3053 15 is_stmt 0 view .LVU3591
	cmpq	$1, %rcx
	je	.L1028
	movq	8(%rsp), %rcx
.LVL1279:
	.p2align 4,,10
	.p2align 3
.L1031:
	.loc 1 3054 17 is_stmt 1 view .LVU3592
	.loc 1 3054 24 is_stmt 0 view .LVU3593
	movq	(%rax), %rdx
	.loc 1 3054 20 view .LVU3594
	cmpq	%rcx, %rdx
	jbe	.L1030
	.loc 1 3055 19 is_stmt 1 view .LVU3595
	subq	$1, %rdx
	movq	%rdx, (%rax)
	movq	0(%rbp), %rcx
.L1030:
	.loc 1 3053 39 discriminator 2 view .LVU3596
	.loc 1 3053 27 discriminator 2 view .LVU3597
	addq	$8, %rax
	.loc 1 3053 15 is_stmt 0 discriminator 2 view .LVU3598
	cmpq	%rax, %rsi
	jne	.L1031
	leaq	0(,%rcx,8), %rax
	movq	%rcx, %rdi
	movq	%rcx, %r13
	movq	%rcx, 8(%rsp)
	movq	56(%rsp), %rcx
	salq	$4, %r13
	addq	32(%rsp), %r13
	leaq	(%rcx,%rax), %r15
	movq	40(%rsp), %rcx
	subq	%rdi, %rax
	leaq	(%rcx,%rax,8), %r12
.L1028:
	.loc 1 3056 15 is_stmt 1 view .LVU3599
	movq	16(%rsp), %rax
	.loc 1 3057 15 is_stmt 0 view .LVU3600
	movq	(%r15), %rdi
	movq	0(%r13), %rsi
	.loc 1 3056 15 view .LVU3601
	leaq	-1(%rax), %rbx
.LVL1280:
	.loc 1 3057 15 is_stmt 1 view .LVU3602
	call	xfclose
.LVL1281:
	.loc 1 3058 15 view .LVU3603
	.loc 1 3058 18 is_stmt 0 view .LVU3604
	movq	8(%rsp), %rdi
	cmpq	%rdi, 80(%rsp)
	ja	.L1104
.LVL1282:
.L1032:
	.loc 1 3063 15 is_stmt 1 view .LVU3605
	movq	(%r12), %rdi
	call	free@PLT
.LVL1283:
	.loc 1 3064 15 view .LVU3606
	.loc 1 3064 32 view .LVU3607
	.loc 1 3064 15 is_stmt 0 view .LVU3608
	cmpq	8(%rsp), %rbx
	jbe	.L1037
	movq	8(%rsp), %rdi
	movq	40(%rsp), %rcx
	movq	56(%rsp), %r8
	leaq	0(,%rdi,8), %rax
	movq	%rax, %rdx
	subq	%rdi, %rdx
	movq	32(%rsp), %rdi
	leaq	(%rcx,%rdx,8), %rdx
	movq	16(%rsp), %rcx
	leaq	-8(,%rcx,8), %rsi
	movq	24(%rsp), %rcx
	.p2align 4,,10
	.p2align 3
.L1036:
	.loc 1 3066 19 is_stmt 1 discriminator 3 view .LVU3609
	.loc 1 3066 26 is_stmt 0 discriminator 3 view .LVU3610
