	.file	"stat.c"
	.text
.Ltext0:
	.p2align 4
	.type	make_format, @function
make_format:
.LVL0:
.LFB149:
	.file 1 "src/stat.c"
	.loc 1 671 1 view -0
	.cfi_startproc
	.loc 1 672 3 view .LVU1
	.loc 1 671 1 is_stmt 0 view .LVU2
	pushq	%r15
	.cfi_def_cfa_offset 16
	.cfi_offset 15, -16
	.loc 1 674 15 view .LVU3
	leaq	(%rdi,%rsi), %rax
	leaq	printf_flags(%rip), %r15
	.loc 1 671 1 view .LVU4
	pushq	%r14
	.cfi_def_cfa_offset 24
	.cfi_offset 14, -24
	pushq	%r13
	.cfi_def_cfa_offset 32
	.cfi_offset 13, -32
	movq	%rdx, %r13
	pushq	%r12
	.cfi_def_cfa_offset 40
	.cfi_offset 12, -40
	pushq	%rbp
	.cfi_def_cfa_offset 48
	.cfi_offset 6, -48
	.loc 1 672 9 view .LVU5
	leaq	1(%rdi), %rbp
.LVL1:
	.loc 1 673 3 is_stmt 1 view .LVU6
	.loc 1 674 3 view .LVU7
	.loc 1 671 1 is_stmt 0 view .LVU8
	pushq	%rbx
	.cfi_def_cfa_offset 56
	.cfi_offset 3, -56
	movq	%rbp, %rbx
	subq	$24, %rsp
	.cfi_def_cfa_offset 80
	.loc 1 671 1 view .LVU9
	movq	%rcx, 8(%rsp)
	.loc 1 674 15 view .LVU10
	movq	%rax, (%rsp)
.LVL2:
	.loc 1 675 3 is_stmt 1 view .LVU11
	.loc 1 675 19 view .LVU12
	.loc 1 675 3 is_stmt 0 view .LVU13
	cmpq	%rax, %rbp
	jb	.L2
	jmp	.L3
.LVL3:
	.p2align 4,,10
	.p2align 3
.L5:
	.loc 1 676 5 is_stmt 1 view .LVU14
	.loc 1 676 9 is_stmt 0 view .LVU15
	movl	%r12d, %esi
	movq	%r13, %rdi
	call	strchr@PLT
.LVL4:
	.loc 1 676 8 view .LVU16
	testq	%rax, %rax
	je	.L4
	.loc 1 677 7 is_stmt 1 view .LVU17
.LVL5:
	.loc 1 677 14 is_stmt 0 view .LVU18
	movb	%r14b, 0(%rbp)
	.loc 1 677 11 view .LVU19
	addq	$1, %rbp
.LVL6:
.L4:
	.loc 1 675 64 is_stmt 1 discriminator 2 view .LVU20
	.loc 1 675 67 is_stmt 0 discriminator 2 view .LVU21
	addq	$1, %rbx
.LVL7:
	.loc 1 675 19 is_stmt 1 discriminator 2 view .LVU22
	.loc 1 675 3 is_stmt 0 discriminator 2 view .LVU23
	cmpq	%rbx, (%rsp)
	jbe	.L3
.L2:
	.loc 1 675 57 discriminator 3 view .LVU24
	movsbl	(%rbx), %r12d
	.loc 1 675 35 discriminator 3 view .LVU25
	movq	%r15, %rdi
	movl	%r12d, %esi
	.loc 1 675 57 discriminator 3 view .LVU26
	movl	%r12d, %r14d
	.loc 1 675 35 discriminator 3 view .LVU27
	call	strchr@PLT
.LVL8:
	.loc 1 675 32 discriminator 3 view .LVU28
	testq	%rax, %rax
	jne	.L5
	.loc 1 678 9 is_stmt 1 view .LVU29
	movq	(%rsp), %rax
	cmpq	%rbx, %rax
	jbe	.L3
	.loc 1 678 9 is_stmt 0 view .LVU30
	movq	%rax, %r12
	xorl	%eax, %eax
	subq	%rbx, %r12
	jmp	.L7
.LVL9:
	.p2align 4,,10
	.p2align 3
.L6:
	.loc 1 678 9 view .LVU31
	movzbl	(%rbx,%rax), %r14d
.LVL10:
.L7:
	.loc 1 679 5 is_stmt 1 view .LVU32
	.loc 1 679 12 is_stmt 0 view .LVU33
	movb	%r14b, 0(%rbp,%rax)
	.loc 1 678 9 is_stmt 1 view .LVU34
	addq	$1, %rax
.LVL11:
	.loc 1 678 9 is_stmt 0 view .LVU35
	cmpq	%rax, %r12
	jne	.L6
	addq	%r12, %rbp
.LVL12:
.L3:
	.loc 1 680 3 is_stmt 1 view .LVU36
.LBB175:
.LBI175:
	.file 2 "/usr/include/x86_64-linux-gnu/bits/string_fortified.h"
	.loc 2 88 1 view .LVU37
.LBB176:
	.loc 2 90 3 view .LVU38
	.loc 2 90 10 is_stmt 0 view .LVU39
	movq	8(%rsp), %rsi
.LBE176:
.LBE175:
	.loc 1 681 1 view .LVU40
	addq	$24, %rsp
	.cfi_def_cfa_offset 56
.LVL13:
.LBB179:
.LBB177:
	.loc 2 90 10 view .LVU41
	movq	%rbp, %rdi
.LBE177:
.LBE179:
	.loc 1 681 1 view .LVU42
	popq	%rbx
	.cfi_def_cfa_offset 48
	popq	%rbp
	.cfi_def_cfa_offset 40
.LVL14:
	.loc 1 681 1 view .LVU43
	popq	%r12
	.cfi_def_cfa_offset 32
	popq	%r13
	.cfi_def_cfa_offset 24
.LVL15:
	.loc 1 681 1 view .LVU44
	popq	%r14
	.cfi_def_cfa_offset 16
	popq	%r15
	.cfi_def_cfa_offset 8
.LBB180:
.LBB178:
	.loc 2 90 10 view .LVU45
	jmp	strcpy@PLT
.LVL16:
	.loc 2 90 10 view .LVU46
.LBE178:
.LBE180:
	.cfi_endproc
.LFE149:
	.size	make_format, .-make_format
	.section	.rodata.str1.1,"aMS",@progbits,1
.LC0:
	.string	"lx"
.LC1:
	.string	"-#0"
	.text
	.p2align 4
	.type	out_uint_x, @function
out_uint_x:
.LVL17:
.LFB154:
	.loc 1 709 1 is_stmt 1 view -0
	.cfi_startproc
	.loc 1 710 3 view .LVU48
	.loc 1 709 1 is_stmt 0 view .LVU49
	pushq	%r12
	.cfi_def_cfa_offset 16
	.cfi_offset 12, -16
	.loc 1 710 3 view .LVU50
	leaq	.LC0(%rip), %rcx
	.loc 1 709 1 view .LVU51
	movq	%rdx, %r12
	.loc 1 710 3 view .LVU52
	leaq	.LC1(%rip), %rdx
.LVL18:
	.loc 1 709 1 view .LVU53
	pushq	%rbp
	.cfi_def_cfa_offset 24
	.cfi_offset 6, -24
	movq	%rdi, %rbp
	subq	$8, %rsp
	.cfi_def_cfa_offset 32
	.loc 1 710 3 view .LVU54
	call	make_format
.LVL19:
	.loc 1 711 3 is_stmt 1 view .LVU55
.LBB181:
.LBI181:
	.file 3 "/usr/include/x86_64-linux-gnu/bits/stdio2.h"
	.loc 3 105 1 view .LVU56
.LBB182:
	.loc 3 107 3 view .LVU57
.LBE182:
.LBE181:
	.loc 1 712 1 is_stmt 0 view .LVU58
	addq	$8, %rsp
	.cfi_def_cfa_offset 24
.LBB186:
.LBB183:
	.loc 3 107 10 view .LVU59
	movq	%r12, %rdx
	movq	%rbp, %rsi
	movl	$1, %edi
.LBE183:
.LBE186:
	.loc 1 712 1 view .LVU60
	popq	%rbp
	.cfi_def_cfa_offset 16
.LVL20:
.LBB187:
.LBB184:
	.loc 3 107 10 view .LVU61
	xorl	%eax, %eax
.LBE184:
.LBE187:
	.loc 1 712 1 view .LVU62
	popq	%r12
	.cfi_def_cfa_offset 8
.LVL21:
.LBB188:
.LBB185:
	.loc 3 107 10 view .LVU63
	jmp	__printf_chk@PLT
.LVL22:
	.loc 3 107 10 view .LVU64
.LBE185:
.LBE188:
	.cfi_endproc
.LFE154:
	.size	out_uint_x, .-out_uint_x
	.section	.rodata.str1.1
.LC2:
	.string	"s"
.LC3:
	.string	"-"
	.text
	.p2align 4
	.type	out_string, @function
out_string:
.LVL23:
.LFB150:
	.loc 1 685 1 is_stmt 1 view -0
	.cfi_startproc
	.loc 1 686 3 view .LVU66
	.loc 1 685 1 is_stmt 0 view .LVU67
	pushq	%r12
	.cfi_def_cfa_offset 16
	.cfi_offset 12, -16
	.loc 1 686 3 view .LVU68
	leaq	.LC2(%rip), %rcx
	.loc 1 685 1 view .LVU69
	movq	%rdx, %r12
	.loc 1 686 3 view .LVU70
	leaq	.LC3(%rip), %rdx
.LVL24:
	.loc 1 685 1 view .LVU71
	pushq	%rbp
	.cfi_def_cfa_offset 24
	.cfi_offset 6, -24
	movq	%rdi, %rbp
	subq	$8, %rsp
	.cfi_def_cfa_offset 32
	.loc 1 686 3 view .LVU72
	call	make_format
.LVL25:
	.loc 1 687 3 is_stmt 1 view .LVU73
.LBB189:
.LBI189:
	.loc 3 105 1 view .LVU74
.LBB190:
	.loc 3 107 3 view .LVU75
.LBE190:
.LBE189:
	.loc 1 688 1 is_stmt 0 view .LVU76
	addq	$8, %rsp
	.cfi_def_cfa_offset 24
.LBB194:
.LBB191:
	.loc 3 107 10 view .LVU77
	movq	%r12, %rdx
	movq	%rbp, %rsi
	movl	$1, %edi
.LBE191:
.LBE194:
	.loc 1 688 1 view .LVU78
	popq	%rbp
	.cfi_def_cfa_offset 16
.LVL26:
.LBB195:
.LBB192:
	.loc 3 107 10 view .LVU79
	xorl	%eax, %eax
.LBE192:
.LBE195:
	.loc 1 688 1 view .LVU80
	popq	%r12
	.cfi_def_cfa_offset 8
.LVL27:
.LBB196:
.LBB193:
	.loc 3 107 10 view .LVU81
	jmp	__printf_chk@PLT
.LVL28:
	.loc 3 107 10 view .LVU82
.LBE193:
.LBE196:
	.cfi_endproc
.LFE150:
	.size	out_string, .-out_string
	.section	.rodata.str1.1
.LC4:
	.string	"lu"
.LC5:
	.string	"'-0"
	.text
	.p2align 4
	.type	out_uint, @function
out_uint:
.LVL29:
.LFB152:
	.loc 1 697 1 is_stmt 1 view -0
	.cfi_startproc
	.loc 1 698 3 view .LVU84
	.loc 1 697 1 is_stmt 0 view .LVU85
	pushq	%r12
	.cfi_def_cfa_offset 16
	.cfi_offset 12, -16
	.loc 1 698 3 view .LVU86
	leaq	.LC4(%rip), %rcx
	.loc 1 697 1 view .LVU87
	movq	%rdx, %r12
	.loc 1 698 3 view .LVU88
	leaq	.LC5(%rip), %rdx
.LVL30:
	.loc 1 697 1 view .LVU89
	pushq	%rbp
	.cfi_def_cfa_offset 24
	.cfi_offset 6, -24
	movq	%rdi, %rbp
	subq	$8, %rsp
	.cfi_def_cfa_offset 32
	.loc 1 698 3 view .LVU90
	call	make_format
.LVL31:
	.loc 1 699 3 is_stmt 1 view .LVU91
.LBB197:
.LBI197:
	.loc 3 105 1 view .LVU92
.LBB198:
	.loc 3 107 3 view .LVU93
.LBE198:
.LBE197:
	.loc 1 700 1 is_stmt 0 view .LVU94
	addq	$8, %rsp
	.cfi_def_cfa_offset 24
.LBB202:
.LBB199:
	.loc 3 107 10 view .LVU95
	movq	%r12, %rdx
	movq	%rbp, %rsi
	movl	$1, %edi
.LBE199:
.LBE202:
	.loc 1 700 1 view .LVU96
	popq	%rbp
	.cfi_def_cfa_offset 16
.LVL32:
.LBB203:
.LBB200:
	.loc 3 107 10 view .LVU97
	xorl	%eax, %eax
.LBE200:
.LBE203:
	.loc 1 700 1 view .LVU98
	popq	%r12
	.cfi_def_cfa_offset 8
.LVL33:
.LBB204:
.LBB201:
	.loc 3 107 10 view .LVU99
	jmp	__printf_chk@PLT
.LVL34:
	.loc 3 107 10 view .LVU100
.LBE201:
.LBE204:
	.cfi_endproc
.LFE152:
	.size	out_uint, .-out_uint
	.section	.rodata.str1.1
.LC6:
	.string	"ld"
.LC7:
	.string	"'-+ 0"
	.text
	.p2align 4
	.type	out_int, @function
out_int:
.LVL35:
.LFB151:
	.loc 1 691 1 is_stmt 1 view -0
	.cfi_startproc
	.loc 1 692 3 view .LVU102
	.loc 1 691 1 is_stmt 0 view .LVU103
	pushq	%r12
	.cfi_def_cfa_offset 16
	.cfi_offset 12, -16
	.loc 1 692 3 view .LVU104
	leaq	.LC6(%rip), %rcx
	.loc 1 691 1 view .LVU105
	movq	%rdx, %r12
	.loc 1 692 3 view .LVU106
	leaq	.LC7(%rip), %rdx
.LVL36:
	.loc 1 691 1 view .LVU107
	pushq	%rbp
	.cfi_def_cfa_offset 24
	.cfi_offset 6, -24
	movq	%rdi, %rbp
	subq	$8, %rsp
	.cfi_def_cfa_offset 32
	.loc 1 692 3 view .LVU108
	call	make_format
.LVL37:
	.loc 1 693 3 is_stmt 1 view .LVU109
.LBB205:
.LBI205:
	.loc 3 105 1 view .LVU110
.LBB206:
	.loc 3 107 3 view .LVU111
.LBE206:
.LBE205:
	.loc 1 694 1 is_stmt 0 view .LVU112
	addq	$8, %rsp
	.cfi_def_cfa_offset 24
.LBB210:
.LBB207:
	.loc 3 107 10 view .LVU113
	movq	%r12, %rdx
	movq	%rbp, %rsi
	movl	$1, %edi
.LBE207:
.LBE210:
	.loc 1 694 1 view .LVU114
	popq	%rbp
	.cfi_def_cfa_offset 16
.LVL38:
.LBB211:
.LBB208:
	.loc 3 107 10 view .LVU115
	xorl	%eax, %eax
.LBE208:
.LBE211:
	.loc 1 694 1 view .LVU116
	popq	%r12
	.cfi_def_cfa_offset 8
.LVL39:
.LBB212:
.LBB209:
	.loc 3 107 10 view .LVU117
	jmp	__printf_chk@PLT
.LVL40:
	.loc 3 107 10 view .LVU118
.LBE209:
.LBE212:
	.cfi_endproc
.LFE151:
	.size	out_int, .-out_int
	.section	.rodata.str1.1
.LC8:
	.string	"configfs"
.LC9:
	.string	"jffs2"
.LC10:
	.string	"adfs"
.LC11:
	.string	"ntfs"
.LC12:
	.string	"lustre"
.LC13:
	.string	"aafs"
.LC14:
	.string	"devfs"
.LC15:
	.string	"mqueue"
.LC16:
	.string	"jfs"
.LC17:
	.string	"aufs"
.LC18:
	.string	"cramfs"
.LC19:
	.string	"nsfs"
.LC20:
	.string	"prl_fs"
.LC21:
	.string	"zsmallocfs"
.LC22:
	.string	"ramfs"
.LC23:
	.string	"squashfs"
.LC24:
	.string	"cgroupfs"
.LC25:
	.string	"ecryptfs"
.LC26:
	.string	"daxfs"
.LC27:
	.string	"smb2"
.LC28:
	.string	"hugetlbfs"
.LC29:
	.string	"gfs/gfs2"
.LC30:
	.string	"ufs"
.LC31:
	.string	"ubifs"
.LC32:
	.string	"exfs"
.LC33:
	.string	"pstorefs"
.LC34:
	.string	"cgroup2fs"
.LC35:
	.string	"devpts"
.LC36:
	.string	"dma-buf-fs"
.LC37:
	.string	"hfs+"
.LC38:
	.string	"smackfs"
.LC39:
	.string	"ext2/ext3"
.LC40:
	.string	"f2fs"
.LC41:
	.string	"v9fs"
.LC42:
	.string	"selinux"
.LC43:
	.string	"m1fs"
.LC44:
	.string	"hfsx"
.LC45:
	.string	"minix (30 char.)"
.LC46:
	.string	"binfmt_misc"
.LC47:
	.string	"erofs"
.LC48:
	.string	"minix v2"
.LC49:
	.string	"sysv2"
.LC50:
	.string	"sysfs"
.LC51:
	.string	"rpc_pipefs"
.LC52:
	.string	"inodefs"
.LC53:
	.string	"xenix"
.LC54:
	.string	"reiserfs"
.LC55:
	.string	"fat"
.LC56:
	.string	"ext2"
.LC57:
	.string	"minix3"
.LC58:
	.string	"tmpfs"
.LC59:
	.string	"cifs"
.LC60:
	.string	"fusectl"
.LC61:
	.string	"fhgfs"
.LC62:
	.string	"coh"
.LC63:
	.string	"balloon-kvm-fs"
.LC64:
	.string	"ext"
.LC65:
	.string	"sdcardfs"
.LC66:
	.string	"vzfs"
.LC67:
	.string	"z3fold"
.LC68:
	.string	"proc"
.LC69:
	.string	"bfs"
.LC70:
	.string	"nfsd"
.LC71:
	.string	"ppc-cmm-fs"
.LC72:
	.string	"futexfs"
.LC73:
	.string	"xfs"
.LC74:
	.string	"jffs"
.LC75:
	.string	"minix"
.LC76:
	.string	"nilfs"
.LC77:
	.string	"isofs"
.LC78:
	.string	"msdos"
.LC79:
	.string	"udf"
.LC80:
	.string	"smb"
.LC81:
	.string	"nfs"
.LC82:
	.string	"exofs"
.LC83:
	.string	"binderfs"
.LC84:
	.string	"minix v2 (30 char.)"
.LC85:
	.string	"coda"
.LC86:
	.string	"wslfs"
.LC87:
	.string	"novell"
.LC88:
	.string	"vboxsf"
.LC89:
	.string	"securityfs"
.LC90:
	.string	"vmhgfs"
.LC91:
	.string	"devmem"
.LC92:
	.string	"vxfs"
.LC93:
	.string	"btrfs"
.LC94:
	.string	"bdevfs"
.LC95:
	.string	"autofs"
.LC96:
	.string	"zfs"
.LC97:
	.string	"ocfs2"
.LC98:
	.string	"usbdevfs"
.LC99:
	.string	"pipefs"
.LC100:
	.string	"fuseblk"
.LC101:
	.string	"zonefs"
.LC102:
	.string	"btrfs_test"
.LC103:
	.string	"snfs"
.LC104:
	.string	"cramfs-wend"
.LC105:
	.string	"romfs"
.LC106:
	.string	"efivarfs"
.LC107:
	.string	"logfs"
.LC108:
	.string	"gpfs"
.LC109:
	.string	"k-afs"
.LC110:
	.string	"debugfs"
.LC111:
	.string	"ibrix"
.LC112:
	.string	"hostfs"
.LC113:
	.string	"ceph"
.LC114:
	.string	"overlayfs"
.LC115:
	.string	"inotifyfs"
.LC116:
	.string	"anon-inode FS"
.LC117:
	.string	"efs"
.LC118:
	.string	"acfs"
.LC119:
	.string	"affs"
.LC120:
	.string	"rdt"
.LC121:
	.string	"tracefs"
.LC122:
	.string	"bpf_fs"
.LC123:
	.string	"xenfs"
.LC124:
	.string	"afs"
.LC125:
	.string	"sockfs"
.LC126:
	.string	"panfs"
.LC127:
	.string	"xia"
.LC128:
	.string	"qnx6"
.LC129:
	.string	"sysv4"
.LC130:
	.string	"qnx4"
.LC131:
	.string	"befs"
.LC132:
	.string	"openprom"
.LC133:
	.string	"hfs"
.LC134:
	.string	"hpfs"
.LC135:
	.string	"UNKNOWN (0x%lx)"
	.text
	.p2align 4
	.type	print_statfs, @function
print_statfs:
.LVL41:
.LFB158:
	.loc 1 856 1 is_stmt 1 view -0
	.cfi_startproc
	.loc 1 856 1 is_stmt 0 view .LVU120
	endbr64
	.loc 1 857 3 is_stmt 1 view .LVU121
.LVL42:
	.loc 1 858 3 view .LVU122
	.loc 1 860 3 view .LVU123
	.loc 1 856 1 is_stmt 0 view .LVU124
	pushq	%r12
	.cfi_def_cfa_offset 16
	.cfi_offset 12, -16
	subl	$83, %edx
.LVL43:
	.loc 1 856 1 view .LVU125
	pushq	%rbp
	.cfi_def_cfa_offset 24
	.cfi_offset 6, -24
	subq	$8, %rsp
	.cfi_def_cfa_offset 32
	cmpl	$33, %edx
	ja	.L25
	leaq	.L27(%rip), %rcx
.LVL44:
	.loc 1 856 1 view .LVU126
	movq	%rdi, %rbp
	movq	%rsi, %r12
	movslq	(%rcx,%rdx,4), %rax
	addq	%rcx, %rax
	notrack jmp	*%rax
	.section	.rodata
	.align 4
	.align 4
.L27:
	.long	.L38-.L27
	.long	.L37-.L27
	.long	.L25-.L27
	.long	.L25-.L27
	.long	.L25-.L27
	.long	.L25-.L27
	.long	.L25-.L27
	.long	.L25-.L27
	.long	.L25-.L27
	.long	.L25-.L27
	.long	.L25-.L27
	.long	.L25-.L27
	.long	.L25-.L27
	.long	.L25-.L27
	.long	.L36-.L27
	.long	.L35-.L27
	.long	.L34-.L27
	.long	.L33-.L27
	.long	.L25-.L27
	.long	.L32-.L27
	.long	.L25-.L27
	.long	.L25-.L27
	.long	.L31-.L27
	.long	.L25-.L27
	.long	.L25-.L27
	.long	.L30-.L27
	.long	.L25-.L27
	.long	.L29-.L27
	.long	.L25-.L27
	.long	.L25-.L27
	.long	.L25-.L27
	.long	.L25-.L27
	.long	.L263-.L27
	.long	.L26-.L27
	.text
	.p2align 4,,10
	.p2align 3
.L25:
	.loc 1 931 7 is_stmt 1 view .LVU127
	movq	stdout(%rip), %rdi
.LVL45:
.LBB224:
.LBI224:
	.file 4 "/usr/include/x86_64-linux-gnu/bits/stdio.h"
	.loc 4 91 1 view .LVU128
.LBB225:
	.loc 4 93 3 view .LVU129
	.loc 4 93 10 is_stmt 0 view .LVU130
	movq	40(%rdi), %rax
	cmpq	48(%rdi), %rax
	jnb	.L265
	leaq	1(%rax), %rdx
	movq	%rdx, 40(%rdi)
	movb	$63, (%rax)
.LVL46:
.L39:
	.loc 4 93 10 view .LVU131
.LBE225:
.LBE224:
	.loc 1 934 3 is_stmt 1 view .LVU132
	.loc 1 935 1 is_stmt 0 view .LVU133
	addq	$8, %rsp
	.cfi_remember_state
	.cfi_def_cfa_offset 24
	xorl	%eax, %eax
	popq	%rbp
	.cfi_def_cfa_offset 16
	popq	%r12
	.cfi_def_cfa_offset 8
	ret
.LVL47:
	.p2align 4,,10
	.p2align 3
.L38:
	.cfi_restore_state
.LBB227:
	.loc 1 918 9 is_stmt 1 view .LVU134
	.loc 1 918 19 is_stmt 0 view .LVU135
	movq	72(%r9), %rdx
.LVL48:
	.loc 1 919 9 is_stmt 1 view .LVU136
	.loc 1 919 12 is_stmt 0 view .LVU137
	testq	%rdx, %rdx
	jne	.L264
.LVL49:
.L263:
	.loc 1 920 11 is_stmt 1 view .LVU138
	.loc 1 920 18 is_stmt 0 view .LVU139
	movq	8(%r9), %rdx
.LVL50:
	.loc 1 921 9 is_stmt 1 view .LVU140
.L264:
	.loc 1 921 9 is_stmt 0 view .LVU141
.LBE227:
	.loc 1 925 7 view .LVU142
	movq	%r12, %rsi
.LVL51:
	.loc 1 925 7 view .LVU143
	movq	%rbp, %rdi
.LVL52:
	.loc 1 925 7 view .LVU144
	call	out_uint
.LVL53:
	.loc 1 926 7 is_stmt 1 view .LVU145
	.loc 1 934 3 view .LVU146
	.loc 1 935 1 is_stmt 0 view .LVU147
	addq	$8, %rsp
	.cfi_remember_state
	.cfi_def_cfa_offset 24
	xorl	%eax, %eax
	popq	%rbp
	.cfi_def_cfa_offset 16
.LVL54:
	.loc 1 935 1 view .LVU148
	popq	%r12
	.cfi_def_cfa_offset 8
.LVL55:
	.loc 1 935 1 view .LVU149
	ret
.LVL56:
	.p2align 4,,10
	.p2align 3
.L26:
	.cfi_restore_state
	.loc 1 896 7 is_stmt 1 view .LVU150
	movq	(%r9), %rdx
	call	out_uint_x
.LVL57:
	.loc 1 900 7 view .LVU151
	jmp	.L39
.LVL58:
	.p2align 4,,10
	.p2align 3
.L30:
	.loc 1 892 7 view .LVU152
	movq	64(%r9), %rdx
	call	out_uint
.LVL59:
	.loc 1 893 7 view .LVU153
	jmp	.L39
.LVL60:
	.p2align 4,,10
	.p2align 3
.L29:
	.loc 1 863 7 view .LVU154
	movq	%r8, %rdx
	call	out_string
.LVL61:
	.loc 1 864 7 view .LVU155
	jmp	.L39
.LVL62:
	.p2align 4,,10
	.p2align 3
.L37:
	.loc 1 902 7 view .LVU156
.LBB228:
.LBI228:
	.loc 1 260 1 view .LVU157
.LBB229:
	.loc 1 265 3 view .LVU158
	.loc 1 265 20 is_stmt 0 view .LVU159
	movq	(%r9), %r8
.LVL63:
	.loc 1 265 3 view .LVU160
	cmpq	$1112100429, %r8
	je	.L78
	jg	.L41
	cmpq	$61265, %r8
	je	.L79
	jle	.L266
	.loc 1 485 14 view .LVU161
	leaq	.LC120(%rip), %rdx
	.loc 1 265 3 view .LVU162
	cmpq	$124082209, %r8
	je	.L40
	jle	.L267
	.loc 1 379 14 view .LVU163
	leaq	.LC61(%rip), %rdx
	.loc 1 265 3 view .LVU164
	cmpq	$428016422, %r8
	je	.L40
	jle	.L268
	.loc 1 407 14 view .LVU165
	leaq	.LC115(%rip), %rdx
	.loc 1 265 3 view .LVU166
	cmpq	$732765674, %r8
	je	.L40
	jle	.L269
	.loc 1 419 14 view .LVU167
	leaq	.LC16(%rip), %rdx
	.loc 1 265 3 view .LVU168
	cmpq	$827541066, %r8
	je	.L40
	cmpq	$1111905073, %r8
	jne	.L270
	.loc 1 311 14 view .LVU169
	leaq	.LC131(%rip), %rdx
.LVL64:
	.p2align 4,,10
	.p2align 3
.L40:
	.loc 1 311 14 view .LVU170
.LBE229:
.LBE228:
	.loc 1 902 7 view .LVU171
	movq	%r12, %rsi
	movq	%rbp, %rdi
	call	out_string
.LVL65:
	.loc 1 903 7 is_stmt 1 view .LVU172
	jmp	.L39
.LVL66:
	.p2align 4,,10
	.p2align 3
.L41:
.LBB236:
.LBB233:
	.loc 1 265 3 is_stmt 0 view .LVU173
	cmpq	$1746473250, %r8
	je	.L144
	jle	.L271
	movl	$2508478710, %eax
	.loc 1 401 14 view .LVU174
	leaq	.LC28(%rip), %rdx
	.loc 1 265 3 view .LVU175
	cmpq	%rax, %r8
	je	.L40
	jle	.L272
	movl	$3405662737, %eax
	.loc 1 319 14 view .LVU176
	leaq	.LC122(%rip), %rdx
	.loc 1 265 3 view .LVU177
	cmpq	%rax, %r8
	je	.L40
	jle	.L273
	movl	$4185718668, %eax
	.loc 1 497 14 view .LVU178
	leaq	.LC42(%rip), %rdx
	.loc 1 265 3 view .LVU179
	cmpq	%rax, %r8
	je	.L40
	jle	.L274
	movl	$4266872130, %eax
	.loc 1 503 14 view .LVU180
	leaq	.LC27(%rip), %rdx
	.loc 1 265 3 view .LVU181
	cmpq	%rax, %r8
	je	.L40
	addq	$16777216, %rax
	cmpq	%rax, %r8
	jne	.L275
	.loc 1 333 14 view .LVU182
	leaq	.LC59(%rip), %rdx
	jmp	.L40
	.p2align 4,,10
	.p2align 3
.L271:
	.loc 1 549 14 view .LVU183
	leaq	.LC73(%rip), %rdx
	.loc 1 265 3 view .LVU184
	cmpq	$1481003842, %r8
	je	.L40
	jle	.L276
	.loc 1 339 14 view .LVU185
	leaq	.LC8(%rip), %rdx
	.loc 1 265 3 view .LVU186
	cmpq	$1650812272, %r8
	je	.L40
	jle	.L277
	.loc 1 345 14 view .LVU187
	leaq	.LC26(%rip), %rdx
	.loc 1 265 3 view .LVU188
	cmpq	$1684300152, %r8
	je	.L40
	jle	.L278
	.loc 1 381 14 view .LVU189
	leaq	.LC100(%rip), %rdx
	.loc 1 265 3 view .LVU190
	cmpq	$1702057286, %r8
	je	.L40
	cmpq	$1733912937, %r8
	jne	.L279
	.loc 1 491 14 view .LVU191
	leaq	.LC51(%rip), %rdx
	jmp	.L40
	.p2align 4,,10
	.p2align 3
.L266:
	.loc 1 393 14 view .LVU192
	leaq	.LC37(%rip), %rdx
	.loc 1 265 3 view .LVU193
	cmpq	$18475, %r8
	je	.L40
	jle	.L280
	.loc 1 489 14 view .LVU194
	leaq	.LC105(%rip), %rdx
	.loc 1 265 3 view .LVU195
	cmpq	$29301, %r8
	je	.L40
	jle	.L281
	.loc 1 455 14 view .LVU196
	leaq	.LC132(%rip), %rdx
	.loc 1 265 3 view .LVU197
	cmpq	$40865, %r8
	je	.L40
	jle	.L282
	.loc 1 294 14 view .LVU198
	leaq	.LC10(%rip), %rdx
	.loc 1 265 3 view .LVU199
	cmpq	$44533, %r8
	je	.L40
	cmpq	$44543, %r8
	jne	.L283
	.loc 1 296 14 view .LVU200
	leaq	.LC119(%rip), %rdx
	jmp	.L40
	.p2align 4,,10
	.p2align 3
.L280:
	.loc 1 353 14 view .LVU201
	leaq	.LC35(%rip), %rdx
	.loc 1 265 3 view .LVU202
	cmpq	$7377, %r8
	je	.L40
	jle	.L284
	.loc 1 409 14 view .LVU203
	leaq	.LC77(%rip), %rdx
	.loc 1 265 3 view .LVU204
	cmpq	$16384, %r8
	je	.L40
	jle	.L285
	.loc 1 377 14 view .LVU205
	leaq	.LC55(%rip), %rdx
	.loc 1 265 3 view .LVU206
	cmpq	$16390, %r8
	je	.L40
	cmpq	$16964, %r8
	jne	.L286
	.loc 1 391 14 view .LVU207
	leaq	.LC133(%rip), %rdx
	jmp	.L40
	.p2align 4,,10
	.p2align 3
.L267:
	.loc 1 531 14 view .LVU208
	leaq	.LC41(%rip), %rdx
	.loc 1 265 3 view .LVU209
	cmpq	$16914839, %r8
	je	.L40
	jle	.L287
	.loc 1 515 14 view .LVU210
	leaq	.LC129(%rip), %rdx
	.loc 1 265 3 view .LVU211
	cmpq	$19920821, %r8
	je	.L40
	jle	.L288
	.loc 1 337 14 view .LVU212
	leaq	.LC62(%rip), %rdx
	.loc 1 265 3 view .LVU213
	cmpq	$19920823, %r8
	je	.L40
	cmpq	$19993000, %r8
	jne	.L289
	.loc 1 405 14 view .LVU214
	leaq	.LC111(%rip), %rdx
	jmp	.L40
	.p2align 4,,10
	.p2align 3
.L276:
	.loc 1 427 14 view .LVU215
	leaq	.LC43(%rip), %rdx
	.loc 1 265 3 view .LVU216
	cmpq	$1397109069, %r8
	je	.L40
	jle	.L290
	.loc 1 507 14 view .LVU217
	leaq	.LC125(%rip), %rdx
	.loc 1 265 3 view .LVU218
	cmpq	$1397703499, %r8
	je	.L40
	jle	.L291
	.loc 1 541 14 view .LVU219
	leaq	.LC66(%rip), %rdx
	.loc 1 265 3 view .LVU220
	cmpq	$1448756819, %r8
	je	.L40
	cmpq	$1479104553, %r8
	jne	.L292
	.loc 1 559 14 view .LVU221
	leaq	.LC21(%rip), %rdx
	jmp	.L40
	.p2align 4,,10
	.p2align 3
.L272:
	.loc 1 335 14 view .LVU222
	leaq	.LC85(%rip), %rdx
	.loc 1 265 3 view .LVU223
	cmpq	$1937076805, %r8
	je	.L40
	jle	.L293
	.loc 1 462 14 view .LVU224
	leaq	.LC114(%rip), %rdx
	.loc 1 265 3 view .LVU225
	cmpq	$2035054128, %r8
	je	.L40
	jle	.L294
	movl	$2240043254, %eax
	.loc 1 483 14 view .LVU226
	leaq	.LC22(%rip), %rdx
	.loc 1 265 3 view .LVU227
	cmpq	%rax, %r8
	je	.L40
	addq	$194973512, %rax
	cmpq	%rax, %r8
	jne	.L295
	.loc 1 323 14 view .LVU228
	leaq	.LC93(%rip), %rdx
	jmp	.L40
.LVL67:
	.p2align 4,,10
	.p2align 3
.L36:
	.loc 1 323 14 view .LVU229
.LBE233:
.LBE236:
	.loc 1 911 7 is_stmt 1 view .LVU230
	movq	32(%r9), %rdx
	call	out_int
.LVL68:
	.loc 1 912 7 view .LVU231
	jmp	.L39
.LVL69:
	.p2align 4,,10
	.p2align 3
.L35:
	.loc 1 905 7 view .LVU232
	movq	16(%r9), %rdx
	call	out_int
.LVL70:
	.loc 1 906 7 view .LVU233
	jmp	.L39
.LVL71:
	.p2align 4,,10
	.p2align 3
.L34:
	.loc 1 925 7 view .LVU234
	movq	40(%r9), %rdx
	jmp	.L264
	.p2align 4,,10
	.p2align 3
.L33:
	.loc 1 928 7 view .LVU235
	movq	48(%r9), %rdx
	call	out_int
.LVL72:
	.loc 1 929 7 view .LVU236
	jmp	.L39
.LVL73:
	.p2align 4,,10
	.p2align 3
.L32:
	.loc 1 908 7 view .LVU237
	movq	24(%r9), %rdx
	call	out_int
.LVL74:
	.loc 1 909 7 view .LVU238
	jmp	.L39
.LVL75:
	.p2align 4,,10
	.p2align 3
.L31:
.LBB237:
	.loc 1 871 9 view .LVU239
	.loc 1 872 9 view .LVU240
	.loc 1 873 9 view .LVU241
	.loc 1 874 9 view .LVU242
	.loc 1 875 9 view .LVU243
	.loc 1 879 9 view .LVU244
	.loc 1 880 9 view .LVU245
	.loc 1 881 9 view .LVU246
.LBB238:
	.loc 1 881 14 view .LVU247
	.loc 1 881 25 view .LVU248
.LBB239:
	.loc 1 883 13 view .LVU249
	.loc 1 884 13 view .LVU250
	.loc 1 884 13 is_stmt 0 view .LVU251
.LBE239:
	.loc 1 881 67 is_stmt 1 view .LVU252
	.loc 1 881 25 view .LVU253
.LBB240:
	.loc 1 883 13 view .LVU254
	.loc 1 884 13 view .LVU255
	.loc 1 884 13 is_stmt 0 view .LVU256
.LBE240:
	.loc 1 881 67 is_stmt 1 view .LVU257
	.loc 1 881 25 view .LVU258
.LBE238:
	.loc 1 887 9 view .LVU259
.LBB242:
.LBB241:
	.loc 1 883 23 is_stmt 0 view .LVU260
	movl	56(%r9), %edx
.LVL76:
	.loc 1 883 23 view .LVU261
	movl	60(%r9), %eax
	.loc 1 884 23 view .LVU262
	salq	$32, %rdx
.LVL77:
	.loc 1 884 18 view .LVU263
	orq	%rax, %rdx
.LBE241:
.LBE242:
	.loc 1 887 9 view .LVU264
	call	out_uint_x
.LVL78:
	.loc 1 887 9 view .LVU265
.LBE237:
	.loc 1 889 7 is_stmt 1 view .LVU266
	jmp	.L39
.LVL79:
.L283:
.LBB243:
.LBB234:
	.loc 1 265 3 is_stmt 0 view .LVU267
	cmpq	$40866, %r8
	jne	.L47
	.loc 1 529 14 view .LVU268
	leaq	.LC98(%rip), %rdx
	jmp	.L40
.L295:
	.loc 1 265 3 view .LVU269
	cmpq	$2088527475, %r8
	jne	.L47
	.loc 1 473 14 view .LVU270
	leaq	.LC20(%rip), %rdx
	jmp	.L40
.L294:
	.loc 1 519 14 view .LVU271
	leaq	.LC121(%rip), %rdx
	.loc 1 265 3 view .LVU272
	cmpq	$1953653091, %r8
	je	.L40
	cmpq	$2020557398, %r8
	jne	.L296
	.loc 1 533 14 view .LVU273
	leaq	.LC88(%rip), %rdx
	jmp	.L40
.L293:
	.loc 1 451 14 view .LVU274
	leaq	.LC19(%rip), %rdx
	.loc 1 265 3 view .LVU275
	cmpq	$1853056627, %r8
	je	.L40
	jle	.L297
	.loc 1 509 14 view .LVU276
	leaq	.LC23(%rip), %rdx
	.loc 1 265 3 view .LVU277
	cmpq	$1936814952, %r8
	je	.L40
	cmpq	$1936880249, %r8
	jne	.L298
	.loc 1 325 14 view .LVU278
	leaq	.LC102(%rip), %rdx
	jmp	.L40
.L296:
	.loc 1 265 3 view .LVU279
	cmpq	$1952539503, %r8
	jne	.L47
	.loc 1 457 14 view .LVU280
	leaq	.LC97(%rip), %rdx
	jmp	.L40
.L298:
	.loc 1 265 3 view .LVU281
	cmpq	$1935894131, %r8
	jne	.L47
	.loc 1 495 14 view .LVU282
	leaq	.LC89(%rip), %rdx
	jmp	.L40
.L297:
	.loc 1 317 14 view .LVU283
	leaq	.LC83(%rip), %rdx
	.loc 1 265 3 view .LVU284
	cmpq	$1819242352, %r8
	je	.L40
	cmpq	$1852207972, %r8
	jne	.L299
	.loc 1 447 14 view .LVU285
	leaq	.LC70(%rip), %rdx
	jmp	.L40
.L282:
	.loc 1 409 14 view .LVU286
	leaq	.LC77(%rip), %rdx
	.loc 1 265 3 view .LVU287
	cmpq	$38496, %r8
	je	.L40
	cmpq	$40864, %r8
	jne	.L300
	.loc 1 475 14 view .LVU288
	leaq	.LC68(%rip), %rdx
	jmp	.L40
.L274:
	.loc 1 265 3 view .LVU289
	subq	$411508138, %rax
	.loc 1 363 14 view .LVU290
	leaq	.LC47(%rip), %rdx
	.loc 1 265 3 view .LVU291
	cmpq	%rax, %r8
	je	.L40
	addq	$301940270, %rax
	cmpq	%rax, %r8
	jne	.L301
	.loc 1 375 14 view .LVU292
	leaq	.LC40(%rip), %rdx
	jmp	.L40
.L281:
	.loc 1 501 14 view .LVU293
	leaq	.LC80(%rip), %rdx
	.loc 1 265 3 view .LVU294
	cmpq	$20859, %r8
	je	.L40
	jle	.L302
	.loc 1 367 14 view .LVU295
	leaq	.LC82(%rip), %rdx
	.loc 1 265 3 view .LVU296
	cmpq	$24053, %r8
	je	.L40
	cmpq	$26985, %r8
	jne	.L303
	.loc 1 445 14 view .LVU297
	leaq	.LC81(%rip), %rdx
	jmp	.L40
.L273:
	.loc 1 265 3 view .LVU298
	subq	$271752533, %rax
	.loc 1 535 14 view .LVU299
	leaq	.LC90(%rip), %rdx
	.loc 1 265 3 view .LVU300
	cmpq	%rax, %r8
	je	.L40
	jle	.L304
	movl	$3344373136, %eax
	.loc 1 471 14 view .LVU301
	leaq	.LC71(%rip), %rdx
	.loc 1 265 3 view .LVU302
	cmpq	%rax, %r8
	je	.L40
	addq	$36137944, %rax
	cmpq	%rax, %r8
	jne	.L305
	.loc 1 423 14 view .LVU303
	leaq	.LC107(%rip), %rdx
	jmp	.L40
.L300:
	.loc 1 265 3 view .LVU304
	cmpq	$29366, %r8
	jne	.L47
	.loc 1 417 14 view .LVU305
	leaq	.LC9(%rip), %rdx
	jmp	.L40
.L305:
	.loc 1 265 3 view .LVU306
	subq	$177119931, %rax
	cmpq	%rax, %r8
	jne	.L47
	.loc 1 505 14 view .LVU307
	leaq	.LC103(%rip), %rdx
	jmp	.L40
.L304:
	.loc 1 265 3 view .LVU308
	subq	$267649490, %rax
	.loc 1 464 14 view .LVU309
	leaq	.LC126(%rip), %rdx
	.loc 1 265 3 view .LVU310
	cmpq	%rax, %r8
	je	.L40
	addq	$14839434, %rax
	cmpq	%rax, %r8
	jne	.L306
	.loc 1 545 14 view .LVU311
	leaq	.LC123(%rip), %rdx
	jmp	.L40
.L299:
	.loc 1 265 3 view .LVU312
	cmpq	$1799439955, %r8
	jne	.L47
	.loc 1 421 14 view .LVU313
	leaq	.LC109(%rip), %rdx
	jmp	.L40
.L303:
	.loc 1 265 3 view .LVU314
	cmpq	$22092, %r8
	jne	.L47
	.loc 1 443 14 view .LVU315
	leaq	.LC87(%rip), %rdx
	jmp	.L40
.L302:
	.loc 1 441 14 view .LVU316
	leaq	.LC78(%rip), %rdx
	.loc 1 265 3 view .LVU317
	cmpq	$19780, %r8
	je	.L40
	cmpq	$19802, %r8
	jne	.L307
	.loc 1 437 14 view .LVU318
	leaq	.LC57(%rip), %rdx
	jmp	.L40
.L301:
	.loc 1 265 3 view .LVU319
	subq	$345415212, %rax
	cmpq	%rax, %r8
	jne	.L47
	.loc 1 359 14 view .LVU320
	leaq	.LC106(%rip), %rdx
	jmp	.L40
.L306:
	.loc 1 265 3 view .LVU321
	subq	$112729215, %rax
	cmpq	%rax, %r8
	jne	.L47
	.loc 1 539 14 view .LVU322
	leaq	.LC92(%rip), %rdx
	jmp	.L40
.L307:
	.loc 1 265 3 view .LVU323
	cmpq	$18520, %r8
	jne	.L47
	.loc 1 395 14 view .LVU324
	leaq	.LC44(%rip), %rdx
	jmp	.L40
.L288:
	.loc 1 551 14 view .LVU325
	leaq	.LC127(%rip), %rdx
	.loc 1 265 3 view .LVU326
	cmpq	$19911021, %r8
	je	.L40
	cmpq	$19920820, %r8
	jne	.L308
	.loc 1 547 14 view .LVU327
	leaq	.LC53(%rip), %rdx
	jmp	.L40
.L287:
	.loc 1 361 14 view .LVU328
	leaq	.LC117(%rip), %rdx
	.loc 1 265 3 view .LVU329
	cmpq	$4278867, %r8
	je	.L40
	jle	.L309
	.loc 1 327 14 view .LVU330
	leaq	.LC113(%rip), %rdx
	.loc 1 265 3 view .LVU331
	cmpq	$12805120, %r8
	je	.L40
	cmpq	$16914836, %r8
	jne	.L310
	.loc 1 517 14 view .LVU332
	leaq	.LC58(%rip), %rdx
	jmp	.L40
.L308:
	.loc 1 265 3 view .LVU333
	cmpq	$18225520, %r8
	jne	.L47
	.loc 1 387 14 view .LVU334
	leaq	.LC29(%rip), %rdx
	jmp	.L40
.L310:
	.loc 1 265 3 view .LVU335
	cmpq	$12648430, %r8
	jne	.L47
	.loc 1 397 14 view .LVU336
	leaq	.LC112(%rip), %rdx
	jmp	.L40
.L309:
	.loc 1 525 14 view .LVU337
	leaq	.LC30(%rip), %rdx
	.loc 1 265 3 view .LVU338
	cmpq	$72020, %r8
	je	.L40
	jle	.L311
	cmpq	$2613483, %r8
	jne	.L47
	.loc 1 329 14 view .LVU339
	leaq	.LC24(%rip), %rdx
	jmp	.L40
.L270:
	.loc 1 265 3 view .LVU340
	cmpq	$801189825, %r8
	jne	.L47
	.loc 1 555 14 view .LVU341
	leaq	.LC96(%rip), %rdx
	jmp	.L40
.L269:
	.loc 1 521 14 view .LVU342
	leaq	.LC31(%rip), %rdx
	.loc 1 265 3 view .LVU343
	cmpq	$604313861, %r8
	je	.L40
	cmpq	$684539205, %r8
	jne	.L312
	.loc 1 341 14 view .LVU344
	leaq	.LC18(%rip), %rdx
	jmp	.L40
.L311:
	.loc 1 371 14 view .LVU345
	leaq	.LC39(%rip), %rdx
	.loc 1 265 3 view .LVU346
	cmpq	$61267, %r8
	je	.L40
	cmpq	$61791, %r8
	jne	.L47
	.loc 1 357 14 view .LVU347
	leaq	.LC25(%rip), %rdx
	jmp	.L40
.L312:
	.loc 1 265 3 view .LVU348
	cmpq	$464386766, %r8
	jne	.L47
	.loc 1 315 14 view .LVU349
	leaq	.LC69(%rip), %rdx
	jmp	.L40
.L268:
	.loc 1 403 14 view .LVU350
	leaq	.LC52(%rip), %rdx
	.loc 1 265 3 view .LVU351
	cmpq	$288389204, %r8
	je	.L40
	jle	.L313
	.loc 1 523 14 view .LVU352
	leaq	.LC79(%rip), %rdx
	.loc 1 265 3 view .LVU353
	cmpq	$352400198, %r8
	je	.L40
	cmpq	$427819522, %r8
	jne	.L314
	.loc 1 439 14 view .LVU354
	leaq	.LC15(%rip), %rdx
	jmp	.L40
.L286:
	.loc 1 265 3 view .LVU355
	cmpq	$16388, %r8
	jne	.L47
	.loc 1 409 14 view .LVU356
	leaq	.LC77(%rip), %rdx
	jmp	.L40
.L314:
	.loc 1 265 3 view .LVU357
	cmpq	$325456742, %r8
	jne	.L47
	.loc 1 309 14 view .LVU358
	leaq	.LC63(%rip), %rdx
	jmp	.L40
.L313:
	.loc 1 385 14 view .LVU359
	leaq	.LC72(%rip), %rdx
	.loc 1 265 3 view .LVU360
	cmpq	$195894762, %r8
	je	.L40
	cmpq	$198183888, %r8
	jne	.L315
	.loc 1 425 14 view .LVU361
	leaq	.LC12(%rip), %rdx
	jmp	.L40
.L285:
	.loc 1 435 14 view .LVU362
	leaq	.LC84(%rip), %rdx
	.loc 1 265 3 view .LVU363
	cmpq	$9336, %r8
	je	.L40
	cmpq	$13364, %r8
	jne	.L316
	.loc 1 449 14 view .LVU364
	leaq	.LC76(%rip), %rdx
	jmp	.L40
.L284:
	.loc 1 349 14 view .LVU365
	leaq	.LC14(%rip), %rdx
	.loc 1 265 3 view .LVU366
	cmpq	$4979, %r8
	je	.L40
	jle	.L317
	.loc 1 429 14 view .LVU367
	leaq	.LC75(%rip), %rdx
	.loc 1 265 3 view .LVU368
	cmpq	$4991, %r8
	je	.L40
	cmpq	$5007, %r8
	jne	.L318
	.loc 1 431 14 view .LVU369
	leaq	.LC45(%rip), %rdx
	jmp	.L40
.L315:
	.loc 1 265 3 view .LVU370
	cmpq	$151263540, %r8
	jne	.L47
	.loc 1 300 14 view .LVU371
	leaq	.LC116(%rip), %rdx
	jmp	.L40
.L316:
	.loc 1 265 3 view .LVU372
	cmpq	$9320, %r8
	jne	.L47
	.loc 1 433 14 view .LVU373
	leaq	.LC48(%rip), %rdx
	jmp	.L40
.L318:
	.loc 1 265 3 view .LVU374
	cmpq	$4989, %r8
	jne	.L47
	.loc 1 369 14 view .LVU375
	leaq	.LC64(%rip), %rdx
	jmp	.L40
.L317:
	.loc 1 307 14 view .LVU376
	leaq	.LC95(%rip), %rdx
	.loc 1 265 3 view .LVU377
	cmpq	$391, %r8
	je	.L40
	jle	.L319
	cmpq	$1984, %r8
	jne	.L47
	.loc 1 415 14 view .LVU378
	leaq	.LC74(%rip), %rdx
	jmp	.L40
.L275:
	.loc 1 265 3 view .LVU379
	subq	$96298233, %rax
	cmpq	%rax, %r8
	jne	.L47
	.loc 1 399 14 view .LVU380
	leaq	.LC134(%rip), %rdx
	jmp	.L40
.L289:
	.loc 1 265 3 view .LVU381
	cmpq	$19920822, %r8
	jne	.L47
	.loc 1 513 14 view .LVU382
	leaq	.LC49(%rip), %rdx
	jmp	.L40
.L292:
	.loc 1 265 3 view .LVU383
	cmpq	$1410924800, %r8
	jne	.L47
	.loc 1 525 14 view .LVU384
	leaq	.LC30(%rip), %rdx
	jmp	.L40
.L291:
	.loc 1 543 14 view .LVU385
	leaq	.LC86(%rip), %rdx
	.loc 1 265 3 view .LVU386
	cmpq	$1397114950, %r8
	je	.L40
	cmpq	$1397118030, %r8
	jne	.L320
	.loc 1 453 14 view .LVU387
	leaq	.LC11(%rip), %rdx
	jmp	.L40
.L290:
	.loc 1 365 14 view .LVU388
	leaq	.LC32(%rip), %rdx
	.loc 1 265 3 view .LVU389
	cmpq	$1163413075, %r8
	je	.L40
	jle	.L321
	.loc 1 469 14 view .LVU390
	leaq	.LC99(%rip), %rdx
	.loc 1 265 3 view .LVU391
	cmpq	$1346981957, %r8
	je	.L40
	cmpq	$1382369651, %r8
	jne	.L322
	.loc 1 487 14 view .LVU392
	leaq	.LC54(%rip), %rdx
	jmp	.L40
.L320:
	.loc 1 265 3 view .LVU393
	cmpq	$1397113167, %r8
	jne	.L47
	.loc 1 298 14 view .LVU394
	leaq	.LC124(%rip), %rdx
	jmp	.L40
.L322:
	.loc 1 265 3 view .LVU395
	cmpq	$1196443219, %r8
	jne	.L47
	.loc 1 389 14 view .LVU396
	leaq	.LC108(%rip), %rdx
	jmp	.L40
.L321:
	.loc 1 343 14 view .LVU397
	leaq	.LC104(%rip), %rdx
	.loc 1 265 3 view .LVU398
	cmpq	$1161678120, %r8
	je	.L40
	jle	.L323
	cmpq	$1162691661, %r8
	jne	.L47
	.loc 1 351 14 view .LVU399
	leaq	.LC91(%rip), %rdx
	jmp	.L40
.L278:
	.loc 1 331 14 view .LVU400
	leaq	.LC34(%rip), %rdx
	.loc 1 265 3 view .LVU401
	cmpq	$1667723888, %r8
	je	.L40
	cmpq	$1684170528, %r8
	jne	.L324
	.loc 1 347 14 view .LVU402
	leaq	.LC110(%rip), %rdx
	jmp	.L40
.L279:
	.loc 1 265 3 view .LVU403
	cmpq	$1702057283, %r8
	jne	.L47
	.loc 1 383 14 view .LVU404
	leaq	.LC60(%rip), %rdx
	jmp	.L40
.L277:
	.loc 1 265 3 view .LVU405
	leaq	.LC118(%rip), %rdx
	cmpq	$1633904243, %r8
	je	.L40
	jle	.L325
	.loc 1 305 14 view .LVU406
	leaq	.LC17(%rip), %rdx
	.loc 1 265 3 view .LVU407
	cmpq	$1635083891, %r8
	je	.L40
	cmpq	$1650746742, %r8
	jne	.L326
	.loc 1 313 14 view .LVU408
	leaq	.LC94(%rip), %rdx
	jmp	.L40
.L323:
	.loc 1 499 14 view .LVU409
	leaq	.LC38(%rip), %rdx
	.loc 1 265 3 view .LVU410
	cmpq	$1128357203, %r8
	je	.L40
	cmpq	$1145913666, %r8
	jne	.L47
	.loc 1 355 14 view .LVU411
	leaq	.LC36(%rip), %rdx
	jmp	.L40
.L326:
	.loc 1 265 3 view .LVU412
	cmpq	$1634035564, %r8
	jne	.L47
	.loc 1 477 14 view .LVU413
	leaq	.LC33(%rip), %rdx
	jmp	.L40
.L325:
	.loc 1 557 14 view .LVU414
	leaq	.LC101(%rip), %rdx
	.loc 1 265 3 view .LVU415
	cmpq	$1515144787, %r8
	je	.L40
	cmpq	$1573531125, %r8
	jne	.L327
	.loc 1 493 14 view .LVU416
	leaq	.LC65(%rip), %rdx
	jmp	.L40
.L319:
	.loc 1 479 14 view .LVU417
	leaq	.LC130(%rip), %rdx
	.loc 1 265 3 view .LVU418
	cmpq	$47, %r8
	je	.L40
	cmpq	$51, %r8
	jne	.L47
	.loc 1 553 14 view .LVU419
	leaq	.LC67(%rip), %rdx
	jmp	.L40
.L324:
	.loc 1 265 3 view .LVU420
	cmpq	$1650812274, %r8
	jne	.L47
	.loc 1 511 14 view .LVU421
	leaq	.LC50(%rip), %rdx
	jmp	.L40
.L327:
	.loc 1 265 3 view .LVU422
	cmpq	$1513908720, %r8
	jne	.L47
	.loc 1 290 14 view .LVU423
	leaq	.LC13(%rip), %rdx
	jmp	.L40
.LVL80:
.L265:
	.loc 1 290 14 view .LVU424
.LBE234:
.LBE243:
.LBB244:
.LBB226:
	.loc 4 93 10 view .LVU425
	movl	$63, %esi
.LVL81:
	.loc 4 93 10 view .LVU426
	call	__overflow@PLT
.LVL82:
	.loc 4 93 10 view .LVU427
	jmp	.L39
.LVL83:
.L144:
	.loc 4 93 10 view .LVU428
.LBE226:
.LBE244:
.LBB245:
.LBB235:
	.loc 1 481 14 view .LVU429
	leaq	.LC128(%rip), %rdx
	jmp	.L40
.L79:
	.loc 1 373 14 view .LVU430
	leaq	.LC56(%rip), %rdx
	jmp	.L40
.L47:
.LBB230:
	.loc 1 620 9 is_stmt 1 view .LVU431
.LVL84:
	.loc 1 621 9 view .LVU432
	.loc 1 623 9 view .LVU433
.LBB231:
.LBI231:
	.loc 3 34 1 view .LVU434
.LBB232:
	.loc 3 36 3 view .LVU435
	.loc 3 36 10 is_stmt 0 view .LVU436
	movl	$29, %edx
	leaq	.LC135(%rip), %rcx
	movl	$1, %esi
.LVL85:
	.loc 3 36 10 view .LVU437
	xorl	%eax, %eax
	leaq	buf.7956(%rip), %rdi
.LVL86:
	.loc 3 36 10 view .LVU438
	call	__sprintf_chk@PLT
.LVL87:
	.loc 3 36 10 view .LVU439
.LBE232:
.LBE231:
	.loc 1 624 9 is_stmt 1 view .LVU440
	.loc 1 624 16 is_stmt 0 view .LVU441
	leaq	buf.7956(%rip), %rdx
	jmp	.L40
.LVL88:
.L78:
	.loc 1 624 16 view .LVU442
.LBE230:
	.loc 1 321 14 view .LVU443
	leaq	.LC46(%rip), %rdx
	jmp	.L40
.LBE235:
.LBE245:
	.cfi_endproc
.LFE158:
	.size	print_statfs, .-print_statfs
	.p2align 4
	.type	format_code_offset, @function
format_code_offset:
.LVL89:
.LFB164:
	.loc 1 1106 1 is_stmt 1 view -0
	.cfi_startproc
	.loc 1 1107 3 view .LVU445
	.loc 1 1106 1 is_stmt 0 view .LVU446
	pushq	%rbp
	.cfi_def_cfa_offset 16
	.cfi_offset 6, -16
	.loc 1 1107 16 view .LVU447
	leaq	printf_flags(%rip), %rsi
	.loc 1 1106 1 view .LVU448
	movq	%rdi, %rbp
	.loc 1 1107 16 view .LVU449
	addq	$1, %rdi
.LVL90:
	.loc 1 1106 1 view .LVU450
	pushq	%rbx
	.cfi_def_cfa_offset 24
	.cfi_offset 3, -24
	subq	$8, %rsp
	.cfi_def_cfa_offset 32
	.loc 1 1107 16 view .LVU451
	call	strspn@PLT
.LVL91:
	.loc 1 1108 3 is_stmt 1 view .LVU452
	.loc 1 1109 15 is_stmt 0 view .LVU453
	leaq	digits(%rip), %rsi
	.loc 1 1108 15 view .LVU454
	leaq	1(%rbp,%rax), %rbx
.LVL92:
	.loc 1 1109 3 is_stmt 1 view .LVU455
	.loc 1 1109 15 is_stmt 0 view .LVU456
	movq	%rbx, %rdi
	call	strspn@PLT
.LVL93:
	.loc 1 1109 12 view .LVU457
	addq	%rax, %rbx
.LVL94:
	.loc 1 1110 3 is_stmt 1 view .LVU458
	.loc 1 1110 6 is_stmt 0 view .LVU459
	cmpb	$46, (%rbx)
	jne	.L329
	.loc 1 1111 5 is_stmt 1 view .LVU460
	.loc 1 1111 21 is_stmt 0 view .LVU461
	leaq	1(%rbx), %rdi
	leaq	digits(%rip), %rsi
	call	strspn@PLT
.LVL95:
	.loc 1 1111 14 view .LVU462
	leaq	1(%rbx,%rax), %rbx
.LVL96:
.L329:
	.loc 1 1112 3 is_stmt 1 view .LVU463
	.loc 1 1112 19 is_stmt 0 view .LVU464
	movq	%rbx, %rax
	.loc 1 1113 1 view .LVU465
	addq	$8, %rsp
	.cfi_def_cfa_offset 24
	.loc 1 1112 19 view .LVU466
	subq	%rbp, %rax
	.loc 1 1113 1 view .LVU467
	popq	%rbx
	.cfi_def_cfa_offset 16
.LVL97:
	.loc 1 1113 1 view .LVU468
	popq	%rbp
	.cfi_def_cfa_offset 8
.LVL98:
	.loc 1 1113 1 view .LVU469
	ret
	.cfi_endproc
.LFE164:
	.size	format_code_offset, .-format_code_offset
	.section	.rodata.str1.1
.LC136:
	.string	"%s: invalid directive"
	.section	.rodata.str1.8,"aMS",@progbits,1
	.align 8
.LC137:
	.string	"warning: backslash at end of format"
	.align 8
.LC138:
	.string	"warning: unrecognized escape '\\%c'"
	.text
	.p2align 4
	.type	print_it, @function
print_it:
.LVL99:
.LFB165:
	.loc 1 1123 1 is_stmt 1 view -0
	.cfi_startproc
	.loc 1 1124 3 view .LVU471
	.loc 1 1128 3 view .LVU472
	.loc 1 1135 3 view .LVU473
	.loc 1 1123 1 is_stmt 0 view .LVU474
	pushq	%r15
	.cfi_def_cfa_offset 16
	.cfi_offset 15, -16
	movq	%rdi, %r15
	pushq	%r14
	.cfi_def_cfa_offset 24
	.cfi_offset 14, -24
	pushq	%r13
	.cfi_def_cfa_offset 32
	.cfi_offset 13, -32
	pushq	%r12
	.cfi_def_cfa_offset 40
	.cfi_offset 12, -40
	.loc 1 1124 8 view .LVU475
	xorl	%r12d, %r12d
	.loc 1 1123 1 view .LVU476
	pushq	%rbp
	.cfi_def_cfa_offset 48
	.cfi_offset 6, -48
	pushq	%rbx
	.cfi_def_cfa_offset 56
	.cfi_offset 3, -56
	subq	$40, %rsp
	.cfi_def_cfa_offset 96
	.loc 1 1123 1 view .LVU477
	movl	%esi, 24(%rsp)
	movq	%rdx, (%rsp)
	movq	%rcx, 8(%rsp)
	movq	%r8, 16(%rsp)
	.loc 1 1135 20 view .LVU478
	call	strlen@PLT
.LVL100:
	.loc 1 1136 3 is_stmt 1 view .LVU479
	.loc 1 1135 10 is_stmt 0 view .LVU480
	leaq	3(%rax), %rdi
.LVL101:
	.loc 1 1136 16 view .LVU481
	call	xmalloc@PLT
.LVL102:
	.loc 1 1136 16 view .LVU482
	movq	%rax, %rbp
.LVL103:
	.loc 1 1137 3 is_stmt 1 view .LVU483
	.loc 1 1138 3 view .LVU484
	.loc 1 1138 20 view .LVU485
	movzbl	(%r15), %eax
.LVL104:
	.loc 1 1138 3 is_stmt 0 view .LVU486
	testb	%al, %al
	je	.L332
	leaq	.L366(%rip), %r14
	movq	%r15, %r13
	jmp	.L376
.LVL105:
	.p2align 4,,10
	.p2align 3
.L391:
	.loc 1 1218 11 is_stmt 1 view .LVU487
.LBB274:
.LBI274:
	.loc 4 108 1 view .LVU488
.LBB275:
	.loc 4 110 3 view .LVU489
	.loc 4 110 10 is_stmt 0 view .LVU490
	movq	stdout(%rip), %rdi
	leaq	1(%r13), %r15
	movq	40(%rdi), %rcx
	cmpq	48(%rdi), %rcx
	jnb	.L390
	.loc 4 110 10 view .LVU491
	leaq	1(%rcx), %rsi
	movq	%r13, %rbx
	movq	%r15, %r13
.LVL106:
	.loc 4 110 10 view .LVU492
	movq	%rsi, 40(%rdi)
	movb	%al, (%rcx)
.LVL107:
.L341:
	.loc 4 110 10 view .LVU493
.LBE275:
.LBE274:
	.loc 1 1138 24 is_stmt 1 discriminator 2 view .LVU494
	.loc 1 1138 20 discriminator 2 view .LVU495
	movzbl	1(%rbx), %eax
	.loc 1 1138 3 is_stmt 0 discriminator 2 view .LVU496
	testb	%al, %al
	je	.L332
.LVL108:
.L376:
	.loc 1 1140 7 is_stmt 1 view .LVU497
	cmpb	$37, %al
	je	.L333
	cmpb	$92, %al
	jne	.L391
	.loc 1 1173 11 view .LVU498
	.loc 1 1173 14 is_stmt 0 view .LVU499
	cmpb	$0, interpret_backslash_escapes(%rip)
	leaq	1(%r13), %rbx
	je	.L389
	.loc 1 1178 11 is_stmt 1 view .LVU500
.LVL109:
	.loc 1 1179 11 view .LVU501
	.loc 1 1179 15 is_stmt 0 view .LVU502
	movzbl	1(%r13), %r15d
	leal	-48(%r15), %eax
	.loc 1 1179 14 view .LVU503
	cmpb	$7, %al
	jbe	.L392
	.loc 1 1191 16 is_stmt 1 view .LVU504
	.loc 1 1191 19 is_stmt 0 view .LVU505
	cmpb	$120, %r15b
	je	.L393
	.loc 1 1204 16 is_stmt 1 view .LVU506
	.loc 1 1204 19 is_stmt 0 view .LVU507
	testb	%r15b, %r15b
	jne	.L361
	.loc 1 1206 15 is_stmt 1 view .LVU508
	.loc 1 1206 28 is_stmt 0 view .LVU509
	movl	$5, %edx
	leaq	.LC137(%rip), %rsi
	xorl	%edi, %edi
	call	dcgettext@PLT
.LVL110:
	.loc 1 1206 15 view .LVU510
	xorl	%esi, %esi
	xorl	%edi, %edi
	.loc 1 1206 28 view .LVU511
	movq	%rax, %rdx
	.loc 1 1206 15 view .LVU512
	xorl	%eax, %eax
	call	error@PLT
.LVL111:
.L389:
	.loc 1 1207 15 is_stmt 1 view .LVU513
.LBB277:
.LBI277:
	.loc 4 108 1 view .LVU514
.LBB278:
	.loc 4 110 3 view .LVU515
	.loc 4 110 10 is_stmt 0 view .LVU516
	movq	stdout(%rip), %rdi
	movq	40(%rdi), %rax
	cmpq	48(%rdi), %rax
	jnb	.L394
	leaq	1(%rax), %rdx
	movq	%rdx, 40(%rdi)
	movb	$92, (%rax)
	movq	%rbx, %rax
	movq	%r13, %rbx
	movq	%rax, %r13
.LVL112:
	.loc 4 110 10 view .LVU517
.LBE278:
.LBE277:
	.loc 1 1138 24 is_stmt 1 view .LVU518
	.loc 1 1138 20 view .LVU519
	movzbl	1(%rbx), %eax
	.loc 1 1138 3 is_stmt 0 view .LVU520
	testb	%al, %al
	jne	.L376
.LVL113:
.L332:
	.loc 1 1222 3 is_stmt 1 view .LVU521
	movq	%rbp, %rdi
	call	free@PLT
.LVL114:
	.loc 1 1224 3 view .LVU522
	movq	stdout(%rip), %rsi
	movq	trailing_delim(%rip), %rdi
	call	fputs_unlocked@PLT
.LVL115:
	.loc 1 1226 3 view .LVU523
	.loc 1 1227 1 is_stmt 0 view .LVU524
	addq	$40, %rsp
	.cfi_remember_state
	.cfi_def_cfa_offset 56
	movl	%r12d, %eax
	popq	%rbx
	.cfi_def_cfa_offset 48
	popq	%rbp
	.cfi_def_cfa_offset 40
.LVL116:
	.loc 1 1227 1 view .LVU525
	popq	%r12
	.cfi_def_cfa_offset 32
	popq	%r13
	.cfi_def_cfa_offset 24
	popq	%r14
	.cfi_def_cfa_offset 16
	popq	%r15
	.cfi_def_cfa_offset 8
	ret
.LVL117:
	.p2align 4,,10
	.p2align 3
.L333:
	.cfi_restore_state
.LBB280:
	.loc 1 1144 13 is_stmt 1 view .LVU526
	.loc 1 1144 26 is_stmt 0 view .LVU527
	movq	%r13, %rdi
	call	format_code_offset
.LVL118:
.LBB281:
.LBB282:
	.loc 2 34 10 view .LVU528
	movq	%r13, %rsi
	movq	%rbp, %rdi
.LBE282:
.LBE281:
	.loc 1 1145 25 view .LVU529
	leaq	0(%r13,%rax), %rbx
.LBB285:
.LBB283:
	.loc 2 34 10 view .LVU530
	movq	%rax, %rdx
.LBE283:
.LBE285:
	.loc 1 1144 26 view .LVU531
	movq	%rax, %r15
.LVL119:
	.loc 1 1145 13 is_stmt 1 view .LVU532
	.loc 1 1146 13 view .LVU533
.LBB286:
.LBI281:
	.loc 2 31 1 view .LVU534
.LBB284:
	.loc 2 34 3 view .LVU535
	.loc 2 34 10 is_stmt 0 view .LVU536
	call	memcpy@PLT
.LVL120:
	.loc 2 34 10 view .LVU537
.LBE284:
.LBE286:
	.loc 1 1147 13 is_stmt 1 view .LVU538
	.loc 1 1149 13 view .LVU539
	.loc 1 1149 21 is_stmt 0 view .LVU540
	movzbl	(%rbx), %edx
	testb	%dl, %dl
	je	.L336
	cmpb	$37, %dl
	je	.L337
	.loc 1 1165 17 is_stmt 1 view .LVU541
.LVL121:
.LBB287:
.LBI287:
	.file 5 "src/system.h"
	.loc 5 156 29 view .LVU542
.LBB288:
	.loc 5 156 50 view .LVU543
	.loc 5 156 50 is_stmt 0 view .LVU544
.LBE288:
.LBE287:
	.loc 1 1165 25 view .LVU545
	movq	16(%rsp), %r9
	movq	(%rsp), %r8
	movq	%r15, %rsi
	movq	%rbp, %rdi
	movl	24(%rsp), %ecx
	movq	8(%rsp), %rax
	leaq	1(%rbx), %r13
	call	*%rax
.LVL122:
	.loc 1 1165 22 view .LVU546
	orl	%eax, %r12d
.LVL123:
	.loc 1 1167 17 is_stmt 1 view .LVU547
	jmp	.L341
	.p2align 4,,10
	.p2align 3
.L336:
	.loc 1 1152 17 view .LVU548
	subq	$1, %rbx
.LVL124:
.L337:
	.loc 1 1153 17 view .LVU549
	.loc 1 1155 17 view .LVU550
	.loc 1 1155 20 is_stmt 0 view .LVU551
	cmpq	$1, %r15
	ja	.L395
	.loc 1 1162 17 is_stmt 1 view .LVU552
.LVL125:
.LBB289:
.LBI289:
	.loc 4 108 1 view .LVU553
.LBB290:
	.loc 4 110 3 view .LVU554
	.loc 4 110 10 is_stmt 0 view .LVU555
	movq	stdout(%rip), %rdi
	leaq	1(%rbx), %r13
.LVL126:
	.loc 4 110 10 view .LVU556
	movq	40(%rdi), %rax
	cmpq	48(%rdi), %rax
	jnb	.L396
	leaq	1(%rax), %rdx
	movq	%rdx, 40(%rdi)
	movb	$37, (%rax)
	jmp	.L341
.LVL127:
	.p2align 4,,10
	.p2align 3
.L392:
	.loc 4 110 10 view .LVU557
.LBE290:
.LBE289:
.LBE280:
.LBB294:
	.loc 1 1181 15 is_stmt 1 view .LVU558
	.loc 1 1183 43 is_stmt 0 view .LVU559
	movsbl	2(%r13), %eax
	.loc 1 1181 31 view .LVU560
	movsbl	%r15b, %r9d
	.loc 1 1181 19 view .LVU561
	subl	$48, %r9d
.LVL128:
	.loc 1 1182 15 is_stmt 1 view .LVU562
	.loc 1 1183 15 view .LVU563
	.loc 1 1183 25 view .LVU564
	.loc 1 1183 43 is_stmt 0 view .LVU565
	leal	-48(%rax), %edx
	.loc 1 1183 40 view .LVU566
	cmpb	$7, %dl
	ja	.L397
	.loc 1 1186 19 is_stmt 1 view .LVU567
	.loc 1 1186 29 is_stmt 0 view .LVU568
	leal	-48(%rax,%r9,8), %r9d
.LVL129:
	.loc 1 1184 20 is_stmt 1 view .LVU569
	.loc 1 1183 25 view .LVU570
	.loc 1 1183 43 is_stmt 0 view .LVU571
	movsbl	3(%r13), %eax
	leal	-48(%rax), %edx
	.loc 1 1183 40 view .LVU572
	cmpb	$7, %dl
	ja	.L398
	.loc 1 1186 19 is_stmt 1 view .LVU573
	.loc 1 1186 29 is_stmt 0 view .LVU574
	leal	-48(%rax,%r9,8), %r9d
.LVL130:
	.loc 1 1184 20 is_stmt 1 view .LVU575
	.loc 1 1184 34 is_stmt 0 view .LVU576
	addq	$4, %r13
.LVL131:
	.loc 1 1183 25 is_stmt 1 view .LVU577
.L346:
	.loc 1 1188 15 view .LVU578
.LBB295:
.LBI295:
	.loc 4 108 1 view .LVU579
.LBB296:
	.loc 4 110 3 view .LVU580
	.loc 4 110 10 is_stmt 0 view .LVU581
	movq	stdout(%rip), %rdi
	movq	40(%rdi), %rax
	cmpq	48(%rdi), %rax
	jnb	.L399
	.loc 4 110 10 view .LVU582
	leaq	1(%rax), %rdx
	movq	%rdx, 40(%rdi)
	movb	%r9b, (%rax)
.LVL132:
.L349:
	.loc 4 110 10 view .LVU583
.LBE296:
.LBE295:
	.loc 1 1189 15 is_stmt 1 view .LVU584
	leaq	-1(%r13), %rbx
.LVL133:
	.loc 1 1189 15 is_stmt 0 view .LVU585
.LBE294:
	jmp	.L341
	.p2align 4,,10
	.p2align 3
.L393:
	.loc 1 1191 33 discriminator 1 view .LVU586
	call	__ctype_b_loc@PLT
.LVL134:
	movzbl	2(%r13), %ecx
	movq	(%rax), %rdx
	movq	%rcx, %rax
.LVL135:
.LBB299:
.LBI299:
	.loc 5 156 29 is_stmt 1 discriminator 1 view .LVU587
.LBB300:
	.loc 5 156 50 discriminator 1 view .LVU588
	.loc 5 156 50 is_stmt 0 discriminator 1 view .LVU589
.LBE300:
.LBE299:
	.loc 1 1191 30 discriminator 1 view .LVU590
	testb	$16, 1(%rdx,%rcx,2)
	je	.L378
.LBB301:
	.loc 1 1193 31 view .LVU591
	leal	-97(%rax), %esi
.LBE301:
	.loc 1 1191 33 view .LVU592
	movsbl	%cl, %ecx
.LBB308:
	.loc 1 1193 15 is_stmt 1 view .LVU593
	.loc 1 1193 31 is_stmt 0 view .LVU594
	cmpb	$5, %sil
	jbe	.L400
	.loc 1 1193 31 discriminator 2 view .LVU595
	subl	$65, %eax
	leal	-55(%rcx), %esi
	subl	$48, %ecx
	cmpb	$5, %al
	movl	%esi, %eax
	cmova	%ecx, %eax
.L353:
.LVL136:
	.loc 1 1196 15 is_stmt 1 discriminator 8 view .LVU596
	.loc 1 1197 15 discriminator 8 view .LVU597
	.loc 1 1197 19 is_stmt 0 discriminator 8 view .LVU598
	movzbl	3(%r13), %esi
	.loc 1 1196 15 discriminator 8 view .LVU599
	leaq	2(%r13), %rbx
.LVL137:
	.loc 1 1197 19 discriminator 8 view .LVU600
	movq	%rsi, %rcx
.LVL138:
.LBB302:
.LBI302:
	.loc 5 156 29 is_stmt 1 discriminator 8 view .LVU601
.LBB303:
	.loc 5 156 50 discriminator 8 view .LVU602
	.loc 5 156 50 is_stmt 0 discriminator 8 view .LVU603
.LBE303:
.LBE302:
	.loc 1 1197 18 discriminator 8 view .LVU604
	testb	$16, 1(%rdx,%rsi,2)
	je	.L356
	.loc 1 1197 19 view .LVU605
	movsbl	%sil, %edx
	.loc 1 1199 19 is_stmt 1 view .LVU606
	.loc 1 1200 48 is_stmt 0 view .LVU607
	leal	-97(%rsi), %esi
	.loc 1 1199 19 view .LVU608
	leaq	3(%r13), %rbx
.LVL139:
	.loc 1 1200 19 is_stmt 1 view .LVU609
	.loc 1 1200 41 is_stmt 0 view .LVU610
	sall	$4, %eax
.LVL140:
	.loc 1 1200 48 view .LVU611
	cmpb	$5, %sil
	ja	.L357
	.loc 1 1200 48 discriminator 1 view .LVU612
	subl	$87, %edx
.L358:
	.loc 1 1200 29 discriminator 8 view .LVU613
	addl	%edx, %eax
.LVL141:
.L356:
	.loc 1 1202 15 is_stmt 1 view .LVU614
.LBB304:
.LBI304:
	.loc 4 108 1 view .LVU615
.LBB305:
	.loc 4 110 3 view .LVU616
	.loc 4 110 10 is_stmt 0 view .LVU617
	movq	stdout(%rip), %rdi
	leaq	1(%rbx), %r13
	movq	40(%rdi), %rdx
	cmpq	48(%rdi), %rdx
	jnb	.L401
	.loc 4 110 10 view .LVU618
	leaq	1(%rdx), %rcx
	movq	%rcx, 40(%rdi)
	movb	%al, (%rdx)
	jmp	.L341
.LVL142:
	.p2align 4,,10
	.p2align 3
.L390:
	.loc 4 110 10 view .LVU619
.LBE305:
.LBE304:
.LBE308:
.LBB309:
.LBB276:
	movzbl	%al, %esi
	movq	%r13, %rbx
	movq	%r15, %r13
.LVL143:
	.loc 4 110 10 view .LVU620
	call	__overflow@PLT
.LVL144:
	.loc 4 110 10 view .LVU621
	jmp	.L341
	.p2align 4,,10
	.p2align 3
.L361:
	.loc 4 110 10 view .LVU622
.LBE276:
.LBE309:
	.loc 1 1213 15 is_stmt 1 view .LVU623
	movsbl	%r15b, %ecx
.LVL145:
.LBB310:
.LBI310:
	.loc 1 1066 1 view .LVU624
.LBB311:
	.loc 1 1068 3 view .LVU625
	cmpb	$34, %r15b
	je	.L402
.LVL146:
.L351:
	.loc 1 1068 3 is_stmt 0 view .LVU626
	leal	-92(%r15), %eax
	cmpb	$26, %al
	ja	.L364
	movzbl	%al, %eax
	movslq	(%r14,%rax,4), %rax
	addq	%r14, %rax
	notrack jmp	*%rax
	.section	.rodata
	.align 4
	.align 4
.L366:
	.long	.L363-.L366
	.long	.L364-.L366
	.long	.L364-.L366
	.long	.L364-.L366
	.long	.L364-.L366
	.long	.L373-.L366
	.long	.L372-.L366
	.long	.L364-.L366
	.long	.L364-.L366
	.long	.L371-.L366
	.long	.L370-.L366
	.long	.L364-.L366
	.long	.L364-.L366
	.long	.L364-.L366
	.long	.L364-.L366
	.long	.L364-.L366
	.long	.L364-.L366
	.long	.L364-.L366
	.long	.L369-.L366
	.long	.L364-.L366
	.long	.L364-.L366
	.long	.L364-.L366
	.long	.L368-.L366
	.long	.L364-.L366
	.long	.L367-.L366
	.long	.L364-.L366
	.long	.L365-.L366
	.text
.L373:
	movl	$7, %ecx
	.loc 1 1071 9 view .LVU627
	movl	$7, %r15d
.LVL147:
.L363:
	.loc 1 1101 3 is_stmt 1 view .LVU628
.LBB312:
.LBI312:
	.loc 4 108 1 view .LVU629
.LBB313:
	.loc 4 110 3 view .LVU630
	.loc 4 110 10 is_stmt 0 view .LVU631
	movq	stdout(%rip), %rdi
	addq	$2, %r13
	movq	40(%rdi), %rax
	cmpq	48(%rdi), %rax
	jnb	.L403
	leaq	1(%rax), %rdx
	movq	%rdx, 40(%rdi)
	movb	%r15b, (%rax)
	jmp	.L341
.LVL148:
	.p2align 4,,10
	.p2align 3
.L378:
	.loc 4 110 10 view .LVU632
.LBE313:
.LBE312:
.LBE311:
.LBE310:
	.loc 1 1213 15 view .LVU633
	movl	$120, %ecx
	jmp	.L351
.LVL149:
	.p2align 4,,10
	.p2align 3
.L396:
.LBB319:
.LBB292:
.LBB291:
	.loc 4 110 10 view .LVU634
	movl	$37, %esi
	call	__overflow@PLT
.LVL150:
	jmp	.L341
.LVL151:
	.p2align 4,,10
	.p2align 3
.L394:
	.loc 4 110 10 view .LVU635
.LBE291:
.LBE292:
.LBE319:
.LBB320:
.LBB279:
	movl	$92, %esi
	call	__overflow@PLT
.LVL152:
	movq	%rbx, %rax
	movq	%r13, %rbx
	movq	%rax, %r13
	jmp	.L341
.LVL153:
.L365:
	.loc 4 110 10 view .LVU636
.LBE279:
.LBE320:
.LBB321:
.LBB316:
	.loc 1 1092 7 is_stmt 1 view .LVU637
	.loc 1 1093 7 view .LVU638
	movl	$11, %ecx
	.loc 1 1092 9 is_stmt 0 view .LVU639
	movl	$11, %r15d
	.loc 1 1093 7 view .LVU640
	jmp	.L363
.LVL154:
.L364:
	.loc 1 1098 20 view .LVU641
	movl	$5, %edx
	leaq	.LC138(%rip), %rsi
	xorl	%edi, %edi
	movl	%ecx, 28(%rsp)
	.loc 1 1098 7 is_stmt 1 view .LVU642
	.loc 1 1098 20 is_stmt 0 view .LVU643
	call	dcgettext@PLT
.LVL155:
	.loc 1 1098 7 view .LVU644
	movl	28(%rsp), %ecx
	xorl	%esi, %esi
	xorl	%edi, %edi
	.loc 1 1098 20 view .LVU645
	movq	%rax, %rdx
	.loc 1 1098 7 view .LVU646
	xorl	%eax, %eax
	call	error@PLT
.LVL156:
	.loc 1 1099 7 is_stmt 1 view .LVU647
	movl	28(%rsp), %ecx
	jmp	.L363
.L372:
	.loc 1 1074 7 view .LVU648
.LVL157:
	.loc 1 1075 7 view .LVU649
	movl	$8, %ecx
	.loc 1 1074 9 is_stmt 0 view .LVU650
	movl	$8, %r15d
	.loc 1 1075 7 view .LVU651
	jmp	.L363
.LVL158:
.L371:
	.loc 1 1077 7 is_stmt 1 view .LVU652
	.loc 1 1078 7 view .LVU653
	movl	$27, %ecx
	.loc 1 1077 9 is_stmt 0 view .LVU654
	movl	$27, %r15d
	.loc 1 1078 7 view .LVU655
	jmp	.L363
.LVL159:
.L370:
	.loc 1 1080 7 is_stmt 1 view .LVU656
	.loc 1 1081 7 view .LVU657
	movl	$12, %ecx
	.loc 1 1080 9 is_stmt 0 view .LVU658
	movl	$12, %r15d
	.loc 1 1081 7 view .LVU659
	jmp	.L363
.LVL160:
.L369:
	.loc 1 1083 7 is_stmt 1 view .LVU660
	.loc 1 1084 7 view .LVU661
	movl	$10, %ecx
	.loc 1 1083 9 is_stmt 0 view .LVU662
	movl	$10, %r15d
	.loc 1 1084 7 view .LVU663
	jmp	.L363
.LVL161:
.L368:
	.loc 1 1086 7 is_stmt 1 view .LVU664
	.loc 1 1087 7 view .LVU665
	movl	$13, %ecx
	.loc 1 1086 9 is_stmt 0 view .LVU666
	movl	$13, %r15d
	.loc 1 1087 7 view .LVU667
	jmp	.L363
.LVL162:
.L367:
	.loc 1 1089 7 is_stmt 1 view .LVU668
	.loc 1 1090 7 view .LVU669
	movl	$9, %ecx
	.loc 1 1089 9 is_stmt 0 view .LVU670
	movl	$9, %r15d
	.loc 1 1090 7 view .LVU671
	jmp	.L363
.LVL163:
.L400:
	.loc 1 1090 7 view .LVU672
.LBE316:
.LBE321:
.LBB322:
	.loc 1 1193 31 discriminator 1 view .LVU673
	leal	-87(%rcx), %eax
	jmp	.L353
.L357:
	.loc 1 1200 48 discriminator 2 view .LVU674
	subl	$65, %ecx
	leal	-55(%rdx), %esi
	subl	$48, %edx
	cmpb	$5, %cl
	cmovbe	%esi, %edx
	jmp	.L358
.LVL164:
.L403:
	.loc 1 1200 48 discriminator 2 view .LVU675
.LBE322:
.LBB323:
.LBB317:
.LBB315:
.LBB314:
	.loc 4 110 10 view .LVU676
	movzbl	%cl, %esi
	call	__overflow@PLT
.LVL165:
	jmp	.L341
.LVL166:
.L399:
	.loc 4 110 10 view .LVU677
.LBE314:
.LBE315:
.LBE317:
.LBE323:
.LBB324:
.LBB298:
.LBB297:
	movzbl	%r9b, %esi
	call	__overflow@PLT
.LVL167:
	.loc 4 110 10 view .LVU678
	jmp	.L349
.LVL168:
.L402:
	.loc 4 110 10 view .LVU679
.LBE297:
.LBE298:
.LBE324:
.LBB325:
.LBB318:
	.loc 1 1068 3 view .LVU680
	movl	$34, %ecx
	jmp	.L363
.LVL169:
.L398:
	.loc 1 1068 3 view .LVU681
.LBE318:
.LBE325:
.LBB326:
	.loc 1 1184 34 view .LVU682
	addq	$3, %r13
.LVL170:
	.loc 1 1184 34 view .LVU683
	jmp	.L346
.LVL171:
.L397:
	.loc 1 1183 20 view .LVU684
	addq	$2, %r13
.LVL172:
	.loc 1 1183 20 view .LVU685
	jmp	.L346
.LVL173:
.L401:
	.loc 1 1183 20 view .LVU686
.LBE326:
.LBB327:
.LBB307:
.LBB306:
	.loc 4 110 10 view .LVU687
	movzbl	%al, %esi
	call	__overflow@PLT
.LVL174:
	.loc 4 110 10 view .LVU688
	jmp	.L341
.LVL175:
.L395:
	.loc 4 110 10 view .LVU689
.LBE306:
.LBE307:
.LBE327:
.LBB328:
.LBB293:
	.loc 1 1157 21 is_stmt 1 view .LVU690
	.loc 1 1159 21 is_stmt 0 view .LVU691
	movq	%rbp, %rdi
	.loc 1 1157 31 view .LVU692
	movb	%dl, 0(%rbp,%r15)
	.loc 1 1158 21 is_stmt 1 view .LVU693
	.loc 1 1158 35 is_stmt 0 view .LVU694
	movb	$0, 1(%rbp,%r15)
	.loc 1 1159 21 is_stmt 1 view .LVU695
	call	quote@PLT
.LVL176:
	movl	$5, %edx
	leaq	.LC136(%rip), %rsi
	xorl	%edi, %edi
	movq	%rax, %r12
.LVL177:
	.loc 1 1159 21 is_stmt 0 view .LVU696
	call	dcgettext@PLT
.LVL178:
	movq	%r12, %rcx
	xorl	%esi, %esi
	movl	$1, %edi
	movq	%rax, %rdx
	xorl	%eax, %eax
	call	error@PLT
.LVL179:
.LBE293:
.LBE328:
	.cfi_endproc
.LFE165:
	.size	print_it, .-print_it
	.section	.rodata.str1.1
.LC139:
	.string	""
.LC140:
	.string	"cannot stat standard input"
.LC141:
	.string	"cannot statx %s"
	.text
	.p2align 4
	.type	do_stat, @function
do_stat:
.LVL180:
.LFB169:
	.loc 1 1339 1 is_stmt 1 view -0
	.cfi_startproc
	.loc 1 1339 1 is_stmt 0 view .LVU698
	pushq	%r15
	.cfi_def_cfa_offset 16
	.cfi_offset 15, -16
	.loc 1 1343 16 view .LVU699
	movl	$32, %ecx
	.loc 1 1339 1 view .LVU700
	pushq	%r14
	.cfi_def_cfa_offset 24
	.cfi_offset 14, -24
	pushq	%r13
	.cfi_def_cfa_offset 32
	.cfi_offset 13, -32
	pushq	%r12
	.cfi_def_cfa_offset 40
	.cfi_offset 12, -40
	movq	%rdi, %r12
	pushq	%rbp
	.cfi_def_cfa_offset 48
	.cfi_offset 6, -48
	movq	%rdx, %rbp
	pushq	%rbx
	.cfi_def_cfa_offset 56
	.cfi_offset 3, -56
	movq	%rsi, %rbx
	subq	$488, %rsp
	.cfi_def_cfa_offset 544
	.loc 1 1339 1 view .LVU701
	movq	%fs:40, %rax
	movq	%rax, 472(%rsp)
	xorl	%eax, %eax
	.loc 1 1340 3 is_stmt 1 view .LVU702
	.loc 1 1340 12 is_stmt 0 view .LVU703
	cmpb	$45, (%rdi)
	.loc 1 1343 16 view .LVU704
	leaq	208(%rsp), %r8
	.loc 1 1340 12 view .LVU705
	jne	.L406
	movzbl	1(%rdi), %r15d
	.loc 1 1340 38 view .LVU706
	testl	%r15d, %r15d
	jne	.L406
.LVL181:
	.loc 1 1341 3 is_stmt 1 view .LVU707
	.loc 1 1342 3 view .LVU708
	.loc 1 1343 3 view .LVU709
	.loc 1 1343 16 is_stmt 0 view .LVU710
	movq	%r8, %rdi
.LVL182:
	.loc 1 1359 6 view .LVU711
	cmpb	$0, dont_sync(%rip)
	.loc 1 1347 12 view .LVU712
	movq	$-1, 40(%rsp)
	.loc 1 1351 16 view .LVU713
	leaq	.LC139(%rip), %rsi
.LVL183:
	.loc 1 1343 16 view .LVU714
	rep stosq
	.loc 1 1344 3 is_stmt 1 view .LVU715
.LVL184:
	.loc 1 1345 3 view .LVU716
	.loc 1 1346 3 view .LVU717
	.loc 1 1346 9 is_stmt 0 view .LVU718
	leaq	64(%rsp), %rax
	.loc 1 1347 12 view .LVU719
	movq	$-1, 48(%rsp)
	.loc 1 1352 13 view .LVU720
	movl	$4096, %r14d
	.loc 1 1346 9 view .LVU721
	movq	%rax, 32(%rsp)
	.loc 1 1347 3 is_stmt 1 view .LVU722
	.loc 1 1349 3 view .LVU723
.LVL185:
	.loc 1 1359 3 view .LVU724
	.loc 1 1359 6 is_stmt 0 view .LVU725
	je	.L408
.LVL186:
.L437:
	.loc 1 1360 5 is_stmt 1 view .LVU726
	.loc 1 1360 11 is_stmt 0 view .LVU727
	orl	$16384, %r14d
.LVL187:
.L409:
	.loc 1 1364 3 is_stmt 1 view .LVU728
.LBB347:
.LBI347:
	.loc 1 1318 1 view .LVU729
.LBB348:
	.loc 1 1320 3 view .LVU730
	.loc 1 1321 3 view .LVU731
	.loc 1 1323 3 view .LVU732
	.loc 1 1323 20 view .LVU733
	movzbl	(%rbx), %eax
	.loc 1 1323 3 is_stmt 0 view .LVU734
	testb	%al, %al
	je	.L421
	.loc 1 1323 3 view .LVU735
	movq	%rbx, %r13
	.loc 1 1320 16 view .LVU736
	xorl	%ecx, %ecx
	jmp	.L413
.LVL188:
	.p2align 4,,10
	.p2align 3
.L433:
	.loc 1 1328 12 view .LVU737
	movq	%r13, %rdi
	movq	%r8, 24(%rsp)
	movl	%ecx, 20(%rsp)
	movq	%rsi, 8(%rsp)
	.loc 1 1328 7 is_stmt 1 view .LVU738
	.loc 1 1328 12 is_stmt 0 view .LVU739
	call	format_code_offset
.LVL189:
	.loc 1 1329 10 view .LVU740
	movq	8(%rsp), %rsi
	movl	20(%rsp), %ecx
	.loc 1 1328 9 view .LVU741
	addq	%r13, %rax
.LVL190:
	.loc 1 1329 7 is_stmt 1 view .LVU742
	.loc 1 1329 10 is_stmt 0 view .LVU743
	movq	24(%rsp), %r8
	.loc 1 1329 11 view .LVU744
	movzbl	(%rax), %edx
	.loc 1 1329 10 view .LVU745
	testb	%dl, %dl
	je	.L410
	.loc 1 1331 7 is_stmt 1 view .LVU746
.LVL191:
.LBB349:
.LBI349:
	.loc 1 1266 1 view .LVU747
.LBB350:
	.loc 1 1268 3 view .LVU748
	subl	$65, %edx
.LVL192:
	.loc 1 1268 3 is_stmt 0 view .LVU749
	cmpb	$57, %dl
	ja	.L411
	movzbl	%dl, %edx
	leaq	CSWTCH.121(%rip), %rdi
	movzwl	(%rdi,%rdx,2), %edx
	orl	%edx, %ecx
.LVL193:
.L411:
	.loc 1 1268 3 view .LVU750
.LBE350:
.LBE349:
	.loc 1 1323 24 is_stmt 1 view .LVU751
	.loc 1 1323 25 is_stmt 0 view .LVU752
	leaq	1(%rax), %r13
.LVL194:
	.loc 1 1323 20 is_stmt 1 view .LVU753
	movzbl	1(%rax), %eax
	.loc 1 1323 3 is_stmt 0 view .LVU754
	testb	%al, %al
	je	.L410
.LVL195:
.L413:
	.loc 1 1325 7 is_stmt 1 view .LVU755
	.loc 1 1325 10 is_stmt 0 view .LVU756
	cmpb	$37, %al
	je	.L433
	.loc 1 1325 10 view .LVU757
	movq	%r13, %rax
	.loc 1 1323 24 is_stmt 1 view .LVU758
	.loc 1 1323 25 is_stmt 0 view .LVU759
	leaq	1(%rax), %r13
.LVL196:
	.loc 1 1323 20 is_stmt 1 view .LVU760
	movzbl	1(%rax), %eax
	.loc 1 1323 3 is_stmt 0 view .LVU761
	testb	%al, %al
	jne	.L413
.LVL197:
.L410:
	.loc 1 1333 3 is_stmt 1 view .LVU762
	.loc 1 1333 3 is_stmt 0 view .LVU763
.LBE348:
.LBE347:
	.loc 1 1364 8 view .LVU764
	movl	%r14d, %edx
	movl	%r15d, %edi
	call	statx@PLT
.LVL198:
	.loc 1 1364 8 view .LVU765
	movl	%eax, %esi
.LVL199:
	.loc 1 1365 3 is_stmt 1 view .LVU766
	.loc 1 1365 6 is_stmt 0 view .LVU767
	testl	%eax, %eax
	js	.L434
	.loc 1 1374 3 is_stmt 1 view .LVU768
	.loc 1 1374 7 is_stmt 0 view .LVU769
	movzwl	236(%rsp), %edi
.LBB352:
.LBB353:
.LBB354:
.LBB355:
	.file 6 "/usr/include/x86_64-linux-gnu/sys/sysmacros.h"
	.loc 6 43 1 view .LVU770
	movl	344(%rsp), %edx
	movabsq	$-17592186044416, %r8
	movabsq	$17592184995840, %r9
.LBE355:
.LBE354:
.LBE353:
.LBE352:
	.loc 1 1374 30 view .LVU771
	movl	%edi, %eax
.LVL200:
.LBB381:
.LBB378:
.LBB360:
.LBB356:
	.loc 6 43 1 view .LVU772
	movq	%rdx, %rcx
.LBE356:
.LBE360:
	.file 7 "src/statx.h"
	.loc 7 37 22 view .LVU773
	movl	%edi, 88(%rsp)
.LBE378:
.LBE381:
	.loc 1 1374 30 view .LVU774
	andw	$-20480, %ax
	.loc 1 1374 6 view .LVU775
	cmpw	$8192, %ax
.LBB382:
.LBB379:
	.loc 7 35 18 view .LVU776
	movl	348(%rsp), %eax
.LBE379:
.LBE382:
	.loc 1 1374 6 view .LVU777
	cmovne	%rbx, %rbp
.LVL201:
	.loc 1 1377 3 is_stmt 1 view .LVU778
.LBB383:
.LBI352:
	.loc 7 33 1 view .LVU779
.LBB380:
	.loc 7 35 3 view .LVU780
.LBB361:
.LBI354:
	.loc 6 43 1 view .LVU781
.LBB357:
	.loc 6 43 1 view .LVU782
	.loc 6 43 1 view .LVU783
	salq	$8, %rcx
	salq	$32, %rdx
	andl	$1048320, %ecx
.LVL202:
	.loc 6 43 1 view .LVU784
	andq	%r8, %rdx
	orq	%rcx, %rdx
.LVL203:
	.loc 6 43 1 view .LVU785
	movzbl	%al, %ecx
	salq	$12, %rax
.LVL204:
	.loc 6 43 1 is_stmt 0 view .LVU786
	orq	%rcx, %rdx
.LVL205:
	.loc 6 43 1 is_stmt 1 view .LVU787
	.loc 6 43 1 view .LVU788
	.loc 6 43 1 is_stmt 0 view .LVU789
	andq	%r9, %rax
.LBE357:
.LBE361:
.LBB362:
.LBB363:
	movl	336(%rsp), %ecx
.LBE363:
.LBE362:
.LBB367:
.LBB358:
	orq	%rdx, %rax
.LBE358:
.LBE367:
	.loc 7 41 19 view .LVU790
	movl	340(%rsp), %edx
.LBB368:
.LBB359:
	.loc 6 43 1 view .LVU791
	movq	%rax, 64(%rsp)
.LBE359:
.LBE368:
	.loc 7 36 3 is_stmt 1 view .LVU792
	.loc 7 36 16 is_stmt 0 view .LVU793
	movq	240(%rsp), %rax
	movq	%rax, 72(%rsp)
	.loc 7 37 3 is_stmt 1 view .LVU794
	.loc 7 38 3 view .LVU795
	.loc 7 38 23 is_stmt 0 view .LVU796
	movl	224(%rsp), %eax
	movq	%rax, 80(%rsp)
	.loc 7 39 3 is_stmt 1 view .LVU797
	.loc 7 40 3 view .LVU798
	.loc 7 39 16 is_stmt 0 view .LVU799
	movq	228(%rsp), %rax
	movq	%rax, 92(%rsp)
	.loc 7 41 3 is_stmt 1 view .LVU800
.LVL206:
.LBB369:
.LBI362:
	.loc 6 43 1 view .LVU801
.LBB364:
	.loc 6 43 1 view .LVU802
	.loc 6 43 1 view .LVU803
	movq	%rcx, %rax
	salq	$32, %rcx
	salq	$8, %rax
	andq	%r8, %rcx
	andl	$1048320, %eax
.LVL207:
	.loc 6 43 1 view .LVU804
	orq	%rax, %rcx
.LVL208:
	.loc 6 43 1 view .LVU805
	movzbl	%dl, %eax
	salq	$12, %rdx
.LVL209:
	.loc 6 43 1 is_stmt 0 view .LVU806
	orq	%rax, %rcx
.LVL210:
	.loc 6 43 1 is_stmt 1 view .LVU807
	.loc 6 43 1 view .LVU808
	.loc 6 43 1 is_stmt 0 view .LVU809
.LBE364:
.LBE369:
	.loc 7 42 17 view .LVU810
	movq	248(%rsp), %rax
.LBB370:
.LBB365:
	.loc 6 43 1 view .LVU811
	andq	%r9, %rdx
	orq	%rcx, %rdx
.LBE365:
.LBE370:
	.loc 7 42 17 view .LVU812
	movq	%rax, 112(%rsp)
	.loc 7 43 25 view .LVU813
	movl	212(%rsp), %eax
.LBB371:
.LBB366:
	.loc 6 43 1 view .LVU814
	movq	%rdx, 104(%rsp)
.LBE366:
.LBE371:
	.loc 7 42 3 is_stmt 1 view .LVU815
	.loc 7 43 3 view .LVU816
	.loc 7 43 25 is_stmt 0 view .LVU817
	movq	%rax, 120(%rsp)
	.loc 7 46 3 is_stmt 1 view .LVU818
	.loc 7 46 22 is_stmt 0 view .LVU819
	movq	256(%rsp), %rax
	movq	%rax, 128(%rsp)
	.loc 7 47 3 is_stmt 1 view .LVU820
.LBB372:
.LBI372:
	.loc 7 23 1 view .LVU821
.LBB373:
	.loc 7 25 3 view .LVU822
	.loc 7 27 3 view .LVU823
.LVL211:
	.loc 7 28 3 view .LVU824
	.loc 7 29 3 view .LVU825
	.loc 7 29 3 is_stmt 0 view .LVU826
.LBE373:
.LBE372:
	.loc 7 47 19 view .LVU827
	movq	272(%rsp), %rax
	movq	%rax, 136(%rsp)
	movl	280(%rsp), %eax
	movq	%rax, 144(%rsp)
	.loc 7 48 3 is_stmt 1 view .LVU828
.LBB374:
.LBI374:
	.loc 7 23 1 view .LVU829
.LBB375:
	.loc 7 25 3 view .LVU830
	.loc 7 27 3 view .LVU831
.LVL212:
	.loc 7 28 3 view .LVU832
	.loc 7 29 3 view .LVU833
	.loc 7 29 3 is_stmt 0 view .LVU834
.LBE375:
.LBE374:
	.loc 7 48 19 view .LVU835
	movq	320(%rsp), %rax
	movq	%rax, 152(%rsp)
	movl	328(%rsp), %eax
	movq	%rax, 160(%rsp)
	.loc 7 49 3 is_stmt 1 view .LVU836
.LBB376:
.LBI376:
	.loc 7 23 1 view .LVU837
.LBB377:
	.loc 7 25 3 view .LVU838
	.loc 7 27 3 view .LVU839
.LVL213:
	.loc 7 28 3 view .LVU840
	.loc 7 29 3 view .LVU841
	.loc 7 29 3 is_stmt 0 view .LVU842
.LBE377:
.LBE376:
	.loc 7 49 19 view .LVU843
	movq	304(%rsp), %rax
	movq	%rax, 168(%rsp)
	movl	312(%rsp), %eax
	movq	%rax, 176(%rsp)
.LVL214:
	.loc 7 49 19 view .LVU844
.LBE380:
.LBE383:
	.loc 1 1378 3 is_stmt 1 view .LVU845
	.loc 1 1378 6 is_stmt 0 view .LVU846
	testb	$8, 209(%rsp)
	jne	.L435
.L418:
	.loc 1 1381 3 is_stmt 1 view .LVU847
	.loc 1 1381 15 is_stmt 0 view .LVU848
	leaq	32(%rsp), %r8
	leaq	print_stat(%rip), %rcx
	movq	%r12, %rdx
	movq	%rbp, %rdi
	call	print_it
.LVL215:
	.loc 1 1382 3 is_stmt 1 view .LVU849
	xorl	$1, %eax
.LVL216:
.L404:
	.loc 1 1383 1 is_stmt 0 view .LVU850
	movq	472(%rsp), %rbx
	xorq	%fs:40, %rbx
	jne	.L436
	addq	$488, %rsp
	.cfi_remember_state
	.cfi_def_cfa_offset 56
	popq	%rbx
	.cfi_def_cfa_offset 48
	popq	%rbp
	.cfi_def_cfa_offset 40
	popq	%r12
	.cfi_def_cfa_offset 32
	popq	%r13
	.cfi_def_cfa_offset 24
	popq	%r14
	.cfi_def_cfa_offset 16
	popq	%r15
	.cfi_def_cfa_offset 8
	ret
.LVL217:
	.p2align 4,,10
	.p2align 3
.L406:
	.cfi_restore_state
	.loc 1 1341 3 is_stmt 1 view .LVU851
	.loc 1 1342 3 view .LVU852
	.loc 1 1343 3 view .LVU853
	.loc 1 1343 16 is_stmt 0 view .LVU854
	xorl	%eax, %eax
	.loc 1 1354 11 view .LVU855
	cmpb	$1, follow_links(%rip)
	.loc 1 1343 16 view .LVU856
	movq	%r8, %rdi
.LVL218:
	.loc 1 1354 11 view .LVU857
	movq	%r12, %rsi
	.loc 1 1343 16 view .LVU858
	rep stosq
	.loc 1 1344 3 is_stmt 1 view .LVU859
.LVL219:
	.loc 1 1345 3 view .LVU860
	.loc 1 1346 3 view .LVU861
	.loc 1 1354 11 is_stmt 0 view .LVU862
	sbbl	%r14d, %r14d
	.loc 1 1346 9 view .LVU863
	leaq	64(%rsp), %rax
	.loc 1 1347 12 view .LVU864
	movq	$-1, 40(%rsp)
	.loc 1 1354 11 view .LVU865
	andl	$256, %r14d
	.loc 1 1359 6 view .LVU866
	cmpb	$0, dont_sync(%rip)
	.loc 1 1346 9 view .LVU867
	movq	%rax, 32(%rsp)
	.loc 1 1347 3 is_stmt 1 view .LVU868
	.loc 1 1354 11 is_stmt 0 view .LVU869
	movl	$-100, %r15d
	.loc 1 1347 12 view .LVU870
	movq	$-1, 48(%rsp)
	.loc 1 1349 3 is_stmt 1 view .LVU871
	.loc 1 1354 8 view .LVU872
.LVL220:
	.loc 1 1359 3 view .LVU873
	.loc 1 1359 6 is_stmt 0 view .LVU874
	jne	.L437
.LVL221:
.L408:
	.loc 1 1361 8 is_stmt 1 view .LVU875
	.loc 1 1361 11 is_stmt 0 view .LVU876
	cmpb	$0, force_sync(%rip)
	je	.L409
	.loc 1 1362 5 is_stmt 1 view .LVU877
	.loc 1 1362 11 is_stmt 0 view .LVU878
	orl	$8192, %r14d
.LVL222:
	.loc 1 1362 11 view .LVU879
	jmp	.L409
.LVL223:
	.p2align 4,,10
	.p2align 3
.L435:
	.loc 1 1379 5 is_stmt 1 view .LVU880
.LBB384:
.LBI384:
	.loc 7 23 1 view .LVU881
.LBB385:
	.loc 7 25 3 view .LVU882
	.loc 7 27 3 view .LVU883
	.loc 7 28 3 view .LVU884
	.loc 7 29 3 view .LVU885
	.loc 7 29 3 is_stmt 0 view .LVU886
.LBE385:
.LBE384:
	.loc 1 1379 16 view .LVU887
	movq	288(%rsp), %rax
	movq	%rax, 40(%rsp)
	movl	296(%rsp), %eax
	movq	%rax, 48(%rsp)
	jmp	.L418
.LVL224:
	.p2align 4,,10
	.p2align 3
.L434:
	.loc 1 1367 7 is_stmt 1 view .LVU888
	call	__errno_location@PLT
.LVL225:
	.loc 1 1367 10 is_stmt 0 view .LVU889
	andl	$4096, %r14d
.LVL226:
	.loc 1 1367 10 view .LVU890
	movq	%rax, %rbx
.LVL227:
	.loc 1 1367 10 view .LVU891
	je	.L415
	.loc 1 1368 9 is_stmt 1 view .LVU892
	.loc 1 1368 26 is_stmt 0 view .LVU893
	movl	$5, %edx
	leaq	.LC140(%rip), %rsi
	xorl	%edi, %edi
	call	dcgettext@PLT
.LVL228:
	.loc 1 1368 9 view .LVU894
	movl	(%rbx), %esi
	xorl	%edi, %edi
	.loc 1 1368 26 view .LVU895
	movq	%rax, %rdx
	.loc 1 1368 9 view .LVU896
	xorl	%eax, %eax
	call	error@PLT
.LVL229:
	.loc 1 1371 14 view .LVU897
	xorl	%eax, %eax
	jmp	.L404
	.p2align 4,,10
	.p2align 3
.L415:
	.loc 1 1370 9 is_stmt 1 view .LVU898
	movq	%r12, %rsi
	movl	$4, %edi
	call	quotearg_style@PLT
.LVL230:
	.loc 1 1370 26 is_stmt 0 view .LVU899
	movl	$5, %edx
	leaq	.LC141(%rip), %rsi
	xorl	%edi, %edi
	.loc 1 1370 9 view .LVU900
	movq	%rax, %r12
.LVL231:
	.loc 1 1370 26 view .LVU901
	call	dcgettext@PLT
.LVL232:
	.loc 1 1370 9 view .LVU902
	movl	(%rbx), %esi
	movq	%r12, %rcx
	xorl	%edi, %edi
	.loc 1 1370 26 view .LVU903
	movq	%rax, %rdx
	.loc 1 1370 9 view .LVU904
	xorl	%eax, %eax
	call	error@PLT
.LVL233:
	.loc 1 1371 14 view .LVU905
	xorl	%eax, %eax
	jmp	.L404
.LVL234:
	.p2align 4,,10
	.p2align 3
.L421:
.LBB386:
.LBB351:
	.loc 1 1320 16 view .LVU906
	xorl	%ecx, %ecx
	jmp	.L410
.LVL235:
.L436:
	.loc 1 1320 16 view .LVU907
.LBE351:
.LBE386:
	.loc 1 1383 1 view .LVU908
	call	__stack_chk_fail@PLT
.LVL236:
	.cfi_endproc
.LFE169:
	.size	do_stat, .-do_stat
	.section	.rodata.str1.8
	.align 8
.LC142:
	.string	"cannot read table of mounted file systems"
	.section	.rodata.str1.1
.LC143:
	.string	"%s"
	.text
	.p2align 4
	.type	find_bind_mount, @function
find_bind_mount:
.LVL237:
.LFB159:
	.loc 1 942 1 is_stmt 1 view -0
	.cfi_startproc
	.loc 1 942 1 is_stmt 0 view .LVU910
	pushq	%r13
	.cfi_def_cfa_offset 16
	.cfi_offset 13, -16
	pushq	%r12
	.cfi_def_cfa_offset 24
	.cfi_offset 12, -24
	movq	%rdi, %r12
	pushq	%rbp
	.cfi_def_cfa_offset 32
	.cfi_offset 6, -32
	pushq	%rbx
	.cfi_def_cfa_offset 40
	.cfi_offset 3, -40
	subq	$312, %rsp
	.cfi_def_cfa_offset 352
	.loc 1 942 1 view .LVU911
	movq	%fs:40, %rax
	movq	%rax, 296(%rsp)
	xorl	%eax, %eax
	.loc 1 943 3 is_stmt 1 view .LVU912
.LVL238:
	.loc 1 945 3 view .LVU913
	.loc 1 946 3 view .LVU914
	.loc 1 947 3 view .LVU915
	.loc 1 947 6 is_stmt 0 view .LVU916
	cmpb	$0, tried_mount_list.8094(%rip)
	je	.L455
.LVL239:
.L439:
	.loc 1 954 3 is_stmt 1 view .LVU917
	.loc 1 955 3 view .LVU918
.LBB387:
.LBI387:
	.file 8 "/usr/include/x86_64-linux-gnu/sys/stat.h"
	.loc 8 453 1 view .LVU919
.LBB388:
	.loc 8 455 3 view .LVU920
	.loc 8 455 10 is_stmt 0 view .LVU921
	movq	%rsp, %rdx
	movq	%r12, %rsi
	movl	$1, %edi
	call	__xstat@PLT
.LVL240:
	.loc 8 455 10 view .LVU922
.LBE388:
.LBE387:
	.loc 1 955 6 view .LVU923
	testl	%eax, %eax
	jne	.L441
	.loc 1 958 3 is_stmt 1 view .LVU924
	.loc 1 959 3 view .LVU925
	.loc 1 959 11 is_stmt 0 view .LVU926
	movq	mount_list.8093(%rip), %rbx
.LVL241:
	.loc 1 959 25 is_stmt 1 view .LVU927
	.loc 1 959 3 is_stmt 0 view .LVU928
	testq	%rbx, %rbx
	je	.L441
.LBB389:
.LBB390:
.LBB391:
	.loc 8 455 10 view .LVU929
	leaq	144(%rsp), %r13
	jmp	.L445
	.p2align 4,,10
	.p2align 3
.L442:
	.loc 8 455 10 view .LVU930
.LBE391:
.LBE390:
.LBE389:
	.loc 1 959 29 is_stmt 1 discriminator 2 view .LVU931
	.loc 1 959 32 is_stmt 0 discriminator 2 view .LVU932
	movq	48(%rbx), %rbx
.LVL242:
	.loc 1 959 25 is_stmt 1 discriminator 2 view .LVU933
	.loc 1 959 3 is_stmt 0 discriminator 2 view .LVU934
	testq	%rbx, %rbx
	je	.L441
.L445:
	.loc 1 961 7 is_stmt 1 view .LVU935
	.loc 1 961 10 is_stmt 0 view .LVU936
	testb	$1, 40(%rbx)
	je	.L442
	.loc 1 961 29 discriminator 1 view .LVU937
	movq	(%rbx), %rbp
	.loc 1 961 24 discriminator 1 view .LVU938
	cmpb	$47, 0(%rbp)
	jne	.L442
	.loc 1 962 14 view .LVU939
	movq	8(%rbx), %rdi
	movq	%r12, %rsi
	call	strcmp@PLT
.LVL243:
	.loc 1 962 11 view .LVU940
	testl	%eax, %eax
	jne	.L442
.LBB394:
	.loc 1 964 11 is_stmt 1 view .LVU941
	.loc 1 966 11 view .LVU942
.LVL244:
.LBB393:
.LBI390:
	.loc 8 453 1 view .LVU943
.LBB392:
	.loc 8 455 3 view .LVU944
	.loc 8 455 10 is_stmt 0 view .LVU945
	movq	%r13, %rdx
	movq	%rbp, %rsi
	movl	$1, %edi
	call	__xstat@PLT
.LVL245:
	.loc 8 455 10 view .LVU946
.LBE392:
.LBE393:
	.loc 1 966 14 view .LVU947
	testl	%eax, %eax
	jne	.L442
	.loc 1 967 15 view .LVU948
	movq	152(%rsp), %rax
	cmpq	%rax, 8(%rsp)
	jne	.L442
	.loc 1 967 18 discriminator 1 view .LVU949
	movq	144(%rsp), %rax
	cmpq	%rax, (%rsp)
	jne	.L442
	.loc 1 969 15 is_stmt 1 view .LVU950
	.loc 1 969 26 is_stmt 0 view .LVU951
	movq	(%rbx), %rax
.LVL246:
	.loc 1 970 15 is_stmt 1 view .LVU952
	jmp	.L438
.LVL247:
	.p2align 4,,10
	.p2align 3
.L441:
	.loc 1 970 15 is_stmt 0 view .LVU953
.LBE394:
	.loc 1 956 12 view .LVU954
	xorl	%eax, %eax
.LVL248:
.L438:
	.loc 1 976 1 view .LVU955
	movq	296(%rsp), %rcx
	xorq	%fs:40, %rcx
	jne	.L456
	addq	$312, %rsp
	.cfi_remember_state
	.cfi_def_cfa_offset 40
	popq	%rbx
	.cfi_def_cfa_offset 32
	popq	%rbp
	.cfi_def_cfa_offset 24
	popq	%r12
	.cfi_def_cfa_offset 16
.LVL249:
	.loc 1 976 1 view .LVU956
	popq	%r13
	.cfi_def_cfa_offset 8
	ret
.LVL250:
	.p2align 4,,10
	.p2align 3
.L455:
	.cfi_restore_state
	.loc 1 949 7 is_stmt 1 view .LVU957
	.loc 1 949 26 is_stmt 0 view .LVU958
	xorl	%edi, %edi
.LVL251:
	.loc 1 949 26 view .LVU959
	call	read_file_system_list@PLT
.LVL252:
	.loc 1 949 24 view .LVU960
	movq	%rax, mount_list.8093(%rip)
	.loc 1 949 10 view .LVU961
	testq	%rax, %rax
	je	.L457
.L440:
	.loc 1 951 7 is_stmt 1 view .LVU962
	.loc 1 951 24 is_stmt 0 view .LVU963
	movb	$1, tried_mount_list.8094(%rip)
	jmp	.L439
.L457:
	.loc 1 950 9 is_stmt 1 view .LVU964
	xorl	%edi, %edi
	movl	$5, %edx
	leaq	.LC142(%rip), %rsi
	call	dcgettext@PLT
.LVL253:
	movq	%rax, %r13
	.loc 1 950 19 is_stmt 0 view .LVU965
	call	__errno_location@PLT
.LVL254:
	.loc 1 950 9 view .LVU966
	movq	%r13, %rcx
	leaq	.LC143(%rip), %rdx
	xorl	%edi, %edi
	movl	(%rax), %esi
	xorl	%eax, %eax
	call	error@PLT
.LVL255:
	jmp	.L440
.LVL256:
.L456:
	.loc 1 976 1 view .LVU967
	call	__stack_chk_fail@PLT
.LVL257:
	.cfi_endproc
.LFE159:
	.size	find_bind_mount, .-find_bind_mount
	.section	.rodata.str1.1
.LC144:
	.string	"TZ"
.LC145:
	.string	"%Y-%m-%d %H:%M:%S.%N %z"
.LC146:
	.string	"%s.%09d"
	.text
	.p2align 4
	.type	human_time, @function
human_time:
.LVL258:
.LFB148:
	.loc 1 641 1 is_stmt 1 view -0
	.cfi_startproc
	.loc 1 641 1 is_stmt 0 view .LVU969
	pushq	%r12
	.cfi_def_cfa_offset 16
	.cfi_offset 12, -16
	pushq	%rbx
	.cfi_def_cfa_offset 24
	.cfi_offset 3, -24
	subq	$120, %rsp
	.cfi_def_cfa_offset 144
	.loc 1 641 1 view .LVU970
	movq	%rdi, (%rsp)
.LVL259:
	.loc 1 650 7 view .LVU971
	movq	tz.7965(%rip), %rdi
	.loc 1 641 1 view .LVU972
	movq	%rsi, 8(%rsp)
.LVL260:
	.loc 1 641 1 view .LVU973
	movq	%fs:40, %rax
	movq	%rax, 104(%rsp)
	xorl	%eax, %eax
	.loc 1 645 3 is_stmt 1 view .LVU974
	.loc 1 649 3 view .LVU975
	.loc 1 650 3 view .LVU976
	.loc 1 650 6 is_stmt 0 view .LVU977
	testq	%rdi, %rdi
	je	.L464
.L459:
	.loc 1 652 3 is_stmt 1 view .LVU978
	.loc 1 653 3 view .LVU979
	.loc 1 654 7 is_stmt 0 view .LVU980
	leaq	16(%rsp), %r12
	movq	%rsp, %rsi
	.loc 1 653 7 view .LVU981
	movq	8(%rsp), %rbx
.LVL261:
	.loc 1 654 3 is_stmt 1 view .LVU982
	.loc 1 654 7 is_stmt 0 view .LVU983
	movq	%r12, %rdx
	call	localtime_rz@PLT
.LVL262:
	.loc 1 654 6 view .LVU984
	testq	%rax, %rax
	je	.L460
	.loc 1 655 5 is_stmt 1 view .LVU985
	movq	tz.7965(%rip), %r8
	movl	%ebx, %r9d
	movq	%r12, %rcx
	leaq	.LC145(%rip), %rdx
	movl	$61, %esi
	leaq	str.7964(%rip), %rdi
	call	nstrftime@PLT
.LVL263:
.L461:
	.loc 1 661 3 view .LVU986
	.loc 1 662 1 is_stmt 0 view .LVU987
	movq	104(%rsp), %rax
	xorq	%fs:40, %rax
	jne	.L465
	addq	$120, %rsp
	.cfi_remember_state
	.cfi_def_cfa_offset 24
	leaq	str.7964(%rip), %rax
	popq	%rbx
	.cfi_def_cfa_offset 16
.LVL264:
	.loc 1 662 1 view .LVU988
	popq	%r12
	.cfi_def_cfa_offset 8
	ret
.LVL265:
	.p2align 4,,10
	.p2align 3
.L460:
	.cfi_restore_state
.LBB395:
	.loc 1 658 7 is_stmt 1 view .LVU989
	.loc 1 659 7 view .LVU990
.LBB396:
.LBI396:
	.loc 5 690 1 view .LVU991
.LBB397:
	.loc 5 692 3 view .LVU992
	.loc 5 694 11 is_stmt 0 view .LVU993
	movq	(%rsp), %rdi
	leaq	80(%rsp), %rsi
.LVL266:
	.loc 5 694 11 view .LVU994
	call	imaxtostr@PLT
.LVL267:
	.loc 5 694 11 view .LVU995
.LBE397:
.LBE396:
.LBB399:
.LBI399:
	.loc 3 34 1 is_stmt 1 view .LVU996
.LBB400:
	.loc 3 36 3 view .LVU997
	.loc 3 36 10 is_stmt 0 view .LVU998
	movl	%ebx, %r9d
	movl	$61, %edx
	leaq	.LC146(%rip), %rcx
.LBE400:
.LBE399:
.LBB402:
.LBB398:
	.loc 5 694 11 view .LVU999
	movq	%rax, %r8
.LBE398:
.LBE402:
.LBB403:
.LBB401:
	.loc 3 36 10 view .LVU1000
	movl	$1, %esi
	leaq	str.7964(%rip), %rdi
	xorl	%eax, %eax
	call	__sprintf_chk@PLT
.LVL268:
	.loc 3 36 10 view .LVU1001
	jmp	.L461
.LVL269:
	.p2align 4,,10
	.p2align 3
.L464:
	.loc 3 36 10 view .LVU1002
.LBE401:
.LBE403:
.LBE395:
	.loc 1 651 5 is_stmt 1 view .LVU1003
	.loc 1 651 19 is_stmt 0 view .LVU1004
	leaq	.LC144(%rip), %rdi
	call	getenv@PLT
.LVL270:
	movq	%rax, %rdi
	.loc 1 651 10 view .LVU1005
	call	tzalloc@PLT
.LVL271:
	.loc 1 651 8 view .LVU1006
	movq	%rax, tz.7965(%rip)
	.loc 1 651 10 view .LVU1007
	movq	%rax, %rdi
	jmp	.L459
.LVL272:
.L465:
	.loc 1 662 1 view .LVU1008
	call	__stack_chk_fail@PLT
.LVL273:
	.cfi_endproc
.LFE148:
	.size	human_time, .-human_time
	.section	.rodata.str1.1
.LC147:
	.string	"%d"
.LC148:
	.string	".0f"
.LC150:
	.string	"%s%.*d%-*.*d"
	.text
	.p2align 4
	.type	out_epoch_sec, @function
out_epoch_sec:
.LVL274:
.LFB156:
	.loc 1 725 1 is_stmt 1 view -0
	.cfi_startproc
	.loc 1 725 1 is_stmt 0 view .LVU1010
	pushq	%r15
	.cfi_def_cfa_offset 16
	.cfi_offset 15, -16
	movq	%rdx, %r15
.LVL275:
	.loc 1 725 1 view .LVU1011
	pushq	%r14
	.cfi_def_cfa_offset 24
	.cfi_offset 14, -24
	pushq	%r13
	.cfi_def_cfa_offset 32
	.cfi_offset 13, -32
	movq	%rdi, %r13
	pushq	%r12
	.cfi_def_cfa_offset 40
	.cfi_offset 12, -40
	movq	%rdx, %r12
	.loc 1 726 15 view .LVU1012
	movq	%rsi, %rdx
	.loc 1 725 1 view .LVU1013
	pushq	%rbp
	.cfi_def_cfa_offset 48
	.cfi_offset 6, -48
	pushq	%rbx
	.cfi_def_cfa_offset 56
	.cfi_offset 3, -56
	movq	%rcx, %rbx
.LVL276:
	.loc 1 726 3 is_stmt 1 view .LVU1014
	.loc 1 725 1 is_stmt 0 view .LVU1015
	subq	$24, %rsp
	.cfi_def_cfa_offset 80
	.loc 1 726 15 view .LVU1016
	movq	%rsi, (%rsp)
	movl	$46, %esi
.LVL277:
	.loc 1 726 15 view .LVU1017
	call	memchr@PLT
.LVL278:
	.loc 1 727 3 is_stmt 1 view .LVU1018
	.loc 1 728 3 view .LVU1019
	.loc 1 729 3 view .LVU1020
	.loc 1 730 3 view .LVU1021
	.loc 1 732 3 view .LVU1022
	.loc 1 732 6 is_stmt 0 view .LVU1023
	movq	(%rsp), %r9
	testq	%rax, %rax
	je	.L482
	.loc 1 734 28 view .LVU1024
	movq	%rax, %r10
	.loc 1 735 27 view .LVU1025
	movb	$0, 0(%r13,%r9)
	movq	%rax, %rbp
	movq	%rax, %rcx
	.loc 1 734 7 is_stmt 1 view .LVU1026
	.loc 1 737 11 is_stmt 0 view .LVU1027
	movsbl	1(%rax), %eax
.LVL279:
	.loc 1 734 28 view .LVU1028
	subq	%r13, %r10
.LVL280:
	.loc 1 735 7 is_stmt 1 view .LVU1029
	.loc 1 737 7 view .LVU1030
	.loc 1 737 11 is_stmt 0 view .LVU1031
	subl	$48, %eax
	.loc 1 737 10 view .LVU1032
	cmpl	$9, %eax
	jbe	.L502
.LVL281:
	.loc 1 747 24 view .LVU1033
	movsbl	-1(%rbp), %eax
	.loc 1 744 21 view .LVU1034
	movl	$9, %r14d
	.loc 1 747 24 view .LVU1035
	subl	$48, %eax
	.loc 1 747 21 view .LVU1036
	cmpl	$9, %eax
	ja	.L503
.LVL282:
.L481:
.LBB422:
	.loc 1 752 11 is_stmt 1 view .LVU1037
	.loc 1 753 11 view .LVU1038
	.loc 1 753 16 is_stmt 0 view .LVU1039
	movb	$0, 0(%rbp)
.LVL283:
	.p2align 4,,10
	.p2align 3
.L470:
	.loc 1 755 11 is_stmt 1 discriminator 1 view .LVU1040
	.loc 1 756 13 discriminator 1 view .LVU1041
	.loc 1 757 18 is_stmt 0 discriminator 1 view .LVU1042
	movsbl	-2(%rcx), %eax
	.loc 1 756 13 discriminator 1 view .LVU1043
	subq	$1, %rcx
.LVL284:
	.loc 1 757 17 is_stmt 1 discriminator 1 view .LVU1044
	.loc 1 757 18 is_stmt 0 discriminator 1 view .LVU1045
	subl	$48, %eax
	.loc 1 757 11 discriminator 1 view .LVU1046
	cmpl	$9, %eax
	jbe	.L470
	.loc 1 759 29 view .LVU1047
	xorl	%esi, %esi
	movl	$10, %edx
	movq	%rcx, %rdi
	movq	%r10, (%rsp)
	.loc 1 759 11 is_stmt 1 view .LVU1048
	.loc 1 759 29 is_stmt 0 view .LVU1049
	movq	%rcx, 8(%rsp)
	call	strtol@PLT
.LVL285:
	.loc 1 760 11 is_stmt 1 view .LVU1050
	.loc 1 760 47 is_stmt 0 view .LVU1051
	movl	$2147483647, %r8d
.LBE422:
	.loc 1 734 22 view .LVU1052
	movq	(%rsp), %r10
.LBB438:
	.loc 1 760 47 view .LVU1053
	cmpq	$2147483647, %rax
	cmovle	%rax, %r8
.LBE438:
	.loc 1 734 22 view .LVU1054
	movq	%r10, %r9
.LBB439:
	.loc 1 760 17 view .LVU1055
	movl	%r8d, %ebp
.LVL286:
	.loc 1 761 11 is_stmt 1 view .LVU1056
	.loc 1 761 14 is_stmt 0 view .LVU1057
	cmpl	$1, %r8d
	jle	.L469
.LBB423:
	.loc 1 763 15 is_stmt 1 view .LVU1058
	.loc 1 763 24 is_stmt 0 view .LVU1059
	movq	8(%rsp), %rcx
	xorl	%eax, %eax
.LVL287:
	.loc 1 765 44 view .LVU1060
	movslq	%r8d, %rdx
	.loc 1 763 24 view .LVU1061
	cmpb	$48, (%rcx)
	sete	%al
	.loc 1 763 17 view .LVU1062
	addq	%rax, %rcx
.LVL288:
	.loc 1 764 15 is_stmt 1 view .LVU1063
	.loc 1 765 44 is_stmt 0 view .LVU1064
	movq	decimal_point_len(%rip), %rax
	.loc 1 764 34 view .LVU1065
	movq	%rcx, %r9
	subq	%r13, %r9
.LVL289:
	.loc 1 765 15 is_stmt 1 view .LVU1066
	.loc 1 765 19 is_stmt 0 view .LVU1067
	cmpq	%rax, %rdx
	jbe	.L469
	.loc 1 766 34 discriminator 1 view .LVU1068
	subl	%eax, %r8d
.LVL290:
	.loc 1 768 15 is_stmt 1 discriminator 1 view .LVU1069
	.loc 1 768 18 is_stmt 0 discriminator 1 view .LVU1070
	cmpl	$1, %r8d
	jle	.L469
.LBB424:
	.loc 1 770 19 is_stmt 1 view .LVU1071
	.loc 1 770 23 is_stmt 0 view .LVU1072
	subl	%r14d, %r8d
.LVL291:
	.loc 1 771 19 is_stmt 1 view .LVU1073
	.loc 1 771 22 is_stmt 0 view .LVU1074
	cmpl	$1, %r8d
	jle	.L469
.LVL292:
.LBB425:
.LBB426:
	.loc 1 774 51 is_stmt 1 view .LVU1075
	.loc 1 774 23 is_stmt 0 view .LVU1076
	cmpq	%rcx, %r13
	jnb	.L486
	movq	%r13, %rax
.LVL293:
	.loc 1 774 23 view .LVU1077
	movq	%r13, %rdi
.LBE426:
.LBE425:
.LBE424:
.LBE423:
.LBE439:
	.loc 1 730 8 view .LVU1078
	xorl	%esi, %esi
	jmp	.L473
.LVL294:
	.p2align 4,,10
	.p2align 3
.L505:
.LBB440:
.LBB436:
.LBB434:
.LBB432:
.LBB427:
	.loc 1 779 29 is_stmt 1 view .LVU1079
	.loc 1 779 36 is_stmt 0 view .LVU1080
	movb	%dl, (%rdi)
	.loc 1 779 33 view .LVU1081
	addq	$1, %rdi
.LVL295:
.L472:
	.loc 1 774 60 is_stmt 1 discriminator 2 view .LVU1082
	.loc 1 774 63 is_stmt 0 discriminator 2 view .LVU1083
	addq	$1, %rax
.LVL296:
	.loc 1 774 51 is_stmt 1 discriminator 2 view .LVU1084
	.loc 1 774 23 is_stmt 0 discriminator 2 view .LVU1085
	cmpq	%rax, %rcx
	je	.L504
.LVL297:
.L473:
	.loc 1 776 27 is_stmt 1 view .LVU1086
	.loc 1 776 31 is_stmt 0 view .LVU1087
	movzbl	(%rax), %edx
	.loc 1 776 30 view .LVU1088
	cmpb	$45, %dl
	jne	.L505
	.loc 1 777 46 view .LVU1089
	movl	$1, %esi
.LVL298:
	.loc 1 777 46 view .LVU1090
	jmp	.L472
.LVL299:
	.p2align 4,,10
	.p2align 3
.L502:
	.loc 1 777 46 view .LVU1091
.LBE427:
.LBE432:
.LBE434:
.LBE436:
.LBE440:
.LBB441:
	.loc 1 739 28 view .LVU1092
	movl	$10, %edx
	xorl	%esi, %esi
	.loc 1 739 40 view .LVU1093
	leaq	1(%rbp), %rdi
	movq	%r10, (%rsp)
	movq	%rbp, 8(%rsp)
	.loc 1 739 11 is_stmt 1 view .LVU1094
	.loc 1 739 28 is_stmt 0 view .LVU1095
	call	strtol@PLT
.LVL300:
	.loc 1 740 11 is_stmt 1 view .LVU1096
	.loc 1 740 49 is_stmt 0 view .LVU1097
	movl	$2147483647, %edx
.LBE441:
	.loc 1 747 10 view .LVU1098
	movq	(%rsp), %r10
.LBB442:
	.loc 1 740 49 view .LVU1099
	cmpq	$2147483647, %rax
	cmovg	%rdx, %rax
.LVL301:
	.loc 1 740 49 view .LVU1100
.LBE442:
	.loc 1 747 10 view .LVU1101
	testl	%eax, %eax
.LBB443:
	.loc 1 740 21 view .LVU1102
	movl	%eax, %r14d
.LVL302:
	.loc 1 740 21 view .LVU1103
.LBE443:
	.loc 1 747 7 is_stmt 1 view .LVU1104
	.loc 1 747 10 is_stmt 0 view .LVU1105
	je	.L483
.LVL303:
	.loc 1 747 24 discriminator 1 view .LVU1106
	movsbl	-1(%rbp), %eax
	.loc 1 747 21 discriminator 1 view .LVU1107
	movq	8(%rsp), %rcx
	.loc 1 747 24 discriminator 1 view .LVU1108
	subl	$48, %eax
	.loc 1 747 21 discriminator 1 view .LVU1109
	cmpl	$9, %eax
	jbe	.L481
	.loc 1 734 22 view .LVU1110
	movq	%r10, %r9
	.loc 1 728 7 view .LVU1111
	xorl	%ebp, %ebp
.LVL304:
.L469:
	.loc 1 790 3 is_stmt 1 view .LVU1112
	.loc 1 791 3 view .LVU1113
.LBB444:
	.loc 1 791 8 view .LVU1114
	.loc 1 791 27 view .LVU1115
	.loc 1 791 3 is_stmt 0 view .LVU1116
	cmpl	$8, %r14d
	jg	.L506
.LVL305:
.L467:
	.loc 1 791 3 view .LVU1117
.LBE444:
	.loc 1 734 22 view .LVU1118
	movl	%r14d, %esi
	.loc 1 790 7 view .LVU1119
	movl	$1, %ecx
	.p2align 4,,10
	.p2align 3
.L476:
.LVL306:
.LBB445:
	.loc 1 792 5 is_stmt 1 discriminator 3 view .LVU1120
	.loc 1 792 13 is_stmt 0 discriminator 3 view .LVU1121
	leal	(%rcx,%rcx,4), %ecx
.LVL307:
	.loc 1 791 35 discriminator 3 view .LVU1122
	addl	$1, %esi
.LVL308:
	.loc 1 792 13 discriminator 3 view .LVU1123
	addl	%ecx, %ecx
.LVL309:
	.loc 1 791 34 is_stmt 1 discriminator 3 view .LVU1124
	.loc 1 791 27 discriminator 3 view .LVU1125
	.loc 1 791 3 is_stmt 0 discriminator 3 view .LVU1126
	cmpl	$9, %esi
	jne	.L476
	movq	%rbx, %rax
	movslq	%ecx, %rsi
.LVL310:
	.loc 1 791 3 discriminator 3 view .LVU1127
	cqto
	idivq	%rsi
	movq	%rax, %r8
.LVL311:
.L475:
	.loc 1 791 3 discriminator 3 view .LVU1128
.LBE445:
	.loc 1 793 3 is_stmt 1 view .LVU1129
	.loc 1 794 3 view .LVU1130
	.loc 1 796 3 view .LVU1131
.LBB446:
	.loc 1 798 7 view .LVU1132
	.loc 1 799 7 view .LVU1133
	.loc 1 799 26 is_stmt 0 view .LVU1134
	testq	%r15, %r15
	jns	.L477
	testq	%rbx, %rbx
	jne	.L507
.LVL312:
.L477:
	.loc 1 809 20 discriminator 1 view .LVU1135
	movq	%r12, %rdx
	movq	%r9, %rsi
	movq	%r13, %rdi
	movl	%r8d, (%rsp)
	call	out_int
.LVL313:
	movl	(%rsp), %r8d
.L478:
.LVL314:
	.loc 1 809 20 discriminator 1 view .LVU1136
.LBE446:
	.loc 1 814 3 is_stmt 1 view .LVU1137
	.loc 1 814 6 is_stmt 0 view .LVU1138
	testl	%r14d, %r14d
	je	.L466
.LBB453:
	.loc 1 816 7 is_stmt 1 view .LVU1139
	.loc 1 816 11 is_stmt 0 view .LVU1140
	cmpl	$9, %r14d
	movl	$9, %ecx
	.loc 1 818 11 view .LVU1141
	movl	$0, %edx
	.loc 1 816 11 view .LVU1142
	cmovle	%r14d, %ecx
.LVL315:
	.loc 1 817 7 is_stmt 1 view .LVU1143
	.loc 1 817 11 is_stmt 0 view .LVU1144
	subl	%ecx, %r14d
.LVL316:
	.loc 1 818 7 is_stmt 1 view .LVU1145
	.loc 1 818 11 is_stmt 0 view .LVU1146
	testl	%eax, %eax
	cmovs	%edx, %eax
.LVL317:
	.loc 1 819 7 is_stmt 1 view .LVU1147
	.loc 1 819 11 is_stmt 0 view .LVU1148
	xorl	%r9d, %r9d
	cmpl	%ebp, %eax
	jge	.L480
	.loc 1 819 71 discriminator 1 view .LVU1149
	subl	%eax, %ebp
	.loc 1 819 63 discriminator 1 view .LVU1150
	movq	decimal_point_len(%rip), %rax
.LVL318:
	.loc 1 819 71 discriminator 1 view .LVU1151
	movslq	%ebp, %rdx
	.loc 1 820 64 discriminator 1 view .LVU1152
	leal	(%rcx,%rax), %esi
	subl	%esi, %ebp
	cmpq	%rax, %rdx
	cmova	%ebp, %r9d
.L480:
.LVL319:
	.loc 1 822 7 is_stmt 1 discriminator 6 view .LVU1153
.LBB454:
.LBI454:
	.loc 3 105 1 discriminator 6 view .LVU1154
.LBB455:
	.loc 3 107 3 discriminator 6 view .LVU1155
	.loc 3 107 10 is_stmt 0 discriminator 6 view .LVU1156
	pushq	$0
	.cfi_def_cfa_offset 88
	movq	decimal_point(%rip), %rdx
	movl	$1, %edi
	xorl	%eax, %eax
	pushq	%r14
	.cfi_def_cfa_offset 96
	leaq	.LC150(%rip), %rsi
	call	__printf_chk@PLT
.LVL320:
	.loc 3 107 10 discriminator 6 view .LVU1157
	popq	%rax
	.cfi_def_cfa_offset 88
	popq	%rdx
	.cfi_def_cfa_offset 80
.LVL321:
.L466:
	.loc 3 107 10 discriminator 6 view .LVU1158
.LBE455:
.LBE454:
.LBE453:
	.loc 1 825 1 view .LVU1159
	addq	$24, %rsp
	.cfi_remember_state
	.cfi_def_cfa_offset 56
	popq	%rbx
	.cfi_def_cfa_offset 48
.LVL322:
	.loc 1 825 1 view .LVU1160
	popq	%rbp
	.cfi_def_cfa_offset 40
	popq	%r12
	.cfi_def_cfa_offset 32
	popq	%r13
	.cfi_def_cfa_offset 24
.LVL323:
	.loc 1 825 1 view .LVU1161
	popq	%r14
	.cfi_def_cfa_offset 16
	popq	%r15
	.cfi_def_cfa_offset 8
	.loc 1 825 1 view .LVU1162
	ret
.LVL324:
	.p2align 4,,10
	.p2align 3
.L482:
	.cfi_restore_state
	.loc 1 729 7 view .LVU1163
	xorl	%r14d, %r14d
	.loc 1 728 7 view .LVU1164
	xorl	%ebp, %ebp
	jmp	.L467
.LVL325:
	.p2align 4,,10
	.p2align 3
.L507:
.LBB456:
.LBB447:
	.loc 1 801 11 is_stmt 1 view .LVU1165
	.loc 1 802 11 view .LVU1166
	.loc 1 801 15 is_stmt 0 view .LVU1167
	movl	$1000000000, %eax
	cltd
	idivl	%ecx
.LVL326:
	.loc 1 802 40 view .LVU1168
	subl	%r8d, %eax
.LVL327:
	.loc 1 802 40 view .LVU1169
	movl	%eax, %r8d
	.loc 1 803 38 view .LVU1170
	movq	%rbx, %rax
	cqto
	idivq	%rsi
.LVL328:
	.loc 1 803 48 view .LVU1171
	xorl	%eax, %eax
.LVL329:
	.loc 1 803 48 view .LVU1172
	testq	%rdx, %rdx
	setne	%al
.LVL330:
	.loc 1 804 11 is_stmt 1 view .LVU1173
	.loc 1 804 35 is_stmt 0 view .LVU1174
	xorl	%r12d, %r12d
	subl	%eax, %r8d
.LVL331:
	.loc 1 804 35 view .LVU1175
	setne	%r12b
	.loc 1 805 11 is_stmt 1 view .LVU1176
.LVL332:
	.loc 1 805 11 is_stmt 0 view .LVU1177
.LBE447:
	.loc 1 807 7 is_stmt 1 view .LVU1178
	.loc 1 809 18 is_stmt 0 view .LVU1179
	addq	%r15, %r12
.LVL333:
	.loc 1 809 18 view .LVU1180
	jne	.L477
.LBB448:
.LBB449:
	.loc 1 716 3 view .LVU1181
	movq	%r9, %rsi
	leaq	.LC148(%rip), %rcx
.LVL334:
	.loc 1 716 3 view .LVU1182
	movq	%r13, %rdi
	movl	%r8d, (%rsp)
.LVL335:
	.loc 1 716 3 view .LVU1183
.LBE449:
.LBI448:
	.loc 1 714 1 is_stmt 1 view .LVU1184
.LBB452:
	.loc 1 716 3 view .LVU1185
	leaq	.LC7(%rip), %rdx
	call	make_format
.LVL336:
	.loc 1 717 3 view .LVU1186
.LBB450:
.LBI450:
	.loc 3 105 1 view .LVU1187
.LBB451:
	.loc 3 107 3 view .LVU1188
	.loc 3 107 10 is_stmt 0 view .LVU1189
	movsd	.LC149(%rip), %xmm0
	movq	%r13, %rsi
	movl	$1, %edi
	movl	$1, %eax
	call	__printf_chk@PLT
.LVL337:
	.loc 3 107 10 view .LVU1190
.LBE451:
.LBE450:
.LBE452:
.LBE448:
	movl	(%rsp), %r8d
	jmp	.L478
.LVL338:
	.p2align 4,,10
	.p2align 3
.L483:
	.loc 3 107 10 view .LVU1191
.LBE456:
	.loc 1 728 7 view .LVU1192
	xorl	%ebp, %ebp
.LVL339:
	.loc 1 734 22 view .LVU1193
	movq	%r10, %r9
	jmp	.L467
.LVL340:
	.p2align 4,,10
	.p2align 3
.L503:
	.loc 1 747 21 view .LVU1194
	movq	%rbx, %r8
	.loc 1 734 22 view .LVU1195
	movq	%r10, %r9
.LVL341:
	.loc 1 747 21 view .LVU1196
	movl	$1, %esi
	.loc 1 728 7 view .LVU1197
	xorl	%ebp, %ebp
	.loc 1 790 7 view .LVU1198
	movl	$1, %ecx
.LVL342:
	.loc 1 790 7 view .LVU1199
	jmp	.L475
.LVL343:
.L504:
.LBB457:
.LBB437:
.LBB435:
.LBB433:
	.loc 1 781 23 is_stmt 1 view .LVU1200
	.loc 1 782 30 is_stmt 0 view .LVU1201
	movq	%rdi, %r9
.LVL344:
	.loc 1 782 30 view .LVU1202
	subq	%r13, %r9
	.loc 1 783 50 view .LVU1203
	testb	%sil, %sil
	jne	.L469
.LVL345:
.L471:
.LBB428:
.LBB429:
	.loc 3 36 10 view .LVU1204
	leaq	.LC147(%rip), %rcx
.LVL346:
	.loc 3 36 10 view .LVU1205
	movq	$-1, %rdx
	movl	$1, %esi
	xorl	%eax, %eax
	movq	%r9, (%rsp)
.LVL347:
	.loc 3 36 10 view .LVU1206
.LBE429:
.LBI428:
	.loc 3 34 1 is_stmt 1 view .LVU1207
.LBB430:
	.loc 3 36 3 view .LVU1208
	.loc 3 36 10 is_stmt 0 view .LVU1209
	call	__sprintf_chk@PLT
.LVL348:
	.loc 3 36 10 view .LVU1210
	movq	(%rsp), %r9
.LBE430:
.LBE428:
	.loc 1 783 50 view .LVU1211
	cltq
	addq	%rax, %r9
.LVL349:
	.loc 1 783 50 view .LVU1212
	jmp	.L469
.LVL350:
.L486:
.LBB431:
	.loc 1 774 23 view .LVU1213
	movq	%r13, %rdi
.LBE431:
	.loc 1 782 30 view .LVU1214
	xorl	%r9d, %r9d
.LVL351:
	.loc 1 782 30 view .LVU1215
	jmp	.L471
.LVL352:
.L506:
	.loc 1 782 30 view .LVU1216
.LBE433:
.LBE435:
.LBE437:
.LBE457:
.LBB458:
	.loc 1 791 3 view .LVU1217
	movq	%rbx, %r8
	movl	$1, %esi
.LBE458:
	.loc 1 790 7 view .LVU1218
	movl	$1, %ecx
	jmp	.L475
	.cfi_endproc
.LFE156:
	.size	out_epoch_sec, .-out_epoch_sec
	.section	.rodata.str1.1
.LC151:
	.string	"UNKNOWN"
.LC152:
	.string	"?"
.LC153:
	.string	"cannot read symbolic link %s"
.LC154:
	.string	" -> "
.LC155:
	.string	"lo"
.LC156:
	.string	"failed to canonicalize %s"
	.section	.rodata.str1.8
	.align 8
.LC157:
	.string	"failed to get security context of %s"
	.text
	.p2align 4
	.type	print_stat, @function
print_stat:
.LVL353:
.LFB170:
	.loc 1 1463 1 is_stmt 1 view -0
	.cfi_startproc
	.loc 1 1463 1 is_stmt 0 view .LVU1220
	endbr64
	pushq	%r15
	.cfi_def_cfa_offset 16
	.cfi_offset 15, -16
	subl	$65, %edx
.LVL354:
	.loc 1 1463 1 view .LVU1221
	pushq	%r14
	.cfi_def_cfa_offset 24
	.cfi_offset 14, -24
	pushq	%r13
	.cfi_def_cfa_offset 32
	.cfi_offset 13, -32
	movq	%r8, %r13
	pushq	%r12
	.cfi_def_cfa_offset 40
	.cfi_offset 12, -40
	pushq	%rbp
	.cfi_def_cfa_offset 48
	.cfi_offset 6, -48
	pushq	%rbx
	.cfi_def_cfa_offset 56
	.cfi_offset 3, -56
	subq	$40, %rsp
	.cfi_def_cfa_offset 96
	.loc 1 1465 16 view .LVU1222
	movq	(%r9), %r14
	.loc 1 1466 19 view .LVU1223
	movq	8(%r9), %r10
	.loc 1 1463 1 view .LVU1224
	movq	%fs:40, %rax
	movq	%rax, 24(%rsp)
	xorl	%eax, %eax
	.loc 1 1464 3 is_stmt 1 view .LVU1225
.LVL355:
	.loc 1 1465 3 view .LVU1226
	.loc 1 1466 3 view .LVU1227
	.loc 1 1466 19 is_stmt 0 view .LVU1228
	movq	16(%r9), %r8
.LVL356:
	.loc 1 1467 3 is_stmt 1 view .LVU1229
	.loc 1 1468 3 view .LVU1230
	.loc 1 1469 3 view .LVU1231
	.loc 1 1471 3 view .LVU1232
	cmpl	$57, %edx
	ja	.L509
	leaq	.L511(%rip), %rcx
.LVL357:
	.loc 1 1471 3 is_stmt 0 view .LVU1233
	movq	%rdi, %rbp
	movq	%rsi, %r12
	movslq	(%rcx,%rdx,4), %rax
	addq	%rcx, %rax
	notrack jmp	*%rax
	.section	.rodata
	.align 4
	.align 4
.L511:
	.long	.L540-.L511
	.long	.L539-.L511
	.long	.L538-.L511
	.long	.L537-.L511
	.long	.L509-.L511
	.long	.L536-.L511
	.long	.L535-.L511
	.long	.L509-.L511
	.long	.L509-.L511
	.long	.L509-.L511
	.long	.L509-.L511
	.long	.L509-.L511
	.long	.L509-.L511
	.long	.L534-.L511
	.long	.L509-.L511
	.long	.L509-.L511
	.long	.L509-.L511
	.long	.L509-.L511
	.long	.L509-.L511
	.long	.L533-.L511
	.long	.L532-.L511
	.long	.L509-.L511
	.long	.L531-.L511
	.long	.L530-.L511
	.long	.L529-.L511
	.long	.L528-.L511
	.long	.L509-.L511
	.long	.L509-.L511
	.long	.L509-.L511
	.long	.L509-.L511
	.long	.L509-.L511
	.long	.L509-.L511
	.long	.L527-.L511
	.long	.L526-.L511
	.long	.L509-.L511
	.long	.L525-.L511
	.long	.L509-.L511
	.long	.L524-.L511
	.long	.L523-.L511
	.long	.L522-.L511
	.long	.L521-.L511
	.long	.L509-.L511
	.long	.L509-.L511
	.long	.L509-.L511
	.long	.L520-.L511
	.long	.L519-.L511
	.long	.L518-.L511
	.long	.L509-.L511
	.long	.L509-.L511
	.long	.L509-.L511
	.long	.L517-.L511
	.long	.L516-.L511
	.long	.L515-.L511
	.long	.L509-.L511
	.long	.L514-.L511
	.long	.L513-.L511
	.long	.L512-.L511
	.long	.L510-.L511
	.text
	.p2align 4,,10
	.p2align 3
.L509:
	.loc 1 1594 7 is_stmt 1 view .LVU1234
	movq	stdout(%rip), %rdi
.LVL358:
.LBB485:
.LBI485:
	.loc 4 91 1 view .LVU1235
.LBB486:
	.loc 4 93 3 view .LVU1236
	.loc 4 93 10 is_stmt 0 view .LVU1237
	movq	40(%rdi), %rax
	cmpq	48(%rdi), %rax
	jnb	.L580
	leaq	1(%rax), %rdx
.LBE486:
.LBE485:
	.loc 1 1469 8 view .LVU1238
	xorl	%r15d, %r15d
.LBB490:
.LBB487:
	.loc 4 93 10 view .LVU1239
	movq	%rdx, 40(%rdi)
	movb	$63, (%rax)
.LVL359:
	.p2align 4,,10
	.p2align 3
.L541:
	.loc 4 93 10 view .LVU1240
.LBE487:
.LBE490:
	.loc 1 1598 1 view .LVU1241
	movq	24(%rsp), %rax
	xorq	%fs:40, %rax
	jne	.L581
	addq	$40, %rsp
	.cfi_remember_state
	.cfi_def_cfa_offset 56
	movl	%r15d, %eax
	popq	%rbx
	.cfi_def_cfa_offset 48
	popq	%rbp
	.cfi_def_cfa_offset 40
	popq	%r12
	.cfi_def_cfa_offset 32
	popq	%r13
	.cfi_def_cfa_offset 24
	popq	%r14
	.cfi_def_cfa_offset 16
	popq	%r15
	.cfi_def_cfa_offset 8
	ret
.LVL360:
	.p2align 4,,10
	.p2align 3
.L510:
	.cfi_restore_state
	.loc 1 1585 7 is_stmt 1 view .LVU1242
	movq	112(%r14), %rsi
.LVL361:
	.file 9 "./lib/stat-time.h"
	.loc 9 135 3 view .LVU1243
	movq	104(%r14), %rdi
.LVL362:
.L575:
	.loc 1 1585 40 is_stmt 0 view .LVU1244
	call	human_time
.LVL363:
.L578:
	.loc 1 1585 40 view .LVU1245
	movq	%rax, %rdx
.L577:
	.loc 1 1585 7 view .LVU1246
	movq	%r12, %rsi
	movq	%rbp, %rdi
	.loc 1 1469 8 view .LVU1247
	xorl	%r15d, %r15d
	.loc 1 1585 7 view .LVU1248
	call	out_string
.LVL364:
	.loc 1 1586 7 is_stmt 1 view .LVU1249
	jmp	.L541
.LVL365:
	.p2align 4,,10
	.p2align 3
.L512:
	.loc 1 1579 7 view .LVU1250
	movq	96(%r14), %rsi
.LVL366:
	.loc 9 149 3 view .LVU1251
	movq	88(%r14), %rdi
.LVL367:
	.loc 9 149 3 is_stmt 0 view .LVU1252
	jmp	.L575
.LVL368:
	.p2align 4,,10
	.p2align 3
.L513:
	.loc 1 1573 7 is_stmt 1 view .LVU1253
	movq	80(%r14), %rsi
.LVL369:
	.loc 9 121 3 view .LVU1254
	movq	72(%r14), %rdi
.LVL370:
	.loc 9 121 3 is_stmt 0 view .LVU1255
	jmp	.L575
.LVL371:
	.p2align 4,,10
	.p2align 3
.L514:
	.loc 1 1558 9 is_stmt 1 view .LVU1256
	.loc 1 1561 44 is_stmt 0 view .LVU1257
	movq	%r10, %rdi
.LVL372:
	.loc 1 1561 44 view .LVU1258
	movq	%r8, %rsi
.LVL373:
	.loc 1 1558 12 view .LVU1259
	testq	%r8, %r8
	jns	.L575
.LVL374:
	.loc 1 1559 11 is_stmt 1 view .LVU1260
	leaq	.LC3(%rip), %rdx
	movq	%r12, %rsi
.LVL375:
	.loc 1 1559 11 is_stmt 0 view .LVU1261
	movq	%rbp, %rdi
.LVL376:
	.loc 1 1469 8 view .LVU1262
	xorl	%r15d, %r15d
	.loc 1 1559 11 view .LVU1263
	call	out_string
.LVL377:
	.loc 1 1559 11 view .LVU1264
	jmp	.L541
.LVL378:
	.p2align 4,,10
	.p2align 3
.L515:
	.loc 1 1517 7 is_stmt 1 view .LVU1265
	movl	28(%r14), %edx
	.loc 1 1469 8 is_stmt 0 view .LVU1266
	xorl	%r15d, %r15d
	.loc 1 1517 7 view .LVU1267
	call	out_uint
.LVL379:
	.loc 1 1518 7 is_stmt 1 view .LVU1268
	jmp	.L541
.LVL380:
	.p2align 4,,10
	.p2align 3
.L516:
	.loc 1 1539 7 view .LVU1269
	.loc 1 1539 40 is_stmt 0 view .LVU1270
	movq	40(%r14), %rax
.LVL381:
.LBB491:
.LBI491:
	.loc 6 41 1 is_stmt 1 view .LVU1271
.LBB492:
	.loc 6 41 1 view .LVU1272
	.loc 6 41 1 view .LVU1273
	movq	%rax, %rdx
	shrq	$32, %rax
.LVL382:
	.loc 6 41 1 is_stmt 0 view .LVU1274
	shrq	$8, %rdx
.LVL383:
	.loc 6 41 1 view .LVU1275
	movl	%edx, %ecx
	movq	%rax, %rdx
	andl	$4095, %ecx
.LVL384:
	.loc 6 41 1 is_stmt 1 view .LVU1276
	.loc 6 41 1 view .LVU1277
	.loc 6 41 1 is_stmt 0 view .LVU1278
	andl	$-4096, %edx
.L576:
	.loc 6 41 1 view .LVU1279
.LBE492:
.LBE491:
	.loc 1 1542 7 view .LVU1280
	orl	%ecx, %edx
	movq	%r12, %rsi
.LVL385:
	.loc 1 1542 7 view .LVU1281
	movq	%rbp, %rdi
.LVL386:
	.loc 1 1469 8 view .LVU1282
	xorl	%r15d, %r15d
	.loc 1 1542 7 view .LVU1283
	call	out_uint_x
.LVL387:
	.loc 1 1543 7 is_stmt 1 view .LVU1284
	jmp	.L541
.LVL388:
	.p2align 4,,10
	.p2align 3
.L517:
	.loc 1 1536 7 view .LVU1285
	movq	48(%r14), %rdx
	.loc 1 1469 8 is_stmt 0 view .LVU1286
	xorl	%r15d, %r15d
	.loc 1 1536 7 view .LVU1287
	call	out_int
.LVL389:
	.loc 1 1537 7 is_stmt 1 view .LVU1288
	jmp	.L541
.LVL390:
	.p2align 4,,10
	.p2align 3
.L518:
	.loc 1 1551 7 view .LVU1289
	movabsq	$2305843009213693951, %rax
	.loc 1 1551 38 is_stmt 0 view .LVU1290
	movq	56(%r14), %rdx
	leaq	-1(%rdx), %rcx
	.loc 1 1551 7 view .LVU1291
	cmpq	%rax, %rcx
	movl	$512, %eax
	cmova	%rax, %rdx
	.loc 1 1469 8 view .LVU1292
	xorl	%r15d, %r15d
	.loc 1 1551 7 view .LVU1293
	call	out_uint
.LVL391:
	.loc 1 1552 7 is_stmt 1 view .LVU1294
	jmp	.L541
.LVL392:
	.p2align 4,,10
	.p2align 3
.L519:
	.loc 1 1474 7 view .LVU1295
	movq	%r13, %rdx
	.loc 1 1469 8 is_stmt 0 view .LVU1296
	xorl	%r15d, %r15d
	.loc 1 1474 7 view .LVU1297
	call	out_string
.LVL393:
	.loc 1 1475 7 is_stmt 1 view .LVU1298
	jmp	.L541
.LVL394:
	.p2align 4,,10
	.p2align 3
.L520:
	.loc 1 1533 7 view .LVU1299
.LBB493:
.LBI493:
	.loc 1 980 1 view .LVU1300
.LBB494:
	.loc 1 984 3 view .LVU1301
	.loc 1 985 3 view .LVU1302
	.loc 1 986 3 view .LVU1303
	.loc 1 990 3 view .LVU1304
	.loc 1 990 6 is_stmt 0 view .LVU1305
	cmpb	$0, follow_links(%rip)
	jne	.L545
	.loc 1 990 24 view .LVU1306
	movl	24(%r14), %eax
	andl	$61440, %eax
	.loc 1 990 20 view .LVU1307
	cmpl	$40960, %eax
	je	.L549
.L545:
.LBB495:
	.loc 1 992 7 is_stmt 1 view .LVU1308
	.loc 1 992 24 is_stmt 0 view .LVU1309
	movq	%r13, %rdi
.LVL395:
	.loc 1 992 24 view .LVU1310
	call	canonicalize_file_name@PLT
.LVL396:
	.loc 1 992 24 view .LVU1311
	movq	%rax, %rbx
.LVL397:
	.loc 1 993 7 is_stmt 1 view .LVU1312
	.loc 1 993 10 is_stmt 0 view .LVU1313
	testq	%rax, %rax
	je	.L582
	.loc 1 998 7 is_stmt 1 view .LVU1314
	.loc 1 998 12 is_stmt 0 view .LVU1315
	movq	%rax, %rdi
	.loc 1 1002 16 view .LVU1316
	xorl	%r15d, %r15d
	.loc 1 998 12 view .LVU1317
	call	find_bind_mount
.LVL398:
	.loc 1 999 7 view .LVU1318
	movq	%rbx, %rdi
.LBE495:
	.loc 1 985 9 view .LVU1319
	xorl	%ebx, %ebx
.LVL399:
.LBB496:
	.loc 1 998 12 view .LVU1320
	movq	%rax, 8(%rsp)
.LVL400:
	.loc 1 999 7 is_stmt 1 view .LVU1321
	call	free@PLT
.LVL401:
	.loc 1 1000 7 view .LVU1322
	.loc 1 1000 10 is_stmt 0 view .LVU1323
	movq	8(%rsp), %rdx
	testq	%rdx, %rdx
	je	.L549
.LVL402:
.L547:
	.loc 1 1000 10 view .LVU1324
.LBE496:
	.loc 1 1022 3 view .LVU1325
	movq	%rbp, %rdi
	movq	%r12, %rsi
	call	out_string
.LVL403:
	.loc 1 1023 3 is_stmt 1 view .LVU1326
	movq	%rbx, %rdi
	call	free@PLT
.LVL404:
	.loc 1 1024 3 view .LVU1327
	.loc 1 1024 3 is_stmt 0 view .LVU1328
.LBE494:
.LBE493:
	.loc 1 1534 7 is_stmt 1 view .LVU1329
	jmp	.L541
.LVL405:
	.p2align 4,,10
	.p2align 3
.L521:
	.loc 1 1499 7 view .LVU1330
	movq	8(%r14), %rdx
	.loc 1 1469 8 is_stmt 0 view .LVU1331
	xorl	%r15d, %r15d
	.loc 1 1499 7 view .LVU1332
	call	out_uint
.LVL406:
	.loc 1 1500 7 is_stmt 1 view .LVU1333
	jmp	.L541
.LVL407:
	.p2align 4,,10
	.p2align 3
.L523:
	.loc 1 1525 7 view .LVU1334
	movl	32(%r14), %edx
	.loc 1 1469 8 is_stmt 0 view .LVU1335
	xorl	%r15d, %r15d
	.loc 1 1525 7 view .LVU1336
	call	out_uint
.LVL408:
	.loc 1 1526 7 is_stmt 1 view .LVU1337
	jmp	.L541
.LVL409:
	.p2align 4,,10
	.p2align 3
.L524:
	.loc 1 1508 7 view .LVU1338
	movl	24(%r14), %edx
	.loc 1 1469 8 is_stmt 0 view .LVU1339
	xorl	%r15d, %r15d
	.loc 1 1508 7 view .LVU1340
	call	out_uint_x
.LVL410:
	.loc 1 1509 7 is_stmt 1 view .LVU1341
	jmp	.L541
.LVL411:
	.p2align 4,,10
	.p2align 3
.L522:
	.loc 1 1514 7 view .LVU1342
	movq	16(%r14), %rdx
	.loc 1 1469 8 is_stmt 0 view .LVU1343
	xorl	%r15d, %r15d
	.loc 1 1514 7 view .LVU1344
	call	out_uint
.LVL412:
	.loc 1 1515 7 is_stmt 1 view .LVU1345
	jmp	.L541
.LVL413:
	.p2align 4,,10
	.p2align 3
.L525:
	.loc 1 1493 7 view .LVU1346
	movq	(%r14), %rdx
	.loc 1 1469 8 is_stmt 0 view .LVU1347
	xorl	%r15d, %r15d
	.loc 1 1493 7 view .LVU1348
	call	out_uint
.LVL414:
	.loc 1 1494 7 is_stmt 1 view .LVU1349
	jmp	.L541
.LVL415:
	.p2align 4,,10
	.p2align 3
.L526:
	.loc 1 1548 7 view .LVU1350
	movq	64(%r14), %rdx
	.loc 1 1469 8 is_stmt 0 view .LVU1351
	xorl	%r15d, %r15d
	.loc 1 1548 7 view .LVU1352
	call	out_uint
.LVL416:
	.loc 1 1549 7 is_stmt 1 view .LVU1353
	jmp	.L541
.LVL417:
	.p2align 4,,10
	.p2align 3
.L527:
	.loc 1 1502 7 view .LVU1354
	movl	24(%r14), %r13d
.LVL418:
.LBB501:
.LBB502:
	.loc 1 704 3 is_stmt 0 view .LVU1355
	leaq	.LC155(%rip), %rcx
	leaq	.LC1(%rip), %rdx
.LBE502:
.LBE501:
	.loc 1 1469 8 view .LVU1356
	xorl	%r15d, %r15d
.LBB509:
.LBB507:
	.loc 1 704 3 view .LVU1357
	call	make_format
.LVL419:
.LBB503:
.LBB504:
	.loc 3 107 10 view .LVU1358
	movq	%rbp, %rsi
	movl	$1, %edi
	xorl	%eax, %eax
.LBE504:
.LBE503:
.LBE507:
.LBE509:
	.loc 1 1502 7 view .LVU1359
	andl	$4095, %r13d
.LVL420:
.LBB510:
.LBI501:
	.loc 1 702 1 is_stmt 1 view .LVU1360
.LBB508:
	.loc 1 704 3 view .LVU1361
	.loc 1 705 3 view .LVU1362
.LBB506:
.LBI503:
	.loc 3 105 1 view .LVU1363
.LBB505:
	.loc 3 107 3 view .LVU1364
	.loc 3 107 10 is_stmt 0 view .LVU1365
	movq	%r13, %rdx
	call	__printf_chk@PLT
.LVL421:
	.loc 3 107 10 view .LVU1366
.LBE505:
.LBE506:
	.loc 1 706 1 view .LVU1367
	jmp	.L541
.LVL422:
	.p2align 4,,10
	.p2align 3
.L528:
	.loc 1 706 1 view .LVU1368
.LBE508:
.LBE510:
	.loc 1 1588 7 is_stmt 1 view .LVU1369
	movq	112(%r14), %rcx
.LVL423:
	.loc 9 135 3 view .LVU1370
	movq	104(%r14), %rdx
	.loc 1 1469 8 is_stmt 0 view .LVU1371
	xorl	%r15d, %r15d
	.loc 1 1588 7 view .LVU1372
	call	out_epoch_sec
.LVL424:
	.loc 1 1589 7 is_stmt 1 view .LVU1373
	jmp	.L541
.LVL425:
	.p2align 4,,10
	.p2align 3
.L529:
	.loc 1 1582 7 view .LVU1374
	movq	96(%r14), %rcx
.LVL426:
	.loc 9 149 3 view .LVU1375
	movq	88(%r14), %rdx
	.loc 1 1469 8 is_stmt 0 view .LVU1376
	xorl	%r15d, %r15d
	.loc 1 1582 7 view .LVU1377
	call	out_epoch_sec
.LVL427:
	.loc 1 1583 7 is_stmt 1 view .LVU1378
	jmp	.L541
.LVL428:
	.p2align 4,,10
	.p2align 3
.L530:
	.loc 1 1576 7 view .LVU1379
	movq	80(%r14), %rcx
.LVL429:
	.loc 9 121 3 view .LVU1380
	movq	72(%r14), %rdx
	.loc 1 1469 8 is_stmt 0 view .LVU1381
	xorl	%r15d, %r15d
	.loc 1 1576 7 view .LVU1382
	call	out_epoch_sec
.LVL430:
	.loc 1 1577 7 is_stmt 1 view .LVU1383
	jmp	.L541
.LVL431:
	.p2align 4,,10
	.p2align 3
.L531:
	.loc 1 1569 9 view .LVU1384
.LBB511:
.LBI511:
	.loc 1 1029 1 view .LVU1385
.LBB512:
	.loc 1 1031 3 view .LVU1386
	.loc 1 1031 6 is_stmt 0 view .LVU1387
	testq	%r8, %r8
	jns	.L552
	.loc 1 1034 10 view .LVU1388
	xorl	%r8d, %r8d
.LVL432:
	.loc 1 1034 10 view .LVU1389
	xorl	%r10d, %r10d
.LVL433:
.L552:
	.loc 1 1034 10 view .LVU1390
.LBE512:
.LBE511:
	.loc 1 1569 9 view .LVU1391
	movq	%r10, %rdx
	movq	%r8, %rcx
	movq	%r12, %rsi
.LVL434:
	.loc 1 1569 9 view .LVU1392
	movq	%rbp, %rdi
.LVL435:
	.loc 1 1569 9 view .LVU1393
	call	out_epoch_sec
.LVL436:
	.loc 1 1571 7 is_stmt 1 view .LVU1394
	.loc 1 1469 8 is_stmt 0 view .LVU1395
	xorl	%r15d, %r15d
	.loc 1 1571 7 view .LVU1396
	jmp	.L541
.LVL437:
	.p2align 4,,10
	.p2align 3
.L532:
	.loc 1 1520 7 is_stmt 1 view .LVU1397
	.loc 1 1520 16 is_stmt 0 view .LVU1398
	movl	28(%r14), %edi
.LVL438:
	.loc 1 1520 16 view .LVU1399
	call	getpwuid@PLT
.LVL439:
	.loc 1 1521 7 is_stmt 1 view .LVU1400
	leaq	.LC151(%rip), %rdx
	testq	%rax, %rax
	je	.L577
.LVL440:
.L579:
	.loc 1 1529 7 is_stmt 0 discriminator 1 view .LVU1401
	movq	(%rax), %rdx
	jmp	.L577
.LVL441:
	.p2align 4,,10
	.p2align 3
.L533:
	.loc 1 1542 7 is_stmt 1 view .LVU1402
	.loc 1 1542 40 is_stmt 0 view .LVU1403
	movq	40(%r14), %rax
.LVL442:
.LBB513:
.LBI513:
	.loc 6 42 1 is_stmt 1 view .LVU1404
.LBB514:
	.loc 6 42 1 view .LVU1405
	.loc 6 42 1 view .LVU1406
	movzbl	%al, %ecx
.LVL443:
	.loc 6 42 1 view .LVU1407
	.loc 6 42 1 view .LVU1408
	.loc 6 42 1 is_stmt 0 view .LVU1409
	shrq	$12, %rax
	movq	%rax, %rdx
	xorb	%dl, %dl
	jmp	.L576
	.p2align 4,,10
	.p2align 3
.L534:
	.loc 6 42 1 view .LVU1410
.LBE514:
.LBE513:
	.loc 1 1477 7 is_stmt 1 view .LVU1411
	.loc 1 1477 40 is_stmt 0 view .LVU1412
	xorl	%edi, %edi
.LVL444:
	.loc 1 1469 8 view .LVU1413
	xorl	%r15d, %r15d
	.loc 1 1477 40 view .LVU1414
	call	get_quoting_style@PLT
.LVL445:
	.loc 1 1477 40 view .LVU1415
	movq	%r13, %rsi
	movl	%eax, %edi
	call	quotearg_style@PLT
.LVL446:
	.loc 1 1477 7 view .LVU1416
	movq	%r12, %rsi
	movq	%rbp, %rdi
	.loc 1 1477 40 view .LVU1417
	movq	%rax, %rdx
	.loc 1 1477 7 view .LVU1418
	call	out_string
.LVL447:
	.loc 1 1478 7 is_stmt 1 view .LVU1419
	.loc 1 1478 11 is_stmt 0 view .LVU1420
	movl	24(%r14), %eax
	andl	$61440, %eax
	.loc 1 1478 10 view .LVU1421
	cmpl	$40960, %eax
	jne	.L541
.LBB515:
	.loc 1 1480 11 is_stmt 1 view .LVU1422
	.loc 1 1480 28 is_stmt 0 view .LVU1423
	movq	48(%r14), %rsi
	movq	%r13, %rdi
	call	areadlink_with_size@PLT
.LVL448:
	movq	%rax, %r14
.LVL449:
	.loc 1 1481 11 is_stmt 1 view .LVU1424
	.loc 1 1481 14 is_stmt 0 view .LVU1425
	testq	%rax, %rax
	je	.L583
	.loc 1 1487 11 is_stmt 1 view .LVU1426
.LVL450:
.LBB516:
.LBI516:
	.loc 3 105 1 view .LVU1427
.LBB517:
	.loc 3 107 3 view .LVU1428
	.loc 3 107 10 is_stmt 0 view .LVU1429
	leaq	.LC154(%rip), %rsi
	movl	$1, %edi
	xorl	%eax, %eax
.LVL451:
	.loc 3 107 10 view .LVU1430
	call	__printf_chk@PLT
.LVL452:
	.loc 3 107 10 view .LVU1431
.LBE517:
.LBE516:
	.loc 1 1488 11 is_stmt 1 view .LVU1432
	.loc 1 1488 44 is_stmt 0 view .LVU1433
	xorl	%edi, %edi
	call	get_quoting_style@PLT
.LVL453:
	movq	%r14, %rsi
	movl	%eax, %edi
	call	quotearg_style@PLT
.LVL454:
	.loc 1 1488 11 view .LVU1434
	movq	%rbp, %rdi
	movq	%r12, %rsi
	.loc 1 1488 44 view .LVU1435
	movq	%rax, %rdx
	.loc 1 1488 11 view .LVU1436
	call	out_string
.LVL455:
	.loc 1 1489 11 is_stmt 1 view .LVU1437
	movq	%r14, %rdi
	call	free@PLT
.LVL456:
	jmp	.L541
.LVL457:
	.p2align 4,,10
	.p2align 3
.L535:
	.loc 1 1489 11 is_stmt 0 view .LVU1438
.LBE515:
	.loc 1 1528 7 is_stmt 1 view .LVU1439
	.loc 1 1528 16 is_stmt 0 view .LVU1440
	movl	32(%r14), %edi
.LVL458:
	.loc 1 1528 16 view .LVU1441
	call	getgrgid@PLT
.LVL459:
	.loc 1 1529 7 is_stmt 1 view .LVU1442
	leaq	.LC151(%rip), %rdx
	testq	%rax, %rax
	jne	.L579
	jmp	.L577
.LVL460:
	.p2align 4,,10
	.p2align 3
.L536:
	.loc 1 1511 7 view .LVU1443
	movq	%r14, %rdi
.LVL461:
	.loc 1 1511 7 is_stmt 0 view .LVU1444
	call	file_type@PLT
.LVL462:
	.loc 1 1511 7 view .LVU1445
	jmp	.L578
.LVL463:
	.p2align 4,,10
	.p2align 3
.L537:
	.loc 1 1496 7 is_stmt 1 view .LVU1446
	movq	(%r14), %rdx
	.loc 1 1469 8 is_stmt 0 view .LVU1447
	xorl	%r15d, %r15d
	.loc 1 1496 7 view .LVU1448
	call	out_uint_x
.LVL464:
	.loc 1 1497 7 is_stmt 1 view .LVU1449
	jmp	.L541
.LVL465:
	.p2align 4,,10
	.p2align 3
.L538:
	.loc 1 1591 7 view .LVU1450
.LBB518:
.LBI518:
	.loc 1 830 1 view .LVU1451
.LBB519:
	.loc 1 832 3 view .LVU1452
	.loc 1 833 3 view .LVU1453
	.loc 1 835 3 view .LVU1454
	.loc 1 837 45 is_stmt 0 view .LVU1455
	cmpb	$0, follow_links(%rip)
	.loc 1 836 10 view .LVU1456
	leaq	16(%rsp), %rsi
.LVL466:
	.loc 1 836 10 view .LVU1457
	movq	%r13, %rdi
.LVL467:
	.loc 1 837 45 view .LVU1458
	je	.L553
.LVL468:
	.loc 1 836 10 view .LVU1459
	call	rpl_getfilecon@PLT
.LVL469:
	.loc 1 837 45 view .LVU1460
	shrl	$31, %eax
	movl	%eax, %r15d
.L554:
	.loc 1 835 6 view .LVU1461
	testb	%r15b, %r15b
	jne	.L555
	movq	16(%rsp), %rdx
	.loc 1 844 3 is_stmt 1 view .LVU1462
.LVL470:
.LBB520:
.LBI520:
	.loc 2 88 1 view .LVU1463
.LBB521:
	.loc 2 90 3 view .LVU1464
	.loc 2 90 10 is_stmt 0 view .LVU1465
	movl	$115, %ecx
.LBE521:
.LBE520:
	.loc 1 845 3 view .LVU1466
	leaq	.LC152(%rip), %rax
.LBB526:
.LBB522:
	.loc 2 90 10 view .LVU1467
	movw	%cx, 0(%rbp,%r12)
.LVL471:
	.loc 2 90 10 view .LVU1468
.LBE522:
.LBE526:
	.loc 1 845 3 is_stmt 1 view .LVU1469
	testq	%rdx, %rdx
	cmove	%rax, %rdx
.LVL472:
.L556:
.LBB527:
.LBI527:
	.loc 3 105 1 view .LVU1470
.LBB528:
	.loc 3 107 3 view .LVU1471
	.loc 3 107 10 is_stmt 0 view .LVU1472
	movl	$1, %edi
	movq	%rbp, %rsi
	xorl	%eax, %eax
	call	__printf_chk@PLT
.LVL473:
	.loc 3 107 10 view .LVU1473
.LBE528:
.LBE527:
	.loc 1 846 3 is_stmt 1 view .LVU1474
	.loc 1 846 7 is_stmt 0 view .LVU1475
	movq	16(%rsp), %rdi
	.loc 1 846 6 view .LVU1476
	testq	%rdi, %rdi
	je	.L541
	.loc 1 847 5 is_stmt 1 view .LVU1477
	call	freecon@PLT
.LVL474:
	.loc 1 848 3 view .LVU1478
	.loc 1 848 3 is_stmt 0 view .LVU1479
.LBE519:
.LBE518:
	.loc 1 1592 7 is_stmt 1 view .LVU1480
	jmp	.L541
.LVL475:
	.p2align 4,,10
	.p2align 3
.L539:
	.loc 1 1545 7 view .LVU1481
	movl	$512, %edx
	.loc 1 1469 8 is_stmt 0 view .LVU1482
	xorl	%r15d, %r15d
	.loc 1 1545 7 view .LVU1483
	call	out_uint
.LVL476:
	.loc 1 1546 7 is_stmt 1 view .LVU1484
	jmp	.L541
.LVL477:
	.p2align 4,,10
	.p2align 3
.L540:
	.loc 1 1505 7 view .LVU1485
.LBB534:
.LBI534:
	.loc 1 631 1 view .LVU1486
.LBB535:
	.loc 1 633 3 view .LVU1487
	.loc 1 634 3 view .LVU1488
	leaq	modebuf.7960(%rip), %rsi
.LVL478:
	.loc 1 634 3 is_stmt 0 view .LVU1489
	movq	%r14, %rdi
.LVL479:
	.loc 1 634 3 view .LVU1490
.LBE535:
.LBE534:
	.loc 1 1469 8 view .LVU1491
	xorl	%r15d, %r15d
.LBB538:
.LBB536:
	.loc 1 634 3 view .LVU1492
	call	filemodestring@PLT
.LVL480:
	.loc 1 635 3 is_stmt 1 view .LVU1493
.LBE536:
.LBE538:
	.loc 1 1505 7 is_stmt 0 view .LVU1494
	leaq	modebuf.7960(%rip), %rdx
	movq	%r12, %rsi
	movq	%rbp, %rdi
.LBB539:
.LBB537:
	.loc 1 635 15 view .LVU1495
	movb	$0, 10+modebuf.7960(%rip)
	.loc 1 636 3 is_stmt 1 view .LVU1496
.LVL481:
	.loc 1 636 3 is_stmt 0 view .LVU1497
.LBE537:
.LBE539:
	.loc 1 1505 7 view .LVU1498
	call	out_string
.LVL482:
	.loc 1 1506 7 is_stmt 1 view .LVU1499
	jmp	.L541
.LVL483:
	.p2align 4,,10
	.p2align 3
.L549:
.LBB540:
.LBB498:
	.loc 1 1012 3 view .LVU1500
	.loc 1 1012 13 is_stmt 0 view .LVU1501
	movq	%r14, %rsi
	movq	%r13, %rdi
	call	find_mount_point@PLT
.LVL484:
	movq	%rax, %rbx
.LVL485:
	.loc 1 1012 6 view .LVU1502
	testq	%rax, %rax
	je	.L573
	.loc 1 1016 7 is_stmt 1 view .LVU1503
	.loc 1 1016 12 is_stmt 0 view .LVU1504
	movq	%rax, %rdi
	call	find_bind_mount
.LVL486:
	.loc 1 1016 12 view .LVU1505
	movq	%rax, %rdx
.LVL487:
	.loc 1 1017 7 is_stmt 1 view .LVU1506
.LDL1:
	.loc 1 1022 3 view .LVU1507
	testq	%rax, %rax
	je	.L564
.L574:
	.loc 1 1017 12 is_stmt 0 view .LVU1508
	xorl	%r15d, %r15d
	jmp	.L547
.LVL488:
	.p2align 4,,10
	.p2align 3
.L553:
	.loc 1 1017 12 view .LVU1509
.LBE498:
.LBE540:
.LBB541:
.LBB532:
	.loc 1 837 10 view .LVU1510
	call	rpl_lgetfilecon@PLT
.LVL489:
	.loc 1 837 45 view .LVU1511
	shrl	$31, %eax
	movl	%eax, %r15d
	jmp	.L554
.LVL490:
.L582:
	.loc 1 837 45 view .LVU1512
.LBE532:
.LBE541:
.LBB542:
.LBB499:
.LBB497:
	.loc 1 995 11 is_stmt 1 view .LVU1513
	movq	%r13, %rsi
	movl	$4, %edi
	call	quotearg_style@PLT
.LVL491:
	.loc 1 995 28 is_stmt 0 view .LVU1514
	movl	$5, %edx
	leaq	.LC156(%rip), %rsi
	xorl	%edi, %edi
	.loc 1 995 11 view .LVU1515
	movq	%rax, %r14
.LVL492:
	.loc 1 995 28 view .LVU1516
	call	dcgettext@PLT
.LVL493:
	movq	%rax, %r13
.LVL494:
	.loc 1 995 21 view .LVU1517
	call	__errno_location@PLT
.LVL495:
	.loc 1 995 11 view .LVU1518
	movq	%r14, %rcx
	movq	%r13, %rdx
	xorl	%edi, %edi
	movl	(%rax), %esi
	xorl	%eax, %eax
	call	error@PLT
.LVL496:
.L573:
	.loc 1 996 11 is_stmt 1 view .LVU1519
	.loc 1 996 11 is_stmt 0 view .LVU1520
.LBE497:
	.loc 1 1022 3 is_stmt 1 view .LVU1521
	.loc 1 986 8 is_stmt 0 view .LVU1522
	movl	$1, %r15d
	.loc 1 1022 54 view .LVU1523
	leaq	.LC152(%rip), %rdx
	jmp	.L547
.LVL497:
	.p2align 4,,10
	.p2align 3
.L555:
	.loc 1 1022 54 view .LVU1524
.LBE499:
.LBE542:
.LBB543:
.LBB533:
	.loc 1 839 7 is_stmt 1 view .LVU1525
	movq	%r13, %rsi
	movl	$4, %edi
	call	quotearg_style@PLT
.LVL498:
	.loc 1 839 24 is_stmt 0 view .LVU1526
	movl	$5, %edx
	leaq	.LC157(%rip), %rsi
	xorl	%edi, %edi
	.loc 1 839 7 view .LVU1527
	movq	%rax, %r14
.LVL499:
	.loc 1 839 24 view .LVU1528
	call	dcgettext@PLT
.LVL500:
	movq	%rax, %r13
.LVL501:
	.loc 1 839 17 view .LVU1529
	call	__errno_location@PLT
.LVL502:
	.loc 1 839 7 view .LVU1530
	movq	%r13, %rdx
	movq	%r14, %rcx
	xorl	%edi, %edi
	movl	(%rax), %esi
	xorl	%eax, %eax
	call	error@PLT
.LVL503:
	.loc 1 841 7 is_stmt 1 view .LVU1531
.LBB529:
.LBB523:
	.loc 2 90 10 is_stmt 0 view .LVU1532
	movl	$115, %eax
.LBE523:
.LBE529:
	.loc 1 841 16 view .LVU1533
	movq	$0, 16(%rsp)
	.loc 1 842 7 is_stmt 1 view .LVU1534
.LVL504:
	.loc 1 844 3 view .LVU1535
.LBB530:
	.loc 2 88 1 view .LVU1536
.LBB524:
	.loc 2 90 3 view .LVU1537
.LBE524:
.LBE530:
	.loc 1 845 3 is_stmt 0 view .LVU1538
	leaq	.LC152(%rip), %rdx
.LBB531:
.LBB525:
	.loc 2 90 10 view .LVU1539
	movw	%ax, 0(%rbp,%r12)
.LVL505:
	.loc 2 90 10 view .LVU1540
.LBE525:
.LBE531:
	.loc 1 845 3 is_stmt 1 view .LVU1541
	jmp	.L556
.LVL506:
.L580:
	.loc 1 845 3 is_stmt 0 view .LVU1542
.LBE533:
.LBE543:
.LBB544:
.LBB488:
	.loc 4 93 10 view .LVU1543
	movl	$63, %esi
.LVL507:
	.loc 4 93 10 view .LVU1544
.LBE488:
.LBE544:
	.loc 1 1469 8 view .LVU1545
	xorl	%r15d, %r15d
.LBB545:
.LBB489:
	.loc 4 93 10 view .LVU1546
	call	__overflow@PLT
.LVL508:
	.loc 4 93 10 view .LVU1547
	jmp	.L541
.LVL509:
.L583:
	.loc 4 93 10 view .LVU1548
.LBE489:
.LBE545:
.LBB546:
	.loc 1 1483 15 is_stmt 1 view .LVU1549
	movq	%r13, %rsi
	movl	$4, %edi
	.loc 1 1485 22 is_stmt 0 view .LVU1550
	movl	$1, %r15d
	.loc 1 1483 15 view .LVU1551
	call	quotearg_style@PLT
.LVL510:
	.loc 1 1483 32 view .LVU1552
	movl	$5, %edx
	leaq	.LC153(%rip), %rsi
	xorl	%edi, %edi
	.loc 1 1483 15 view .LVU1553
	movq	%rax, %r13
.LVL511:
	.loc 1 1483 32 view .LVU1554
	call	dcgettext@PLT
.LVL512:
	movq	%rax, %r12
.LVL513:
	.loc 1 1483 25 view .LVU1555
	call	__errno_location@PLT
.LVL514:
	.loc 1 1483 15 view .LVU1556
	movq	%r13, %rcx
	movq	%r12, %rdx
	xorl	%edi, %edi
	movl	(%rax), %esi
	xorl	%eax, %eax
	call	error@PLT
.LVL515:
	.loc 1 1485 15 is_stmt 1 view .LVU1557
	.loc 1 1485 22 is_stmt 0 view .LVU1558
	jmp	.L541
.LVL516:
.L581:
	.loc 1 1485 22 view .LVU1559
.LBE546:
	.loc 1 1598 1 view .LVU1560
	call	__stack_chk_fail@PLT
.LVL517:
.L564:
.LBB547:
.LBB500:
	.loc 1 1598 1 view .LVU1561
	movq	%rbx, %rdx
	jmp	.L574
.LBE500:
.LBE547:
	.cfi_endproc
.LFE170:
	.size	print_stat, .-print_stat
	.section	.rodata.str1.8
	.align 8
.LC158:
	.string	"  File: \"%n\"\n    ID: %-8i Namelen: %-7l Type: %T\nBlock size: %-10s Fundamental block size: %S\nBlocks: Total: %-10b Free: %-10f Available: %a\nInodes: Total: %-10c Free: %d\n"
	.align 8
.LC159:
	.string	"  File: %N\n  Size: %-10s\tBlocks: %-10b IO Block: %-6o %F\n"
	.align 8
.LC160:
	.string	"Device: %Dh/%dd\tInode: %-10i  Links: %-5h Device type: %t,%T\n"
	.section	.rodata.str1.1
.LC161:
	.string	"%s%s"
	.section	.rodata.str1.8
	.align 8
.LC162:
	.string	"Device: %Dh/%dd\tInode: %-10i  Links: %h\n"
	.align 8
.LC163:
	.string	"Access: (%04a/%10.10A)  Uid: (%5u/%8U)   Gid: (%5g/%8G)\n"
	.section	.rodata.str1.1
.LC164:
	.string	"Context: %C\n"
	.section	.rodata.str1.8
	.align 8
.LC165:
	.string	"Access: %x\nModify: %y\nChange: %z\n Birth: %w\n"
	.text
	.p2align 4
	.type	default_format, @function
default_format:
.LVL518:
.LFB171:
	.loc 1 1604 1 is_stmt 1 view -0
	.cfi_startproc
	.loc 1 1605 3 view .LVU1563
	.loc 1 1606 3 view .LVU1564
	.loc 1 1604 1 is_stmt 0 view .LVU1565
	pushq	%r12
	.cfi_def_cfa_offset 16
	.cfi_offset 12, -16
	pushq	%rbp
	.cfi_def_cfa_offset 24
	.cfi_offset 6, -24
	pushq	%rbx
	.cfi_def_cfa_offset 32
	.cfi_offset 3, -32
	.loc 1 1606 6 view .LVU1566
	testb	%dil, %dil
	je	.L585
	.loc 1 1608 7 is_stmt 1 view .LVU1567
	.loc 1 1608 10 is_stmt 0 view .LVU1568
	testb	%sil, %sil
	je	.L586
	.loc 1 1609 9 is_stmt 1 view .LVU1569
	.loc 1 1688 1 is_stmt 0 view .LVU1570
	popq	%rbx
	.cfi_remember_state
	.cfi_def_cfa_offset 24
	.loc 1 1609 18 view .LVU1571
	leaq	fmt_terse_fs(%rip), %rdi
.LVL519:
	.loc 1 1688 1 view .LVU1572
	popq	%rbp
	.cfi_def_cfa_offset 16
	popq	%r12
	.cfi_def_cfa_offset 8
	.loc 1 1609 18 view .LVU1573
	jmp	xstrdup@PLT
.LVL520:
.L585:
	.cfi_restore_state
	.loc 1 1623 7 is_stmt 1 view .LVU1574
	.loc 1 1623 10 is_stmt 0 view .LVU1575
	testb	%sil, %sil
	je	.L587
	.loc 1 1625 11 is_stmt 1 view .LVU1576
	.loc 1 1625 19 is_stmt 0 view .LVU1577
	call	is_selinux_enabled@PLT
.LVL521:
	.loc 1 1625 14 view .LVU1578
	testl	%eax, %eax
	jle	.L588
	.loc 1 1626 13 is_stmt 1 view .LVU1579
	.loc 1 1688 1 is_stmt 0 view .LVU1580
	popq	%rbx
	.cfi_remember_state
	.cfi_def_cfa_offset 24
	.loc 1 1626 22 view .LVU1581
	leaq	fmt_terse_selinux(%rip), %rdi
	.loc 1 1688 1 view .LVU1582
	popq	%rbp
	.cfi_def_cfa_offset 16
	popq	%r12
	.cfi_def_cfa_offset 8
	.loc 1 1626 22 view .LVU1583
	jmp	xstrdup@PLT
.LVL522:
.L587:
	.cfi_restore_state
.LBB551:
.LBB552:
.LBB553:
	.loc 1 1635 29 view .LVU1584
	leaq	.LC159(%rip), %rsi
.LVL523:
	.loc 1 1635 29 view .LVU1585
	xorl	%edi, %edi
.LVL524:
	.loc 1 1635 29 view .LVU1586
	movl	%edx, %ebx
.LVL525:
	.loc 1 1635 29 view .LVU1587
.LBE553:
.LBE552:
.LBI551:
	.loc 1 1603 1 is_stmt 1 view .LVU1588
.LBB556:
.LBB554:
	.loc 1 1632 11 view .LVU1589
	.loc 1 1635 11 view .LVU1590
	.loc 1 1635 29 is_stmt 0 view .LVU1591
	movl	$5, %edx
.LVL526:
	.loc 1 1635 29 view .LVU1592
	call	dcgettext@PLT
.LVL527:
	movq	%rax, %rdi
	.loc 1 1635 20 view .LVU1593
	call	xstrdup@PLT
.LVL528:
	.loc 1 1645 24 view .LVU1594
	movl	$5, %edx
	leaq	.LC160(%rip), %rsi
	.loc 1 1635 20 view .LVU1595
	movq	%rax, %rbp
.LVL529:
	.loc 1 1640 11 is_stmt 1 view .LVU1596
	.loc 1 1641 11 view .LVU1597
	.loc 1 1641 14 is_stmt 0 view .LVU1598
	testb	%bl, %bl
	jne	.L593
	.loc 1 1653 15 is_stmt 1 view .LVU1599
	.loc 1 1653 24 is_stmt 0 view .LVU1600
	leaq	.LC162(%rip), %rsi
.L593:
	xorl	%edi, %edi
	call	dcgettext@PLT
.LVL530:
	.loc 1 1653 24 view .LVU1601
	movq	%rbp, %rsi
	leaq	.LC161(%rip), %rdi
	movq	%rax, %rdx
	xorl	%eax, %eax
	call	xasprintf@PLT
.LVL531:
	.loc 1 1657 11 view .LVU1602
	movq	%rbp, %rdi
	.loc 1 1653 24 view .LVU1603
	movq	%rax, %r12
.LVL532:
	.loc 1 1657 11 is_stmt 1 view .LVU1604
	call	free@PLT
.LVL533:
	.loc 1 1659 11 view .LVU1605
	.loc 1 1662 11 view .LVU1606
	.loc 1 1662 20 is_stmt 0 view .LVU1607
	xorl	%edi, %edi
	movl	$5, %edx
	leaq	.LC163(%rip), %rsi
	call	dcgettext@PLT
.LVL534:
	movq	%r12, %rsi
	leaq	.LC161(%rip), %rdi
	movq	%rax, %rdx
	xorl	%eax, %eax
	call	xasprintf@PLT
.LVL535:
	.loc 1 1665 11 view .LVU1608
	movq	%r12, %rdi
	.loc 1 1662 20 view .LVU1609
	movq	%rax, %rbp
.LVL536:
	.loc 1 1665 11 is_stmt 1 view .LVU1610
	call	free@PLT
.LVL537:
	.loc 1 1667 11 view .LVU1611
	.loc 1 1667 19 is_stmt 0 view .LVU1612
	call	is_selinux_enabled@PLT
.LVL538:
	.loc 1 1667 14 view .LVU1613
	testl	%eax, %eax
	jg	.L594
.LVL539:
.L591:
	.loc 1 1676 11 is_stmt 1 view .LVU1614
	.loc 1 1679 11 view .LVU1615
	.loc 1 1679 20 is_stmt 0 view .LVU1616
	movl	$5, %edx
	leaq	.LC165(%rip), %rsi
	xorl	%edi, %edi
	call	dcgettext@PLT
.LVL540:
	movq	%rbp, %rsi
	leaq	.LC161(%rip), %rdi
	movq	%rax, %rdx
	xorl	%eax, %eax
	call	xasprintf@PLT
.LVL541:
	.loc 1 1684 11 view .LVU1617
	movq	%rbp, %rdi
	.loc 1 1679 20 view .LVU1618
	movq	%rax, %r12
.LVL542:
	.loc 1 1684 11 is_stmt 1 view .LVU1619
	call	free@PLT
.LVL543:
	.loc 1 1684 11 is_stmt 0 view .LVU1620
.LBE554:
	.loc 1 1687 3 is_stmt 1 view .LVU1621
	.loc 1 1687 3 is_stmt 0 view .LVU1622
.LBE556:
.LBE551:
	.loc 1 1687 3 is_stmt 1 view .LVU1623
	.loc 1 1688 1 is_stmt 0 view .LVU1624
	movq	%r12, %rax
	popq	%rbx
	.cfi_remember_state
	.cfi_def_cfa_offset 24
	popq	%rbp
	.cfi_def_cfa_offset 16
	popq	%r12
	.cfi_def_cfa_offset 8
.LVL544:
	.loc 1 1688 1 view .LVU1625
	ret
.LVL545:
.L586:
	.cfi_restore_state
	.loc 1 1614 11 is_stmt 1 view .LVU1626
	.loc 1 1614 29 is_stmt 0 view .LVU1627
	xorl	%edi, %edi
.LVL546:
	.loc 1 1614 29 view .LVU1628
	movl	$5, %edx
.LVL547:
	.loc 1 1614 29 view .LVU1629
	leaq	.LC158(%rip), %rsi
.LVL548:
	.loc 1 1614 29 view .LVU1630
	call	dcgettext@PLT
.LVL549:
	.loc 1 1688 1 view .LVU1631
	popq	%rbx
	.cfi_remember_state
	.cfi_def_cfa_offset 24
	popq	%rbp
	.cfi_def_cfa_offset 16
	.loc 1 1614 29 view .LVU1632
	movq	%rax, %rdi
	.loc 1 1688 1 view .LVU1633
	popq	%r12
	.cfi_def_cfa_offset 8
	.loc 1 1614 20 view .LVU1634
	jmp	xstrdup@PLT
.LVL550:
.L594:
	.cfi_restore_state
.LBB558:
.LBB557:
.LBB555:
	.loc 1 1669 15 is_stmt 1 view .LVU1635
	.loc 1 1672 15 view .LVU1636
	.loc 1 1672 24 is_stmt 0 view .LVU1637
	movl	$5, %edx
	leaq	.LC164(%rip), %rsi
	xorl	%edi, %edi
	call	dcgettext@PLT
.LVL551:
	movq	%rbp, %rsi
	leaq	.LC161(%rip), %rdi
	movq	%rax, %rdx
	xorl	%eax, %eax
	call	xasprintf@PLT
.LVL552:
	.loc 1 1673 15 view .LVU1638
	movq	%rbp, %rdi
	.loc 1 1672 24 view .LVU1639
	movq	%rax, %rbx
.LVL553:
	.loc 1 1673 15 is_stmt 1 view .LVU1640
	call	free@PLT
.LVL554:
	.loc 1 1672 24 is_stmt 0 view .LVU1641
	movq	%rbx, %rbp
.LVL555:
	.loc 1 1672 24 view .LVU1642
	jmp	.L591
.LVL556:
.L588:
	.loc 1 1672 24 view .LVU1643
.LBE555:
.LBE557:
.LBE558:
	.loc 1 1628 13 is_stmt 1 view .LVU1644
	.loc 1 1688 1 is_stmt 0 view .LVU1645
	popq	%rbx
	.cfi_def_cfa_offset 24
	.loc 1 1628 22 view .LVU1646
	leaq	fmt_terse_regular(%rip), %rdi
	.loc 1 1688 1 view .LVU1647
	popq	%rbp
	.cfi_def_cfa_offset 16
	popq	%r12
	.cfi_def_cfa_offset 8
	.loc 1 1628 22 view .LVU1648
	jmp	xstrdup@PLT
.LVL557:
	.cfi_endproc
.LFE171:
	.size	default_format, .-default_format
	.section	.rodata.str1.1
.LC166:
	.string	"stat"
.LC167:
	.string	" invocation"
	.section	.rodata.str1.8
	.align 8
.LC168:
	.string	"Try '%s --help' for more information.\n"
	.align 8
.LC169:
	.string	"Usage: %s [OPTION]... FILE...\n"
	.align 8
.LC170:
	.string	"Display file or file system status.\n"
	.align 8
.LC171:
	.string	"\nMandatory arguments to long options are mandatory for short options too.\n"
	.align 8
.LC172:
	.string	"  -L, --dereference     follow links\n  -f, --file-system     display file system status instead of file status\n"
	.align 8
.LC173:
	.string	"      --cached=MODE     specify how to use cached attributes;\n                          useful on remote file systems. See MODE below\n"
	.align 8
.LC174:
	.ascii	"  -c  --format=FORMAT   use the specified FORMAT instead of "
	.ascii	"the default;\n                          output a newline aft"
	.ascii	"er each use of FORMAT\n      --printf=FORMA"
	.string	"T   like --format, but interpret backslash escapes,\n                          and do not output a mandatory trailing newline;\n                          if you want a newline, include \\n in FORMAT\n  -t, --terse           print the information in terse form\n"
	.align 8
.LC175:
	.string	"      --help     display this help and exit\n"
	.align 8
.LC176:
	.string	"      --version  output version information and exit\n"
	.align 8
.LC177:
	.string	"\nThe MODE argument of --cached can be: always, never, or default.\n'always' will use cached attributes if available, while\n'never' will try to synchronize with the latest attributes, and\n'default' will leave it up to the underlying file system.\n"
	.align 8
.LC178:
	.ascii	"\nThe valid format sequences for files (without --file-syste"
	.ascii	"m):\n\n  %a"
	.string	"   permission bits in octal (note '#' and '0' printf flags)\n  %A   permission bits and file type in human readable form\n  %b   number of blocks allocated (see %B)\n  %B   the size in bytes of each block reported by %b\n  %C   SELinux security context string\n"
	.align 8
.LC179:
	.string	"  %d   device number in decimal\n  %D   device number in hex\n  %f   raw mode in hex\n  %F   file type\n  %g   group ID of owner\n  %G   group name of owner\n"
	.align 8
.LC180:
	.ascii	"  %h   number of hard links\n  %i   inode number\n  %m   mou"
	.ascii	"nt point\n  %n   file name\n  %N   quoted fi"
	.string	"le name with dereference if symbolic link\n  %o   optimal I/O transfer size hint\n  %s   total size, in bytes\n  %t   major device type in hex, for character/block device special files\n  %T   minor device type in hex, for character/block device special files\n"
	.align 8
.LC181:
	.ascii	"  %u   user ID of owner\n  %U   user name of owner\n  %w   t"
	.ascii	"ime of file birth, human-readable; - if unknown\n  %W   time"
	.ascii	" of file birth, seconds since Epoch; 0 if unknown\n  %x   ti"
	.ascii	"me of last access, human-readable\n  %X   time"
	.string	" of last access, seconds since Epoch\n  %y   time of last data modification, human-readable\n  %Y   time of last data modification, seconds since Epoch\n  %z   time of last status change, human-readable\n  %Z   time of last status change, seconds since Epoch\n\n"
	.align 8
.LC182:
	.string	"Valid format sequences for file systems:\n\n  %a   free blocks available to non-superuser\n  %b   total data blocks in file system\n  %c   total file nodes in file system\n  %d   free file nodes in file system\n  %f   free blocks in file system\n"
	.align 8
.LC183:
	.string	"  %i   file system ID in hex\n  %l   maximum length of filenames\n  %n   file name\n  %s   block size (for faster transfers)\n  %S   fundamental block size (for block counts)\n  %t   file system type in hex\n  %T   file system type in human readable form\n"
	.align 8
.LC184:
	.string	"\n--terse is equivalent to the following FORMAT:\n    %s"
	.align 8
.LC185:
	.string	"--terse --file-system is equivalent to the following FORMAT:\n    %s"
	.align 8
.LC186:
	.string	"\nNOTE: your shell may have its own version of %s, which usually supersedes\nthe version described here.  Please refer to your shell's documentation\nfor details about the options it supports.\n"
	.section	.rodata.str1.1
.LC187:
	.string	"["
.LC188:
	.string	"test invocation"
.LC189:
	.string	"coreutils"
.LC190:
	.string	"Multi-call invocation"
.LC191:
	.string	"sha224sum"
.LC192:
	.string	"sha2 utilities"
.LC193:
	.string	"sha256sum"
.LC194:
	.string	"sha384sum"
.LC195:
	.string	"sha512sum"
.LC196:
	.string	"\n%s online help: <%s>\n"
	.section	.rodata.str1.8
	.align 8
.LC197:
	.string	"https://www.gnu.org/software/coreutils/"
	.section	.rodata.str1.1
.LC198:
	.string	"GNU coreutils"
.LC199:
	.string	"en_"
	.section	.rodata.str1.8
	.align 8
.LC200:
	.string	"Report any translation bugs to <https://translationproject.org/team/>\n"
	.section	.rodata.str1.1
.LC201:
	.string	"Full documentation <%s%s>\n"
	.section	.rodata.str1.8
	.align 8
.LC202:
	.string	"or available locally via: info '(coreutils) %s%s'\n"
	.text
	.p2align 4
	.globl	usage
	.type	usage, @function
usage:
.LVL558:
.LFB172:
	.loc 1 1692 1 is_stmt 1 view -0
	.cfi_startproc
	.loc 1 1692 1 is_stmt 0 view .LVU1650
	endbr64
	pushq	%r13
	.cfi_def_cfa_offset 16
	.cfi_offset 13, -16
	.loc 1 1694 5 view .LVU1651
	movl	$5, %edx
	.loc 1 1692 1 view .LVU1652
	pushq	%r12
	.cfi_def_cfa_offset 24
	.cfi_offset 12, -24
	pushq	%rbp
	.cfi_def_cfa_offset 32
	.cfi_offset 6, -32
	movl	%edi, %ebp
	pushq	%rbx
	.cfi_def_cfa_offset 40
	.cfi_offset 3, -40
	subq	$136, %rsp
	.cfi_def_cfa_offset 176
	movq	program_name(%rip), %r12
	.loc 1 1692 1 view .LVU1653
	movq	%fs:40, %rax
	movq	%rax, 120(%rsp)
	xorl	%eax, %eax
	.loc 1 1693 3 is_stmt 1 view .LVU1654
	.loc 1 1693 6 is_stmt 0 view .LVU1655
	testl	%edi, %edi
	je	.L596
	.loc 1 1694 5 is_stmt 1 view .LVU1656
	.loc 1 1694 5 view .LVU1657
	leaq	.LC168(%rip), %rsi
	xorl	%edi, %edi
.LVL559:
	.loc 1 1694 5 is_stmt 0 view .LVU1658
	call	dcgettext@PLT
.LVL560:
.LBB579:
.LBB580:
	.loc 3 100 10 view .LVU1659
	movq	stderr(%rip), %rdi
	movq	%r12, %rcx
	movl	$1, %esi
.LBE580:
.LBE579:
	.loc 1 1694 5 view .LVU1660
	movq	%rax, %rdx
.LVL561:
.LBB582:
.LBI579:
	.loc 3 98 1 is_stmt 1 view .LVU1661
.LBB581:
	.loc 3 100 3 view .LVU1662
	.loc 3 100 10 is_stmt 0 view .LVU1663
	xorl	%eax, %eax
.LVL562:
	.loc 3 100 10 view .LVU1664
	call	__fprintf_chk@PLT
.LVL563:
.L597:
	.loc 3 100 10 view .LVU1665
.LBE581:
.LBE582:
	.loc 1 1810 3 is_stmt 1 view .LVU1666
	movl	%ebp, %edi
	call	exit@PLT
.LVL564:
.L596:
	.loc 1 1697 7 view .LVU1667
	.loc 1 1697 15 is_stmt 0 view .LVU1668
	xorl	%edi, %edi
.LVL565:
	.loc 1 1697 15 view .LVU1669
	leaq	.LC169(%rip), %rsi
.LBB583:
.LBB584:
	.loc 5 636 67 view .LVU1670
	leaq	.LC193(%rip), %rbx
.LBE584:
.LBE583:
	.loc 1 1697 15 view .LVU1671
	call	dcgettext@PLT
.LVL566:
.LBB610:
.LBB611:
	.loc 3 107 10 view .LVU1672
	movq	%r12, %rdx
	movl	$1, %edi
.LBE611:
.LBE610:
	.loc 1 1697 15 view .LVU1673
	movq	%rax, %rsi
.LVL567:
.LBB613:
.LBI610:
	.loc 3 105 1 is_stmt 1 view .LVU1674
.LBB612:
	.loc 3 107 3 view .LVU1675
	.loc 3 107 10 is_stmt 0 view .LVU1676
	xorl	%eax, %eax
.LVL568:
	.loc 3 107 10 view .LVU1677
	call	__printf_chk@PLT
.LVL569:
	.loc 3 107 10 view .LVU1678
.LBE612:
.LBE613:
	.loc 1 1698 7 is_stmt 1 view .LVU1679
	movq	stdout(%rip), %r12
	xorl	%edi, %edi
	movl	$5, %edx
	leaq	.LC170(%rip), %rsi
	call	dcgettext@PLT
.LVL570:
	movq	%r12, %rsi
	movq	%rax, %rdi
	call	fputs_unlocked@PLT
.LVL571:
	.loc 1 1702 7 view .LVU1680
.LBB614:
.LBI614:
	.loc 5 588 1 view .LVU1681
.LBB615:
	.loc 5 590 3 view .LVU1682
	movq	stdout(%rip), %r12
	xorl	%edi, %edi
	movl	$5, %edx
	leaq	.LC171(%rip), %rsi
	call	dcgettext@PLT
.LVL572:
	movq	%r12, %rsi
	movq	%rax, %rdi
	call	fputs_unlocked@PLT
.LVL573:
.LBE615:
.LBE614:
	.loc 1 1704 7 view .LVU1683
	movq	stdout(%rip), %r12
	xorl	%edi, %edi
	movl	$5, %edx
	leaq	.LC172(%rip), %rsi
	call	dcgettext@PLT
.LVL574:
	movq	%r12, %rsi
	movq	%rax, %rdi
	call	fputs_unlocked@PLT
.LVL575:
	.loc 1 1708 7 view .LVU1684
	movq	stdout(%rip), %r12
	xorl	%edi, %edi
	movl	$5, %edx
	leaq	.LC173(%rip), %rsi
	call	dcgettext@PLT
.LVL576:
	movq	%r12, %rsi
	movq	%rax, %rdi
	call	fputs_unlocked@PLT
.LVL577:
	.loc 1 1712 7 view .LVU1685
	movq	stdout(%rip), %r12
	xorl	%edi, %edi
	movl	$5, %edx
	leaq	.LC174(%rip), %rsi
	call	dcgettext@PLT
.LVL578:
	movq	%r12, %rsi
	movq	%rax, %rdi
	call	fputs_unlocked@PLT
.LVL579:
	.loc 1 1720 7 view .LVU1686
	movq	stdout(%rip), %r12
	xorl	%edi, %edi
	movl	$5, %edx
	leaq	.LC175(%rip), %rsi
	call	dcgettext@PLT
.LVL580:
	movq	%r12, %rsi
	movq	%rax, %rdi
	call	fputs_unlocked@PLT
.LVL581:
	.loc 1 1721 7 view .LVU1687
	movq	stdout(%rip), %r12
	xorl	%edi, %edi
	movl	$5, %edx
	leaq	.LC176(%rip), %rsi
	call	dcgettext@PLT
.LVL582:
	movq	%r12, %rsi
	movq	%rax, %rdi
	call	fputs_unlocked@PLT
.LVL583:
	.loc 1 1723 7 view .LVU1688
	movq	stdout(%rip), %r12
	xorl	%edi, %edi
	movl	$5, %edx
	leaq	.LC177(%rip), %rsi
	call	dcgettext@PLT
.LVL584:
	movq	%r12, %rsi
	movq	%rax, %rdi
	call	fputs_unlocked@PLT
.LVL585:
	.loc 1 1730 7 view .LVU1689
	movq	stdout(%rip), %r12
	xorl	%edi, %edi
	movl	$5, %edx
	leaq	.LC178(%rip), %rsi
	call	dcgettext@PLT
.LVL586:
	movq	%r12, %rsi
	movq	%rax, %rdi
	call	fputs_unlocked@PLT
.LVL587:
	.loc 1 1739 7 view .LVU1690
	movq	stdout(%rip), %r12
	movl	$5, %edx
	xorl	%edi, %edi
	leaq	.LC179(%rip), %rsi
	call	dcgettext@PLT
.LVL588:
	movq	%r12, %rsi
	movq	%rax, %rdi
	call	fputs_unlocked@PLT
.LVL589:
	.loc 1 1747 7 view .LVU1691
	movq	stdout(%rip), %r12
	movl	$5, %edx
	xorl	%edi, %edi
	leaq	.LC180(%rip), %rsi
	call	dcgettext@PLT
.LVL590:
	movq	%r12, %rsi
	movq	%rax, %rdi
	call	fputs_unlocked@PLT
.LVL591:
	.loc 1 1758 7 view .LVU1692
	movq	stdout(%rip), %r12
	movl	$5, %edx
	xorl	%edi, %edi
	leaq	.LC181(%rip), %rsi
	call	dcgettext@PLT
.LVL592:
	movq	%r12, %rsi
	movq	%rax, %rdi
	call	fputs_unlocked@PLT
.LVL593:
	.loc 1 1772 7 view .LVU1693
	movq	stdout(%rip), %r12
	movl	$5, %edx
	xorl	%edi, %edi
	leaq	.LC182(%rip), %rsi
	call	dcgettext@PLT
.LVL594:
	movq	%r12, %rsi
	movq	%rax, %rdi
	call	fputs_unlocked@PLT
.LVL595:
	.loc 1 1781 7 view .LVU1694
	movl	$5, %edx
	movq	stdout(%rip), %r12
	xorl	%edi, %edi
	leaq	.LC183(%rip), %rsi
	call	dcgettext@PLT
.LVL596:
	movq	%r12, %rsi
	movq	%rax, %rdi
	call	fputs_unlocked@PLT
.LVL597:
	.loc 1 1791 7 view .LVU1695
	.loc 1 1791 15 is_stmt 0 view .LVU1696
	movl	$5, %edx
	leaq	.LC184(%rip), %rsi
	xorl	%edi, %edi
	call	dcgettext@PLT
.LVL598:
.LBB616:
.LBB617:
	.loc 3 107 10 view .LVU1697
	leaq	fmt_terse_selinux(%rip), %rdx
	movl	$1, %edi
.LBE617:
.LBE616:
	.loc 1 1791 15 view .LVU1698
	movq	%rax, %rsi
.LVL599:
.LBB619:
.LBI616:
	.loc 3 105 1 is_stmt 1 view .LVU1699
.LBB618:
	.loc 3 107 3 view .LVU1700
	.loc 3 107 10 is_stmt 0 view .LVU1701
	xorl	%eax, %eax
.LVL600:
	.loc 3 107 10 view .LVU1702
	call	__printf_chk@PLT
.LVL601:
	.loc 3 107 10 view .LVU1703
.LBE618:
.LBE619:
	.loc 1 1802 9 is_stmt 1 view .LVU1704
	.loc 1 1802 17 is_stmt 0 view .LVU1705
	movl	$5, %edx
	leaq	.LC185(%rip), %rsi
	xorl	%edi, %edi
	call	dcgettext@PLT
.LVL602:
.LBB620:
.LBB621:
	.loc 3 107 10 view .LVU1706
	leaq	fmt_terse_fs(%rip), %rdx
	movl	$1, %edi
.LBE621:
.LBE620:
	.loc 1 1802 17 view .LVU1707
	movq	%rax, %rsi
.LVL603:
.LBB623:
.LBI620:
	.loc 3 105 1 is_stmt 1 view .LVU1708
.LBB622:
	.loc 3 107 3 view .LVU1709
	.loc 3 107 10 is_stmt 0 view .LVU1710
	xorl	%eax, %eax
.LVL604:
	.loc 3 107 10 view .LVU1711
	call	__printf_chk@PLT
.LVL605:
	.loc 3 107 10 view .LVU1712
.LBE622:
.LBE623:
	.loc 1 1807 7 is_stmt 1 view .LVU1713
	.loc 1 1807 15 is_stmt 0 view .LVU1714
	movl	$5, %edx
	leaq	.LC186(%rip), %rsi
	xorl	%edi, %edi
	call	dcgettext@PLT
.LVL606:
.LBB624:
.LBB625:
	.loc 3 107 10 view .LVU1715
	leaq	.LC166(%rip), %rdx
	movl	$1, %edi
.LBE625:
.LBE624:
	.loc 1 1807 15 view .LVU1716
	movq	%rax, %rsi
.LVL607:
.LBB627:
.LBI624:
	.loc 3 105 1 is_stmt 1 view .LVU1717
.LBB626:
	.loc 3 107 3 view .LVU1718
	.loc 3 107 10 is_stmt 0 view .LVU1719
	xorl	%eax, %eax
.LVL608:
	.loc 3 107 10 view .LVU1720
	call	__printf_chk@PLT
.LVL609:
	.loc 3 107 10 view .LVU1721
.LBE626:
.LBE627:
	.loc 1 1808 7 is_stmt 1 view .LVU1722
.LBB628:
.LBI583:
	.loc 5 634 1 view .LVU1723
.LBB609:
	.loc 5 636 3 view .LVU1724
	.loc 5 636 67 is_stmt 0 view .LVU1725
	leaq	.LC187(%rip), %rax
	movq	%rbx, 48(%rsp)
	leaq	.LC194(%rip), %rbx
	movq	%rax, (%rsp)
	leaq	.LC188(%rip), %rax
	movq	%rax, 8(%rsp)
	leaq	.LC189(%rip), %rax
	movq	%rax, 16(%rsp)
	leaq	.LC190(%rip), %rax
	movq	%rax, 24(%rsp)
	leaq	.LC191(%rip), %rax
	movq	$0, 96(%rsp)
	movq	$0, 104(%rsp)
	.loc 5 646 3 is_stmt 1 view .LVU1726
.LVL610:
	.loc 5 647 3 view .LVU1727
	.loc 5 649 3 view .LVU1728
	.loc 5 649 9 view .LVU1729
	.loc 5 636 67 is_stmt 0 view .LVU1730
	movq	%rax, 32(%rsp)
	leaq	.LC192(%rip), %rax
	movq	%rbx, 64(%rsp)
	leaq	.LC195(%rip), %rbx
	movq	%rax, 40(%rsp)
	movq	%rax, 56(%rsp)
	movq	%rax, 72(%rsp)
	movq	%rbx, 80(%rsp)
	leaq	.LC166(%rip), %rbx
	movq	%rax, 88(%rsp)
	.loc 5 647 25 view .LVU1731
	movq	%rsp, %rax
.LVL611:
	.p2align 4,,10
	.p2align 3
.L599:
	.loc 5 650 5 is_stmt 1 view .LVU1732
	.loc 5 649 18 is_stmt 0 view .LVU1733
	movq	16(%rax), %rdi
	.loc 5 650 13 view .LVU1734
	addq	$16, %rax
.LVL612:
	.loc 5 649 9 is_stmt 1 view .LVU1735
	testq	%rdi, %rdi
	je	.L598
	.loc 5 649 33 is_stmt 0 view .LVU1736
	movl	$5, %ecx
	movq	%rbx, %rsi
	repz cmpsb
	seta	%dl
	sbbb	$0, %dl
	.loc 5 649 28 view .LVU1737
	testb	%dl, %dl
	jne	.L599
.L598:
	.loc 5 652 3 is_stmt 1 view .LVU1738
	.loc 5 652 15 is_stmt 0 view .LVU1739
	movq	8(%rax), %r12
	.loc 5 655 11 view .LVU1740
	movl	$5, %edx
	leaq	.LC196(%rip), %rsi
	xorl	%edi, %edi
	.loc 5 652 6 view .LVU1741
	testq	%r12, %r12
	je	.L600
	.loc 5 653 5 is_stmt 1 view .LVU1742
.LVL613:
	.loc 5 655 3 view .LVU1743
	.loc 5 655 11 is_stmt 0 view .LVU1744
	call	dcgettext@PLT
.LVL614:
.LBB585:
.LBB586:
	.loc 3 107 10 view .LVU1745
	leaq	.LC197(%rip), %rcx
	movl	$1, %edi
	leaq	.LC198(%rip), %rdx
.LBE586:
.LBE585:
	.loc 5 655 11 view .LVU1746
	movq	%rax, %rsi
.LVL615:
.LBB590:
.LBI585:
	.loc 3 105 1 is_stmt 1 view .LVU1747
.LBB587:
	.loc 3 107 3 view .LVU1748
	.loc 3 107 10 is_stmt 0 view .LVU1749
	xorl	%eax, %eax
.LVL616:
	.loc 3 107 10 view .LVU1750
	call	__printf_chk@PLT
.LVL617:
	.loc 3 107 10 view .LVU1751
.LBE587:
.LBE590:
	.loc 5 659 3 is_stmt 1 view .LVU1752
	.loc 5 659 29 is_stmt 0 view .LVU1753
	movl	$5, %edi
	xorl	%esi, %esi
	call	setlocale@PLT
.LVL618:
	movq	%rax, %rdi
.LVL619:
	.loc 5 660 3 is_stmt 1 view .LVU1754
	.loc 5 660 6 is_stmt 0 view .LVU1755
	testq	%rax, %rax
	je	.L601
	.loc 5 660 22 view .LVU1756
	movl	$3, %edx
	leaq	.LC199(%rip), %rsi
	call	strncmp@PLT
.LVL620:
	.loc 5 660 19 view .LVU1757
	testl	%eax, %eax
	jne	.L604
.LVL621:
.L601:
	.loc 5 669 3 is_stmt 1 view .LVU1758
	.loc 5 669 11 is_stmt 0 view .LVU1759
	xorl	%edi, %edi
	movl	$5, %edx
	leaq	.LC201(%rip), %rsi
	call	dcgettext@PLT
.LVL622:
.LBB591:
.LBB592:
	.loc 3 107 10 view .LVU1760
	leaq	.LC166(%rip), %rcx
	leaq	.LC197(%rip), %rdx
	movl	$1, %edi
.LBE592:
.LBE591:
	.loc 5 669 11 view .LVU1761
	movq	%rax, %rsi
.LVL623:
.LBB598:
.LBI591:
	.loc 3 105 1 is_stmt 1 view .LVU1762
.LBB593:
	.loc 3 107 3 view .LVU1763
	.loc 3 107 10 is_stmt 0 view .LVU1764
	xorl	%eax, %eax
.LVL624:
	.loc 3 107 10 view .LVU1765
.LBE593:
.LBE598:
	.loc 5 671 3 view .LVU1766
	leaq	.LC167(%rip), %r13
.LBB599:
.LBB594:
	.loc 3 107 10 view .LVU1767
	call	__printf_chk@PLT
.LVL625:
	.loc 3 107 10 view .LVU1768
.LBE594:
.LBE599:
	.loc 5 671 3 is_stmt 1 view .LVU1769
	cmpq	%rbx, %r12
	leaq	.LC139(%rip), %rcx
	cmovne	%rcx, %r13
.L602:
	.loc 5 671 11 is_stmt 0 view .LVU1770
	xorl	%edi, %edi
	leaq	.LC202(%rip), %rsi
	movl	$5, %edx
	call	dcgettext@PLT
.LVL626:
.LBB600:
.LBB601:
	.loc 3 107 10 view .LVU1771
	movq	%r13, %rcx
	movq	%r12, %rdx
	movl	$1, %edi
.LBE601:
.LBE600:
	.loc 5 671 11 view .LVU1772
	movq	%rax, %rsi
.LVL627:
.LBB603:
.LBI600:
	.loc 3 105 1 is_stmt 1 view .LVU1773
.LBB602:
	.loc 3 107 3 view .LVU1774
	.loc 3 107 10 is_stmt 0 view .LVU1775
	xorl	%eax, %eax
.LVL628:
	.loc 3 107 10 view .LVU1776
	call	__printf_chk@PLT
.LVL629:
	.loc 3 107 10 view .LVU1777
.LBE602:
.LBE603:
	.loc 5 673 1 view .LVU1778
	jmp	.L597
.LVL630:
.L600:
	.loc 5 655 3 is_stmt 1 view .LVU1779
	.loc 5 655 11 is_stmt 0 view .LVU1780
	call	dcgettext@PLT
.LVL631:
.LBB604:
.LBB588:
	.loc 3 107 10 view .LVU1781
	leaq	.LC197(%rip), %rcx
	movl	$1, %edi
	leaq	.LC198(%rip), %rdx
.LBE588:
.LBE604:
	.loc 5 655 11 view .LVU1782
	movq	%rax, %rsi
.LVL632:
.LBB605:
	.loc 3 105 1 is_stmt 1 view .LVU1783
.LBB589:
	.loc 3 107 3 view .LVU1784
	.loc 3 107 10 is_stmt 0 view .LVU1785
	xorl	%eax, %eax
.LVL633:
	.loc 3 107 10 view .LVU1786
	call	__printf_chk@PLT
.LVL634:
	.loc 3 107 10 view .LVU1787
.LBE589:
.LBE605:
	.loc 5 659 3 is_stmt 1 view .LVU1788
	.loc 5 659 29 is_stmt 0 view .LVU1789
	movl	$5, %edi
	xorl	%esi, %esi
	call	setlocale@PLT
.LVL635:
	movq	%rax, %rdi
.LVL636:
	.loc 5 660 3 is_stmt 1 view .LVU1790
	.loc 5 660 6 is_stmt 0 view .LVU1791
	testq	%rax, %rax
	je	.L603
	.loc 5 660 22 view .LVU1792
	movl	$3, %edx
	leaq	.LC199(%rip), %rsi
	call	strncmp@PLT
.LVL637:
	.loc 5 660 19 view .LVU1793
	testl	%eax, %eax
	jne	.L622
.L603:
	.loc 5 669 3 is_stmt 1 view .LVU1794
	.loc 5 669 11 is_stmt 0 view .LVU1795
	movl	$5, %edx
	leaq	.LC201(%rip), %rsi
	xorl	%edi, %edi
	call	dcgettext@PLT
.LVL638:
.LBB606:
.LBB595:
	.loc 3 107 10 view .LVU1796
	leaq	.LC166(%rip), %rcx
	leaq	.LC197(%rip), %rdx
	movl	$1, %edi
.LBE595:
.LBE606:
	.loc 5 669 11 view .LVU1797
	movq	%rax, %rsi
.LVL639:
.LBB607:
	.loc 3 105 1 is_stmt 1 view .LVU1798
.LBB596:
	.loc 3 107 3 view .LVU1799
	.loc 3 107 10 is_stmt 0 view .LVU1800
	xorl	%eax, %eax
.LVL640:
	.loc 3 107 10 view .LVU1801
.LBE596:
.LBE607:
	.loc 5 646 15 view .LVU1802
	leaq	.LC166(%rip), %r12
.LBB608:
.LBB597:
	.loc 3 107 10 view .LVU1803
	call	__printf_chk@PLT
.LVL641:
	.loc 3 107 10 view .LVU1804
.LBE597:
.LBE608:
	.loc 5 671 3 is_stmt 1 view .LVU1805
	leaq	.LC167(%rip), %r13
	jmp	.L602
.L622:
	.loc 5 646 15 is_stmt 0 view .LVU1806
	leaq	.LC166(%rip), %r12
.LVL642:
.L604:
	.loc 5 666 7 is_stmt 1 view .LVU1807
	movq	stdout(%rip), %r13
	xorl	%edi, %edi
	movl	$5, %edx
	leaq	.LC200(%rip), %rsi
	call	dcgettext@PLT
.LVL643:
	movq	%rax, %rdi
	movq	%r13, %rsi
	call	fputs_unlocked@PLT
.LVL644:
	jmp	.L601
.LBE609:
.LBE628:
	.cfi_endproc
.LFE172:
	.size	usage, .-usage
	.section	.rodata.str1.1
.LC203:
	.string	"."
.LC204:
	.string	"/usr/local/share/locale"
.LC205:
	.string	"\n"
.LC206:
	.string	"--cached"
.LC207:
	.string	"Michael Meskes"
.LC208:
	.string	"c:fLt"
.LC209:
	.string	"missing operand"
.LC210:
	.string	"%N"
.LC211:
	.string	"QUOTING_STYLE"
	.section	.rodata.str1.8
	.align 8
.LC212:
	.string	"ignoring invalid value of environment variable QUOTING_STYLE: %s"
	.align 8
.LC213:
	.string	"using %s to denote standard input does not work in file system mode"
	.align 8
.LC214:
	.string	"cannot read file system information for %s"
	.section	.text.startup,"ax",@progbits
	.p2align 4
	.globl	main
	.type	main, @function
main:
.LVL645:
.LFB173:
	.loc 1 1815 1 view -0
	.cfi_startproc
	.loc 1 1815 1 is_stmt 0 view .LVU1809
	endbr64
	pushq	%r15
	.cfi_def_cfa_offset 16
	.cfi_offset 15, -16
	pushq	%r14
	.cfi_def_cfa_offset 24
	.cfi_offset 14, -24
	.loc 1 1837 7 view .LVU1810
	movl	$1, %r14d
	.loc 1 1815 1 view .LVU1811
	pushq	%r13
	.cfi_def_cfa_offset 32
	.cfi_offset 13, -32
	pushq	%r12
	.cfi_def_cfa_offset 40
	.cfi_offset 12, -40
	pushq	%rbp
	.cfi_def_cfa_offset 48
	.cfi_offset 6, -48
	movl	%edi, %ebp
	pushq	%rbx
	.cfi_def_cfa_offset 56
	.cfi_offset 3, -56
	movq	%rsi, %rbx
	subq	$168, %rsp
	.cfi_def_cfa_offset 224
	.loc 1 1824 3 view .LVU1812
	movq	(%rsi), %rdi
.LVL646:
	.loc 1 1815 1 view .LVU1813
	movq	%fs:40, %rax
	movq	%rax, 152(%rsp)
	xorl	%eax, %eax
	.loc 1 1816 3 is_stmt 1 view .LVU1814
	.loc 1 1817 3 view .LVU1815
.LVL647:
	.loc 1 1818 3 view .LVU1816
	.loc 1 1819 3 view .LVU1817
	.loc 1 1820 3 view .LVU1818
	.loc 1 1821 3 view .LVU1819
	.loc 1 1823 33 view .LVU1820
	.loc 1 1824 3 view .LVU1821
	call	set_program_name@PLT
.LVL648:
	.loc 1 1825 3 view .LVU1822
	leaq	.LC139(%rip), %rsi
	movl	$6, %edi
	call	setlocale@PLT
.LVL649:
	.loc 1 1826 3 view .LVU1823
	leaq	.LC204(%rip), %rsi
	leaq	.LC189(%rip), %rdi
	call	bindtextdomain@PLT
.LVL650:
	.loc 1 1827 3 view .LVU1824
	leaq	.LC189(%rip), %rdi
	call	textdomain@PLT
.LVL651:
	.loc 1 1829 3 view .LVU1825
	.loc 1 1829 32 is_stmt 0 view .LVU1826
	call	localeconv@PLT
.LVL652:
	.loc 1 1830 3 is_stmt 1 view .LVU1827
	.loc 1 1830 26 is_stmt 0 view .LVU1828
	movq	(%rax), %rdi
	.loc 1 1830 69 view .LVU1829
	leaq	.LC203(%rip), %rax
.LVL653:
	.loc 1 1830 69 view .LVU1830
	cmpb	$0, (%rdi)
	cmove	%rax, %rdi
	.loc 1 1819 9 view .LVU1831
	xorl	%r13d, %r13d
	.loc 1 1818 8 view .LVU1832
	xorl	%r15d, %r15d
	.loc 1 1817 8 view .LVU1833
	xorl	%r12d, %r12d
	.loc 1 1830 17 view .LVU1834
	movq	%rdi, decimal_point(%rip)
	.loc 1 1831 3 is_stmt 1 view .LVU1835
	.loc 1 1831 23 is_stmt 0 view .LVU1836
	call	strlen@PLT
.LVL654:
	.loc 1 1833 3 view .LVU1837
	movq	close_stdout@GOTPCREL(%rip), %rdi
	.loc 1 1831 21 view .LVU1838
	movq	%rax, decimal_point_len(%rip)
	.loc 1 1833 3 is_stmt 1 view .LVU1839
	call	atexit@PLT
.LVL655:
	.loc 1 1835 3 view .LVU1840
	.p2align 4,,10
	.p2align 3
.L625:
	.loc 1 1835 9 view .LVU1841
	.loc 1 1835 15 is_stmt 0 view .LVU1842
	xorl	%r8d, %r8d
	leaq	long_options(%rip), %rcx
	movq	%rbx, %rsi
	movl	%ebp, %edi
	leaq	.LC208(%rip), %rdx
	call	getopt_long@PLT
.LVL656:
	.loc 1 1835 9 view .LVU1843
	cmpl	$-1, %eax
	je	.L663
	.loc 1 1837 7 is_stmt 1 view .LVU1844
	cmpl	$99, %eax
	je	.L626
	jg	.L627
	testl	%eax, %eax
	je	.L628
	jle	.L664
	cmpl	$76, %eax
	jne	.L662
	.loc 1 1852 11 view .LVU1845
	.loc 1 1852 24 is_stmt 0 view .LVU1846
	movb	%r14b, follow_links(%rip)
	.loc 1 1853 11 is_stmt 1 view .LVU1847
	jmp	.L625
	.p2align 4,,10
	.p2align 3
.L627:
	.loc 1 1837 7 is_stmt 0 view .LVU1848
	cmpl	$116, %eax
	je	.L654
	cmpl	$128, %eax
	jne	.L665
	.loc 1 1840 11 is_stmt 1 view .LVU1849
	.loc 1 1842 26 is_stmt 0 view .LVU1850
	leaq	.LC139(%rip), %rax
.LVL657:
	.loc 1 1841 39 view .LVU1851
	movb	%r14b, interpret_backslash_escapes(%rip)
	.loc 1 1840 18 view .LVU1852
	movq	optarg(%rip), %r13
.LVL658:
	.loc 1 1841 11 is_stmt 1 view .LVU1853
	.loc 1 1842 11 view .LVU1854
	.loc 1 1842 26 is_stmt 0 view .LVU1855
	movq	%rax, trailing_delim(%rip)
	.loc 1 1843 11 is_stmt 1 view .LVU1856
	jmp	.L625
.LVL659:
.L664:
	.loc 1 1837 7 is_stmt 0 view .LVU1857
	cmpl	$-131, %eax
	jne	.L666
	.loc 1 1880 9 is_stmt 1 view .LVU1858
	.loc 1 1880 30 view .LVU1859
	.loc 1 1882 9 view .LVU1860
	movq	stdout(%rip), %rdi
	movq	Version(%rip), %rcx
	xorl	%eax, %eax
.LVL660:
	.loc 1 1882 9 is_stmt 0 view .LVU1861
	xorl	%r9d, %r9d
	leaq	.LC207(%rip), %r8
	leaq	.LC198(%rip), %rdx
	leaq	.LC166(%rip), %rsi
	call	version_etc@PLT
.LVL661:
	.loc 1 1882 9 is_stmt 1 view .LVU1862
	xorl	%edi, %edi
	call	exit@PLT
.LVL662:
.L665:
	.loc 1 1837 7 is_stmt 0 view .LVU1863
	cmpl	$102, %eax
	jne	.L662
	.loc 1 1856 14 view .LVU1864
	movl	$1, %r12d
.LVL663:
	.loc 1 1856 14 view .LVU1865
	jmp	.L625
.LVL664:
.L666:
	.loc 1 1837 7 view .LVU1866
	cmpl	$-130, %eax
	jne	.L662
	.loc 1 1880 9 is_stmt 1 view .LVU1867
	xorl	%edi, %edi
	call	usage
.LVL665:
	.p2align 4,,10
	.p2align 3
.L654:
	.loc 1 1837 7 is_stmt 0 view .LVU1868
	movl	$1, %r15d
.LVL666:
	.loc 1 1837 7 view .LVU1869
	jmp	.L625
.LVL667:
	.p2align 4,,10
	.p2align 3
.L626:
	.loc 1 1846 11 is_stmt 1 view .LVU1870
	.loc 1 1848 26 is_stmt 0 view .LVU1871
	leaq	.LC205(%rip), %rax
.LVL668:
	.loc 1 1847 39 view .LVU1872
	movb	$0, interpret_backslash_escapes(%rip)
	.loc 1 1846 18 view .LVU1873
	movq	optarg(%rip), %r13
.LVL669:
	.loc 1 1847 11 is_stmt 1 view .LVU1874
	.loc 1 1848 11 view .LVU1875
	.loc 1 1848 26 is_stmt 0 view .LVU1876
	movq	%rax, trailing_delim(%rip)
	.loc 1 1849 11 is_stmt 1 view .LVU1877
	jmp	.L625
.LVL670:
	.p2align 4,,10
	.p2align 3
.L628:
	.loc 1 1864 11 view .LVU1878
	.loc 1 1864 19 is_stmt 0 view .LVU1879
	movq	argmatch_die(%rip), %r9
	movq	optarg(%rip), %rsi
	movl	$4, %r8d
	leaq	cached_modes(%rip), %rcx
	leaq	cached_args(%rip), %rdx
	leaq	.LC206(%rip), %rdi
	call	__xargmatch_internal@PLT
.LVL671:
	.loc 1 1864 19 view .LVU1880
	movq	%rax, %r8
	leaq	cached_modes(%rip), %rax
	movl	(%rax,%r8,4), %eax
	cmpl	$1, %eax
	je	.L636
	cmpl	$2, %eax
	je	.L637
	testl	%eax, %eax
	jne	.L625
	.loc 1 1875 17 is_stmt 1 view .LVU1881
	.loc 1 1875 28 is_stmt 0 view .LVU1882
	movb	$0, force_sync(%rip)
	.loc 1 1876 17 is_stmt 1 view .LVU1883
	.loc 1 1876 27 is_stmt 0 view .LVU1884
	movb	$0, dont_sync(%rip)
	jmp	.L625
.L637:
	.loc 1 1871 17 is_stmt 1 view .LVU1885
	.loc 1 1871 28 is_stmt 0 view .LVU1886
	movb	$0, force_sync(%rip)
	.loc 1 1872 17 is_stmt 1 view .LVU1887
	.loc 1 1872 27 is_stmt 0 view .LVU1888
	movb	%r14b, dont_sync(%rip)
	.loc 1 1873 17 is_stmt 1 view .LVU1889
	jmp	.L625
.L636:
	.loc 1 1867 17 view .LVU1890
	.loc 1 1867 28 is_stmt 0 view .LVU1891
	movb	%r14b, force_sync(%rip)
	.loc 1 1868 17 is_stmt 1 view .LVU1892
	.loc 1 1868 27 is_stmt 0 view .LVU1893
	movb	$0, dont_sync(%rip)
	.loc 1 1869 17 is_stmt 1 view .LVU1894
	jmp	.L625
.LVL672:
.L663:
	.loc 1 1889 3 view .LVU1895
	.loc 1 1889 6 is_stmt 0 view .LVU1896
	cmpl	%ebp, optind(%rip)
	je	.L667
	.loc 1 1895 3 is_stmt 1 view .LVU1897
	.loc 1 1895 6 is_stmt 0 view .LVU1898
	testq	%r13, %r13
	je	.L641
	.loc 1 1897 7 is_stmt 1 view .LVU1899
	.loc 1 1897 11 is_stmt 0 view .LVU1900
	leaq	.LC210(%rip), %rsi
	movq	%r13, %rdi
	call	strstr@PLT
.LVL673:
	.loc 1 1897 11 view .LVU1901
	movq	%r13, 16(%rsp)
	.loc 1 1897 10 view .LVU1902
	testq	%rax, %rax
	je	.L642
	.loc 1 1898 9 is_stmt 1 view .LVU1903
.LBB635:
.LBI635:
	.loc 1 1041 1 view .LVU1904
.LBB636:
	.loc 1 1043 3 view .LVU1905
	.loc 1 1043 25 is_stmt 0 view .LVU1906
	leaq	.LC211(%rip), %rdi
	call	getenv@PLT
.LVL674:
	movq	%rax, %r14
.LVL675:
	.loc 1 1044 3 is_stmt 1 view .LVU1907
	.loc 1 1044 6 is_stmt 0 view .LVU1908
	testq	%rax, %rax
	je	.L643
.LBB637:
	.loc 1 1046 7 is_stmt 1 view .LVU1909
	.loc 1 1046 15 is_stmt 0 view .LVU1910
	movl	$4, %ecx
	leaq	quoting_style_vals(%rip), %rdx
	leaq	quoting_style_args(%rip), %rsi
	movq	%rax, %rdi
	call	argmatch@PLT
.LVL676:
	.loc 1 1047 7 is_stmt 1 view .LVU1911
	.loc 1 1047 10 is_stmt 0 view .LVU1912
	testl	%eax, %eax
	js	.L644
	.loc 1 1048 9 is_stmt 1 view .LVU1913
	cltq
	.loc 1 1048 9 is_stmt 0 view .LVU1914
	leaq	quoting_style_vals(%rip), %rdx
	xorl	%edi, %edi
	movl	(%rdx,%rax,4), %esi
	call	set_quoting_style@PLT
.LVL677:
	.loc 1 1048 9 view .LVU1915
	movq	%r13, 16(%rsp)
.LVL678:
.L642:
	.loc 1 1048 9 view .LVU1916
.LBE637:
.LBE636:
.LBE635:
	.loc 1 1907 3 is_stmt 1 view .LVU1917
.LBB641:
	.loc 1 1907 8 view .LVU1918
	.loc 1 1907 12 is_stmt 0 view .LVU1919
	movl	optind(%rip), %eax
.LVL679:
	.loc 1 1907 24 is_stmt 1 view .LVU1920
	.loc 1 1907 3 is_stmt 0 view .LVU1921
	cmpl	%eax, %ebp
	jle	.L657
	.loc 1 1907 3 view .LVU1922
	movslq	%eax, %rdx
	notl	%eax
.LVL680:
	.loc 1 1907 3 view .LVU1923
	addl	%ebp, %eax
	leaq	(%rbx,%rdx,8), %r14
.LBB642:
.LBB643:
	.loc 1 1242 7 view .LVU1924
	leaq	32(%rsp), %rbp
.LVL681:
	.loc 1 1242 7 view .LVU1925
	addq	%rdx, %rax
	leaq	8(%rbx,%rax,8), %rax
.LBE643:
.LBE642:
.LBE641:
	.loc 1 1821 8 view .LVU1926
	movl	$1, %ebx
.LVL682:
	.loc 1 1821 8 view .LVU1927
	movq	%rax, 8(%rsp)
	jmp	.L651
.LVL683:
.L670:
.LBB650:
.LBB647:
.LBI642:
	.loc 1 1231 1 is_stmt 1 discriminator 1 view .LVU1928
.LBB644:
	.loc 1 1233 3 discriminator 1 view .LVU1929
	.loc 1 1235 3 discriminator 1 view .LVU1930
	.loc 1 1235 7 is_stmt 0 discriminator 1 view .LVU1931
	leaq	.LC3(%rip), %rsi
	movq	%r15, %rdi
	call	strcmp@PLT
.LVL684:
	.loc 1 1235 6 discriminator 1 view .LVU1932
	testl	%eax, %eax
	je	.L668
	.loc 1 1242 3 is_stmt 1 view .LVU1933
	.loc 1 1242 7 is_stmt 0 view .LVU1934
	movq	%rbp, %rsi
	movq	%r15, %rdi
	call	statfs@PLT
.LVL685:
	.loc 1 1242 6 view .LVU1935
	testl	%eax, %eax
	jne	.L669
	.loc 1 1249 3 is_stmt 1 view .LVU1936
	.loc 1 1249 15 is_stmt 0 view .LVU1937
	movq	%rbp, %r8
	leaq	print_statfs(%rip), %rcx
	movq	%r15, %rdx
	orl	$-1, %esi
	movq	%r13, %rdi
	call	print_it
.LVL686:
	.loc 1 1250 3 is_stmt 1 view .LVU1938
	xorl	$1, %eax
.LVL687:
.L661:
	.loc 1 1250 3 is_stmt 0 view .LVU1939
.LBE644:
.LBE647:
	.loc 1 1910 12 discriminator 2 view .LVU1940
	movzbl	%al, %eax
	addq	$8, %r14
	.loc 1 1908 8 discriminator 2 view .LVU1941
	andl	%eax, %ebx
.LVL688:
	.loc 1 1907 34 is_stmt 1 discriminator 2 view .LVU1942
	.loc 1 1907 24 discriminator 2 view .LVU1943
	.loc 1 1907 3 is_stmt 0 discriminator 2 view .LVU1944
	cmpq	%r14, 8(%rsp)
	je	.L645
.LVL689:
.L651:
	.loc 1 1908 5 is_stmt 1 view .LVU1945
	movq	(%r14), %r15
	.loc 1 1910 12 is_stmt 0 view .LVU1946
	testb	%r12b, %r12b
	jne	.L670
	.loc 1 1910 14 discriminator 2 view .LVU1947
	movq	16(%rsp), %rdx
	movq	%r13, %rsi
	movq	%r15, %rdi
	call	do_stat
.LVL690:
	jmp	.L661
.LVL691:
.L668:
.LBB648:
.LBB645:
	.loc 1 1237 7 is_stmt 1 view .LVU1948
	movq	%r15, %rsi
	movl	$4, %edi
	call	quotearg_style@PLT
.LVL692:
	.loc 1 1237 20 is_stmt 0 view .LVU1949
	movl	$5, %edx
	leaq	.LC213(%rip), %rsi
	xorl	%edi, %edi
	.loc 1 1237 7 view .LVU1950
	movq	%rax, %r15
	.loc 1 1237 20 view .LVU1951
	call	dcgettext@PLT
.LVL693:
	.loc 1 1237 7 view .LVU1952
	movq	%r15, %rcx
	xorl	%esi, %esi
	xorl	%edi, %edi
	.loc 1 1237 20 view .LVU1953
	movq	%rax, %rdx
	.loc 1 1237 7 view .LVU1954
	xorl	%eax, %eax
	call	error@PLT
.LVL694:
	.loc 1 1239 7 is_stmt 1 view .LVU1955
	.loc 1 1239 14 is_stmt 0 view .LVU1956
	xorl	%eax, %eax
	jmp	.L661
.LVL695:
.L657:
	.loc 1 1239 14 view .LVU1957
.LBE645:
.LBE648:
.LBE650:
	.loc 1 1821 8 view .LVU1958
	movl	$1, %ebx
.LVL696:
.L645:
	.loc 1 1912 3 is_stmt 1 view .LVU1959
	.loc 1 1912 28 is_stmt 0 view .LVU1960
	xorl	$1, %ebx
	.loc 1 1913 1 view .LVU1961
	movq	152(%rsp), %rcx
	xorq	%fs:40, %rcx
	.loc 1 1912 28 view .LVU1962
	movzbl	%bl, %eax
	.loc 1 1913 1 view .LVU1963
	jne	.L671
	addq	$168, %rsp
	.cfi_remember_state
	.cfi_def_cfa_offset 56
	popq	%rbx
	.cfi_def_cfa_offset 48
	popq	%rbp
	.cfi_def_cfa_offset 40
	popq	%r12
	.cfi_def_cfa_offset 32
.LVL697:
	.loc 1 1913 1 view .LVU1964
	popq	%r13
	.cfi_def_cfa_offset 24
.LVL698:
	.loc 1 1913 1 view .LVU1965
	popq	%r14
	.cfi_def_cfa_offset 16
	popq	%r15
	.cfi_def_cfa_offset 8
	ret
.LVL699:
.L669:
	.cfi_restore_state
.LBB651:
.LBB649:
.LBB646:
	.loc 1 1244 7 is_stmt 1 view .LVU1966
	movq	%r15, %rsi
	movl	$4, %edi
	call	quotearg_style@PLT
.LVL700:
	.loc 1 1244 24 is_stmt 0 view .LVU1967
	movl	$5, %edx
	leaq	.LC214(%rip), %rsi
	xorl	%edi, %edi
	.loc 1 1244 7 view .LVU1968
	movq	%rax, 24(%rsp)
	.loc 1 1244 24 view .LVU1969
	call	dcgettext@PLT
.LVL701:
	movq	%rax, %r15
	.loc 1 1244 17 view .LVU1970
	call	__errno_location@PLT
.LVL702:
	.loc 1 1244 7 view .LVU1971
	movq	24(%rsp), %rcx
	movq	%r15, %rdx
	xorl	%edi, %edi
	movl	(%rax), %esi
	xorl	%eax, %eax
	call	error@PLT
.LVL703:
	.loc 1 1246 7 is_stmt 1 view .LVU1972
	.loc 1 1246 14 is_stmt 0 view .LVU1973
	xorl	%eax, %eax
	jmp	.L661
.LVL704:
.L644:
	.loc 1 1246 14 view .LVU1974
.LBE646:
.LBE649:
.LBE651:
.LBB652:
.LBB639:
.LBB638:
	.loc 1 1051 11 is_stmt 1 view .LVU1975
	movl	$4, %esi
	xorl	%edi, %edi
	call	set_quoting_style@PLT
.LVL705:
	.loc 1 1052 11 view .LVU1976
	movq	%r14, %rdi
	call	quote@PLT
.LVL706:
	.loc 1 1052 24 is_stmt 0 view .LVU1977
	movl	$5, %edx
	leaq	.LC212(%rip), %rsi
	xorl	%edi, %edi
	.loc 1 1052 11 view .LVU1978
	movq	%rax, %r14
.LVL707:
	.loc 1 1052 24 view .LVU1979
	call	dcgettext@PLT
.LVL708:
	.loc 1 1052 11 view .LVU1980
	movq	%r14, %rcx
	xorl	%esi, %esi
	xorl	%edi, %edi
	.loc 1 1052 24 view .LVU1981
	movq	%rax, %rdx
	.loc 1 1052 11 view .LVU1982
	xorl	%eax, %eax
	call	error@PLT
.LVL709:
	movq	%r13, 16(%rsp)
	jmp	.L642
.LVL710:
.L641:
	.loc 1 1052 11 view .LVU1983
.LBE638:
.LBE639:
.LBE652:
	.loc 1 1903 7 is_stmt 1 view .LVU1984
	.loc 1 1903 16 is_stmt 0 view .LVU1985
	movzbl	%r12b, %r14d
	xorl	%edx, %edx
	movl	%r15d, %esi
	movl	%r14d, %edi
	call	default_format
.LVL711:
	.loc 1 1904 17 view .LVU1986
	movl	$1, %edx
	movl	%r15d, %esi
	movl	%r14d, %edi
	.loc 1 1903 16 view .LVU1987
	movq	%rax, %r13
.LVL712:
	.loc 1 1904 7 is_stmt 1 view .LVU1988
	.loc 1 1904 17 is_stmt 0 view .LVU1989
	call	default_format
.LVL713:
	.loc 1 1904 17 view .LVU1990
	movq	%rax, 16(%rsp)
.LVL714:
	.loc 1 1904 17 view .LVU1991
	jmp	.L642
.LVL715:
.L643:
.LBB653:
.LBB640:
	.loc 1 1057 5 is_stmt 1 view .LVU1992
	movl	$4, %esi
	xorl	%edi, %edi
	call	set_quoting_style@PLT
.LVL716:
	.loc 1 1057 5 is_stmt 0 view .LVU1993
	movq	%r13, 16(%rsp)
	jmp	.L642
.LVL717:
.L667:
	.loc 1 1057 5 view .LVU1994
.LBE640:
.LBE653:
	.loc 1 1891 7 is_stmt 1 view .LVU1995
	.loc 1 1891 20 is_stmt 0 view .LVU1996
	movl	$5, %edx
	leaq	.LC209(%rip), %rsi
	xorl	%edi, %edi
	call	dcgettext@PLT
.LVL718:
	.loc 1 1891 7 view .LVU1997
	xorl	%esi, %esi
	xorl	%edi, %edi
	.loc 1 1891 20 view .LVU1998
	movq	%rax, %rdx
	.loc 1 1891 7 view .LVU1999
	xorl	%eax, %eax
	call	error@PLT
.LVL719:
.L662:
	.loc 1 1892 7 is_stmt 1 view .LVU2000
	movl	$1, %edi
	call	usage
.LVL720:
.L671:
	.loc 1 1913 1 is_stmt 0 view .LVU2001
	call	__stack_chk_fail@PLT
.LVL721:
	.cfi_endproc
.LFE173:
	.size	main, .-main
	.section	.rodata
	.align 32
	.type	CSWTCH.121, @object
	.size	CSWTCH.121, 116
CSWTCH.121:
	.value	2
	.value	0
	.value	0
	.value	2
	.value	0
	.value	1
	.value	16
	.value	0
	.value	0
	.value	0
	.value	0
	.value	0
	.value	0
	.value	2
	.value	0
	.value	0
	.value	0
	.value	0
	.value	0
	.value	2
	.value	8
	.value	0
	.value	2048
	.value	32
	.value	64
	.value	128
	.value	0
	.value	0
	.value	0
	.value	0
	.value	0
	.value	0
	.value	2
	.value	1024
	.value	0
	.value	2
	.value	0
	.value	3
	.value	16
	.value	4
	.value	256
	.value	0
	.value	0
	.value	0
	.value	258
	.value	0
	.value	0
	.value	0
	.value	0
	.value	0
	.value	512
	.value	2
	.value	8
	.value	0
	.value	2048
	.value	32
	.value	64
	.value	128
	.local	str.7964
	.comm	str.7964,61,32
	.local	tz.7965
	.comm	tz.7965,8,8
	.local	mount_list.8093
	.comm	mount_list.8093,8,8
	.local	tried_mount_list.8094
	.comm	tried_mount_list.8094,1,1
	.local	modebuf.7960
	.comm	modebuf.7960,12,8
	.local	buf.7956
	.comm	buf.7956,29,16
	.local	force_sync
	.comm	force_sync,1,1
	.local	dont_sync
	.comm	dont_sync,1,1
	.local	decimal_point_len
	.comm	decimal_point_len,8,8
	.local	decimal_point
	.comm	decimal_point,8,8
	.section	.data.rel.local,"aw"
	.align 8
	.type	trailing_delim, @object
	.size	trailing_delim, 8
trailing_delim:
	.quad	.LC139
	.local	interpret_backslash_escapes
	.comm	interpret_backslash_escapes,1,1
	.local	follow_links
	.comm	follow_links,1,1
	.section	.rodata.str1.1
.LC215:
	.string	"dereference"
.LC216:
	.string	"file-system"
.LC217:
	.string	"format"
.LC218:
	.string	"printf"
.LC219:
	.string	"terse"
.LC220:
	.string	"cached"
.LC221:
	.string	"help"
.LC222:
	.string	"version"
	.section	.data.rel.ro.local,"aw"
	.align 32
	.type	long_options, @object
	.size	long_options, 288
long_options:
	.quad	.LC215
	.long	0
	.zero	4
	.quad	0
	.long	76
	.zero	4
	.quad	.LC216
	.long	0
	.zero	4
	.quad	0
	.long	102
	.zero	4
	.quad	.LC217
	.long	1
	.zero	4
	.quad	0
	.long	99
	.zero	4
	.quad	.LC218
	.long	1
	.zero	4
	.quad	0
	.long	128
	.zero	4
	.quad	.LC219
	.long	0
	.zero	4
	.quad	0
	.long	116
	.zero	4
	.quad	.LC220
	.long	1
	.zero	4
	.quad	0
	.long	0
	.zero	4
	.quad	.LC221
	.long	0
	.zero	4
	.quad	0
	.long	-130
	.zero	4
	.quad	.LC222
	.long	0
	.zero	4
	.quad	0
	.long	-131
	.zero	4
	.quad	0
	.long	0
	.zero	4
	.quad	0
	.long	0
	.zero	4
	.section	.rodata
	.align 8
	.type	cached_modes, @object
	.size	cached_modes, 12
cached_modes:
	.long	0
	.long	1
	.long	2
	.section	.rodata.str1.1
.LC223:
	.string	"default"
.LC224:
	.string	"never"
.LC225:
	.string	"always"
	.section	.data.rel.ro.local
	.align 32
	.type	cached_args, @object
	.size	cached_args, 32
cached_args:
	.quad	.LC223
	.quad	.LC224
	.quad	.LC225
	.quad	0
	.section	.rodata
	.align 32
	.type	fmt_terse_selinux, @object
	.size	fmt_terse_selinux, 52
fmt_terse_selinux:
	.string	"%n %s %b %f %u %g %D %i %h %t %T %X %Y %Z %W %o %C\n"
	.align 32
	.type	fmt_terse_regular, @object
	.size	fmt_terse_regular, 49
fmt_terse_regular:
	.string	"%n %s %b %f %u %g %D %i %h %t %T %X %Y %Z %W %o\n"
	.align 32
	.type	fmt_terse_fs, @object
	.size	fmt_terse_fs, 34
fmt_terse_fs:
	.string	"%n %i %l %t %s %S %b %f %a %c %d\n"
	.align 8
	.type	printf_flags, @object
	.size	printf_flags, 8
printf_flags:
	.string	"'-+ #0I"
	.align 8
	.type	digits, @object
	.size	digits, 11
digits:
	.string	"0123456789"
	.section	.rodata.cst8,"aM",@progbits,8
	.align 8
.LC149:
	.long	0
	.long	-1076887552
	.text
.Letext0:
	.file 10 "/usr/lib/gcc/x86_64-linux-gnu/9/include/stddef.h"
	.file 11 "/usr/include/x86_64-linux-gnu/bits/types.h"
	.file 12 "/usr/include/x86_64-linux-gnu/bits/types/struct_FILE.h"
	.file 13 "/usr/include/x86_64-linux-gnu/bits/types/FILE.h"
	.file 14 "/usr/include/stdio.h"
	.file 15 "/usr/include/x86_64-linux-gnu/bits/sys_errlist.h"
	.file 16 "/usr/include/x86_64-linux-gnu/sys/types.h"
	.file 17 "/usr/include/x86_64-linux-gnu/bits/types/time_t.h"
	.file 18 "/usr/include/x86_64-linux-gnu/bits/types/struct_timespec.h"
	.file 19 "./lib/sys/select.h"
	.file 20 "/usr/include/pwd.h"
	.file 21 "/usr/include/grp.h"
	.file 22 "/usr/include/x86_64-linux-gnu/bits/statfs.h"
	.file 23 "/usr/include/x86_64-linux-gnu/bits/types/struct_tm.h"
	.file 24 "/usr/include/time.h"
	.file 25 "./lib/time.h"
	.file 26 "/usr/include/x86_64-linux-gnu/bits/stat.h"
	.file 27 "/usr/include/asm-generic/int-ll64.h"
	.file 28 "/usr/include/linux/stat.h"
	.file 29 "/usr/include/signal.h"
	.file 30 "/usr/include/unistd.h"
	.file 31 "/usr/include/x86_64-linux-gnu/bits/getopt_core.h"
	.file 32 "/usr/include/errno.h"
	.file 33 "src/version.h"
	.file 34 "./lib/exitfail.h"
	.file 35 "/usr/include/stdint.h"
	.file 36 "./lib/timespec.h"
	.file 37 "/usr/include/ctype.h"
	.file 38 "/usr/include/locale.h"
	.file 39 "./lib/version-etc.h"
	.file 40 "./lib/progname.h"
	.file 41 "./lib/quotearg.h"
	.file 42 "./lib/quote.h"
	.file 43 "./lib/argmatch.h"
	.file 44 "./lib/error.h"
	.file 45 "/usr/include/x86_64-linux-gnu/bits/getopt_ext.h"
	.file 46 "./lib/mountlist.h"
	.file 47 "/usr/include/string.h"
	.file 48 "/usr/include/x86_64-linux-gnu/sys/statfs.h"
	.file 49 "/usr/include/libintl.h"
	.file 50 "/usr/include/stdlib.h"
	.file 51 "./lib/areadlink.h"
	.file 52 "src/find-mount-point.h"
	.file 53 "/usr/include/selinux/selinux.h"
	.file 54 "./lib/filemode.h"
	.file 55 "./lib/file-type.h"
	.file 56 "/usr/include/x86_64-linux-gnu/bits/statx-generic.h"
	.file 57 "./lib/xalloc.h"
	.file 58 "<built-in>"
	.file 59 "./lib/inttostr.h"
	.file 60 "./lib/strftime.h"
	.file 61 "./lib/xvasprintf.h"
	.section	.note.GNU-stack,"",@progbits
	.section	.note.gnu.property,"a"
	.align 8
	.long	 1f - 0f
	.long	 4f - 1f
	.long	 5
0:
	.string	 "GNU"
1:
	.align 8
	.long	 0xc0000002
	.long	 3f - 2f
2:
	.long	 0x3
3:
	.align 8
4:
