	.file	"stty.c"
	.text
.Ltext0:
	.section	.rodata.str1.1,"aMS",@progbits,1
.LC0:
	.string	"0"
	.text
	.p2align 4
	.type	string_to_baud, @function
string_to_baud:
.LVL0:
.LFB155:
	.file 1 "src/stty.c"
	.loc 1 2212 1 view -0
	.cfi_startproc
	.loc 1 2213 3 view .LVU1
.LBB144:
	.loc 1 2213 8 view .LVU2
	.loc 1 2213 19 view .LVU3
.LBE144:
	.loc 1 2212 1 is_stmt 0 view .LVU4
	pushq	%r12
	.cfi_def_cfa_offset 16
	.cfi_offset 12, -16
.LBB145:
	.loc 1 2213 28 view .LVU5
	leaq	.LC0(%rip), %rsi
.LBE145:
	.loc 1 2212 1 view .LVU6
	movq	%rdi, %r12
	pushq	%rbp
	.cfi_def_cfa_offset 24
	.cfi_offset 6, -24
.LBB146:
	.loc 1 2213 12 view .LVU7
	xorl	%ebp, %ebp
.LBE146:
	.loc 1 2212 1 view .LVU8
	pushq	%rbx
	.cfi_def_cfa_offset 32
	.cfi_offset 3, -32
	leaq	24+speeds(%rip), %rbx
	jmp	.L4
.LVL1:
	.p2align 4,,10
	.p2align 3
.L2:
.LBB147:
	.loc 1 2213 45 is_stmt 1 discriminator 2 view .LVU9
	.loc 1 2213 28 is_stmt 0 discriminator 2 view .LVU10
	movq	(%rbx), %rsi
	addq	$24, %rbx
	.loc 1 2213 45 discriminator 2 view .LVU11
	addl	$1, %ebp
.LVL2:
	.loc 1 2213 19 is_stmt 1 discriminator 2 view .LVU12
	.loc 1 2213 3 is_stmt 0 discriminator 2 view .LVU13
	testq	%rsi, %rsi
	je	.L8
.LVL3:
.L4:
	.loc 1 2214 5 is_stmt 1 view .LVU14
	.loc 1 2214 9 is_stmt 0 view .LVU15
	movq	%r12, %rdi
	call	strcmp@PLT
.LVL4:
	.loc 1 2214 8 view .LVU16
	testl	%eax, %eax
	jne	.L2
	.loc 1 2215 7 is_stmt 1 view .LVU17
	.loc 1 2215 23 is_stmt 0 view .LVU18
	movslq	%ebp, %rbp
	.loc 1 2215 23 view .LVU19
	leaq	speeds(%rip), %rax
.LBE147:
	.loc 1 2217 1 view .LVU20
	popq	%rbx
	.cfi_remember_state
	.cfi_def_cfa_offset 24
.LBB148:
	.loc 1 2215 23 view .LVU21
	leaq	0(%rbp,%rbp,2), %rdx
.LBE148:
	.loc 1 2217 1 view .LVU22
	popq	%rbp
	.cfi_def_cfa_offset 16
.LVL5:
	.loc 1 2217 1 view .LVU23
	popq	%r12
	.cfi_def_cfa_offset 8
.LVL6:
.LBB149:
	.loc 1 2215 23 view .LVU24
	movl	8(%rax,%rdx,8), %eax
.LBE149:
	.loc 1 2217 1 view .LVU25
	ret
.LVL7:
	.p2align 4,,10
	.p2align 3
.L8:
	.cfi_restore_state
	.loc 1 2217 1 view .LVU26
	popq	%rbx
	.cfi_def_cfa_offset 24
	.loc 1 2216 10 view .LVU27
	movl	$-1, %eax
	.loc 1 2217 1 view .LVU28
	popq	%rbp
	.cfi_def_cfa_offset 16
.LVL8:
	.loc 1 2217 1 view .LVU29
	popq	%r12
	.cfi_def_cfa_offset 8
.LVL9:
	.loc 1 2217 1 view .LVU30
	ret
	.cfi_endproc
.LFE155:
	.size	string_to_baud, .-string_to_baud
	.section	.rodata.str1.1
.LC1:
	.string	"COLUMNS"
.LC2:
	.string	""
	.text
	.p2align 4
	.type	screen_columns, @function
screen_columns:
.LFB145:
	.loc 1 1807 1 is_stmt 1 view -0
	.cfi_startproc
	subq	$40, %rsp
	.cfi_def_cfa_offset 48
.LBB150:
.LBB151:
	.loc 1 1715 13 is_stmt 0 view .LVU32
	movl	$21523, %esi
	movl	$1, %edi
.LBE151:
.LBE150:
	.loc 1 1807 1 view .LVU33
	movq	%fs:40, %rax
	movq	%rax, 24(%rsp)
	xorl	%eax, %eax
	.loc 1 1809 3 is_stmt 1 view .LVU34
	.loc 1 1817 3 view .LVU35
.LVL10:
.LBB153:
.LBI150:
	.loc 1 1713 1 view .LVU36
.LBB152:
	.loc 1 1715 3 view .LVU37
	.loc 1 1715 13 is_stmt 0 view .LVU38
	leaq	16(%rsp), %rdx
.LVL11:
	.loc 1 1715 13 view .LVU39
	call	ioctl@PLT
.LVL12:
	.loc 1 1716 3 is_stmt 1 view .LVU40
	.loc 1 1716 3 is_stmt 0 view .LVU41
.LBE152:
.LBE153:
	.loc 1 1817 6 view .LVU42
	testl	%eax, %eax
	jne	.L10
	.loc 1 1817 57 discriminator 1 view .LVU43
	movzwl	18(%rsp), %eax
	.loc 1 1817 47 discriminator 1 view .LVU44
	testw	%ax, %ax
	jne	.L9
.L10:
.LBB154:
	.loc 1 1822 5 is_stmt 1 view .LVU45
	.loc 1 1822 24 is_stmt 0 view .LVU46
	leaq	.LC1(%rip), %rdi
	call	getenv@PLT
.LVL13:
	movq	%rax, %rdi
.LVL14:
	.loc 1 1823 5 is_stmt 1 view .LVU47
	.loc 1 1824 5 view .LVU48
	.loc 1 1824 8 is_stmt 0 view .LVU49
	testq	%rax, %rax
	je	.L12
	.loc 1 1825 14 view .LVU50
	xorl	%edx, %edx
	leaq	8(%rsp), %rcx
	leaq	.LC2(%rip), %r8
	xorl	%esi, %esi
	call	xstrtol@PLT
.LVL15:
	.loc 1 1825 11 view .LVU51
	testl	%eax, %eax
	jne	.L12
	.loc 1 1826 16 view .LVU52
	movq	8(%rsp), %rax
	.loc 1 1824 9 view .LVU53
	leaq	-1(%rax), %rdx
	cmpq	$2147483646, %rdx
	jbe	.L9
.L12:
	.loc 1 1828 7 is_stmt 1 view .LVU54
.LVL16:
	.loc 1 1828 7 is_stmt 0 view .LVU55
.LBE154:
	.loc 1 1807 1 view .LVU56
	movl	$80, %eax
.LBB155:
	.loc 1 1829 5 is_stmt 1 view .LVU57
.LVL17:
.L9:
	.loc 1 1829 5 is_stmt 0 view .LVU58
.LBE155:
	.loc 1 1831 1 view .LVU59
	movq	24(%rsp), %rcx
	xorq	%fs:40, %rcx
	jne	.L22
	addq	$40, %rsp
	.cfi_remember_state
	.cfi_def_cfa_offset 8
	ret
.L22:
	.cfi_restore_state
	call	__stack_chk_fail@PLT
.LVL18:
	.cfi_endproc
.LFE145:
	.size	screen_columns, .-screen_columns
	.section	.text.unlikely,"ax",@progbits
.LCOLDB3:
	.text
.LHOTB3:
	.p2align 4
	.section	.text.unlikely
.Ltext_cold0:
	.text
	.type	mode_type_flag, @function
mode_type_flag:
.LVL19:
.LFB146:
	.loc 1 1835 1 is_stmt 1 view -0
	.cfi_startproc
	.loc 1 1836 3 view .LVU61
	.loc 1 1835 1 is_stmt 0 view .LVU62
	subq	$8, %rsp
	.cfi_def_cfa_offset 16
	cmpl	$4, %edi
	ja	.L24
	leaq	.L26(%rip), %rdx
	movl	%edi, %edi
	.loc 1 1835 1 view .LVU63
	movslq	(%rdx,%rdi,4), %rax
	addq	%rdx, %rax
	notrack jmp	*%rax
	.section	.rodata
	.align 4
	.align 4
.L26:
	.long	.L30-.L26
	.long	.L29-.L26
	.long	.L28-.L26
	.long	.L27-.L26
	.long	.L31-.L26
	.text
	.p2align 4,,10
	.p2align 3
.L31:
	.loc 1 1835 1 view .LVU64
	xorl	%eax, %eax
	.loc 1 1856 1 view .LVU65
	addq	$8, %rsp
	.cfi_remember_state
	.cfi_def_cfa_offset 8
	ret
	.p2align 4,,10
	.p2align 3
.L27:
	.cfi_restore_state
	.loc 1 1848 7 is_stmt 1 view .LVU66
	.loc 1 1848 14 is_stmt 0 view .LVU67
	leaq	12(%rsi), %rax
	.loc 1 1856 1 view .LVU68
	addq	$8, %rsp
	.cfi_remember_state
	.cfi_def_cfa_offset 8
	ret
	.p2align 4,,10
	.p2align 3
.L30:
	.cfi_restore_state
	.loc 1 1839 7 is_stmt 1 view .LVU69
	.loc 1 1839 14 is_stmt 0 view .LVU70
	leaq	8(%rsi), %rax
	.loc 1 1856 1 view .LVU71
	addq	$8, %rsp
	.cfi_remember_state
	.cfi_def_cfa_offset 8
	ret
	.p2align 4,,10
	.p2align 3
.L29:
	.cfi_restore_state
	.loc 1 1842 7 is_stmt 1 view .LVU72
	.loc 1 1842 14 is_stmt 0 view .LVU73
	movq	%rsi, %rax
	.loc 1 1856 1 view .LVU74
	addq	$8, %rsp
	.cfi_remember_state
	.cfi_def_cfa_offset 8
	ret
	.p2align 4,,10
	.p2align 3
.L28:
	.cfi_restore_state
	.loc 1 1845 7 is_stmt 1 view .LVU75
	.loc 1 1845 14 is_stmt 0 view .LVU76
	leaq	4(%rsi), %rax
	.loc 1 1856 1 view .LVU77
	addq	$8, %rsp
	.cfi_def_cfa_offset 8
	ret
	.loc 1 1856 1 view .LVU78
	.cfi_endproc
	.section	.text.unlikely
	.cfi_startproc
	.type	mode_type_flag.cold, @function
mode_type_flag.cold:
.LFSB146:
.L24:
	.cfi_def_cfa_offset 16
	.loc 1 1854 7 is_stmt 1 view -0
	call	abort@PLT
.LVL20:
	.loc 1 1854 7 is_stmt 0 view .LVU80
	.cfi_endproc
.LFE146:
	.text
	.size	mode_type_flag, .-mode_type_flag
	.section	.text.unlikely
	.size	mode_type_flag.cold, .-mode_type_flag.cold
.LCOLDE3:
	.text
.LHOTE3:
	.p2align 4
	.type	wrapf, @function
wrapf:
.LVL21:
.LFB135:
	.loc 1 493 1 is_stmt 1 view -0
	.cfi_startproc
	.loc 1 493 1 is_stmt 0 view .LVU82
	pushq	%rbx
	.cfi_def_cfa_offset 16
	.cfi_offset 3, -16
	movq	%rdi, %r10
	subq	$224, %rsp
	.cfi_def_cfa_offset 240
	movq	%rsi, 56(%rsp)
	movq	%rdx, 64(%rsp)
	movq	%rcx, 72(%rsp)
	movq	%r8, 80(%rsp)
	movq	%r9, 88(%rsp)
	testb	%al, %al
	je	.L34
	movaps	%xmm0, 96(%rsp)
	movaps	%xmm1, 112(%rsp)
	movaps	%xmm2, 128(%rsp)
	movaps	%xmm3, 144(%rsp)
	movaps	%xmm4, 160(%rsp)
	movaps	%xmm5, 176(%rsp)
	movaps	%xmm6, 192(%rsp)
	movaps	%xmm7, 208(%rsp)
.L34:
	.loc 1 493 1 view .LVU83
	movq	%fs:40, %rax
	movq	%rax, 40(%rsp)
	xorl	%eax, %eax
	.loc 1 494 3 is_stmt 1 view .LVU84
	.loc 1 495 3 view .LVU85
	.loc 1 496 3 view .LVU86
	.loc 1 498 3 view .LVU87
	.loc 1 499 12 is_stmt 0 view .LVU88
	leaq	16(%rsp), %rdx
	leaq	8(%rsp), %rdi
.LVL22:
	.loc 1 499 12 view .LVU89
	movq	%r10, %rsi
	.loc 1 498 3 view .LVU90
	leaq	240(%rsp), %rax
	movl	$8, 16(%rsp)
	movq	%rax, 24(%rsp)
	leaq	48(%rsp), %rax
	movl	$48, 20(%rsp)
	movq	%rax, 32(%rsp)
	.loc 1 499 3 is_stmt 1 view .LVU91
	.loc 1 499 12 is_stmt 0 view .LVU92
	call	rpl_vasprintf@PLT
.LVL23:
	.loc 1 499 12 view .LVU93
	movl	%eax, %ebx
.LVL24:
	.loc 1 500 3 is_stmt 1 view .LVU94
	.loc 1 502 3 view .LVU95
	.loc 1 502 6 is_stmt 0 view .LVU96
	testl	%eax, %eax
	js	.L44
	.loc 1 505 3 is_stmt 1 view .LVU97
	.loc 1 505 9 is_stmt 0 view .LVU98
	movl	current_col(%rip), %eax
.LVL25:
	.loc 1 505 9 view .LVU99
	movq	stdout(%rip), %r8
	.loc 1 505 6 view .LVU100
	testl	%eax, %eax
	jle	.L36
	.loc 1 507 7 is_stmt 1 view .LVU101
	.loc 1 507 19 is_stmt 0 view .LVU102
	movl	max_col(%rip), %edx
	movq	40(%r8), %rcx
	movq	48(%r8), %rsi
	subl	%eax, %edx
	.loc 1 507 10 view .LVU103
	cmpl	%ebx, %edx
	jge	.L37
	.loc 1 509 11 is_stmt 1 view .LVU104
.LVL26:
.LBB156:
.LBI156:
	.file 2 "/usr/include/x86_64-linux-gnu/bits/stdio.h"
	.loc 2 108 1 view .LVU105
.LBB157:
	.loc 2 110 3 view .LVU106
	.loc 2 110 10 is_stmt 0 view .LVU107
	cmpq	%rsi, %rcx
	jnb	.L45
	leaq	1(%rcx), %rax
	movq	%rax, 40(%r8)
	movb	$10, (%rcx)
.L39:
.LVL27:
	.loc 2 110 10 view .LVU108
.LBE157:
.LBE156:
	.loc 1 510 11 is_stmt 1 view .LVU109
	.loc 1 510 23 is_stmt 0 view .LVU110
	movl	$0, current_col(%rip)
	movq	stdout(%rip), %r8
.L36:
	.loc 1 519 3 is_stmt 1 view .LVU111
	movq	8(%rsp), %rdi
	movq	%r8, %rsi
	call	fputs_unlocked@PLT
.LVL28:
	.loc 1 520 3 view .LVU112
	movq	8(%rsp), %rdi
	call	free@PLT
.LVL29:
	.loc 1 521 3 view .LVU113
	.loc 1 521 15 is_stmt 0 view .LVU114
	addl	%ebx, current_col(%rip)
	.loc 1 522 1 view .LVU115
	movq	40(%rsp), %rax
	xorq	%fs:40, %rax
	jne	.L46
	addq	$224, %rsp
	.cfi_remember_state
	.cfi_def_cfa_offset 16
	popq	%rbx
	.cfi_def_cfa_offset 8
.LVL30:
	.loc 1 522 1 view .LVU116
	ret
.LVL31:
	.p2align 4,,10
	.p2align 3
.L37:
	.cfi_restore_state
	.loc 1 514 11 is_stmt 1 view .LVU117
.LBB159:
.LBI159:
	.loc 2 108 1 view .LVU118
.LBB160:
	.loc 2 110 3 view .LVU119
	.loc 2 110 10 is_stmt 0 view .LVU120
	cmpq	%rsi, %rcx
	jnb	.L47
	leaq	1(%rcx), %rdx
	movq	%rdx, 40(%r8)
	movb	$32, (%rcx)
.L41:
.LVL32:
	.loc 2 110 10 view .LVU121
.LBE160:
.LBE159:
	.loc 1 515 11 is_stmt 1 view .LVU122
	.loc 1 515 22 is_stmt 0 view .LVU123
	addl	$1, %eax
	movq	stdout(%rip), %r8
	movl	%eax, current_col(%rip)
	jmp	.L36
.LVL33:
	.p2align 4,,10
	.p2align 3
.L47:
.LBB162:
.LBB161:
	.loc 2 110 10 view .LVU124
	movl	$32, %esi
	movq	%r8, %rdi
	call	__overflow@PLT
.LVL34:
	movl	current_col(%rip), %eax
	jmp	.L41
.LVL35:
	.p2align 4,,10
	.p2align 3
.L45:
	.loc 2 110 10 view .LVU125
.LBE161:
.LBE162:
.LBB163:
.LBB158:
	movl	$10, %esi
	movq	%r8, %rdi
	call	__overflow@PLT
.LVL36:
	jmp	.L39
.LVL37:
.L44:
	.loc 2 110 10 view .LVU126
.LBE158:
.LBE163:
	.loc 1 503 5 is_stmt 1 view .LVU127
	call	xalloc_die@PLT
.LVL38:
.L46:
	.loc 1 522 1 is_stmt 0 view .LVU128
	call	__stack_chk_fail@PLT
.LVL39:
	.cfi_endproc
.LFE135:
	.size	wrapf, .-wrapf
	.section	.rodata.str1.1
.LC4:
	.string	"speed %lu baud;"
.LC5:
	.string	"%lu\n"
	.section	.rodata.str1.8,"aMS",@progbits,1
	.align 8
.LC6:
	.string	"ispeed %lu baud; ospeed %lu baud;"
	.section	.rodata.str1.1
.LC7:
	.string	"%lu %lu\n"
	.text
	.p2align 4
	.type	display_speed, @function
display_speed:
.LVL40:
.LFB150:
	.loc 1 2050 1 is_stmt 1 view -0
	.cfi_startproc
	.loc 1 2051 3 view .LVU130
	.loc 1 2050 1 is_stmt 0 view .LVU131
	pushq	%r13
	.cfi_def_cfa_offset 16
	.cfi_offset 13, -16
	pushq	%r12
	.cfi_def_cfa_offset 24
	.cfi_offset 12, -24
	movq	%rdi, %r12
	pushq	%rbp
	.cfi_def_cfa_offset 32
	.cfi_offset 6, -32
	pushq	%rbx
	.cfi_def_cfa_offset 40
	.cfi_offset 3, -40
	movl	%esi, %ebx
	subq	$8, %rsp
	.cfi_def_cfa_offset 48
	.loc 1 2051 7 view .LVU132
	call	cfgetispeed@PLT
.LVL41:
	.loc 1 2051 6 view .LVU133
	testl	%eax, %eax
	je	.L51
	.loc 1 2051 34 discriminator 1 view .LVU134
	movq	%r12, %rdi
	call	cfgetispeed@PLT
.LVL42:
	.loc 1 2051 56 discriminator 1 view .LVU135
	movq	%r12, %rdi
	.loc 1 2051 34 discriminator 1 view .LVU136
	movl	%eax, %ebp
	.loc 1 2051 56 discriminator 1 view .LVU137
	call	cfgetospeed@PLT
.LVL43:
	.loc 1 2051 31 discriminator 1 view .LVU138
	cmpl	%eax, %ebp
	jne	.L72
.L51:
	.loc 1 2052 5 is_stmt 1 view .LVU139
	movq	%r12, %rdi
	call	cfgetospeed@PLT
.LVL44:
.LBB164:
.LBI164:
	.loc 1 2220 1 view .LVU140
.LBB165:
	.loc 1 2222 3 view .LVU141
.LBB166:
	.loc 1 2222 8 view .LVU142
	.loc 1 2222 19 view .LVU143
	leaq	24+speeds(%rip), %rdx
.LBE166:
.LBE165:
.LBE164:
	.loc 1 2052 5 is_stmt 0 view .LVU144
	xorl	%esi, %esi
.LBB170:
.LBB168:
.LBB167:
	.loc 1 2222 12 view .LVU145
	xorl	%ecx, %ecx
	jmp	.L50
.LVL45:
	.p2align 4,,10
	.p2align 3
.L53:
	.loc 1 2222 45 is_stmt 1 view .LVU146
	addq	$24, %rdx
	addl	$1, %ecx
.LVL46:
	.loc 1 2222 19 view .LVU147
	.loc 1 2222 3 is_stmt 0 view .LVU148
	cmpq	$0, -24(%rdx)
	je	.L65
	movl	-16(%rdx), %esi
.LVL47:
.L50:
	.loc 1 2223 5 is_stmt 1 view .LVU149
	.loc 1 2223 8 is_stmt 0 view .LVU150
	cmpl	%esi, %eax
	jne	.L53
	.loc 1 2224 7 is_stmt 1 view .LVU151
	.loc 1 2224 23 is_stmt 0 view .LVU152
	movslq	%ecx, %rcx
	.loc 1 2224 23 view .LVU153
	leaq	speeds(%rip), %rax
.LVL48:
	.loc 1 2224 23 view .LVU154
	leaq	(%rcx,%rcx,2), %rdx
	movq	16(%rax,%rdx,8), %rsi
.LVL49:
.L54:
	.loc 1 2224 23 view .LVU155
.LBE167:
.LBE168:
.LBE170:
	.loc 1 2052 5 view .LVU156
	testb	%bl, %bl
	leaq	.LC5(%rip), %rax
	leaq	.LC4(%rip), %rdi
	cmove	%rax, %rdi
	xorl	%eax, %eax
	call	wrapf
.LVL50:
.L56:
	.loc 1 2058 3 is_stmt 1 view .LVU157
	.loc 1 2058 6 is_stmt 0 view .LVU158
	testb	%bl, %bl
	jne	.L48
	.loc 1 2059 5 is_stmt 1 view .LVU159
	.loc 1 2059 17 is_stmt 0 view .LVU160
	movl	$0, current_col(%rip)
.L48:
	.loc 1 2060 1 view .LVU161
	addq	$8, %rsp
	.cfi_remember_state
	.cfi_def_cfa_offset 40
	popq	%rbx
	.cfi_def_cfa_offset 32
	popq	%rbp
	.cfi_def_cfa_offset 24
	popq	%r12
	.cfi_def_cfa_offset 16
.LVL51:
	.loc 1 2060 1 view .LVU162
	popq	%r13
	.cfi_def_cfa_offset 8
	ret
.LVL52:
	.p2align 4,,10
	.p2align 3
.L72:
	.cfi_restore_state
	.loc 1 2055 5 is_stmt 1 view .LVU163
	movq	%r12, %rdi
	leaq	24+speeds(%rip), %rbp
	call	cfgetospeed@PLT
.LVL53:
.LBB171:
.LBI171:
	.loc 1 2220 1 view .LVU164
.LBB172:
	.loc 1 2222 3 view .LVU165
.LBB173:
	.loc 1 2222 8 view .LVU166
	.loc 1 2222 19 view .LVU167
.LBE173:
.LBE172:
.LBE171:
	.loc 1 2055 5 is_stmt 0 view .LVU168
	movq	%rbp, %rdx
	xorl	%esi, %esi
.LBB177:
.LBB175:
.LBB174:
	.loc 1 2222 12 view .LVU169
	xorl	%ecx, %ecx
	jmp	.L59
.LVL54:
	.p2align 4,,10
	.p2align 3
.L57:
	.loc 1 2222 45 is_stmt 1 view .LVU170
	addq	$24, %rdx
	addl	$1, %ecx
.LVL55:
	.loc 1 2222 19 view .LVU171
	.loc 1 2222 3 is_stmt 0 view .LVU172
	cmpq	$0, -24(%rdx)
	je	.L67
	movl	-16(%rdx), %esi
.LVL56:
.L59:
	.loc 1 2223 5 is_stmt 1 view .LVU173
	.loc 1 2223 8 is_stmt 0 view .LVU174
	cmpl	%esi, %eax
	jne	.L57
	.loc 1 2224 7 is_stmt 1 view .LVU175
	.loc 1 2224 23 is_stmt 0 view .LVU176
	movslq	%ecx, %rcx
	.loc 1 2224 23 view .LVU177
	leaq	speeds(%rip), %rax
.LVL57:
	.loc 1 2224 23 view .LVU178
	leaq	(%rcx,%rcx,2), %rdx
	movq	16(%rax,%rdx,8), %r13
.LVL58:
.L58:
	.loc 1 2224 23 view .LVU179
.LBE174:
.LBE175:
.LBE177:
	.loc 1 2055 5 view .LVU180
	movq	%r12, %rdi
	call	cfgetispeed@PLT
.LVL59:
.LBB178:
.LBI178:
	.loc 1 2220 1 is_stmt 1 view .LVU181
.LBB179:
.LBB180:
	.loc 1 2222 19 view .LVU182
.LBE180:
.LBE179:
.LBE178:
	.loc 1 2055 5 is_stmt 0 view .LVU183
	xorl	%ecx, %ecx
.LBB184:
.LBB182:
.LBB181:
	.loc 1 2222 12 view .LVU184
	xorl	%edx, %edx
	jmp	.L62
.LVL60:
	.p2align 4,,10
	.p2align 3
.L60:
	.loc 1 2222 45 is_stmt 1 view .LVU185
	addq	$24, %rbp
	addl	$1, %edx
.LVL61:
	.loc 1 2222 19 view .LVU186
	.loc 1 2222 3 is_stmt 0 view .LVU187
	cmpq	$0, -24(%rbp)
	je	.L68
	movl	-16(%rbp), %ecx
.LVL62:
.L62:
	.loc 1 2223 5 is_stmt 1 view .LVU188
	.loc 1 2223 8 is_stmt 0 view .LVU189
	cmpl	%ecx, %eax
	jne	.L60
	.loc 1 2224 7 is_stmt 1 view .LVU190
	.loc 1 2224 23 is_stmt 0 view .LVU191
	movslq	%edx, %rdx
	.loc 1 2224 23 view .LVU192
	leaq	speeds(%rip), %rax
.LVL63:
	.loc 1 2224 23 view .LVU193
	leaq	(%rdx,%rdx,2), %rdx
.LVL64:
	.loc 1 2224 23 view .LVU194
	movq	16(%rax,%rdx,8), %rsi
.L61:
	.loc 1 2224 23 view .LVU195
.LBE181:
.LBE182:
.LBE184:
	.loc 1 2055 5 view .LVU196
	testb	%bl, %bl
	leaq	.LC7(%rip), %rax
	leaq	.LC6(%rip), %rdi
	movq	%r13, %rdx
	cmove	%rax, %rdi
	xorl	%eax, %eax
	call	wrapf
.LVL65:
	jmp	.L56
.LVL66:
	.p2align 4,,10
	.p2align 3
.L65:
.LBB185:
.LBB169:
	.loc 1 2225 10 view .LVU197
	xorl	%esi, %esi
	jmp	.L54
.LVL67:
	.p2align 4,,10
	.p2align 3
.L67:
	.loc 1 2225 10 view .LVU198
.LBE169:
.LBE185:
.LBB186:
.LBB176:
	xorl	%r13d, %r13d
	jmp	.L58
.LVL68:
	.p2align 4,,10
	.p2align 3
.L68:
	.loc 1 2225 10 view .LVU199
.LBE176:
.LBE186:
.LBB187:
.LBB183:
	xorl	%esi, %esi
	jmp	.L61
.LBE183:
.LBE187:
	.cfi_endproc
.LFE150:
	.size	display_speed, .-display_speed
	.section	.rodata.str1.1
.LC8:
	.string	"invalid integer argument"
.LC9:
	.string	"bB"
	.text
	.p2align 4
	.type	integer_arg, @function
integer_arg:
.LVL69:
.LFB159:
	.loc 1 2320 1 is_stmt 1 view -0
	.cfi_startproc
	.loc 1 2321 3 view .LVU201
	.loc 1 2320 1 is_stmt 0 view .LVU202
	pushq	%r12
	.cfi_def_cfa_offset 16
	.cfi_offset 12, -16
	.loc 1 2321 45 view .LVU203
	movl	$5, %edx
	.loc 1 2320 1 view .LVU204
	movq	%rsi, %r12
	.loc 1 2321 45 view .LVU205
	leaq	.LC8(%rip), %rsi
.LVL70:
	.loc 1 2320 1 view .LVU206
	pushq	%rbp
	.cfi_def_cfa_offset 24
	.cfi_offset 6, -24
	movq	%rdi, %rbp
	.loc 1 2321 45 view .LVU207
	xorl	%edi, %edi
.LVL71:
	.loc 1 2320 1 view .LVU208
	subq	$8, %rsp
	.cfi_def_cfa_offset 32
	.loc 1 2321 45 view .LVU209
	call	dcgettext@PLT
.LVL72:
	.loc 1 2321 10 view .LVU210
	subq	$8, %rsp
	.cfi_def_cfa_offset 40
	movq	%r12, %rcx
	movq	%rbp, %rdi
	pushq	$0
	.cfi_def_cfa_offset 48
	.loc 1 2321 45 view .LVU211
	movq	%rax, %r9
	.loc 1 2321 10 view .LVU212
	leaq	.LC9(%rip), %r8
	xorl	%edx, %edx
	xorl	%esi, %esi
	call	xnumtoumax@PLT
.LVL73:
	.loc 1 2322 1 view .LVU213
	addq	$24, %rsp
	.cfi_def_cfa_offset 24
	popq	%rbp
	.cfi_def_cfa_offset 16
.LVL74:
	.loc 1 2322 1 view .LVU214
	popq	%r12
	.cfi_def_cfa_offset 8
.LVL75:
	.loc 1 2322 1 view .LVU215
	ret
	.cfi_endproc
.LFE159:
	.size	integer_arg, .-integer_arg
	.p2align 4
	.type	visible.part.0, @function
visible.part.0:
.LVL76:
.LFB160:
	.loc 1 2267 1 is_stmt 1 view -0
	.cfi_startproc
	.loc 1 2275 3 view .LVU217
	.loc 1 2275 6 is_stmt 0 view .LVU218
	cmpb	$31, %dil
	jbe	.L76
	.loc 1 2277 7 is_stmt 1 view .LVU219
	.loc 1 2277 10 is_stmt 0 view .LVU220
	cmpb	$126, %dil
	ja	.L77
	.loc 1 2278 9 is_stmt 1 view .LVU221
.LVL77:
	.loc 1 2278 15 is_stmt 0 view .LVU222
	leaq	1+buf.7567(%rip), %rax
.LVL78:
	.loc 1 2310 3 is_stmt 1 view .LVU223
	.loc 1 2278 18 is_stmt 0 view .LVU224
	movb	%dil, buf.7567(%rip)
	.loc 1 2310 10 view .LVU225
	movb	$0, (%rax)
	.loc 1 2311 3 is_stmt 1 view .LVU226
	.loc 1 2312 1 is_stmt 0 view .LVU227
	leaq	buf.7567(%rip), %rax
.LVL79:
	.loc 1 2312 1 view .LVU228
	ret
.LVL80:
	.p2align 4,,10
	.p2align 3
.L76:
	.loc 1 2307 7 is_stmt 1 view .LVU229
	.loc 1 2308 21 is_stmt 0 view .LVU230
	addl	$64, %edi
.LVL81:
	.loc 1 2307 16 view .LVU231
	movb	$94, buf.7567(%rip)
	.loc 1 2308 7 is_stmt 1 view .LVU232
.LVL82:
	.loc 1 2308 13 is_stmt 0 view .LVU233
	leaq	2+buf.7567(%rip), %rax
.LVL83:
	.loc 1 2308 21 view .LVU234
	movb	%dil, 1+buf.7567(%rip)
.L78:
	.loc 1 2310 3 is_stmt 1 view .LVU235
	.loc 1 2310 10 is_stmt 0 view .LVU236
	movb	$0, (%rax)
	.loc 1 2311 3 is_stmt 1 view .LVU237
	.loc 1 2312 1 is_stmt 0 view .LVU238
	leaq	buf.7567(%rip), %rax
.LVL84:
	.loc 1 2312 1 view .LVU239
	ret
.LVL85:
	.p2align 4,,10
	.p2align 3
.L77:
	.loc 1 2279 12 is_stmt 1 view .LVU240
	.loc 1 2279 15 is_stmt 0 view .LVU241
	cmpb	$127, %dil
	je	.L82
	.loc 1 2286 11 is_stmt 1 view .LVU242
.LVL86:
	.loc 1 2287 11 view .LVU243
	.loc 1 2286 20 is_stmt 0 view .LVU244
	movl	$11597, %edx
	movw	%dx, buf.7567(%rip)
	.loc 1 2288 11 is_stmt 1 view .LVU245
	.loc 1 2288 14 is_stmt 0 view .LVU246
	cmpb	$-97, %dil
	jbe	.L80
	.loc 1 2290 15 is_stmt 1 view .LVU247
	.loc 1 2290 18 is_stmt 0 view .LVU248
	cmpb	$-1, %dil
	je	.L81
	.loc 1 2291 17 is_stmt 1 view .LVU249
.LVL87:
	.loc 1 2291 31 is_stmt 0 view .LVU250
	addl	$-128, %edi
.LVL88:
	.loc 1 2291 23 view .LVU251
	leaq	3+buf.7567(%rip), %rax
.LVL89:
	.loc 1 2291 31 view .LVU252
	movb	%dil, 2+buf.7567(%rip)
	jmp	.L78
.LVL90:
	.p2align 4,,10
	.p2align 3
.L82:
	.loc 1 2281 11 is_stmt 1 view .LVU253
	.loc 1 2282 11 view .LVU254
	.loc 1 2281 20 is_stmt 0 view .LVU255
	movl	$16222, %ecx
	.loc 1 2282 17 view .LVU256
	leaq	2+buf.7567(%rip), %rax
.LVL91:
	.loc 1 2281 20 view .LVU257
	movw	%cx, buf.7567(%rip)
	jmp	.L78
.LVL92:
	.p2align 4,,10
	.p2align 3
.L80:
	.loc 1 2300 15 is_stmt 1 view .LVU258
	.loc 1 2301 35 is_stmt 0 view .LVU259
	subl	$64, %edi
.LVL93:
	.loc 1 2300 24 view .LVU260
	movb	$94, 2+buf.7567(%rip)
	.loc 1 2301 15 is_stmt 1 view .LVU261
.LVL94:
	.loc 1 2301 21 is_stmt 0 view .LVU262
	leaq	4+buf.7567(%rip), %rax
.LVL95:
	.loc 1 2301 35 view .LVU263
	movb	%dil, 3+buf.7567(%rip)
	jmp	.L78
.LVL96:
	.p2align 4,,10
	.p2align 3
.L81:
	.loc 1 2294 19 is_stmt 1 view .LVU264
	.loc 1 2295 19 view .LVU265
	.loc 1 2294 28 is_stmt 0 view .LVU266
	movl	$16222, %eax
	movw	%ax, 2+buf.7567(%rip)
	.loc 1 2295 25 view .LVU267
	leaq	4+buf.7567(%rip), %rax
.LVL97:
	.loc 1 2295 25 view .LVU268
	jmp	.L78
	.cfi_endproc
.LFE160:
	.size	visible.part.0, .-visible.part.0
	.section	.rodata.str1.1
.LC10:
	.string	"%s"
	.text
	.p2align 4
	.type	set_window_size, @function
set_window_size:
.LVL98:
.LFB143:
	.loc 1 1721 1 is_stmt 1 view -0
	.cfi_startproc
	.loc 1 1721 1 is_stmt 0 view .LVU270
	pushq	%r14
	.cfi_def_cfa_offset 16
	.cfi_offset 14, -16
	pushq	%r13
	.cfi_def_cfa_offset 24
	.cfi_offset 13, -24
	movq	%rdx, %r13
	pushq	%r12
	.cfi_def_cfa_offset 32
	.cfi_offset 12, -32
	pushq	%rbp
	.cfi_def_cfa_offset 40
	.cfi_offset 6, -40
	movl	%edi, %ebp
.LBB188:
.LBB189:
	.loc 1 1715 13 view .LVU271
	xorl	%edi, %edi
.LVL99:
	.loc 1 1715 13 view .LVU272
.LBE189:
.LBE188:
	.loc 1 1721 1 view .LVU273
	pushq	%rbx
	.cfi_def_cfa_offset 48
	.cfi_offset 3, -48
	movl	%esi, %ebx
.LBB192:
.LBB190:
	.loc 1 1715 13 view .LVU274
	movl	$21523, %esi
.LVL100:
	.loc 1 1715 13 view .LVU275
.LBE190:
.LBE192:
	.loc 1 1721 1 view .LVU276
	subq	$16, %rsp
	.cfi_def_cfa_offset 64
	.loc 1 1721 1 view .LVU277
	movq	%fs:40, %rax
	movq	%rax, 8(%rsp)
	xorl	%eax, %eax
	.loc 1 1722 3 is_stmt 1 view .LVU278
	.loc 1 1724 3 view .LVU279
.LVL101:
.LBB193:
.LBI188:
	.loc 1 1713 1 view .LVU280
.LBB191:
	.loc 1 1715 3 view .LVU281
	.loc 1 1715 13 is_stmt 0 view .LVU282
	movq	%rsp, %r12
	movq	%r12, %rdx
.LVL102:
	.loc 1 1715 13 view .LVU283
	call	ioctl@PLT
.LVL103:
	.loc 1 1716 3 is_stmt 1 view .LVU284
	.loc 1 1716 3 is_stmt 0 view .LVU285
.LBE191:
.LBE193:
	.loc 1 1724 6 view .LVU286
	testl	%eax, %eax
	je	.L84
	.loc 1 1726 7 is_stmt 1 view .LVU287
	.loc 1 1726 11 is_stmt 0 view .LVU288
	call	__errno_location@PLT
.LVL104:
	.loc 1 1726 10 view .LVU289
	cmpl	$22, (%rax)
	.loc 1 1726 11 view .LVU290
	movq	%rax, %r14
	.loc 1 1726 10 view .LVU291
	jne	.L94
	.loc 1 1728 7 is_stmt 1 view .LVU292
.LVL105:
.LBB194:
.LBI194:
	.file 3 "/usr/include/x86_64-linux-gnu/bits/string_fortified.h"
	.loc 3 59 1 view .LVU293
.LBB195:
	.loc 3 71 3 view .LVU294
	.loc 3 71 10 is_stmt 0 view .LVU295
	movq	$0, (%r12)
.LVL106:
.L84:
	.loc 3 71 10 view .LVU296
.LBE195:
.LBE194:
	.loc 1 1731 3 is_stmt 1 view .LVU297
	.loc 1 1731 6 is_stmt 0 view .LVU298
	testl	%ebp, %ebp
	js	.L86
	.loc 1 1732 5 is_stmt 1 view .LVU299
	.loc 1 1732 16 is_stmt 0 view .LVU300
	movw	%bp, (%rsp)
.L86:
	.loc 1 1733 3 is_stmt 1 view .LVU301
	.loc 1 1733 6 is_stmt 0 view .LVU302
	testl	%ebx, %ebx
	js	.L87
	.loc 1 1734 5 is_stmt 1 view .LVU303
	.loc 1 1734 16 is_stmt 0 view .LVU304
	movw	%bx, 2(%rsp)
.L87:
	.loc 1 1777 3 is_stmt 1 view .LVU305
	.loc 1 1777 7 is_stmt 0 view .LVU306
	xorl	%edi, %edi
	xorl	%eax, %eax
	movq	%r12, %rdx
	movl	$21524, %esi
	call	ioctl@PLT
.LVL107:
	.loc 1 1777 6 view .LVU307
	testl	%eax, %eax
	jne	.L95
	.loc 1 1779 1 view .LVU308
	movq	8(%rsp), %rax
	xorq	%fs:40, %rax
	jne	.L96
	addq	$16, %rsp
	.cfi_remember_state
	.cfi_def_cfa_offset 48
	popq	%rbx
	.cfi_def_cfa_offset 40
.LVL108:
	.loc 1 1779 1 view .LVU309
	popq	%rbp
	.cfi_def_cfa_offset 32
.LVL109:
	.loc 1 1779 1 view .LVU310
	popq	%r12
	.cfi_def_cfa_offset 24
	popq	%r13
	.cfi_def_cfa_offset 16
.LVL110:
	.loc 1 1779 1 view .LVU311
	popq	%r14
	.cfi_def_cfa_offset 8
	ret
.LVL111:
.L94:
	.cfi_restore_state
.LBB196:
	.loc 1 1727 9 is_stmt 1 view .LVU312
	movq	%r13, %rdx
	movl	$3, %esi
	xorl	%edi, %edi
	call	quotearg_n_style_colon@PLT
.LVL112:
	movl	(%r14), %esi
	movl	$1, %edi
	leaq	.LC10(%rip), %rdx
	movq	%rax, %rcx
	xorl	%eax, %eax
	call	error@PLT
.LVL113:
.L96:
	.loc 1 1727 9 is_stmt 0 view .LVU313
.LBE196:
	.loc 1 1779 1 view .LVU314
	call	__stack_chk_fail@PLT
.LVL114:
.L95:
.LBB197:
	.loc 1 1778 5 is_stmt 1 view .LVU315
	movq	%r13, %rdx
	movl	$3, %esi
	xorl	%edi, %edi
	call	quotearg_n_style_colon@PLT
.LVL115:
	movq	%rax, %r12
	call	__errno_location@PLT
.LVL116:
	movq	%r12, %rcx
	movl	$1, %edi
	leaq	.LC10(%rip), %rdx
	movl	(%rax), %esi
	xorl	%eax, %eax
	call	error@PLT
.LVL117:
.LBE197:
	.cfi_endproc
.LFE143:
	.size	set_window_size, .-set_window_size
	.section	.rodata.str1.8
	.align 8
.LC11:
	.string	"%s: no size information for this device"
	.section	.rodata.str1.1
.LC12:
	.string	"%d %d\n"
.LC13:
	.string	"rows %d; columns %d;"
	.text
	.p2align 4
	.type	display_window_size, @function
display_window_size:
.LVL118:
.LFB144:
	.loc 1 1783 1 view -0
	.cfi_startproc
	.loc 1 1783 1 is_stmt 0 view .LVU317
	pushq	%r12
	.cfi_def_cfa_offset 16
	.cfi_offset 12, -16
	movq	%rsi, %r12
.LBB208:
.LBB209:
	.loc 1 1715 13 view .LVU318
	movl	$21523, %esi
.LVL119:
	.loc 1 1715 13 view .LVU319
.LBE209:
.LBE208:
	.loc 1 1783 1 view .LVU320
	pushq	%rbp
	.cfi_def_cfa_offset 24
	.cfi_offset 6, -24
	pushq	%rbx
	.cfi_def_cfa_offset 32
	.cfi_offset 3, -32
	movl	%edi, %ebx
.LBB212:
.LBB210:
	.loc 1 1715 13 view .LVU321
	xorl	%edi, %edi
.LVL120:
	.loc 1 1715 13 view .LVU322
.LBE210:
.LBE212:
	.loc 1 1783 1 view .LVU323
	subq	$16, %rsp
	.cfi_def_cfa_offset 48
	.loc 1 1783 1 view .LVU324
	movq	%fs:40, %rax
	movq	%rax, 8(%rsp)
	xorl	%eax, %eax
	.loc 1 1784 3 is_stmt 1 view .LVU325
	.loc 1 1786 3 view .LVU326
.LVL121:
.LBB213:
.LBI208:
	.loc 1 1713 1 view .LVU327
.LBB211:
	.loc 1 1715 3 view .LVU328
	.loc 1 1715 13 is_stmt 0 view .LVU329
	movq	%rsp, %rdx
	call	ioctl@PLT
.LVL122:
	.loc 1 1716 3 is_stmt 1 view .LVU330
	.loc 1 1716 3 is_stmt 0 view .LVU331
.LBE211:
.LBE213:
	.loc 1 1786 6 view .LVU332
	testl	%eax, %eax
	je	.L98
	.loc 1 1788 7 is_stmt 1 view .LVU333
	.loc 1 1788 11 is_stmt 0 view .LVU334
	call	__errno_location@PLT
.LVL123:
	.loc 1 1788 10 view .LVU335
	cmpl	$22, (%rax)
	.loc 1 1788 11 view .LVU336
	movq	%rax, %rbp
	.loc 1 1788 10 view .LVU337
	jne	.L105
.LVL124:
.LBB214:
.LBI214:
	.loc 1 1782 1 is_stmt 1 view .LVU338
.LBB215:
	.loc 1 1790 7 view .LVU339
	.loc 1 1790 10 is_stmt 0 view .LVU340
	testb	%bl, %bl
	je	.L106
.LVL125:
.L97:
	.loc 1 1790 10 view .LVU341
.LBE215:
.LBE214:
	.loc 1 1802 1 view .LVU342
	movq	8(%rsp), %rax
	xorq	%fs:40, %rax
	jne	.L107
	addq	$16, %rsp
	.cfi_remember_state
	.cfi_def_cfa_offset 32
	popq	%rbx
	.cfi_def_cfa_offset 24
	popq	%rbp
	.cfi_def_cfa_offset 16
	popq	%r12
	.cfi_def_cfa_offset 8
.LVL126:
	.loc 1 1802 1 view .LVU343
	ret
.LVL127:
	.p2align 4,,10
	.p2align 3
.L98:
	.cfi_restore_state
	.loc 1 1797 7 is_stmt 1 view .LVU344
	movzwl	2(%rsp), %edx
	movzwl	(%rsp), %esi
	testb	%bl, %bl
	je	.L108
	leaq	.LC13(%rip), %rdi
	xorl	%eax, %eax
	call	wrapf
.LVL128:
	.loc 1 1799 7 view .LVU345
	jmp	.L97
	.p2align 4,,10
	.p2align 3
.L108:
	.loc 1 1797 7 is_stmt 0 view .LVU346
	leaq	.LC12(%rip), %rdi
	xorl	%eax, %eax
	call	wrapf
.LVL129:
	.loc 1 1799 7 is_stmt 1 view .LVU347
	.loc 1 1800 9 view .LVU348
	.loc 1 1800 21 is_stmt 0 view .LVU349
	movl	$0, current_col(%rip)
	jmp	.L97
.L105:
.LBB218:
	.loc 1 1789 9 is_stmt 1 view .LVU350
	movq	%r12, %rdx
	movl	$3, %esi
	xorl	%edi, %edi
	call	quotearg_n_style_colon@PLT
.LVL130:
	movl	0(%rbp), %esi
	movl	$1, %edi
	leaq	.LC10(%rip), %rdx
	movq	%rax, %rcx
	xorl	%eax, %eax
	call	error@PLT
.LVL131:
.L107:
	.loc 1 1789 9 is_stmt 0 view .LVU351
.LBE218:
	.loc 1 1802 1 view .LVU352
	call	__stack_chk_fail@PLT
.LVL132:
.L106:
.LBB219:
.LBB217:
.LBB216:
	.loc 1 1791 9 is_stmt 1 view .LVU353
	movq	%r12, %rdx
	movl	$3, %esi
	xorl	%edi, %edi
	call	quotearg_n_style_colon@PLT
.LVL133:
	movl	$5, %edx
	leaq	.LC11(%rip), %rsi
	xorl	%edi, %edi
	movq	%rax, %r12
.LVL134:
	.loc 1 1791 9 is_stmt 0 view .LVU354
	call	dcgettext@PLT
.LVL135:
	movq	%r12, %rcx
	xorl	%esi, %esi
	movl	$1, %edi
	movq	%rax, %rdx
	xorl	%eax, %eax
	call	error@PLT
.LVL136:
.LBE216:
.LBE217:
.LBE219:
	.cfi_endproc
.LFE144:
	.size	display_window_size, .-display_window_size
	.section	.rodata.str1.1
.LC14:
	.string	"stty"
.LC15:
	.string	" invocation"
	.section	.rodata.str1.8
	.align 8
.LC16:
	.string	"Try '%s --help' for more information.\n"
	.align 8
.LC17:
	.string	"Usage: %s [-F DEVICE | --file=DEVICE] [SETTING]...\n  or:  %s [-F DEVICE | --file=DEVICE] [-a|--all]\n  or:  %s [-F DEVICE | --file=DEVICE] [-g|--save]\n"
	.align 8
.LC18:
	.string	"Print or change terminal characteristics.\n"
	.align 8
.LC19:
	.string	"\nMandatory arguments to long options are mandatory for short options too.\n"
	.align 8
.LC20:
	.string	"  -a, --all          print all current settings in human-readable form\n  -g, --save         print all current settings in a stty-readable form\n  -F, --file=DEVICE  open and use the specified DEVICE instead of stdin\n"
	.align 8
.LC21:
	.string	"      --help     display this help and exit\n"
	.align 8
.LC22:
	.string	"      --version  output version information and exit\n"
	.align 8
.LC23:
	.string	"\nOptional - before SETTING indicates negation.  An * marks non-POSIX\nsettings.  The underlying system defines which settings are available.\n"
	.section	.rodata.str1.1
.LC24:
	.string	"\nSpecial characters:\n"
	.section	.rodata.str1.8
	.align 8
.LC25:
	.string	" * discard CHAR  CHAR will toggle discarding of output\n"
	.align 8
.LC26:
	.string	"   eof CHAR      CHAR will send an end of file (terminate the input)\n   eol CHAR      CHAR will end the line\n"
	.align 8
.LC27:
	.string	" * eol2 CHAR     alternate CHAR for ending the line\n"
	.align 8
.LC28:
	.string	"   erase CHAR    CHAR will erase the last character typed\n   intr CHAR     CHAR will send an interrupt signal\n   kill CHAR     CHAR will erase the current line\n"
	.align 8
.LC29:
	.string	" * lnext CHAR    CHAR will enter the next character quoted\n"
	.align 8
.LC30:
	.string	"   quit CHAR     CHAR will send a quit signal\n"
	.align 8
.LC31:
	.string	" * rprnt CHAR    CHAR will redraw the current line\n"
	.align 8
.LC32:
	.string	"   start CHAR    CHAR will restart the output after stopping it\n   stop CHAR     CHAR will stop the output\n   susp CHAR     CHAR will send a terminal stop signal\n"
	.align 8
.LC33:
	.string	" * swtch CHAR    CHAR will switch to a different shell layer\n"
	.align 8
.LC34:
	.string	" * werase CHAR   CHAR will erase the last word typed\n"
	.align 8
.LC35:
	.string	"\nSpecial settings:\n   N             set the input and output speeds to N bauds\n"
	.align 8
.LC36:
	.string	" * cols N        tell the kernel that the terminal has N columns\n * columns N     same as cols N\n"
	.section	.rodata.str1.1
.LC37:
	.string	"on"
.LC38:
	.string	"off"
	.section	.rodata.str1.8
	.align 8
.LC39:
	.string	" * [-]drain      wait for transmission before applying settings (%s by default)\n"
	.align 8
.LC40:
	.string	"   ispeed N      set the input speed to N\n"
	.align 8
.LC41:
	.string	" * line N        use line discipline N\n"
	.align 8
.LC42:
	.string	"   min N         with -icanon, set N characters minimum for a completed read\n   ospeed N      set the output speed to N\n"
	.align 8
.LC43:
	.string	" * rows N        tell the kernel that the terminal has N rows\n * size          print the number of rows and columns according to the kernel\n"
	.align 8
.LC44:
	.string	"   speed         print the terminal speed\n   time N        with -icanon, set read timeout of N tenths of a second\n"
	.align 8
.LC45:
	.string	"\nControl settings:\n   [-]clocal     disable modem control signals\n   [-]cread      allow input to be received\n"
	.align 8
.LC46:
	.string	" * [-]crtscts    enable RTS/CTS handshaking\n"
	.align 8
.LC47:
	.string	"   csN           set character size to N bits, N in [5..8]\n"
	.align 8
.LC48:
	.ascii	"   [-]cstopb     use two stop bits per character (o"
	.string	"ne with '-')\n   [-]hup        send a hangup signal when the last process closes the tty\n   [-]hupcl      same as [-]hup\n   [-]parenb     generate parity bit in output and expect parity bit in input\n   [-]parodd     set odd parity (or even parity with '-')\n"
	.align 8
.LC49:
	.string	" * [-]cmspar     use \"stick\" (mark/space) parity\n"
	.align 8
.LC50:
	.string	"\nInput settings:\n   [-]brkint     breaks cause an interrupt signal\n   [-]icrnl      translate carriage return to newline\n   [-]ignbrk     ignore break characters\n   [-]igncr      ignore carriage return\n   [-]ignpar     ignore characters with parity errors\n"
	.align 8
.LC51:
	.string	" * [-]imaxbel    beep and do not flush a full input buffer on a character\n"
	.align 8
.LC52:
	.string	"   [-]inlcr      translate newline to carriage return\n   [-]inpck      enable input parity checking\n   [-]istrip     clear high (8th) bit of input characters\n"
	.align 8
.LC53:
	.string	" * [-]iutf8      assume input characters are UTF-8 encoded\n"
	.align 8
.LC54:
	.string	" * [-]iuclc      translate uppercase characters to lowercase\n"
	.align 8
.LC55:
	.string	" * [-]ixany      let any character restart output, not only start character\n"
	.align 8
.LC56:
	.string	"   [-]ixoff      enable sending of start/stop characters\n   [-]ixon       enable XON/XOFF flow control\n   [-]parmrk     mark parity errors (with a 255-0-character sequence)\n   [-]tandem     same as [-]ixoff\n"
	.section	.rodata.str1.1
.LC57:
	.string	"\nOutput settings:\n"
	.section	.rodata.str1.8
	.align 8
.LC58:
	.string	" * bsN           backspace delay style, N in [0..1]\n"
	.align 8
.LC59:
	.string	" * crN           carriage return delay style, N in [0..3]\n"
	.align 8
.LC60:
	.string	" * ffN           form feed delay style, N in [0..1]\n"
	.align 8
.LC61:
	.string	" * nlN           newline delay style, N in [0..1]\n"
	.align 8
.LC62:
	.string	" * [-]ocrnl      translate carriage return to newline\n"
	.align 8
.LC63:
	.string	" * [-]ofdel      use delete characters for fill instead of NUL characters\n"
	.align 8
.LC64:
	.string	" * [-]ofill      use fill (padding) characters instead of timing for delays\n"
	.align 8
.LC65:
	.string	" * [-]olcuc      translate lowercase characters to uppercase\n"
	.align 8
.LC66:
	.string	" * [-]onlcr      translate newline to carriage return-newline\n"
	.align 8
.LC67:
	.string	" * [-]onlret     newline performs a carriage return\n"
	.align 8
.LC68:
	.string	" * [-]onocr      do not print carriage returns in the first column\n"
	.align 8
.LC69:
	.string	"   [-]opost      postprocess output\n"
	.align 8
.LC70:
	.string	" * tabN          horizontal tab delay style, N in [0..3]\n * tabs          same as tab0\n * -tabs         same as tab3\n"
	.align 8
.LC71:
	.string	" * vtN           vertical tab delay style, N in [0..1]\n"
	.align 8
.LC72:
	.string	"\nLocal settings:\n   [-]crterase   echo erase characters as backspace-space-backspace\n"
	.align 8
.LC73:
	.string	" * crtkill       kill all line by obeying the echoprt and echoe settings\n * -crtkill      kill all line by obeying the echoctl and echok settings\n"
	.align 8
.LC74:
	.string	" * [-]ctlecho    echo control characters in hat notation ('^c')\n"
	.align 8
.LC75:
	.string	"   [-]echo       echo input characters\n"
	.align 8
.LC76:
	.string	" * [-]echoctl    same as [-]ctlecho\n"
	.align 8
.LC77:
	.string	"   [-]echoe      same as [-]crterase\n   [-]echok      echo a newline after a kill character\n"
	.align 8
.LC78:
	.string	" * [-]echoke     same as [-]crtkill\n"
	.align 8
.LC79:
	.string	"   [-]echonl     echo newline even if not echoing other characters\n"
	.align 8
.LC80:
	.string	" * [-]echoprt    echo erased characters backward, between '\\' and '/'\n"
	.align 8
.LC81:
	.string	" * [-]extproc    enable \"LINEMODE\"; useful with high latency links\n"
	.align 8
.LC82:
	.string	" * [-]flusho     discard output\n"
	.align 8
.LC83:
	.string	"   [-]icanon     enable special characters: %s\n   [-]iexten     enable non-POSIX special characters\n"
	.section	.rodata.str1.1
.LC84:
	.string	"erase, kill, werase, rprnt"
	.section	.rodata.str1.8
	.align 8
.LC85:
	.string	"   [-]isig       enable interrupt, quit, and suspend special characters\n   [-]noflsh     disable flushing after interrupt and quit special characters\n"
	.align 8
.LC86:
	.string	" * [-]prterase   same as [-]echoprt\n"
	.align 8
.LC87:
	.string	" * [-]tostop     stop background jobs that try to write to the terminal\n"
	.align 8
.LC88:
	.string	" * [-]xcase      with icanon, escape with '\\' for uppercase characters\n"
	.section	.rodata.str1.1
.LC89:
	.string	"\nCombination settings:\n"
	.section	.rodata.str1.8
	.align 8
.LC90:
	.string	" * [-]LCASE      same as [-]lcase\n"
	.align 8
.LC91:
	.string	"   cbreak        same as -icanon\n   -cbreak       same as icanon\n"
	.align 8
.LC92:
	.string	"   cooked        same as brkint ignpar istrip icrnl ixon opost isig\n                 icanon, eof and eol characters to their default values\n   -cooked       same as raw\n"
	.section	.rodata.str1.1
.LC93:
	.string	"   crt           same as %s\n"
.LC94:
	.string	"echoe echoctl echoke"
	.section	.rodata.str1.8
	.align 8
.LC95:
	.string	"   dec           same as %s intr ^c erase 0177\n                 kill ^u\n"
	.section	.rodata.str1.1
.LC96:
	.string	"echoe echoctl echoke -ixany"
	.section	.rodata.str1.8
	.align 8
.LC97:
	.string	" * [-]decctlq    same as [-]ixany\n"
	.align 8
.LC98:
	.string	"   ek            erase and kill characters to their default values\n   evenp         same as parenb -parodd cs7\n   -evenp        same as -parenb cs8\n"
	.align 8
.LC99:
	.string	" * [-]lcase      same as xcase iuclc olcuc\n"
	.align 8
.LC100:
	.string	"   litout        same as -parenb -istrip -opost cs8\n   -litout       same as parenb istrip opost cs7\n"
	.align 8
.LC101:
	.string	"   nl            same as %s\n   -nl           same as %s\n"
	.align 8
.LC102:
	.string	"icrnl -inlcr -igncr onlcr -ocrnl -onlret"
	.section	.rodata.str1.1
.LC103:
	.string	"-icrnl -onlcr"
	.section	.rodata.str1.8
	.align 8
.LC104:
	.string	"   oddp          same as parenb parodd cs7\n   -oddp         same as -parenb cs8\n   [-]parity     same as [-]evenp\n   pass8         same as -parenb -istrip cs8\n   -pass8        same as parenb istrip cs7\n"
	.align 8
.LC105:
	.string	"   raw           same as -ignbrk -brkint -ignpar -parmrk -inpck -istrip\n                 -inlcr -igncr -icrnl -ixon -ixoff -icanon -opost\n                 -isig%s min 1 time 0\n   -raw          same as cooked\n"
	.align 8
.LC106:
	.string	" -iuclc -ixany -imaxbel -xcase"
	.align 8
.LC107:
	.string	"   sane          same as cread -ignbrk brkint -inlcr -igncr icrnl\n                 icanon iexten echo echoe echok -echonl -noflsh\n                 %s\n                 %s\n                 %s,\n                 all special characters to their default values\n"
	.align 8
.LC108:
	.string	"isig -tostop -ofdel -echoprt echoctl echoke -extproc -flusho"
	.align 8
.LC109:
	.string	"opost -ofill onlcr -onocr -onlret nl0 cr0 tab0 bs0 vt0 ff0"
	.align 8
.LC110:
	.string	"-ixoff -iutf8 -iuclc -ixany imaxbel -xcase -olcuc -ocrnl"
	.align 8
.LC111:
	.ascii	"\nHandle the tty line"
	.string	" connected to standard input.  Without arguments,\nprints baud rate, line discipline, and deviations from stty sane.  In\nsettings, CHAR is taken literally, or coded as in ^c, 0x37, 0177 or\n127; special values ^- or undef used to disable special characters.\n"
	.section	.rodata.str1.1
.LC112:
	.string	"["
.LC113:
	.string	"test invocation"
.LC114:
	.string	"coreutils"
.LC115:
	.string	"Multi-call invocation"
.LC116:
	.string	"sha224sum"
.LC117:
	.string	"sha2 utilities"
.LC118:
	.string	"sha256sum"
.LC119:
	.string	"sha384sum"
.LC120:
	.string	"sha512sum"
.LC121:
	.string	"\n%s online help: <%s>\n"
	.section	.rodata.str1.8
	.align 8
.LC122:
	.string	"https://www.gnu.org/software/coreutils/"
	.section	.rodata.str1.1
.LC123:
	.string	"GNU coreutils"
.LC124:
	.string	"en_"
	.section	.rodata.str1.8
	.align 8
.LC125:
	.string	"Report any translation bugs to <https://translationproject.org/team/>\n"
	.section	.rodata.str1.1
.LC126:
	.string	"Full documentation <%s%s>\n"
	.section	.rodata.str1.8
	.align 8
.LC127:
	.string	"or available locally via: info '(coreutils) %s%s'\n"
	.text
	.p2align 4
	.globl	usage
	.type	usage, @function
usage:
.LVL137:
.LFB136:
	.loc 1 526 1 is_stmt 1 view -0
	.cfi_startproc
	.loc 1 526 1 is_stmt 0 view .LVU356
	endbr64
	pushq	%r13
	.cfi_def_cfa_offset 16
	.cfi_offset 13, -16
	.loc 1 528 5 view .LVU357
	movl	$5, %edx
	.loc 1 526 1 view .LVU358
	pushq	%r12
	.cfi_def_cfa_offset 24
	.cfi_offset 12, -24
	pushq	%rbp
	.cfi_def_cfa_offset 32
	.cfi_offset 6, -32
	movl	%edi, %ebp
	pushq	%rbx
	.cfi_def_cfa_offset 40
	.cfi_offset 3, -40
	subq	$136, %rsp
	.cfi_def_cfa_offset 176
	movq	program_name(%rip), %r12
	.loc 1 526 1 view .LVU359
	movq	%fs:40, %rax
	movq	%rax, 120(%rsp)
	xorl	%eax, %eax
	.loc 1 527 3 is_stmt 1 view .LVU360
	.loc 1 527 6 is_stmt 0 view .LVU361
	testl	%edi, %edi
	je	.L110
	.loc 1 528 5 is_stmt 1 view .LVU362
	.loc 1 528 5 view .LVU363
	leaq	.LC16(%rip), %rsi
	xorl	%edi, %edi
.LVL138:
	.loc 1 528 5 is_stmt 0 view .LVU364
	call	dcgettext@PLT
.LVL139:
.LBB248:
.LBB249:
	.file 4 "/usr/include/x86_64-linux-gnu/bits/stdio2.h"
	.loc 4 100 10 view .LVU365
	movq	stderr(%rip), %rdi
	movq	%r12, %rcx
	movl	$1, %esi
.LBE249:
.LBE248:
	.loc 1 528 5 view .LVU366
	movq	%rax, %rdx
.LVL140:
.LBB251:
.LBI248:
	.loc 4 98 1 is_stmt 1 view .LVU367
.LBB250:
	.loc 4 100 3 view .LVU368
	.loc 4 100 10 is_stmt 0 view .LVU369
	xorl	%eax, %eax
.LVL141:
	.loc 4 100 10 view .LVU370
	call	__fprintf_chk@PLT
.LVL142:
.L111:
	.loc 4 100 10 view .LVU371
.LBE250:
.LBE251:
	.loc 1 1077 3 is_stmt 1 view .LVU372
	movl	%ebp, %edi
	call	exit@PLT
.LVL143:
.L110:
	.loc 1 531 7 view .LVU373
	.loc 1 531 15 is_stmt 0 view .LVU374
	xorl	%edi, %edi
.LVL144:
	.loc 1 531 15 view .LVU375
	leaq	.LC17(%rip), %rsi
	call	dcgettext@PLT
.LVL145:
.LBB252:
.LBB253:
	.loc 4 107 10 view .LVU376
	movq	%r12, %r8
	movq	%r12, %rcx
	movq	%r12, %rdx
.LBE253:
.LBE252:
	.loc 1 531 15 view .LVU377
	movq	%rax, %rsi
.LVL146:
.LBB255:
.LBI252:
	.loc 4 105 1 is_stmt 1 view .LVU378
.LBB254:
	.loc 4 107 3 view .LVU379
	.loc 4 107 10 is_stmt 0 view .LVU380
	movl	$1, %edi
	xorl	%eax, %eax
.LVL147:
	.loc 4 107 10 view .LVU381
	call	__printf_chk@PLT
.LVL148:
	.loc 4 107 10 view .LVU382
.LBE254:
.LBE255:
	.loc 1 537 7 is_stmt 1 view .LVU383
	movq	stdout(%rip), %r12
	xorl	%edi, %edi
	movl	$5, %edx
	leaq	.LC18(%rip), %rsi
	call	dcgettext@PLT
.LVL149:
	movq	%r12, %rsi
	movq	%rax, %rdi
	call	fputs_unlocked@PLT
.LVL150:
	.loc 1 541 7 view .LVU384
.LBB256:
.LBI256:
	.file 5 "src/system.h"
	.loc 5 588 1 view .LVU385
.LBB257:
	.loc 5 590 3 view .LVU386
	movq	stdout(%rip), %r12
	xorl	%edi, %edi
	movl	$5, %edx
	leaq	.LC19(%rip), %rsi
	call	dcgettext@PLT
.LVL151:
	movq	%r12, %rsi
	movq	%rax, %rdi
	call	fputs_unlocked@PLT
.LVL152:
.LBE257:
.LBE256:
	.loc 1 543 7 view .LVU387
	movq	stdout(%rip), %r12
	xorl	%edi, %edi
	movl	$5, %edx
	leaq	.LC20(%rip), %rsi
	call	dcgettext@PLT
.LVL153:
	movq	%r12, %rsi
	movq	%rax, %rdi
	call	fputs_unlocked@PLT
.LVL154:
	.loc 1 548 7 view .LVU388
	movq	stdout(%rip), %r12
	xorl	%edi, %edi
	movl	$5, %edx
	leaq	.LC21(%rip), %rsi
	call	dcgettext@PLT
.LVL155:
	movq	%r12, %rsi
	movq	%rax, %rdi
	call	fputs_unlocked@PLT
.LVL156:
	.loc 1 549 7 view .LVU389
	movq	stdout(%rip), %r12
	xorl	%edi, %edi
	movl	$5, %edx
	leaq	.LC22(%rip), %rsi
	call	dcgettext@PLT
.LVL157:
	movq	%r12, %rsi
	movq	%rax, %rdi
	call	fputs_unlocked@PLT
.LVL158:
	.loc 1 550 7 view .LVU390
	movq	stdout(%rip), %r12
	xorl	%edi, %edi
	movl	$5, %edx
	leaq	.LC23(%rip), %rsi
	call	dcgettext@PLT
.LVL159:
	movq	%r12, %rsi
	movq	%rax, %rdi
	call	fputs_unlocked@PLT
.LVL160:
	.loc 1 555 7 view .LVU391
	movq	stdout(%rip), %r12
	xorl	%edi, %edi
	movl	$5, %edx
	leaq	.LC24(%rip), %rsi
	call	dcgettext@PLT
.LVL161:
	movq	%r12, %rsi
	movq	%rax, %rdi
	call	fputs_unlocked@PLT
.LVL162:
	.loc 1 559 7 view .LVU392
	movq	stdout(%rip), %r12
	xorl	%edi, %edi
	movl	$5, %edx
	leaq	.LC25(%rip), %rsi
	call	dcgettext@PLT
.LVL163:
	movq	%r12, %rsi
	movq	%rax, %rdi
	call	fputs_unlocked@PLT
.LVL164:
	.loc 1 568 7 view .LVU393
	movq	stdout(%rip), %r12
	xorl	%edi, %edi
	movl	$5, %edx
	leaq	.LC26(%rip), %rsi
	call	dcgettext@PLT
.LVL165:
	movq	%r12, %rsi
	movq	%rax, %rdi
	call	fputs_unlocked@PLT
.LVL166:
	.loc 1 573 7 view .LVU394
	movq	stdout(%rip), %r12
	movl	$5, %edx
	xorl	%edi, %edi
	leaq	.LC27(%rip), %rsi
	call	dcgettext@PLT
.LVL167:
	movq	%r12, %rsi
	movq	%rax, %rdi
	call	fputs_unlocked@PLT
.LVL168:
	.loc 1 577 7 view .LVU395
	movq	stdout(%rip), %r12
	xorl	%edi, %edi
	movl	$5, %edx
	leaq	.LC28(%rip), %rsi
	call	dcgettext@PLT
.LVL169:
	movq	%r12, %rsi
	movq	%rax, %rdi
	call	fputs_unlocked@PLT
.LVL170:
	.loc 1 583 7 view .LVU396
	movq	stdout(%rip), %r12
	xorl	%edi, %edi
	movl	$5, %edx
	leaq	.LC29(%rip), %rsi
	call	dcgettext@PLT
.LVL171:
	movq	%r12, %rsi
	movq	%rax, %rdi
	call	fputs_unlocked@PLT
.LVL172:
	.loc 1 592 7 view .LVU397
	movq	stdout(%rip), %r12
	xorl	%edi, %edi
	movl	$5, %edx
	leaq	.LC30(%rip), %rsi
	call	dcgettext@PLT
.LVL173:
	movq	%r12, %rsi
	movq	%rax, %rdi
	call	fputs_unlocked@PLT
.LVL174:
	.loc 1 596 7 view .LVU398
	movq	stdout(%rip), %r12
	xorl	%edi, %edi
	movl	$5, %edx
	leaq	.LC31(%rip), %rsi
	call	dcgettext@PLT
.LVL175:
	movq	%r12, %rsi
	movq	%rax, %rdi
	call	fputs_unlocked@PLT
.LVL176:
	.loc 1 600 7 view .LVU399
	movq	stdout(%rip), %r12
	xorl	%edi, %edi
	movl	$5, %edx
	leaq	.LC32(%rip), %rsi
	call	dcgettext@PLT
.LVL177:
	movq	%r12, %rsi
	movq	%rax, %rdi
	call	fputs_unlocked@PLT
.LVL178:
	.loc 1 606 7 view .LVU400
	movq	stdout(%rip), %r12
	xorl	%edi, %edi
	movl	$5, %edx
	leaq	.LC33(%rip), %rsi
	call	dcgettext@PLT
.LVL179:
	movq	%r12, %rsi
	movq	%rax, %rdi
	call	fputs_unlocked@PLT
.LVL180:
	.loc 1 611 7 view .LVU401
	movq	stdout(%rip), %r12
	xorl	%edi, %edi
	movl	$5, %edx
	leaq	.LC34(%rip), %rsi
	call	dcgettext@PLT
.LVL181:
	movq	%r12, %rsi
	movq	%rax, %rdi
	call	fputs_unlocked@PLT
.LVL182:
	.loc 1 615 7 view .LVU402
	movq	stdout(%rip), %r12
	xorl	%edi, %edi
	movl	$5, %edx
	leaq	.LC35(%rip), %rsi
	call	dcgettext@PLT
.LVL183:
	movq	%r12, %rsi
	movq	%rax, %rdi
	call	fputs_unlocked@PLT
.LVL184:
	.loc 1 621 7 view .LVU403
	movl	$5, %edx
	xorl	%edi, %edi
	movq	stdout(%rip), %r12
	leaq	.LC36(%rip), %rsi
	call	dcgettext@PLT
.LVL185:
	movq	%r12, %rsi
	movq	%rax, %rdi
	call	fputs_unlocked@PLT
.LVL186:
	.loc 1 626 7 view .LVU404
	cmpl	$1, tcsetattr_options(%rip)
	.loc 1 628 40 is_stmt 0 view .LVU405
	movl	$5, %edx
	.loc 1 626 7 view .LVU406
	je	.L138
	.loc 1 628 50 view .LVU407
	leaq	.LC38(%rip), %rsi
	xorl	%edi, %edi
	call	dcgettext@PLT
.LVL187:
	movq	%rax, %r12
.L113:
	.loc 1 626 15 view .LVU408
	xorl	%edi, %edi
	movl	$5, %edx
	leaq	.LC39(%rip), %rsi
	call	dcgettext@PLT
.LVL188:
.LBB258:
.LBB259:
	.loc 4 107 10 view .LVU409
	movq	%r12, %rdx
	movl	$1, %edi
.LBE259:
.LBE258:
.LBB261:
.LBB262:
	.loc 5 636 67 view .LVU410
	leaq	.LC118(%rip), %rbx
.LBE262:
.LBE261:
	.loc 1 626 15 view .LVU411
	movq	%rax, %rsi
.LVL189:
.LBB289:
.LBI258:
	.loc 4 105 1 is_stmt 1 view .LVU412
.LBB260:
	.loc 4 107 3 view .LVU413
	.loc 4 107 10 is_stmt 0 view .LVU414
	xorl	%eax, %eax
.LVL190:
	.loc 4 107 10 view .LVU415
	call	__printf_chk@PLT
.LVL191:
	.loc 4 107 10 view .LVU416
.LBE260:
.LBE289:
	.loc 1 629 7 is_stmt 1 view .LVU417
	movq	stdout(%rip), %r12
	xorl	%edi, %edi
	movl	$5, %edx
	leaq	.LC40(%rip), %rsi
	call	dcgettext@PLT
.LVL192:
	movq	%r12, %rsi
	movq	%rax, %rdi
	call	fputs_unlocked@PLT
.LVL193:
	.loc 1 633 7 view .LVU418
	movq	stdout(%rip), %r12
	xorl	%edi, %edi
	movl	$5, %edx
	leaq	.LC41(%rip), %rsi
	call	dcgettext@PLT
.LVL194:
	movq	%r12, %rsi
	movq	%rax, %rdi
	call	fputs_unlocked@PLT
.LVL195:
	.loc 1 637 7 view .LVU419
	movq	stdout(%rip), %r12
	xorl	%edi, %edi
	movl	$5, %edx
	leaq	.LC42(%rip), %rsi
	call	dcgettext@PLT
.LVL196:
	movq	%r12, %rsi
	movq	%rax, %rdi
	call	fputs_unlocked@PLT
.LVL197:
	.loc 1 642 7 view .LVU420
	movq	stdout(%rip), %r12
	xorl	%edi, %edi
	movl	$5, %edx
	leaq	.LC43(%rip), %rsi
	call	dcgettext@PLT
.LVL198:
	movq	%r12, %rsi
	movq	%rax, %rdi
	call	fputs_unlocked@PLT
.LVL199:
	.loc 1 647 7 view .LVU421
	movq	stdout(%rip), %r12
	xorl	%edi, %edi
	movl	$5, %edx
	leaq	.LC44(%rip), %rsi
	call	dcgettext@PLT
.LVL200:
	movq	%r12, %rsi
	movq	%rax, %rdi
	call	fputs_unlocked@PLT
.LVL201:
	.loc 1 651 7 view .LVU422
	movq	stdout(%rip), %r12
	xorl	%edi, %edi
	movl	$5, %edx
	leaq	.LC45(%rip), %rsi
	call	dcgettext@PLT
.LVL202:
	movq	%r12, %rsi
	movq	%rax, %rdi
	call	fputs_unlocked@PLT
.LVL203:
	.loc 1 658 7 view .LVU423
	movq	stdout(%rip), %r12
	xorl	%edi, %edi
	movl	$5, %edx
	leaq	.LC46(%rip), %rsi
	call	dcgettext@PLT
.LVL204:
	movq	%r12, %rsi
	movq	%rax, %rdi
	call	fputs_unlocked@PLT
.LVL205:
	.loc 1 667 7 view .LVU424
	movq	stdout(%rip), %r12
	xorl	%edi, %edi
	movl	$5, %edx
	leaq	.LC47(%rip), %rsi
	call	dcgettext@PLT
.LVL206:
	movq	%r12, %rsi
	movq	%rax, %rdi
	call	fputs_unlocked@PLT
.LVL207:
	.loc 1 670 7 view .LVU425
	movq	stdout(%rip), %r12
	xorl	%edi, %edi
	movl	$5, %edx
	leaq	.LC48(%rip), %rsi
	call	dcgettext@PLT
.LVL208:
	movq	%r12, %rsi
	movq	%rax, %rdi
	call	fputs_unlocked@PLT
.LVL209:
	.loc 1 678 7 view .LVU426
	movq	stdout(%rip), %r12
	movl	$5, %edx
	xorl	%edi, %edi
	leaq	.LC49(%rip), %rsi
	call	dcgettext@PLT
.LVL210:
	movq	%r12, %rsi
	movq	%rax, %rdi
	call	fputs_unlocked@PLT
.LVL211:
	.loc 1 682 7 view .LVU427
	movq	stdout(%rip), %r12
	xorl	%edi, %edi
	movl	$5, %edx
	leaq	.LC50(%rip), %rsi
	call	dcgettext@PLT
.LVL212:
	movq	%r12, %rsi
	movq	%rax, %rdi
	call	fputs_unlocked@PLT
.LVL213:
	.loc 1 692 7 view .LVU428
	movq	stdout(%rip), %r12
	xorl	%edi, %edi
	movl	$5, %edx
	leaq	.LC51(%rip), %rsi
	call	dcgettext@PLT
.LVL214:
	movq	%r12, %rsi
	movq	%rax, %rdi
	call	fputs_unlocked@PLT
.LVL215:
	.loc 1 696 7 view .LVU429
	movq	stdout(%rip), %r12
	xorl	%edi, %edi
	movl	$5, %edx
	leaq	.LC52(%rip), %rsi
	call	dcgettext@PLT
.LVL216:
	movq	%r12, %rsi
	movq	%rax, %rdi
	call	fputs_unlocked@PLT
.LVL217:
	.loc 1 702 7 view .LVU430
	movq	stdout(%rip), %r12
	xorl	%edi, %edi
	movl	$5, %edx
	leaq	.LC53(%rip), %rsi
	call	dcgettext@PLT
.LVL218:
	movq	%r12, %rsi
	movq	%rax, %rdi
	call	fputs_unlocked@PLT
.LVL219:
	.loc 1 707 7 view .LVU431
	movq	stdout(%rip), %r12
	xorl	%edi, %edi
	movl	$5, %edx
	leaq	.LC54(%rip), %rsi
	call	dcgettext@PLT
.LVL220:
	movq	%r12, %rsi
	movq	%rax, %rdi
	call	fputs_unlocked@PLT
.LVL221:
	.loc 1 712 7 view .LVU432
	movq	stdout(%rip), %r12
	xorl	%edi, %edi
	movl	$5, %edx
	leaq	.LC55(%rip), %rsi
	call	dcgettext@PLT
.LVL222:
	movq	%r12, %rsi
	movq	%rax, %rdi
	call	fputs_unlocked@PLT
.LVL223:
	.loc 1 716 7 view .LVU433
	movq	stdout(%rip), %r12
	xorl	%edi, %edi
	movl	$5, %edx
	leaq	.LC56(%rip), %rsi
	call	dcgettext@PLT
.LVL224:
	movq	%r12, %rsi
	movq	%rax, %rdi
	call	fputs_unlocked@PLT
.LVL225:
	.loc 1 722 7 view .LVU434
	movq	stdout(%rip), %r12
	xorl	%edi, %edi
	movl	$5, %edx
	leaq	.LC57(%rip), %rsi
	call	dcgettext@PLT
.LVL226:
	movq	%r12, %rsi
	movq	%rax, %rdi
	call	fputs_unlocked@PLT
.LVL227:
	.loc 1 727 7 view .LVU435
	movq	stdout(%rip), %r12
	xorl	%edi, %edi
	movl	$5, %edx
	leaq	.LC58(%rip), %rsi
	call	dcgettext@PLT
.LVL228:
	movq	%r12, %rsi
	movq	%rax, %rdi
	call	fputs_unlocked@PLT
.LVL229:
	.loc 1 732 7 view .LVU436
	movq	stdout(%rip), %r12
	xorl	%edi, %edi
	movl	$5, %edx
	leaq	.LC59(%rip), %rsi
	call	dcgettext@PLT
.LVL230:
	movq	%r12, %rsi
	movq	%rax, %rdi
	call	fputs_unlocked@PLT
.LVL231:
	.loc 1 737 7 view .LVU437
	xorl	%edi, %edi
	movq	stdout(%rip), %r12
	movl	$5, %edx
	leaq	.LC60(%rip), %rsi
	call	dcgettext@PLT
.LVL232:
	movq	%r12, %rsi
	movq	%rax, %rdi
	call	fputs_unlocked@PLT
.LVL233:
	.loc 1 742 7 view .LVU438
	movq	stdout(%rip), %r12
	xorl	%edi, %edi
	movl	$5, %edx
	leaq	.LC61(%rip), %rsi
	call	dcgettext@PLT
.LVL234:
	movq	%r12, %rsi
	movq	%rax, %rdi
	call	fputs_unlocked@PLT
.LVL235:
	.loc 1 747 7 view .LVU439
	movq	stdout(%rip), %r12
	xorl	%edi, %edi
	movl	$5, %edx
	leaq	.LC62(%rip), %rsi
	call	dcgettext@PLT
.LVL236:
	movq	%r12, %rsi
	movq	%rax, %rdi
	call	fputs_unlocked@PLT
.LVL237:
	.loc 1 752 7 view .LVU440
	movq	stdout(%rip), %r12
	xorl	%edi, %edi
	movl	$5, %edx
	leaq	.LC63(%rip), %rsi
	call	dcgettext@PLT
.LVL238:
	movq	%r12, %rsi
	movq	%rax, %rdi
	call	fputs_unlocked@PLT
.LVL239:
	.loc 1 757 7 view .LVU441
	movq	stdout(%rip), %r12
	xorl	%edi, %edi
	movl	$5, %edx
	leaq	.LC64(%rip), %rsi
	call	dcgettext@PLT
.LVL240:
	movq	%r12, %rsi
	movq	%rax, %rdi
	call	fputs_unlocked@PLT
.LVL241:
	.loc 1 762 7 view .LVU442
	movq	stdout(%rip), %r12
	xorl	%edi, %edi
	movl	$5, %edx
	leaq	.LC65(%rip), %rsi
	call	dcgettext@PLT
.LVL242:
	movq	%r12, %rsi
	movq	%rax, %rdi
	call	fputs_unlocked@PLT
.LVL243:
	.loc 1 767 7 view .LVU443
	movq	stdout(%rip), %r12
	xorl	%edi, %edi
	movl	$5, %edx
	leaq	.LC66(%rip), %rsi
	call	dcgettext@PLT
.LVL244:
	movq	%r12, %rsi
	movq	%rax, %rdi
	call	fputs_unlocked@PLT
.LVL245:
	.loc 1 772 7 view .LVU444
	movq	stdout(%rip), %r12
	xorl	%edi, %edi
	movl	$5, %edx
	leaq	.LC67(%rip), %rsi
	call	dcgettext@PLT
.LVL246:
	movq	%r12, %rsi
	movq	%rax, %rdi
	call	fputs_unlocked@PLT
.LVL247:
	.loc 1 777 7 view .LVU445
	movq	stdout(%rip), %r12
	xorl	%edi, %edi
	movl	$5, %edx
	leaq	.LC68(%rip), %rsi
	call	dcgettext@PLT
.LVL248:
	movq	%r12, %rsi
	movq	%rax, %rdi
	call	fputs_unlocked@PLT
.LVL249:
	.loc 1 781 7 view .LVU446
	movq	stdout(%rip), %r12
	xorl	%edi, %edi
	movl	$5, %edx
	leaq	.LC69(%rip), %rsi
	call	dcgettext@PLT
.LVL250:
	movq	%r12, %rsi
	movq	%rax, %rdi
	call	fputs_unlocked@PLT
.LVL251:
	.loc 1 785 7 view .LVU447
	movq	stdout(%rip), %r12
	xorl	%edi, %edi
	movl	$5, %edx
	leaq	.LC70(%rip), %rsi
	call	dcgettext@PLT
.LVL252:
	movq	%r12, %rsi
	movq	%rax, %rdi
	call	fputs_unlocked@PLT
.LVL253:
	.loc 1 792 7 view .LVU448
	movq	stdout(%rip), %r12
	xorl	%edi, %edi
	movl	$5, %edx
	leaq	.LC71(%rip), %rsi
	call	dcgettext@PLT
.LVL254:
	movq	%r12, %rsi
	movq	%rax, %rdi
	call	fputs_unlocked@PLT
.LVL255:
	.loc 1 796 7 view .LVU449
	movq	stdout(%rip), %r12
	xorl	%edi, %edi
	movl	$5, %edx
	leaq	.LC72(%rip), %rsi
	call	dcgettext@PLT
.LVL256:
	movq	%r12, %rsi
	movq	%rax, %rdi
	call	fputs_unlocked@PLT
.LVL257:
	.loc 1 802 7 view .LVU450
	movq	stdout(%rip), %r12
	xorl	%edi, %edi
	movl	$5, %edx
	leaq	.LC73(%rip), %rsi
	call	dcgettext@PLT
.LVL258:
	movq	%r12, %rsi
	movq	%rax, %rdi
	call	fputs_unlocked@PLT
.LVL259:
	.loc 1 808 7 view .LVU451
	movq	stdout(%rip), %r12
	xorl	%edi, %edi
	movl	$5, %edx
	leaq	.LC74(%rip), %rsi
	call	dcgettext@PLT
.LVL260:
	movq	%r12, %rsi
	movq	%rax, %rdi
	call	fputs_unlocked@PLT
.LVL261:
	.loc 1 812 7 view .LVU452
	movq	stdout(%rip), %r12
	xorl	%edi, %edi
	movl	$5, %edx
	leaq	.LC75(%rip), %rsi
	call	dcgettext@PLT
.LVL262:
	movq	%r12, %rsi
	movq	%rax, %rdi
	call	fputs_unlocked@PLT
.LVL263:
	.loc 1 816 7 view .LVU453
	movq	stdout(%rip), %r12
	xorl	%edi, %edi
	movl	$5, %edx
	leaq	.LC76(%rip), %rsi
	call	dcgettext@PLT
.LVL264:
	movq	%r12, %rsi
	movq	%rax, %rdi
	call	fputs_unlocked@PLT
.LVL265:
	.loc 1 820 7 view .LVU454
	movq	stdout(%rip), %r12
	xorl	%edi, %edi
	movl	$5, %edx
	leaq	.LC77(%rip), %rsi
	call	dcgettext@PLT
.LVL266:
	movq	%r12, %rsi
	movq	%rax, %rdi
	call	fputs_unlocked@PLT
.LVL267:
	.loc 1 825 7 view .LVU455
	movq	stdout(%rip), %r12
	xorl	%edi, %edi
	movl	$5, %edx
	leaq	.LC78(%rip), %rsi
	call	dcgettext@PLT
.LVL268:
	movq	%r12, %rsi
	movq	%rax, %rdi
	call	fputs_unlocked@PLT
.LVL269:
	.loc 1 829 7 view .LVU456
	movq	stdout(%rip), %r12
	xorl	%edi, %edi
	movl	$5, %edx
	leaq	.LC79(%rip), %rsi
	call	dcgettext@PLT
.LVL270:
	movq	%r12, %rsi
	movq	%rax, %rdi
	call	fputs_unlocked@PLT
.LVL271:
	.loc 1 833 7 view .LVU457
	movq	stdout(%rip), %r12
	xorl	%edi, %edi
	movl	$5, %edx
	leaq	.LC80(%rip), %rsi
	call	dcgettext@PLT
.LVL272:
	movq	%r12, %rsi
	movq	%rax, %rdi
	call	fputs_unlocked@PLT
.LVL273:
	.loc 1 838 7 view .LVU458
	movq	stdout(%rip), %r12
	movl	$5, %edx
	xorl	%edi, %edi
	leaq	.LC81(%rip), %rsi
	call	dcgettext@PLT
.LVL274:
	movq	%r12, %rsi
	movq	%rax, %rdi
	call	fputs_unlocked@PLT
.LVL275:
	.loc 1 843 7 view .LVU459
	movq	stdout(%rip), %r12
	xorl	%edi, %edi
	movl	$5, %edx
	leaq	.LC82(%rip), %rsi
	call	dcgettext@PLT
.LVL276:
	movq	%r12, %rsi
	movq	%rax, %rdi
	call	fputs_unlocked@PLT
.LVL277:
	.loc 1 847 7 view .LVU460
	.loc 1 847 15 is_stmt 0 view .LVU461
	xorl	%edi, %edi
	movl	$5, %edx
	leaq	.LC83(%rip), %rsi
	call	dcgettext@PLT
.LVL278:
.LBB290:
.LBB291:
	.loc 4 107 10 view .LVU462
	leaq	.LC84(%rip), %rdx
	movl	$1, %edi
.LBE291:
.LBE290:
	.loc 1 847 15 view .LVU463
	movq	%rax, %rsi
.LVL279:
.LBB293:
.LBI290:
	.loc 4 105 1 is_stmt 1 view .LVU464
.LBB292:
	.loc 4 107 3 view .LVU465
	.loc 4 107 10 is_stmt 0 view .LVU466
	xorl	%eax, %eax
.LVL280:
	.loc 4 107 10 view .LVU467
	call	__printf_chk@PLT
.LVL281:
	.loc 4 107 10 view .LVU468
.LBE292:
.LBE293:
	.loc 1 858 7 is_stmt 1 view .LVU469
	movq	stdout(%rip), %r12
	xorl	%edi, %edi
	movl	$5, %edx
	leaq	.LC85(%rip), %rsi
	call	dcgettext@PLT
.LVL282:
	movq	%r12, %rsi
	movq	%rax, %rdi
	call	fputs_unlocked@PLT
.LVL283:
	.loc 1 863 7 view .LVU470
	movq	stdout(%rip), %r12
	xorl	%edi, %edi
	movl	$5, %edx
	leaq	.LC86(%rip), %rsi
	call	dcgettext@PLT
.LVL284:
	movq	%r12, %rsi
	movq	%rax, %rdi
	call	fputs_unlocked@PLT
.LVL285:
	.loc 1 868 7 view .LVU471
	movq	stdout(%rip), %r12
	xorl	%edi, %edi
	movl	$5, %edx
	leaq	.LC87(%rip), %rsi
	call	dcgettext@PLT
.LVL286:
	movq	%r12, %rsi
	movq	%rax, %rdi
	call	fputs_unlocked@PLT
.LVL287:
	.loc 1 873 7 view .LVU472
	movq	stdout(%rip), %r12
	xorl	%edi, %edi
	movl	$5, %edx
	leaq	.LC88(%rip), %rsi
	call	dcgettext@PLT
.LVL288:
	movq	%r12, %rsi
	movq	%rax, %rdi
	call	fputs_unlocked@PLT
.LVL289:
	.loc 1 877 7 view .LVU473
	movq	stdout(%rip), %r12
	xorl	%edi, %edi
	movl	$5, %edx
	leaq	.LC89(%rip), %rsi
	call	dcgettext@PLT
.LVL290:
	movq	%r12, %rsi
	movq	%rax, %rdi
	call	fputs_unlocked@PLT
.LVL291:
	.loc 1 882 7 view .LVU474
	movq	stdout(%rip), %r12
	xorl	%edi, %edi
	movl	$5, %edx
	leaq	.LC90(%rip), %rsi
	call	dcgettext@PLT
.LVL292:
	movq	%r12, %rsi
	movq	%rax, %rdi
	call	fputs_unlocked@PLT
.LVL293:
	.loc 1 886 7 view .LVU475
	movq	stdout(%rip), %r12
	xorl	%edi, %edi
	movl	$5, %edx
	leaq	.LC91(%rip), %rsi
	call	dcgettext@PLT
.LVL294:
	movq	%r12, %rsi
	movq	%rax, %rdi
	call	fputs_unlocked@PLT
.LVL295:
	.loc 1 890 7 view .LVU476
	movq	stdout(%rip), %r12
	xorl	%edi, %edi
	movl	$5, %edx
	leaq	.LC92(%rip), %rsi
	call	dcgettext@PLT
.LVL296:
	movq	%r12, %rsi
	movq	%rax, %rdi
	call	fputs_unlocked@PLT
.LVL297:
	.loc 1 895 7 view .LVU477
	.loc 1 895 15 is_stmt 0 view .LVU478
	xorl	%edi, %edi
	movl	$5, %edx
	leaq	.LC93(%rip), %rsi
	call	dcgettext@PLT
.LVL298:
.LBB294:
.LBB295:
	.loc 4 107 10 view .LVU479
	leaq	.LC94(%rip), %rdx
	movl	$1, %edi
.LBE295:
.LBE294:
	.loc 1 895 15 view .LVU480
	movq	%rax, %rsi
.LVL299:
.LBB297:
.LBI294:
	.loc 4 105 1 is_stmt 1 view .LVU481
.LBB296:
	.loc 4 107 3 view .LVU482
	.loc 4 107 10 is_stmt 0 view .LVU483
	xorl	%eax, %eax
.LVL300:
	.loc 4 107 10 view .LVU484
	call	__printf_chk@PLT
.LVL301:
	.loc 4 107 10 view .LVU485
.LBE296:
.LBE297:
	.loc 1 905 7 is_stmt 1 view .LVU486
	.loc 1 905 15 is_stmt 0 view .LVU487
	xorl	%edi, %edi
	movl	$5, %edx
	leaq	.LC95(%rip), %rsi
	call	dcgettext@PLT
.LVL302:
.LBB298:
.LBB299:
	.loc 4 107 10 view .LVU488
	leaq	.LC96(%rip), %rdx
	movl	$1, %edi
.LBE299:
.LBE298:
	.loc 1 905 15 view .LVU489
	movq	%rax, %rsi
.LVL303:
.LBB301:
.LBI298:
	.loc 4 105 1 is_stmt 1 view .LVU490
.LBB300:
	.loc 4 107 3 view .LVU491
	.loc 4 107 10 is_stmt 0 view .LVU492
	xorl	%eax, %eax
.LVL304:
	.loc 4 107 10 view .LVU493
	call	__printf_chk@PLT
.LVL305:
	.loc 4 107 10 view .LVU494
.LBE300:
.LBE301:
	.loc 1 920 7 is_stmt 1 view .LVU495
	movq	stdout(%rip), %r12
	xorl	%edi, %edi
	movl	$5, %edx
	leaq	.LC97(%rip), %rsi
	call	dcgettext@PLT
.LVL306:
	movq	%r12, %rsi
	movq	%rax, %rdi
	call	fputs_unlocked@PLT
.LVL307:
	.loc 1 924 7 view .LVU496
	movq	stdout(%rip), %r12
	xorl	%edi, %edi
	movl	$5, %edx
	leaq	.LC98(%rip), %rsi
	call	dcgettext@PLT
.LVL308:
	movq	%r12, %rsi
	movq	%rax, %rdi
	call	fputs_unlocked@PLT
.LVL309:
	.loc 1 930 7 view .LVU497
	movq	stdout(%rip), %r12
	xorl	%edi, %edi
	movl	$5, %edx
	leaq	.LC99(%rip), %rsi
	call	dcgettext@PLT
.LVL310:
	movq	%r12, %rsi
	movq	%rax, %rdi
	call	fputs_unlocked@PLT
.LVL311:
	.loc 1 934 7 view .LVU498
	movq	stdout(%rip), %r12
	xorl	%edi, %edi
	movl	$5, %edx
	leaq	.LC100(%rip), %rsi
	call	dcgettext@PLT
.LVL312:
	movq	%r12, %rsi
	movq	%rax, %rdi
	call	fputs_unlocked@PLT
.LVL313:
	.loc 1 938 7 view .LVU499
	.loc 1 938 15 is_stmt 0 view .LVU500
	xorl	%edi, %edi
	movl	$5, %edx
	leaq	.LC101(%rip), %rsi
	call	dcgettext@PLT
.LVL314:
.LBB302:
.LBB303:
	.loc 4 107 10 view .LVU501
	leaq	.LC102(%rip), %rcx
	movl	$1, %edi
	leaq	.LC103(%rip), %rdx
.LBE303:
.LBE302:
	.loc 1 938 15 view .LVU502
	movq	%rax, %rsi
.LVL315:
.LBB305:
.LBI302:
	.loc 4 105 1 is_stmt 1 view .LVU503
.LBB304:
	.loc 4 107 3 view .LVU504
	.loc 4 107 10 is_stmt 0 view .LVU505
	xorl	%eax, %eax
.LVL316:
	.loc 4 107 10 view .LVU506
	call	__printf_chk@PLT
.LVL317:
	.loc 4 107 10 view .LVU507
.LBE304:
.LBE305:
	.loc 1 956 7 is_stmt 1 view .LVU508
	movq	stdout(%rip), %r12
	xorl	%edi, %edi
	movl	$5, %edx
	leaq	.LC104(%rip), %rsi
	call	dcgettext@PLT
.LVL318:
	movq	%r12, %rsi
	movq	%rax, %rdi
	call	fputs_unlocked@PLT
.LVL319:
	.loc 1 963 7 view .LVU509
	.loc 1 963 15 is_stmt 0 view .LVU510
	xorl	%edi, %edi
	movl	$5, %edx
	leaq	.LC105(%rip), %rsi
	call	dcgettext@PLT
.LVL320:
.LBB306:
.LBB307:
	.loc 4 107 10 view .LVU511
	leaq	.LC106(%rip), %rdx
	movl	$1, %edi
.LBE307:
.LBE306:
	.loc 1 963 15 view .LVU512
	movq	%rax, %rsi
.LVL321:
.LBB309:
.LBI306:
	.loc 4 105 1 is_stmt 1 view .LVU513
.LBB308:
	.loc 4 107 3 view .LVU514
	.loc 4 107 10 is_stmt 0 view .LVU515
	xorl	%eax, %eax
.LVL322:
	.loc 4 107 10 view .LVU516
	call	__printf_chk@PLT
.LVL323:
	.loc 4 107 10 view .LVU517
.LBE308:
.LBE309:
	.loc 1 982 7 is_stmt 1 view .LVU518
	.loc 1 982 15 is_stmt 0 view .LVU519
	xorl	%edi, %edi
	movl	$5, %edx
	leaq	.LC107(%rip), %rsi
	call	dcgettext@PLT
.LVL324:
.LBB310:
.LBB311:
	.loc 4 107 10 view .LVU520
	leaq	.LC108(%rip), %r8
	movl	$1, %edi
	leaq	.LC109(%rip), %rcx
.LBE311:
.LBE310:
	.loc 1 982 15 view .LVU521
	movq	%rax, %rsi
.LVL325:
.LBB313:
.LBI310:
	.loc 4 105 1 is_stmt 1 view .LVU522
.LBB312:
	.loc 4 107 3 view .LVU523
	.loc 4 107 10 is_stmt 0 view .LVU524
	leaq	.LC110(%rip), %rdx
	xorl	%eax, %eax
.LVL326:
	.loc 4 107 10 view .LVU525
	call	__printf_chk@PLT
.LVL327:
	.loc 4 107 10 view .LVU526
.LBE312:
.LBE313:
	.loc 1 1068 7 is_stmt 1 view .LVU527
	movq	stdout(%rip), %r12
	movl	$5, %edx
	xorl	%edi, %edi
	leaq	.LC111(%rip), %rsi
	call	dcgettext@PLT
.LVL328:
	movq	%r12, %rsi
	movq	%rax, %rdi
	call	fputs_unlocked@PLT
.LVL329:
	.loc 1 1075 7 view .LVU528
.LBB314:
.LBI261:
	.loc 5 634 1 view .LVU529
.LBB287:
	.loc 5 636 3 view .LVU530
	.loc 5 636 67 is_stmt 0 view .LVU531
	leaq	.LC112(%rip), %rax
	movq	%rbx, 48(%rsp)
	leaq	.LC119(%rip), %rbx
	movq	%rax, (%rsp)
	leaq	.LC113(%rip), %rax
	movq	%rax, 8(%rsp)
	leaq	.LC114(%rip), %rax
	movq	%rax, 16(%rsp)
	leaq	.LC115(%rip), %rax
	movq	%rax, 24(%rsp)
	leaq	.LC116(%rip), %rax
	movq	$0, 96(%rsp)
	movq	$0, 104(%rsp)
	.loc 5 646 3 is_stmt 1 view .LVU532
.LVL330:
	.loc 5 647 3 view .LVU533
	.loc 5 649 3 view .LVU534
	.loc 5 649 9 view .LVU535
	.loc 5 636 67 is_stmt 0 view .LVU536
	movq	%rax, 32(%rsp)
	leaq	.LC117(%rip), %rax
	movq	%rbx, 64(%rsp)
	leaq	.LC120(%rip), %rbx
	movq	%rax, 40(%rsp)
	movq	%rax, 56(%rsp)
	movq	%rax, 72(%rsp)
	movq	%rbx, 80(%rsp)
	leaq	.LC14(%rip), %rbx
	movq	%rax, 88(%rsp)
	.loc 5 647 25 view .LVU537
	movq	%rsp, %rax
.LVL331:
	.p2align 4,,10
	.p2align 3
.L115:
	.loc 5 650 5 is_stmt 1 view .LVU538
	.loc 5 649 18 is_stmt 0 view .LVU539
	movq	16(%rax), %rdi
	.loc 5 650 13 view .LVU540
	addq	$16, %rax
.LVL332:
	.loc 5 649 9 is_stmt 1 view .LVU541
	testq	%rdi, %rdi
	je	.L114
	.loc 5 649 33 is_stmt 0 view .LVU542
	movl	$5, %ecx
	movq	%rbx, %rsi
	repz cmpsb
	seta	%dl
	sbbb	$0, %dl
	.loc 5 649 28 view .LVU543
	testb	%dl, %dl
	jne	.L115
.L114:
	.loc 5 652 3 is_stmt 1 view .LVU544
	.loc 5 652 15 is_stmt 0 view .LVU545
	movq	8(%rax), %r12
	.loc 5 655 11 view .LVU546
	movl	$5, %edx
	leaq	.LC121(%rip), %rsi
	xorl	%edi, %edi
	.loc 5 652 6 view .LVU547
	testq	%r12, %r12
	je	.L116
	.loc 5 653 5 is_stmt 1 view .LVU548
.LVL333:
	.loc 5 655 3 view .LVU549
	.loc 5 655 11 is_stmt 0 view .LVU550
	call	dcgettext@PLT
.LVL334:
.LBB263:
.LBB264:
	.loc 4 107 10 view .LVU551
	leaq	.LC122(%rip), %rcx
	movl	$1, %edi
	leaq	.LC123(%rip), %rdx
.LBE264:
.LBE263:
	.loc 5 655 11 view .LVU552
	movq	%rax, %rsi
.LVL335:
.LBB268:
.LBI263:
	.loc 4 105 1 is_stmt 1 view .LVU553
.LBB265:
	.loc 4 107 3 view .LVU554
	.loc 4 107 10 is_stmt 0 view .LVU555
	xorl	%eax, %eax
.LVL336:
	.loc 4 107 10 view .LVU556
	call	__printf_chk@PLT
.LVL337:
	.loc 4 107 10 view .LVU557
.LBE265:
.LBE268:
	.loc 5 659 3 is_stmt 1 view .LVU558
	.loc 5 659 29 is_stmt 0 view .LVU559
	movl	$5, %edi
	xorl	%esi, %esi
	call	setlocale@PLT
.LVL338:
	movq	%rax, %rdi
.LVL339:
	.loc 5 660 3 is_stmt 1 view .LVU560
	.loc 5 660 6 is_stmt 0 view .LVU561
	testq	%rax, %rax
	je	.L117
	.loc 5 660 22 view .LVU562
	movl	$3, %edx
	leaq	.LC124(%rip), %rsi
	call	strncmp@PLT
.LVL340:
	.loc 5 660 19 view .LVU563
	testl	%eax, %eax
	jne	.L120
.LVL341:
.L117:
	.loc 5 669 3 is_stmt 1 view .LVU564
	.loc 5 669 11 is_stmt 0 view .LVU565
	xorl	%edi, %edi
	movl	$5, %edx
	leaq	.LC126(%rip), %rsi
	call	dcgettext@PLT
.LVL342:
.LBB269:
.LBB270:
	.loc 4 107 10 view .LVU566
	leaq	.LC14(%rip), %rcx
	leaq	.LC122(%rip), %rdx
	movl	$1, %edi
.LBE270:
.LBE269:
	.loc 5 669 11 view .LVU567
	movq	%rax, %rsi
.LVL343:
.LBB276:
.LBI269:
	.loc 4 105 1 is_stmt 1 view .LVU568
.LBB271:
	.loc 4 107 3 view .LVU569
	.loc 4 107 10 is_stmt 0 view .LVU570
	xorl	%eax, %eax
.LVL344:
	.loc 4 107 10 view .LVU571
.LBE271:
.LBE276:
	.loc 5 671 3 view .LVU572
	leaq	.LC15(%rip), %r13
.LBB277:
.LBB272:
	.loc 4 107 10 view .LVU573
	call	__printf_chk@PLT
.LVL345:
	.loc 4 107 10 view .LVU574
.LBE272:
.LBE277:
	.loc 5 671 3 is_stmt 1 view .LVU575
	cmpq	%rbx, %r12
	leaq	.LC2(%rip), %rcx
	cmovne	%rcx, %r13
.L118:
	.loc 5 671 11 is_stmt 0 view .LVU576
	xorl	%edi, %edi
	leaq	.LC127(%rip), %rsi
	movl	$5, %edx
	call	dcgettext@PLT
.LVL346:
.LBB278:
.LBB279:
	.loc 4 107 10 view .LVU577
	movq	%r13, %rcx
	movq	%r12, %rdx
	movl	$1, %edi
.LBE279:
.LBE278:
	.loc 5 671 11 view .LVU578
	movq	%rax, %rsi
.LVL347:
.LBB281:
.LBI278:
	.loc 4 105 1 is_stmt 1 view .LVU579
.LBB280:
	.loc 4 107 3 view .LVU580
	.loc 4 107 10 is_stmt 0 view .LVU581
	xorl	%eax, %eax
.LVL348:
	.loc 4 107 10 view .LVU582
	call	__printf_chk@PLT
.LVL349:
	.loc 4 107 10 view .LVU583
.LBE280:
.LBE281:
	.loc 5 673 1 view .LVU584
	jmp	.L111
.LVL350:
.L138:
	.loc 5 673 1 view .LVU585
.LBE287:
.LBE314:
	.loc 1 628 40 view .LVU586
	leaq	.LC37(%rip), %rsi
	xorl	%edi, %edi
	call	dcgettext@PLT
.LVL351:
	movq	%rax, %r12
	jmp	.L113
.LVL352:
.L139:
.LBB315:
.LBB288:
	.loc 5 646 15 view .LVU587
	leaq	.LC14(%rip), %r12
.LVL353:
.L120:
	.loc 5 666 7 is_stmt 1 view .LVU588
	movq	stdout(%rip), %r13
	xorl	%edi, %edi
	movl	$5, %edx
	leaq	.LC125(%rip), %rsi
	call	dcgettext@PLT
.LVL354:
	movq	%rax, %rdi
	movq	%r13, %rsi
	call	fputs_unlocked@PLT
.LVL355:
	jmp	.L117
.LVL356:
.L116:
	.loc 5 655 3 view .LVU589
	.loc 5 655 11 is_stmt 0 view .LVU590
	call	dcgettext@PLT
.LVL357:
.LBB282:
.LBB266:
	.loc 4 107 10 view .LVU591
	leaq	.LC122(%rip), %rcx
	movl	$1, %edi
	leaq	.LC123(%rip), %rdx
.LBE266:
.LBE282:
	.loc 5 655 11 view .LVU592
	movq	%rax, %rsi
.LVL358:
.LBB283:
	.loc 4 105 1 is_stmt 1 view .LVU593
.LBB267:
	.loc 4 107 3 view .LVU594
	.loc 4 107 10 is_stmt 0 view .LVU595
	xorl	%eax, %eax
.LVL359:
	.loc 4 107 10 view .LVU596
	call	__printf_chk@PLT
.LVL360:
	.loc 4 107 10 view .LVU597
.LBE267:
.LBE283:
	.loc 5 659 3 is_stmt 1 view .LVU598
	.loc 5 659 29 is_stmt 0 view .LVU599
	movl	$5, %edi
	xorl	%esi, %esi
	call	setlocale@PLT
.LVL361:
	movq	%rax, %rdi
.LVL362:
	.loc 5 660 3 is_stmt 1 view .LVU600
	.loc 5 660 6 is_stmt 0 view .LVU601
	testq	%rax, %rax
	je	.L119
	.loc 5 660 22 view .LVU602
	movl	$3, %edx
	leaq	.LC124(%rip), %rsi
	call	strncmp@PLT
.LVL363:
	.loc 5 660 19 view .LVU603
	testl	%eax, %eax
	jne	.L139
.L119:
	.loc 5 669 3 is_stmt 1 view .LVU604
	.loc 5 669 11 is_stmt 0 view .LVU605
	movl	$5, %edx
	leaq	.LC126(%rip), %rsi
	xorl	%edi, %edi
	call	dcgettext@PLT
.LVL364:
.LBB284:
.LBB273:
	.loc 4 107 10 view .LVU606
	leaq	.LC14(%rip), %rcx
	leaq	.LC122(%rip), %rdx
	movl	$1, %edi
.LBE273:
.LBE284:
	.loc 5 669 11 view .LVU607
	movq	%rax, %rsi
.LVL365:
.LBB285:
	.loc 4 105 1 is_stmt 1 view .LVU608
.LBB274:
	.loc 4 107 3 view .LVU609
	.loc 4 107 10 is_stmt 0 view .LVU610
	xorl	%eax, %eax
.LVL366:
	.loc 4 107 10 view .LVU611
.LBE274:
.LBE285:
	.loc 5 646 15 view .LVU612
	leaq	.LC14(%rip), %r12
.LBB286:
.LBB275:
	.loc 4 107 10 view .LVU613
	call	__printf_chk@PLT
.LVL367:
	.loc 4 107 10 view .LVU614
.LBE275:
.LBE286:
	.loc 5 671 3 is_stmt 1 view .LVU615
	leaq	.LC15(%rip), %r13
	jmp	.L118
.LBE288:
.LBE315:
	.cfi_endproc
.LFE136:
	.size	usage, .-usage
	.section	.rodata.str1.1
.LC128:
	.string	"parenb"
.LC129:
	.string	"intr"
.LC130:
	.string	"drain"
.LC131:
	.string	"nl"
.LC132:
	.string	"ek"
.LC133:
	.string	"sane"
.LC134:
	.string	"src/stty.c"
.LC135:
	.string	"bitsp"
.LC136:
	.string	"cbreak"
.LC137:
	.string	"pass8"
.LC138:
	.string	"litout"
.LC139:
	.string	"raw"
.LC140:
	.string	"cooked"
.LC141:
	.string	"decctlq"
.LC142:
	.string	"tabs"
.LC143:
	.string	"lcase"
.LC144:
	.string	"LCASE"
.LC145:
	.string	"crt"
.LC146:
	.string	"dec"
.LC147:
	.string	"invalid argument %s"
.LC148:
	.string	"missing argument to %s"
.LC149:
	.string	"min"
.LC150:
	.string	"time"
.LC151:
	.string	"^-"
.LC152:
	.string	"undef"
.LC153:
	.string	"ospeed"
.LC154:
	.string	"rows"
.LC155:
	.string	"cols"
.LC156:
	.string	"columns"
.LC157:
	.string	"size"
.LC158:
	.string	"line"
.LC159:
	.string	"invalid line discipline %s"
.LC160:
	.string	"speed"
.LC161:
	.string	"ispeed"
.LC162:
	.string	"evenp"
.LC163:
	.string	"parity"
.LC164:
	.string	"oddp"
	.text
	.p2align 4
	.type	apply_settings, @function
apply_settings:
.LVL368:
.LFB137:
	.loc 1 1091 1 view -0
	.cfi_startproc
	.loc 1 1091 1 is_stmt 0 view .LVU617
	pushq	%r15
	.cfi_def_cfa_offset 16
	.cfi_offset 15, -16
	pushq	%r14
	.cfi_def_cfa_offset 24
	.cfi_offset 14, -24
	pushq	%r13
	.cfi_def_cfa_offset 32
	.cfi_offset 13, -32
	pushq	%r12
	.cfi_def_cfa_offset 40
	.cfi_offset 12, -40
	pushq	%rbp
	.cfi_def_cfa_offset 48
	.cfi_offset 6, -48
	pushq	%rbx
	.cfi_def_cfa_offset 56
	.cfi_offset 3, -56
	subq	$120, %rsp
	.cfi_def_cfa_offset 176
	.loc 1 1091 1 view .LVU618
	movq	176(%rsp), %rax
	movq	%rsi, 56(%rsp)
	movq	%rdx, 8(%rsp)
	movl	%ecx, 40(%rsp)
	movq	%r8, 24(%rsp)
	movq	%r9, 48(%rsp)
	movq	%rax, 32(%rsp)
	movb	%dil, 47(%rsp)
	movq	%fs:40, %rax
	movq	%rax, 104(%rsp)
	xorl	%eax, %eax
	.loc 1 1103 3 is_stmt 1 view .LVU619
.LBB343:
	.loc 1 1103 8 view .LVU620
.LVL369:
	.loc 1 1103 19 view .LVU621
	.loc 1 1103 3 is_stmt 0 view .LVU622
	cmpl	$1, %ecx
	jle	.L140
	.loc 1 1103 12 view .LVU623
	movl	$1, %ebp
	jmp	.L141
.LVL370:
	.p2align 4,,10
	.p2align 3
.L310:
.LBB344:
	.loc 1 1121 11 is_stmt 1 view .LVU624
	.loc 1 1121 50 is_stmt 0 view .LVU625
	xorl	$1, %r12d
.LVL371:
	.loc 1 1121 50 view .LVU626
	movzbl	%r12b, %r12d
	movl	%r12d, tcsetattr_options(%rip)
	.loc 1 1122 11 is_stmt 1 view .LVU627
.LVL372:
.L142:
	.loc 1 1122 11 is_stmt 0 view .LVU628
.LBE344:
	.loc 1 1103 35 is_stmt 1 discriminator 2 view .LVU629
	.loc 1 1103 36 is_stmt 0 discriminator 2 view .LVU630
	addl	$1, %ebp
.LVL373:
	.loc 1 1103 19 is_stmt 1 discriminator 2 view .LVU631
	.loc 1 1103 3 is_stmt 0 discriminator 2 view .LVU632
	cmpl	%ebp, 40(%rsp)
	jle	.L140
.LVL374:
.L141:
.LBB456:
	.loc 1 1105 7 is_stmt 1 view .LVU633
	.loc 1 1105 19 is_stmt 0 view .LVU634
	movq	8(%rsp), %rcx
	.loc 1 1105 33 view .LVU635
	movslq	%ebp, %rax
	leaq	0(,%rax,8), %rdx
	.loc 1 1105 19 view .LVU636
	movq	(%rcx,%rax,8), %r15
	.loc 1 1105 33 view .LVU637
	movq	%rdx, 16(%rsp)
.LVL375:
	.loc 1 1106 7 is_stmt 1 view .LVU638
	.loc 1 1107 7 view .LVU639
	.loc 1 1108 7 view .LVU640
	.loc 1 1109 7 view .LVU641
	.loc 1 1111 7 view .LVU642
	.loc 1 1111 10 is_stmt 0 view .LVU643
	testq	%r15, %r15
	je	.L142
	.loc 1 1114 7 is_stmt 1 view .LVU644
	.loc 1 1108 12 is_stmt 0 view .LVU645
	xorl	%r12d, %r12d
	.loc 1 1114 10 view .LVU646
	cmpb	$45, (%r15)
	jne	.L143
	.loc 1 1116 11 is_stmt 1 view .LVU647
.LVL376:
	.loc 1 1116 11 is_stmt 0 view .LVU648
	addq	$1, %r15
.LVL377:
	.loc 1 1117 11 is_stmt 1 view .LVU649
	.loc 1 1117 20 is_stmt 0 view .LVU650
	movl	$1, %r12d
.LVL378:
.L143:
	.loc 1 1119 7 is_stmt 1 view .LVU651
	.loc 1 1119 11 is_stmt 0 view .LVU652
	movl	$6, %ecx
	movq	%r15, %rsi
	leaq	.LC130(%rip), %rdi
	repz cmpsb
.LVL379:
	.loc 1 1119 11 view .LVU653
	seta	%al
	sbbb	$0, %al
	.loc 1 1119 10 view .LVU654
	testb	%al, %al
	je	.L310
	leaq	32+mode_info(%rip), %r13
	.loc 1 1124 14 view .LVU655
	xorl	%ebx, %ebx
	.loc 1 1124 31 view .LVU656
	leaq	.LC128(%rip), %r14
	jmp	.L184
.LVL380:
	.p2align 4,,10
	.p2align 3
.L145:
	.loc 1 1124 46 is_stmt 1 discriminator 2 view .LVU657
	.loc 1 1124 31 is_stmt 0 discriminator 2 view .LVU658
	movq	0(%r13), %r14
	addq	$32, %r13
	.loc 1 1124 46 discriminator 2 view .LVU659
	addl	$1, %ebx
.LVL381:
	.loc 1 1124 19 is_stmt 1 discriminator 2 view .LVU660
	.loc 1 1124 7 is_stmt 0 discriminator 2 view .LVU661
	testq	%r14, %r14
	je	.L311
.LVL382:
.L184:
	.loc 1 1126 11 is_stmt 1 view .LVU662
	.loc 1 1126 15 is_stmt 0 view .LVU663
	movq	%r14, %rsi
	movq	%r15, %rdi
	call	strcmp@PLT
.LVL383:
	.loc 1 1126 14 view .LVU664
	testl	%eax, %eax
	jne	.L145
	.loc 1 1128 15 is_stmt 1 view .LVU665
	.loc 1 1128 32 is_stmt 0 view .LVU666
	movslq	%ebx, %rbx
	.loc 1 1128 32 view .LVU667
	leaq	mode_info(%rip), %rax
	salq	$5, %rbx
.LVL384:
	.loc 1 1128 32 view .LVU668
	addq	%rax, %rbx
	movzbl	12(%rbx), %eax
	.loc 1 1128 18 view .LVU669
	testb	$16, %al
	je	.L312
.LVL385:
.L146:
	.loc 1 1158 7 is_stmt 1 view .LVU670
	.loc 1 1160 11 view .LVU671
	.loc 1 1160 15 is_stmt 0 view .LVU672
	movl	$7, %ecx
	leaq	.LC161(%rip), %rdi
	movq	%r15, %rsi
	repz cmpsb
	seta	%al
	sbbb	$0, %al
	.loc 1 1160 14 view .LVU673
	testb	%al, %al
	jne	.L313
	.loc 1 1162 15 is_stmt 1 view .LVU674
	.loc 1 1162 15 view .LVU675
	movl	40(%rsp), %eax
	subl	$1, %eax
	cmpl	%ebp, %eax
	je	.L187
	.loc 1 1162 15 is_stmt 0 discriminator 2 view .LVU676
	movq	8(%rsp), %rax
	movq	16(%rsp), %rdx
	movq	8(%rax,%rdx), %rdi
	testq	%rdi, %rdi
	je	.L187
	.loc 1 1162 15 is_stmt 1 discriminator 4 view .LVU677
	.loc 1 1163 15 discriminator 4 view .LVU678
	addl	$1, %ebp
.LVL386:
	.loc 1 1164 15 discriminator 4 view .LVU679
	.loc 1 1164 18 is_stmt 0 discriminator 4 view .LVU680
	cmpb	$0, 47(%rsp)
	jne	.L142
	.loc 1 1166 15 is_stmt 1 view .LVU681
.LVL387:
.LBB345:
.LBI345:
	.loc 1 1699 1 view .LVU682
.LBB346:
	.loc 1 1701 3 view .LVU683
	.loc 1 1703 3 view .LVU684
	.loc 1 1703 10 is_stmt 0 view .LVU685
	call	string_to_baud
.LVL388:
	.loc 1 1705 5 view .LVU686
	movq	24(%rsp), %rdi
.LBE346:
.LBE345:
.LBE456:
	.loc 1 1103 36 view .LVU687
	addl	$1, %ebp
.LVL389:
.LBB457:
.LBB348:
.LBB347:
	.loc 1 1703 10 view .LVU688
	movl	%eax, %esi
.LVL390:
	.loc 1 1704 3 is_stmt 1 view .LVU689
	.loc 1 1705 5 view .LVU690
	call	cfsetispeed@PLT
.LVL391:
	.loc 1 1706 3 view .LVU691
	.loc 1 1706 3 is_stmt 0 view .LVU692
.LBE347:
.LBE348:
	.loc 1 1167 15 is_stmt 1 view .LVU693
	.loc 1 1167 30 is_stmt 0 view .LVU694
	movq	48(%rsp), %rax
	movb	$1, (%rax)
	.loc 1 1168 15 is_stmt 1 view .LVU695
	.loc 1 1168 33 is_stmt 0 view .LVU696
	movq	32(%rsp), %rax
	movb	$1, (%rax)
.LVL392:
	.loc 1 1168 33 view .LVU697
.LBE457:
	.loc 1 1103 35 is_stmt 1 view .LVU698
	.loc 1 1103 19 view .LVU699
	.loc 1 1103 3 is_stmt 0 view .LVU700
	cmpl	%ebp, 40(%rsp)
	jg	.L141
.LVL393:
.L140:
	.loc 1 1103 3 view .LVU701
.LBE343:
	.loc 1 1265 1 view .LVU702
	movq	104(%rsp), %rax
	xorq	%fs:40, %rax
	jne	.L314
	addq	$120, %rsp
	.cfi_remember_state
	.cfi_def_cfa_offset 56
	popq	%rbx
	.cfi_def_cfa_offset 48
	popq	%rbp
	.cfi_def_cfa_offset 40
	popq	%r12
	.cfi_def_cfa_offset 32
	popq	%r13
	.cfi_def_cfa_offset 24
	popq	%r14
	.cfi_def_cfa_offset 16
	popq	%r15
	.cfi_def_cfa_offset 8
	ret
.LVL394:
	.p2align 4,,10
	.p2align 3
.L311:
	.cfi_restore_state
.LBB460:
.LBB458:
	.loc 1 1138 7 is_stmt 1 view .LVU703
	.loc 1 1138 10 is_stmt 0 view .LVU704
	testb	%r12b, %r12b
	jne	.L315
	leaq	24+control_info(%rip), %r14
	.loc 1 1145 18 view .LVU705
	xorl	%ebx, %ebx
.LVL395:
	.loc 1 1145 38 view .LVU706
	leaq	.LC129(%rip), %r12
.LVL396:
	.loc 1 1145 38 view .LVU707
	jmp	.L195
.LVL397:
	.p2align 4,,10
	.p2align 3
.L186:
	.loc 1 1145 53 is_stmt 1 discriminator 2 view .LVU708
	.loc 1 1145 38 is_stmt 0 discriminator 2 view .LVU709
	movq	(%r14), %r12
	addq	$24, %r14
	.loc 1 1145 53 discriminator 2 view .LVU710
	addl	$1, %ebx
.LVL398:
	.loc 1 1145 23 is_stmt 1 discriminator 2 view .LVU711
	.loc 1 1145 11 is_stmt 0 discriminator 2 view .LVU712
	testq	%r12, %r12
	je	.L146
.LVL399:
.L195:
	.loc 1 1147 15 is_stmt 1 view .LVU713
	.loc 1 1147 19 is_stmt 0 view .LVU714
	movq	%r12, %rsi
	movq	%r15, %rdi
	call	strcmp@PLT
.LVL400:
	.loc 1 1147 18 view .LVU715
	testl	%eax, %eax
	jne	.L186
	.loc 1 1149 19 is_stmt 1 view .LVU716
	.loc 1 1149 19 view .LVU717
	movl	40(%rsp), %eax
	subl	$1, %eax
	cmpl	%ebp, %eax
	je	.L187
	.loc 1 1149 19 is_stmt 0 discriminator 2 view .LVU718
	movq	8(%rsp), %rax
	movq	16(%rsp), %rdx
	movq	8(%rax,%rdx), %r13
	testq	%r13, %r13
	je	.L187
	.loc 1 1149 19 is_stmt 1 discriminator 4 view .LVU719
	.loc 1 1150 19 discriminator 4 view .LVU720
.LVL401:
	.loc 1 1151 19 discriminator 4 view .LVU721
.LBB349:
.LBB350:
	.loc 1 1680 7 is_stmt 0 discriminator 4 view .LVU722
	movl	$4, %ecx
	movq	%r12, %rsi
.LBE350:
.LBE349:
	.loc 1 1151 19 discriminator 4 view .LVU723
	addl	$1, %ebp
.LVL402:
	.loc 1 1152 19 is_stmt 1 discriminator 4 view .LVU724
	movslq	%ebx, %rbx
.LBB361:
.LBB355:
	.loc 1 1680 7 is_stmt 0 discriminator 4 view .LVU725
	leaq	.LC149(%rip), %rdi
.LBE355:
.LBE361:
	.loc 1 1152 19 discriminator 4 view .LVU726
	leaq	control_info(%rip), %rax
.LBB362:
.LBB356:
	.loc 1 1680 7 discriminator 4 view .LVU727
	repz cmpsb
.LBE356:
.LBE362:
	.loc 1 1152 19 discriminator 4 view .LVU728
	leaq	(%rbx,%rbx,2), %rdx
	leaq	(%rax,%rdx,8), %rbx
.LVL403:
.LBB363:
.LBI349:
	.loc 1 1675 1 is_stmt 1 discriminator 4 view .LVU729
.LBB357:
	.loc 1 1678 3 discriminator 4 view .LVU730
	.loc 1 1680 3 discriminator 4 view .LVU731
	.loc 1 1680 7 is_stmt 0 discriminator 4 view .LVU732
	seta	%al
	sbbb	$0, %al
	.loc 1 1680 6 discriminator 4 view .LVU733
	testb	%al, %al
	je	.L194
	.loc 1 1680 36 view .LVU734
	movl	$5, %ecx
	leaq	.LC150(%rip), %rdi
	movq	%r12, %rsi
	repz cmpsb
	seta	%al
	sbbb	$0, %al
	.loc 1 1680 33 view .LVU735
	testb	%al, %al
	je	.L194
	.loc 1 1682 8 is_stmt 1 view .LVU736
	.loc 1 1682 15 is_stmt 0 view .LVU737
	movzbl	0(%r13), %r15d
	.loc 1 1682 11 view .LVU738
	testb	%r15b, %r15b
	jne	.L316
.L192:
	.loc 1 1683 5 is_stmt 1 view .LVU739
.LVL404:
.LBB351:
.LBI351:
	.loc 5 156 29 view .LVU740
.LBB352:
	.loc 5 156 50 view .LVU741
	.loc 5 156 50 is_stmt 0 view .LVU742
.LBE352:
.LBE351:
	.loc 1 1683 11 view .LVU743
	movzbl	%r15b, %r12d
.LVL405:
.L191:
	.loc 1 1695 3 is_stmt 1 view .LVU744
	.loc 1 1695 28 is_stmt 0 view .LVU745
	movq	16(%rbx), %rax
	movq	24(%rsp), %rdx
	movb	%r12b, 17(%rdx,%rax)
.LVL406:
	.loc 1 1695 28 view .LVU746
.LBE357:
.LBE363:
	.loc 1 1153 19 is_stmt 1 view .LVU747
	.loc 1 1153 37 is_stmt 0 view .LVU748
	movq	32(%rsp), %rax
	movb	$1, (%rax)
	.loc 1 1154 19 is_stmt 1 view .LVU749
	jmp	.L142
.LVL407:
	.p2align 4,,10
	.p2align 3
.L313:
	.loc 1 1170 16 view .LVU750
	.loc 1 1170 20 is_stmt 0 view .LVU751
	movl	$7, %ecx
	leaq	.LC153(%rip), %rdi
	movq	%r15, %rsi
	repz cmpsb
	seta	%al
	sbbb	$0, %al
	.loc 1 1170 19 view .LVU752
	testb	%al, %al
	jne	.L198
	.loc 1 1172 15 is_stmt 1 view .LVU753
	.loc 1 1172 15 view .LVU754
	movl	40(%rsp), %eax
	subl	$1, %eax
	cmpl	%ebp, %eax
	je	.L187
	.loc 1 1172 15 is_stmt 0 discriminator 2 view .LVU755
	movq	8(%rsp), %rax
	movq	16(%rsp), %rdx
	movq	8(%rax,%rdx), %rdi
	testq	%rdi, %rdi
	je	.L187
	.loc 1 1172 15 is_stmt 1 discriminator 4 view .LVU756
	.loc 1 1173 15 discriminator 4 view .LVU757
	addl	$1, %ebp
.LVL408:
	.loc 1 1174 15 discriminator 4 view .LVU758
	.loc 1 1174 18 is_stmt 0 discriminator 4 view .LVU759
	cmpb	$0, 47(%rsp)
	jne	.L142
	.loc 1 1176 15 is_stmt 1 view .LVU760
.LVL409:
.LBB364:
.LBI364:
	.loc 1 1699 1 view .LVU761
.LBB365:
	.loc 1 1701 3 view .LVU762
	.loc 1 1703 3 view .LVU763
	.loc 1 1703 10 is_stmt 0 view .LVU764
	call	string_to_baud
.LVL410:
	.loc 1 1707 5 view .LVU765
	movq	24(%rsp), %rdi
	.loc 1 1703 10 view .LVU766
	movl	%eax, %esi
.LVL411:
	.loc 1 1704 3 is_stmt 1 view .LVU767
	.loc 1 1706 3 view .LVU768
	.loc 1 1707 5 view .LVU769
.L307:
	.loc 1 1707 5 is_stmt 0 view .LVU770
.LBE365:
.LBE364:
.LBB366:
.LBB367:
	call	cfsetospeed@PLT
.LVL412:
.LBE367:
.LBE366:
	.loc 1 1251 15 is_stmt 1 view .LVU771
	.loc 1 1251 30 is_stmt 0 view .LVU772
	movq	48(%rsp), %rax
	movb	$1, (%rax)
	.loc 1 1252 15 is_stmt 1 view .LVU773
	.loc 1 1252 33 is_stmt 0 view .LVU774
	movq	32(%rsp), %rax
	movb	$1, (%rax)
	jmp	.L142
.LVL413:
	.p2align 4,,10
	.p2align 3
.L315:
	.loc 1 1252 33 view .LVU775
	movq	%r15, %r13
.LVL414:
.L183:
	.loc 1 1140 11 is_stmt 1 view .LVU776
	leaq	-1(%r13), %rdi
	call	quote@PLT
.LVL415:
	.loc 1 1140 24 is_stmt 0 view .LVU777
	movl	$5, %edx
	leaq	.LC147(%rip), %rsi
	.loc 1 1140 11 view .LVU778
	movq	%rax, %r12
.LVL416:
.L309:
	.loc 1 1149 19 discriminator 3 view .LVU779
	xorl	%edi, %edi
	call	dcgettext@PLT
.LVL417:
	xorl	%edi, %edi
	movq	%r12, %rcx
	xorl	%esi, %esi
	movq	%rax, %rdx
	xorl	%eax, %eax
	call	error@PLT
.LVL418:
	.loc 1 1149 19 is_stmt 1 discriminator 3 view .LVU780
	movl	$1, %edi
	call	usage
.LVL419:
	.p2align 4,,10
	.p2align 3
.L312:
	.loc 1 1130 19 view .LVU781
.LBB369:
.LBI369:
	.loc 1 1469 1 view .LVU782
.LBB370:
	.loc 1 1471 3 view .LVU783
	.loc 1 1473 3 view .LVU784
	.loc 1 1473 6 is_stmt 0 view .LVU785
	testb	%r12b, %r12b
	je	.L147
	.loc 1 1473 16 view .LVU786
	testb	$4, %al
	je	.L317
	.loc 1 1476 3 is_stmt 1 view .LVU787
	.loc 1 1476 11 is_stmt 0 view .LVU788
	movq	24(%rsp), %rsi
	movl	8(%rbx), %edi
	call	mode_type_flag
.LVL420:
	.loc 1 1478 3 is_stmt 1 view .LVU789
	.loc 1 1478 6 is_stmt 0 view .LVU790
	testq	%rax, %rax
	je	.L318
	.loc 1 1666 8 is_stmt 1 view .LVU791
	.loc 1 1667 5 view .LVU792
	.loc 1 1667 35 is_stmt 0 view .LVU793
	movq	16(%rbx), %rdx
	orl	24(%rbx), %edx
	notl	%edx
	andl	%edx, (%rax)
.LVL421:
	.loc 1 1667 35 view .LVU794
.LBE370:
.LBE369:
	.loc 1 1131 19 is_stmt 1 view .LVU795
	.loc 1 1131 37 is_stmt 0 view .LVU796
	movq	32(%rsp), %rax
	movb	$1, (%rax)
	.loc 1 1138 7 is_stmt 1 view .LVU797
	jmp	.L142
.LVL422:
	.p2align 4,,10
	.p2align 3
.L198:
	.loc 1 1198 16 view .LVU798
	.loc 1 1198 20 is_stmt 0 view .LVU799
	movl	$5, %ecx
	leaq	.LC154(%rip), %rdi
	movq	%r15, %rsi
	repz cmpsb
	seta	%al
	sbbb	$0, %al
	.loc 1 1198 19 view .LVU800
	testb	%al, %al
	jne	.L201
	.loc 1 1200 15 is_stmt 1 view .LVU801
	.loc 1 1200 15 view .LVU802
	movl	40(%rsp), %eax
	subl	$1, %eax
	cmpl	%ebp, %eax
	je	.L187
	.loc 1 1200 15 is_stmt 0 discriminator 2 view .LVU803
	movq	8(%rsp), %rax
	movq	16(%rsp), %rdx
	movq	8(%rax,%rdx), %rdi
	testq	%rdi, %rdi
	je	.L187
	.loc 1 1200 15 is_stmt 1 discriminator 4 view .LVU804
	.loc 1 1201 15 discriminator 4 view .LVU805
	addl	$1, %ebp
.LVL423:
	.loc 1 1202 15 discriminator 4 view .LVU806
	.loc 1 1202 18 is_stmt 0 discriminator 4 view .LVU807
	cmpb	$0, 47(%rsp)
	jne	.L142
	.loc 1 1204 15 is_stmt 1 view .LVU808
	.loc 1 1204 32 is_stmt 0 view .LVU809
	movl	$2147483647, %esi
	call	integer_arg
.LVL424:
	.loc 1 1204 15 view .LVU810
	movq	56(%rsp), %rdx
	orl	$-1, %esi
	.loc 1 1204 32 view .LVU811
	movq	%rax, %rdi
	.loc 1 1204 15 view .LVU812
	call	set_window_size
.LVL425:
	jmp	.L142
.LVL426:
.L194:
.LBB404:
.LBB358:
	.loc 1 1694 5 is_stmt 1 view .LVU813
	.loc 1 1694 13 is_stmt 0 view .LVU814
	movl	$255, %esi
	movq	%r13, %rdi
	call	integer_arg
.LVL427:
	movq	%rax, %r12
.LVL428:
	.loc 1 1694 13 view .LVU815
	jmp	.L191
.LVL429:
.L147:
	.loc 1 1694 13 view .LVU816
.LBE358:
.LBE404:
.LBB405:
.LBB375:
	.loc 1 1476 3 is_stmt 1 view .LVU817
	.loc 1 1476 11 is_stmt 0 view .LVU818
	movq	24(%rsp), %rsi
	movl	8(%rbx), %edi
	call	mode_type_flag
.LVL430:
	.loc 1 1478 3 is_stmt 1 view .LVU819
	.loc 1 1478 6 is_stmt 0 view .LVU820
	testq	%rax, %rax
	je	.L319
	.loc 1 1666 8 is_stmt 1 view .LVU821
	.loc 1 1669 5 view .LVU822
	.loc 1 1669 22 is_stmt 0 view .LVU823
	movl	24(%rbx), %edx
	notl	%edx
	andl	(%rax), %edx
	.loc 1 1669 37 view .LVU824
	orl	16(%rbx), %edx
	movl	%edx, (%rax)
.LVL431:
	.loc 1 1669 37 view .LVU825
.LBE375:
.LBE405:
	.loc 1 1131 19 is_stmt 1 view .LVU826
	.loc 1 1131 37 is_stmt 0 view .LVU827
	movq	32(%rsp), %rax
	movb	$1, (%rax)
	.loc 1 1138 7 is_stmt 1 view .LVU828
	jmp	.L142
.LVL432:
.L201:
	.loc 1 1207 16 view .LVU829
	.loc 1 1207 20 is_stmt 0 view .LVU830
	movl	$5, %ecx
	leaq	.LC155(%rip), %rdi
	movq	%r15, %rsi
	repz cmpsb
	seta	%al
	sbbb	$0, %al
	.loc 1 1207 19 view .LVU831
	testb	%al, %al
	je	.L204
	.loc 1 1208 23 view .LVU832
	leaq	.LC156(%rip), %rsi
	movq	%r15, %rdi
	call	strcmp@PLT
.LVL433:
	.loc 1 1208 20 view .LVU833
	testl	%eax, %eax
	jne	.L205
.L204:
	.loc 1 1210 15 is_stmt 1 view .LVU834
	.loc 1 1210 15 view .LVU835
	movl	40(%rsp), %eax
	subl	$1, %eax
	cmpl	%ebp, %eax
	je	.L187
	.loc 1 1210 15 is_stmt 0 discriminator 2 view .LVU836
	movq	8(%rsp), %rax
	movq	16(%rsp), %rdx
	movq	8(%rax,%rdx), %rdi
	testq	%rdi, %rdi
	je	.L187
	.loc 1 1210 15 is_stmt 1 discriminator 4 view .LVU837
	.loc 1 1211 15 discriminator 4 view .LVU838
	addl	$1, %ebp
.LVL434:
	.loc 1 1212 15 discriminator 4 view .LVU839
	.loc 1 1212 18 is_stmt 0 discriminator 4 view .LVU840
	cmpb	$0, 47(%rsp)
	jne	.L142
	.loc 1 1214 15 is_stmt 1 view .LVU841
	.loc 1 1214 36 is_stmt 0 view .LVU842
	movl	$2147483647, %esi
	call	integer_arg
.LVL435:
	.loc 1 1214 15 view .LVU843
	movq	56(%rsp), %rdx
	orl	$-1, %edi
	.loc 1 1214 36 view .LVU844
	movq	%rax, %rsi
	.loc 1 1214 15 view .LVU845
	call	set_window_size
.LVL436:
	jmp	.L142
.LVL437:
.L319:
.LBB406:
.LBB376:
	.loc 1 1481 7 is_stmt 1 view .LVU846
	.loc 1 1481 11 is_stmt 0 view .LVU847
	leaq	.LC162(%rip), %rsi
	movq	%r14, %rdi
	call	strcmp@PLT
.LVL438:
	.loc 1 1481 10 view .LVU848
	testl	%eax, %eax
	je	.L234
	.loc 1 1481 42 view .LVU849
	leaq	.LC163(%rip), %rsi
	movq	%r14, %rdi
	call	strcmp@PLT
.LVL439:
	.loc 1 1481 39 view .LVU850
	testl	%eax, %eax
	je	.L234
	.loc 1 1488 12 is_stmt 1 view .LVU851
	.loc 1 1488 16 is_stmt 0 view .LVU852
	leaq	.LC164(%rip), %rsi
	movq	%r14, %rdi
	call	strcmp@PLT
.LVL440:
	.loc 1 1488 15 view .LVU853
	testl	%eax, %eax
	je	.L320
.L239:
	.loc 1 1495 12 is_stmt 1 view .LVU854
	.loc 1 1495 16 is_stmt 0 view .LVU855
	leaq	.LC131(%rip), %rsi
	movq	%r14, %rdi
	call	strcmp@PLT
.LVL441:
	.loc 1 1495 15 view .LVU856
	testl	%eax, %eax
	jne	.L150
	.loc 1 1497 11 is_stmt 1 view .LVU857
	.loc 1 1515 45 is_stmt 0 view .LVU858
	movabsq	$-17179869441, %rcx
	movq	24(%rsp), %rsi
	movl	4(%rsi), %eax
	movl	(%rsi), %edx
	andq	(%rsi), %rcx
	.loc 1 1497 14 view .LVU859
	testb	%r12b, %r12b
	je	.L151
	.loc 1 1499 15 is_stmt 1 view .LVU860
	.loc 1 1509 17 is_stmt 0 view .LVU861
	andl	$-45, %eax
	.loc 1 1499 64 view .LVU862
	andl	$-449, %edx
	.loc 1 1509 17 view .LVU863
	orl	$4, %eax
	.loc 1 1499 64 view .LVU864
	orb	$1, %dh
	.loc 1 1509 17 view .LVU865
	movl	%eax, 4(%rsi)
.LBE376:
.LBE406:
	.loc 1 1131 37 view .LVU866
	movq	32(%rsp), %rax
.LBB407:
.LBB377:
	.loc 1 1499 64 view .LVU867
	movl	%edx, (%rsi)
	.loc 1 1500 15 is_stmt 1 view .LVU868
.LVL442:
	.loc 1 1500 15 is_stmt 0 view .LVU869
.LBE377:
.LBE407:
	.loc 1 1131 19 is_stmt 1 view .LVU870
	.loc 1 1131 37 is_stmt 0 view .LVU871
	movb	$1, (%rax)
	.loc 1 1138 7 is_stmt 1 view .LVU872
	jmp	.L142
.LVL443:
.L316:
.LBB408:
.LBB359:
	.loc 1 1682 33 is_stmt 0 view .LVU873
	movzbl	1(%r13), %r14d
	.loc 1 1682 27 view .LVU874
	testb	%r14b, %r14b
	je	.L192
	.loc 1 1684 8 is_stmt 1 view .LVU875
	.loc 1 1684 12 is_stmt 0 view .LVU876
	leaq	.LC151(%rip), %rsi
	movq	%r13, %rdi
	.loc 1 1685 11 view .LVU877
	xorl	%r12d, %r12d
	.loc 1 1684 12 view .LVU878
	call	strcmp@PLT
.LVL444:
	.loc 1 1684 11 view .LVU879
	testl	%eax, %eax
	je	.L191
	.loc 1 1684 33 view .LVU880
	leaq	.LC152(%rip), %rsi
	movq	%r13, %rdi
	call	strcmp@PLT
.LVL445:
	.loc 1 1684 30 view .LVU881
	testl	%eax, %eax
	je	.L191
	.loc 1 1686 8 is_stmt 1 view .LVU882
	.loc 1 1686 11 is_stmt 0 view .LVU883
	cmpb	$94, %r15b
	jne	.L194
	.loc 1 1688 7 is_stmt 1 view .LVU884
	.loc 1 1688 10 is_stmt 0 view .LVU885
	cmpb	$63, %r14b
	je	.L246
	.loc 1 1691 9 is_stmt 1 view .LVU886
.LVL446:
.LBB353:
.LBI353:
	.loc 5 156 29 view .LVU887
.LBB354:
	.loc 5 156 50 view .LVU888
	.loc 5 156 50 is_stmt 0 view .LVU889
.LBE354:
.LBE353:
	.loc 1 1691 15 view .LVU890
	movq	%r14, %r12
	andl	$159, %r12d
.LVL447:
	.loc 1 1691 15 view .LVU891
	jmp	.L191
.LVL448:
.L205:
	.loc 1 1691 15 view .LVU892
.LBE359:
.LBE408:
	.loc 1 1217 16 is_stmt 1 view .LVU893
	.loc 1 1217 20 is_stmt 0 view .LVU894
	leaq	.LC157(%rip), %rsi
	movq	%r15, %rdi
	call	strcmp@PLT
.LVL449:
	.loc 1 1217 19 view .LVU895
	testl	%eax, %eax
	je	.L321
	.loc 1 1227 16 is_stmt 1 view .LVU896
	.loc 1 1227 20 is_stmt 0 view .LVU897
	leaq	.LC158(%rip), %rsi
	movq	%r15, %rdi
	call	strcmp@PLT
.LVL450:
	.loc 1 1227 19 view .LVU898
	testl	%eax, %eax
	jne	.L209
.LBB409:
	.loc 1 1229 15 is_stmt 1 view .LVU899
	.loc 1 1230 15 view .LVU900
	.loc 1 1230 15 view .LVU901
	movl	40(%rsp), %eax
	subl	$1, %eax
	cmpl	%ebp, %eax
	je	.L187
	.loc 1 1230 15 is_stmt 0 discriminator 2 view .LVU902
	movq	8(%rsp), %rax
	movq	16(%rsp), %rdx
	leaq	8(%rax,%rdx), %rbx
	movq	(%rbx), %rdi
	testq	%rdi, %rdi
	je	.L187
	.loc 1 1230 15 is_stmt 1 discriminator 4 view .LVU903
	.loc 1 1231 15 discriminator 4 view .LVU904
	.loc 1 1232 38 is_stmt 0 discriminator 4 view .LVU905
	orq	$-1, %rsi
	.loc 1 1231 15 discriminator 4 view .LVU906
	addl	$1, %ebp
.LVL451:
	.loc 1 1232 15 is_stmt 1 discriminator 4 view .LVU907
	.loc 1 1232 38 is_stmt 0 discriminator 4 view .LVU908
	call	integer_arg
.LVL452:
	.loc 1 1232 28 discriminator 4 view .LVU909
	movq	24(%rsp), %rdx
	movb	%al, 16(%rdx)
	.loc 1 1233 15 is_stmt 1 discriminator 4 view .LVU910
	.loc 1 1233 18 is_stmt 0 discriminator 4 view .LVU911
	testq	$-256, %rax
	jne	.L322
.LVL453:
.L308:
	.loc 1 1233 18 discriminator 4 view .LVU912
.LBE409:
	.loc 1 1131 19 is_stmt 1 view .LVU913
	.loc 1 1131 37 is_stmt 0 view .LVU914
	movq	32(%rsp), %rax
	movb	$1, (%rax)
.LVL454:
	.loc 1 1138 7 is_stmt 1 view .LVU915
	jmp	.L142
.LVL455:
.L234:
.LBB410:
.LBB378:
	.loc 1 1486 13 view .LVU916
	.loc 1 1486 64 is_stmt 0 view .LVU917
	movq	24(%rsp), %rdx
	movl	8(%rdx), %eax
	movl	%eax, 16(%rsp)
	andl	$-817, %eax
	.loc 1 1486 73 view .LVU918
	orl	$288, %eax
	movl	%eax, 8(%rdx)
.LVL456:
	.loc 1 1486 73 view .LVU919
.LBE378:
.LBE410:
	.loc 1 1131 19 is_stmt 1 view .LVU920
	.loc 1 1131 37 is_stmt 0 view .LVU921
	movq	32(%rsp), %rax
	movb	$1, (%rax)
	.loc 1 1138 7 is_stmt 1 view .LVU922
	jmp	.L142
.LVL457:
.L317:
	.loc 1 1131 37 is_stmt 0 view .LVU923
	movq	32(%rsp), %rax
	movq	%r15, %r13
.LVL458:
	.loc 1 1131 19 is_stmt 1 view .LVU924
	.loc 1 1131 37 is_stmt 0 view .LVU925
	movb	$1, (%rax)
	.loc 1 1138 7 is_stmt 1 view .LVU926
	jmp	.L183
.LVL459:
.L321:
	.loc 1 1219 15 view .LVU927
	.loc 1 1219 18 is_stmt 0 view .LVU928
	cmpb	$0, 47(%rsp)
	jne	.L142
	.loc 1 1221 15 is_stmt 1 view .LVU929
	.loc 1 1221 25 is_stmt 0 view .LVU930
	call	screen_columns
.LVL460:
	.loc 1 1223 15 view .LVU931
	movq	56(%rsp), %rsi
	xorl	%edi, %edi
	.loc 1 1222 27 view .LVU932
	movl	$0, current_col(%rip)
	.loc 1 1221 23 view .LVU933
	movl	%eax, max_col(%rip)
	.loc 1 1222 15 is_stmt 1 view .LVU934
	.loc 1 1223 15 view .LVU935
	call	display_window_size
.LVL461:
	jmp	.L142
.LVL462:
.L318:
.LBB411:
.LBB379:
	.loc 1 1481 7 view .LVU936
	.loc 1 1481 11 is_stmt 0 view .LVU937
	leaq	.LC162(%rip), %rsi
	movq	%r14, %rdi
	call	strcmp@PLT
.LVL463:
	.loc 1 1481 10 view .LVU938
	testl	%eax, %eax
	jne	.L323
.L238:
	.loc 1 1490 11 is_stmt 1 view .LVU939
	.loc 1 1491 13 view .LVU940
	.loc 1 1491 54 is_stmt 0 view .LVU941
	movq	24(%rsp), %rdx
	movl	8(%rdx), %eax
	movl	%eax, 16(%rsp)
	andl	$-305, %eax
	.loc 1 1491 64 view .LVU942
	orl	$48, %eax
	movl	%eax, 8(%rdx)
.LVL464:
	.loc 1 1491 64 view .LVU943
.LBE379:
.LBE411:
	.loc 1 1131 19 is_stmt 1 view .LVU944
	.loc 1 1131 37 is_stmt 0 view .LVU945
	movq	32(%rsp), %rax
	movb	$1, (%rax)
	.loc 1 1138 7 is_stmt 1 view .LVU946
	jmp	.L142
.LVL465:
.L209:
	.loc 1 1239 16 view .LVU947
	.loc 1 1239 20 is_stmt 0 view .LVU948
	leaq	.LC160(%rip), %rsi
	movq	%r15, %rdi
	call	strcmp@PLT
.LVL466:
	.loc 1 1239 19 view .LVU949
	testl	%eax, %eax
	je	.L324
	.loc 1 1246 16 is_stmt 1 view .LVU950
	.loc 1 1246 20 is_stmt 0 view .LVU951
	movq	%r15, %rdi
	call	string_to_baud
.LVL467:
	movl	%eax, %r12d
	.loc 1 1246 19 view .LVU952
	cmpl	$-1, %eax
	je	.L214
	.loc 1 1248 15 is_stmt 1 view .LVU953
	.loc 1 1248 18 is_stmt 0 view .LVU954
	cmpb	$0, 47(%rsp)
	jne	.L142
	.loc 1 1250 15 is_stmt 1 view .LVU955
.LVL468:
.LBB412:
.LBI366:
	.loc 1 1699 1 view .LVU956
.LBB368:
	.loc 1 1701 3 view .LVU957
	.loc 1 1703 3 view .LVU958
	.loc 1 1704 3 view .LVU959
	.loc 1 1705 5 view .LVU960
	movq	24(%rsp), %rbx
	movl	%eax, %esi
	movq	%rbx, %rdi
	call	cfsetispeed@PLT
.LVL469:
	.loc 1 1706 3 view .LVU961
	.loc 1 1707 5 view .LVU962
	movl	%r12d, %esi
	movq	%rbx, %rdi
	jmp	.L307
.LVL470:
.L150:
	.loc 1 1707 5 is_stmt 0 view .LVU963
.LBE368:
.LBE412:
.LBB413:
.LBB380:
	.loc 1 1521 12 is_stmt 1 view .LVU964
	.loc 1 1521 16 is_stmt 0 view .LVU965
	leaq	.LC132(%rip), %rsi
	movq	%r14, %rdi
	call	strcmp@PLT
.LVL471:
	.loc 1 1521 15 view .LVU966
	testl	%eax, %eax
	jne	.L152
	.loc 1 1523 11 is_stmt 1 view .LVU967
	.loc 1 1524 11 view .LVU968
	.loc 1 1523 30 is_stmt 0 view .LVU969
	movq	24(%rsp), %rax
	movw	$5503, 19(%rax)
.LVL472:
	.loc 1 1523 30 view .LVU970
.LBE380:
.LBE413:
	.loc 1 1131 19 is_stmt 1 view .LVU971
	.loc 1 1131 37 is_stmt 0 view .LVU972
	movq	32(%rsp), %rax
	movb	$1, (%rax)
	.loc 1 1138 7 is_stmt 1 view .LVU973
	jmp	.L142
.LVL473:
.L320:
.LBB414:
.LBB381:
	.loc 1 1490 11 view .LVU974
	.loc 1 1493 13 view .LVU975
	.loc 1 1493 69 is_stmt 0 view .LVU976
	movq	24(%rsp), %rdx
	movl	8(%rdx), %eax
	movl	%eax, 16(%rsp)
	andl	$-817, %eax
	orl	$800, %eax
	movl	%eax, 8(%rdx)
.LVL474:
	.loc 1 1493 69 view .LVU977
.LBE381:
.LBE414:
	.loc 1 1131 19 is_stmt 1 view .LVU978
	.loc 1 1131 37 is_stmt 0 view .LVU979
	movq	32(%rsp), %rax
	movb	$1, (%rax)
	.loc 1 1138 7 is_stmt 1 view .LVU980
	jmp	.L142
.LVL475:
.L322:
.LBB415:
	.loc 1 1234 17 view .LVU981
	movq	(%rbx), %rdi
	call	quote@PLT
.LVL476:
	.loc 1 1234 30 is_stmt 0 view .LVU982
	xorl	%edi, %edi
	movl	$5, %edx
	leaq	.LC159(%rip), %rsi
	.loc 1 1234 17 view .LVU983
	movq	%rax, %r12
	.loc 1 1234 30 view .LVU984
	call	dcgettext@PLT
.LVL477:
	.loc 1 1234 17 view .LVU985
	movq	%r12, %rcx
	xorl	%esi, %esi
	xorl	%edi, %edi
	.loc 1 1234 30 view .LVU986
	movq	%rax, %rdx
	.loc 1 1234 17 view .LVU987
	xorl	%eax, %eax
	call	error@PLT
.LVL478:
	.loc 1 1236 15 is_stmt 1 view .LVU988
	jmp	.L308
.L324:
	.loc 1 1236 15 is_stmt 0 view .LVU989
.LBE415:
	.loc 1 1241 15 is_stmt 1 view .LVU990
	.loc 1 1241 18 is_stmt 0 view .LVU991
	cmpb	$0, 47(%rsp)
	jne	.L142
	.loc 1 1243 15 is_stmt 1 view .LVU992
	.loc 1 1243 25 is_stmt 0 view .LVU993
	call	screen_columns
.LVL479:
	.loc 1 1244 15 view .LVU994
	movq	24(%rsp), %rdi
	xorl	%esi, %esi
	.loc 1 1243 23 view .LVU995
	movl	%eax, max_col(%rip)
	.loc 1 1244 15 is_stmt 1 view .LVU996
	call	display_speed
.LVL480:
	jmp	.L142
.L187:
	.loc 1 1149 19 discriminator 3 view .LVU997
	movq	%r15, %rdi
	call	quote@PLT
.LVL481:
	movl	$5, %edx
	leaq	.LC148(%rip), %rsi
	movq	%rax, %r12
	jmp	.L309
.LVL482:
.L151:
.LBB416:
.LBB382:
	.loc 1 1515 15 view .LVU998
	.loc 1 1517 15 view .LVU999
	.loc 1 1515 29 is_stmt 0 view .LVU1000
	movq	24(%rsp), %rax
	movq	%rcx, (%rax)
.LVL483:
	.loc 1 1515 29 view .LVU1001
.LBE382:
.LBE416:
	.loc 1 1131 19 is_stmt 1 view .LVU1002
	.loc 1 1131 37 is_stmt 0 view .LVU1003
	movq	32(%rsp), %rax
	movb	$1, (%rax)
	.loc 1 1138 7 is_stmt 1 view .LVU1004
	jmp	.L142
.LVL484:
.L323:
.LBB417:
.LBB383:
	.loc 1 1481 42 is_stmt 0 view .LVU1005
	leaq	.LC163(%rip), %rsi
	movq	%r14, %rdi
	call	strcmp@PLT
.LVL485:
	.loc 1 1481 39 view .LVU1006
	testl	%eax, %eax
	je	.L238
	.loc 1 1488 12 is_stmt 1 view .LVU1007
	.loc 1 1488 16 is_stmt 0 view .LVU1008
	leaq	.LC164(%rip), %rsi
	movq	%r14, %rdi
	call	strcmp@PLT
.LVL486:
	.loc 1 1488 15 view .LVU1009
	testl	%eax, %eax
	je	.L238
	jmp	.L239
.LVL487:
.L246:
	.loc 1 1488 15 view .LVU1010
.LBE383:
.LBE417:
.LBB418:
.LBB360:
	.loc 1 1689 15 view .LVU1011
	movl	$127, %r12d
	jmp	.L191
.LVL488:
.L152:
	.loc 1 1689 15 view .LVU1012
.LBE360:
.LBE418:
.LBB419:
.LBB384:
	.loc 1 1526 12 is_stmt 1 view .LVU1013
	.loc 1 1526 16 is_stmt 0 view .LVU1014
	leaq	.LC133(%rip), %rsi
	movq	%r14, %rdi
	call	strcmp@PLT
.LVL489:
	.loc 1 1526 15 view .LVU1015
	testl	%eax, %eax
	je	.L325
	.loc 1 1528 12 is_stmt 1 view .LVU1016
	.loc 1 1528 16 is_stmt 0 view .LVU1017
	leaq	.LC136(%rip), %rsi
	movq	%r14, %rdi
	call	strcmp@PLT
.LVL490:
	.loc 1 1528 15 view .LVU1018
	testl	%eax, %eax
	jne	.L163
	.loc 1 1530 11 is_stmt 1 view .LVU1019
	movq	24(%rsp), %rdx
	movl	12(%rdx), %eax
	.loc 1 1530 14 is_stmt 0 view .LVU1020
	testb	%r12b, %r12b
	je	.L164
	.loc 1 1531 13 is_stmt 1 view .LVU1021
	.loc 1 1531 27 is_stmt 0 view .LVU1022
	orl	$2, %eax
	movl	%eax, 12(%rdx)
.LVL491:
	.loc 1 1531 27 view .LVU1023
.LBE384:
.LBE419:
	.loc 1 1131 19 is_stmt 1 view .LVU1024
	.loc 1 1131 37 is_stmt 0 view .LVU1025
	movq	32(%rsp), %rax
	movb	$1, (%rax)
	.loc 1 1138 7 is_stmt 1 view .LVU1026
	jmp	.L142
.LVL492:
.L214:
.LBB420:
.LBB421:
.LBB422:
.LBB423:
.LBB424:
	.loc 1 2081 3 is_stmt 0 view .LVU1027
	call	__errno_location@PLT
.LVL493:
	movq	%r15, %rbx
.LBE424:
.LBE423:
.LBE422:
	.loc 1 2110 10 view .LVU1028
	xorl	%r13d, %r13d
	leaq	72(%rsp), %r14
.LBB429:
.LBB427:
.LBB425:
	.loc 1 2081 3 view .LVU1029
	movq	%rax, %r12
.L216:
.LVL494:
	.loc 1 2081 3 view .LVU1030
.LBE425:
.LBE427:
	.loc 1 2112 7 is_stmt 1 view .LVU1031
	.loc 1 2113 7 view .LVU1032
.LBB428:
.LBI423:
	.loc 1 2077 1 view .LVU1033
.LBB426:
	.loc 1 2080 3 view .LVU1034
	.loc 1 2081 3 view .LVU1035
	.loc 1 2081 9 is_stmt 0 view .LVU1036
	movl	$0, (%r12)
	.loc 1 2082 3 is_stmt 1 view .LVU1037
	.loc 1 2082 8 is_stmt 0 view .LVU1038
	movl	$16, %edx
	movq	%r14, %rsi
	movq	%rbx, %rdi
	call	strtoul@PLT
.LVL495:
	.loc 1 2083 3 is_stmt 1 view .LVU1039
	.loc 1 2083 6 is_stmt 0 view .LVU1040
	cmpl	$0, (%r12)
	jne	.L305
	.loc 1 2083 17 view .LVU1041
	movq	72(%rsp), %rdx
	.loc 1 2083 29 view .LVU1042
	cmpb	$58, (%rdx)
	jne	.L305
	cmpq	%rbx, %rdx
	je	.L305
	.loc 1 2083 40 view .LVU1043
	movl	%eax, %ecx
	cmpq	%rcx, %rax
	jne	.L305
	.loc 1 2085 3 is_stmt 1 view .LVU1044
	.loc 1 2085 11 is_stmt 0 view .LVU1045
	movl	%eax, 80(%rsp,%r13,4)
	.loc 1 2086 3 is_stmt 1 view .LVU1046
.LVL496:
	.loc 1 2086 3 is_stmt 0 view .LVU1047
.LBE426:
.LBE428:
	.loc 1 2115 7 is_stmt 1 view .LVU1048
.LBE429:
	.loc 1 2110 23 is_stmt 0 view .LVU1049
	addq	$1, %r13
.LVL497:
.LBB430:
	.loc 1 2115 9 view .LVU1050
	leaq	1(%rdx), %rbx
.LVL498:
	.loc 1 2115 9 view .LVU1051
.LBE430:
	.loc 1 2110 22 is_stmt 1 view .LVU1052
	.loc 1 2110 15 view .LVU1053
	.loc 1 2110 3 is_stmt 0 view .LVU1054
	cmpq	$4, %r13
	jne	.L216
	.loc 1 2117 3 is_stmt 1 view .LVU1055
	.loc 1 2118 3 view .LVU1056
	.loc 1 2119 3 view .LVU1057
	.loc 1 2120 3 view .LVU1058
	.loc 1 2117 17 is_stmt 0 view .LVU1059
	movq	80(%rsp), %rax
	movq	24(%rsp), %rdx
	movl	%ebp, 16(%rsp)
	.loc 1 2122 10 view .LVU1060
	xorl	%r13d, %r13d
.LVL499:
.LBB431:
	.loc 1 2125 12 view .LVU1061
	movl	$58, %ecx
	movq	%rbx, %rbp
.LVL500:
	.loc 1 2125 12 view .LVU1062
.LBE431:
	.loc 1 2117 17 view .LVU1063
	movq	%rax, (%rdx)
	.loc 1 2119 17 view .LVU1064
	movq	88(%rsp), %rax
	movl	%ecx, %ebx
.LVL501:
	.loc 1 2119 17 view .LVU1065
	movq	%rax, 8(%rdx)
	.loc 1 2122 3 is_stmt 1 view .LVU1066
.LVL502:
	.loc 1 2122 15 view .LVU1067
.LBB436:
	.loc 1 2124 7 view .LVU1068
	.loc 1 2125 7 view .LVU1069
	jmp	.L219
.LVL503:
.L222:
	.loc 1 2124 7 view .LVU1070
	.loc 1 2125 7 view .LVU1071
	.loc 1 2125 12 is_stmt 0 view .LVU1072
	cmpq	$31, %r13
	movl	$58, %ebx
.LVL504:
	.loc 1 2125 12 view .LVU1073
	cmove	%edx, %ebx
.LVL505:
.L219:
	.loc 1 2126 7 is_stmt 1 view .LVU1074
.LBB432:
.LBI432:
	.loc 1 2091 1 view .LVU1075
.LBB433:
	.loc 1 2093 3 view .LVU1076
	.loc 1 2094 3 view .LVU1077
	.loc 1 2094 9 is_stmt 0 view .LVU1078
	movl	$0, (%r12)
	.loc 1 2095 3 is_stmt 1 view .LVU1079
	.loc 1 2095 8 is_stmt 0 view .LVU1080
	movl	$16, %edx
	movq	%r14, %rsi
	movq	%rbp, %rdi
	call	strtoul@PLT
.LVL506:
	.loc 1 2096 3 is_stmt 1 view .LVU1081
	.loc 1 2096 6 is_stmt 0 view .LVU1082
	cmpl	$0, (%r12)
	jne	.L305
	.loc 1 2096 17 view .LVU1083
	movq	72(%rsp), %rcx
	.loc 1 2096 29 view .LVU1084
	cmpb	%bl, (%rcx)
	jne	.L305
	cmpq	%rcx, %rbp
	sete	%dl
	je	.L305
	.loc 1 2096 40 view .LVU1085
	testq	$-256, %rax
	jne	.L305
	.loc 1 2098 3 is_stmt 1 view .LVU1086
	.loc 1 2098 11 is_stmt 0 view .LVU1087
	movq	24(%rsp), %rsi
.LBE433:
.LBE432:
	.loc 1 2128 9 view .LVU1088
	leaq	1(%rcx), %rbp
.LVL507:
.LBB435:
.LBB434:
	.loc 1 2098 11 view .LVU1089
	movb	%al, 17(%rsi,%r13)
	.loc 1 2099 3 is_stmt 1 view .LVU1090
.LVL508:
	.loc 1 2099 3 is_stmt 0 view .LVU1091
.LBE434:
.LBE435:
	.loc 1 2128 7 is_stmt 1 view .LVU1092
	.loc 1 2128 7 is_stmt 0 view .LVU1093
.LBE436:
	.loc 1 2122 25 is_stmt 1 view .LVU1094
	addq	$1, %r13
.LVL509:
	.loc 1 2122 15 view .LVU1095
	.loc 1 2122 3 is_stmt 0 view .LVU1096
	cmpq	$32, %r13
	jne	.L222
.LBE421:
.LBE420:
	.loc 1 1261 33 view .LVU1097
	movq	32(%rsp), %rax
	movl	16(%rsp), %ebp
.LVL510:
	.loc 1 1261 15 is_stmt 1 view .LVU1098
	.loc 1 1261 33 is_stmt 0 view .LVU1099
	movb	$1, (%rax)
	jmp	.L142
.LVL511:
.L164:
.LBB437:
.LBB385:
	.loc 1 1533 13 is_stmt 1 view .LVU1100
	.loc 1 1533 27 is_stmt 0 view .LVU1101
	movq	24(%rsp), %rdx
	andl	$-3, %eax
	movl	%eax, 12(%rdx)
.LVL512:
	.loc 1 1533 27 view .LVU1102
.LBE385:
.LBE437:
	.loc 1 1131 19 is_stmt 1 view .LVU1103
	.loc 1 1131 37 is_stmt 0 view .LVU1104
	movq	32(%rsp), %rax
	movb	$1, (%rax)
	.loc 1 1138 7 is_stmt 1 view .LVU1105
	jmp	.L142
.LVL513:
.L305:
	.loc 1 1258 19 view .LVU1106
	movq	%r15, %rdi
	call	quote@PLT
.LVL514:
	.loc 1 1258 32 is_stmt 0 view .LVU1107
	movl	$5, %edx
	leaq	.LC147(%rip), %rsi
	.loc 1 1258 19 view .LVU1108
	movq	%rax, %r12
	jmp	.L309
.LVL515:
.L163:
.LBB438:
.LBB386:
	.loc 1 1535 12 is_stmt 1 view .LVU1109
	.loc 1 1535 16 is_stmt 0 view .LVU1110
	leaq	.LC137(%rip), %rsi
	movq	%r14, %rdi
	call	strcmp@PLT
.LVL516:
	.loc 1 1535 15 view .LVU1111
	testl	%eax, %eax
	jne	.L165
	.loc 1 1537 11 is_stmt 1 view .LVU1112
	movq	24(%rsp), %rcx
	movl	8(%rcx), %eax
	movl	(%rcx), %edx
	movl	%eax, 16(%rsp)
	andl	$-305, %eax
	.loc 1 1537 14 is_stmt 0 view .LVU1113
	testb	%r12b, %r12b
	je	.L166
	.loc 1 1539 15 is_stmt 1 view .LVU1114
	.loc 1 1539 62 is_stmt 0 view .LVU1115
	orl	$288, %eax
	.loc 1 1540 29 view .LVU1116
	orl	$32, %edx
	.loc 1 1539 62 view .LVU1117
	movl	%eax, 8(%rcx)
	.loc 1 1540 15 is_stmt 1 view .LVU1118
.LBE386:
.LBE438:
	.loc 1 1131 37 is_stmt 0 view .LVU1119
	movq	32(%rsp), %rax
.LBB439:
.LBB387:
	.loc 1 1540 29 view .LVU1120
	movl	%edx, (%rcx)
.LVL517:
	.loc 1 1540 29 view .LVU1121
.LBE387:
.LBE439:
	.loc 1 1131 19 is_stmt 1 view .LVU1122
	.loc 1 1131 37 is_stmt 0 view .LVU1123
	movb	$1, (%rax)
	.loc 1 1138 7 is_stmt 1 view .LVU1124
	jmp	.L142
.LVL518:
.L325:
	.loc 1 1138 7 is_stmt 0 view .LVU1125
	leaq	control_info(%rip), %rax
	jmp	.L154
.L155:
.LBB440:
.LBB388:
.LBB371:
.LBB372:
	.loc 1 2240 7 is_stmt 1 view .LVU1126
	.loc 1 2240 59 is_stmt 0 view .LVU1127
	movzbl	-16(%rax), %ecx
	.loc 1 2240 42 view .LVU1128
	movq	-8(%rax), %rdx
	movq	24(%rsp), %rsi
	movb	%cl, 17(%rsi,%rdx)
	.loc 1 2234 37 is_stmt 1 view .LVU1129
.L154:
	.loc 1 2234 15 view .LVU1130
	addq	$24, %rax
	.loc 1 2234 3 is_stmt 0 view .LVU1131
	cmpq	$0, -24(%rax)
	jne	.L155
	movq	24(%rsp), %r12
.LVL519:
	.loc 1 2234 3 view .LVU1132
	leaq	mode_info(%rip), %rbx
	jmp	.L156
.L327:
	.loc 1 2250 11 is_stmt 1 view .LVU1133
	.loc 1 2250 19 is_stmt 0 view .LVU1134
	movl	8(%rbx), %edi
	movq	%r12, %rsi
	call	mode_type_flag
.LVL520:
	movq	%rax, %rdx
.LVL521:
	.loc 1 2251 11 is_stmt 1 view .LVU1135
	testq	%rax, %rax
	je	.L326
	.loc 1 2252 11 view .LVU1136
	.loc 1 2252 28 is_stmt 0 view .LVU1137
	movl	24(%rbx), %eax
.LVL522:
	.loc 1 2252 28 view .LVU1138
	notl	%eax
	andl	(%rdx), %eax
	.loc 1 2252 50 view .LVU1139
	orl	16(%rbx), %eax
	movl	%eax, (%rdx)
.LVL523:
.L157:
	.loc 1 2243 42 is_stmt 1 view .LVU1140
	addq	$32, %rbx
.L156:
	.loc 1 2243 15 view .LVU1141
	.loc 1 2243 3 is_stmt 0 view .LVU1142
	cmpq	$0, (%rbx)
	je	.L308
	.loc 1 2245 7 is_stmt 1 view .LVU1143
	.loc 1 2245 23 is_stmt 0 view .LVU1144
	movzbl	12(%rbx), %eax
	.loc 1 2245 10 view .LVU1145
	testb	$16, %al
	jne	.L157
	.loc 1 2248 7 is_stmt 1 view .LVU1146
	.loc 1 2248 10 is_stmt 0 view .LVU1147
	testb	$1, %al
	jne	.L327
	.loc 1 2254 12 is_stmt 1 view .LVU1148
	.loc 1 2254 15 is_stmt 0 view .LVU1149
	testb	$2, %al
	je	.L157
	.loc 1 2256 11 is_stmt 1 view .LVU1150
	.loc 1 2256 19 is_stmt 0 view .LVU1151
	movl	8(%rbx), %edi
	movq	%r12, %rsi
	call	mode_type_flag
.LVL524:
	.loc 1 2257 11 is_stmt 1 view .LVU1152
	testq	%rax, %rax
	je	.L328
	.loc 1 2258 11 view .LVU1153
	.loc 1 2258 48 is_stmt 0 view .LVU1154
	movq	16(%rbx), %rdx
	orl	24(%rbx), %edx
	notl	%edx
	andl	%edx, (%rax)
	jmp	.L157
.LVL525:
.L166:
	.loc 1 2258 48 view .LVU1155
.LBE372:
.LBE371:
	.loc 1 1544 15 is_stmt 1 view .LVU1156
	.loc 1 1544 66 is_stmt 0 view .LVU1157
	movq	24(%rsp), %rcx
	orl	$48, %eax
	.loc 1 1545 29 view .LVU1158
	andl	$-33, %edx
	.loc 1 1544 66 view .LVU1159
	movl	%eax, 8(%rcx)
	.loc 1 1545 15 is_stmt 1 view .LVU1160
.LBE388:
.LBE440:
	.loc 1 1131 37 is_stmt 0 view .LVU1161
	movq	32(%rsp), %rax
.LBB441:
.LBB389:
	.loc 1 1545 29 view .LVU1162
	movl	%edx, (%rcx)
.LVL526:
	.loc 1 1545 29 view .LVU1163
.LBE389:
.LBE441:
	.loc 1 1131 19 is_stmt 1 view .LVU1164
	.loc 1 1131 37 is_stmt 0 view .LVU1165
	movb	$1, (%rax)
	.loc 1 1138 7 is_stmt 1 view .LVU1166
	jmp	.L142
.LVL527:
.L314:
	.loc 1 1138 7 is_stmt 0 view .LVU1167
.LBE458:
.LBE460:
	.loc 1 1265 1 view .LVU1168
	call	__stack_chk_fail@PLT
.LVL528:
.L165:
.LBB461:
.LBB459:
.LBB442:
.LBB390:
	.loc 1 1548 12 is_stmt 1 view .LVU1169
	.loc 1 1548 16 is_stmt 0 view .LVU1170
	leaq	.LC138(%rip), %rsi
	movq	%r14, %rdi
	call	strcmp@PLT
.LVL529:
	.loc 1 1548 15 view .LVU1171
	testl	%eax, %eax
	jne	.L167
	.loc 1 1550 11 is_stmt 1 view .LVU1172
	movq	24(%rsp), %rsi
	.loc 1 1553 29 is_stmt 0 view .LVU1173
	movl	$134217729, %ecx
	.loc 1 1559 29 view .LVU1174
	movabsq	$-4294967329, %rdx
	.loc 1 1553 29 view .LVU1175
	salq	$5, %rcx
	movl	8(%rsi), %eax
	.loc 1 1559 29 view .LVU1176
	andq	(%rsi), %rdx
	.loc 1 1553 29 view .LVU1177
	orq	(%rsi), %rcx
	movl	%eax, 16(%rsp)
	andl	$-305, %eax
	.loc 1 1550 14 view .LVU1178
	testb	%r12b, %r12b
	je	.L168
	.loc 1 1552 15 is_stmt 1 view .LVU1179
	.loc 1 1552 62 is_stmt 0 view .LVU1180
	orl	$288, %eax
	.loc 1 1553 29 view .LVU1181
	movq	%rcx, (%rsi)
	.loc 1 1552 62 view .LVU1182
	movl	%eax, 8(%rsi)
	.loc 1 1553 15 is_stmt 1 view .LVU1183
	.loc 1 1554 15 view .LVU1184
.LVL530:
	.loc 1 1554 15 is_stmt 0 view .LVU1185
.LBE390:
.LBE442:
	.loc 1 1131 19 is_stmt 1 view .LVU1186
	.loc 1 1131 37 is_stmt 0 view .LVU1187
	movq	32(%rsp), %rax
	movb	$1, (%rax)
	.loc 1 1138 7 is_stmt 1 view .LVU1188
	jmp	.L142
.LVL531:
.L326:
.LBB443:
.LBB391:
.LBB374:
.LBB373:
	.loc 1 2251 11 view .LVU1189
	leaq	__PRETTY_FUNCTION__.7560(%rip), %rcx
	movl	$2251, %edx
	leaq	.LC134(%rip), %rsi
	leaq	.LC135(%rip), %rdi
	call	__assert_fail@PLT
.LVL532:
.L328:
	.loc 1 2257 11 view .LVU1190
	leaq	__PRETTY_FUNCTION__.7560(%rip), %rcx
	movl	$2257, %edx
	leaq	.LC134(%rip), %rsi
	leaq	.LC135(%rip), %rdi
	call	__assert_fail@PLT
.LVL533:
.L168:
	.loc 1 2257 11 is_stmt 0 view .LVU1191
.LBE373:
.LBE374:
	.loc 1 1558 15 is_stmt 1 view .LVU1192
	.loc 1 1558 66 is_stmt 0 view .LVU1193
	movq	24(%rsp), %rcx
	orl	$48, %eax
	movl	%eax, 8(%rcx)
	.loc 1 1559 15 is_stmt 1 view .LVU1194
	.loc 1 1560 15 view .LVU1195
.LBE391:
.LBE443:
	.loc 1 1131 37 is_stmt 0 view .LVU1196
	movq	32(%rsp), %rax
.LBB444:
.LBB392:
	.loc 1 1559 29 view .LVU1197
	movq	%rdx, (%rcx)
.LVL534:
	.loc 1 1559 29 view .LVU1198
.LBE392:
.LBE444:
	.loc 1 1131 19 is_stmt 1 view .LVU1199
	.loc 1 1131 37 is_stmt 0 view .LVU1200
	movb	$1, (%rax)
	.loc 1 1138 7 is_stmt 1 view .LVU1201
	jmp	.L142
.LVL535:
.L167:
.LBB445:
.LBB393:
	.loc 1 1563 12 view .LVU1202
	.loc 1 1563 16 is_stmt 0 view .LVU1203
	leaq	.LC139(%rip), %rsi
	movq	%r14, %rdi
	call	strcmp@PLT
.LVL536:
	.loc 1 1563 15 view .LVU1204
	testl	%eax, %eax
	je	.L169
	.loc 1 1563 45 view .LVU1205
	leaq	.LC140(%rip), %rsi
	movq	%r14, %rdi
	call	strcmp@PLT
.LVL537:
	.loc 1 1563 42 view .LVU1206
	testl	%eax, %eax
	je	.L169
	.loc 1 1594 12 is_stmt 1 view .LVU1207
	.loc 1 1594 16 is_stmt 0 view .LVU1208
	leaq	.LC141(%rip), %rsi
	movq	%r14, %rdi
	call	strcmp@PLT
.LVL538:
	.loc 1 1594 15 view .LVU1209
	testl	%eax, %eax
	jne	.L174
	.loc 1 1596 11 is_stmt 1 view .LVU1210
	movq	24(%rsp), %rdx
	movl	(%rdx), %eax
	.loc 1 1596 14 is_stmt 0 view .LVU1211
	testb	%r12b, %r12b
	je	.L175
	.loc 1 1597 13 is_stmt 1 view .LVU1212
	.loc 1 1597 27 is_stmt 0 view .LVU1213
	orb	$8, %ah
	movl	%eax, (%rdx)
.LVL539:
	.loc 1 1597 27 view .LVU1214
.LBE393:
.LBE445:
	.loc 1 1131 19 is_stmt 1 view .LVU1215
	.loc 1 1131 37 is_stmt 0 view .LVU1216
	movq	32(%rsp), %rax
	movb	$1, (%rax)
	.loc 1 1138 7 is_stmt 1 view .LVU1217
	jmp	.L142
.LVL540:
.L169:
.LBB446:
.LBB394:
	.loc 1 1565 11 view .LVU1218
	.loc 1 1565 26 is_stmt 0 view .LVU1219
	movzbl	(%r14), %eax
	.loc 1 1565 14 view .LVU1220
	cmpb	$114, %al
	je	.L329
	.loc 1 1566 40 view .LVU1221
	cmpb	$99, %al
	jne	.L173
	testb	%r12b, %r12b
	je	.L172
.L173:
	.loc 1 1582 15 is_stmt 1 view .LVU1222
	.loc 1 1582 29 is_stmt 0 view .LVU1223
	movq	24(%rsp), %rax
	.loc 1 1583 29 view .LVU1224
	andl	$-2, 4(%rax)
	.loc 1 1584 29 view .LVU1225
	andl	$-8, 12(%rax)
	.loc 1 1582 29 view .LVU1226
	movl	$0, (%rax)
	.loc 1 1583 15 is_stmt 1 view .LVU1227
	.loc 1 1584 15 view .LVU1228
	.loc 1 1589 15 view .LVU1229
	.loc 1 1590 15 view .LVU1230
	.loc 1 1590 33 is_stmt 0 view .LVU1231
	movw	$256, 22(%rax)
	jmp	.L308
.L329:
	.loc 1 1565 37 view .LVU1232
	testb	%r12b, %r12b
	je	.L173
.L172:
	.loc 1 1569 15 is_stmt 1 view .LVU1233
	.loc 1 1570 15 view .LVU1234
	.loc 1 1569 29 is_stmt 0 view .LVU1235
	movq	24(%rsp), %rdx
	movl	$2147484307, %eax
	addq	%rax, %rax
	orq	%rax, (%rdx)
	.loc 1 1571 15 is_stmt 1 view .LVU1236
.LBE394:
.LBE446:
	.loc 1 1131 37 is_stmt 0 view .LVU1237
	movq	32(%rsp), %rax
.LBB447:
.LBB395:
	.loc 1 1571 29 view .LVU1238
	orl	$3, 12(%rdx)
.LVL541:
	.loc 1 1571 29 view .LVU1239
.LBE395:
.LBE447:
	.loc 1 1131 19 is_stmt 1 view .LVU1240
	.loc 1 1131 37 is_stmt 0 view .LVU1241
	movb	$1, (%rax)
	.loc 1 1138 7 is_stmt 1 view .LVU1242
	jmp	.L142
.LVL542:
.L175:
.LBB448:
.LBB396:
	.loc 1 1599 13 view .LVU1243
	.loc 1 1599 27 is_stmt 0 view .LVU1244
	movq	24(%rsp), %rdx
	andb	$-9, %ah
	movl	%eax, (%rdx)
.LVL543:
	.loc 1 1599 27 view .LVU1245
.LBE396:
.LBE448:
	.loc 1 1131 19 is_stmt 1 view .LVU1246
	.loc 1 1131 37 is_stmt 0 view .LVU1247
	movq	32(%rsp), %rax
	movb	$1, (%rax)
	.loc 1 1138 7 is_stmt 1 view .LVU1248
	jmp	.L142
.LVL544:
.L174:
.LBB449:
.LBB397:
	.loc 1 1603 12 view .LVU1249
	.loc 1 1603 16 is_stmt 0 view .LVU1250
	leaq	.LC142(%rip), %rsi
	movq	%r14, %rdi
	call	strcmp@PLT
.LVL545:
	.loc 1 1603 15 view .LVU1251
	testl	%eax, %eax
	jne	.L176
	.loc 1 1605 11 is_stmt 1 view .LVU1252
	movq	24(%rsp), %rdx
	movl	4(%rdx), %eax
	.loc 1 1605 14 is_stmt 0 view .LVU1253
	testb	%r12b, %r12b
	je	.L177
	.loc 1 1606 13 is_stmt 1 view .LVU1254
	.loc 1 1606 55 is_stmt 0 view .LVU1255
	orb	$24, %ah
	movl	%eax, 4(%rdx)
.LVL546:
	.loc 1 1606 55 view .LVU1256
.LBE397:
.LBE449:
	.loc 1 1131 19 is_stmt 1 view .LVU1257
	.loc 1 1131 37 is_stmt 0 view .LVU1258
	movq	32(%rsp), %rax
	movb	$1, (%rax)
	.loc 1 1138 7 is_stmt 1 view .LVU1259
	jmp	.L142
.LVL547:
.L176:
.LBB450:
.LBB398:
	.loc 1 1622 12 view .LVU1260
	.loc 1 1622 16 is_stmt 0 view .LVU1261
	leaq	.LC143(%rip), %rsi
	movq	%r14, %rdi
	call	strcmp@PLT
.LVL548:
	.loc 1 1622 15 view .LVU1262
	testl	%eax, %eax
	je	.L178
	.loc 1 1623 19 view .LVU1263
	leaq	.LC144(%rip), %rsi
	movq	%r14, %rdi
	call	strcmp@PLT
.LVL549:
	.loc 1 1623 16 view .LVU1264
	testl	%eax, %eax
	je	.L178
	.loc 1 1639 12 is_stmt 1 view .LVU1265
	.loc 1 1639 16 is_stmt 0 view .LVU1266
	leaq	.LC145(%rip), %rsi
	movq	%r14, %rdi
	call	strcmp@PLT
.LVL550:
	.loc 1 1639 15 view .LVU1267
	testl	%eax, %eax
	jne	.L181
	.loc 1 1640 9 is_stmt 1 view .LVU1268
	.loc 1 1640 23 is_stmt 0 view .LVU1269
	movq	24(%rsp), %rax
	orl	$2576, 12(%rax)
.LVL551:
	.loc 1 1640 23 view .LVU1270
.LBE398:
.LBE450:
	.loc 1 1131 19 is_stmt 1 view .LVU1271
	.loc 1 1131 37 is_stmt 0 view .LVU1272
	movq	32(%rsp), %rax
	movb	$1, (%rax)
	.loc 1 1138 7 is_stmt 1 view .LVU1273
	jmp	.L142
.LVL552:
.L177:
.LBB451:
.LBB399:
	.loc 1 1608 13 view .LVU1274
	.loc 1 1608 55 is_stmt 0 view .LVU1275
	movq	24(%rsp), %rdx
	andb	$-25, %ah
	movl	%eax, 4(%rdx)
.LVL553:
	.loc 1 1608 55 view .LVU1276
.LBE399:
.LBE451:
	.loc 1 1131 19 is_stmt 1 view .LVU1277
	.loc 1 1131 37 is_stmt 0 view .LVU1278
	movq	32(%rsp), %rax
	movb	$1, (%rax)
	.loc 1 1138 7 is_stmt 1 view .LVU1279
	jmp	.L142
.LVL554:
.L181:
.LBB452:
.LBB400:
	.loc 1 1648 12 view .LVU1280
	.loc 1 1648 16 is_stmt 0 view .LVU1281
	leaq	.LC146(%rip), %rsi
	movq	%r14, %rdi
	call	strcmp@PLT
.LVL555:
	.loc 1 1648 15 view .LVU1282
	testl	%eax, %eax
	jne	.L308
	.loc 1 1650 11 is_stmt 1 view .LVU1283
	.loc 1 1650 29 is_stmt 0 view .LVU1284
	movq	24(%rsp), %rax
	.loc 1 1662 25 view .LVU1285
	andl	$-2049, (%rax)
	.loc 1 1653 25 view .LVU1286
	orl	$2576, 12(%rax)
	.loc 1 1650 29 view .LVU1287
	movb	$3, 17(%rax)
	.loc 1 1651 11 is_stmt 1 view .LVU1288
	.loc 1 1652 11 view .LVU1289
	.loc 1 1651 30 is_stmt 0 view .LVU1290
	movw	$5503, 19(%rax)
	.loc 1 1653 11 is_stmt 1 view .LVU1291
	.loc 1 1662 11 view .LVU1292
.LVL556:
	.loc 1 1662 11 is_stmt 0 view .LVU1293
.LBE400:
.LBE452:
	.loc 1 1131 19 is_stmt 1 view .LVU1294
	.loc 1 1131 37 is_stmt 0 view .LVU1295
	movq	32(%rsp), %rax
	movb	$1, (%rax)
	.loc 1 1138 7 is_stmt 1 view .LVU1296
	jmp	.L142
.LVL557:
.L178:
.LBB453:
.LBB401:
	.loc 1 1625 11 view .LVU1297
	.loc 1 1634 29 is_stmt 0 view .LVU1298
	movq	24(%rsp), %rsi
	movl	$16777217, %edx
	.loc 1 1628 29 view .LVU1299
	movabsq	$-8589935105, %rcx
	.loc 1 1634 29 view .LVU1300
	salq	$9, %rdx
	movl	12(%rsi), %eax
	orq	(%rsi), %rdx
	.loc 1 1628 29 view .LVU1301
	andq	(%rsi), %rcx
	.loc 1 1625 14 view .LVU1302
	testb	%r12b, %r12b
	je	.L180
	.loc 1 1627 15 is_stmt 1 view .LVU1303
	.loc 1 1627 29 is_stmt 0 view .LVU1304
	andl	$-5, %eax
	.loc 1 1628 29 view .LVU1305
	movq	%rcx, (%rsi)
	.loc 1 1627 29 view .LVU1306
	movl	%eax, 12(%rsi)
	.loc 1 1628 15 is_stmt 1 view .LVU1307
	.loc 1 1629 15 view .LVU1308
.LVL558:
	.loc 1 1629 15 is_stmt 0 view .LVU1309
.LBE401:
.LBE453:
	.loc 1 1131 19 is_stmt 1 view .LVU1310
	.loc 1 1131 37 is_stmt 0 view .LVU1311
	movq	32(%rsp), %rax
	movb	$1, (%rax)
	.loc 1 1138 7 is_stmt 1 view .LVU1312
	jmp	.L142
.LVL559:
.L180:
.LBB454:
.LBB402:
	.loc 1 1633 15 view .LVU1313
	.loc 1 1633 29 is_stmt 0 view .LVU1314
	movq	24(%rsp), %rcx
	orl	$4, %eax
	movl	%eax, 12(%rcx)
	.loc 1 1634 15 is_stmt 1 view .LVU1315
	.loc 1 1635 15 view .LVU1316
.LBE402:
.LBE454:
	.loc 1 1131 37 is_stmt 0 view .LVU1317
	movq	32(%rsp), %rax
.LBB455:
.LBB403:
	.loc 1 1634 29 view .LVU1318
	movq	%rdx, (%rcx)
.LVL560:
	.loc 1 1634 29 view .LVU1319
.LBE403:
.LBE455:
	.loc 1 1131 19 is_stmt 1 view .LVU1320
	.loc 1 1131 37 is_stmt 0 view .LVU1321
	movb	$1, (%rax)
	.loc 1 1138 7 is_stmt 1 view .LVU1322
	jmp	.L142
.LBE459:
.LBE461:
	.cfi_endproc
.LFE137:
	.size	apply_settings, .-apply_settings
	.section	.rodata.str1.1
.LC165:
	.string	"<undef>"
.LC166:
	.string	"/usr/local/share/locale"
	.section	.rodata.str1.8
	.align 8
.LC167:
	.string	"only one device may be specified"
	.section	.rodata.str1.1
.LC168:
	.string	"David MacKenzie"
.LC169:
	.string	"-drain"
.LC170:
	.string	"-agF:"
	.section	.rodata.str1.8
	.align 8
.LC171:
	.string	"the options for verbose and stty-readable output styles are\nmutually exclusive"
	.align 8
.LC172:
	.string	"when specifying an output style, modes may not be set"
	.section	.rodata.str1.1
.LC173:
	.string	"standard input"
	.section	.rodata.str1.8
	.align 8
.LC174:
	.string	"%s: couldn't reset non-blocking mode"
	.section	.rodata.str1.1
.LC175:
	.string	"line = %d;"
.LC176:
	.string	"flush"
.LC177:
	.string	"%s = %s;"
.LC178:
	.string	"min = %lu; time = %lu;\n"
.LC179:
	.string	"-%s"
.LC180:
	.string	"min = %lu; time = %lu;"
.LC181:
	.string	"%lx:%lx:%lx:%lx"
.LC182:
	.string	":%lx"
	.section	.rodata.str1.8
	.align 8
.LC183:
	.string	"%s: unable to perform all requested operations"
	.section	.text.startup,"ax",@progbits
	.p2align 4
	.globl	main
	.type	main, @function
main:
.LVL561:
.LFB138:
	.loc 1 1269 1 view -0
	.cfi_startproc
	.loc 1 1269 1 is_stmt 0 view .LVU1324
	endbr64
	pushq	%r15
	.cfi_def_cfa_offset 16
	.cfi_offset 15, -16
	movq	%rsi, %r15
	pushq	%r14
	.cfi_def_cfa_offset 24
	.cfi_offset 14, -24
	.loc 1 1277 7 view .LVU1325
	movl	$1, %r14d
	.loc 1 1269 1 view .LVU1326
	pushq	%r13
	.cfi_def_cfa_offset 32
	.cfi_offset 13, -32
	.loc 1 1294 15 view .LVU1327
	xorl	%r13d, %r13d
	.loc 1 1269 1 view .LVU1328
	pushq	%r12
	.cfi_def_cfa_offset 40
	.cfi_offset 12, -40
	movl	%edi, %r12d
	pushq	%rbp
	.cfi_def_cfa_offset 48
	.cfi_offset 6, -48
	.loc 1 1276 7 view .LVU1329
	xorl	%ebp, %ebp
	.loc 1 1269 1 view .LVU1330
	pushq	%rbx
	.cfi_def_cfa_offset 56
	.cfi_offset 3, -56
	xorl	%ebx, %ebx
	subq	$40, %rsp
	.cfi_def_cfa_offset 96
	.loc 1 1287 3 view .LVU1331
	movq	(%rsi), %rdi
.LVL562:
	.loc 1 1269 1 view .LVU1332
	movq	%fs:40, %rax
	movq	%rax, 24(%rsp)
	xorl	%eax, %eax
	.loc 1 1272 3 is_stmt 1 view .LVU1333
	.loc 1 1274 3 view .LVU1334
	.loc 1 1275 3 view .LVU1335
	.loc 1 1276 3 view .LVU1336
.LVL563:
	.loc 1 1277 3 view .LVU1337
	.loc 1 1278 3 view .LVU1338
	.loc 1 1279 3 view .LVU1339
	.loc 1 1280 3 view .LVU1340
	.loc 1 1281 3 view .LVU1341
	.loc 1 1282 3 view .LVU1342
	.loc 1 1283 3 view .LVU1343
	.loc 1 1284 3 view .LVU1344
	.loc 1 1286 33 view .LVU1345
	.loc 1 1287 3 view .LVU1346
	call	set_program_name@PLT
.LVL564:
	.loc 1 1288 3 view .LVU1347
	leaq	.LC2(%rip), %rsi
	movl	$6, %edi
	call	setlocale@PLT
.LVL565:
	.loc 1 1289 3 view .LVU1348
	leaq	.LC166(%rip), %rsi
	leaq	.LC114(%rip), %rdi
	call	bindtextdomain@PLT
.LVL566:
	.loc 1 1290 3 view .LVU1349
	leaq	.LC114(%rip), %rdi
	call	textdomain@PLT
.LVL567:
	.loc 1 1292 3 view .LVU1350
	movq	close_stdout@GOTPCREL(%rip), %rdi
	call	atexit@PLT
.LVL568:
	.loc 1 1294 3 view .LVU1351
	.loc 1 1295 3 view .LVU1352
	.loc 1 1296 3 view .LVU1353
	.loc 1 1299 3 view .LVU1354
	.loc 1 1283 9 is_stmt 0 view .LVU1355
	movq	$0, (%rsp)
	movq	%r15, %rax
	movl	%r14d, %r15d
.LVL569:
	.loc 1 1299 10 view .LVU1356
	movl	$0, opterr(%rip)
	.loc 1 1308 3 is_stmt 1 view .LVU1357
	movq	%rax, %r14
	.loc 1 1282 8 is_stmt 0 view .LVU1358
	movb	$1, 15(%rsp)
	.loc 1 1296 22 view .LVU1359
	movb	$0, 13(%rsp)
	.loc 1 1295 18 view .LVU1360
	movb	$0, 14(%rsp)
.LVL570:
.L331:
	.loc 1 1308 9 is_stmt 1 view .LVU1361
	.loc 1 1308 18 is_stmt 0 view .LVU1362
	movl	%r12d, %edi
	xorl	%r8d, %r8d
	.loc 1 1308 49 view .LVU1363
	leaq	(%r14,%rbx,8), %rsi
	.loc 1 1308 18 view .LVU1364
	subl	%ebp, %edi
	leaq	longopts(%rip), %rcx
	leaq	.LC170(%rip), %rdx
	call	getopt_long@PLT
.LVL571:
	.loc 1 1308 9 view .LVU1365
	cmpl	$-1, %eax
	je	.L447
	.loc 1 1312 7 is_stmt 1 view .LVU1366
	cmpl	$70, %eax
	je	.L332
	jle	.L448
	cmpl	$97, %eax
	je	.L407
	cmpl	$103, %eax
	jne	.L336
	movb	$1, 13(%rsp)
.LVL572:
	.loc 1 1312 7 is_stmt 0 view .LVU1367
	movl	$2, %r13d
.LVL573:
.L337:
	.loc 1 1353 13 is_stmt 1 discriminator 1 view .LVU1368
	.loc 1 1353 19 is_stmt 0 discriminator 1 view .LVU1369
	movl	optind(%rip), %esi
	.loc 1 1353 13 discriminator 1 view .LVU1370
	cmpl	%r15d, %esi
	jle	.L449
	movslq	%r15d, %rdx
	leaq	(%rdx,%rbx), %rcx
	leal	-1(%rsi), %edx
	subl	%r15d, %edx
	leaq	(%r14,%rcx,8), %rax
	addq	%rcx, %rdx
	leaq	8(%r14,%rdx,8), %rdx
.LVL574:
	.p2align 4,,10
	.p2align 3
.L341:
	.loc 1 1354 9 is_stmt 1 view .LVU1371
	.loc 1 1354 29 is_stmt 0 view .LVU1372
	movq	$0, (%rax)
	.loc 1 1353 13 is_stmt 1 view .LVU1373
	addq	$8, %rax
	cmpq	%rax, %rdx
	jne	.L341
.L340:
	.loc 1 1294 15 is_stmt 0 view .LVU1374
	movl	%esi, %r15d
	jmp	.L331
.LVL575:
	.p2align 4,,10
	.p2align 3
.L448:
	.loc 1 1312 7 view .LVU1375
	cmpl	$-131, %eax
	jne	.L450
	.loc 1 1330 9 is_stmt 1 view .LVU1376
	.loc 1 1330 30 view .LVU1377
	.loc 1 1332 9 view .LVU1378
	movq	stdout(%rip), %rdi
	movq	Version(%rip), %rcx
	xorl	%eax, %eax
.LVL576:
	.loc 1 1332 9 is_stmt 0 view .LVU1379
	xorl	%r9d, %r9d
	leaq	.LC168(%rip), %r8
	leaq	.LC123(%rip), %rdx
	leaq	.LC14(%rip), %rsi
	call	version_etc@PLT
.LVL577:
	.loc 1 1332 9 is_stmt 1 view .LVU1380
	xorl	%edi, %edi
	call	exit@PLT
.LVL578:
	.p2align 4,,10
	.p2align 3
.L450:
	.loc 1 1312 7 is_stmt 0 view .LVU1381
	cmpl	$-130, %eax
	je	.L451
.L336:
	.loc 1 1332 9 is_stmt 1 view .LVU1382
	.loc 1 1332 57 view .LVU1383
	.loc 1 1337 11 view .LVU1384
	.loc 1 1337 17 is_stmt 0 view .LVU1385
	addl	%r15d, %ebp
.LVL579:
	.loc 1 1337 17 view .LVU1386
	movl	$7, %ecx
	leaq	.LC169(%rip), %rdi
	movslq	%ebp, %rbx
	movq	(%r14,%rbx,8), %r8
	movq	%r8, %rsi
	repz cmpsb
	seta	%al
.LVL580:
	.loc 1 1337 17 view .LVU1387
	sbbb	$0, %al
	.loc 1 1337 14 view .LVU1388
	testb	%al, %al
	je	.L339
	.loc 1 1338 20 view .LVU1389
	leaq	.LC130(%rip), %rsi
	movq	%r8, %rdi
	call	strcmp@PLT
.LVL581:
	.loc 1 1339 20 view .LVU1390
	movzbl	15(%rsp), %ecx
	testl	%eax, %eax
	movl	$0, %eax
	cmovne	%eax, %ecx
	movb	%cl, 15(%rsp)
.LVL582:
.L339:
	.loc 1 1343 11 is_stmt 1 view .LVU1391
	.loc 1 1346 11 view .LVU1392
	.loc 1 1347 11 view .LVU1393
	.loc 1 1347 18 is_stmt 0 view .LVU1394
	movl	$0, optind(%rip)
	.loc 1 1349 11 is_stmt 1 view .LVU1395
	.loc 1 1353 13 view .LVU1396
	.loc 1 1346 16 is_stmt 0 view .LVU1397
	movl	$1, %esi
	.loc 1 1294 15 view .LVU1398
	movl	%esi, %r15d
	jmp	.L331
.LVL583:
	.p2align 4,,10
	.p2align 3
.L407:
	.loc 1 1315 26 view .LVU1399
	movb	$1, 14(%rsp)
.LVL584:
	.loc 1 1316 23 view .LVU1400
	movl	$1, %r13d
.LVL585:
	.loc 1 1316 23 view .LVU1401
	jmp	.L337
.LVL586:
	.p2align 4,,10
	.p2align 3
.L332:
	.loc 1 1325 11 is_stmt 1 view .LVU1402
	.loc 1 1325 14 is_stmt 0 view .LVU1403
	cmpq	$0, (%rsp)
	jne	.L452
	.loc 1 1327 11 is_stmt 1 view .LVU1404
	.loc 1 1327 21 is_stmt 0 view .LVU1405
	movq	optarg(%rip), %rax
.LVL587:
	.loc 1 1327 21 view .LVU1406
	movq	%rax, (%rsp)
.LVL588:
	.loc 1 1328 11 is_stmt 1 view .LVU1407
	jmp	.L337
.LVL589:
.L447:
	.loc 1 1358 6 is_stmt 0 view .LVU1408
	movzbl	13(%rsp), %ecx
	movq	%r14, %r15
.LVL590:
	.loc 1 1358 3 is_stmt 1 view .LVU1409
	.loc 1 1358 6 is_stmt 0 view .LVU1410
	testb	%cl, 14(%rsp)
	jne	.L453
	.loc 1 1364 3 is_stmt 1 view .LVU1411
	.loc 1 1364 6 is_stmt 0 view .LVU1412
	cmpb	$0, 15(%rsp)
	jne	.L345
	.loc 1 1364 15 discriminator 1 view .LVU1413
	cmpb	$0, 14(%rsp)
	jne	.L412
	cmpb	$0, 13(%rsp)
	jne	.L412
	.loc 1 1368 3 is_stmt 1 view .LVU1414
	.loc 1 1368 15 is_stmt 0 view .LVU1415
	cmpq	$0, (%rsp)
	je	.L454
.LVL591:
	.loc 1 1370 3 is_stmt 1 view .LVU1416
.LBB509:
	.loc 1 1372 7 view .LVU1417
	.loc 1 1373 7 view .LVU1418
.LVL592:
	.loc 1 1373 7 is_stmt 0 view .LVU1419
	pushq	%rax
	.cfi_def_cfa_offset 104
.LVL593:
	.loc 1 1373 7 view .LVU1420
	movl	%r12d, %ecx
	movq	%r14, %rdx
	leaq	check_mode.7373(%rip), %r8
	movl	$1, %edi
	leaq	30(%rsp), %rbx
	pushq	%rbx
	.cfi_def_cfa_offset 112
	movq	16(%rsp), %rsi
	leaq	39(%rsp), %r9
	call	apply_settings
.LVL594:
.LBE509:
	.loc 1 1377 3 is_stmt 1 view .LVU1421
.LBB510:
	.loc 1 1373 7 is_stmt 0 view .LVU1422
	popq	%rdx
	.cfi_def_cfa_offset 104
	popq	%rcx
	.cfi_def_cfa_offset 96
.LVL595:
.L405:
	.loc 1 1373 7 view .LVU1423
.LBE510:
.LBB511:
	.loc 1 1379 7 is_stmt 1 view .LVU1424
	.loc 1 1380 7 view .LVU1425
	.loc 1 1380 11 is_stmt 0 view .LVU1426
	movq	(%rsp), %rsi
	xorl	%ecx, %ecx
	xorl	%edi, %edi
	movl	$2048, %edx
	call	fd_reopen@PLT
.LVL596:
	.loc 1 1380 10 view .LVU1427
	testl	%eax, %eax
	js	.L455
	.loc 1 1382 7 is_stmt 1 view .LVU1428
	.loc 1 1382 22 is_stmt 0 view .LVU1429
	xorl	%edi, %edi
	xorl	%eax, %eax
	movl	$3, %esi
	call	rpl_fcntl@PLT
.LVL597:
	.loc 1 1382 10 view .LVU1430
	cmpl	$-1, %eax
	je	.L353
	.loc 1 1383 14 view .LVU1431
	andb	$-9, %ah
.LVL598:
	.loc 1 1383 14 view .LVU1432
	xorl	%edi, %edi
	movl	$4, %esi
	movl	%eax, %edx
	xorl	%eax, %eax
	call	rpl_fcntl@PLT
.LVL599:
	.loc 1 1383 11 view .LVU1433
	testl	%eax, %eax
	js	.L353
.LBE511:
	.loc 1 1388 3 is_stmt 1 view .LVU1434
	.loc 1 1388 7 is_stmt 0 view .LVU1435
	xorl	%edi, %edi
	leaq	mode.7342(%rip), %rsi
	call	tcgetattr@PLT
.LVL600:
	.loc 1 1388 6 view .LVU1436
	testl	%eax, %eax
	jne	.L349
	.loc 1 1391 3 is_stmt 1 view .LVU1437
	.loc 1 1391 6 is_stmt 0 view .LVU1438
	movzbl	13(%rsp), %eax
	orb	15(%rsp), %al
.LVL601:
	.loc 1 1391 6 view .LVU1439
	jne	.L403
	cmpb	$0, 14(%rsp)
	jne	.L403
	leaq	23(%rsp), %rbp
.LVL602:
	.loc 1 1391 6 view .LVU1440
	leaq	22(%rsp), %rbx
.LVL603:
.L350:
	.loc 1 1399 3 is_stmt 1 view .LVU1441
	.loc 1 1399 17 is_stmt 0 view .LVU1442
	movb	$0, 23(%rsp)
	.loc 1 1400 3 is_stmt 1 view .LVU1443
	.loc 1 1401 3 is_stmt 0 view .LVU1444
	xorl	%edi, %edi
	movq	%rbp, %r9
	movl	%r12d, %ecx
	.loc 1 1400 20 view .LVU1445
	movb	$0, 22(%rsp)
	.loc 1 1401 3 is_stmt 1 view .LVU1446
	leaq	mode.7342(%rip), %r8
	movq	%r15, %rdx
	pushq	%rsi
	.cfi_def_cfa_offset 104
	pushq	%rbx
	.cfi_def_cfa_offset 112
	movq	16(%rsp), %rsi
	call	apply_settings
.LVL604:
	.loc 1 1404 3 view .LVU1447
	.loc 1 1404 6 is_stmt 0 view .LVU1448
	popq	%rdi
	.cfi_def_cfa_offset 104
	popq	%r8
	.cfi_def_cfa_offset 96
	cmpb	$0, 22(%rsp)
	jne	.L456
.LVL605:
.L378:
	.loc 1 1463 1 view .LVU1449
	movq	24(%rsp), %rax
	xorq	%fs:40, %rax
	jne	.L457
	addq	$40, %rsp
	.cfi_remember_state
	.cfi_def_cfa_offset 56
	xorl	%eax, %eax
	popq	%rbx
	.cfi_def_cfa_offset 48
	popq	%rbp
	.cfi_def_cfa_offset 40
	popq	%r12
	.cfi_def_cfa_offset 32
	popq	%r13
	.cfi_def_cfa_offset 24
	popq	%r14
	.cfi_def_cfa_offset 16
	popq	%r15
	.cfi_def_cfa_offset 8
	ret
.LVL606:
.L345:
	.cfi_restore_state
	.loc 1 1368 3 is_stmt 1 view .LVU1450
	.loc 1 1368 15 is_stmt 0 view .LVU1451
	cmpq	$0, (%rsp)
	jne	.L405
	.loc 1 1368 41 view .LVU1452
	xorl	%edi, %edi
	leaq	.LC173(%rip), %rsi
	movl	$5, %edx
	call	dcgettext@PLT
.LVL607:
	.loc 1 1388 7 view .LVU1453
	xorl	%edi, %edi
	leaq	mode.7342(%rip), %rsi
	.loc 1 1368 41 view .LVU1454
	movq	%rax, (%rsp)
.LVL608:
	.loc 1 1370 3 is_stmt 1 view .LVU1455
	.loc 1 1388 3 view .LVU1456
	.loc 1 1388 7 is_stmt 0 view .LVU1457
	call	tcgetattr@PLT
.LVL609:
	.loc 1 1388 6 view .LVU1458
	testl	%eax, %eax
	jne	.L349
.LVL610:
.L403:
	.loc 1 1393 7 is_stmt 1 view .LVU1459
	.loc 1 1393 17 is_stmt 0 view .LVU1460
	call	screen_columns
.LVL611:
	.loc 1 1394 19 view .LVU1461
	movl	$0, current_col(%rip)
	.loc 1 1393 15 view .LVU1462
	movl	%eax, max_col(%rip)
	.loc 1 1394 7 is_stmt 1 view .LVU1463
	.loc 1 1395 7 view .LVU1464
.LVL612:
.LBB514:
.LBI514:
	.loc 1 1859 1 view .LVU1465
.LBB515:
	.loc 1 1862 3 view .LVU1466
	cmpl	$1, %r13d
	je	.L356
	cmpl	$2, %r13d
	jne	.L458
	.loc 1 1873 7 view .LVU1467
.LBB516:
.LBI516:
	.loc 1 2063 1 view .LVU1468
.LVL613:
.LBB517:
	.loc 1 2065 3 view .LVU1469
.LBB518:
.LBI518:
	.loc 4 105 1 view .LVU1470
.LBB519:
	.loc 4 107 3 view .LVU1471
.LBE519:
.LBE518:
	.loc 1 2065 3 is_stmt 0 view .LVU1472
	movl	4+mode.7342(%rip), %ecx
	movl	mode.7342(%rip), %edx
.LBB523:
.LBB520:
	.loc 4 107 10 view .LVU1473
	xorl	%eax, %eax
.LBE520:
.LBE523:
.LBB524:
	.loc 1 2070 15 view .LVU1474
	xorl	%ebx, %ebx
.LBE524:
.LBB533:
.LBB521:
	.loc 4 107 10 view .LVU1475
	movl	12+mode.7342(%rip), %r9d
	movl	8+mode.7342(%rip), %r8d
	leaq	.LC181(%rip), %rsi
	movl	$1, %edi
	leaq	17+mode.7342(%rip), %r12
.LVL614:
	.loc 4 107 10 view .LVU1476
.LBE521:
.LBE533:
.LBB534:
.LBB525:
.LBB526:
	leaq	.LC182(%rip), %rbp
.LVL615:
	.loc 4 107 10 view .LVU1477
.LBE526:
.LBE525:
.LBE534:
.LBB535:
.LBB522:
	call	__printf_chk@PLT
.LVL616:
	.loc 4 107 10 view .LVU1478
.LBE522:
.LBE535:
	.loc 1 2070 3 is_stmt 1 view .LVU1479
.LBB536:
	.loc 1 2070 8 view .LVU1480
	.loc 1 2070 22 view .LVU1481
.L397:
	.loc 1 2071 5 view .LVU1482
.LBB530:
.LBI525:
	.loc 4 105 1 view .LVU1483
.LBB527:
	.loc 4 107 3 view .LVU1484
.LBE527:
.LBE530:
	.loc 1 2071 5 is_stmt 0 view .LVU1485
	movzbl	(%r12,%rbx), %edx
.LBB531:
.LBB528:
	.loc 4 107 10 view .LVU1486
	movq	%rbp, %rsi
	movl	$1, %edi
	xorl	%eax, %eax
.LBE528:
.LBE531:
	.loc 1 2070 32 view .LVU1487
	addq	$1, %rbx
.LVL617:
.LBB532:
.LBB529:
	.loc 4 107 10 view .LVU1488
	call	__printf_chk@PLT
.LVL618:
	.loc 4 107 10 view .LVU1489
.LBE529:
.LBE532:
	.loc 1 2070 32 is_stmt 1 view .LVU1490
	.loc 1 2070 22 view .LVU1491
	.loc 1 2070 3 is_stmt 0 view .LVU1492
	cmpq	$32, %rbx
	jne	.L397
.LBE536:
	.loc 1 2072 3 is_stmt 1 view .LVU1493
.LVL619:
.LBB537:
.LBI537:
	.loc 2 108 1 view .LVU1494
.LBB538:
	.loc 2 110 3 view .LVU1495
	.loc 2 110 10 is_stmt 0 view .LVU1496
	movq	stdout(%rip), %rdi
	movq	40(%rdi), %rax
	cmpq	48(%rdi), %rax
	jnb	.L459
	leaq	1(%rax), %rdx
	movq	%rdx, 40(%rdi)
	movb	$10, (%rax)
	jmp	.L378
.LVL620:
.L456:
	.loc 2 110 10 view .LVU1497
.LBE538:
.LBE537:
.LBE517:
.LBE516:
.LBE515:
.LBE514:
.LBB614:
	.loc 1 1408 7 is_stmt 1 view .LVU1498
	.loc 1 1410 7 view .LVU1499
	.loc 1 1410 11 is_stmt 0 view .LVU1500
	movl	tcsetattr_options(%rip), %esi
	xorl	%edi, %edi
	leaq	mode.7342(%rip), %rdx
	call	tcsetattr@PLT
.LVL621:
	.loc 1 1410 10 view .LVU1501
	testl	%eax, %eax
	jne	.L460
	.loc 1 1420 7 is_stmt 1 view .LVU1502
	.loc 1 1420 11 is_stmt 0 view .LVU1503
	xorl	%edi, %edi
	leaq	new_mode.7381(%rip), %rsi
	call	tcgetattr@PLT
.LVL622:
	.loc 1 1420 10 view .LVU1504
	testl	%eax, %eax
	jne	.L461
	.loc 1 1430 7 is_stmt 1 view .LVU1505
	.loc 1 1430 11 is_stmt 0 view .LVU1506
	movl	$60, %edx
	leaq	new_mode.7381(%rip), %rsi
	leaq	mode.7342(%rip), %rdi
	call	memcmp@PLT
.LVL623:
	.loc 1 1430 10 view .LVU1507
	testl	%eax, %eax
	je	.L378
	.loc 1 1442 11 is_stmt 1 view .LVU1508
	.loc 1 1442 28 is_stmt 0 view .LVU1509
	andl	$-269418497, 8+new_mode.7381(%rip)
	.loc 1 1443 11 is_stmt 1 view .LVU1510
	.loc 1 1443 14 is_stmt 0 view .LVU1511
	cmpb	$0, 23(%rsp)
	jne	.L402
	.loc 1 1443 32 discriminator 1 view .LVU1512
	movl	$60, %edx
	leaq	new_mode.7381(%rip), %rsi
	leaq	mode.7342(%rip), %rdi
	call	memcmp@PLT
.LVL624:
	.loc 1 1443 29 discriminator 1 view .LVU1513
	testl	%eax, %eax
	je	.L378
.L402:
.LBB615:
	.loc 1 1446 15 is_stmt 1 view .LVU1514
	movq	(%rsp), %rdx
	movl	$3, %esi
	xorl	%edi, %edi
	call	quotearg_n_style_colon@PLT
.LVL625:
	movl	$5, %edx
	leaq	.LC183(%rip), %rsi
	xorl	%edi, %edi
	movq	%rax, %r12
.LVL626:
	.loc 1 1446 15 is_stmt 0 view .LVU1515
	call	dcgettext@PLT
.LVL627:
	movq	%r12, %rcx
	xorl	%esi, %esi
	movl	$1, %edi
	movq	%rax, %rdx
	xorl	%eax, %eax
	call	error@PLT
.LVL628:
.L454:
	.loc 1 1446 15 view .LVU1516
.LBE615:
.LBE614:
	.loc 1 1368 41 discriminator 1 view .LVU1517
	movl	$5, %edx
	leaq	.LC173(%rip), %rsi
	xorl	%edi, %edi
	call	dcgettext@PLT
.LVL629:
.LBB618:
	.loc 1 1373 7 discriminator 1 view .LVU1518
	leaq	23(%rsp), %rbp
.LVL630:
	.loc 1 1373 7 discriminator 1 view .LVU1519
	movl	%r12d, %ecx
	movq	%r14, %rdx
.LBE618:
	.loc 1 1368 41 discriminator 1 view .LVU1520
	movq	%rax, (%rsp)
.LVL631:
	.loc 1 1370 3 is_stmt 1 discriminator 1 view .LVU1521
.LBB619:
	.loc 1 1372 7 discriminator 1 view .LVU1522
	.loc 1 1373 7 discriminator 1 view .LVU1523
	movq	%rax, %rsi
	movl	$1, %edi
	leaq	check_mode.7373(%rip), %r8
	pushq	%r9
	.cfi_def_cfa_offset 104
	movq	%rbp, %r9
	leaq	30(%rsp), %rbx
	pushq	%rbx
	.cfi_def_cfa_offset 112
	call	apply_settings
.LVL632:
	.loc 1 1373 7 is_stmt 0 discriminator 1 view .LVU1524
.LBE619:
	.loc 1 1377 3 is_stmt 1 discriminator 1 view .LVU1525
	.loc 1 1388 3 discriminator 1 view .LVU1526
	.loc 1 1388 7 is_stmt 0 discriminator 1 view .LVU1527
	leaq	mode.7342(%rip), %rsi
	xorl	%edi, %edi
	call	tcgetattr@PLT
.LVL633:
	.loc 1 1388 6 discriminator 1 view .LVU1528
	popq	%r10
	.cfi_def_cfa_offset 104
	popq	%r11
	.cfi_def_cfa_offset 96
.LVL634:
	.loc 1 1388 6 discriminator 1 view .LVU1529
	testl	%eax, %eax
	je	.L350
.LVL635:
.L349:
.LBB620:
	.loc 1 1389 5 is_stmt 1 view .LVU1530
	movq	(%rsp), %rdx
	movl	$3, %esi
	xorl	%edi, %edi
	call	quotearg_n_style_colon@PLT
.LVL636:
	movq	%rax, %r12
.LVL637:
	.loc 1 1389 5 is_stmt 0 view .LVU1531
	call	__errno_location@PLT
.LVL638:
	movq	%r12, %rcx
	movl	$1, %edi
	leaq	.LC10(%rip), %rdx
	movl	(%rax), %esi
	xorl	%eax, %eax
	call	error@PLT
.LVL639:
.L356:
	.loc 1 1389 5 view .LVU1532
.LBE620:
.LBB621:
.LBB609:
	.loc 1 1869 7 is_stmt 1 view .LVU1533
.LBB542:
.LBI542:
	.loc 1 1976 1 view .LVU1534
.LBB543:
	.loc 1 1978 3 view .LVU1535
	.loc 1 1979 3 view .LVU1536
	.loc 1 1980 3 view .LVU1537
	.loc 1 1981 3 view .LVU1538
	.loc 1 1983 3 view .LVU1539
	movl	$1, %esi
	leaq	mode.7342(%rip), %rdi
	call	display_speed
.LVL640:
	.loc 1 1985 3 view .LVU1540
	movq	(%rsp), %rsi
	movl	$1, %edi
	call	display_window_size
.LVL641:
	.loc 1 1988 3 view .LVU1541
	movzbl	16+mode.7342(%rip), %esi
	leaq	.LC175(%rip), %rdi
	xorl	%eax, %eax
	call	wrapf
.LVL642:
	.loc 1 1990 3 view .LVU1542
.LBB544:
.LBI544:
	.loc 2 108 1 view .LVU1543
.LBB545:
	.loc 2 110 3 view .LVU1544
	.loc 2 110 10 is_stmt 0 view .LVU1545
	movq	stdout(%rip), %rdi
	movq	40(%rdi), %rax
	cmpq	48(%rdi), %rax
	jnb	.L462
	leaq	1(%rax), %rdx
	movq	%rdx, 40(%rdi)
	movb	$10, (%rax)
.L380:
.LVL643:
	.loc 2 110 10 view .LVU1546
.LBE545:
.LBE544:
	.loc 1 1991 3 is_stmt 1 view .LVU1547
	leaq	control_info(%rip), %rbx
	.loc 1 2013 33 is_stmt 0 view .LVU1548
	leaq	mode.7342(%rip), %r13
.LVL644:
	.loc 1 1991 15 view .LVU1549
	movl	$0, current_col(%rip)
	.loc 1 1993 3 is_stmt 1 view .LVU1550
.LVL645:
.LBB547:
.LBB548:
	.loc 1 2273 12 is_stmt 0 view .LVU1551
	leaq	.LC165(%rip), %r12
.LVL646:
	.loc 1 2273 12 view .LVU1552
.LBE548:
.LBE547:
	.loc 1 1993 3 view .LVU1553
	jmp	.L381
.LVL647:
.L384:
	.loc 1 1997 7 is_stmt 1 view .LVU1554
	.loc 1 1997 11 is_stmt 0 view .LVU1555
	leaq	.LC176(%rip), %rsi
	movq	%rbp, %rdi
	call	strcmp@PLT
.LVL648:
	.loc 1 1997 10 view .LVU1556
	testl	%eax, %eax
	je	.L382
	.loc 1 2012 7 is_stmt 1 view .LVU1557
	.loc 1 2013 33 is_stmt 0 view .LVU1558
	movq	16(%rbx), %rax
.LBB552:
.LBB549:
	.loc 1 2273 12 view .LVU1559
	movq	%r12, %rdx
.LBE549:
.LBE552:
	.loc 1 2013 33 view .LVU1560
	movzbl	17(%r13,%rax), %eax
.LVL649:
.LBB553:
.LBI547:
	.loc 1 2267 1 is_stmt 1 view .LVU1561
.LBB550:
	.loc 1 2269 3 view .LVU1562
	.loc 1 2270 3 view .LVU1563
	.loc 1 2272 3 view .LVU1564
	.loc 1 2272 6 is_stmt 0 view .LVU1565
	testb	%al, %al
	je	.L383
.LBE550:
.LBE553:
	.loc 1 2012 7 view .LVU1566
	movzbl	%al, %edi
.LBB554:
.LBB551:
	call	visible.part.0
.LVL650:
	.loc 1 2012 7 view .LVU1567
	movq	%rax, %rdx
.L383:
	.loc 1 2012 7 view .LVU1568
.LBE551:
.LBE554:
	movq	%rbp, %rsi
	leaq	.LC177(%rip), %rdi
	xorl	%eax, %eax
	call	wrapf
.LVL651:
.L382:
	.loc 1 1993 54 is_stmt 1 view .LVU1569
	addq	$24, %rbx
.L381:
	.loc 1 1993 15 view .LVU1570
	.loc 1 1993 17 is_stmt 0 view .LVU1571
	movq	(%rbx), %rbp
	leaq	.LC149(%rip), %rsi
	movq	%rbp, %rdi
	call	strcmp@PLT
.LVL652:
	.loc 1 1993 3 view .LVU1572
	testl	%eax, %eax
	jne	.L384
	.loc 1 2018 5 is_stmt 1 view .LVU1573
	movzbl	22+mode.7342(%rip), %edx
	movzbl	23+mode.7342(%rip), %esi
	leaq	.LC180(%rip), %rdi
	call	wrapf
.LVL653:
	.loc 1 2021 3 view .LVU1574
	.loc 1 2021 6 is_stmt 0 view .LVU1575
	cmpl	$0, current_col(%rip)
	je	.L385
	.loc 1 2022 5 is_stmt 1 view .LVU1576
.LVL654:
.LBB555:
.LBI555:
	.loc 2 108 1 view .LVU1577
.LBB556:
	.loc 2 110 3 view .LVU1578
	.loc 2 110 10 is_stmt 0 view .LVU1579
	movq	stdout(%rip), %rdi
	movq	40(%rdi), %rax
	cmpq	48(%rdi), %rax
	jnb	.L463
	leaq	1(%rax), %rdx
	movq	%rdx, 40(%rdi)
	movb	$10, (%rax)
.LVL655:
.L385:
	.loc 2 110 10 view .LVU1580
.LBE556:
.LBE555:
	.loc 1 2023 3 is_stmt 1 view .LVU1581
	leaq	mode_info(%rip), %rbx
	.loc 1 1981 18 is_stmt 0 view .LVU1582
	xorl	%ebp, %ebp
	.loc 1 2036 15 view .LVU1583
	leaq	mode.7342(%rip), %r12
	.loc 1 2023 15 view .LVU1584
	movl	$0, current_col(%rip)
	.loc 1 2025 3 is_stmt 1 view .LVU1585
.LVL656:
	.loc 1 2025 3 is_stmt 0 view .LVU1586
	jmp	.L387
.LVL657:
.L388:
	.loc 1 2025 42 is_stmt 1 view .LVU1587
	addq	$32, %rbx
.LVL658:
.L387:
	.loc 1 2025 15 view .LVU1588
	.loc 1 2025 27 is_stmt 0 view .LVU1589
	movq	(%rbx), %r13
	.loc 1 2025 3 view .LVU1590
	testq	%r13, %r13
	je	.L446
	.loc 1 2027 7 is_stmt 1 view .LVU1591
	.loc 1 2027 23 is_stmt 0 view .LVU1592
	movzbl	12(%rbx), %r14d
	.loc 1 2027 10 view .LVU1593
	testb	$8, %r14b
	jne	.L388
	.loc 1 2029 7 is_stmt 1 view .LVU1594
	.loc 1 2029 23 is_stmt 0 view .LVU1595
	movl	8(%rbx), %r15d
	.loc 1 2029 10 view .LVU1596
	cmpl	%ebp, %r15d
	je	.L389
	.loc 1 2031 11 is_stmt 1 view .LVU1597
.LVL659:
.LBB558:
.LBI558:
	.loc 2 108 1 view .LVU1598
.LBB559:
	.loc 2 110 3 view .LVU1599
	.loc 2 110 10 is_stmt 0 view .LVU1600
	movq	stdout(%rip), %rdi
	movq	40(%rdi), %rax
	cmpq	48(%rdi), %rax
	jnb	.L464
	leaq	1(%rax), %rdx
	movq	%rdx, 40(%rdi)
	movb	$10, (%rax)
.L391:
.LVL660:
	.loc 2 110 10 view .LVU1601
.LBE559:
.LBE558:
	.loc 1 2032 11 is_stmt 1 view .LVU1602
	.loc 1 2032 23 is_stmt 0 view .LVU1603
	movl	$0, current_col(%rip)
	.loc 1 2033 11 is_stmt 1 view .LVU1604
.LVL661:
	.loc 1 2032 23 is_stmt 0 view .LVU1605
	movl	%r15d, %ebp
.LVL662:
.L389:
	.loc 1 2036 7 is_stmt 1 view .LVU1606
	.loc 1 2036 15 is_stmt 0 view .LVU1607
	movq	%r12, %rsi
	movl	%r15d, %edi
	call	mode_type_flag
.LVL663:
	movq	%rax, %rdx
.LVL664:
	.loc 1 2037 7 is_stmt 1 view .LVU1608
	.loc 1 2037 26 is_stmt 0 view .LVU1609
	movq	24(%rbx), %rax
.LVL665:
	.loc 1 2037 52 view .LVU1610
	testq	%rax, %rax
	jne	.L392
	.loc 1 2037 52 view .LVU1611
	movq	16(%rbx), %rax
.L392:
.LVL666:
	.loc 1 2038 7 is_stmt 1 view .LVU1612
	testq	%rdx, %rdx
	je	.L465
	.loc 1 2039 7 view .LVU1613
	.loc 1 2039 19 is_stmt 0 view .LVU1614
	andl	(%rdx), %eax
.LVL667:
	.loc 1 2039 10 view .LVU1615
	cmpq	16(%rbx), %rax
	je	.L466
	.loc 1 2041 12 is_stmt 1 view .LVU1616
	.loc 1 2041 15 is_stmt 0 view .LVU1617
	andb	$4, %r14b
	je	.L388
	.loc 1 2042 9 is_stmt 1 view .LVU1618
	movq	%r13, %rsi
	leaq	.LC179(%rip), %rdi
	xorl	%eax, %eax
	call	wrapf
.LVL668:
	.loc 1 2042 9 is_stmt 0 view .LVU1619
	jmp	.L388
.LVL669:
.L466:
	.loc 1 2040 9 is_stmt 1 view .LVU1620
	movq	%r13, %rsi
	leaq	.LC10(%rip), %rdi
	xorl	%eax, %eax
	call	wrapf
.LVL670:
	.loc 1 2040 9 is_stmt 0 view .LVU1621
	jmp	.L388
.LVL671:
.L472:
	.loc 1 2040 9 view .LVU1622
.LBE543:
.LBE542:
.LBB572:
.LBB573:
	.loc 1 1970 3 is_stmt 1 view .LVU1623
	.loc 1 1970 6 is_stmt 0 view .LVU1624
	testb	%r15b, %r15b
	jne	.L376
.LVL672:
.L446:
	.loc 1 1970 6 view .LVU1625
.LBE573:
.LBE572:
.LBB599:
.LBB568:
	.loc 1 2044 3 is_stmt 1 view .LVU1626
.LBB561:
.LBI561:
	.loc 2 108 1 view .LVU1627
.LBB562:
	.loc 2 110 3 view .LVU1628
	.loc 2 110 10 is_stmt 0 view .LVU1629
	movq	stdout(%rip), %rdi
	movq	40(%rdi), %rax
	cmpq	48(%rdi), %rax
	jnb	.L467
.LBE562:
.LBE561:
.LBE568:
.LBE599:
.LBB600:
.LBB594:
.LBB574:
.LBB575:
	leaq	1(%rax), %rdx
	movq	%rdx, 40(%rdi)
	movb	$10, (%rax)
.LVL673:
.L376:
	.loc 2 110 10 view .LVU1630
.LBE575:
.LBE574:
	.loc 1 1972 3 is_stmt 1 view .LVU1631
	.loc 1 1972 15 is_stmt 0 view .LVU1632
	movl	$0, current_col(%rip)
	.loc 1 1973 1 view .LVU1633
	jmp	.L378
.LVL674:
.L458:
	.loc 1 1973 1 view .LVU1634
.LBE594:
.LBE600:
	.loc 1 1865 7 is_stmt 1 view .LVU1635
.LBB601:
.LBI572:
	.loc 1 1879 1 view .LVU1636
.LBB595:
	.loc 1 1881 3 view .LVU1637
	.loc 1 1882 3 view .LVU1638
	.loc 1 1883 3 view .LVU1639
	.loc 1 1884 3 view .LVU1640
	.loc 1 1885 3 view .LVU1641
	.loc 1 1887 3 view .LVU1642
	movl	$1, %esi
	leaq	mode.7342(%rip), %rdi
	call	display_speed
.LVL675:
	.loc 1 1889 3 view .LVU1643
	movzbl	16+mode.7342(%rip), %esi
	leaq	.LC175(%rip), %rdi
	xorl	%eax, %eax
	call	wrapf
.LVL676:
	.loc 1 1891 3 view .LVU1644
.LBB576:
.LBI576:
	.loc 2 108 1 view .LVU1645
.LBB577:
	.loc 2 110 3 view .LVU1646
	.loc 2 110 10 is_stmt 0 view .LVU1647
	movq	stdout(%rip), %rdi
	movq	40(%rdi), %rax
	cmpq	48(%rdi), %rax
	jnb	.L468
	leaq	1(%rax), %rdx
	movq	%rdx, 40(%rdi)
	movb	$10, (%rax)
.L359:
.LVL677:
	.loc 2 110 10 view .LVU1648
.LBE577:
.LBE576:
	.loc 1 1892 3 is_stmt 1 view .LVU1649
	.loc 1 1892 15 is_stmt 0 view .LVU1650
	movl	$0, current_col(%rip)
	.loc 1 1894 3 is_stmt 1 view .LVU1651
.LVL678:
	.loc 1 1895 3 view .LVU1652
	.loc 1 1895 3 is_stmt 0 view .LVU1653
	leaq	control_info(%rip), %rbx
	.loc 1 1894 14 view .LVU1654
	movl	$1, %r15d
	.loc 1 1897 21 view .LVU1655
	leaq	mode.7342(%rip), %r13
.LVL679:
.LBB579:
.LBB580:
	.loc 1 2273 12 view .LVU1656
	leaq	.LC165(%rip), %r14
.LVL680:
	.loc 1 2273 12 view .LVU1657
.LBE580:
.LBE579:
	.loc 1 1895 3 view .LVU1658
	jmp	.L360
.LVL681:
.L363:
	.loc 1 1897 7 is_stmt 1 view .LVU1659
	.loc 1 1897 21 is_stmt 0 view .LVU1660
	movq	16(%rbx), %rax
	movzbl	17(%r13,%rax), %r12d
	.loc 1 1897 10 view .LVU1661
	cmpb	8(%rbx), %r12b
	je	.L361
	.loc 1 1902 7 is_stmt 1 view .LVU1662
	.loc 1 1902 11 is_stmt 0 view .LVU1663
	leaq	.LC176(%rip), %rsi
	movq	%rbp, %rdi
	call	strcmp@PLT
.LVL682:
	.loc 1 1902 10 view .LVU1664
	testl	%eax, %eax
	je	.L361
	.loc 1 1918 7 is_stmt 1 view .LVU1665
.LVL683:
	.loc 1 1919 7 view .LVU1666
.LBB583:
.LBI579:
	.loc 1 2267 1 view .LVU1667
.LBB581:
	.loc 1 2269 3 view .LVU1668
	.loc 1 2270 3 view .LVU1669
	.loc 1 2272 3 view .LVU1670
	.loc 1 2273 12 is_stmt 0 view .LVU1671
	movq	%r14, %rdx
	.loc 1 2272 6 view .LVU1672
	testb	%r12b, %r12b
	je	.L362
.LBE581:
.LBE583:
	.loc 1 1919 7 view .LVU1673
	movzbl	%r12b, %edi
.LBB584:
.LBB582:
	call	visible.part.0
.LVL684:
	movq	%rax, %rdx
.L362:
.LVL685:
	.loc 1 1919 7 view .LVU1674
.LBE582:
.LBE584:
	movq	%rbp, %rsi
	leaq	.LC177(%rip), %rdi
	xorl	%eax, %eax
	.loc 1 1918 18 view .LVU1675
	xorl	%r15d, %r15d
	.loc 1 1919 7 view .LVU1676
	call	wrapf
.LVL686:
.L361:
	.loc 1 1895 53 is_stmt 1 view .LVU1677
	addq	$24, %rbx
.LVL687:
.L360:
	.loc 1 1895 15 view .LVU1678
	.loc 1 1895 16 is_stmt 0 view .LVU1679
	movq	(%rbx), %rbp
	leaq	.LC149(%rip), %rsi
	movq	%rbp, %rdi
	call	strcmp@PLT
.LVL688:
	.loc 1 1895 3 view .LVU1680
	testl	%eax, %eax
	jne	.L363
	.loc 1 1922 3 is_stmt 1 view .LVU1681
	.loc 1 1922 6 is_stmt 0 view .LVU1682
	testb	$2, 12+mode.7342(%rip)
	je	.L469
	.loc 1 1928 8 is_stmt 1 view .LVU1683
	.loc 1 1928 11 is_stmt 0 view .LVU1684
	testb	%r15b, %r15b
	jne	.L365
	.loc 1 1929 5 is_stmt 1 view .LVU1685
.LVL689:
.LBB585:
.LBI585:
	.loc 2 108 1 view .LVU1686
.LBB586:
	.loc 2 110 3 view .LVU1687
	.loc 2 110 10 is_stmt 0 view .LVU1688
	movq	stdout(%rip), %rdi
	movq	40(%rdi), %rax
	cmpq	48(%rdi), %rax
	jnb	.L470
	leaq	1(%rax), %rdx
	movq	%rdx, 40(%rdi)
	movb	$10, (%rax)
.LVL690:
.L365:
	.loc 2 110 10 view .LVU1689
.LBE586:
.LBE585:
	.loc 1 1930 3 is_stmt 1 view .LVU1690
	leaq	mode_info(%rip), %rbx
	.loc 1 1885 18 is_stmt 0 view .LVU1691
	xorl	%r12d, %r12d
	.loc 1 1932 14 view .LVU1692
	movl	$1, %r15d
.LVL691:
	.loc 1 1930 15 view .LVU1693
	movl	$0, current_col(%rip)
	.loc 1 1932 3 is_stmt 1 view .LVU1694
.LVL692:
	.loc 1 1933 3 view .LVU1695
	.loc 1 1933 3 is_stmt 0 view .LVU1696
	jmp	.L367
.LVL693:
.L374:
	.loc 1 1964 12 is_stmt 1 view .LVU1697
	.loc 1 1964 15 is_stmt 0 view .LVU1698
	andl	$5, %ebp
	cmpb	$5, %bpl
	je	.L471
.LVL694:
.L368:
	.loc 1 1933 42 is_stmt 1 view .LVU1699
	addq	$32, %rbx
.LVL695:
.L367:
	.loc 1 1933 15 view .LVU1700
	.loc 1 1933 27 is_stmt 0 view .LVU1701
	movq	(%rbx), %r13
	.loc 1 1933 3 view .LVU1702
	testq	%r13, %r13
	je	.L472
	.loc 1 1935 7 is_stmt 1 view .LVU1703
	.loc 1 1935 23 is_stmt 0 view .LVU1704
	movzbl	12(%rbx), %ebp
	.loc 1 1935 10 view .LVU1705
	testb	$8, %bpl
	jne	.L368
	.loc 1 1937 7 is_stmt 1 view .LVU1706
	.loc 1 1937 23 is_stmt 0 view .LVU1707
	movl	8(%rbx), %r14d
	.loc 1 1937 10 view .LVU1708
	cmpl	%r12d, %r14d
	je	.L369
	.loc 1 1939 11 is_stmt 1 view .LVU1709
	movl	%r14d, %r12d
.LVL696:
	.loc 1 1939 14 is_stmt 0 view .LVU1710
	testb	%r15b, %r15b
	jne	.L369
	.loc 1 1941 15 is_stmt 1 view .LVU1711
.LVL697:
.LBB588:
.LBI588:
	.loc 2 108 1 view .LVU1712
.LBB589:
	.loc 2 110 3 view .LVU1713
	.loc 2 110 10 is_stmt 0 view .LVU1714
	movq	stdout(%rip), %rdi
	movq	40(%rdi), %rax
	cmpq	48(%rdi), %rax
	jnb	.L473
	leaq	1(%rax), %rdx
	movq	%rdx, 40(%rdi)
	movb	$10, (%rax)
.L371:
.LVL698:
	.loc 2 110 10 view .LVU1715
.LBE589:
.LBE588:
	.loc 1 1942 15 is_stmt 1 view .LVU1716
	.loc 1 1942 27 is_stmt 0 view .LVU1717
	movl	$0, current_col(%rip)
	.loc 1 1943 15 is_stmt 1 view .LVU1718
.LVL699:
	.loc 1 1942 27 is_stmt 0 view .LVU1719
	movl	%r14d, %r12d
	.loc 1 1943 26 view .LVU1720
	movl	$1, %r15d
.LVL700:
.L369:
	.loc 1 1948 7 is_stmt 1 view .LVU1721
	.loc 1 1948 15 is_stmt 0 view .LVU1722
	leaq	mode.7342(%rip), %rsi
	movl	%r14d, %edi
	call	mode_type_flag
.LVL701:
	movq	%rax, %rdx
.LVL702:
	.loc 1 1949 7 is_stmt 1 view .LVU1723
	.loc 1 1949 26 is_stmt 0 view .LVU1724
	movq	24(%rbx), %rax
.LVL703:
	.loc 1 1949 52 view .LVU1725
	testq	%rax, %rax
	jne	.L372
	movq	16(%rbx), %rax
.L372:
.LVL704:
	.loc 1 1954 7 is_stmt 1 view .LVU1726
	testq	%rdx, %rdx
	je	.L474
	.loc 1 1956 7 view .LVU1727
	.loc 1 1956 19 is_stmt 0 view .LVU1728
	andl	(%rdx), %eax
.LVL705:
	.loc 1 1956 10 view .LVU1729
	cmpq	16(%rbx), %rax
	jne	.L374
	.loc 1 1958 11 is_stmt 1 view .LVU1730
	.loc 1 1958 14 is_stmt 0 view .LVU1731
	andb	$2, %bpl
	je	.L368
	.loc 1 1960 15 is_stmt 1 view .LVU1732
	movq	%r13, %rsi
	leaq	.LC10(%rip), %rdi
	xorl	%eax, %eax
	.loc 1 1961 26 is_stmt 0 view .LVU1733
	xorl	%r15d, %r15d
.LVL706:
	.loc 1 1960 15 view .LVU1734
	call	wrapf
.LVL707:
	.loc 1 1961 15 is_stmt 1 view .LVU1735
	.loc 1 1961 15 is_stmt 0 view .LVU1736
	jmp	.L368
.LVL708:
.L471:
	.loc 1 1966 11 is_stmt 1 view .LVU1737
	movq	%r13, %rsi
	leaq	.LC179(%rip), %rdi
	xorl	%eax, %eax
	.loc 1 1967 22 is_stmt 0 view .LVU1738
	xorl	%r15d, %r15d
.LVL709:
	.loc 1 1966 11 view .LVU1739
	call	wrapf
.LVL710:
	.loc 1 1967 11 is_stmt 1 view .LVU1740
	.loc 1 1967 11 is_stmt 0 view .LVU1741
	jmp	.L368
.LVL711:
.L464:
	.loc 1 1967 11 view .LVU1742
.LBE595:
.LBE601:
.LBB602:
.LBB569:
.LBB564:
.LBB560:
	.loc 2 110 10 view .LVU1743
	movl	$10, %esi
	call	__overflow@PLT
.LVL712:
	jmp	.L391
.LVL713:
.L469:
	.loc 2 110 10 view .LVU1744
.LBE560:
.LBE564:
.LBE569:
.LBE602:
.LBB603:
.LBB596:
	.loc 1 1924 7 is_stmt 1 view .LVU1745
	movzbl	22+mode.7342(%rip), %edx
	movzbl	23+mode.7342(%rip), %esi
	leaq	.LC178(%rip), %rdi
	call	wrapf
.LVL714:
	jmp	.L365
.LVL715:
.L473:
.LBB591:
.LBB590:
	.loc 2 110 10 is_stmt 0 view .LVU1746
	movl	$10, %esi
	call	__overflow@PLT
.LVL716:
	jmp	.L371
.LVL717:
.L451:
	.loc 2 110 10 view .LVU1747
.LBE590:
.LBE591:
.LBE596:
.LBE603:
.LBE609:
.LBE621:
	.loc 1 1330 9 is_stmt 1 view .LVU1748
	xorl	%edi, %edi
	call	usage
.LVL718:
.L449:
	.loc 1 1353 13 is_stmt 0 view .LVU1749
	movl	%r15d, %esi
	jmp	.L340
.LVL719:
.L468:
.LBB622:
.LBB610:
.LBB604:
.LBB597:
.LBB592:
.LBB578:
	.loc 2 110 10 view .LVU1750
	movl	$10, %esi
	call	__overflow@PLT
.LVL720:
	jmp	.L359
.LVL721:
.L470:
	.loc 2 110 10 view .LVU1751
.LBE578:
.LBE592:
.LBB593:
.LBB587:
	movl	$10, %esi
	call	__overflow@PLT
.LVL722:
	jmp	.L365
.LVL723:
.L453:
	.loc 2 110 10 view .LVU1752
.LBE587:
.LBE593:
.LBE597:
.LBE604:
.LBE610:
.LBE622:
.LBB623:
	.loc 1 1359 5 is_stmt 1 view .LVU1753
	movl	$5, %edx
	leaq	.LC171(%rip), %rsi
	xorl	%edi, %edi
	call	dcgettext@PLT
.LVL724:
	.loc 1 1359 5 is_stmt 0 view .LVU1754
	xorl	%esi, %esi
	movl	$1, %edi
	movq	%rax, %rdx
	xorl	%eax, %eax
	call	error@PLT
.LVL725:
.L452:
	.loc 1 1359 5 view .LVU1755
.LBE623:
.LBB624:
	.loc 1 1326 13 is_stmt 1 view .LVU1756
	movl	$5, %edx
	leaq	.LC167(%rip), %rsi
	xorl	%edi, %edi
	call	dcgettext@PLT
.LVL726:
	.loc 1 1326 13 is_stmt 0 view .LVU1757
	xorl	%esi, %esi
	movl	$1, %edi
	movq	%rax, %rdx
	xorl	%eax, %eax
	call	error@PLT
.LVL727:
.L461:
	.loc 1 1326 13 view .LVU1758
.LBE624:
.LBB625:
.LBB616:
	.loc 1 1421 9 is_stmt 1 view .LVU1759
	movq	(%rsp), %rdx
	movl	$3, %esi
	xorl	%edi, %edi
	call	quotearg_n_style_colon@PLT
.LVL728:
	movq	%rax, %r12
.LVL729:
	.loc 1 1421 9 is_stmt 0 view .LVU1760
	call	__errno_location@PLT
.LVL730:
	movq	%r12, %rcx
	movl	$1, %edi
	leaq	.LC10(%rip), %rdx
	movl	(%rax), %esi
	xorl	%eax, %eax
	call	error@PLT
.LVL731:
.L412:
	.loc 1 1421 9 view .LVU1761
.LBE616:
.LBE625:
.LBB626:
	.loc 1 1365 5 is_stmt 1 view .LVU1762
	movl	$5, %edx
	leaq	.LC172(%rip), %rsi
	xorl	%edi, %edi
	call	dcgettext@PLT
.LVL732:
	.loc 1 1365 5 is_stmt 0 view .LVU1763
	xorl	%esi, %esi
	movl	$1, %edi
	movq	%rax, %rdx
	xorl	%eax, %eax
	call	error@PLT
.LVL733:
.L353:
.LBE626:
.LBB627:
.LBB512:
	.loc 1 1384 9 is_stmt 1 view .LVU1764
	movq	(%rsp), %rdx
	movl	$3, %esi
	xorl	%edi, %edi
	call	quotearg_n_style_colon@PLT
.LVL734:
	movl	$5, %edx
	leaq	.LC174(%rip), %rsi
	xorl	%edi, %edi
	movq	%rax, %r13
.LVL735:
	.loc 1 1384 9 is_stmt 0 view .LVU1765
	call	dcgettext@PLT
.LVL736:
	movq	%rax, %r12
.LVL737:
	.loc 1 1384 9 view .LVU1766
	call	__errno_location@PLT
.LVL738:
	movq	%r13, %rcx
	movq	%r12, %rdx
	movl	$1, %edi
	movl	(%rax), %esi
	xorl	%eax, %eax
	call	error@PLT
.LVL739:
.L455:
	.loc 1 1384 9 view .LVU1767
.LBE512:
.LBB513:
	.loc 1 1381 9 is_stmt 1 view .LVU1768
	movq	(%rsp), %rdx
	movl	$3, %esi
	xorl	%edi, %edi
	call	quotearg_n_style_colon@PLT
.LVL740:
	movq	%rax, %r12
.LVL741:
	.loc 1 1381 9 is_stmt 0 view .LVU1769
	call	__errno_location@PLT
.LVL742:
	movq	%r12, %rcx
	movl	$1, %edi
	leaq	.LC10(%rip), %rdx
	movl	(%rax), %esi
	xorl	%eax, %eax
	call	error@PLT
.LVL743:
.L474:
	.loc 1 1381 9 view .LVU1770
.LBE513:
.LBE627:
.LBB628:
.LBB611:
.LBB605:
.LBB598:
	.loc 1 1954 7 is_stmt 1 view .LVU1771
	leaq	__PRETTY_FUNCTION__.7468(%rip), %rcx
	movl	$1954, %edx
.LVL744:
	.loc 1 1954 7 is_stmt 0 view .LVU1772
	leaq	.LC134(%rip), %rsi
	leaq	.LC135(%rip), %rdi
	call	__assert_fail@PLT
.LVL745:
.L465:
	.loc 1 1954 7 view .LVU1773
.LBE598:
.LBE605:
.LBB606:
.LBB570:
	.loc 1 2038 7 is_stmt 1 view .LVU1774
	leaq	__PRETTY_FUNCTION__.7485(%rip), %rcx
	movl	$2038, %edx
.LVL746:
	.loc 1 2038 7 is_stmt 0 view .LVU1775
	leaq	.LC134(%rip), %rsi
	leaq	.LC135(%rip), %rdi
	call	__assert_fail@PLT
.LVL747:
.L462:
.LBB565:
.LBB546:
	.loc 2 110 10 view .LVU1776
	movl	$10, %esi
	call	__overflow@PLT
.LVL748:
	jmp	.L380
.LVL749:
.L463:
	.loc 2 110 10 view .LVU1777
.LBE546:
.LBE565:
.LBB566:
.LBB557:
	movl	$10, %esi
	call	__overflow@PLT
.LVL750:
	jmp	.L385
.LVL751:
.L457:
	.loc 2 110 10 view .LVU1778
.LBE557:
.LBE566:
.LBE570:
.LBE606:
.LBE611:
.LBE628:
	.loc 1 1463 1 view .LVU1779
	call	__stack_chk_fail@PLT
.LVL752:
.L459:
.LBB629:
.LBB612:
.LBB607:
.LBB541:
.LBB540:
.LBB539:
	.loc 2 110 10 view .LVU1780
	movl	$10, %esi
	call	__overflow@PLT
.LVL753:
	jmp	.L378
.LVL754:
.L460:
	.loc 2 110 10 view .LVU1781
.LBE539:
.LBE540:
.LBE541:
.LBE607:
.LBE612:
.LBE629:
.LBB630:
.LBB617:
	.loc 1 1411 9 is_stmt 1 view .LVU1782
	movq	(%rsp), %rdx
	movl	$3, %esi
	xorl	%edi, %edi
	call	quotearg_n_style_colon@PLT
.LVL755:
	movq	%rax, %r12
.LVL756:
	.loc 1 1411 9 is_stmt 0 view .LVU1783
	call	__errno_location@PLT
.LVL757:
	movq	%r12, %rcx
	movl	$1, %edi
	leaq	.LC10(%rip), %rdx
	movl	(%rax), %esi
	xorl	%eax, %eax
	call	error@PLT
.LVL758:
.L467:
	.loc 1 1411 9 view .LVU1784
.LBE617:
.LBE630:
.LBB631:
.LBB613:
.LBB608:
.LBB571:
.LBB567:
.LBB563:
	.loc 2 110 10 view .LVU1785
	movl	$10, %esi
	call	__overflow@PLT
.LVL759:
	jmp	.L376
.LBE563:
.LBE567:
.LBE571:
.LBE608:
.LBE613:
.LBE631:
	.cfi_endproc
.LFE138:
	.size	main, .-main
	.section	.rodata
	.align 8
	.type	__PRETTY_FUNCTION__.7560, @object
	.size	__PRETTY_FUNCTION__.7560, 10
__PRETTY_FUNCTION__.7560:
	.string	"sane_mode"
	.align 8
	.type	__PRETTY_FUNCTION__.7485, @object
	.size	__PRETTY_FUNCTION__.7485, 12
__PRETTY_FUNCTION__.7485:
	.string	"display_all"
	.local	buf.7567
	.comm	buf.7567,10,8
	.align 16
	.type	__PRETTY_FUNCTION__.7468, @object
	.size	__PRETTY_FUNCTION__.7468, 16
__PRETTY_FUNCTION__.7468:
	.string	"display_changed"
	.local	new_mode.7381
	.comm	new_mode.7381,60,32
	.local	mode.7342
	.comm	mode.7342,60,32
	.local	check_mode.7373
	.comm	check_mode.7373,60,32
	.section	.rodata.str1.1
.LC184:
	.string	"50"
.LC185:
	.string	"75"
.LC186:
	.string	"110"
.LC187:
	.string	"134"
.LC188:
	.string	"134.5"
.LC189:
	.string	"150"
.LC190:
	.string	"200"
.LC191:
	.string	"300"
.LC192:
	.string	"600"
.LC193:
	.string	"1200"
.LC194:
	.string	"1800"
.LC195:
	.string	"2400"
.LC196:
	.string	"4800"
.LC197:
	.string	"9600"
.LC198:
	.string	"19200"
.LC199:
	.string	"38400"
.LC200:
	.string	"exta"
.LC201:
	.string	"extb"
.LC202:
	.string	"57600"
.LC203:
	.string	"115200"
.LC204:
	.string	"230400"
.LC205:
	.string	"460800"
.LC206:
	.string	"500000"
.LC207:
	.string	"576000"
.LC208:
	.string	"921600"
.LC209:
	.string	"1000000"
.LC210:
	.string	"1152000"
.LC211:
	.string	"1500000"
.LC212:
	.string	"2000000"
.LC213:
	.string	"2500000"
.LC214:
	.string	"3000000"
.LC215:
	.string	"3500000"
.LC216:
	.string	"4000000"
	.section	.data.rel.ro.local,"aw"
	.align 32
	.type	speeds, @object
	.size	speeds, 840
speeds:
	.quad	.LC0
	.long	0
	.zero	4
	.quad	0
	.quad	.LC184
	.long	1
	.zero	4
	.quad	50
	.quad	.LC185
	.long	2
	.zero	4
	.quad	75
	.quad	.LC186
	.long	3
	.zero	4
	.quad	110
	.quad	.LC187
	.long	4
	.zero	4
	.quad	134
	.quad	.LC188
	.long	4
	.zero	4
	.quad	134
	.quad	.LC189
	.long	5
	.zero	4
	.quad	150
	.quad	.LC190
	.long	6
	.zero	4
	.quad	200
	.quad	.LC191
	.long	7
	.zero	4
	.quad	300
	.quad	.LC192
	.long	8
	.zero	4
	.quad	600
	.quad	.LC193
	.long	9
	.zero	4
	.quad	1200
	.quad	.LC194
	.long	10
	.zero	4
	.quad	1800
	.quad	.LC195
	.long	11
	.zero	4
	.quad	2400
	.quad	.LC196
	.long	12
	.zero	4
	.quad	4800
	.quad	.LC197
	.long	13
	.zero	4
	.quad	9600
	.quad	.LC198
	.long	14
	.zero	4
	.quad	19200
	.quad	.LC199
	.long	15
	.zero	4
	.quad	38400
	.quad	.LC200
	.long	14
	.zero	4
	.quad	19200
	.quad	.LC201
	.long	15
	.zero	4
	.quad	38400
	.quad	.LC202
	.long	4097
	.zero	4
	.quad	57600
	.quad	.LC203
	.long	4098
	.zero	4
	.quad	115200
	.quad	.LC204
	.long	4099
	.zero	4
	.quad	230400
	.quad	.LC205
	.long	4100
	.zero	4
	.quad	460800
	.quad	.LC206
	.long	4101
	.zero	4
	.quad	500000
	.quad	.LC207
	.long	4102
	.zero	4
	.quad	576000
	.quad	.LC208
	.long	4103
	.zero	4
	.quad	921600
	.quad	.LC209
	.long	4104
	.zero	4
	.quad	1000000
	.quad	.LC210
	.long	4105
	.zero	4
	.quad	1152000
	.quad	.LC211
	.long	4106
	.zero	4
	.quad	1500000
	.quad	.LC212
	.long	4107
	.zero	4
	.quad	2000000
	.quad	.LC213
	.long	4108
	.zero	4
	.quad	2500000
	.quad	.LC214
	.long	4109
	.zero	4
	.quad	3000000
	.quad	.LC215
	.long	4110
	.zero	4
	.quad	3500000
	.quad	.LC216
	.long	4111
	.zero	4
	.quad	4000000
	.quad	0
	.long	0
	.zero	4
	.quad	0
	.section	.rodata.str1.1
.LC217:
	.string	"all"
.LC218:
	.string	"save"
.LC219:
	.string	"file"
.LC220:
	.string	"help"
.LC221:
	.string	"version"
	.section	.data.rel.ro.local
	.align 32
	.type	longopts, @object
	.size	longopts, 192
longopts:
	.quad	.LC217
	.long	0
	.zero	4
	.quad	0
	.long	97
	.zero	4
	.quad	.LC218
	.long	0
	.zero	4
	.quad	0
	.long	103
	.zero	4
	.quad	.LC219
	.long	1
	.zero	4
	.quad	0
	.long	70
	.zero	4
	.quad	.LC220
	.long	0
	.zero	4
	.quad	0
	.long	-130
	.zero	4
	.quad	.LC221
	.long	0
	.zero	4
	.quad	0
	.long	-131
	.zero	4
	.quad	0
	.long	0
	.zero	4
	.quad	0
	.long	0
	.zero	4
	.data
	.align 4
	.type	tcsetattr_options, @object
	.size	tcsetattr_options, 4
tcsetattr_options:
	.long	1
	.local	current_col
	.comm	current_col,4,4
	.local	max_col
	.comm	max_col,4,4
	.section	.rodata.str1.1
.LC222:
	.string	"quit"
.LC223:
	.string	"erase"
.LC224:
	.string	"kill"
.LC225:
	.string	"eof"
.LC226:
	.string	"eol"
.LC227:
	.string	"eol2"
.LC228:
	.string	"swtch"
.LC229:
	.string	"start"
.LC230:
	.string	"stop"
.LC231:
	.string	"susp"
.LC232:
	.string	"rprnt"
.LC233:
	.string	"werase"
.LC234:
	.string	"lnext"
.LC235:
	.string	"discard"
	.section	.data.rel.ro.local
	.align 32
	.type	control_info, @object
	.size	control_info, 456
control_info:
	.quad	.LC129
	.byte	3
	.zero	7
	.quad	0
	.quad	.LC222
	.byte	28
	.zero	7
	.quad	1
	.quad	.LC223
	.byte	127
	.zero	7
	.quad	2
	.quad	.LC224
	.byte	21
	.zero	7
	.quad	3
	.quad	.LC225
	.byte	4
	.zero	7
	.quad	4
	.quad	.LC226
	.byte	0
	.zero	7
	.quad	11
	.quad	.LC227
	.byte	0
	.zero	7
	.quad	16
	.quad	.LC228
	.byte	0
	.zero	7
	.quad	7
	.quad	.LC229
	.byte	17
	.zero	7
	.quad	8
	.quad	.LC230
	.byte	19
	.zero	7
	.quad	9
	.quad	.LC231
	.byte	26
	.zero	7
	.quad	10
	.quad	.LC232
	.byte	18
	.zero	7
	.quad	12
	.quad	.LC233
	.byte	23
	.zero	7
	.quad	14
	.quad	.LC234
	.byte	22
	.zero	7
	.quad	15
	.quad	.LC176
	.byte	15
	.zero	7
	.quad	13
	.quad	.LC235
	.byte	15
	.zero	7
	.quad	13
	.quad	.LC149
	.byte	1
	.zero	7
	.quad	6
	.quad	.LC150
	.byte	0
	.zero	7
	.quad	5
	.quad	0
	.byte	0
	.zero	7
	.quad	0
	.section	.rodata.str1.1
.LC236:
	.string	"parodd"
.LC237:
	.string	"cmspar"
.LC238:
	.string	"cs5"
.LC239:
	.string	"cs6"
.LC240:
	.string	"cs7"
.LC241:
	.string	"cs8"
.LC242:
	.string	"hupcl"
.LC243:
	.string	"hup"
.LC244:
	.string	"cstopb"
.LC245:
	.string	"cread"
.LC246:
	.string	"clocal"
.LC247:
	.string	"crtscts"
.LC248:
	.string	"ignbrk"
.LC249:
	.string	"brkint"
.LC250:
	.string	"ignpar"
.LC251:
	.string	"parmrk"
.LC252:
	.string	"inpck"
.LC253:
	.string	"istrip"
.LC254:
	.string	"inlcr"
.LC255:
	.string	"igncr"
.LC256:
	.string	"icrnl"
.LC257:
	.string	"ixon"
.LC258:
	.string	"ixoff"
.LC259:
	.string	"tandem"
.LC260:
	.string	"iuclc"
.LC261:
	.string	"ixany"
.LC262:
	.string	"imaxbel"
.LC263:
	.string	"iutf8"
.LC264:
	.string	"opost"
.LC265:
	.string	"olcuc"
.LC266:
	.string	"ocrnl"
.LC267:
	.string	"onlcr"
.LC268:
	.string	"onocr"
.LC269:
	.string	"onlret"
.LC270:
	.string	"ofill"
.LC271:
	.string	"ofdel"
.LC272:
	.string	"nl1"
.LC273:
	.string	"nl0"
.LC274:
	.string	"cr3"
.LC275:
	.string	"cr2"
.LC276:
	.string	"cr1"
.LC277:
	.string	"cr0"
.LC278:
	.string	"tab3"
.LC279:
	.string	"tab2"
.LC280:
	.string	"tab1"
.LC281:
	.string	"tab0"
.LC282:
	.string	"bs1"
.LC283:
	.string	"bs0"
.LC284:
	.string	"vt1"
.LC285:
	.string	"vt0"
.LC286:
	.string	"ff1"
.LC287:
	.string	"ff0"
.LC288:
	.string	"isig"
.LC289:
	.string	"icanon"
.LC290:
	.string	"iexten"
.LC291:
	.string	"echo"
.LC292:
	.string	"echoe"
.LC293:
	.string	"crterase"
.LC294:
	.string	"echok"
.LC295:
	.string	"echonl"
.LC296:
	.string	"noflsh"
.LC297:
	.string	"xcase"
.LC298:
	.string	"tostop"
.LC299:
	.string	"echoprt"
.LC300:
	.string	"prterase"
.LC301:
	.string	"echoctl"
.LC302:
	.string	"ctlecho"
.LC303:
	.string	"echoke"
.LC304:
	.string	"crtkill"
.LC305:
	.string	"flusho"
.LC306:
	.string	"extproc"
	.section	.data.rel.ro.local
	.align 32
	.type	mode_info, @object
	.size	mode_info, 2880
mode_info:
	.quad	.LC128
	.long	0
	.byte	4
	.zero	3
	.quad	256
	.quad	0
	.quad	.LC236
	.long	0
	.byte	4
	.zero	3
	.quad	512
	.quad	0
	.quad	.LC237
	.long	0
	.byte	4
	.zero	3
	.quad	1073741824
	.quad	0
	.quad	.LC238
	.long	0
	.byte	0
	.zero	3
	.quad	0
	.quad	48
	.quad	.LC239
	.long	0
	.byte	0
	.zero	3
	.quad	16
	.quad	48
	.quad	.LC240
	.long	0
	.byte	0
	.zero	3
	.quad	32
	.quad	48
	.quad	.LC241
	.long	0
	.byte	0
	.zero	3
	.quad	48
	.quad	48
	.quad	.LC242
	.long	0
	.byte	4
	.zero	3
	.quad	1024
	.quad	0
	.quad	.LC243
	.long	0
	.byte	12
	.zero	3
	.quad	1024
	.quad	0
	.quad	.LC244
	.long	0
	.byte	4
	.zero	3
	.quad	64
	.quad	0
	.quad	.LC245
	.long	0
	.byte	5
	.zero	3
	.quad	128
	.quad	0
	.quad	.LC246
	.long	0
	.byte	4
	.zero	3
	.quad	2048
	.quad	0
	.quad	.LC247
	.long	0
	.byte	4
	.zero	3
	.quad	2147483648
	.quad	0
	.quad	.LC248
	.long	1
	.byte	6
	.zero	3
	.quad	1
	.quad	0
	.quad	.LC249
	.long	1
	.byte	5
	.zero	3
	.quad	2
	.quad	0
	.quad	.LC250
	.long	1
	.byte	4
	.zero	3
	.quad	4
	.quad	0
	.quad	.LC251
	.long	1
	.byte	4
	.zero	3
	.quad	8
	.quad	0
	.quad	.LC252
	.long	1
	.byte	4
	.zero	3
	.quad	16
	.quad	0
	.quad	.LC253
	.long	1
	.byte	4
	.zero	3
	.quad	32
	.quad	0
	.quad	.LC254
	.long	1
	.byte	6
	.zero	3
	.quad	64
	.quad	0
	.quad	.LC255
	.long	1
	.byte	6
	.zero	3
	.quad	128
	.quad	0
	.quad	.LC256
	.long	1
	.byte	5
	.zero	3
	.quad	256
	.quad	0
	.quad	.LC257
	.long	1
	.byte	4
	.zero	3
	.quad	1024
	.quad	0
	.quad	.LC258
	.long	1
	.byte	6
	.zero	3
	.quad	4096
	.quad	0
	.quad	.LC259
	.long	1
	.byte	12
	.zero	3
	.quad	4096
	.quad	0
	.quad	.LC260
	.long	1
	.byte	6
	.zero	3
	.quad	512
	.quad	0
	.quad	.LC261
	.long	1
	.byte	6
	.zero	3
	.quad	2048
	.quad	0
	.quad	.LC262
	.long	1
	.byte	5
	.zero	3
	.quad	8192
	.quad	0
	.quad	.LC263
	.long	1
	.byte	6
	.zero	3
	.quad	16384
	.quad	0
	.quad	.LC264
	.long	2
	.byte	5
	.zero	3
	.quad	1
	.quad	0
	.quad	.LC265
	.long	2
	.byte	6
	.zero	3
	.quad	2
	.quad	0
	.quad	.LC266
	.long	2
	.byte	6
	.zero	3
	.quad	8
	.quad	0
	.quad	.LC267
	.long	2
	.byte	5
	.zero	3
	.quad	4
	.quad	0
	.quad	.LC268
	.long	2
	.byte	6
	.zero	3
	.quad	16
	.quad	0
	.quad	.LC269
	.long	2
	.byte	6
	.zero	3
	.quad	32
	.quad	0
	.quad	.LC270
	.long	2
	.byte	6
	.zero	3
	.quad	64
	.quad	0
	.quad	.LC271
	.long	2
	.byte	6
	.zero	3
	.quad	128
	.quad	0
	.quad	.LC272
	.long	2
	.byte	2
	.zero	3
	.quad	256
	.quad	256
	.quad	.LC273
	.long	2
	.byte	1
	.zero	3
	.quad	0
	.quad	256
	.quad	.LC274
	.long	2
	.byte	2
	.zero	3
	.quad	1536
	.quad	1536
	.quad	.LC275
	.long	2
	.byte	2
	.zero	3
	.quad	1024
	.quad	1536
	.quad	.LC276
	.long	2
	.byte	2
	.zero	3
	.quad	512
	.quad	1536
	.quad	.LC277
	.long	2
	.byte	1
	.zero	3
	.quad	0
	.quad	1536
	.quad	.LC278
	.long	2
	.byte	2
	.zero	3
	.quad	6144
	.quad	6144
	.quad	.LC279
	.long	2
	.byte	2
	.zero	3
	.quad	4096
	.quad	6144
	.quad	.LC280
	.long	2
	.byte	2
	.zero	3
	.quad	2048
	.quad	6144
	.quad	.LC281
	.long	2
	.byte	1
	.zero	3
	.quad	0
	.quad	6144
	.quad	.LC282
	.long	2
	.byte	2
	.zero	3
	.quad	8192
	.quad	8192
	.quad	.LC283
	.long	2
	.byte	1
	.zero	3
	.quad	0
	.quad	8192
	.quad	.LC284
	.long	2
	.byte	2
	.zero	3
	.quad	16384
	.quad	16384
	.quad	.LC285
	.long	2
	.byte	1
	.zero	3
	.quad	0
	.quad	16384
	.quad	.LC286
	.long	2
	.byte	2
	.zero	3
	.quad	32768
	.quad	32768
	.quad	.LC287
	.long	2
	.byte	1
	.zero	3
	.quad	0
	.quad	32768
	.quad	.LC288
	.long	3
	.byte	5
	.zero	3
	.quad	1
	.quad	0
	.quad	.LC289
	.long	3
	.byte	5
	.zero	3
	.quad	2
	.quad	0
	.quad	.LC290
	.long	3
	.byte	5
	.zero	3
	.quad	32768
	.quad	0
	.quad	.LC291
	.long	3
	.byte	5
	.zero	3
	.quad	8
	.quad	0
	.quad	.LC292
	.long	3
	.byte	5
	.zero	3
	.quad	16
	.quad	0
	.quad	.LC293
	.long	3
	.byte	12
	.zero	3
	.quad	16
	.quad	0
	.quad	.LC294
	.long	3
	.byte	5
	.zero	3
	.quad	32
	.quad	0
	.quad	.LC295
	.long	3
	.byte	6
	.zero	3
	.quad	64
	.quad	0
	.quad	.LC296
	.long	3
	.byte	6
	.zero	3
	.quad	128
	.quad	0
	.quad	.LC297
	.long	3
	.byte	6
	.zero	3
	.quad	4
	.quad	0
	.quad	.LC298
	.long	3
	.byte	6
	.zero	3
	.quad	256
	.quad	0
	.quad	.LC299
	.long	3
	.byte	6
	.zero	3
	.quad	1024
	.quad	0
	.quad	.LC300
	.long	3
	.byte	12
	.zero	3
	.quad	1024
	.quad	0
	.quad	.LC301
	.long	3
	.byte	5
	.zero	3
	.quad	512
	.quad	0
	.quad	.LC302
	.long	3
	.byte	12
	.zero	3
	.quad	512
	.quad	0
	.quad	.LC303
	.long	3
	.byte	5
	.zero	3
	.quad	2048
	.quad	0
	.quad	.LC304
	.long	3
	.byte	12
	.zero	3
	.quad	2048
	.quad	0
	.quad	.LC305
	.long	3
	.byte	6
	.zero	3
	.quad	4096
	.quad	0
	.quad	.LC306
	.long	3
	.byte	6
	.zero	3
	.quad	65536
	.quad	0
	.quad	.LC162
	.long	4
	.byte	12
	.zero	3
	.quad	0
	.quad	0
	.quad	.LC163
	.long	4
	.byte	12
	.zero	3
	.quad	0
	.quad	0
	.quad	.LC164
	.long	4
	.byte	12
	.zero	3
	.quad	0
	.quad	0
	.quad	.LC131
	.long	4
	.byte	12
	.zero	3
	.quad	0
	.quad	0
	.quad	.LC132
	.long	4
	.byte	8
	.zero	3
	.quad	0
	.quad	0
	.quad	.LC133
	.long	4
	.byte	8
	.zero	3
	.quad	0
	.quad	0
	.quad	.LC140
	.long	4
	.byte	12
	.zero	3
	.quad	0
	.quad	0
	.quad	.LC139
	.long	4
	.byte	12
	.zero	3
	.quad	0
	.quad	0
	.quad	.LC137
	.long	4
	.byte	12
	.zero	3
	.quad	0
	.quad	0
	.quad	.LC138
	.long	4
	.byte	12
	.zero	3
	.quad	0
	.quad	0
	.quad	.LC136
	.long	4
	.byte	12
	.zero	3
	.quad	0
	.quad	0
	.quad	.LC141
	.long	4
	.byte	12
	.zero	3
	.quad	0
	.quad	0
	.quad	.LC142
	.long	4
	.byte	12
	.zero	3
	.quad	0
	.quad	0
	.quad	.LC143
	.long	4
	.byte	12
	.zero	3
	.quad	0
	.quad	0
	.quad	.LC144
	.long	4
	.byte	12
	.zero	3
	.quad	0
	.quad	0
	.quad	.LC145
	.long	4
	.byte	8
	.zero	3
	.quad	0
	.quad	0
	.quad	.LC146
	.long	4
	.byte	8
	.zero	3
	.quad	0
	.quad	0
	.quad	0
	.long	0
	.byte	0
	.zero	3
	.quad	0
	.quad	0
	.text
.Letext0:
	.section	.text.unlikely
.Letext_cold0:
	.file 6 "/usr/lib/gcc/x86_64-linux-gnu/9/include/stddef.h"
	.file 7 "/usr/lib/gcc/x86_64-linux-gnu/9/include/stdarg.h"
	.file 8 "<built-in>"
	.file 9 "/usr/include/x86_64-linux-gnu/bits/types.h"
	.file 10 "/usr/include/x86_64-linux-gnu/bits/types/struct_FILE.h"
	.file 11 "/usr/include/x86_64-linux-gnu/bits/types/FILE.h"
	.file 12 "/usr/include/stdio.h"
	.file 13 "/usr/include/x86_64-linux-gnu/bits/sys_errlist.h"
	.file 14 "/usr/include/x86_64-linux-gnu/bits/types/time_t.h"
	.file 15 "./lib/sys/select.h"
	.file 16 "/usr/include/x86_64-linux-gnu/bits/termios.h"
	.file 17 "/usr/include/x86_64-linux-gnu/bits/termios-struct.h"
	.file 18 "/usr/include/x86_64-linux-gnu/bits/ioctl-types.h"
	.file 19 "/usr/include/x86_64-linux-gnu/bits/getopt_core.h"
	.file 20 "/usr/include/x86_64-linux-gnu/bits/getopt_ext.h"
	.file 21 "/usr/include/time.h"
	.file 22 "/usr/include/signal.h"
	.file 23 "/usr/include/unistd.h"
	.file 24 "/usr/include/errno.h"
	.file 25 "src/version.h"
	.file 26 "./lib/exitfail.h"
	.file 27 "./lib/timespec.h"
	.file 28 "./lib/version-etc.h"
	.file 29 "./lib/progname.h"
	.file 30 "./lib/quotearg.h"
	.file 31 "./lib/error.h"
	.file 32 "./lib/quote.h"
	.file 33 "./lib/xstrtol.h"
	.file 34 "/usr/include/libintl.h"
	.file 35 "./lib/xdectoint.h"
	.file 36 "/usr/include/string.h"
	.file 37 "/usr/include/termios.h"
	.file 38 "/usr/include/stdlib.h"
	.file 39 "/usr/include/x86_64-linux-gnu/sys/ioctl.h"
	.file 40 "./lib/fd-reopen.h"
	.file 41 "./lib/fcntl.h"
	.file 42 "/usr/include/assert.h"
	.file 43 "/usr/include/locale.h"
	.file 44 "./lib/stdio.h"
	.file 45 "./lib/xalloc.h"
	.section	.note.GNU-stack,"",@progbits
	.section	.note.gnu.property,"a"
	.align 8
	.long	 1f - 0f
	.long	 4f - 1f
	.long	 5
0:
	.string	 "GNU"
1:
	.align 8
	.long	 0xc0000002
	.long	 3f - 2f
2:
	.long	 0x3
3:
	.align 8
4:
