	.file	"sum.c"
	.text
.Ltext0:
	.section	.rodata.str1.1,"aMS",@progbits,1
.LC0:
	.string	"%s"
.LC1:
	.string	"%d %s"
.LC2:
	.string	" %s"
	.text
	.p2align 4
	.type	sysv_sum_file, @function
sysv_sum_file:
.LVL0:
.LFB141:
	.file 1 "src/sum.c"
	.loc 1 153 1 view -0
	.cfi_startproc
	.loc 1 153 1 is_stmt 0 view .LVU1
	endbr64
	pushq	%r15
	.cfi_def_cfa_offset 16
	.cfi_offset 15, -16
	pushq	%r14
	.cfi_def_cfa_offset 24
	.cfi_offset 14, -24
	pushq	%r13
	.cfi_def_cfa_offset 32
	.cfi_offset 13, -32
	pushq	%r12
	.cfi_def_cfa_offset 40
	.cfi_offset 12, -40
	pushq	%rbp
	.cfi_def_cfa_offset 48
	.cfi_offset 6, -48
	pushq	%rbx
	.cfi_def_cfa_offset 56
	.cfi_offset 3, -56
	subq	$4096, %rsp
	.cfi_def_cfa_offset 4152
	orq	$0, (%rsp)
	subq	$4096, %rsp
	.cfi_def_cfa_offset 8248
	orq	$0, (%rsp)
	subq	$696, %rsp
	.cfi_def_cfa_offset 8944
	.loc 1 164 19 view .LVU2
	movzbl	(%rdi), %r14d
	.loc 1 153 1 view .LVU3
	movl	%esi, 12(%rsp)
	movq	%rdi, %r12
	movq	%fs:40, %rax
	movq	%rax, 8872(%rsp)
	xorl	%eax, %eax
	.loc 1 154 3 is_stmt 1 view .LVU4
	.loc 1 155 3 view .LVU5
	.loc 1 156 3 view .LVU6
.LVL1:
	.loc 1 157 3 view .LVU7
	.loc 1 158 3 view .LVU8
	.loc 1 159 3 view .LVU9
	.loc 1 162 3 view .LVU10
	.loc 1 164 3 view .LVU11
	.loc 1 164 19 is_stmt 0 view .LVU12
	subl	$45, %r14d
	je	.L29
.L3:
	.loc 1 174 7 is_stmt 1 view .LVU13
.LVL2:
.LBB68:
.LBI68:
	.file 2 "/usr/include/x86_64-linux-gnu/bits/fcntl2.h"
	.loc 2 41 1 view .LVU14
.LBB69:
	.loc 2 43 3 view .LVU15
	.loc 2 46 3 view .LVU16
	.loc 2 48 7 view .LVU17
	.loc 2 53 7 view .LVU18
	.loc 2 53 14 is_stmt 0 view .LVU19
	xorl	%esi, %esi
.LVL3:
	.loc 2 53 14 view .LVU20
	movq	%r12, %rdi
.LVL4:
	.loc 2 53 14 view .LVU21
	xorl	%eax, %eax
	call	open@PLT
.LVL5:
	.loc 2 53 14 view .LVU22
	movl	%eax, %r15d
.LVL6:
	.loc 2 53 14 view .LVU23
.LBE69:
.LBE68:
	.loc 1 175 7 is_stmt 1 view .LVU24
	.loc 1 175 10 is_stmt 0 view .LVU25
	cmpl	$-1, %eax
	je	.L27
.LVL7:
.L4:
	.loc 1 168 10 view .LVU26
	xorl	%ebx, %ebx
	xorl	%ebp, %ebp
	leaq	672(%rsp), %r13
.LVL8:
	.p2align 4,,10
	.p2align 3
.L9:
	.loc 1 182 3 is_stmt 1 view .LVU27
.LBB70:
	.loc 1 184 7 view .LVU28
	.loc 1 184 27 is_stmt 0 view .LVU29
	movl	$8192, %edx
	movq	%r13, %rsi
	movl	%r15d, %edi
	call	safe_read@PLT
.LVL9:
	.loc 1 186 7 is_stmt 1 view .LVU30
	.loc 1 186 10 is_stmt 0 view .LVU31
	testq	%rax, %rax
	je	.L6
	.loc 1 189 7 is_stmt 1 view .LVU32
	.loc 1 189 10 is_stmt 0 view .LVU33
	cmpq	$-1, %rax
	je	.L30
	movq	%r13, %rdx
	leaq	0(%r13,%rax), %rsi
	.p2align 4,,10
	.p2align 3
.L8:
.LVL10:
.LBB71:
	.loc 1 198 9 is_stmt 1 discriminator 3 view .LVU34
	.loc 1 198 17 is_stmt 0 discriminator 3 view .LVU35
	movzbl	(%rdx), %ecx
	addq	$1, %rdx
.LVL11:
	.loc 1 198 11 discriminator 3 view .LVU36
	addl	%ecx, %ebx
.LVL12:
	.loc 1 197 42 is_stmt 1 discriminator 3 view .LVU37
	.loc 1 197 26 discriminator 3 view .LVU38
	.loc 1 197 7 is_stmt 0 discriminator 3 view .LVU39
	cmpq	%rsi, %rdx
	jne	.L8
.LBE71:
	.loc 1 199 7 is_stmt 1 view .LVU40
	.loc 1 199 19 is_stmt 0 view .LVU41
	addq	%rax, %rbp
.LVL13:
	.loc 1 199 19 view .LVU42
.LBE70:
	.loc 1 182 9 is_stmt 1 view .LVU43
	.loc 1 183 5 is_stmt 0 view .LVU44
	jmp	.L9
.LVL14:
.L29:
	.loc 1 164 19 view .LVU45
	movzbl	1(%rdi), %r14d
.LVL15:
	.loc 1 166 3 is_stmt 1 view .LVU46
	.loc 1 166 6 is_stmt 0 view .LVU47
	testl	%r14d, %r14d
	jne	.L3
	.loc 1 168 7 is_stmt 1 view .LVU48
.LVL16:
	.loc 1 169 7 view .LVU49
	.loc 1 169 23 is_stmt 0 view .LVU50
	movb	$1, have_read_stdin(%rip)
	.loc 1 170 7 is_stmt 1 view .LVU51
.LVL17:
	.loc 1 168 10 is_stmt 0 view .LVU52
	xorl	%r15d, %r15d
	jmp	.L4
.LVL18:
.L6:
	.loc 1 202 3 is_stmt 1 view .LVU53
	.loc 1 202 6 is_stmt 0 view .LVU54
	testl	%r14d, %r14d
	je	.L10
	.loc 1 202 20 discriminator 1 view .LVU55
	movl	%r15d, %edi
	call	close@PLT
.LVL19:
	.loc 1 202 17 discriminator 1 view .LVU56
	testl	%eax, %eax
	jne	.L27
.L10:
	.loc 1 208 3 is_stmt 1 view .LVU57
	.loc 1 208 10 is_stmt 0 view .LVU58
	movzwl	%bx, %eax
	.loc 1 208 40 view .LVU59
	shrl	$16, %ebx
.LVL20:
	.loc 1 211 3 view .LVU60
	leaq	16(%rsp), %rsi
	movl	$1, %ecx
	.loc 1 208 20 view .LVU61
	addl	%eax, %ebx
.LVL21:
	.loc 1 209 3 is_stmt 1 view .LVU62
	.loc 1 211 3 is_stmt 0 view .LVU63
	movl	$512, %r8d
	xorl	%edx, %edx
	movq	%rbp, %rdi
	call	human_readable@PLT
.LVL22:
	.loc 1 209 17 view .LVU64
	movzwl	%bx, %r14d
	.loc 1 209 32 view .LVU65
	sarl	$16, %ebx
.LVL23:
.LBB72:
.LBB73:
	.file 3 "/usr/include/x86_64-linux-gnu/bits/stdio2.h"
	.loc 3 107 10 view .LVU66
	leaq	.LC1(%rip), %rsi
.LBE73:
.LBE72:
	.loc 1 209 12 view .LVU67
	addl	%ebx, %r14d
.LVL24:
	.loc 1 211 3 is_stmt 1 view .LVU68
	movq	%rax, %rcx
.LVL25:
.LBB75:
.LBI72:
	.loc 3 105 1 view .LVU69
.LBB74:
	.loc 3 107 3 view .LVU70
	.loc 3 107 10 is_stmt 0 view .LVU71
	movl	$1, %edi
	xorl	%eax, %eax
	movl	%r14d, %edx
	call	__printf_chk@PLT
.LVL26:
	.loc 3 107 10 view .LVU72
.LBE74:
.LBE75:
	.loc 1 213 3 is_stmt 1 view .LVU73
	.loc 1 213 6 is_stmt 0 view .LVU74
	movl	12(%rsp), %eax
	testl	%eax, %eax
	jne	.L31
.L11:
	.loc 1 215 3 is_stmt 1 view .LVU75
.LVL27:
.LBB76:
.LBI76:
	.file 4 "/usr/include/x86_64-linux-gnu/bits/stdio.h"
	.loc 4 108 1 view .LVU76
.LBB77:
	.loc 4 110 3 view .LVU77
	.loc 4 110 10 is_stmt 0 view .LVU78
	movq	stdout(%rip), %rdi
	movq	40(%rdi), %rax
	cmpq	48(%rdi), %rax
	jnb	.L32
	leaq	1(%rax), %rdx
.LBE77:
.LBE76:
	.loc 1 217 10 view .LVU79
	movl	$1, %r12d
.LVL28:
.LBB81:
.LBB78:
	.loc 4 110 10 view .LVU80
	movq	%rdx, 40(%rdi)
	movb	$10, (%rax)
.LVL29:
.L1:
	.loc 4 110 10 view .LVU81
.LBE78:
.LBE81:
	.loc 1 218 1 view .LVU82
	movq	8872(%rsp), %rax
	xorq	%fs:40, %rax
	jne	.L33
	addq	$8888, %rsp
	.cfi_remember_state
	.cfi_def_cfa_offset 56
	movl	%r12d, %eax
	popq	%rbx
	.cfi_def_cfa_offset 48
	popq	%rbp
	.cfi_def_cfa_offset 40
	popq	%r12
	.cfi_def_cfa_offset 32
	popq	%r13
	.cfi_def_cfa_offset 24
	popq	%r14
	.cfi_def_cfa_offset 16
	popq	%r15
	.cfi_def_cfa_offset 8
.LVL30:
	.loc 1 218 1 view .LVU83
	ret
.LVL31:
.L30:
	.cfi_restore_state
.LBB82:
	.loc 1 191 11 is_stmt 1 view .LVU84
	movq	%r12, %rdx
	movl	$3, %esi
	xorl	%edi, %edi
	call	quotearg_n_style_colon@PLT
.LVL32:
	.loc 1 191 11 is_stmt 0 view .LVU85
	movq	%rax, %r12
.LVL33:
	.loc 1 191 21 view .LVU86
	call	__errno_location@PLT
.LVL34:
	.loc 1 191 11 view .LVU87
	movq	%r12, %rcx
	leaq	.LC0(%rip), %rdx
	xorl	%edi, %edi
	movl	(%rax), %esi
	xorl	%eax, %eax
	.loc 1 194 18 view .LVU88
	xorl	%r12d, %r12d
	.loc 1 191 11 view .LVU89
	call	error@PLT
.LVL35:
	.loc 1 192 11 is_stmt 1 view .LVU90
	.loc 1 192 14 is_stmt 0 view .LVU91
	testl	%r14d, %r14d
	je	.L1
	.loc 1 193 13 is_stmt 1 view .LVU92
	movl	%r15d, %edi
	call	close@PLT
.LVL36:
	jmp	.L1
.LVL37:
.L27:
	.loc 1 193 13 is_stmt 0 view .LVU93
.LBE82:
	.loc 1 204 7 is_stmt 1 view .LVU94
	movq	%r12, %rdx
	movl	$3, %esi
	xorl	%edi, %edi
	call	quotearg_n_style_colon@PLT
.LVL38:
	movq	%rax, %r12
.LVL39:
	.loc 1 204 17 is_stmt 0 view .LVU95
	call	__errno_location@PLT
.LVL40:
	.loc 1 204 7 view .LVU96
	movq	%r12, %rcx
	leaq	.LC0(%rip), %rdx
	xorl	%edi, %edi
	movl	(%rax), %esi
	xorl	%eax, %eax
	.loc 1 205 14 view .LVU97
	xorl	%r12d, %r12d
	.loc 1 204 7 view .LVU98
	call	error@PLT
.LVL41:
	.loc 1 205 7 is_stmt 1 view .LVU99
	.loc 1 205 14 is_stmt 0 view .LVU100
	jmp	.L1
.LVL42:
.L31:
	.loc 1 214 5 is_stmt 1 view .LVU101
.LBB83:
.LBI83:
	.loc 3 105 1 view .LVU102
.LBB84:
	.loc 3 107 3 view .LVU103
	.loc 3 107 10 is_stmt 0 view .LVU104
	movq	%r12, %rdx
	leaq	.LC2(%rip), %rsi
	movl	$1, %edi
	xorl	%eax, %eax
	call	__printf_chk@PLT
.LVL43:
	jmp	.L11
.LVL44:
.L32:
	.loc 3 107 10 view .LVU105
.LBE84:
.LBE83:
.LBB85:
.LBB79:
	.loc 4 110 10 view .LVU106
	movl	$10, %esi
.LBE79:
.LBE85:
	.loc 1 217 10 view .LVU107
	movl	$1, %r12d
.LVL45:
.LBB86:
.LBB80:
	.loc 4 110 10 view .LVU108
	call	__overflow@PLT
.LVL46:
	jmp	.L1
.LVL47:
.L33:
	.loc 4 110 10 view .LVU109
.LBE80:
.LBE86:
	.loc 1 218 1 view .LVU110
	call	__stack_chk_fail@PLT
.LVL48:
	.cfi_endproc
.LFE141:
	.size	sysv_sum_file, .-sysv_sum_file
	.section	.rodata.str1.1
.LC3:
	.string	"r"
.LC4:
	.string	"%05d %5s"
	.text
	.p2align 4
	.type	bsd_sum_file, @function
bsd_sum_file:
.LVL49:
.LFB140:
	.loc 1 89 1 is_stmt 1 view -0
	.cfi_startproc
	.loc 1 89 1 is_stmt 0 view .LVU112
	endbr64
	pushq	%r15
	.cfi_def_cfa_offset 16
	.cfi_offset 15, -16
	pushq	%r14
	.cfi_def_cfa_offset 24
	.cfi_offset 14, -24
	pushq	%r13
	.cfi_def_cfa_offset 32
	.cfi_offset 13, -32
	movq	%rdi, %r13
	pushq	%r12
	.cfi_def_cfa_offset 40
	.cfi_offset 12, -40
	pushq	%rbp
	.cfi_def_cfa_offset 48
	.cfi_offset 6, -48
	movl	%esi, %ebp
	pushq	%rbx
	.cfi_def_cfa_offset 56
	.cfi_offset 3, -56
	subq	$680, %rsp
	.cfi_def_cfa_offset 736
	.loc 1 95 19 view .LVU113
	movzbl	(%rdi), %ebx
	.loc 1 89 1 view .LVU114
	movq	%fs:40, %rax
	movq	%rax, 664(%rsp)
	xorl	%eax, %eax
	.loc 1 90 3 is_stmt 1 view .LVU115
	.loc 1 91 3 view .LVU116
.LVL50:
	.loc 1 92 3 view .LVU117
	.loc 1 93 3 view .LVU118
	.loc 1 94 3 view .LVU119
	.loc 1 95 3 view .LVU120
	.loc 1 95 19 is_stmt 0 view .LVU121
	subl	$45, %ebx
	je	.L60
.L36:
	.loc 1 105 7 is_stmt 1 view .LVU122
	.loc 1 105 12 is_stmt 0 view .LVU123
	leaq	.LC3(%rip), %rsi
.LVL51:
	.loc 1 105 12 view .LVU124
	movq	%r13, %rdi
.LVL52:
	.loc 1 105 12 view .LVU125
	call	fopen@PLT
.LVL53:
	movq	%rax, %r15
.LVL54:
	.loc 1 106 7 is_stmt 1 view .LVU126
	.loc 1 106 10 is_stmt 0 view .LVU127
	testq	%rax, %rax
	je	.L59
.LVL55:
.L37:
	.loc 1 113 3 is_stmt 1 view .LVU128
	movl	$2, %esi
	movq	%r15, %rdi
	.loc 1 92 13 is_stmt 0 view .LVU129
	xorl	%r14d, %r14d
	.loc 1 91 7 view .LVU130
	xorl	%r12d, %r12d
	.loc 1 113 3 view .LVU131
	call	fadvise@PLT
.LVL56:
	.loc 1 115 3 is_stmt 1 view .LVU132
	movq	16(%r15), %rsi
	movq	8(%r15), %rax
	.loc 1 115 9 is_stmt 0 view .LVU133
	jmp	.L39
.LVL57:
	.p2align 4,,10
	.p2align 3
.L40:
.LBB87:
.LBB88:
	.loc 4 68 10 view .LVU134
	leaq	1(%rax), %rcx
	movq	%rcx, 8(%r15)
	movzbl	(%rax), %eax
.LVL58:
.L43:
	.loc 4 68 10 view .LVU135
.LBE88:
.LBE87:
	.loc 1 117 7 is_stmt 1 view .LVU136
	.loc 1 118 28 is_stmt 0 view .LVU137
	movl	%r12d, %edx
	.loc 1 118 52 view .LVU138
	sall	$15, %r12d
.LVL59:
	.loc 1 117 18 view .LVU139
	addq	$1, %r14
.LVL60:
	.loc 1 118 7 is_stmt 1 view .LVU140
	.loc 1 118 28 is_stmt 0 view .LVU141
	sarl	%edx
.LVL61:
	.loc 1 118 52 view .LVU142
	movzwl	%r12w, %r12d
	.loc 1 118 16 view .LVU143
	addl	%edx, %r12d
.LVL62:
	.loc 1 119 7 is_stmt 1 view .LVU144
	.loc 1 119 16 is_stmt 0 view .LVU145
	addl	%eax, %r12d
.LVL63:
	.loc 1 120 7 is_stmt 1 view .LVU146
	.loc 1 120 16 is_stmt 0 view .LVU147
	movq	%rcx, %rax
.LVL64:
	.loc 1 120 16 view .LVU148
	movzwl	%r12w, %r12d
.LVL65:
.L39:
	.loc 1 115 9 is_stmt 1 view .LVU149
.LBB90:
.LBI87:
	.loc 4 66 1 view .LVU150
.LBB89:
	.loc 4 68 3 view .LVU151
	.loc 4 68 10 is_stmt 0 view .LVU152
	cmpq	%rax, %rsi
	ja	.L40
	movq	%r15, %rdi
	call	__uflow@PLT
.LVL66:
	.loc 4 68 10 view .LVU153
.LBE89:
.LBE90:
	.loc 1 115 9 view .LVU154
	cmpl	$-1, %eax
	jne	.L61
	.loc 1 123 3 is_stmt 1 view .LVU155
.LVL67:
.LBB91:
.LBI91:
	.loc 4 135 1 view .LVU156
.LBB92:
	.loc 4 137 3 view .LVU157
	.loc 4 137 3 is_stmt 0 view .LVU158
.LBE92:
.LBE91:
	.loc 1 123 6 view .LVU159
	testb	$32, (%r15)
	jne	.L62
	.loc 1 131 3 is_stmt 1 view .LVU160
	.loc 1 131 6 is_stmt 0 view .LVU161
	testl	%ebx, %ebx
	je	.L45
	.loc 1 131 20 discriminator 1 view .LVU162
	movq	%r15, %rdi
	call	rpl_fclose@PLT
.LVL68:
	.loc 1 131 17 discriminator 1 view .LVU163
	testl	%eax, %eax
	jne	.L59
.L45:
	.loc 1 137 3 is_stmt 1 view .LVU164
	xorl	%edx, %edx
	movq	%rsp, %rsi
	movl	$1, %ecx
	movq	%r14, %rdi
	movl	$1024, %r8d
	call	human_readable@PLT
.LVL69:
.LBB93:
.LBB94:
	.loc 3 107 10 is_stmt 0 view .LVU165
	movl	%r12d, %edx
	movl	$1, %edi
	leaq	.LC4(%rip), %rsi
.LBE94:
.LBE93:
	.loc 1 137 3 view .LVU166
	movq	%rax, %rcx
.LVL70:
.LBB96:
.LBI93:
	.loc 3 105 1 is_stmt 1 view .LVU167
.LBB95:
	.loc 3 107 3 view .LVU168
	.loc 3 107 10 is_stmt 0 view .LVU169
	xorl	%eax, %eax
	call	__printf_chk@PLT
.LVL71:
	.loc 3 107 10 view .LVU170
.LBE95:
.LBE96:
	.loc 1 139 3 is_stmt 1 view .LVU171
	.loc 1 139 6 is_stmt 0 view .LVU172
	cmpl	$1, %ebp
	jg	.L63
.L46:
	.loc 1 141 3 is_stmt 1 view .LVU173
.LVL72:
.LBB97:
.LBI97:
	.loc 4 108 1 view .LVU174
.LBB98:
	.loc 4 110 3 view .LVU175
	.loc 4 110 10 is_stmt 0 view .LVU176
	movq	stdout(%rip), %rdi
	movq	40(%rdi), %rax
	cmpq	48(%rdi), %rax
	jnb	.L64
	leaq	1(%rax), %rdx
.LBE98:
.LBE97:
	.loc 1 143 10 view .LVU177
	movl	$1, %r12d
.LVL73:
.LBB102:
.LBB99:
	.loc 4 110 10 view .LVU178
	movq	%rdx, 40(%rdi)
	movb	$10, (%rax)
.LVL74:
.L34:
	.loc 4 110 10 view .LVU179
.LBE99:
.LBE102:
	.loc 1 144 1 view .LVU180
	movq	664(%rsp), %rax
	xorq	%fs:40, %rax
	jne	.L65
	addq	$680, %rsp
	.cfi_remember_state
	.cfi_def_cfa_offset 56
	movl	%r12d, %eax
	popq	%rbx
	.cfi_def_cfa_offset 48
	popq	%rbp
	.cfi_def_cfa_offset 40
.LVL75:
	.loc 1 144 1 view .LVU181
	popq	%r12
	.cfi_def_cfa_offset 32
	popq	%r13
	.cfi_def_cfa_offset 24
.LVL76:
	.loc 1 144 1 view .LVU182
	popq	%r14
	.cfi_def_cfa_offset 16
	popq	%r15
	.cfi_def_cfa_offset 8
.LVL77:
	.loc 1 144 1 view .LVU183
	ret
.LVL78:
	.p2align 4,,10
	.p2align 3
.L60:
	.cfi_restore_state
	.loc 1 95 19 view .LVU184
	movzbl	1(%rdi), %ebx
.LVL79:
	.loc 1 97 3 is_stmt 1 view .LVU185
	.loc 1 97 6 is_stmt 0 view .LVU186
	testl	%ebx, %ebx
	jne	.L36
	.loc 1 99 7 is_stmt 1 view .LVU187
	.loc 1 100 23 is_stmt 0 view .LVU188
	movb	$1, have_read_stdin(%rip)
	.loc 1 99 10 view .LVU189
	movq	stdin(%rip), %r15
.LVL80:
	.loc 1 100 7 is_stmt 1 view .LVU190
	.loc 1 101 7 view .LVU191
	.loc 1 101 7 is_stmt 0 view .LVU192
	jmp	.L37
.LVL81:
	.p2align 4,,10
	.p2align 3
.L63:
	.loc 1 140 5 is_stmt 1 view .LVU193
.LBB103:
.LBI103:
	.loc 3 105 1 view .LVU194
.LBB104:
	.loc 3 107 3 view .LVU195
	.loc 3 107 10 is_stmt 0 view .LVU196
	movq	%r13, %rdx
	leaq	.LC2(%rip), %rsi
	movl	$1, %edi
	xorl	%eax, %eax
	call	__printf_chk@PLT
.LVL82:
	jmp	.L46
.LVL83:
	.p2align 4,,10
	.p2align 3
.L59:
	.loc 3 107 10 view .LVU197
.LBE104:
.LBE103:
	.loc 1 133 7 is_stmt 1 view .LVU198
	movq	%r13, %rdx
	movl	$3, %esi
	xorl	%edi, %edi
	call	quotearg_n_style_colon@PLT
.LVL84:
	movq	%rax, %r12
	.loc 1 133 17 is_stmt 0 view .LVU199
	call	__errno_location@PLT
.LVL85:
	.loc 1 133 7 view .LVU200
	movq	%r12, %rcx
	leaq	.LC0(%rip), %rdx
	xorl	%edi, %edi
	movl	(%rax), %esi
	xorl	%eax, %eax
	.loc 1 134 14 view .LVU201
	xorl	%r12d, %r12d
	.loc 1 133 7 view .LVU202
	call	error@PLT
.LVL86:
	.loc 1 134 7 is_stmt 1 view .LVU203
	.loc 1 134 14 is_stmt 0 view .LVU204
	jmp	.L34
.LVL87:
	.p2align 4,,10
	.p2align 3
.L62:
	.loc 1 125 7 is_stmt 1 view .LVU205
	movq	%r13, %rdx
	movl	$3, %esi
	xorl	%edi, %edi
	call	quotearg_n_style_colon@PLT
.LVL88:
	.loc 1 125 7 is_stmt 0 view .LVU206
	movq	%rax, %r12
.LVL89:
	.loc 1 125 17 view .LVU207
	call	__errno_location@PLT
.LVL90:
	.loc 1 125 7 view .LVU208
	movq	%r12, %rcx
	leaq	.LC0(%rip), %rdx
	xorl	%edi, %edi
	movl	(%rax), %esi
	xorl	%eax, %eax
	.loc 1 128 14 view .LVU209
	xorl	%r12d, %r12d
	.loc 1 125 7 view .LVU210
	call	error@PLT
.LVL91:
	.loc 1 126 7 is_stmt 1 view .LVU211
	.loc 1 126 10 is_stmt 0 view .LVU212
	testl	%ebx, %ebx
	je	.L34
	.loc 1 127 9 is_stmt 1 view .LVU213
	movq	%r15, %rdi
	call	rpl_fclose@PLT
.LVL92:
	jmp	.L34
.LVL93:
.L64:
.LBB105:
.LBB100:
	.loc 4 110 10 is_stmt 0 view .LVU214
	movl	$10, %esi
.LBE100:
.LBE105:
	.loc 1 143 10 view .LVU215
	movl	$1, %r12d
.LVL94:
.LBB106:
.LBB101:
	.loc 4 110 10 view .LVU216
	call	__overflow@PLT
.LVL95:
	jmp	.L34
.LVL96:
.L65:
	.loc 4 110 10 view .LVU217
.LBE101:
.LBE106:
	.loc 1 144 1 view .LVU218
	call	__stack_chk_fail@PLT
.LVL97:
.L61:
	.loc 1 144 1 view .LVU219
	movq	16(%r15), %rsi
	movq	8(%r15), %rcx
	jmp	.L43
	.cfi_endproc
.LFE140:
	.size	bsd_sum_file, .-bsd_sum_file
	.section	.rodata.str1.1
.LC5:
	.string	"sum"
.LC6:
	.string	" invocation"
.LC7:
	.string	""
	.section	.rodata.str1.8,"aMS",@progbits,1
	.align 8
.LC8:
	.string	"Try '%s --help' for more information.\n"
	.align 8
.LC9:
	.string	"Usage: %s [OPTION]... [FILE]...\n"
	.align 8
.LC10:
	.string	"Print checksum and block counts for each FILE.\n"
	.align 8
.LC11:
	.string	"\nWith no FILE, or when FILE is -, read standard input.\n"
	.align 8
.LC12:
	.string	"\n  -r              use BSD sum algorithm, use 1K blocks\n  -s, --sysv      use System V sum algorithm, use 512 bytes blocks\n"
	.align 8
.LC13:
	.string	"      --help     display this help and exit\n"
	.align 8
.LC14:
	.string	"      --version  output version information and exit\n"
	.section	.rodata.str1.1
.LC15:
	.string	"["
.LC16:
	.string	"test invocation"
.LC17:
	.string	"coreutils"
.LC18:
	.string	"Multi-call invocation"
.LC19:
	.string	"sha224sum"
.LC20:
	.string	"sha2 utilities"
.LC21:
	.string	"sha256sum"
.LC22:
	.string	"sha384sum"
.LC23:
	.string	"sha512sum"
.LC24:
	.string	"\n%s online help: <%s>\n"
	.section	.rodata.str1.8
	.align 8
.LC25:
	.string	"https://www.gnu.org/software/coreutils/"
	.section	.rodata.str1.1
.LC26:
	.string	"GNU coreutils"
.LC27:
	.string	"en_"
	.section	.rodata.str1.8
	.align 8
.LC28:
	.string	"Report any translation bugs to <https://translationproject.org/team/>\n"
	.section	.rodata.str1.1
.LC29:
	.string	"Full documentation <%s%s>\n"
	.section	.rodata.str1.8
	.align 8
.LC30:
	.string	"or available locally via: info '(coreutils) %s%s'\n"
	.text
	.p2align 4
	.globl	usage
	.type	usage, @function
usage:
.LVL98:
.LFB139:
	.loc 1 54 1 is_stmt 1 view -0
	.cfi_startproc
	.loc 1 54 1 is_stmt 0 view .LVU221
	endbr64
	pushq	%r13
	.cfi_def_cfa_offset 16
	.cfi_offset 13, -16
	.loc 1 56 5 view .LVU222
	movl	$5, %edx
	.loc 1 54 1 view .LVU223
	pushq	%r12
	.cfi_def_cfa_offset 24
	.cfi_offset 12, -24
	pushq	%rbp
	.cfi_def_cfa_offset 32
	.cfi_offset 6, -32
	movl	%edi, %ebp
	pushq	%rbx
	.cfi_def_cfa_offset 40
	.cfi_offset 3, -40
	subq	$136, %rsp
	.cfi_def_cfa_offset 176
	movq	program_name(%rip), %r12
	.loc 1 54 1 view .LVU224
	movq	%fs:40, %rax
	movq	%rax, 120(%rsp)
	xorl	%eax, %eax
	.loc 1 55 3 is_stmt 1 view .LVU225
	.loc 1 55 6 is_stmt 0 view .LVU226
	testl	%edi, %edi
	je	.L67
	.loc 1 56 5 is_stmt 1 view .LVU227
	.loc 1 56 5 view .LVU228
	leaq	.LC8(%rip), %rsi
	xorl	%edi, %edi
.LVL99:
	.loc 1 56 5 is_stmt 0 view .LVU229
	call	dcgettext@PLT
.LVL100:
.LBB121:
.LBB122:
	.loc 3 100 10 view .LVU230
	movq	stderr(%rip), %rdi
	movq	%r12, %rcx
	movl	$1, %esi
.LBE122:
.LBE121:
	.loc 1 56 5 view .LVU231
	movq	%rax, %rdx
.LVL101:
.LBB124:
.LBI121:
	.loc 3 98 1 is_stmt 1 view .LVU232
.LBB123:
	.loc 3 100 3 view .LVU233
	.loc 3 100 10 is_stmt 0 view .LVU234
	xorl	%eax, %eax
.LVL102:
	.loc 3 100 10 view .LVU235
	call	__fprintf_chk@PLT
.LVL103:
.L68:
	.loc 3 100 10 view .LVU236
.LBE123:
.LBE124:
	.loc 1 78 3 is_stmt 1 view .LVU237
	movl	%ebp, %edi
	call	exit@PLT
.LVL104:
.L67:
	.loc 1 59 7 view .LVU238
	.loc 1 59 15 is_stmt 0 view .LVU239
	leaq	.LC9(%rip), %rsi
	xorl	%edi, %edi
.LVL105:
.LBB125:
.LBB126:
	.file 5 "src/system.h"
	.loc 5 636 67 view .LVU240
	leaq	.LC21(%rip), %rbx
.LBE126:
.LBE125:
	.loc 1 59 15 view .LVU241
	call	dcgettext@PLT
.LVL106:
.LBB152:
.LBB153:
	.loc 3 107 10 view .LVU242
	movq	%r12, %rdx
	movl	$1, %edi
.LBE153:
.LBE152:
	.loc 1 59 15 view .LVU243
	movq	%rax, %rsi
.LVL107:
.LBB155:
.LBI152:
	.loc 3 105 1 is_stmt 1 view .LVU244
.LBB154:
	.loc 3 107 3 view .LVU245
	.loc 3 107 10 is_stmt 0 view .LVU246
	xorl	%eax, %eax
.LVL108:
	.loc 3 107 10 view .LVU247
	call	__printf_chk@PLT
.LVL109:
	.loc 3 107 10 view .LVU248
.LBE154:
.LBE155:
	.loc 1 63 7 is_stmt 1 view .LVU249
	movq	stdout(%rip), %r12
	movl	$5, %edx
	xorl	%edi, %edi
	leaq	.LC10(%rip), %rsi
	call	dcgettext@PLT
.LVL110:
	movq	%r12, %rsi
	movq	%rax, %rdi
	call	fputs_unlocked@PLT
.LVL111:
	.loc 1 67 7 view .LVU250
.LBB156:
.LBI156:
	.loc 5 581 1 view .LVU251
.LBB157:
	.loc 5 583 3 view .LVU252
	movq	stdout(%rip), %r12
	movl	$5, %edx
	xorl	%edi, %edi
	leaq	.LC11(%rip), %rsi
	call	dcgettext@PLT
.LVL112:
	movq	%r12, %rsi
	movq	%rax, %rdi
	call	fputs_unlocked@PLT
.LVL113:
.LBE157:
.LBE156:
	.loc 1 69 7 view .LVU253
	movq	stdout(%rip), %r12
	movl	$5, %edx
	xorl	%edi, %edi
	leaq	.LC12(%rip), %rsi
	call	dcgettext@PLT
.LVL114:
	movq	%r12, %rsi
	movq	%rax, %rdi
	call	fputs_unlocked@PLT
.LVL115:
	.loc 1 74 7 view .LVU254
	movq	stdout(%rip), %r12
	movl	$5, %edx
	xorl	%edi, %edi
	leaq	.LC13(%rip), %rsi
	call	dcgettext@PLT
.LVL116:
	movq	%r12, %rsi
	movq	%rax, %rdi
	call	fputs_unlocked@PLT
.LVL117:
	.loc 1 75 7 view .LVU255
	movq	stdout(%rip), %r12
	movl	$5, %edx
	xorl	%edi, %edi
	leaq	.LC14(%rip), %rsi
	call	dcgettext@PLT
.LVL118:
	movq	%r12, %rsi
	movq	%rax, %rdi
	call	fputs_unlocked@PLT
.LVL119:
	.loc 1 76 7 view .LVU256
.LBB158:
.LBI125:
	.loc 5 634 1 view .LVU257
.LBB151:
	.loc 5 636 3 view .LVU258
	.loc 5 636 67 is_stmt 0 view .LVU259
	leaq	.LC15(%rip), %rax
	movq	%rbx, 48(%rsp)
	leaq	.LC22(%rip), %rbx
	movq	%rax, (%rsp)
	leaq	.LC16(%rip), %rax
	movq	%rax, 8(%rsp)
	leaq	.LC17(%rip), %rax
	movq	%rax, 16(%rsp)
	leaq	.LC18(%rip), %rax
	movq	%rax, 24(%rsp)
	leaq	.LC19(%rip), %rax
	movq	$0, 96(%rsp)
	movq	$0, 104(%rsp)
	.loc 5 646 3 is_stmt 1 view .LVU260
.LVL120:
	.loc 5 647 3 view .LVU261
	.loc 5 649 3 view .LVU262
	.loc 5 649 9 view .LVU263
	.loc 5 636 67 is_stmt 0 view .LVU264
	movq	%rax, 32(%rsp)
	leaq	.LC20(%rip), %rax
	movq	%rbx, 64(%rsp)
	leaq	.LC23(%rip), %rbx
	movq	%rax, 40(%rsp)
	movq	%rax, 56(%rsp)
	movq	%rax, 72(%rsp)
	movq	%rbx, 80(%rsp)
	leaq	.LC5(%rip), %rbx
	movq	%rax, 88(%rsp)
	.loc 5 647 25 view .LVU265
	movq	%rsp, %rax
.LVL121:
	.p2align 4,,10
	.p2align 3
.L70:
	.loc 5 650 5 is_stmt 1 view .LVU266
	.loc 5 649 18 is_stmt 0 view .LVU267
	movq	16(%rax), %rdi
	.loc 5 650 13 view .LVU268
	addq	$16, %rax
.LVL122:
	.loc 5 649 9 is_stmt 1 view .LVU269
	testq	%rdi, %rdi
	je	.L69
	.loc 5 649 33 is_stmt 0 view .LVU270
	movl	$4, %ecx
	movq	%rbx, %rsi
	repz cmpsb
	seta	%dl
	sbbb	$0, %dl
	.loc 5 649 28 view .LVU271
	testb	%dl, %dl
	jne	.L70
.L69:
	.loc 5 652 3 is_stmt 1 view .LVU272
	.loc 5 652 15 is_stmt 0 view .LVU273
	movq	8(%rax), %r12
	.loc 5 655 11 view .LVU274
	movl	$5, %edx
	leaq	.LC24(%rip), %rsi
	xorl	%edi, %edi
	.loc 5 652 6 view .LVU275
	testq	%r12, %r12
	je	.L71
	.loc 5 653 5 is_stmt 1 view .LVU276
.LVL123:
	.loc 5 655 3 view .LVU277
	.loc 5 655 11 is_stmt 0 view .LVU278
	call	dcgettext@PLT
.LVL124:
.LBB127:
.LBB128:
	.loc 3 107 10 view .LVU279
	leaq	.LC25(%rip), %rcx
	movl	$1, %edi
	leaq	.LC26(%rip), %rdx
.LBE128:
.LBE127:
	.loc 5 655 11 view .LVU280
	movq	%rax, %rsi
.LVL125:
.LBB132:
.LBI127:
	.loc 3 105 1 is_stmt 1 view .LVU281
.LBB129:
	.loc 3 107 3 view .LVU282
	.loc 3 107 10 is_stmt 0 view .LVU283
	xorl	%eax, %eax
.LVL126:
	.loc 3 107 10 view .LVU284
	call	__printf_chk@PLT
.LVL127:
	.loc 3 107 10 view .LVU285
.LBE129:
.LBE132:
	.loc 5 659 3 is_stmt 1 view .LVU286
	.loc 5 659 29 is_stmt 0 view .LVU287
	movl	$5, %edi
	xorl	%esi, %esi
	call	setlocale@PLT
.LVL128:
	movq	%rax, %rdi
.LVL129:
	.loc 5 660 3 is_stmt 1 view .LVU288
	.loc 5 660 6 is_stmt 0 view .LVU289
	testq	%rax, %rax
	je	.L72
	.loc 5 660 22 view .LVU290
	movl	$3, %edx
	leaq	.LC27(%rip), %rsi
	call	strncmp@PLT
.LVL130:
	.loc 5 660 19 view .LVU291
	testl	%eax, %eax
	jne	.L75
.LVL131:
.L72:
	.loc 5 669 3 is_stmt 1 view .LVU292
	.loc 5 669 11 is_stmt 0 view .LVU293
	xorl	%edi, %edi
	movl	$5, %edx
	leaq	.LC29(%rip), %rsi
	call	dcgettext@PLT
.LVL132:
.LBB133:
.LBB134:
	.loc 3 107 10 view .LVU294
	leaq	.LC5(%rip), %rcx
	leaq	.LC25(%rip), %rdx
	movl	$1, %edi
.LBE134:
.LBE133:
	.loc 5 669 11 view .LVU295
	movq	%rax, %rsi
.LVL133:
.LBB140:
.LBI133:
	.loc 3 105 1 is_stmt 1 view .LVU296
.LBB135:
	.loc 3 107 3 view .LVU297
	.loc 3 107 10 is_stmt 0 view .LVU298
	xorl	%eax, %eax
.LVL134:
	.loc 3 107 10 view .LVU299
.LBE135:
.LBE140:
	.loc 5 671 3 view .LVU300
	leaq	.LC6(%rip), %r13
.LBB141:
.LBB136:
	.loc 3 107 10 view .LVU301
	call	__printf_chk@PLT
.LVL135:
	.loc 3 107 10 view .LVU302
.LBE136:
.LBE141:
	.loc 5 671 3 is_stmt 1 view .LVU303
	cmpq	%rbx, %r12
	leaq	.LC7(%rip), %rcx
	cmovne	%rcx, %r13
.L73:
	.loc 5 671 11 is_stmt 0 view .LVU304
	xorl	%edi, %edi
	leaq	.LC30(%rip), %rsi
	movl	$5, %edx
	call	dcgettext@PLT
.LVL136:
.LBB142:
.LBB143:
	.loc 3 107 10 view .LVU305
	movq	%r13, %rcx
	movq	%r12, %rdx
	movl	$1, %edi
.LBE143:
.LBE142:
	.loc 5 671 11 view .LVU306
	movq	%rax, %rsi
.LVL137:
.LBB145:
.LBI142:
	.loc 3 105 1 is_stmt 1 view .LVU307
.LBB144:
	.loc 3 107 3 view .LVU308
	.loc 3 107 10 is_stmt 0 view .LVU309
	xorl	%eax, %eax
.LVL138:
	.loc 3 107 10 view .LVU310
	call	__printf_chk@PLT
.LVL139:
	.loc 3 107 10 view .LVU311
.LBE144:
.LBE145:
	.loc 5 673 1 view .LVU312
	jmp	.L68
.LVL140:
.L71:
	.loc 5 655 3 is_stmt 1 view .LVU313
	.loc 5 655 11 is_stmt 0 view .LVU314
	call	dcgettext@PLT
.LVL141:
.LBB146:
.LBB130:
	.loc 3 107 10 view .LVU315
	leaq	.LC25(%rip), %rcx
	movl	$1, %edi
	leaq	.LC26(%rip), %rdx
.LBE130:
.LBE146:
	.loc 5 655 11 view .LVU316
	movq	%rax, %rsi
.LVL142:
.LBB147:
	.loc 3 105 1 is_stmt 1 view .LVU317
.LBB131:
	.loc 3 107 3 view .LVU318
	.loc 3 107 10 is_stmt 0 view .LVU319
	xorl	%eax, %eax
.LVL143:
	.loc 3 107 10 view .LVU320
	call	__printf_chk@PLT
.LVL144:
	.loc 3 107 10 view .LVU321
.LBE131:
.LBE147:
	.loc 5 659 3 is_stmt 1 view .LVU322
	.loc 5 659 29 is_stmt 0 view .LVU323
	movl	$5, %edi
	xorl	%esi, %esi
	call	setlocale@PLT
.LVL145:
	movq	%rax, %rdi
.LVL146:
	.loc 5 660 3 is_stmt 1 view .LVU324
	.loc 5 660 6 is_stmt 0 view .LVU325
	testq	%rax, %rax
	je	.L74
	.loc 5 660 22 view .LVU326
	movl	$3, %edx
	leaq	.LC27(%rip), %rsi
	call	strncmp@PLT
.LVL147:
	.loc 5 660 19 view .LVU327
	testl	%eax, %eax
	jne	.L93
.L74:
	.loc 5 669 3 is_stmt 1 view .LVU328
	.loc 5 669 11 is_stmt 0 view .LVU329
	movl	$5, %edx
	leaq	.LC29(%rip), %rsi
	xorl	%edi, %edi
	call	dcgettext@PLT
.LVL148:
.LBB148:
.LBB137:
	.loc 3 107 10 view .LVU330
	leaq	.LC5(%rip), %rcx
	leaq	.LC25(%rip), %rdx
	movl	$1, %edi
.LBE137:
.LBE148:
	.loc 5 669 11 view .LVU331
	movq	%rax, %rsi
.LVL149:
.LBB149:
	.loc 3 105 1 is_stmt 1 view .LVU332
.LBB138:
	.loc 3 107 3 view .LVU333
	.loc 3 107 10 is_stmt 0 view .LVU334
	xorl	%eax, %eax
.LVL150:
	.loc 3 107 10 view .LVU335
.LBE138:
.LBE149:
	.loc 5 646 15 view .LVU336
	leaq	.LC5(%rip), %r12
.LBB150:
.LBB139:
	.loc 3 107 10 view .LVU337
	call	__printf_chk@PLT
.LVL151:
	.loc 3 107 10 view .LVU338
.LBE139:
.LBE150:
	.loc 5 671 3 is_stmt 1 view .LVU339
	leaq	.LC6(%rip), %r13
	jmp	.L73
.L93:
	.loc 5 646 15 is_stmt 0 view .LVU340
	leaq	.LC5(%rip), %r12
.LVL152:
.L75:
	.loc 5 666 7 is_stmt 1 view .LVU341
	movq	stdout(%rip), %r13
	xorl	%edi, %edi
	movl	$5, %edx
	leaq	.LC28(%rip), %rsi
	call	dcgettext@PLT
.LVL153:
	movq	%rax, %rdi
	movq	%r13, %rsi
	call	fputs_unlocked@PLT
.LVL154:
	jmp	.L72
.LBE151:
.LBE158:
	.cfi_endproc
.LFE139:
	.size	usage, .-usage
	.section	.rodata.str1.1
.LC31:
	.string	"/usr/local/share/locale"
.LC32:
	.string	"David MacKenzie"
.LC33:
	.string	"Kayvan Aghaiepour"
.LC34:
	.string	"rs"
.LC35:
	.string	"-"
	.section	.text.startup,"ax",@progbits
	.p2align 4
	.globl	main
	.type	main, @function
main:
.LVL155:
.LFB142:
	.loc 1 222 1 view -0
	.cfi_startproc
	.loc 1 222 1 is_stmt 0 view .LVU343
	endbr64
	.loc 1 223 3 is_stmt 1 view .LVU344
	.loc 1 224 3 view .LVU345
	.loc 1 225 3 view .LVU346
	.loc 1 226 3 view .LVU347
.LVL156:
	.loc 1 228 33 view .LVU348
	.loc 1 229 3 view .LVU349
	.loc 1 222 1 is_stmt 0 view .LVU350
	pushq	%r14
	.cfi_def_cfa_offset 16
	.cfi_offset 14, -16
	pushq	%r13
	.cfi_def_cfa_offset 24
	.cfi_offset 13, -24
	.loc 1 244 7 view .LVU351
	leaq	sysv_sum_file(%rip), %r13
	.loc 1 222 1 view .LVU352
	pushq	%r12
	.cfi_def_cfa_offset 32
	.cfi_offset 12, -32
	.loc 1 226 10 view .LVU353
	leaq	bsd_sum_file(%rip), %r12
	.loc 1 222 1 view .LVU354
	pushq	%rbp
	.cfi_def_cfa_offset 40
	.cfi_offset 6, -40
	movl	%edi, %ebp
	.loc 1 247 20 view .LVU355
	movq	%r12, %r14
	.loc 1 222 1 view .LVU356
	pushq	%rbx
	.cfi_def_cfa_offset 48
	.cfi_offset 3, -48
	.loc 1 229 3 view .LVU357
	movq	(%rsi), %rdi
.LVL157:
	.loc 1 222 1 view .LVU358
	movq	%rsi, %rbx
	.loc 1 229 3 view .LVU359
	call	set_program_name@PLT
.LVL158:
	.loc 1 230 3 is_stmt 1 view .LVU360
	leaq	.LC7(%rip), %rsi
	movl	$6, %edi
	call	setlocale@PLT
.LVL159:
	.loc 1 231 3 view .LVU361
	leaq	.LC31(%rip), %rsi
	leaq	.LC17(%rip), %rdi
	call	bindtextdomain@PLT
.LVL160:
	.loc 1 232 3 view .LVU362
	leaq	.LC17(%rip), %rdi
	call	textdomain@PLT
.LVL161:
	.loc 1 234 3 view .LVU363
	movq	close_stdout@GOTPCREL(%rip), %rdi
	call	atexit@PLT
.LVL162:
	.loc 1 238 3 view .LVU364
	movq	stdout(%rip), %rdi
	xorl	%ecx, %ecx
	xorl	%esi, %esi
	movl	$1, %edx
	call	setvbuf@PLT
.LVL163:
	.loc 1 240 3 view .LVU365
	.loc 1 240 19 is_stmt 0 view .LVU366
	movb	$0, have_read_stdin(%rip)
	.loc 1 242 3 is_stmt 1 view .LVU367
.LVL164:
.L95:
	.loc 1 242 9 view .LVU368
	.loc 1 242 18 is_stmt 0 view .LVU369
	xorl	%r8d, %r8d
	leaq	longopts(%rip), %rcx
	movq	%rbx, %rsi
	movl	%ebp, %edi
	leaq	.LC34(%rip), %rdx
	call	getopt_long@PLT
.LVL165:
	.loc 1 242 9 view .LVU370
	cmpl	$-1, %eax
	je	.L111
	.loc 1 244 7 is_stmt 1 view .LVU371
	cmpl	$114, %eax
	je	.L106
	jg	.L97
	cmpl	$-131, %eax
	jne	.L112
	.loc 1 254 9 view .LVU372
	.loc 1 254 30 view .LVU373
	.loc 1 256 9 view .LVU374
	subq	$8, %rsp
	.cfi_remember_state
	.cfi_def_cfa_offset 56
	movq	stdout(%rip), %rdi
	xorl	%eax, %eax
.LVL166:
	.loc 1 256 9 is_stmt 0 view .LVU375
	movq	Version(%rip), %rcx
	pushq	$0
	.cfi_def_cfa_offset 64
	leaq	.LC32(%rip), %r9
	leaq	.LC33(%rip), %r8
	leaq	.LC26(%rip), %rdx
	leaq	.LC5(%rip), %rsi
	call	version_etc@PLT
.LVL167:
	.loc 1 256 9 is_stmt 1 view .LVU376
	xorl	%edi, %edi
	call	exit@PLT
.LVL168:
	.p2align 4,,10
	.p2align 3
.L97:
	.cfi_restore_state
	.loc 1 244 7 is_stmt 0 view .LVU377
	cmpl	$115, %eax
	jne	.L100
	movq	%r13, %r12
.LVL169:
	.loc 1 244 7 view .LVU378
	jmp	.L95
.LVL170:
.L112:
	.loc 1 244 7 view .LVU379
	cmpl	$-130, %eax
	jne	.L100
	.loc 1 254 9 is_stmt 1 view .LVU380
	xorl	%edi, %edi
	call	usage
.LVL171:
	.p2align 4,,10
	.p2align 3
.L106:
	.loc 1 247 20 is_stmt 0 view .LVU381
	movq	%r14, %r12
.LVL172:
	.loc 1 247 20 view .LVU382
	jmp	.L95
.LVL173:
.L111:
	.loc 1 263 3 is_stmt 1 view .LVU383
	.loc 1 263 15 is_stmt 0 view .LVU384
	movl	%ebp, %r14d
	subl	optind(%rip), %r14d
.LVL174:
	.loc 1 264 3 is_stmt 1 view .LVU385
	.loc 1 267 13 is_stmt 0 view .LVU386
	movl	$1, %r13d
	.loc 1 264 6 view .LVU387
	testl	%r14d, %r14d
	jg	.L102
	.loc 1 265 5 is_stmt 1 view .LVU388
	.loc 1 265 10 is_stmt 0 view .LVU389
	movl	%r14d, %esi
	leaq	.LC35(%rip), %rdi
	call	*%r12
.LVL175:
	.loc 1 265 10 view .LVU390
	movl	%eax, %r13d
.LVL176:
.L103:
	.loc 1 270 3 is_stmt 1 view .LVU391
	.loc 1 270 6 is_stmt 0 view .LVU392
	cmpb	$0, have_read_stdin(%rip)
	jne	.L113
.L105:
	.loc 1 272 3 is_stmt 1 view .LVU393
	.loc 1 272 28 is_stmt 0 view .LVU394
	xorl	$1, %r13d
.LVL177:
	.loc 1 273 1 view .LVU395
	popq	%rbx
	.cfi_remember_state
	.cfi_def_cfa_offset 40
.LVL178:
	.loc 1 273 1 view .LVU396
	popq	%rbp
	.cfi_def_cfa_offset 32
.LVL179:
	.loc 1 272 28 view .LVU397
	movzbl	%r13b, %eax
	.loc 1 273 1 view .LVU398
	popq	%r12
	.cfi_def_cfa_offset 24
.LVL180:
	.loc 1 273 1 view .LVU399
	popq	%r13
	.cfi_def_cfa_offset 16
	popq	%r14
	.cfi_def_cfa_offset 8
.LVL181:
	.loc 1 273 1 view .LVU400
	ret
.LVL182:
.L104:
	.cfi_restore_state
	.loc 1 268 7 is_stmt 1 discriminator 3 view .LVU401
	.loc 1 268 13 is_stmt 0 discriminator 3 view .LVU402
	movq	(%rbx,%rax,8), %rdi
	movl	%r14d, %esi
	call	*%r12
.LVL183:
	.loc 1 267 42 discriminator 3 view .LVU403
	addl	$1, optind(%rip)
	andl	%eax, %r13d
.LVL184:
	.loc 1 267 36 is_stmt 1 discriminator 3 view .LVU404
.L102:
	.loc 1 267 21 discriminator 1 view .LVU405
	.loc 1 267 28 is_stmt 0 discriminator 1 view .LVU406
	movslq	optind(%rip), %rax
	.loc 1 267 5 discriminator 1 view .LVU407
	cmpl	%ebp, %eax
	jl	.L104
	jmp	.L103
.L113:
	.loc 1 270 26 discriminator 1 view .LVU408
	movq	stdin(%rip), %rdi
	call	rpl_fclose@PLT
.LVL185:
	.loc 1 270 23 discriminator 1 view .LVU409
	addl	$1, %eax
	jne	.L105
.LBB159:
	.loc 1 271 5 is_stmt 1 view .LVU410
	leaq	.LC35(%rip), %rdx
	movl	$3, %esi
	xorl	%edi, %edi
	call	quotearg_n_style_colon@PLT
.LVL186:
	movq	%rax, %r12
.LVL187:
	.loc 1 271 5 is_stmt 0 view .LVU411
	call	__errno_location@PLT
.LVL188:
	movq	%r12, %rcx
	movl	$1, %edi
	leaq	.LC0(%rip), %rdx
	movl	(%rax), %esi
	xorl	%eax, %eax
	call	error@PLT
.LVL189:
.L100:
	.loc 1 271 5 view .LVU412
.LBE159:
	.loc 1 256 9 is_stmt 1 view .LVU413
	.loc 1 256 57 view .LVU414
	.loc 1 259 11 view .LVU415
	movl	$1, %edi
	call	usage
.LVL190:
	.loc 1 259 11 is_stmt 0 view .LVU416
	.cfi_endproc
.LFE142:
	.size	main, .-main
	.section	.rodata.str1.1
.LC36:
	.string	"sysv"
.LC37:
	.string	"help"
.LC38:
	.string	"version"
	.section	.data.rel.ro.local,"aw"
	.align 32
	.type	longopts, @object
	.size	longopts, 128
longopts:
	.quad	.LC36
	.long	0
	.zero	4
	.quad	0
	.long	115
	.zero	4
	.quad	.LC37
	.long	0
	.zero	4
	.quad	0
	.long	-130
	.zero	4
	.quad	.LC38
	.long	0
	.zero	4
	.quad	0
	.long	-131
	.zero	4
	.quad	0
	.long	0
	.zero	4
	.quad	0
	.long	0
	.zero	4
	.local	have_read_stdin
	.comm	have_read_stdin,1,1
	.text
.Letext0:
	.file 6 "/usr/lib/gcc/x86_64-linux-gnu/9/include/stddef.h"
	.file 7 "/usr/include/x86_64-linux-gnu/bits/types.h"
	.file 8 "/usr/include/x86_64-linux-gnu/bits/types/struct_FILE.h"
	.file 9 "/usr/include/x86_64-linux-gnu/bits/types/FILE.h"
	.file 10 "/usr/include/stdio.h"
	.file 11 "/usr/include/x86_64-linux-gnu/bits/sys_errlist.h"
	.file 12 "/usr/include/x86_64-linux-gnu/bits/types/time_t.h"
	.file 13 "./lib/sys/select.h"
	.file 14 "/usr/include/x86_64-linux-gnu/bits/getopt_core.h"
	.file 15 "/usr/include/x86_64-linux-gnu/bits/getopt_ext.h"
	.file 16 "/usr/include/time.h"
	.file 17 "/usr/include/signal.h"
	.file 18 "/usr/include/unistd.h"
	.file 19 "/usr/include/errno.h"
	.file 20 "src/version.h"
	.file 21 "./lib/exitfail.h"
	.file 22 "/usr/include/stdint.h"
	.file 23 "./lib/timespec.h"
	.file 24 "./lib/version-etc.h"
	.file 25 "./lib/progname.h"
	.file 26 "./lib/quotearg.h"
	.file 27 "./lib/error.h"
	.file 28 "./lib/fadvise.h"
	.file 29 "./lib/human.h"
	.file 30 "./lib/xbinary-io.h"
	.file 31 "./lib/binary-io.h"
	.file 32 "/usr/include/locale.h"
	.file 33 "/usr/include/libintl.h"
	.file 34 "/usr/include/stdlib.h"
	.file 35 "./lib/stdio.h"
	.file 36 "./lib/safe-read.h"
	.file 37 "/usr/include/string.h"
	.section	.note.GNU-stack,"",@progbits
	.section	.note.gnu.property,"a"
	.align 8
	.long	 1f - 0f
	.long	 4f - 1f
	.long	 5
0:
	.string	 "GNU"
1:
	.align 8
	.long	 0xc0000002
	.long	 3f - 2f
2:
	.long	 0x3
3:
	.align 8
4:
