	.file	"tail.c"
	.text
.Ltext0:
	.p2align 4
	.type	wd_hasher, @function
wd_hasher:
.LVL0:
.LFB174:
	.file 1 "src/tail.c"
	.loc 1 1386 1 view -0
	.cfi_startproc
	.loc 1 1386 1 is_stmt 0 view .LVU1
	endbr64
	.loc 1 1387 3 is_stmt 1 view .LVU2
.LVL1:
	.loc 1 1388 3 view .LVU3
	.loc 1 1388 14 is_stmt 0 view .LVU4
	movslq	68(%rdi), %rax
	.loc 1 1388 19 view .LVU5
	xorl	%edx, %edx
	divq	%rsi
	.loc 1 1389 1 view .LVU6
	movq	%rdx, %rax
	ret
	.cfi_endproc
.LFE174:
	.size	wd_hasher, .-wd_hasher
	.p2align 4
	.type	wd_comparator, @function
wd_comparator:
.LVL2:
.LFB175:
	.loc 1 1393 1 is_stmt 1 view -0
	.cfi_startproc
	.loc 1 1393 1 is_stmt 0 view .LVU8
	endbr64
	.loc 1 1394 3 is_stmt 1 view .LVU9
.LVL3:
	.loc 1 1395 3 view .LVU10
	.loc 1 1396 3 view .LVU11
	.loc 1 1396 20 is_stmt 0 view .LVU12
	movl	68(%rsi), %eax
	cmpl	%eax, 68(%rdi)
	sete	%al
	.loc 1 1397 1 view .LVU13
	ret
	.cfi_endproc
.LFE175:
	.size	wd_comparator, .-wd_comparator
	.section	.rodata.str1.1,"aMS",@progbits,1
.LC0:
	.string	"standard input"
	.text
	.p2align 4
	.type	pretty_name.isra.0, @function
pretty_name.isra.0:
.LFB192:
	.loc 1 385 1 is_stmt 1 view -0
	.cfi_startproc
	.loc 1 387 3 view .LVU15
	.loc 1 387 11 is_stmt 0 view .LVU16
	cmpb	$45, (%rdi)
	.loc 1 385 1 view .LVU17
	movq	%rdi, %rax
	.loc 1 387 11 view .LVU18
	jne	.L6
	.loc 1 387 54 view .LVU19
	cmpb	$0, 1(%rdi)
	jne	.L6
.LBB229:
.LBI229:
	.loc 1 385 1 is_stmt 1 view .LVU20
.LBB230:
	.loc 1 387 34 is_stmt 0 view .LVU21
	movl	$5, %edx
	leaq	.LC0(%rip), %rsi
	xorl	%edi, %edi
	jmp	dcgettext@PLT
.LVL4:
	.p2align 4,,10
	.p2align 3
.L6:
.LBE230:
.LBE229:
	.loc 1 388 1 view .LVU22
	ret
	.cfi_endproc
.LFE192:
	.size	pretty_name.isra.0, .-pretty_name.isra.0
	.section	.rodata.str1.1
.LC1:
	.string	"closing %s (fd=%d)"
	.text
	.p2align 4
	.type	close_fd, @function
close_fd:
.LVL5:
.LFB155:
	.loc 1 413 1 is_stmt 1 view -0
	.cfi_startproc
	.loc 1 414 3 view .LVU24
	.loc 1 414 16 is_stmt 0 view .LVU25
	leal	1(%rdi), %eax
	.loc 1 414 6 view .LVU26
	cmpl	$1, %eax
	ja	.L18
	ret
	.p2align 4,,10
	.p2align 3
.L18:
	.loc 1 413 1 discriminator 1 view .LVU27
	pushq	%r13
	.cfi_def_cfa_offset 16
	.cfi_offset 13, -16
	pushq	%r12
	.cfi_def_cfa_offset 24
	.cfi_offset 12, -24
	pushq	%rbp
	.cfi_def_cfa_offset 32
	.cfi_offset 6, -32
	movq	%rsi, %rbp
	pushq	%rbx
	.cfi_def_cfa_offset 40
	.cfi_offset 3, -40
	movl	%edi, %ebx
	subq	$8, %rsp
	.cfi_def_cfa_offset 48
	.loc 1 414 41 discriminator 1 view .LVU28
	call	close@PLT
.LVL6:
	.loc 1 414 38 discriminator 1 view .LVU29
	testl	%eax, %eax
	jne	.L19
	.loc 1 418 1 view .LVU30
	addq	$8, %rsp
	.cfi_remember_state
	.cfi_def_cfa_offset 40
	popq	%rbx
	.cfi_def_cfa_offset 32
.LVL7:
	.loc 1 418 1 view .LVU31
	popq	%rbp
	.cfi_def_cfa_offset 24
.LVL8:
	.loc 1 418 1 view .LVU32
	popq	%r12
	.cfi_def_cfa_offset 16
	popq	%r13
	.cfi_def_cfa_offset 8
	ret
.LVL9:
	.p2align 4,,10
	.p2align 3
.L19:
	.cfi_restore_state
.LBB233:
.LBI233:
	.loc 1 412 1 is_stmt 1 view .LVU33
.LBB234:
	.loc 1 416 7 view .LVU34
	movq	%rbp, %rsi
	movl	$4, %edi
	call	quotearg_style@PLT
.LVL10:
	.loc 1 416 24 is_stmt 0 view .LVU35
	movl	$5, %edx
	leaq	.LC1(%rip), %rsi
	xorl	%edi, %edi
	.loc 1 416 7 view .LVU36
	movq	%rax, %r13
	.loc 1 416 24 view .LVU37
	call	dcgettext@PLT
.LVL11:
	movq	%rax, %r12
	.loc 1 416 17 view .LVU38
	call	__errno_location@PLT
.LVL12:
	.loc 1 416 7 view .LVU39
	movl	%ebx, %r8d
	movq	%r13, %rcx
	movq	%r12, %rdx
	movl	(%rax), %esi
.LBE234:
.LBE233:
	.loc 1 418 1 view .LVU40
	addq	$8, %rsp
	.cfi_def_cfa_offset 40
.LBB237:
.LBB235:
	.loc 1 416 7 view .LVU41
	xorl	%edi, %edi
	xorl	%eax, %eax
.LBE235:
.LBE237:
	.loc 1 418 1 view .LVU42
	popq	%rbx
	.cfi_restore 3
	.cfi_def_cfa_offset 32
.LVL13:
	.loc 1 418 1 view .LVU43
	popq	%rbp
	.cfi_restore 6
	.cfi_def_cfa_offset 24
.LVL14:
	.loc 1 418 1 view .LVU44
	popq	%r12
	.cfi_restore 12
	.cfi_def_cfa_offset 16
	popq	%r13
	.cfi_restore 13
	.cfi_def_cfa_offset 8
.LBB238:
.LBB236:
	.loc 1 416 7 view .LVU45
	jmp	error@PLT
.LVL15:
	.loc 1 416 7 view .LVU46
.LBE236:
.LBE238:
	.cfi_endproc
.LFE155:
	.size	close_fd, .-close_fd
	.section	.rodata.str1.1
.LC2:
	.string	"standard output"
.LC3:
	.string	"error writing %s"
	.text
	.p2align 4
	.type	xwrite_stdout.part.0, @function
xwrite_stdout.part.0:
.LVL16:
.LFB195:
	.loc 1 433 1 is_stmt 1 view -0
	.cfi_startproc
	.loc 1 433 1 is_stmt 0 view .LVU48
	pushq	%r13
	.cfi_def_cfa_offset 16
	.cfi_offset 13, -16
	.loc 1 435 22 view .LVU49
	movq	stdout(%rip), %rcx
	movq	%rsi, %rdx
	.loc 1 433 1 view .LVU50
	pushq	%r12
	.cfi_def_cfa_offset 24
	.cfi_offset 12, -24
	pushq	%rbx
	.cfi_def_cfa_offset 32
	.cfi_offset 3, -32
	.loc 1 433 1 view .LVU51
	movq	%rsi, %rbx
	.loc 1 435 22 view .LVU52
	movl	$1, %esi
.LVL17:
	.loc 1 435 22 view .LVU53
	call	fwrite_unlocked@PLT
.LVL18:
	.loc 1 435 19 view .LVU54
	cmpq	%rax, %rbx
	ja	.L23
	.loc 1 441 1 view .LVU55
	popq	%rbx
	.cfi_remember_state
	.cfi_def_cfa_offset 24
.LVL19:
	.loc 1 441 1 view .LVU56
	popq	%r12
	.cfi_def_cfa_offset 16
	popq	%r13
	.cfi_def_cfa_offset 8
	ret
.LVL20:
.L23:
	.cfi_restore_state
.LBB239:
	.loc 1 437 7 is_stmt 1 view .LVU57
	movq	stdout(%rip), %rdi
	call	clearerr_unlocked@PLT
.LVL21:
	.loc 1 438 7 view .LVU58
	leaq	.LC2(%rip), %rsi
	movl	$4, %edi
	call	quotearg_style@PLT
.LVL22:
	movl	$5, %edx
	leaq	.LC3(%rip), %rsi
	xorl	%edi, %edi
	movq	%rax, %r13
	call	dcgettext@PLT
.LVL23:
	movq	%rax, %r12
	call	__errno_location@PLT
.LVL24:
	movq	%r13, %rcx
	movq	%r12, %rdx
	movl	$1, %edi
	movl	(%rax), %esi
	xorl	%eax, %eax
	call	error@PLT
.LVL25:
.LBE239:
	.cfi_endproc
.LFE195:
	.size	xwrite_stdout.part.0, .-xwrite_stdout.part.0
	.section	.rodata.str1.1
.LC4:
	.string	"error reading %s"
	.text
	.p2align 4
	.type	start_lines, @function
start_lines:
.LVL26:
.LFB164:
	.loc 1 900 1 view -0
	.cfi_startproc
	.loc 1 900 1 is_stmt 0 view .LVU60
	pushq	%r15
	.cfi_def_cfa_offset 16
	.cfi_offset 15, -16
	pushq	%r14
	.cfi_def_cfa_offset 24
	.cfi_offset 14, -24
	pushq	%r13
	.cfi_def_cfa_offset 32
	.cfi_offset 13, -32
	pushq	%r12
	.cfi_def_cfa_offset 40
	.cfi_offset 12, -40
	pushq	%rbp
	.cfi_def_cfa_offset 48
	.cfi_offset 6, -48
	pushq	%rbx
	.cfi_def_cfa_offset 56
	.cfi_offset 3, -56
	subq	$4096, %rsp
	.cfi_def_cfa_offset 4152
	orq	$0, (%rsp)
	subq	$4096, %rsp
	.cfi_def_cfa_offset 8248
	orq	$0, (%rsp)
	subq	$40, %rsp
	.cfi_def_cfa_offset 8288
	.loc 1 900 1 view .LVU61
	movq	%rdi, 8(%rsp)
	movq	%fs:40, %rax
	movq	%rax, 8216(%rsp)
	xorl	%eax, %eax
	.loc 1 901 3 is_stmt 1 view .LVU62
	.loc 1 901 6 is_stmt 0 view .LVU63
	testq	%rdx, %rdx
	je	.L24
	movl	%esi, %r15d
	movq	%rdx, %rbx
	leaq	16(%rsp), %r14
	movq	%rcx, %r13
.LVL27:
.L30:
	.loc 1 904 3 is_stmt 1 view .LVU64
.LBB240:
	.loc 1 906 7 view .LVU65
	.loc 1 907 7 view .LVU66
	.loc 1 907 27 is_stmt 0 view .LVU67
	movl	$8192, %edx
	movq	%r14, %rsi
	movl	%r15d, %edi
	call	safe_read@PLT
.LVL28:
	.loc 1 908 7 is_stmt 1 view .LVU68
	.loc 1 908 10 is_stmt 0 view .LVU69
	testq	%rax, %rax
	je	.L33
	.loc 1 910 7 is_stmt 1 view .LVU70
	.loc 1 910 10 is_stmt 0 view .LVU71
	cmpq	$-1, %rax
	je	.L40
	.loc 1 916 7 is_stmt 1 view .LVU72
	.loc 1 918 17 is_stmt 0 view .LVU73
	addq	%rax, 0(%r13)
	.loc 1 921 19 view .LVU74
	movsbl	line_end(%rip), %r12d
	.loc 1 916 13 view .LVU75
	leaq	(%r14,%rax), %rbp
.LVL29:
	.loc 1 918 7 is_stmt 1 view .LVU76
	.loc 1 920 7 view .LVU77
	.loc 1 921 7 view .LVU78
	.loc 1 920 13 is_stmt 0 view .LVU79
	movq	%r14, %rdi
.LVL30:
	.p2align 4,,10
	.p2align 3
.L28:
	.loc 1 921 13 is_stmt 1 view .LVU80
	.loc 1 921 51 is_stmt 0 view .LVU81
	movq	%rbp, %rdx
	.loc 1 921 19 view .LVU82
	movl	%r12d, %esi
	.loc 1 921 51 view .LVU83
	subq	%rdi, %rdx
	.loc 1 921 19 view .LVU84
	call	memchr@PLT
.LVL31:
	.loc 1 921 13 view .LVU85
	testq	%rax, %rax
	je	.L30
	.loc 1 923 11 is_stmt 1 view .LVU86
	leaq	1(%rax), %rdi
.LVL32:
	.loc 1 924 11 view .LVU87
	.loc 1 924 14 is_stmt 0 view .LVU88
	subq	$1, %rbx
.LVL33:
	.loc 1 924 14 view .LVU89
	jne	.L28
	.loc 1 926 15 is_stmt 1 view .LVU90
	.loc 1 928 22 is_stmt 0 view .LVU91
	xorl	%eax, %eax
	.loc 1 926 18 view .LVU92
	cmpq	%rdi, %rbp
	ja	.L41
.LVL34:
.L24:
	.loc 1 926 18 view .LVU93
.LBE240:
	.loc 1 932 1 view .LVU94
	movq	8216(%rsp), %rcx
	xorq	%fs:40, %rcx
	jne	.L42
	addq	$8232, %rsp
	.cfi_remember_state
	.cfi_def_cfa_offset 56
	popq	%rbx
	.cfi_def_cfa_offset 48
	popq	%rbp
	.cfi_def_cfa_offset 40
	popq	%r12
	.cfi_def_cfa_offset 32
	popq	%r13
	.cfi_def_cfa_offset 24
	popq	%r14
	.cfi_def_cfa_offset 16
	popq	%r15
	.cfi_def_cfa_offset 8
	ret
.LVL35:
	.p2align 4,,10
	.p2align 3
.L41:
	.cfi_restore_state
.LBB243:
	.loc 1 927 17 is_stmt 1 view .LVU95
.LBB241:
.LBI241:
	.loc 1 433 1 view .LVU96
.LBB242:
	.loc 1 435 3 view .LVU97
	.loc 1 435 6 is_stmt 0 view .LVU98
	subq	%rdi, %rbp
.LVL36:
	.loc 1 435 6 view .LVU99
	je	.L24
	movq	%rbp, %rsi
	movl	%eax, 8(%rsp)
.LVL37:
	.loc 1 435 6 view .LVU100
	call	xwrite_stdout.part.0
.LVL38:
	.loc 1 435 6 view .LVU101
	movl	8(%rsp), %eax
	jmp	.L24
.LVL39:
.L33:
	.loc 1 435 6 view .LVU102
.LBE242:
.LBE241:
	.loc 1 909 16 view .LVU103
	movl	$-1, %eax
.LVL40:
	.loc 1 909 16 view .LVU104
	jmp	.L24
.LVL41:
.L40:
	.loc 1 912 11 is_stmt 1 view .LVU105
	movq	8(%rsp), %rsi
	movl	$4, %edi
	call	quotearg_style@PLT
.LVL42:
	.loc 1 912 28 is_stmt 0 view .LVU106
	movl	$5, %edx
	leaq	.LC4(%rip), %rsi
	xorl	%edi, %edi
	.loc 1 912 11 view .LVU107
	movq	%rax, %r13
.LVL43:
	.loc 1 912 28 view .LVU108
	call	dcgettext@PLT
.LVL44:
	movq	%rax, %r12
	.loc 1 912 21 view .LVU109
	call	__errno_location@PLT
.LVL45:
	.loc 1 912 11 view .LVU110
	movq	%r13, %rcx
	movq	%r12, %rdx
	xorl	%edi, %edi
	movl	(%rax), %esi
	xorl	%eax, %eax
	call	error@PLT
.LVL46:
	.loc 1 913 11 is_stmt 1 view .LVU111
	.loc 1 913 18 is_stmt 0 view .LVU112
	movl	$1, %eax
	jmp	.L24
.LVL47:
.L42:
	.loc 1 913 18 view .LVU113
.LBE243:
	.loc 1 932 1 view .LVU114
	call	__stack_chk_fail@PLT
.LVL48:
	.cfi_endproc
.LFE164:
	.size	start_lines, .-start_lines
	.section	.rodata.str1.1
.LC5:
	.string	""
.LC6:
	.string	"\n"
.LC7:
	.string	"%s==> %s <==\n"
	.text
	.p2align 4
	.type	dump_remainder, @function
dump_remainder:
.LVL49:
.LFB158:
	.loc 1 451 1 is_stmt 1 view -0
	.cfi_startproc
	.loc 1 451 1 is_stmt 0 view .LVU116
	pushq	%r15
	.cfi_def_cfa_offset 16
	.cfi_offset 15, -16
	pushq	%r14
	.cfi_def_cfa_offset 24
	.cfi_offset 14, -24
	pushq	%r13
	.cfi_def_cfa_offset 32
	.cfi_offset 13, -32
	pushq	%r12
	.cfi_def_cfa_offset 40
	.cfi_offset 12, -40
	pushq	%rbp
	.cfi_def_cfa_offset 48
	.cfi_offset 6, -48
	pushq	%rbx
	.cfi_def_cfa_offset 56
	.cfi_offset 3, -56
	subq	$4096, %rsp
	.cfi_def_cfa_offset 4152
	orq	$0, (%rsp)
	subq	$4096, %rsp
	.cfi_def_cfa_offset 8248
	orq	$0, (%rsp)
	subq	$40, %rsp
	.cfi_def_cfa_offset 8288
	.loc 1 455 13 view .LVU117
	xorl	%r12d, %r12d
	.loc 1 451 1 view .LVU118
	movq	%rsi, 8(%rsp)
	movl	%edx, %r15d
	movl	%edi, %ebp
	movq	%rcx, %rbx
	movq	%rcx, (%rsp)
	leaq	16(%rsp), %r13
	movq	%fs:40, %rax
	movq	%rax, 8216(%rsp)
	xorl	%eax, %eax
	.loc 1 452 3 is_stmt 1 view .LVU119
	.loc 1 453 3 view .LVU120
.LVL50:
	.loc 1 455 3 view .LVU121
	.p2align 4,,10
	.p2align 3
.L49:
	.loc 1 456 3 view .LVU122
.LBB244:
	.loc 1 458 7 view .LVU123
	.loc 1 459 7 view .LVU124
	.loc 1 460 7 view .LVU125
	.loc 1 459 14 is_stmt 0 view .LVU126
	cmpq	$8192, %rbx
	movl	$8192, %edx
	.loc 1 460 27 view .LVU127
	movq	%r13, %rsi
	movl	%r15d, %edi
	.loc 1 459 14 view .LVU128
	cmovbe	%rbx, %rdx
	.loc 1 460 27 view .LVU129
	call	safe_read@PLT
.LVL51:
	movq	%rax, %r14
.LVL52:
	.loc 1 461 7 is_stmt 1 view .LVU130
	.loc 1 461 10 is_stmt 0 view .LVU131
	cmpq	$-1, %rax
	je	.L62
	.loc 1 468 7 is_stmt 1 view .LVU132
	.loc 1 468 10 is_stmt 0 view .LVU133
	testq	%rax, %rax
	je	.L43
	.loc 1 470 7 is_stmt 1 view .LVU134
	.loc 1 470 10 is_stmt 0 view .LVU135
	testb	%bpl, %bpl
	je	.L46
	.loc 1 472 11 is_stmt 1 view .LVU136
.LVL53:
.LBB245:
.LBI245:
	.loc 1 421 1 view .LVU137
.LBB246:
	.loc 1 423 3 view .LVU138
	.loc 1 425 3 view .LVU139
	cmpb	$0, first_file.7627(%rip)
.LBB247:
.LBB248:
	.file 2 "/usr/include/x86_64-linux-gnu/bits/stdio2.h"
	.loc 2 107 10 is_stmt 0 view .LVU140
	movq	8(%rsp), %rcx
.LBE248:
.LBE247:
	.loc 1 425 3 view .LVU141
	leaq	.LC5(%rip), %rax
.LVL54:
	.loc 1 425 3 view .LVU142
	leaq	.LC6(%rip), %rdx
	cmovne	%rax, %rdx
.LVL55:
.LBB250:
.LBI247:
	.loc 2 105 1 is_stmt 1 view .LVU143
.LBB249:
	.loc 2 107 3 view .LVU144
	.loc 2 107 10 is_stmt 0 view .LVU145
	leaq	.LC7(%rip), %rsi
	movl	$1, %edi
	xorl	%eax, %eax
	call	__printf_chk@PLT
.LVL56:
	.loc 2 107 10 view .LVU146
.LBE249:
.LBE250:
	.loc 1 426 3 is_stmt 1 view .LVU147
	.loc 1 426 14 is_stmt 0 view .LVU148
	movb	$0, first_file.7627(%rip)
.LVL57:
	.loc 1 426 14 view .LVU149
.LBE246:
.LBE245:
	.loc 1 473 11 is_stmt 1 view .LVU150
.L46:
	.loc 1 475 7 view .LVU151
.LBB251:
.LBI251:
	.loc 1 433 1 view .LVU152
.LBB252:
	.loc 1 435 3 view .LVU153
	movq	%r14, %rsi
	movq	%r13, %rdi
.LBE252:
.LBE251:
	.loc 1 476 17 is_stmt 0 view .LVU154
	addq	%r14, %r12
.LVL58:
.LBB254:
.LBB253:
	.loc 1 476 17 view .LVU155
	call	xwrite_stdout.part.0
.LVL59:
	.loc 1 476 17 view .LVU156
.LBE253:
.LBE254:
	.loc 1 476 7 is_stmt 1 view .LVU157
	.loc 1 477 7 view .LVU158
	.loc 1 477 10 is_stmt 0 view .LVU159
	movq	(%rsp), %rax
	cmpq	$-1, %rax
	je	.L48
	.loc 1 479 11 is_stmt 1 view .LVU160
.LVL60:
	.loc 1 480 11 view .LVU161
	.loc 1 480 14 is_stmt 0 view .LVU162
	subq	%r14, %rbx
.LVL61:
	.loc 1 480 14 view .LVU163
	je	.L43
	cmpq	$-2, %rax
	je	.L43
.LVL62:
.L48:
	.loc 1 480 14 view .LVU164
.LBE244:
	.loc 1 456 9 is_stmt 1 view .LVU165
	.loc 1 457 5 is_stmt 0 view .LVU166
	xorl	%ebp, %ebp
	jmp	.L49
.LVL63:
	.p2align 4,,10
	.p2align 3
.L62:
.LBB256:
	.loc 1 463 11 is_stmt 1 view .LVU167
	.loc 1 463 15 is_stmt 0 view .LVU168
	call	__errno_location@PLT
.LVL64:
	.loc 1 463 14 view .LVU169
	cmpl	$11, (%rax)
	.loc 1 463 15 view .LVU170
	movq	%rax, %rbx
.LVL65:
	.loc 1 463 14 view .LVU171
	jne	.L63
.LVL66:
.L43:
	.loc 1 463 14 view .LVU172
.LBE256:
	.loc 1 486 1 view .LVU173
	movq	8216(%rsp), %rax
	xorq	%fs:40, %rax
	jne	.L64
	addq	$8232, %rsp
	.cfi_remember_state
	.cfi_def_cfa_offset 56
.LVL67:
	.loc 1 486 1 view .LVU174
	movq	%r12, %rax
	popq	%rbx
	.cfi_def_cfa_offset 48
	popq	%rbp
	.cfi_def_cfa_offset 40
	popq	%r12
	.cfi_def_cfa_offset 32
.LVL68:
	.loc 1 486 1 view .LVU175
	popq	%r13
	.cfi_def_cfa_offset 24
	popq	%r14
	.cfi_def_cfa_offset 16
.LVL69:
	.loc 1 486 1 view .LVU176
	popq	%r15
	.cfi_def_cfa_offset 8
.LVL70:
	.loc 1 486 1 view .LVU177
	ret
.LVL71:
.L63:
	.cfi_restore_state
.LBB257:
.LBB255:
	.loc 1 464 13 is_stmt 1 view .LVU178
	movq	8(%rsp), %rsi
	movl	$4, %edi
	call	quotearg_style@PLT
.LVL72:
	movl	$5, %edx
	leaq	.LC4(%rip), %rsi
	xorl	%edi, %edi
	movq	%rax, %r12
.LVL73:
	.loc 1 464 13 is_stmt 0 view .LVU179
	call	dcgettext@PLT
.LVL74:
	movl	(%rbx), %esi
	movq	%r12, %rcx
	movl	$1, %edi
	movq	%rax, %rdx
	xorl	%eax, %eax
	call	error@PLT
.LVL75:
.L64:
	.loc 1 464 13 view .LVU180
.LBE255:
.LBE257:
	.loc 1 486 1 view .LVU181
	call	__stack_chk_fail@PLT
.LVL76:
	.cfi_endproc
.LFE158:
	.size	dump_remainder, .-dump_remainder
	.p2align 4
	.type	start_bytes, @function
start_bytes:
.LVL77:
.LFB163:
	.loc 1 865 1 is_stmt 1 view -0
	.cfi_startproc
	.loc 1 865 1 is_stmt 0 view .LVU183
	pushq	%r14
	.cfi_def_cfa_offset 16
	.cfi_offset 14, -16
	pushq	%r13
	.cfi_def_cfa_offset 24
	.cfi_offset 13, -24
	pushq	%r12
	.cfi_def_cfa_offset 32
	.cfi_offset 12, -32
	pushq	%rbp
	.cfi_def_cfa_offset 40
	.cfi_offset 6, -40
	pushq	%rbx
	.cfi_def_cfa_offset 48
	.cfi_offset 3, -48
	subq	$4096, %rsp
	.cfi_def_cfa_offset 4144
	orq	$0, (%rsp)
	subq	$4096, %rsp
	.cfi_def_cfa_offset 8240
	orq	$0, (%rsp)
	subq	$16, %rsp
	.cfi_def_cfa_offset 8256
	.loc 1 865 1 view .LVU184
	movq	%fs:40, %rax
	movq	%rax, 8200(%rsp)
	xorl	%eax, %eax
	.loc 1 866 3 is_stmt 1 view .LVU185
	.loc 1 868 3 view .LVU186
	.loc 1 868 9 view .LVU187
	testq	%rdx, %rdx
	je	.L81
	movq	%rdi, %r13
	movl	%esi, %ebp
	movq	%rdx, %r14
	movq	%rcx, %rbx
	movq	%rsp, %r12
	jmp	.L66
.LVL78:
	.p2align 4,,10
	.p2align 3
.L83:
.LBB258:
	.loc 1 873 7 view .LVU188
	.loc 1 873 10 is_stmt 0 view .LVU189
	cmpq	$-1, %rax
	je	.L82
	.loc 1 878 7 is_stmt 1 view .LVU190
	.loc 1 878 17 is_stmt 0 view .LVU191
	addq	%rax, (%rbx)
	.loc 1 879 7 is_stmt 1 view .LVU192
	.loc 1 879 10 is_stmt 0 view .LVU193
	cmpq	%r14, %rax
	ja	.L69
	.loc 1 880 9 is_stmt 1 view .LVU194
.LVL79:
	.loc 1 880 9 is_stmt 0 view .LVU195
.LBE258:
	.loc 1 868 9 is_stmt 1 view .LVU196
	subq	%rax, %r14
.LVL80:
	.loc 1 868 9 is_stmt 0 view .LVU197
	je	.L81
.LVL81:
.L66:
.LBB264:
	.loc 1 870 7 is_stmt 1 view .LVU198
	.loc 1 870 27 is_stmt 0 view .LVU199
	movl	$8192, %edx
	movq	%r12, %rsi
	movl	%ebp, %edi
	call	safe_read@PLT
.LVL82:
	.loc 1 871 7 is_stmt 1 view .LVU200
	.loc 1 871 10 is_stmt 0 view .LVU201
	testq	%rax, %rax
	jne	.L83
	.loc 1 872 16 view .LVU202
	movl	$-1, %eax
.LVL83:
	.loc 1 872 16 view .LVU203
	jmp	.L65
.LVL84:
	.p2align 4,,10
	.p2align 3
.L69:
.LBB259:
	.loc 1 883 11 is_stmt 1 view .LVU204
	.loc 1 884 11 view .LVU205
	.loc 1 884 14 is_stmt 0 view .LVU206
	subq	%r14, %rax
.LVL85:
	.loc 1 884 14 view .LVU207
	je	.L81
	.loc 1 885 13 is_stmt 1 view .LVU208
.LVL86:
.LBB260:
.LBI260:
	.loc 1 433 1 view .LVU209
.LBB261:
	.loc 1 435 3 view .LVU210
.LBE261:
.LBE260:
	.loc 1 885 28 is_stmt 0 view .LVU211
	leaq	(%r12,%r14), %rdi
.LBB263:
.LBB262:
	movq	%rax, %rsi
	call	xwrite_stdout.part.0
.LVL87:
	.p2align 4,,10
	.p2align 3
.L81:
	.loc 1 885 28 view .LVU212
.LBE262:
.LBE263:
.LBE259:
.LBE264:
	.loc 1 890 10 view .LVU213
	xorl	%eax, %eax
.L65:
	.loc 1 891 1 view .LVU214
	movq	8200(%rsp), %rcx
	xorq	%fs:40, %rcx
	jne	.L84
	addq	$8208, %rsp
	.cfi_remember_state
	.cfi_def_cfa_offset 48
	popq	%rbx
	.cfi_def_cfa_offset 40
	popq	%rbp
	.cfi_def_cfa_offset 32
	popq	%r12
	.cfi_def_cfa_offset 24
	popq	%r13
	.cfi_def_cfa_offset 16
	popq	%r14
	.cfi_def_cfa_offset 8
	ret
.LVL88:
	.p2align 4,,10
	.p2align 3
.L82:
	.cfi_restore_state
.LBB265:
	.loc 1 875 11 is_stmt 1 view .LVU215
	movq	%r13, %rsi
	movl	$4, %edi
	call	quotearg_style@PLT
.LVL89:
	.loc 1 875 28 is_stmt 0 view .LVU216
	movl	$5, %edx
	leaq	.LC4(%rip), %rsi
	xorl	%edi, %edi
	.loc 1 875 11 view .LVU217
	movq	%rax, %r13
.LVL90:
	.loc 1 875 28 view .LVU218
	call	dcgettext@PLT
.LVL91:
	movq	%rax, %r12
	.loc 1 875 21 view .LVU219
	call	__errno_location@PLT
.LVL92:
	.loc 1 875 11 view .LVU220
	movq	%r13, %rcx
	movq	%r12, %rdx
	xorl	%edi, %edi
	movl	(%rax), %esi
	xorl	%eax, %eax
	call	error@PLT
.LVL93:
	.loc 1 876 11 is_stmt 1 view .LVU221
	.loc 1 876 18 is_stmt 0 view .LVU222
	movl	$1, %eax
	jmp	.L65
.LVL94:
.L84:
	.loc 1 876 18 view .LVU223
.LBE265:
	.loc 1 891 1 view .LVU224
	call	__stack_chk_fail@PLT
.LVL95:
	.cfi_endproc
.LFE163:
	.size	start_bytes, .-start_bytes
	.section	.rodata.str1.1
.LC8:
	.string	"%s: cannot seek to offset %s"
	.section	.rodata.str1.8,"aMS",@progbits,1
	.align 8
.LC9:
	.string	"%s: cannot seek to relative offset %s"
	.text
	.p2align 4
	.type	xlseek, @function
xlseek:
.LVL96:
.LFB159:
	.loc 1 495 1 is_stmt 1 view -0
	.cfi_startproc
	.loc 1 495 1 is_stmt 0 view .LVU226
	pushq	%r13
	.cfi_def_cfa_offset 16
	.cfi_offset 13, -16
	pushq	%r12
	.cfi_def_cfa_offset 24
	.cfi_offset 12, -24
	movq	%rcx, %r12
	pushq	%rbp
	.cfi_def_cfa_offset 32
	.cfi_offset 6, -32
	movq	%rsi, %rbp
	pushq	%rbx
	.cfi_def_cfa_offset 40
	.cfi_offset 3, -40
	movl	%edx, %ebx
	subq	$40, %rsp
	.cfi_def_cfa_offset 80
	.loc 1 495 1 view .LVU227
	movq	%fs:40, %rax
	movq	%rax, 24(%rsp)
	xorl	%eax, %eax
	.loc 1 496 3 is_stmt 1 view .LVU228
	.loc 1 496 22 is_stmt 0 view .LVU229
	call	lseek@PLT
.LVL97:
	.loc 1 497 3 is_stmt 1 view .LVU230
	.loc 1 498 3 view .LVU231
	.loc 1 500 3 view .LVU232
	.loc 1 500 6 is_stmt 0 view .LVU233
	testq	%rax, %rax
	js	.L93
	.loc 1 523 1 view .LVU234
	movq	24(%rsp), %rbx
	xorq	%fs:40, %rbx
.LVL98:
	.loc 1 523 1 view .LVU235
	jne	.L94
	addq	$40, %rsp
	.cfi_remember_state
	.cfi_def_cfa_offset 40
	popq	%rbx
	.cfi_def_cfa_offset 32
	popq	%rbp
	.cfi_def_cfa_offset 24
.LVL99:
	.loc 1 523 1 view .LVU236
	popq	%r12
	.cfi_def_cfa_offset 16
.LVL100:
	.loc 1 523 1 view .LVU237
	popq	%r13
	.cfi_def_cfa_offset 8
	ret
.LVL101:
.L93:
	.cfi_restore_state
.LBB268:
.LBI268:
	.loc 1 494 1 is_stmt 1 view .LVU238
.LBB269:
	.loc 1 503 3 view .LVU239
	.loc 1 503 7 is_stmt 0 view .LVU240
	movq	%rbp, %rdi
	movq	%rsp, %rsi
	call	offtostr@PLT
.LVL102:
	.loc 1 503 7 view .LVU241
	movq	%rax, %r13
.LVL103:
	.loc 1 504 3 is_stmt 1 view .LVU242
	call	__errno_location@PLT
.LVL104:
	.loc 1 511 7 is_stmt 0 view .LVU243
	xorl	%edi, %edi
	.loc 1 504 3 view .LVU244
	subl	$1, %ebx
.LVL105:
	.loc 1 511 7 view .LVU245
	movq	%r12, %rdx
	movq	%rax, %rbp
.LVL106:
	.loc 1 511 7 view .LVU246
	movl	$3, %esi
	.loc 1 504 3 view .LVU247
	je	.L87
.LVL107:
	.loc 1 507 7 is_stmt 1 view .LVU248
	call	quotearg_n_style_colon@PLT
.LVL108:
	.loc 1 507 24 is_stmt 0 view .LVU249
	movl	$5, %edx
	leaq	.LC8(%rip), %rsi
	.loc 1 507 7 view .LVU250
	movq	%rax, %r12
.LVL109:
.L92:
	.loc 1 511 24 view .LVU251
	xorl	%edi, %edi
	call	dcgettext@PLT
.LVL110:
	.loc 1 511 7 view .LVU252
	movl	0(%rbp), %esi
	xorl	%edi, %edi
	movq	%r13, %r8
	.loc 1 511 24 view .LVU253
	movq	%rax, %rdx
	.loc 1 511 7 view .LVU254
	movq	%r12, %rcx
	xorl	%eax, %eax
	call	error@PLT
.LVL111:
	.loc 1 513 7 is_stmt 1 view .LVU255
	.loc 1 522 3 view .LVU256
	movl	$1, %edi
	call	exit@PLT
.LVL112:
.L94:
	.loc 1 522 3 is_stmt 0 view .LVU257
.LBE269:
.LBE268:
	.loc 1 523 1 view .LVU258
	call	__stack_chk_fail@PLT
.LVL113:
.L87:
.LBB271:
.LBB270:
	.loc 1 511 7 is_stmt 1 view .LVU259
	call	quotearg_n_style_colon@PLT
.LVL114:
	.loc 1 511 24 is_stmt 0 view .LVU260
	movl	$5, %edx
	leaq	.LC9(%rip), %rsi
	.loc 1 511 7 view .LVU261
	movq	%rax, %r12
.LVL115:
	.loc 1 511 7 view .LVU262
	jmp	.L92
.LBE270:
.LBE271:
	.cfi_endproc
.LFE159:
	.size	xlseek, .-xlseek
	.p2align 4
	.type	file_lines, @function
file_lines:
.LVL116:
.LFB160:
	.loc 1 537 1 is_stmt 1 view -0
	.cfi_startproc
	.loc 1 537 1 is_stmt 0 view .LVU264
	pushq	%r15
	.cfi_def_cfa_offset 16
	.cfi_offset 15, -16
	pushq	%r14
	.cfi_def_cfa_offset 24
	.cfi_offset 14, -24
	pushq	%r13
	.cfi_def_cfa_offset 32
	.cfi_offset 13, -32
	pushq	%r12
	.cfi_def_cfa_offset 40
	.cfi_offset 12, -40
	pushq	%rbp
	.cfi_def_cfa_offset 48
	.cfi_offset 6, -48
	pushq	%rbx
	.cfi_def_cfa_offset 56
	.cfi_offset 3, -56
	subq	$4096, %rsp
	.cfi_def_cfa_offset 4152
	orq	$0, (%rsp)
	subq	$4096, %rsp
	.cfi_def_cfa_offset 8248
	orq	$0, (%rsp)
	subq	$56, %rsp
	.cfi_def_cfa_offset 8304
	.loc 1 537 1 view .LVU265
	movq	%rdi, 8(%rsp)
	movq	%rcx, 16(%rsp)
	movq	%r8, 24(%rsp)
	movq	%r9, (%rsp)
	movq	%fs:40, %rax
	movq	%rax, 8232(%rsp)
	xorl	%eax, %eax
	.loc 1 538 3 is_stmt 1 view .LVU266
	.loc 1 539 3 view .LVU267
	.loc 1 540 3 view .LVU268
.LVL117:
	.loc 1 542 3 view .LVU269
	.loc 1 542 6 is_stmt 0 view .LVU270
	testq	%rdx, %rdx
	je	.L96
	.loc 1 547 21 view .LVU271
	movq	%r8, %rbx
	movl	%esi, %r13d
	.loc 1 552 7 view .LVU272
	movq	%r8, %rsi
.LVL118:
	.loc 1 552 7 view .LVU273
	movq	%rdx, %r14
	.loc 1 547 3 is_stmt 1 view .LVU274
	.loc 1 547 21 is_stmt 0 view .LVU275
	subq	%rcx, %rbx
	.loc 1 554 16 view .LVU276
	leaq	32(%rsp), %r15
	.loc 1 553 3 view .LVU277
	movq	%rdi, %rcx
.LVL119:
	.loc 1 553 3 view .LVU278
	movl	%r13d, %edi
.LVL120:
	.loc 1 547 34 view .LVU279
	movq	%rbx, %rax
	sarq	$63, %rax
	shrq	$51, %rax
	addq	%rax, %rbx
	andl	$8191, %ebx
.LVL121:
	.loc 1 548 3 is_stmt 1 view .LVU280
	.loc 1 549 16 is_stmt 0 view .LVU281
	subq	%rax, %rbx
.LVL122:
	.loc 1 549 16 view .LVU282
	movl	$8192, %eax
	cmove	%rax, %rbx
.LVL123:
	.loc 1 552 3 is_stmt 1 view .LVU283
	.loc 1 553 3 is_stmt 0 view .LVU284
	xorl	%edx, %edx
.LVL124:
	.loc 1 552 7 view .LVU285
	subq	%rbx, %rsi
	movq	%rsi, %r12
.LVL125:
	.loc 1 553 3 is_stmt 1 view .LVU286
	call	xlseek
.LVL126:
	.loc 1 554 3 view .LVU287
	.loc 1 554 16 is_stmt 0 view .LVU288
	movq	%rbx, %rdx
	movq	%r15, %rsi
	movl	%r13d, %edi
	call	safe_read@PLT
.LVL127:
	movq	%rax, %rbp
.LVL128:
	.loc 1 555 3 is_stmt 1 view .LVU289
	.loc 1 555 6 is_stmt 0 view .LVU290
	cmpq	$-1, %rax
	je	.L123
	.loc 1 560 3 is_stmt 1 view .LVU291
	.loc 1 560 19 is_stmt 0 view .LVU292
	movq	(%rsp), %rdi
	leaq	(%r12,%rax), %rax
.LVL129:
	.loc 1 560 19 view .LVU293
	movsbl	line_end(%rip), %ebx
	movq	%rax, (%rdi)
	.loc 1 563 3 is_stmt 1 view .LVU294
	.loc 1 563 6 is_stmt 0 view .LVU295
	testq	%rbp, %rbp
	jne	.L124
	.p2align 4,,10
	.p2align 3
.L107:
	.loc 1 566 3 is_stmt 1 view .LVU296
.LBB272:
	.loc 1 570 7 view .LVU297
.LVL130:
	.loc 1 571 7 view .LVU298
	.loc 1 571 13 is_stmt 0 view .LVU299
	movq	%rbp, %rdx
	jmp	.L101
.LVL131:
	.p2align 4,,10
	.p2align 3
.L104:
.LBB273:
	.loc 1 573 11 is_stmt 1 view .LVU300
	.loc 1 574 11 view .LVU301
	.loc 1 574 16 is_stmt 0 view .LVU302
	movl	%ebx, %esi
	movq	%r15, %rdi
	call	memrchr@PLT
.LVL132:
	.loc 1 575 11 is_stmt 1 view .LVU303
	.loc 1 575 14 is_stmt 0 view .LVU304
	testq	%rax, %rax
	je	.L102
	.loc 1 577 11 is_stmt 1 view .LVU305
	.loc 1 577 18 is_stmt 0 view .LVU306
	movq	%rax, %rdx
	.loc 1 578 22 view .LVU307
	leaq	-1(%r14), %rcx
	.loc 1 577 18 view .LVU308
	subq	%r15, %rdx
.LVL133:
	.loc 1 578 11 is_stmt 1 view .LVU309
	.loc 1 578 14 is_stmt 0 view .LVU310
	testq	%r14, %r14
	je	.L125
	movq	%rcx, %r14
.LVL134:
.L101:
	.loc 1 578 14 view .LVU311
.LBE273:
	.loc 1 571 13 is_stmt 1 view .LVU312
	testq	%rdx, %rdx
	jne	.L104
.LVL135:
.L102:
	.loc 1 591 7 view .LVU313
	.loc 1 591 10 is_stmt 0 view .LVU314
	cmpq	16(%rsp), %r12
	je	.L126
	.loc 1 600 7 is_stmt 1 view .LVU315
	.loc 1 601 7 is_stmt 0 view .LVU316
	movq	8(%rsp), %rcx
	.loc 1 600 11 view .LVU317
	subq	$8192, %r12
.LVL136:
	.loc 1 601 7 is_stmt 1 view .LVU318
	xorl	%edx, %edx
	movl	%r13d, %edi
	movq	%r12, %rsi
	call	xlseek
.LVL137:
	.loc 1 603 7 view .LVU319
	.loc 1 603 20 is_stmt 0 view .LVU320
	movl	$8192, %edx
	movq	%r15, %rsi
	movl	%r13d, %edi
	call	safe_read@PLT
.LVL138:
	movq	%rax, %rbp
.LVL139:
	.loc 1 604 7 is_stmt 1 view .LVU321
	.loc 1 604 10 is_stmt 0 view .LVU322
	cmpq	$-1, %rax
	je	.L123
	.loc 1 610 7 is_stmt 1 view .LVU323
	.loc 1 610 23 is_stmt 0 view .LVU324
	movq	(%rsp), %rdi
	leaq	(%r12,%rax), %rax
.LVL140:
	.loc 1 610 23 view .LVU325
	movq	%rax, (%rdi)
.LBE272:
	.loc 1 612 9 is_stmt 1 view .LVU326
	.loc 1 612 3 is_stmt 0 view .LVU327
	testq	%rbp, %rbp
	je	.L96
	movsbl	line_end(%rip), %ebx
	jmp	.L107
	.p2align 4,,10
	.p2align 3
.L124:
	.loc 1 563 18 discriminator 1 view .LVU328
	cmpb	%bl, 31(%rsp,%rbp)
	je	.L107
	.loc 1 564 5 is_stmt 1 view .LVU329
	subq	$1, %r14
.LVL141:
	.loc 1 564 5 is_stmt 0 view .LVU330
	jmp	.L107
.LVL142:
	.p2align 4,,10
	.p2align 3
.L125:
.LBB279:
.LBB278:
	.loc 1 582 15 is_stmt 1 view .LVU331
	.loc 1 582 35 is_stmt 0 view .LVU332
	leaq	-1(%rbp), %rsi
	.loc 1 582 18 view .LVU333
	cmpq	%rdx, %rsi
	je	.L103
	.loc 1 583 17 is_stmt 1 view .LVU334
.LVL143:
.LBB274:
.LBI274:
	.loc 1 433 1 view .LVU335
.LBB275:
	.loc 1 435 3 view .LVU336
.LBE275:
.LBE274:
	.loc 1 583 17 is_stmt 0 view .LVU337
	subq	%rdx, %rsi
.LVL144:
	.loc 1 583 17 view .LVU338
	leaq	1(%rax), %rdi
.LVL145:
.LBB277:
.LBB276:
	.loc 1 583 17 view .LVU339
	call	xwrite_stdout.part.0
.LVL146:
.L103:
	.loc 1 583 17 view .LVU340
.LBE276:
.LBE277:
	.loc 1 584 15 is_stmt 1 view .LVU341
	.loc 1 584 28 is_stmt 0 view .LVU342
	movq	24(%rsp), %rcx
	movq	8(%rsp), %rsi
	xorl	%edi, %edi
	movl	%r13d, %edx
	subq	%rbp, %rcx
	subq	%r12, %rcx
	call	dump_remainder
.LVL147:
	.loc 1 584 25 view .LVU343
	movq	(%rsp), %rdi
	addq	%rax, (%rdi)
	.loc 1 586 15 is_stmt 1 view .LVU344
	.loc 1 586 22 is_stmt 0 view .LVU345
	movl	$1, %eax
.LVL148:
.L95:
	.loc 1 586 22 view .LVU346
.LBE278:
.LBE279:
	.loc 1 615 1 view .LVU347
	movq	8232(%rsp), %rsi
	xorq	%fs:40, %rsi
	jne	.L127
	addq	$8248, %rsp
	.cfi_remember_state
	.cfi_def_cfa_offset 56
.LVL149:
	.loc 1 615 1 view .LVU348
	popq	%rbx
	.cfi_def_cfa_offset 48
	popq	%rbp
	.cfi_def_cfa_offset 40
	popq	%r12
	.cfi_def_cfa_offset 32
	popq	%r13
	.cfi_def_cfa_offset 24
	popq	%r14
	.cfi_def_cfa_offset 16
	popq	%r15
	.cfi_def_cfa_offset 8
	ret
.LVL150:
	.p2align 4,,10
	.p2align 3
.L96:
	.cfi_restore_state
	.loc 1 543 12 view .LVU349
	movl	$1, %eax
	jmp	.L95
.LVL151:
.L123:
.LBB280:
	.loc 1 606 11 is_stmt 1 view .LVU350
	movq	8(%rsp), %rsi
	movl	$4, %edi
	call	quotearg_style@PLT
.LVL152:
	.loc 1 606 28 is_stmt 0 view .LVU351
	movl	$5, %edx
	leaq	.LC4(%rip), %rsi
	xorl	%edi, %edi
	.loc 1 606 11 view .LVU352
	movq	%rax, %r13
.LVL153:
	.loc 1 606 28 view .LVU353
	call	dcgettext@PLT
.LVL154:
	movq	%rax, %r12
.LVL155:
	.loc 1 606 21 view .LVU354
	call	__errno_location@PLT
.LVL156:
	.loc 1 606 11 view .LVU355
	movq	%r13, %rcx
	movq	%r12, %rdx
	xorl	%edi, %edi
	movl	(%rax), %esi
	xorl	%eax, %eax
	call	error@PLT
.LVL157:
	.loc 1 607 11 is_stmt 1 view .LVU356
	.loc 1 607 18 is_stmt 0 view .LVU357
	xorl	%eax, %eax
	jmp	.L95
.LVL158:
.L126:
	.loc 1 595 11 is_stmt 1 view .LVU358
	movq	8(%rsp), %rbx
	movq	%r12, %rsi
	xorl	%edx, %edx
	movl	%r13d, %edi
	movq	%rbx, %rcx
	call	xlseek
.LVL159:
	.loc 1 596 11 view .LVU359
	.loc 1 596 35 is_stmt 0 view .LVU360
	movq	24(%rsp), %rcx
	movl	%r13d, %edx
	movq	%rbx, %rsi
	xorl	%edi, %edi
	call	dump_remainder
.LVL160:
	.loc 1 596 33 view .LVU361
	addq	%rax, %r12
.LVL161:
	.loc 1 596 33 view .LVU362
	movq	(%rsp), %rax
	movq	%r12, (%rax)
	.loc 1 598 11 is_stmt 1 view .LVU363
	.loc 1 598 18 is_stmt 0 view .LVU364
	movl	$1, %eax
	jmp	.L95
.LVL162:
.L127:
	.loc 1 598 18 view .LVU365
.LBE280:
	.loc 1 615 1 view .LVU366
	call	__stack_chk_fail@PLT
.LVL163:
	.cfi_endproc
.LFE160:
	.size	file_lines, .-file_lines
	.section	.rodata.str1.1
.LC10:
	.string	"%s: file truncated"
.LC11:
	.string	"write error"
	.text
	.p2align 4
	.type	check_fspec, @function
check_fspec:
.LVL164:
.LFB176:
	.loc 1 1403 1 is_stmt 1 view -0
	.cfi_startproc
	.loc 1 1403 1 is_stmt 0 view .LVU368
	pushq	%r14
	.cfi_def_cfa_offset 16
	.cfi_offset 14, -16
	pushq	%r13
	.cfi_def_cfa_offset 24
	.cfi_offset 13, -24
	pushq	%r12
	.cfi_def_cfa_offset 32
	.cfi_offset 12, -32
	pushq	%rbp
	.cfi_def_cfa_offset 40
	.cfi_offset 6, -40
	pushq	%rbx
	.cfi_def_cfa_offset 48
	.cfi_offset 3, -48
	subq	$160, %rsp
	.cfi_def_cfa_offset 208
	.loc 1 1403 1 view .LVU369
	movq	%fs:40, %rax
	movq	%rax, 152(%rsp)
	xorl	%eax, %eax
	.loc 1 1404 3 is_stmt 1 view .LVU370
	.loc 1 1405 3 view .LVU371
	.loc 1 1407 3 view .LVU372
	.loc 1 1407 6 is_stmt 0 view .LVU373
	cmpl	$-1, 56(%rdi)
	je	.L128
	movq	%rdi, %rbx
	.loc 1 1410 10 view .LVU374
	movq	(%rdi), %rdi
.LVL165:
	.loc 1 1410 10 view .LVU375
	movq	%rsi, %r12
	.loc 1 1410 3 is_stmt 1 view .LVU376
	.loc 1 1410 10 is_stmt 0 view .LVU377
	call	pretty_name.isra.0
.LVL166:
.LBB281:
.LBB282:
	.file 3 "/usr/include/x86_64-linux-gnu/sys/stat.h"
	.loc 3 469 10 view .LVU378
	movl	56(%rbx), %esi
	movq	%rsp, %rdx
	movl	$1, %edi
.LBE282:
.LBE281:
	.loc 1 1410 10 view .LVU379
	movq	%rax, %r13
.LVL167:
	.loc 1 1412 3 is_stmt 1 view .LVU380
.LBB284:
.LBI281:
	.loc 3 467 1 view .LVU381
.LBB283:
	.loc 3 469 3 view .LVU382
	.loc 3 469 10 is_stmt 0 view .LVU383
	call	__fxstat@PLT
.LVL168:
	.loc 3 469 10 view .LVU384
	movl	%eax, %ebp
.LVL169:
	.loc 3 469 10 view .LVU385
.LBE283:
.LBE284:
	.loc 1 1412 6 view .LVU386
	testl	%eax, %eax
	jne	.L146
	.loc 1 1425 3 is_stmt 1 view .LVU387
	.loc 1 1425 7 is_stmt 0 view .LVU388
	movl	48(%rbx), %eax
	andl	$61440, %eax
	.loc 1 1425 6 view .LVU389
	cmpl	$32768, %eax
	je	.L147
.L132:
	.loc 1 1435 3 is_stmt 1 view .LVU390
	.loc 1 1435 36 is_stmt 0 view .LVU391
	cmpb	$0, print_headers(%rip)
	je	.L134
	.loc 1 1435 36 discriminator 1 view .LVU392
	xorl	%ebp, %ebp
	cmpq	%rbx, (%r12)
	setne	%bpl
.L134:
.LVL170:
	.loc 1 1437 3 is_stmt 1 discriminator 6 view .LVU393
	.loc 1 1437 26 is_stmt 0 discriminator 6 view .LVU394
	movl	56(%rbx), %edx
	movq	$-1, %rcx
	movq	%r13, %rsi
	movl	%ebp, %edi
	call	dump_remainder
.LVL171:
	.loc 1 1439 3 is_stmt 1 discriminator 6 view .LVU395
	.loc 1 1439 15 is_stmt 0 discriminator 6 view .LVU396
	addq	%rax, 8(%rbx)
	.loc 1 1441 3 is_stmt 1 discriminator 6 view .LVU397
	.loc 1 1441 6 is_stmt 0 discriminator 6 view .LVU398
	testq	%rax, %rax
	jne	.L148
.LVL172:
.L128:
	.loc 1 1447 1 view .LVU399
	movq	152(%rsp), %rax
	xorq	%fs:40, %rax
	jne	.L149
	addq	$160, %rsp
	.cfi_remember_state
	.cfi_def_cfa_offset 48
	popq	%rbx
	.cfi_def_cfa_offset 40
	popq	%rbp
	.cfi_def_cfa_offset 32
	popq	%r12
	.cfi_def_cfa_offset 24
	popq	%r13
	.cfi_def_cfa_offset 16
	popq	%r14
	.cfi_def_cfa_offset 8
	ret
.LVL173:
	.p2align 4,,10
	.p2align 3
.L147:
	.cfi_restore_state
	.loc 1 1425 29 discriminator 1 view .LVU400
	movq	8(%rbx), %rax
	cmpq	%rax, 48(%rsp)
	jl	.L150
	.loc 1 1431 8 is_stmt 1 discriminator 1 view .LVU401
	.loc 1 1431 34 is_stmt 0 discriminator 1 view .LVU402
	jne	.L132
	movq	16(%rbx), %rax
	movq	88(%rsp), %rdi
.LBB285:
.LBB286:
	.file 4 "./lib/timespec.h"
	.loc 4 66 14 view .LVU403
	xorl	%edx, %edx
	movq	24(%rbx), %rcx
	movq	96(%rsp), %rsi
.LVL174:
	.loc 4 66 14 view .LVU404
.LBE286:
.LBE285:
	.file 5 "./lib/stat-time.h"
	.loc 5 149 3 is_stmt 1 view .LVU405
.LBB288:
.LBI285:
	.loc 4 64 1 view .LVU406
.LBB287:
	.loc 4 66 3 view .LVU407
	.loc 4 66 14 is_stmt 0 view .LVU408
	cmpq	%rax, %rdi
	setg	%al
	setl	%dl
	movzbl	%al, %eax
	subl	%eax, %edx
	.loc 4 66 45 view .LVU409
	xorl	%eax, %eax
	cmpq	%rcx, %rsi
	setg	%cl
	setl	%al
	movzbl	%cl, %ecx
	subl	%ecx, %eax
	.loc 4 66 43 view .LVU410
	leal	(%rax,%rdx,2), %eax
.LBE287:
.LBE288:
	.loc 1 1432 12 view .LVU411
	testl	%eax, %eax
	jne	.L132
	jmp	.L128
.LVL175:
	.p2align 4,,10
	.p2align 3
.L148:
	.loc 1 1443 7 is_stmt 1 view .LVU412
	.loc 1 1443 19 is_stmt 0 view .LVU413
	movq	%rbx, (%r12)
	.loc 1 1444 7 is_stmt 1 view .LVU414
	.loc 1 1444 11 is_stmt 0 view .LVU415
	movq	stdout(%rip), %rdi
	call	fflush_unlocked@PLT
.LVL176:
	.loc 1 1444 10 view .LVU416
	testl	%eax, %eax
	je	.L128
.LBB289:
	.loc 1 1445 9 is_stmt 1 view .LVU417
	movl	$5, %edx
	leaq	.LC11(%rip), %rsi
	xorl	%edi, %edi
	call	dcgettext@PLT
.LVL177:
	movq	%rax, %r12
.LVL178:
	.loc 1 1445 9 is_stmt 0 view .LVU418
	call	__errno_location@PLT
.LVL179:
	movq	%r12, %rdx
	movl	$1, %edi
	movl	(%rax), %esi
	xorl	%eax, %eax
	call	error@PLT
.LVL180:
	.p2align 4,,10
	.p2align 3
.L146:
	.loc 1 1445 9 view .LVU419
.LBE289:
	.loc 1 1414 7 is_stmt 1 view .LVU420
	.loc 1 1414 23 is_stmt 0 view .LVU421
	call	__errno_location@PLT
.LVL181:
	.loc 1 1415 7 view .LVU422
	movl	56(%rbx), %edi
	movq	%r13, %rsi
	.loc 1 1414 23 view .LVU423
	movl	(%rax), %eax
	.loc 1 1414 21 view .LVU424
	movl	%eax, 60(%rbx)
	.loc 1 1415 7 is_stmt 1 view .LVU425
	call	close_fd
.LVL182:
	.loc 1 1416 7 view .LVU426
	.loc 1 1416 17 is_stmt 0 view .LVU427
	movl	$-1, 56(%rbx)
	.loc 1 1417 7 is_stmt 1 view .LVU428
	jmp	.L128
	.p2align 4,,10
	.p2align 3
.L150:
	.loc 1 1427 7 view .LVU429
	movq	%r13, %rdx
	movl	$3, %esi
	xorl	%edi, %edi
	call	quotearg_n_style_colon@PLT
.LVL183:
	.loc 1 1427 20 is_stmt 0 view .LVU430
	movl	$5, %edx
	leaq	.LC10(%rip), %rsi
	xorl	%edi, %edi
	.loc 1 1427 7 view .LVU431
	movq	%rax, %r14
	.loc 1 1427 20 view .LVU432
	call	dcgettext@PLT
.LVL184:
	.loc 1 1427 7 view .LVU433
	movq	%r14, %rcx
	xorl	%esi, %esi
	xorl	%edi, %edi
	.loc 1 1427 20 view .LVU434
	movq	%rax, %rdx
	.loc 1 1427 7 view .LVU435
	xorl	%eax, %eax
	call	error@PLT
.LVL185:
	.loc 1 1428 7 is_stmt 1 view .LVU436
	movl	56(%rbx), %edi
	movq	%r13, %rcx
	xorl	%edx, %edx
	xorl	%esi, %esi
	call	xlseek
.LVL186:
	.loc 1 1429 7 view .LVU437
	.loc 1 1429 19 is_stmt 0 view .LVU438
	movq	$0, 8(%rbx)
	jmp	.L132
.LVL187:
.L149:
	.loc 1 1447 1 view .LVU439
	call	__stack_chk_fail@PLT
.LVL188:
	.cfi_endproc
.LFE176:
	.size	check_fspec, .-check_fspec
	.section	.rodata.str1.8
	.align 8
.LC12:
	.string	"cannot determine location of %s. reverting to polling"
	.text
	.p2align 4
	.type	fremote, @function
fremote:
.LVL189:
.LFB165:
	.loc 1 939 1 is_stmt 1 view -0
	.cfi_startproc
	.loc 1 939 1 is_stmt 0 view .LVU441
	pushq	%r13
	.cfi_def_cfa_offset 16
	.cfi_offset 13, -16
	pushq	%r12
	.cfi_def_cfa_offset 24
	.cfi_offset 12, -24
	pushq	%rbp
	.cfi_def_cfa_offset 32
	.cfi_offset 6, -32
	movq	%rsi, %rbp
	pushq	%rbx
	.cfi_def_cfa_offset 40
	.cfi_offset 3, -40
	subq	$136, %rsp
	.cfi_def_cfa_offset 176
	.loc 1 939 1 view .LVU442
	movq	%fs:40, %rax
	movq	%rax, 120(%rsp)
	xorl	%eax, %eax
	.loc 1 940 3 is_stmt 1 view .LVU443
.LVL190:
	.loc 1 944 3 view .LVU444
	.loc 1 945 3 view .LVU445
	.loc 1 945 13 is_stmt 0 view .LVU446
	movq	%rsp, %rsi
.LVL191:
	.loc 1 945 13 view .LVU447
	call	fstatfs@PLT
.LVL192:
	.loc 1 946 3 is_stmt 1 view .LVU448
	.loc 1 946 6 is_stmt 0 view .LVU449
	testl	%eax, %eax
	je	.L152
	.loc 1 950 7 is_stmt 1 view .LVU450
	.loc 1 950 11 is_stmt 0 view .LVU451
	call	__errno_location@PLT
.LVL193:
	.loc 1 940 8 view .LVU452
	movl	$1, %r12d
	.loc 1 950 10 view .LVU453
	cmpl	$38, (%rax)
	.loc 1 950 11 view .LVU454
	movq	%rax, %rbx
	.loc 1 950 10 view .LVU455
	jne	.L247
.LVL194:
.L151:
	.loc 1 975 1 view .LVU456
	movq	120(%rsp), %rax
	xorq	%fs:40, %rax
	jne	.L248
	addq	$136, %rsp
	.cfi_remember_state
	.cfi_def_cfa_offset 40
	movl	%r12d, %eax
	popq	%rbx
	.cfi_def_cfa_offset 32
	popq	%rbp
	.cfi_def_cfa_offset 24
.LVL195:
	.loc 1 975 1 view .LVU457
	popq	%r12
	.cfi_def_cfa_offset 16
	popq	%r13
	.cfi_def_cfa_offset 8
	ret
.LVL196:
	.p2align 4,,10
	.p2align 3
.L152:
	.cfi_restore_state
	.loc 1 956 7 is_stmt 1 view .LVU458
	.loc 1 956 36 is_stmt 0 view .LVU459
	movq	(%rsp), %rcx
.LVL197:
.LBB294:
.LBI294:
	.file 6 "src/fs-is-local.h"
	.loc 6 5 1 is_stmt 1 view .LVU460
.LBB295:
	.loc 6 7 3 view .LVU461
	cmpq	$732765674, %rcx
	je	.L245
	jg	.L154
	cmpq	$40866, %rcx
	jg	.L155
	cmpq	$40863, %rcx
	jg	.L245
	cmpq	$16390, %rcx
	jg	.L156
	cmpq	$16383, %rcx
	jg	.L157
	cmpq	$5007, %rcx
	jg	.L158
	cmpq	$4978, %rcx
	jg	.L159
	cmpq	$391, %rcx
	je	.L245
	jle	.L249
	cmpq	$1984, %rcx
	setne	%r12b
	jmp	.L151
	.p2align 4,,10
	.p2align 3
.L154:
	cmpq	$1650812274, %rcx
	je	.L245
	jle	.L250
	movl	$2240043254, %eax
.LVL198:
	.loc 6 7 3 is_stmt 0 view .LVU462
	cmpq	%rax, %rcx
	je	.L245
	jle	.L251
	movl	$3405662737, %eax
	cmpq	%rax, %rcx
	je	.L245
	jle	.L252
	movl	$4076150800, %eax
	cmpq	%rax, %rcx
	je	.L245
	jle	.L253
	movl	$4185718668, %eax
	cmpq	%rax, %rcx
	je	.L245
	addq	$1632445, %rax
	cmpq	%rax, %rcx
	setne	%r12b
	jmp	.L151
.LVL199:
	.p2align 4,,10
	.p2align 3
.L250:
	.loc 6 7 3 view .LVU463
	cmpq	$1397118030, %rcx
	je	.L245
	jle	.L254
	cmpq	$1513908720, %rcx
	je	.L245
	jle	.L255
	cmpq	$1634035564, %rcx
	je	.L245
	jle	.L256
	cmpq	$1650746742, %rcx
	je	.L245
	cmpq	$1650812272, %rcx
	setne	%r12b
	jmp	.L151
	.p2align 4,,10
	.p2align 3
.L155:
	.loc 6 7 3 view .LVU464
	cmpq	$19911021, %rcx
	je	.L245
	jle	.L257
	cmpq	$325456742, %rcx
	je	.L245
	jle	.L258
	cmpq	$464386766, %rcx
	je	.L245
	jle	.L259
	cmpq	$604313861, %rcx
	je	.L245
	cmpq	$684539205, %rcx
	setne	%r12b
	jmp	.L151
	.p2align 4,,10
	.p2align 3
.L254:
	.loc 6 7 3 view .LVU465
	cmpq	$1161678120, %rcx
	je	.L245
	jle	.L260
	cmpq	$1382369651, %rcx
	je	.L245
	jle	.L261
	cmpq	$1397109069, %rcx
	je	.L245
	cmpq	$1397114950, %rcx
	setne	%r12b
	jmp	.L151
	.p2align 4,,10
	.p2align 3
.L257:
	.loc 6 7 3 view .LVU466
	cmpq	$72020, %rcx
	je	.L245
	jle	.L262
	cmpq	$12648430, %rcx
	je	.L245
	jle	.L263
	cmpq	$16914836, %rcx
	je	.L245
	cmpq	$16914839, %rcx
	setne	%r12b
	jmp	.L151
.LVL200:
	.p2align 4,,10
	.p2align 3
.L251:
	.loc 6 7 3 view .LVU467
	cmpq	$1819242352, %rcx
	je	.L245
	jle	.L264
	cmpq	$1936814952, %rcx
	je	.L245
	jle	.L265
	cmpq	$1936880249, %rcx
	je	.L245
	cmpq	$1953653091, %rcx
	setne	%r12b
	jmp	.L151
.LVL201:
	.p2align 4,,10
	.p2align 3
.L156:
	.loc 6 7 3 view .LVU468
	cmpq	$19802, %rcx
	je	.L245
	jle	.L266
	cmpq	$29366, %rcx
	je	.L245
	jle	.L267
	cmpq	$38496, %rcx
	setne	%r12b
	jmp	.L151
	.p2align 4,,10
	.p2align 3
.L267:
	cmpq	$24053, %rcx
	je	.L245
	cmpq	$29301, %rcx
	setne	%r12b
	jmp	.L151
	.p2align 4,,10
	.p2align 3
.L249:
	.loc 6 7 3 view .LVU469
	subq	$47, %rcx
.LVL202:
	.loc 6 7 3 view .LVU470
	testq	$-5, %rcx
	setne	%r12b
	jmp	.L151
.LVL203:
	.p2align 4,,10
	.p2align 3
.L158:
	.loc 6 7 3 view .LVU471
	cmpq	$9336, %rcx
	je	.L245
	jle	.L268
	cmpq	$13364, %rcx
	setne	%r12b
	jmp	.L151
	.p2align 4,,10
	.p2align 3
.L268:
	cmpq	$7377, %rcx
	je	.L245
	cmpq	$9320, %rcx
	setne	%r12b
	jmp	.L151
	.p2align 4,,10
	.p2align 3
.L260:
	.loc 6 7 3 view .LVU472
	cmpq	$1112100429, %rcx
	je	.L245
	jle	.L269
	cmpq	$1128357203, %rcx
	je	.L245
	cmpq	$1145913666, %rcx
	setne	%r12b
	jmp	.L151
	.p2align 4,,10
	.p2align 3
.L266:
	.loc 6 7 3 view .LVU473
	cmpq	$18520, %rcx
	je	.L245
	jle	.L270
	cmpq	$19780, %rcx
	setne	%r12b
	jmp	.L151
	.p2align 4,,10
	.p2align 3
.L270:
	cmpq	$16964, %rcx
	je	.L245
	cmpq	$18475, %rcx
	setne	%r12b
	jmp	.L151
.LVL204:
	.p2align 4,,10
	.p2align 3
.L264:
	.loc 6 7 3 view .LVU474
	cmpq	$1684300152, %rcx
	je	.L245
	jle	.L271
	cmpq	$1733912937, %rcx
	je	.L245
	cmpq	$1746473250, %rcx
	setne	%r12b
	jmp	.L151
	.p2align 4,,10
	.p2align 3
.L252:
	.loc 6 7 3 view .LVU475
	subq	$524562589, %rax
	cmpq	%rax, %rcx
	je	.L245
	jle	.L272
	movl	$3344373136, %eax
	cmpq	%rax, %rcx
	je	.L245
	addq	$36137944, %rax
	cmpq	%rax, %rcx
	setne	%r12b
	jmp	.L151
.LVL205:
	.p2align 4,,10
	.p2align 3
.L255:
	.loc 6 7 3 view .LVU476
	cmpq	$1448756819, %rcx
	je	.L245
	jle	.L273
	cmpq	$1479104553, %rcx
	je	.L245
	cmpq	$1481003842, %rcx
	setne	%r12b
	jmp	.L151
	.p2align 4,,10
	.p2align 3
.L262:
	.loc 6 7 3 view .LVU477
	cmpq	$61265, %rcx
	je	.L245
	jle	.L274
	cmpq	$61267, %rcx
	je	.L245
	cmpq	$61791, %rcx
	setne	%r12b
	jmp	.L151
	.p2align 4,,10
	.p2align 3
.L258:
	.loc 6 7 3 view .LVU478
	cmpq	$151263540, %rcx
	je	.L245
	jle	.L275
	cmpq	$195894762, %rcx
	je	.L245
	cmpq	$288389204, %rcx
	setne	%r12b
	jmp	.L151
	.p2align 4,,10
	.p2align 3
.L275:
	cmpq	$19920823, %rcx
	jg	.L171
	cmpq	$19920819, %rcx
	setle	%r12b
	jmp	.L151
	.p2align 4,,10
	.p2align 3
.L171:
	cmpq	$124082209, %rcx
	setne	%r12b
	jmp	.L151
	.p2align 4,,10
	.p2align 3
.L259:
	.loc 6 7 3 view .LVU479
	cmpq	$352400198, %rcx
	je	.L245
	cmpq	$427819522, %rcx
	setne	%r12b
	jmp	.L151
	.p2align 4,,10
	.p2align 3
.L269:
	.loc 6 7 3 view .LVU480
	cmpq	$827541066, %rcx
	je	.L245
	cmpq	$1111905073, %rcx
	je	.L245
	cmpq	$801189825, %rcx
	setne	%r12b
	jmp	.L151
	.p2align 4,,10
	.p2align 3
.L256:
	.loc 6 7 3 view .LVU481
	cmpq	$1515144787, %rcx
	je	.L245
	cmpq	$1573531125, %rcx
	setne	%r12b
	jmp	.L151
.LVL206:
	.p2align 4,,10
	.p2align 3
.L253:
	.loc 6 7 3 view .LVU482
	subq	$345415212, %rax
	cmpq	%rax, %rcx
	je	.L245
	addq	$43474942, %rax
	cmpq	%rax, %rcx
	setne	%r12b
	jmp	.L151
.LVL207:
	.p2align 4,,10
	.p2align 3
.L274:
	.loc 6 7 3 view .LVU483
	cmpq	$44533, %rcx
	je	.L245
	cmpq	$44543, %rcx
	setne	%r12b
	jmp	.L151
	.p2align 4,,10
	.p2align 3
.L263:
	.loc 6 7 3 view .LVU484
	cmpq	$2613483, %rcx
	je	.L245
	cmpq	$4278867, %rcx
	setne	%r12b
	jmp	.L151
.LVL208:
	.p2align 4,,10
	.p2align 3
.L265:
	.loc 6 7 3 view .LVU485
	cmpq	$1853056627, %rcx
	je	.L245
	cmpq	$1935894131, %rcx
	setne	%r12b
	jmp	.L151
.LVL209:
	.p2align 4,,10
	.p2align 3
.L261:
	.loc 6 7 3 view .LVU486
	cmpq	$1162691661, %rcx
	je	.L245
	cmpq	$1163413075, %rcx
	setne	%r12b
	jmp	.L151
	.p2align 4,,10
	.p2align 3
.L273:
	.loc 6 7 3 view .LVU487
	cmpq	$1397703499, %rcx
	je	.L245
	cmpq	$1410924800, %rcx
	setne	%r12b
	jmp	.L151
.LVL210:
	.p2align 4,,10
	.p2align 3
.L272:
	.loc 6 7 3 view .LVU488
	subq	$446083382, %rax
	cmpq	%rax, %rcx
	je	.L245
	addq	$73461944, %rax
	cmpq	%rax, %rcx
	setne	%r12b
	jmp	.L151
	.p2align 4,,10
	.p2align 3
.L271:
	.loc 6 7 3 view .LVU489
	cmpq	$1667723888, %rcx
	je	.L245
	cmpq	$1684170528, %rcx
	setne	%r12b
	jmp	.L151
.LVL211:
	.p2align 4,,10
	.p2align 3
.L159:
	.loc 6 7 3 view .LVU490
	subq	$4979, %rcx
.LVL212:
	.loc 6 7 3 view .LVU491
	movl	$1, %eax
.LVL213:
	.loc 6 7 3 view .LVU492
	salq	%cl, %rax
	testl	$268440577, %eax
	sete	%r12b
	jmp	.L151
.LVL214:
.L157:
	.loc 6 7 3 view .LVU493
	movl	$1, %eax
.LVL215:
	.loc 6 7 3 view .LVU494
	salq	%cl, %rax
	testb	$81, %al
	sete	%r12b
	jmp	.L151
.LVL216:
	.p2align 4,,10
	.p2align 3
.L247:
	.loc 6 7 3 view .LVU495
.LBE295:
.LBE294:
	.loc 1 951 9 is_stmt 1 view .LVU496
	movq	%rbp, %rsi
	movl	$4, %edi
	call	quotearg_style@PLT
.LVL217:
	.loc 1 951 26 is_stmt 0 view .LVU497
	xorl	%edi, %edi
	movl	$5, %edx
	leaq	.LC12(%rip), %rsi
	.loc 1 951 9 view .LVU498
	movq	%rax, %r13
	.loc 1 951 26 view .LVU499
	call	dcgettext@PLT
.LVL218:
	.loc 1 951 9 view .LVU500
	movl	(%rbx), %esi
	movq	%r13, %rcx
	xorl	%edi, %edi
	.loc 1 951 26 view .LVU501
	movq	%rax, %rdx
	.loc 1 951 9 view .LVU502
	xorl	%eax, %eax
	call	error@PLT
.LVL219:
	jmp	.L151
.LVL220:
	.p2align 4,,10
	.p2align 3
.L245:
	.loc 1 966 18 view .LVU503
	xorl	%r12d, %r12d
.LVL221:
	.loc 1 974 3 is_stmt 1 view .LVU504
	.loc 1 974 10 is_stmt 0 view .LVU505
	jmp	.L151
.LVL222:
.L248:
	.loc 1 975 1 view .LVU506
	call	__stack_chk_fail@PLT
.LVL223:
	.cfi_endproc
.LFE165:
	.size	fremote, .-fremote
	.section	.rodata.str1.1
.LC13:
	.string	"src/tail.c"
.LC14:
	.string	"valid_file_spec (f)"
	.section	.rodata.str1.8
	.align 8
.LC15:
	.string	"%s has been replaced with an untailable symbolic link"
	.section	.rodata.str1.1
.LC16:
	.string	"%s has become inaccessible"
.LC17:
	.string	"%s"
.LC18:
	.string	"; giving up on this name"
	.section	.rodata.str1.8
	.align 8
.LC19:
	.string	"%s has been replaced with an untailable file%s"
	.align 8
.LC20:
	.string	"%s has been replaced with an untailable remote file"
	.section	.rodata.str1.1
.LC21:
	.string	"f->fd == -1"
.LC22:
	.string	"%s has become accessible"
	.section	.rodata.str1.8
	.align 8
.LC23:
	.string	"%s has appeared;  following new file"
	.align 8
.LC24:
	.string	"%s has been replaced;  following new file"
	.text
	.p2align 4
	.type	recheck, @function
recheck:
.LVL224:
.LFB166:
	.loc 1 980 1 is_stmt 1 view -0
	.cfi_startproc
	.loc 1 980 1 is_stmt 0 view .LVU508
	pushq	%r15
	.cfi_def_cfa_offset 16
	.cfi_offset 15, -16
	pushq	%r14
	.cfi_def_cfa_offset 24
	.cfi_offset 14, -24
	pushq	%r13
	.cfi_def_cfa_offset 32
	.cfi_offset 13, -32
	movl	%esi, %r13d
	pushq	%r12
	.cfi_def_cfa_offset 40
	.cfi_offset 12, -40
	pushq	%rbp
	.cfi_def_cfa_offset 48
	.cfi_offset 6, -48
	pushq	%rbx
	.cfi_def_cfa_offset 56
	.cfi_offset 3, -56
	movq	%rdi, %rbx
	subq	$184, %rsp
	.cfi_def_cfa_offset 240
	.loc 1 983 20 view .LVU509
	movq	(%rdi), %rdi
.LVL225:
	.loc 1 980 1 view .LVU510
	movq	%fs:40, %rax
	movq	%rax, 168(%rsp)
	xorl	%eax, %eax
	.loc 1 981 3 is_stmt 1 view .LVU511
	.loc 1 982 3 view .LVU512
.LVL226:
	.loc 1 983 3 view .LVU513
	.loc 1 983 20 is_stmt 0 view .LVU514
	movzbl	(%rdi), %ebp
	subl	$45, %ebp
	jne	.L277
	movzbl	1(%rdi), %ebp
.L277:
.LVL227:
	.loc 1 984 3 is_stmt 1 view .LVU515
	.loc 1 984 8 is_stmt 0 view .LVU516
	movzbl	54(%rbx), %eax
	.loc 1 985 7 view .LVU517
	movl	60(%rbx), %r14d
	.loc 1 984 8 view .LVU518
	movb	%al, 7(%rsp)
.LVL228:
	.loc 1 985 3 is_stmt 1 view .LVU519
	.loc 1 986 3 view .LVU520
	.loc 1 987 3 view .LVU521
	.loc 1 989 13 is_stmt 0 view .LVU522
	testl	%ebp, %ebp
	je	.L315
	.loc 1 989 15 discriminator 1 view .LVU523
	xorl	%esi, %esi
.LVL229:
	.loc 1 989 15 discriminator 1 view .LVU524
	testb	%r13b, %r13b
	sete	%sil
	xorl	%eax, %eax
.LVL230:
	.loc 1 989 15 discriminator 1 view .LVU525
	sall	$11, %esi
	call	open_safer@PLT
.LVL231:
	.loc 1 989 15 discriminator 1 view .LVU526
	movl	%eax, %r12d
	movl	60(%rbx), %eax
.L278:
.LVL232:
	.loc 1 991 3 is_stmt 1 view .LVU527
.LBB296:
.LBI296:
	.loc 1 378 1 view .LVU528
.LBB297:
	.loc 1 381 3 view .LVU529
	.loc 1 381 18 is_stmt 0 view .LVU530
	cmpl	$-1, 56(%rbx)
	sete	%dl
	.loc 1 381 38 view .LVU531
	testl	%eax, %eax
	sete	%al
.LBE297:
.LBE296:
	.loc 1 991 3 view .LVU532
	cmpb	%al, %dl
	je	.L353
	.loc 1 995 3 is_stmt 1 view .LVU533
	.loc 1 995 19 is_stmt 0 view .LVU534
	movzbl	reopen_inaccessible_files(%rip), %r15d
	movzbl	disable_inotify(%rip), %eax
	.loc 1 995 17 view .LVU535
	testb	%r15b, %r15b
	jne	.L354
	.loc 1 995 15 discriminator 6 view .LVU536
	movb	$1, 54(%rbx)
	.loc 1 997 3 is_stmt 1 discriminator 6 view .LVU537
	.loc 1 997 6 is_stmt 0 discriminator 6 view .LVU538
	testb	%al, %al
	je	.L355
.L284:
	.loc 1 1010 8 is_stmt 1 view .LVU539
	.loc 1 1010 11 is_stmt 0 view .LVU540
	cmpl	$-1, %r12d
	jne	.L356
.L350:
	.loc 1 1013 19 view .LVU541
	call	__errno_location@PLT
.LVL233:
	movzbl	54(%rbx), %r15d
	movq	(%rbx), %r13
	.loc 1 1012 7 is_stmt 1 view .LVU542
.LVL234:
	.loc 1 1013 7 view .LVU543
	.loc 1 1013 19 is_stmt 0 view .LVU544
	movq	%rax, %rbp
.LVL235:
	.loc 1 1013 19 view .LVU545
	movl	(%rax), %eax
	.loc 1 1013 17 view .LVU546
	movl	%eax, 60(%rbx)
	.loc 1 1014 7 is_stmt 1 view .LVU547
	.loc 1 1014 10 is_stmt 0 view .LVU548
	testb	%r15b, %r15b
	je	.L309
	.loc 1 1030 12 is_stmt 1 view .LVU549
	.loc 1 1030 15 is_stmt 0 view .LVU550
	cmpl	%r14d, %eax
	jne	.L357
.LVL236:
.L285:
	.loc 1 1061 7 is_stmt 1 view .LVU551
	movq	%r13, %rdi
	call	pretty_name.isra.0
.LVL237:
	movl	%r12d, %edi
	movq	%rax, %rsi
	call	close_fd
.LVL238:
	.loc 1 1062 7 view .LVU552
	movq	(%rbx), %rdi
	call	pretty_name.isra.0
.LVL239:
	movl	56(%rbx), %edi
	movq	%rax, %rsi
	call	close_fd
.LVL240:
	.loc 1 1063 7 view .LVU553
	.loc 1 1063 13 is_stmt 0 view .LVU554
	movl	$-1, 56(%rbx)
.LVL241:
	.loc 1 1110 3 is_stmt 1 view .LVU555
.L276:
	.loc 1 1116 1 is_stmt 0 view .LVU556
	movq	168(%rsp), %rax
	xorq	%fs:40, %rax
	jne	.L358
	addq	$184, %rsp
	.cfi_remember_state
	.cfi_def_cfa_offset 56
	popq	%rbx
	.cfi_def_cfa_offset 48
.LVL242:
	.loc 1 1116 1 view .LVU557
	popq	%rbp
	.cfi_def_cfa_offset 40
	popq	%r12
	.cfi_def_cfa_offset 32
.LVL243:
	.loc 1 1116 1 view .LVU558
	popq	%r13
	.cfi_def_cfa_offset 24
	popq	%r14
	.cfi_def_cfa_offset 16
	popq	%r15
	.cfi_def_cfa_offset 8
	ret
.LVL244:
	.p2align 4,,10
	.p2align 3
.L315:
	.cfi_restore_state
	.loc 1 1116 1 view .LVU559
	movl	%r14d, %eax
.LVL245:
	.loc 1 989 13 view .LVU560
	xorl	%r12d, %r12d
	jmp	.L278
.LVL246:
	.p2align 4,,10
	.p2align 3
.L354:
	.loc 1 995 17 discriminator 2 view .LVU561
	cmpl	$-1, %r12d
	je	.L359
	.loc 1 995 15 view .LVU562
	movb	$1, 54(%rbx)
	.loc 1 997 3 is_stmt 1 view .LVU563
	leaq	16(%rsp), %rdx
	.loc 1 997 6 is_stmt 0 view .LVU564
	testb	%al, %al
	je	.L360
.L286:
.LVL247:
.LBB298:
.LBI298:
	.loc 3 467 1 is_stmt 1 view .LVU565
.LBB299:
	.loc 3 469 3 view .LVU566
	.loc 3 469 10 is_stmt 0 view .LVU567
	movl	%r12d, %esi
	movl	$1, %edi
	call	__fxstat@PLT
.LVL248:
	.loc 3 469 10 view .LVU568
.LBE299:
.LBE298:
	.loc 1 1010 21 view .LVU569
	testl	%eax, %eax
	js	.L350
	.loc 1 1033 8 is_stmt 1 view .LVU570
	.loc 1 1033 13 is_stmt 0 view .LVU571
	movl	40(%rsp), %edx
	movl	%edx, %eax
	andl	$61440, %eax
	subl	$4096, %eax
	.loc 1 1033 12 view .LVU572
	testl	$-8192, %eax
	je	.L290
	.loc 1 1033 13 view .LVU573
	andl	$45056, %edx
	.loc 1 1033 12 view .LVU574
	cmpl	$32768, %edx
	jne	.L361
.L290:
	.loc 1 1044 8 is_stmt 1 view .LVU575
	.loc 1 1044 25 is_stmt 0 view .LVU576
	movq	(%rbx), %rdi
	call	pretty_name.isra.0
.LVL249:
	movl	%r12d, %edi
	movq	%rax, %rsi
	call	fremote
.LVL250:
	.loc 1 1044 23 view .LVU577
	movb	%al, 53(%rbx)
	.loc 1 1044 11 view .LVU578
	testb	%al, %al
	je	.L295
	.loc 1 1044 56 discriminator 1 view .LVU579
	cmpb	$0, disable_inotify(%rip)
	je	.L362
.L295:
	.loc 1 1055 7 is_stmt 1 view .LVU580
	.loc 1 1065 11 is_stmt 0 view .LVU581
	andl	$-3, %r14d
.LVL251:
	.loc 1 1055 17 view .LVU582
	movl	$0, 60(%rbx)
	.loc 1 1058 3 is_stmt 1 view .LVU583
.LVL252:
	.loc 1 1059 3 view .LVU584
	.loc 1 1065 8 view .LVU585
	movl	56(%rbx), %eax
	.loc 1 1065 11 is_stmt 0 view .LVU586
	je	.L363
	.loc 1 1067 7 is_stmt 1 view .LVU587
.LVL253:
	.loc 1 1068 7 view .LVU588
	cmpl	$-1, %eax
	jne	.L364
	.loc 1 1069 7 view .LVU589
	movq	(%rbx), %rdi
	call	pretty_name.isra.0
.LVL254:
	movl	$4, %edi
	movq	%rax, %rsi
	call	quotearg_style@PLT
.LVL255:
	.loc 1 1069 20 is_stmt 0 view .LVU590
	movl	$5, %edx
	leaq	.LC22(%rip), %rsi
	.loc 1 1069 7 view .LVU591
	movq	%rax, %r14
.L352:
	.loc 1 1081 14 view .LVU592
	xorl	%edi, %edi
	call	dcgettext@PLT
.LVL256:
	.loc 1 1080 7 view .LVU593
	movq	%r14, %rcx
	xorl	%esi, %esi
	xorl	%edi, %edi
	.loc 1 1081 14 view .LVU594
	movq	%rax, %rdx
	.loc 1 1080 7 view .LVU595
	xorl	%eax, %eax
	call	error@PLT
.LVL257:
	.loc 1 1110 3 is_stmt 1 view .LVU596
.L300:
	.loc 1 1113 7 view .LVU597
	testl	%ebp, %ebp
	movl	$-1, %eax
	movzbl	%r13b, %r13d
.LBB300:
.LBB301:
	.loc 1 398 9 is_stmt 0 view .LVU598
	movl	%r12d, 56(%rbx)
.LBE301:
.LBE300:
	.loc 1 1113 7 view .LVU599
	cmove	%eax, %r13d
.LVL258:
.LBB305:
.LBI300:
	.loc 1 394 1 is_stmt 1 view .LVU600
.LBB302:
	.loc 1 398 3 view .LVU601
	.loc 1 399 3 view .LVU602
	.loc 1 400 14 is_stmt 0 view .LVU603
	movq	104(%rsp), %rax
.LBE302:
.LBE305:
	.loc 1 1114 7 view .LVU604
	movq	(%rbx), %rdi
.LBB306:
.LBB303:
	.loc 1 406 13 view .LVU605
	movb	$0, 52(%rbx)
	.loc 1 399 11 view .LVU606
	movq	$0, 8(%rbx)
	.loc 1 400 3 is_stmt 1 view .LVU607
.LVL259:
	.loc 1 400 3 is_stmt 0 view .LVU608
.LBE303:
.LBE306:
	.loc 5 149 3 is_stmt 1 view .LVU609
.LBB307:
.LBB304:
	.loc 1 400 14 is_stmt 0 view .LVU610
	movq	%rax, 16(%rbx)
	movq	112(%rsp), %rax
	.loc 1 404 15 view .LVU611
	movl	%r13d, 64(%rbx)
	.loc 1 400 14 view .LVU612
	movq	%rax, 24(%rbx)
	.loc 1 401 3 is_stmt 1 view .LVU613
	.loc 1 401 10 is_stmt 0 view .LVU614
	movq	16(%rsp), %rax
	.loc 1 405 24 view .LVU615
	movq	$0, 88(%rbx)
	.loc 1 401 10 view .LVU616
	movq	%rax, 32(%rbx)
	.loc 1 402 3 is_stmt 1 view .LVU617
	.loc 1 402 10 is_stmt 0 view .LVU618
	movq	24(%rsp), %rax
	movq	%rax, 40(%rbx)
	.loc 1 403 3 is_stmt 1 view .LVU619
	.loc 1 403 11 is_stmt 0 view .LVU620
	movl	40(%rsp), %eax
	movl	%eax, 48(%rbx)
	.loc 1 404 3 is_stmt 1 view .LVU621
	.loc 1 405 3 view .LVU622
	.loc 1 406 3 view .LVU623
.LVL260:
	.loc 1 406 3 is_stmt 0 view .LVU624
.LBE304:
.LBE307:
	.loc 1 1114 7 is_stmt 1 view .LVU625
	call	pretty_name.isra.0
.LVL261:
	xorl	%edx, %edx
	xorl	%esi, %esi
	movl	%r12d, %edi
	movq	%rax, %rcx
	call	xlseek
.LVL262:
	.loc 1 1116 1 is_stmt 0 view .LVU626
	jmp	.L276
.LVL263:
	.p2align 4,,10
	.p2align 3
.L359:
	.loc 1 995 15 view .LVU627
	movb	$0, 54(%rbx)
	.loc 1 997 3 is_stmt 1 view .LVU628
	movq	(%rbx), %r13
	.loc 1 997 6 is_stmt 0 view .LVU629
	testb	%al, %al
	je	.L308
	.loc 1 1012 7 is_stmt 1 view .LVU630
.LVL264:
	.loc 1 1013 7 view .LVU631
	.loc 1 1013 19 is_stmt 0 view .LVU632
	call	__errno_location@PLT
.LVL265:
	movl	(%rax), %eax
	.loc 1 1013 17 view .LVU633
	movl	%eax, 60(%rbx)
	.loc 1 1014 7 is_stmt 1 view .LVU634
.LVL266:
.L309:
	.loc 1 1016 11 view .LVU635
	.loc 1 1016 14 is_stmt 0 view .LVU636
	cmpb	$0, 7(%rsp)
	je	.L285
	.loc 1 1022 15 is_stmt 1 view .LVU637
	movq	%r13, %rdi
	call	pretty_name.isra.0
.LVL267:
	movl	$4, %edi
	movq	%rax, %rsi
	call	quotearg_style@PLT
.LVL268:
	.loc 1 1022 36 is_stmt 0 view .LVU638
	movl	$5, %edx
	leaq	.LC16(%rip), %rsi
	xorl	%edi, %edi
	.loc 1 1022 15 view .LVU639
	movq	%rax, %r13
	.loc 1 1022 36 view .LVU640
	call	dcgettext@PLT
.LVL269:
	.loc 1 1022 15 view .LVU641
	movl	60(%rbx), %esi
	movq	%r13, %rcx
	xorl	%edi, %edi
	.loc 1 1022 36 view .LVU642
	movq	%rax, %rdx
	.loc 1 1022 15 view .LVU643
	xorl	%eax, %eax
	call	error@PLT
.LVL270:
	.loc 1 1058 3 is_stmt 1 view .LVU644
	.loc 1 1059 3 view .LVU645
	movq	(%rbx), %r13
	jmp	.L285
.LVL271:
	.p2align 4,,10
	.p2align 3
.L357:
	.loc 1 1031 9 view .LVU646
	movq	%r13, %rdi
	call	pretty_name.isra.0
.LVL272:
	movl	$3, %esi
	xorl	%edi, %edi
	movq	%rax, %rdx
	call	quotearg_n_style_colon@PLT
.LVL273:
	movl	0(%rbp), %esi
	leaq	.LC17(%rip), %rdx
	xorl	%edi, %edi
	movq	%rax, %rcx
	xorl	%eax, %eax
	call	error@PLT
.LVL274:
	.loc 1 1058 3 view .LVU647
	.loc 1 1059 3 view .LVU648
	movq	(%rbx), %r13
	jmp	.L285
.LVL275:
	.p2align 4,,10
	.p2align 3
.L355:
.LBB308:
.LBI308:
	.loc 3 460 1 discriminator 1 view .LVU649
.LBB309:
	.loc 3 462 3 discriminator 1 view .LVU650
	.loc 3 462 10 is_stmt 0 discriminator 1 view .LVU651
	movq	(%rbx), %rsi
	leaq	16(%rsp), %rdx
.LVL276:
	.loc 3 462 10 discriminator 1 view .LVU652
	movl	$1, %edi
	call	__lxstat@PLT
.LVL277:
	.loc 3 462 10 discriminator 1 view .LVU653
.LBE309:
.LBE308:
	.loc 1 997 25 discriminator 1 view .LVU654
	testl	%eax, %eax
	jne	.L284
	.loc 1 998 10 view .LVU655
	movl	40(%rsp), %eax
	andl	$61440, %eax
	.loc 1 998 7 view .LVU656
	cmpl	$40960, %eax
	jne	.L284
	jmp	.L312
	.p2align 4,,10
	.p2align 3
.L356:
	.loc 1 998 7 view .LVU657
	leaq	16(%rsp), %rdx
	jmp	.L286
	.p2align 4,,10
	.p2align 3
.L360:
.LVL278:
.LBB312:
	.loc 3 460 1 is_stmt 1 view .LVU658
.LBB310:
	.loc 3 462 3 view .LVU659
	.loc 3 462 10 is_stmt 0 view .LVU660
	movq	(%rbx), %rsi
	movl	$1, %edi
	movq	%rdx, 8(%rsp)
	call	__lxstat@PLT
.LVL279:
	.loc 3 462 10 view .LVU661
.LBE310:
.LBE312:
	.loc 1 997 25 view .LVU662
	movq	8(%rsp), %rdx
	testl	%eax, %eax
	jne	.L286
	.loc 1 998 10 view .LVU663
	movl	40(%rsp), %eax
	andl	$61440, %eax
	.loc 1 998 7 view .LVU664
	cmpl	$40960, %eax
	jne	.L286
	jmp	.L312
.LVL280:
	.p2align 4,,10
	.p2align 3
.L363:
	.loc 1 1071 8 is_stmt 1 view .LVU665
	movq	(%rbx), %rdi
	.loc 1 1071 11 is_stmt 0 view .LVU666
	cmpl	$-1, %eax
	je	.L365
	.loc 1 1084 8 is_stmt 1 view .LVU667
	.loc 1 1084 11 is_stmt 0 view .LVU668
	movq	24(%rsp), %rax
	cmpq	%rax, 40(%rbx)
	jne	.L302
	.loc 1 1084 39 discriminator 1 view .LVU669
	movq	16(%rsp), %rax
	cmpq	%rax, 32(%rbx)
	jne	.L302
	.loc 1 1101 7 is_stmt 1 view .LVU670
	call	pretty_name.isra.0
.LVL281:
	movl	%r12d, %edi
	movq	%rax, %rsi
	call	close_fd
.LVL282:
	.loc 1 1110 3 view .LVU671
	jmp	.L276
	.p2align 4,,10
	.p2align 3
.L302:
	.loc 1 1088 7 view .LVU672
.LVL283:
	.loc 1 1090 7 view .LVU673
	call	pretty_name.isra.0
.LVL284:
	movl	$4, %edi
	movq	%rax, %rsi
	call	quotearg_style@PLT
.LVL285:
	.loc 1 1091 14 is_stmt 0 view .LVU674
	xorl	%edi, %edi
	movl	$5, %edx
	leaq	.LC24(%rip), %rsi
	.loc 1 1090 7 view .LVU675
	movq	%rax, %r14
	.loc 1 1091 14 view .LVU676
	call	dcgettext@PLT
.LVL286:
	.loc 1 1090 7 view .LVU677
	xorl	%esi, %esi
	movq	%r14, %rcx
	xorl	%edi, %edi
	.loc 1 1091 14 view .LVU678
	movq	%rax, %rdx
	.loc 1 1090 7 view .LVU679
	xorl	%eax, %eax
	call	error@PLT
.LVL287:
	.loc 1 1095 7 is_stmt 1 view .LVU680
	movq	(%rbx), %rdi
	call	pretty_name.isra.0
.LVL288:
	movl	56(%rbx), %edi
	movq	%rax, %rsi
	call	close_fd
.LVL289:
	.loc 1 1110 3 view .LVU681
	jmp	.L300
.LVL290:
	.p2align 4,,10
	.p2align 3
.L361:
	.loc 1 1035 7 view .LVU682
	.loc 1 1036 7 view .LVU683
	.loc 1 1036 17 is_stmt 0 view .LVU684
	movl	$-1, 60(%rbx)
	.loc 1 1037 7 is_stmt 1 view .LVU685
	.loc 1 1037 19 is_stmt 0 view .LVU686
	movb	$0, 54(%rbx)
	.loc 1 1038 7 is_stmt 1 view .LVU687
	.loc 1 1038 19 is_stmt 0 view .LVU688
	testb	%r15b, %r15b
	je	.L291
	.loc 1 1038 19 discriminator 2 view .LVU689
	cmpl	$1, follow_mode(%rip)
	jne	.L291
	.loc 1 1039 10 view .LVU690
	cmpb	$0, 7(%rsp)
	movq	(%rbx), %r13
	.loc 1 1038 17 view .LVU691
	movb	$0, 52(%rbx)
	.loc 1 1039 7 is_stmt 1 view .LVU692
	.loc 1 1039 10 is_stmt 0 view .LVU693
	je	.L366
	.loc 1 1040 9 view .LVU694
	leaq	.LC5(%rip), %rbp
.LVL291:
	.loc 1 1040 9 view .LVU695
	jmp	.L293
.LVL292:
	.p2align 4,,10
	.p2align 3
.L291:
	.loc 1 1039 10 view .LVU696
	cmpb	$0, 7(%rsp)
	.loc 1 1038 17 view .LVU697
	movb	$1, 52(%rbx)
	.loc 1 1039 7 is_stmt 1 view .LVU698
	.loc 1 1039 10 is_stmt 0 view .LVU699
	jne	.L294
	.loc 1 1039 24 view .LVU700
	cmpl	$-1, %r14d
	je	.L351
.L294:
	.loc 1 1042 28 view .LVU701
	movl	$5, %edx
	leaq	.LC18(%rip), %rsi
	xorl	%edi, %edi
	call	dcgettext@PLT
.LVL293:
	movq	(%rbx), %r13
	movq	%rax, %rbp
.LVL294:
.L293:
	.loc 1 1040 9 discriminator 2 view .LVU702
	movq	%r13, %rdi
	call	pretty_name.isra.0
.LVL295:
	movl	$4, %edi
	movq	%rax, %rsi
	call	quotearg_style@PLT
.LVL296:
	.loc 1 1040 22 discriminator 2 view .LVU703
	movl	$5, %edx
	leaq	.LC19(%rip), %rsi
	xorl	%edi, %edi
	.loc 1 1040 9 discriminator 2 view .LVU704
	movq	%rax, %r13
	.loc 1 1040 22 discriminator 2 view .LVU705
	call	dcgettext@PLT
.LVL297:
	.loc 1 1040 9 discriminator 2 view .LVU706
	movq	%rbp, %r8
	movq	%r13, %rcx
	xorl	%esi, %esi
	.loc 1 1040 22 discriminator 2 view .LVU707
	movq	%rax, %rdx
	.loc 1 1040 9 discriminator 2 view .LVU708
	xorl	%edi, %edi
	xorl	%eax, %eax
	call	error@PLT
.LVL298:
.L351:
	.loc 1 1058 3 is_stmt 1 discriminator 2 view .LVU709
	.loc 1 1059 3 discriminator 2 view .LVU710
	movq	(%rbx), %r13
	jmp	.L285
.LVL299:
	.p2align 4,,10
	.p2align 3
.L308:
.LBB313:
	.loc 3 460 1 view .LVU711
.LBB311:
	.loc 3 462 3 view .LVU712
	.loc 3 462 10 is_stmt 0 view .LVU713
	leaq	16(%rsp), %rdx
.LVL300:
	.loc 3 462 10 view .LVU714
	movq	%r13, %rsi
	movl	$1, %edi
	call	__lxstat@PLT
.LVL301:
	.loc 3 462 10 view .LVU715
.LBE311:
.LBE313:
	.loc 1 997 25 view .LVU716
	testl	%eax, %eax
	jne	.L350
	.loc 1 998 10 view .LVU717
	movl	40(%rsp), %eax
	andl	$61440, %eax
	.loc 1 998 7 view .LVU718
	cmpl	$40960, %eax
	jne	.L350
	.p2align 4,,10
	.p2align 3
.L312:
	.loc 1 1003 7 is_stmt 1 view .LVU719
.LVL302:
	.loc 1 1004 7 view .LVU720
	.loc 1 1004 17 is_stmt 0 view .LVU721
	movl	$-1, 60(%rbx)
	.loc 1 1005 7 is_stmt 1 view .LVU722
	.loc 1 1007 7 is_stmt 0 view .LVU723
	movq	(%rbx), %rdi
	.loc 1 1005 17 view .LVU724
	movb	$1, 52(%rbx)
	.loc 1 1007 7 is_stmt 1 view .LVU725
	call	pretty_name.isra.0
.LVL303:
	movl	$4, %edi
	movq	%rax, %rsi
	call	quotearg_style@PLT
.LVL304:
	.loc 1 1007 20 is_stmt 0 view .LVU726
	movl	$5, %edx
	leaq	.LC15(%rip), %rsi
	xorl	%edi, %edi
	.loc 1 1007 7 view .LVU727
	movq	%rax, %r13
	.loc 1 1007 20 view .LVU728
	call	dcgettext@PLT
.LVL305:
	.loc 1 1007 7 view .LVU729
	movq	%r13, %rcx
	xorl	%esi, %esi
	xorl	%edi, %edi
	.loc 1 1007 20 view .LVU730
	movq	%rax, %rdx
	.loc 1 1007 7 view .LVU731
	xorl	%eax, %eax
	call	error@PLT
.LVL306:
	.loc 1 1058 3 is_stmt 1 view .LVU732
	.loc 1 1059 3 view .LVU733
	movq	(%rbx), %r13
	jmp	.L285
.LVL307:
	.p2align 4,,10
	.p2align 3
.L362:
	.loc 1 1046 7 view .LVU734
	.loc 1 1047 7 view .LVU735
	.loc 1 1047 17 is_stmt 0 view .LVU736
	movl	$-1, 60(%rbx)
	.loc 1 1048 7 is_stmt 1 view .LVU737
	movq	(%rbx), %rdi
	call	pretty_name.isra.0
.LVL308:
	movl	$4, %edi
	movq	%rax, %rsi
	call	quotearg_style@PLT
.LVL309:
	.loc 1 1048 20 is_stmt 0 view .LVU738
	movl	$5, %edx
	leaq	.LC20(%rip), %rsi
	xorl	%edi, %edi
	.loc 1 1048 7 view .LVU739
	movq	%rax, %r13
	.loc 1 1048 20 view .LVU740
	call	dcgettext@PLT
.LVL310:
	.loc 1 1048 7 view .LVU741
	movq	%r13, %rcx
	xorl	%esi, %esi
	xorl	%edi, %edi
	.loc 1 1048 20 view .LVU742
	movq	%rax, %rdx
	.loc 1 1048 7 view .LVU743
	xorl	%eax, %eax
	call	error@PLT
.LVL311:
	.loc 1 1050 7 is_stmt 1 view .LVU744
	.loc 1 1051 7 view .LVU745
	.loc 1 1050 17 is_stmt 0 view .LVU746
	movl	$257, %eax
	movq	(%rbx), %r13
	movw	%ax, 52(%rbx)
	.loc 1 1058 3 is_stmt 1 view .LVU747
.LVL312:
	.loc 1 1059 3 view .LVU748
	jmp	.L285
.LVL313:
	.p2align 4,,10
	.p2align 3
.L365:
	.loc 1 1078 7 view .LVU749
	.loc 1 1080 7 view .LVU750
	call	pretty_name.isra.0
.LVL314:
	movl	$4, %edi
	movq	%rax, %rsi
	call	quotearg_style@PLT
.LVL315:
	.loc 1 1081 14 is_stmt 0 view .LVU751
	movl	$5, %edx
	leaq	.LC23(%rip), %rsi
	.loc 1 1080 7 view .LVU752
	movq	%rax, %r14
	jmp	.L352
.LVL316:
.L358:
	.loc 1 1116 1 view .LVU753
	call	__stack_chk_fail@PLT
.LVL317:
.L353:
	.loc 1 991 3 is_stmt 1 discriminator 1 view .LVU754
	leaq	__PRETTY_FUNCTION__.7810(%rip), %rcx
	movl	$991, %edx
	leaq	.LC13(%rip), %rsi
	leaq	.LC14(%rip), %rdi
	call	__assert_fail@PLT
.LVL318:
.L366:
	.loc 1 1039 24 is_stmt 0 view .LVU755
	addl	$1, %r14d
.LVL319:
	.loc 1 1040 9 view .LVU756
	leaq	.LC5(%rip), %rbp
.LVL320:
	.loc 1 1039 24 view .LVU757
	jne	.L293
	jmp	.L285
.LVL321:
.L364:
	.loc 1 1068 7 is_stmt 1 discriminator 1 view .LVU758
	leaq	__PRETTY_FUNCTION__.7810(%rip), %rcx
	movl	$1068, %edx
	leaq	.LC13(%rip), %rsi
	leaq	.LC21(%rip), %rdi
	call	__assert_fail@PLT
.LVL322:
	.cfi_endproc
.LFE166:
	.size	recheck, .-recheck
	.section	.rodata.str1.1
.LC25:
	.string	"tail"
.LC26:
	.string	" invocation"
	.section	.rodata.str1.8
	.align 8
.LC27:
	.string	"Try '%s --help' for more information.\n"
	.align 8
.LC28:
	.string	"Usage: %s [OPTION]... [FILE]...\n"
	.align 8
.LC29:
	.string	"Print the last %d lines of each FILE to standard output.\nWith more than one FILE, precede each with a header giving the file name.\n"
	.align 8
.LC30:
	.string	"\nWith no FILE, or when FILE is -, read standard input.\n"
	.align 8
.LC31:
	.string	"\nMandatory arguments to long options are mandatory for short options too.\n"
	.align 8
.LC32:
	.string	"  -c, --bytes=[+]NUM       output the last NUM bytes; or use -c +NUM to\n                             output starting with byte NUM of each file\n"
	.align 8
.LC33:
	.string	"  -f, --follow[={name|descriptor}]\n                           output appended data as the file grows;\n                             an absent option argument means 'descriptor'\n  -F                       same as --follow=name --retry\n"
	.align 8
.LC34:
	.ascii	"  -n, --lines=[+]NUM       output the last NUM lines, instea"
	.ascii	"d of the last %d;\n                             or use -n +N"
	.ascii	"UM to output starting with line NUM\n      --max-unchanged-s"
	.ascii	"tats=N\n                           with --follow=name, reope"
	.ascii	"n a FILE which has not\n                             changed"
	.ascii	" "
	.string	"size after N (default %d) iterations\n                             to see if it has been unlinked or renamed\n                             (this is the usual case of rotated log files);\n                             with inotify, this option is rarely useful\n"
	.align 8
.LC35:
	.string	"      --pid=PID            with -f, terminate after process ID, PID dies\n  -q, --quiet, --silent    never output headers giving file names\n      --retry              keep trying to open a file if it is inaccessible\n"
	.align 8
.LC36:
	.ascii	"  -s, --sleep-interval=N   with -f, sleep for approximately "
	.ascii	"N seconds\n    "
	.string	"                         (default 1.0) between iterations;\n                             with inotify and --pid=P, check process P at\n                             least once every N seconds\n  -v, --verbose            always output headers giving file names\n"
	.align 8
.LC37:
	.string	"  -z, --zero-terminated    line delimiter is NUL, not newline\n"
	.align 8
.LC38:
	.string	"      --help     display this help and exit\n"
	.align 8
.LC39:
	.string	"      --version  output version information and exit\n"
	.align 8
.LC40:
	.string	"\nNUM may have a multiplier suffix:\nb 512, kB 1000, K 1024, MB 1000*1000, M 1024*1024,\nGB 1000*1000*1000, G 1024*1024*1024, and so on for T, P, E, Z, Y.\nBinary prefixes can be used, too: KiB=K, MiB=M, and so on.\n\n"
	.align 8
.LC41:
	.ascii	"With --follow (-f), tail defaults to following the file desc"
	.ascii	"riptor, which\nmeans that even if a tail'ed file is renamed,"
	.ascii	" tail will continue to track\nits end.  This default behavio"
	.ascii	"r "
	.string	"is not desirable when you really want to\ntrack the actual name of the file, not the file descriptor (e.g., log\nrotation).  Use --follow=name in that case.  That causes tail to track the\nnamed file in a way that accommodates renaming, removal and creation.\n"
	.section	.rodata.str1.1
.LC42:
	.string	"["
.LC43:
	.string	"test invocation"
.LC44:
	.string	"coreutils"
.LC45:
	.string	"Multi-call invocation"
.LC46:
	.string	"sha224sum"
.LC47:
	.string	"sha2 utilities"
.LC48:
	.string	"sha256sum"
.LC49:
	.string	"sha384sum"
.LC50:
	.string	"sha512sum"
.LC51:
	.string	"\n%s online help: <%s>\n"
	.section	.rodata.str1.8
	.align 8
.LC52:
	.string	"https://www.gnu.org/software/coreutils/"
	.section	.rodata.str1.1
.LC53:
	.string	"GNU coreutils"
.LC54:
	.string	"en_"
	.section	.rodata.str1.8
	.align 8
.LC55:
	.string	"Report any translation bugs to <https://translationproject.org/team/>\n"
	.section	.rodata.str1.1
.LC56:
	.string	"Full documentation <%s%s>\n"
	.section	.rodata.str1.8
	.align 8
.LC57:
	.string	"or available locally via: info '(coreutils) %s%s'\n"
	.text
	.p2align 4
	.globl	usage
	.type	usage, @function
usage:
.LVL323:
.LFB149:
	.loc 1 260 1 view -0
	.cfi_startproc
	.loc 1 260 1 is_stmt 0 view .LVU760
	endbr64
	pushq	%r13
	.cfi_def_cfa_offset 16
	.cfi_offset 13, -16
	.loc 1 262 5 view .LVU761
	movl	$5, %edx
	.loc 1 260 1 view .LVU762
	pushq	%r12
	.cfi_def_cfa_offset 24
	.cfi_offset 12, -24
	pushq	%rbp
	.cfi_def_cfa_offset 32
	.cfi_offset 6, -32
	movl	%edi, %ebp
	pushq	%rbx
	.cfi_def_cfa_offset 40
	.cfi_offset 3, -40
	subq	$136, %rsp
	.cfi_def_cfa_offset 176
	movq	program_name(%rip), %r12
	.loc 1 260 1 view .LVU763
	movq	%fs:40, %rax
	movq	%rax, 120(%rsp)
	xorl	%eax, %eax
	.loc 1 261 3 is_stmt 1 view .LVU764
	.loc 1 261 6 is_stmt 0 view .LVU765
	testl	%edi, %edi
	je	.L368
	.loc 1 262 5 is_stmt 1 view .LVU766
	.loc 1 262 5 view .LVU767
	leaq	.LC27(%rip), %rsi
	xorl	%edi, %edi
.LVL324:
	.loc 1 262 5 is_stmt 0 view .LVU768
	call	dcgettext@PLT
.LVL325:
.LBB334:
.LBB335:
	.loc 2 100 10 view .LVU769
	movq	stderr(%rip), %rdi
	movq	%r12, %rcx
	movl	$1, %esi
.LBE335:
.LBE334:
	.loc 1 262 5 view .LVU770
	movq	%rax, %rdx
.LVL326:
.LBB337:
.LBI334:
	.loc 2 98 1 is_stmt 1 view .LVU771
.LBB336:
	.loc 2 100 3 view .LVU772
	.loc 2 100 10 is_stmt 0 view .LVU773
	xorl	%eax, %eax
.LVL327:
	.loc 2 100 10 view .LVU774
	call	__fprintf_chk@PLT
.LVL328:
.L369:
	.loc 2 100 10 view .LVU775
.LBE336:
.LBE337:
	.loc 1 335 3 is_stmt 1 view .LVU776
	movl	%ebp, %edi
	call	exit@PLT
.LVL329:
.L368:
	.loc 1 265 7 view .LVU777
	.loc 1 265 15 is_stmt 0 view .LVU778
	xorl	%edi, %edi
.LVL330:
	.loc 1 265 15 view .LVU779
	leaq	.LC28(%rip), %rsi
.LBB338:
.LBB339:
	.file 7 "src/system.h"
	.loc 7 636 67 view .LVU780
	leaq	.LC48(%rip), %rbx
.LBE339:
.LBE338:
	.loc 1 265 15 view .LVU781
	call	dcgettext@PLT
.LVL331:
.LBB365:
.LBB366:
	.loc 2 107 10 view .LVU782
	movq	%r12, %rdx
	movl	$1, %edi
.LBE366:
.LBE365:
	.loc 1 265 15 view .LVU783
	movq	%rax, %rsi
.LVL332:
.LBB368:
.LBI365:
	.loc 2 105 1 is_stmt 1 view .LVU784
.LBB367:
	.loc 2 107 3 view .LVU785
	.loc 2 107 10 is_stmt 0 view .LVU786
	xorl	%eax, %eax
.LVL333:
	.loc 2 107 10 view .LVU787
	call	__printf_chk@PLT
.LVL334:
	.loc 2 107 10 view .LVU788
.LBE367:
.LBE368:
	.loc 1 269 7 is_stmt 1 view .LVU789
	.loc 1 269 15 is_stmt 0 view .LVU790
	xorl	%edi, %edi
	movl	$5, %edx
	leaq	.LC29(%rip), %rsi
	call	dcgettext@PLT
.LVL335:
.LBB369:
.LBB370:
	.loc 2 107 10 view .LVU791
	movl	$10, %edx
	movl	$1, %edi
.LBE370:
.LBE369:
	.loc 1 269 15 view .LVU792
	movq	%rax, %rsi
.LVL336:
.LBB372:
.LBI369:
	.loc 2 105 1 is_stmt 1 view .LVU793
.LBB371:
	.loc 2 107 3 view .LVU794
	.loc 2 107 10 is_stmt 0 view .LVU795
	xorl	%eax, %eax
.LVL337:
	.loc 2 107 10 view .LVU796
	call	__printf_chk@PLT
.LVL338:
	.loc 2 107 10 view .LVU797
.LBE371:
.LBE372:
	.loc 1 274 7 is_stmt 1 view .LVU798
.LBB373:
.LBI373:
	.loc 7 581 1 view .LVU799
.LBB374:
	.loc 7 583 3 view .LVU800
	movq	stdout(%rip), %r12
	xorl	%edi, %edi
	movl	$5, %edx
	leaq	.LC30(%rip), %rsi
	call	dcgettext@PLT
.LVL339:
	movq	%r12, %rsi
	movq	%rax, %rdi
	call	fputs_unlocked@PLT
.LVL340:
.LBE374:
.LBE373:
	.loc 1 275 7 view .LVU801
.LBB375:
.LBI375:
	.loc 7 588 1 view .LVU802
.LBB376:
	.loc 7 590 3 view .LVU803
	movq	stdout(%rip), %r12
	xorl	%edi, %edi
	movl	$5, %edx
	leaq	.LC31(%rip), %rsi
	call	dcgettext@PLT
.LVL341:
	movq	%r12, %rsi
	movq	%rax, %rdi
	call	fputs_unlocked@PLT
.LVL342:
.LBE376:
.LBE375:
	.loc 1 277 6 view .LVU804
	movq	stdout(%rip), %r12
	xorl	%edi, %edi
	movl	$5, %edx
	leaq	.LC32(%rip), %rsi
	call	dcgettext@PLT
.LVL343:
	movq	%r12, %rsi
	movq	%rax, %rdi
	call	fputs_unlocked@PLT
.LVL344:
	.loc 1 281 6 view .LVU805
	movq	stdout(%rip), %r12
	xorl	%edi, %edi
	movl	$5, %edx
	leaq	.LC33(%rip), %rsi
	call	dcgettext@PLT
.LVL345:
	movq	%r12, %rsi
	movq	%rax, %rdi
	call	fputs_unlocked@PLT
.LVL346:
	.loc 1 287 6 view .LVU806
	.loc 1 287 14 is_stmt 0 view .LVU807
	xorl	%edi, %edi
	movl	$5, %edx
	leaq	.LC34(%rip), %rsi
	call	dcgettext@PLT
.LVL347:
.LBB377:
.LBB378:
	.loc 2 107 10 view .LVU808
	movl	$5, %ecx
	movl	$10, %edx
	movl	$1, %edi
.LBE378:
.LBE377:
	.loc 1 287 14 view .LVU809
	movq	%rax, %rsi
.LVL348:
.LBB380:
.LBI377:
	.loc 2 105 1 is_stmt 1 view .LVU810
.LBB379:
	.loc 2 107 3 view .LVU811
	.loc 2 107 10 is_stmt 0 view .LVU812
	xorl	%eax, %eax
.LVL349:
	.loc 2 107 10 view .LVU813
	call	__printf_chk@PLT
.LVL350:
	.loc 2 107 10 view .LVU814
.LBE379:
.LBE380:
	.loc 1 300 6 is_stmt 1 view .LVU815
	movq	stdout(%rip), %r12
	xorl	%edi, %edi
	movl	$5, %edx
	leaq	.LC35(%rip), %rsi
	call	dcgettext@PLT
.LVL351:
	movq	%r12, %rsi
	movq	%rax, %rdi
	call	fputs_unlocked@PLT
.LVL352:
	.loc 1 305 6 view .LVU816
	movq	stdout(%rip), %r12
	xorl	%edi, %edi
	movl	$5, %edx
	leaq	.LC36(%rip), %rsi
	call	dcgettext@PLT
.LVL353:
	movq	%r12, %rsi
	movq	%rax, %rdi
	call	fputs_unlocked@PLT
.LVL354:
	.loc 1 312 6 view .LVU817
	movq	stdout(%rip), %r12
	xorl	%edi, %edi
	movl	$5, %edx
	leaq	.LC37(%rip), %rsi
	call	dcgettext@PLT
.LVL355:
	movq	%r12, %rsi
	movq	%rax, %rdi
	call	fputs_unlocked@PLT
.LVL356:
	.loc 1 315 6 view .LVU818
	movq	stdout(%rip), %r12
	movl	$5, %edx
	xorl	%edi, %edi
	leaq	.LC38(%rip), %rsi
	call	dcgettext@PLT
.LVL357:
	movq	%r12, %rsi
	movq	%rax, %rdi
	call	fputs_unlocked@PLT
.LVL358:
	.loc 1 316 6 view .LVU819
	movq	stdout(%rip), %r12
	movl	$5, %edx
	xorl	%edi, %edi
	leaq	.LC39(%rip), %rsi
	call	dcgettext@PLT
.LVL359:
	movq	%r12, %rsi
	movq	%rax, %rdi
	call	fputs_unlocked@PLT
.LVL360:
	.loc 1 317 6 view .LVU820
	movq	stdout(%rip), %r12
	movl	$5, %edx
	xorl	%edi, %edi
	leaq	.LC40(%rip), %rsi
	call	dcgettext@PLT
.LVL361:
	movq	%r12, %rsi
	movq	%rax, %rdi
	call	fputs_unlocked@PLT
.LVL362:
	.loc 1 325 6 view .LVU821
	movq	stdout(%rip), %r12
	movl	$5, %edx
	xorl	%edi, %edi
	leaq	.LC41(%rip), %rsi
	call	dcgettext@PLT
.LVL363:
	movq	%r12, %rsi
	movq	%rax, %rdi
	call	fputs_unlocked@PLT
.LVL364:
	.loc 1 333 7 view .LVU822
.LBB381:
.LBI338:
	.loc 7 634 1 view .LVU823
.LBB364:
	.loc 7 636 3 view .LVU824
	.loc 7 636 67 is_stmt 0 view .LVU825
	leaq	.LC42(%rip), %rax
	movq	%rbx, 48(%rsp)
	leaq	.LC49(%rip), %rbx
	movq	%rax, (%rsp)
	leaq	.LC43(%rip), %rax
	movq	%rax, 8(%rsp)
	leaq	.LC44(%rip), %rax
	movq	%rax, 16(%rsp)
	leaq	.LC45(%rip), %rax
	movq	%rax, 24(%rsp)
	leaq	.LC46(%rip), %rax
	movq	$0, 96(%rsp)
	movq	$0, 104(%rsp)
	.loc 7 646 3 is_stmt 1 view .LVU826
.LVL365:
	.loc 7 647 3 view .LVU827
	.loc 7 649 3 view .LVU828
	.loc 7 649 9 view .LVU829
	.loc 7 636 67 is_stmt 0 view .LVU830
	movq	%rax, 32(%rsp)
	leaq	.LC47(%rip), %rax
	movq	%rbx, 64(%rsp)
	leaq	.LC50(%rip), %rbx
	movq	%rax, 40(%rsp)
	movq	%rax, 56(%rsp)
	movq	%rax, 72(%rsp)
	movq	%rbx, 80(%rsp)
	leaq	.LC25(%rip), %rbx
	movq	%rax, 88(%rsp)
	.loc 7 647 25 view .LVU831
	movq	%rsp, %rax
.LVL366:
	.p2align 4,,10
	.p2align 3
.L371:
	.loc 7 650 5 is_stmt 1 view .LVU832
	.loc 7 649 18 is_stmt 0 view .LVU833
	movq	16(%rax), %rdi
	.loc 7 650 13 view .LVU834
	addq	$16, %rax
.LVL367:
	.loc 7 649 9 is_stmt 1 view .LVU835
	testq	%rdi, %rdi
	je	.L370
	.loc 7 649 33 is_stmt 0 view .LVU836
	movl	$5, %ecx
	movq	%rbx, %rsi
	repz cmpsb
	seta	%dl
	sbbb	$0, %dl
	.loc 7 649 28 view .LVU837
	testb	%dl, %dl
	jne	.L371
.L370:
	.loc 7 652 3 is_stmt 1 view .LVU838
	.loc 7 652 15 is_stmt 0 view .LVU839
	movq	8(%rax), %r12
	.loc 7 655 11 view .LVU840
	movl	$5, %edx
	leaq	.LC51(%rip), %rsi
	xorl	%edi, %edi
	.loc 7 652 6 view .LVU841
	testq	%r12, %r12
	je	.L372
	.loc 7 653 5 is_stmt 1 view .LVU842
.LVL368:
	.loc 7 655 3 view .LVU843
	.loc 7 655 11 is_stmt 0 view .LVU844
	call	dcgettext@PLT
.LVL369:
.LBB340:
.LBB341:
	.loc 2 107 10 view .LVU845
	leaq	.LC52(%rip), %rcx
	movl	$1, %edi
	leaq	.LC53(%rip), %rdx
.LBE341:
.LBE340:
	.loc 7 655 11 view .LVU846
	movq	%rax, %rsi
.LVL370:
.LBB345:
.LBI340:
	.loc 2 105 1 is_stmt 1 view .LVU847
.LBB342:
	.loc 2 107 3 view .LVU848
	.loc 2 107 10 is_stmt 0 view .LVU849
	xorl	%eax, %eax
.LVL371:
	.loc 2 107 10 view .LVU850
	call	__printf_chk@PLT
.LVL372:
	.loc 2 107 10 view .LVU851
.LBE342:
.LBE345:
	.loc 7 659 3 is_stmt 1 view .LVU852
	.loc 7 659 29 is_stmt 0 view .LVU853
	movl	$5, %edi
	xorl	%esi, %esi
	call	setlocale@PLT
.LVL373:
	movq	%rax, %rdi
.LVL374:
	.loc 7 660 3 is_stmt 1 view .LVU854
	.loc 7 660 6 is_stmt 0 view .LVU855
	testq	%rax, %rax
	je	.L373
	.loc 7 660 22 view .LVU856
	movl	$3, %edx
	leaq	.LC54(%rip), %rsi
	call	strncmp@PLT
.LVL375:
	.loc 7 660 19 view .LVU857
	testl	%eax, %eax
	jne	.L376
.LVL376:
.L373:
	.loc 7 669 3 is_stmt 1 view .LVU858
	.loc 7 669 11 is_stmt 0 view .LVU859
	xorl	%edi, %edi
	movl	$5, %edx
	leaq	.LC56(%rip), %rsi
	call	dcgettext@PLT
.LVL377:
.LBB346:
.LBB347:
	.loc 2 107 10 view .LVU860
	leaq	.LC25(%rip), %rcx
	leaq	.LC52(%rip), %rdx
	movl	$1, %edi
.LBE347:
.LBE346:
	.loc 7 669 11 view .LVU861
	movq	%rax, %rsi
.LVL378:
.LBB353:
.LBI346:
	.loc 2 105 1 is_stmt 1 view .LVU862
.LBB348:
	.loc 2 107 3 view .LVU863
	.loc 2 107 10 is_stmt 0 view .LVU864
	xorl	%eax, %eax
.LVL379:
	.loc 2 107 10 view .LVU865
.LBE348:
.LBE353:
	.loc 7 671 3 view .LVU866
	leaq	.LC26(%rip), %r13
.LBB354:
.LBB349:
	.loc 2 107 10 view .LVU867
	call	__printf_chk@PLT
.LVL380:
	.loc 2 107 10 view .LVU868
.LBE349:
.LBE354:
	.loc 7 671 3 is_stmt 1 view .LVU869
	cmpq	%rbx, %r12
	leaq	.LC5(%rip), %rcx
	cmovne	%rcx, %r13
.L374:
	.loc 7 671 11 is_stmt 0 view .LVU870
	xorl	%edi, %edi
	leaq	.LC57(%rip), %rsi
	movl	$5, %edx
	call	dcgettext@PLT
.LVL381:
.LBB355:
.LBB356:
	.loc 2 107 10 view .LVU871
	movq	%r13, %rcx
	movq	%r12, %rdx
	movl	$1, %edi
.LBE356:
.LBE355:
	.loc 7 671 11 view .LVU872
	movq	%rax, %rsi
.LVL382:
.LBB358:
.LBI355:
	.loc 2 105 1 is_stmt 1 view .LVU873
.LBB357:
	.loc 2 107 3 view .LVU874
	.loc 2 107 10 is_stmt 0 view .LVU875
	xorl	%eax, %eax
.LVL383:
	.loc 2 107 10 view .LVU876
	call	__printf_chk@PLT
.LVL384:
	.loc 2 107 10 view .LVU877
.LBE357:
.LBE358:
	.loc 7 673 1 view .LVU878
	jmp	.L369
.LVL385:
.L372:
	.loc 7 655 3 is_stmt 1 view .LVU879
	.loc 7 655 11 is_stmt 0 view .LVU880
	call	dcgettext@PLT
.LVL386:
.LBB359:
.LBB343:
	.loc 2 107 10 view .LVU881
	leaq	.LC52(%rip), %rcx
	movl	$1, %edi
	leaq	.LC53(%rip), %rdx
.LBE343:
.LBE359:
	.loc 7 655 11 view .LVU882
	movq	%rax, %rsi
.LVL387:
.LBB360:
	.loc 2 105 1 is_stmt 1 view .LVU883
.LBB344:
	.loc 2 107 3 view .LVU884
	.loc 2 107 10 is_stmt 0 view .LVU885
	xorl	%eax, %eax
.LVL388:
	.loc 2 107 10 view .LVU886
	call	__printf_chk@PLT
.LVL389:
	.loc 2 107 10 view .LVU887
.LBE344:
.LBE360:
	.loc 7 659 3 is_stmt 1 view .LVU888
	.loc 7 659 29 is_stmt 0 view .LVU889
	movl	$5, %edi
	xorl	%esi, %esi
	call	setlocale@PLT
.LVL390:
	movq	%rax, %rdi
.LVL391:
	.loc 7 660 3 is_stmt 1 view .LVU890
	.loc 7 660 6 is_stmt 0 view .LVU891
	testq	%rax, %rax
	je	.L375
	.loc 7 660 22 view .LVU892
	movl	$3, %edx
	leaq	.LC54(%rip), %rsi
	call	strncmp@PLT
.LVL392:
	.loc 7 660 19 view .LVU893
	testl	%eax, %eax
	jne	.L394
.L375:
	.loc 7 669 3 is_stmt 1 view .LVU894
	.loc 7 669 11 is_stmt 0 view .LVU895
	movl	$5, %edx
	leaq	.LC56(%rip), %rsi
	xorl	%edi, %edi
	call	dcgettext@PLT
.LVL393:
.LBB361:
.LBB350:
	.loc 2 107 10 view .LVU896
	leaq	.LC25(%rip), %rcx
	leaq	.LC52(%rip), %rdx
	movl	$1, %edi
.LBE350:
.LBE361:
	.loc 7 669 11 view .LVU897
	movq	%rax, %rsi
.LVL394:
.LBB362:
	.loc 2 105 1 is_stmt 1 view .LVU898
.LBB351:
	.loc 2 107 3 view .LVU899
	.loc 2 107 10 is_stmt 0 view .LVU900
	xorl	%eax, %eax
.LVL395:
	.loc 2 107 10 view .LVU901
.LBE351:
.LBE362:
	.loc 7 646 15 view .LVU902
	leaq	.LC25(%rip), %r12
.LBB363:
.LBB352:
	.loc 2 107 10 view .LVU903
	call	__printf_chk@PLT
.LVL396:
	.loc 2 107 10 view .LVU904
.LBE352:
.LBE363:
	.loc 7 671 3 is_stmt 1 view .LVU905
	leaq	.LC26(%rip), %r13
	jmp	.L374
.L394:
	.loc 7 646 15 is_stmt 0 view .LVU906
	leaq	.LC25(%rip), %r12
.LVL397:
.L376:
	.loc 7 666 7 is_stmt 1 view .LVU907
	movq	stdout(%rip), %r13
	xorl	%edi, %edi
	movl	$5, %edx
	leaq	.LC55(%rip), %rsi
	call	dcgettext@PLT
.LVL398:
	movq	%rax, %rdi
	movq	%r13, %rsi
	call	fputs_unlocked@PLT
.LVL399:
	jmp	.L373
.LBE364:
.LBE381:
	.cfi_endproc
.LFE149:
	.size	usage, .-usage
	.section	.rodata.str1.1
.LC59:
	.string	"."
.LC60:
	.string	"/usr/local/share/locale"
.LC61:
	.string	"--"
.LC62:
	.string	"b"
.LC63:
	.string	"invalid number"
.LC64:
	.string	"%s: %s"
.LC65:
	.string	"invalid number of lines"
.LC66:
	.string	"invalid number of bytes"
.LC67:
	.string	"bkKmMGTPEZY0"
.LC68:
	.string	"--follow"
	.section	.rodata.str1.8
	.align 8
.LC69:
	.string	"invalid maximum number of unchanged stats between opens"
	.section	.rodata.str1.1
.LC70:
	.string	"invalid PID"
.LC72:
	.string	"invalid number of seconds: %s"
.LC73:
	.string	"David MacKenzie"
.LC74:
	.string	"Paul Rubin"
.LC75:
	.string	"Jim Meyering"
.LC76:
	.string	"Ian Lance Taylor"
	.section	.rodata.str1.8
	.align 8
.LC77:
	.string	"option used in invalid context -- %c"
	.section	.rodata.str1.1
.LC78:
	.string	"c:n:fFqs:vz0123456789"
	.section	.rodata.str1.8
	.align 8
.LC79:
	.string	"warning: --retry ignored; --retry is useful only when following"
	.align 8
.LC80:
	.string	"warning: --retry only effective for the initial open"
	.align 8
.LC81:
	.string	"warning: PID ignored; --pid=PID is useful only when following"
	.align 8
.LC82:
	.string	"warning: --pid=PID is not supported on this system"
	.section	.rodata.str1.1
.LC83:
	.string	"0 <= argc"
.LC84:
	.string	"-"
.LC85:
	.string	"cannot follow %s by name"
	.section	.rodata.str1.8
	.align 8
.LC86:
	.string	"warning: following standard input indefinitely is ineffective"
	.section	.rodata.str1.1
.LC87:
	.string	"cannot open %s for reading"
.LC88:
	.string	"cannot fstat %s"
.LC89:
	.string	"beg"
	.section	.rodata.str1.8
	.align 8
.LC90:
	.string	"%s: cannot follow end of this type of file%s"
	.align 8
.LC91:
	.string	"cannot watch parent directory of %s"
	.section	.rodata.str1.1
.LC92:
	.string	"inotify resources exhausted"
.LC93:
	.string	"cannot watch %s"
.LC94:
	.string	"%s was replaced"
.LC95:
	.string	"no files remaining"
	.section	.rodata.str1.8
	.align 8
.LC96:
	.string	"error waiting for inotify and output events"
	.section	.rodata.str1.1
.LC97:
	.string	"error reading inotify event"
	.section	.rodata.str1.8
	.align 8
.LC98:
	.string	"directory containing watched file was removed"
	.align 8
.LC99:
	.string	"inotify cannot be used, reverting to polling"
	.align 8
.LC100:
	.string	"%s: cannot change nonblocking mode"
	.section	.rodata.str1.1
.LC101:
	.string	"cannot read realtime clock"
	.section	.text.startup,"ax",@progbits
	.p2align 4
	.globl	main
	.type	main, @function
main:
.LVL400:
.LFB185:
	.loc 1 2332 1 view -0
	.cfi_startproc
	.loc 1 2332 1 is_stmt 0 view .LVU909
	endbr64
	pushq	%r15
	.cfi_def_cfa_offset 16
	.cfi_offset 15, -16
	pushq	%r14
	.cfi_def_cfa_offset 24
	.cfi_offset 14, -24
	pushq	%r13
	.cfi_def_cfa_offset 32
	.cfi_offset 13, -32
	pushq	%r12
	.cfi_def_cfa_offset 40
	.cfi_offset 12, -40
	movl	%edi, %r12d
	pushq	%rbp
	.cfi_def_cfa_offset 48
	.cfi_offset 6, -48
	pushq	%rbx
	.cfi_def_cfa_offset 56
	.cfi_offset 3, -56
	movq	%rsi, %rbx
	subq	$696, %rsp
	.cfi_def_cfa_offset 752
	.loc 1 2351 3 view .LVU910
	movq	(%rsi), %rdi
.LVL401:
	.loc 1 2332 1 view .LVU911
	movq	%fs:40, %rax
	movq	%rax, 680(%rsp)
	xorl	%eax, %eax
	.loc 1 2333 3 is_stmt 1 view .LVU912
.LVL402:
	.loc 1 2334 3 view .LVU913
	.loc 1 2338 3 view .LVU914
	.loc 1 2338 13 is_stmt 0 view .LVU915
	movq	$10, 128(%rsp)
	.loc 1 2339 3 is_stmt 1 view .LVU916
	.loc 1 2340 3 view .LVU917
	.loc 1 2341 3 view .LVU918
	.loc 1 2342 3 view .LVU919
	.loc 1 2343 3 view .LVU920
	.loc 1 2348 3 view .LVU921
.LVL403:
	.loc 1 2350 33 view .LVU922
	.loc 1 2351 3 view .LVU923
	call	set_program_name@PLT
.LVL404:
	.loc 1 2352 3 view .LVU924
	leaq	.LC5(%rip), %rsi
	movl	$6, %edi
	call	setlocale@PLT
.LVL405:
	.loc 1 2353 3 view .LVU925
	leaq	.LC60(%rip), %rsi
	leaq	.LC44(%rip), %rdi
	call	bindtextdomain@PLT
.LVL406:
	.loc 1 2354 3 view .LVU926
	leaq	.LC44(%rip), %rdi
	call	textdomain@PLT
.LVL407:
	.loc 1 2356 3 view .LVU927
	movq	close_stdout@GOTPCREL(%rip), %rdi
	call	atexit@PLT
.LVL408:
	.loc 1 2358 3 view .LVU928
	.loc 1 2358 19 is_stmt 0 view .LVU929
	movb	$0, have_read_stdin(%rip)
	.loc 1 2360 3 is_stmt 1 view .LVU930
	.loc 1 2360 15 is_stmt 0 view .LVU931
	movb	$1, count_lines(%rip)
	.loc 1 2361 3 is_stmt 1 view .LVU932
	.loc 1 2361 40 is_stmt 0 view .LVU933
	movb	$0, print_headers(%rip)
	.loc 1 2361 24 view .LVU934
	movb	$0, from_start(%rip)
	.loc 1 2361 11 view .LVU935
	movb	$0, forever(%rip)
	.loc 1 2362 3 is_stmt 1 view .LVU936
	.loc 1 2362 12 is_stmt 0 view .LVU937
	movb	$10, line_end(%rip)
	.loc 1 2363 3 is_stmt 1 view .LVU938
.LVL409:
.LBB520:
.LBI520:
	.loc 1 2090 1 view .LVU939
.LBB521:
	.loc 1 2092 3 view .LVU940
	.loc 1 2093 3 view .LVU941
	.loc 1 2094 3 view .LVU942
	.loc 1 2095 3 view .LVU943
	.loc 1 2096 3 view .LVU944
	.loc 1 2097 3 view .LVU945
	.loc 1 2098 3 view .LVU946
	.loc 1 2102 3 view .LVU947
	.loc 1 2102 6 is_stmt 0 view .LVU948
	cmpl	$2, %r12d
	je	.L396
	.loc 1 2103 10 view .LVU949
	cmpl	$3, %r12d
	je	.L944
	.loc 1 2102 7 view .LVU950
	cmpl	$4, %r12d
	jne	.L937
	movq	16(%rbx), %rdi
.L398:
	.loc 1 2104 40 view .LVU951
	leaq	.LC61(%rip), %rsi
	call	strcmp@PLT
.LVL410:
	.loc 1 2104 37 view .LVU952
	testl	%eax, %eax
	jne	.L937
.L396:
	.loc 1 2107 3 is_stmt 1 view .LVU953
	.loc 1 2107 19 is_stmt 0 view .LVU954
	call	posix2_version@PLT
.LVL411:
	.loc 1 2108 3 is_stmt 1 view .LVU955
	.loc 1 2109 3 view .LVU956
	.loc 1 2110 3 view .LVU957
	.loc 1 2110 5 is_stmt 0 view .LVU958
	movq	8(%rbx), %rdx
.LVL412:
	.loc 1 2112 3 is_stmt 1 view .LVU959
	.loc 1 2112 11 is_stmt 0 view .LVU960
	movzbl	(%rdx), %ecx
	.loc 1 2112 13 view .LVU961
	leaq	1(%rdx), %rdi
.LVL413:
	.loc 1 2112 3 view .LVU962
	cmpb	$43, %cl
	je	.L401
	cmpb	$45, %cl
	je	.L402
.LVL414:
.L937:
	.loc 1 2112 3 view .LVU963
	xorl	%eax, %eax
.L399:
.LVL415:
	.loc 1 2112 3 view .LVU964
.LBE521:
.LBE520:
	.loc 1 2364 3 is_stmt 1 view .LVU965
	.loc 1 2348 10 is_stmt 0 view .LVU966
	movsd	.LC58(%rip), %xmm2
	.loc 1 2364 8 view .LVU967
	movzbl	%al, %edx
	.loc 1 2365 8 view .LVU968
	leaq	(%rbx,%rax,8), %r13
	.loc 1 2333 20 view .LVU969
	xorl	%ebx, %ebx
.LVL416:
	.loc 1 2364 8 view .LVU970
	subl	%edx, %r12d
.LVL417:
	.loc 1 2365 3 is_stmt 1 view .LVU971
	.loc 1 2366 3 view .LVU972
.LBB528:
.LBI528:
	.loc 1 2177 1 view .LVU973
	leaq	.L417(%rip), %rbp
.LBB529:
.LBB530:
	.loc 1 2243 24 is_stmt 0 view .LVU974
	movl	$2, %r15d
.LBE530:
.LBE529:
.LBE528:
	.loc 1 2348 10 view .LVU975
	movsd	%xmm2, 72(%rsp)
.LBB547:
.LBB541:
.LBB534:
.LBB531:
	.loc 1 2249 20 view .LVU976
	leaq	160(%rsp), %r14
.LVL418:
.L411:
	.loc 1 2249 20 view .LVU977
.LBE531:
.LBE534:
	.loc 1 2183 9 is_stmt 1 view .LVU978
	.loc 1 2183 15 is_stmt 0 view .LVU979
	leaq	long_options(%rip), %rcx
	xorl	%r8d, %r8d
	movq	%r13, %rsi
	movl	%r12d, %edi
	leaq	.LC78(%rip), %rdx
	call	getopt_long@PLT
.LVL419:
	movl	%eax, %ecx
.LVL420:
	.loc 1 2183 9 view .LVU980
	cmpl	$-1, %eax
	je	.L945
	.loc 1 2187 7 is_stmt 1 view .LVU981
	cmpl	$133, %ecx
	jg	.L412
	cmpl	$47, %ecx
	jle	.L946
	leal	-48(%rcx), %eax
.LVL421:
	.loc 1 2187 7 is_stmt 0 view .LVU982
	cmpl	$85, %eax
	ja	.L412
	movslq	0(%rbp,%rax,4), %rax
	addq	%rbp, %rax
	notrack jmp	*%rax
	.section	.rodata
	.align 4
	.align 4
.L417:
	.long	.L429-.L417
	.long	.L429-.L417
	.long	.L429-.L417
	.long	.L429-.L417
	.long	.L429-.L417
	.long	.L429-.L417
	.long	.L429-.L417
	.long	.L429-.L417
	.long	.L429-.L417
	.long	.L429-.L417
	.long	.L412-.L417
	.long	.L412-.L417
	.long	.L412-.L417
	.long	.L412-.L417
	.long	.L412-.L417
	.long	.L412-.L417
	.long	.L412-.L417
	.long	.L412-.L417
	.long	.L412-.L417
	.long	.L412-.L417
	.long	.L412-.L417
	.long	.L412-.L417
	.long	.L428-.L417
	.long	.L412-.L417
	.long	.L412-.L417
	.long	.L412-.L417
	.long	.L412-.L417
	.long	.L412-.L417
	.long	.L412-.L417
	.long	.L412-.L417
	.long	.L412-.L417
	.long	.L412-.L417
	.long	.L412-.L417
	.long	.L412-.L417
	.long	.L412-.L417
	.long	.L412-.L417
	.long	.L412-.L417
	.long	.L412-.L417
	.long	.L412-.L417
	.long	.L412-.L417
	.long	.L412-.L417
	.long	.L412-.L417
	.long	.L412-.L417
	.long	.L412-.L417
	.long	.L412-.L417
	.long	.L412-.L417
	.long	.L412-.L417
	.long	.L412-.L417
	.long	.L412-.L417
	.long	.L412-.L417
	.long	.L412-.L417
	.long	.L427-.L417
	.long	.L412-.L417
	.long	.L412-.L417
	.long	.L418-.L417
	.long	.L412-.L417
	.long	.L412-.L417
	.long	.L412-.L417
	.long	.L412-.L417
	.long	.L412-.L417
	.long	.L412-.L417
	.long	.L412-.L417
	.long	.L427-.L417
	.long	.L412-.L417
	.long	.L412-.L417
	.long	.L716-.L417
	.long	.L412-.L417
	.long	.L425-.L417
	.long	.L412-.L417
	.long	.L412-.L417
	.long	.L424-.L417
	.long	.L412-.L417
	.long	.L412-.L417
	.long	.L412-.L417
	.long	.L423-.L417
	.long	.L412-.L417
	.long	.L412-.L417
	.long	.L412-.L417
	.long	.L412-.L417
	.long	.L412-.L417
	.long	.L422-.L417
	.long	.L421-.L417
	.long	.L420-.L417
	.long	.L419-.L417
	.long	.L418-.L417
	.long	.L416-.L417
	.section	.text.startup
.L424:
	movl	$1, %ebx
.LVL422:
	.loc 1 2187 7 view .LVU983
	jmp	.L411
.LVL423:
.L716:
.LBB535:
	.loc 1 2243 24 view .LVU984
	movl	$2, %ebx
.LVL424:
	.loc 1 2243 24 view .LVU985
	jmp	.L411
.LVL425:
.L425:
.LBB533:
	.loc 1 2248 13 is_stmt 1 view .LVU986
	.loc 1 2249 13 view .LVU987
	.loc 1 2249 20 is_stmt 0 view .LVU988
	movq	cl_strtod@GOTPCREL(%rip), %rcx
.LVL426:
	.loc 1 2249 20 view .LVU989
	movq	optarg(%rip), %rdi
	xorl	%esi, %esi
	movq	%r14, %rdx
	call	xstrtod@PLT
.LVL427:
	.loc 1 2249 16 view .LVU990
	testb	%al, %al
	je	.L435
	.loc 1 2249 63 view .LVU991
	movsd	160(%rsp), %xmm1
	.loc 1 2249 17 view .LVU992
	pxor	%xmm3, %xmm3
	comisd	%xmm3, %xmm1
	.loc 1 2249 63 view .LVU993
	movsd	%xmm1, 72(%rsp)
.LVL428:
	.loc 1 2249 17 view .LVU994
	jnb	.L411
.L435:
.LBB532:
	.loc 1 2250 15 is_stmt 1 view .LVU995
	movq	optarg(%rip), %rdi
	call	quote@PLT
.LVL429:
	movl	$5, %edx
	leaq	.LC72(%rip), %rsi
	xorl	%edi, %edi
	movq	%rax, %r12
.LVL430:
	.loc 1 2250 15 is_stmt 0 view .LVU996
	call	dcgettext@PLT
.LVL431:
	movq	%r12, %rcx
	xorl	%esi, %esi
	movl	$1, %edi
	movq	%rax, %rdx
	xorl	%eax, %eax
	call	error@PLT
.LVL432:
.L418:
	.loc 1 2250 15 view .LVU997
.LBE532:
.LBE533:
	.loc 1 2211 11 is_stmt 1 view .LVU998
	.loc 1 2212 22 is_stmt 0 view .LVU999
	movq	optarg(%rip), %rsi
	.loc 1 2211 19 view .LVU1000
	movb	$1, forever(%rip)
	.loc 1 2212 11 is_stmt 1 view .LVU1001
	.loc 1 2212 14 is_stmt 0 view .LVU1002
	testq	%rsi, %rsi
	je	.L947
	.loc 1 2215 13 is_stmt 1 view .LVU1003
	.loc 1 2215 27 is_stmt 0 view .LVU1004
	movq	argmatch_die(%rip), %r9
	movl	$4, %r8d
	leaq	follow_mode_map(%rip), %rcx
.LVL433:
	.loc 1 2215 27 view .LVU1005
	leaq	follow_mode_string(%rip), %rdx
	leaq	.LC68(%rip), %rdi
	call	__xargmatch_internal@PLT
.LVL434:
	movq	%rax, %r8
	leaq	follow_mode_map(%rip), %rax
	.loc 1 2215 25 view .LVU1006
	movl	(%rax,%r8,4), %eax
	movl	%eax, follow_mode(%rip)
	jmp	.L411
.LVL435:
.L427:
	.loc 1 2197 11 is_stmt 1 view .LVU1007
	.loc 1 2198 15 is_stmt 0 view .LVU1008
	movq	optarg(%rip), %rax
	.loc 1 2197 28 view .LVU1009
	cmpl	$110, %ecx
	.loc 1 2197 23 view .LVU1010
	sete	count_lines(%rip)
	.loc 1 2198 11 is_stmt 1 view .LVU1011
	.loc 1 2198 15 is_stmt 0 view .LVU1012
	movzbl	(%rax), %edx
	.loc 1 2198 14 view .LVU1013
	cmpb	$43, %dl
	je	.L948
	.loc 1 2200 16 is_stmt 1 view .LVU1014
	.loc 1 2200 19 is_stmt 0 view .LVU1015
	cmpb	$45, %dl
	je	.L949
.L431:
	.loc 1 2203 11 is_stmt 1 view .LVU1016
	.loc 1 2205 36 is_stmt 0 view .LVU1017
	movl	$5, %edx
	.loc 1 2203 22 view .LVU1018
	cmpl	$110, %ecx
	je	.L950
	.loc 1 2206 36 view .LVU1019
	leaq	.LC66(%rip), %rsi
	xorl	%edi, %edi
	call	dcgettext@PLT
.LVL436:
	.loc 1 2206 36 view .LVU1020
	movq	%rax, %r8
.L433:
	.loc 1 2203 22 view .LVU1021
	movq	optarg(%rip), %rdi
	xorl	%r9d, %r9d
	leaq	.LC67(%rip), %rcx
	xorl	%esi, %esi
	movq	$-1, %rdx
	call	xdectoumax@PLT
.LVL437:
	.loc 1 2203 20 view .LVU1022
	movq	%rax, 128(%rsp)
	.loc 1 2207 11 is_stmt 1 view .LVU1023
	jmp	.L411
.LVL438:
.L428:
	.loc 1 2190 11 view .LVU1024
	.loc 1 2190 19 is_stmt 0 view .LVU1025
	movb	$1, forever(%rip)
	.loc 1 2191 11 is_stmt 1 view .LVU1026
	.loc 1 2191 23 is_stmt 0 view .LVU1027
	movl	$1, follow_mode(%rip)
	.loc 1 2192 11 is_stmt 1 view .LVU1028
	.loc 1 2192 37 is_stmt 0 view .LVU1029
	movb	$1, reopen_inaccessible_files(%rip)
	.loc 1 2193 11 is_stmt 1 view .LVU1030
	jmp	.L411
.L416:
	.loc 1 2231 11 view .LVU1031
	.loc 1 2231 27 is_stmt 0 view .LVU1032
	movb	$1, disable_inotify(%rip)
	.loc 1 2232 11 is_stmt 1 view .LVU1033
	jmp	.L411
.L419:
	.loc 1 2239 11 view .LVU1034
	.loc 1 2239 30 is_stmt 0 view .LVU1035
	movb	$1, presume_input_pipe(%rip)
	.loc 1 2240 11 is_stmt 1 view .LVU1036
	jmp	.L411
.L420:
	.loc 1 2235 11 view .LVU1037
	.loc 1 2235 55 is_stmt 0 view .LVU1038
	movl	$5, %edx
	leaq	.LC70(%rip), %rsi
	xorl	%edi, %edi
	call	dcgettext@PLT
.LVL439:
	.loc 1 2235 17 view .LVU1039
	xorl	%r9d, %r9d
	movl	$2147483647, %edx
	xorl	%esi, %esi
	movq	optarg(%rip), %rdi
	.loc 1 2235 55 view .LVU1040
	movq	%rax, %r8
	.loc 1 2235 17 view .LVU1041
	leaq	.LC5(%rip), %rcx
	call	xdectoumax@PLT
.LVL440:
	.loc 1 2235 15 view .LVU1042
	movl	%eax, pid(%rip)
	.loc 1 2236 11 is_stmt 1 view .LVU1043
	jmp	.L411
.LVL441:
.L421:
	.loc 1 2225 11 view .LVU1044
	.loc 1 2227 15 is_stmt 0 view .LVU1045
	movl	$5, %edx
	leaq	.LC69(%rip), %rsi
	xorl	%edi, %edi
	call	dcgettext@PLT
.LVL442:
	.loc 1 2226 13 view .LVU1046
	movq	optarg(%rip), %rdi
	xorl	%r9d, %r9d
	xorl	%esi, %esi
	.loc 1 2227 15 view .LVU1047
	movq	%rax, %r8
	.loc 1 2226 13 view .LVU1048
	leaq	.LC5(%rip), %rcx
	movq	$-1, %rdx
	call	xdectoumax@PLT
.LVL443:
	.loc 1 2225 47 view .LVU1049
	movq	%rax, max_n_unchanged_stats_between_opens(%rip)
	.loc 1 2228 11 is_stmt 1 view .LVU1050
	jmp	.L411
.LVL444:
.L422:
	.loc 1 2220 11 view .LVU1051
	.loc 1 2220 37 is_stmt 0 view .LVU1052
	movb	$1, reopen_inaccessible_files(%rip)
	.loc 1 2221 11 is_stmt 1 view .LVU1053
	jmp	.L411
.L423:
	.loc 1 2261 11 view .LVU1054
	.loc 1 2261 20 is_stmt 0 view .LVU1055
	movb	$0, line_end(%rip)
	.loc 1 2262 11 is_stmt 1 view .LVU1056
	jmp	.L411
.LVL445:
	.p2align 4,,10
	.p2align 3
.L946:
	.loc 1 2262 11 is_stmt 0 view .LVU1057
.LBE535:
	.loc 1 2187 7 view .LVU1058
	cmpl	$-131, %ecx
	jne	.L951
.LBB536:
	.loc 1 2264 9 is_stmt 1 view .LVU1059
	.loc 1 2264 30 view .LVU1060
	.loc 1 2266 9 view .LVU1061
	subq	$8, %rsp
	.cfi_def_cfa_offset 760
	leaq	.LC75(%rip), %rax
.LVL446:
	.loc 1 2266 9 is_stmt 0 view .LVU1062
	movq	stdout(%rip), %rdi
	movq	Version(%rip), %rcx
.LVL447:
	.loc 1 2266 9 view .LVU1063
	pushq	$0
	.cfi_def_cfa_offset 768
	leaq	.LC73(%rip), %r9
	leaq	.LC74(%rip), %r8
	pushq	%rax
	.cfi_def_cfa_offset 776
	leaq	.LC76(%rip), %rax
	leaq	.LC53(%rip), %rdx
	pushq	%rax
	.cfi_def_cfa_offset 784
	leaq	.LC25(%rip), %rsi
	xorl	%eax, %eax
	call	version_etc@PLT
.LVL448:
	.loc 1 2266 9 is_stmt 1 view .LVU1064
	addq	$32, %rsp
	.cfi_def_cfa_offset 752
	xorl	%edi, %edi
	call	exit@PLT
.LVL449:
	.p2align 4,,10
	.p2align 3
.L951:
	.loc 1 2266 9 is_stmt 0 view .LVU1065
.LBE536:
	.loc 1 2187 7 view .LVU1066
	cmpl	$-130, %ecx
	jne	.L412
.LBB537:
	.loc 1 2264 9 is_stmt 1 view .LVU1067
	xorl	%edi, %edi
	call	usage
.LVL450:
.L950:
	.loc 1 2205 36 is_stmt 0 view .LVU1068
	leaq	.LC65(%rip), %rsi
	xorl	%edi, %edi
	call	dcgettext@PLT
.LVL451:
	.loc 1 2205 36 view .LVU1069
	movq	%rax, %r8
	jmp	.L433
.LVL452:
.L947:
	.loc 1 2213 13 is_stmt 1 view .LVU1070
	.loc 1 2213 25 is_stmt 0 view .LVU1071
	movl	%r15d, follow_mode(%rip)
	jmp	.L411
.LVL453:
.L402:
	.loc 1 2213 25 view .LVU1072
.LBE537:
.LBE541:
.LBE547:
.LBB548:
.LBB523:
	.loc 1 2130 7 is_stmt 1 view .LVU1073
	.loc 1 2130 10 is_stmt 0 view .LVU1074
	cmpl	$200111, %eax
	jle	.L710
	.loc 1 2130 38 view .LVU1075
	xorl	%eax, %eax
.LVL454:
	.loc 1 2130 38 view .LVU1076
	cmpb	$99, 1(%rdx)
	sete	%al
	.loc 1 2130 27 view .LVU1077
	cmpb	$0, 1(%rdx,%rax)
	je	.L937
.L710:
	.loc 1 2133 20 view .LVU1078
	xorl	%ebp, %ebp
.L403:
.LVL455:
	.loc 1 2137 3 is_stmt 1 view .LVU1079
	.loc 1 2138 3 view .LVU1080
	.loc 1 2138 9 view .LVU1081
	.loc 1 2138 10 is_stmt 0 view .LVU1082
	movsbl	1(%rdx), %eax
	.loc 1 2112 13 view .LVU1083
	movq	%rdi, %rdx
	.loc 1 2138 10 view .LVU1084
	movl	%eax, %ecx
	subl	$48, %eax
	.loc 1 2138 9 view .LVU1085
	cmpl	$9, %eax
	ja	.L404
.LVL456:
	.p2align 4,,10
	.p2align 3
.L405:
	.loc 1 2139 5 is_stmt 1 view .LVU1086
	.loc 1 2138 10 is_stmt 0 view .LVU1087
	movsbl	1(%rdx), %eax
	.loc 1 2139 6 view .LVU1088
	addq	$1, %rdx
.LVL457:
	.loc 1 2138 9 is_stmt 1 view .LVU1089
	.loc 1 2138 10 is_stmt 0 view .LVU1090
	movl	%eax, %ecx
	subl	$48, %eax
	.loc 1 2138 9 view .LVU1091
	cmpl	$9, %eax
	jbe	.L405
.L404:
	.loc 1 2140 3 is_stmt 1 view .LVU1092
.LVL458:
	.loc 1 2142 3 view .LVU1093
	cmpb	$99, %cl
	je	.L712
	.loc 1 2142 3 is_stmt 0 view .LVU1094
	cmpb	$108, %cl
	je	.L713
	cmpb	$98, %cl
	je	.L952
	movq	%rdx, %rax
	movl	$1, %r13d
	movl	$10, %ecx
.LVL459:
.L407:
	.loc 1 2149 3 is_stmt 1 view .LVU1095
	.loc 1 2098 8 is_stmt 0 view .LVU1096
	xorl	%r14d, %r14d
	.loc 1 2149 6 view .LVU1097
	cmpb	$102, (%rax)
	jne	.L408
	.loc 1 2151 7 is_stmt 1 view .LVU1098
.LVL460:
	.loc 1 2152 7 view .LVU1099
	addq	$1, %rax
.LVL461:
	.loc 1 2151 17 is_stmt 0 view .LVU1100
	movl	$1, %r14d
.LVL462:
.L408:
	.loc 1 2155 3 is_stmt 1 view .LVU1101
	.loc 1 2155 6 is_stmt 0 view .LVU1102
	cmpb	$0, (%rax)
	jne	.L937
	.loc 1 2158 3 is_stmt 1 view .LVU1103
	.loc 1 2158 6 is_stmt 0 view .LVU1104
	cmpq	%rdx, %rdi
	je	.L953
	.loc 1 2160 8 is_stmt 1 view .LVU1105
	.loc 1 2160 13 is_stmt 0 view .LVU1106
	xorl	%esi, %esi
	leaq	128(%rsp), %rcx
.LVL463:
	.loc 1 2160 13 view .LVU1107
	movl	$10, %edx
.LVL464:
	.loc 1 2160 13 view .LVU1108
	leaq	.LC62(%rip), %r8
	call	xstrtoumax@PLT
.LVL465:
	.loc 1 2160 11 view .LVU1109
	andl	$-3, %eax
	jne	.L954
.L410:
	.loc 1 2169 3 is_stmt 1 view .LVU1110
	.loc 1 2169 14 is_stmt 0 view .LVU1111
	movb	%bpl, from_start(%rip)
	.loc 1 2170 3 is_stmt 1 view .LVU1112
	.loc 1 2173 10 is_stmt 0 view .LVU1113
	movl	$1, %eax
	.loc 1 2170 15 view .LVU1114
	movb	%r13b, count_lines(%rip)
	.loc 1 2171 3 is_stmt 1 view .LVU1115
	.loc 1 2171 11 is_stmt 0 view .LVU1116
	movb	%r14b, forever(%rip)
	.loc 1 2173 3 is_stmt 1 view .LVU1117
	.loc 1 2173 10 is_stmt 0 view .LVU1118
	jmp	.L399
.LVL466:
.L401:
	.loc 1 2119 7 is_stmt 1 view .LVU1119
	.loc 1 2108 8 is_stmt 0 view .LVU1120
	subl	$200112, %eax
.LVL467:
	.loc 1 2122 20 view .LVU1121
	movl	$1, %ebp
	.loc 1 2119 10 view .LVU1122
	cmpl	$696, %eax
	ja	.L403
	jmp	.L937
.LVL468:
.L944:
	.loc 1 2103 34 view .LVU1123
	movq	16(%rbx), %rdi
	.loc 1 2103 24 view .LVU1124
	cmpb	$45, (%rdi)
	jne	.L396
	.loc 1 2103 27 view .LVU1125
	cmpb	$0, 1(%rdi)
	jne	.L398
	jmp	.L396
.LVL469:
.L948:
	.loc 1 2103 27 view .LVU1126
.LBE523:
.LBE548:
.LBB549:
.LBB542:
.LBB538:
	.loc 1 2199 13 is_stmt 1 view .LVU1127
	.loc 1 2199 24 is_stmt 0 view .LVU1128
	movb	$1, from_start(%rip)
	jmp	.L431
.LVL470:
.L945:
	.loc 1 2199 24 view .LVU1129
.LBE538:
	.loc 1 2277 3 is_stmt 1 view .LVU1130
	.loc 1 2277 6 is_stmt 0 view .LVU1131
	cmpb	$0, reopen_inaccessible_files(%rip)
	je	.L438
	.loc 1 2279 7 is_stmt 1 view .LVU1132
	.loc 1 2279 10 is_stmt 0 view .LVU1133
	cmpb	$0, forever(%rip)
	je	.L955
	.loc 1 2285 12 is_stmt 1 view .LVU1134
	.loc 1 2285 15 is_stmt 0 view .LVU1135
	cmpl	$2, follow_mode(%rip)
	je	.L956
	.loc 1 2289 3 is_stmt 1 view .LVU1136
	.loc 1 2289 7 is_stmt 0 view .LVU1137
	movl	pid(%rip), %edi
	.loc 1 2289 6 view .LVU1138
	testl	%edi, %edi
	jne	.L443
.LVL471:
.L442:
	.loc 1 2289 6 view .LVU1139
.LBE542:
.LBE549:
	.loc 1 2371 3 is_stmt 1 view .LVU1140
	.loc 1 2371 6 is_stmt 0 view .LVU1141
	cmpb	$0, from_start(%rip)
	je	.L445
	.loc 1 2373 7 is_stmt 1 view .LVU1142
	.loc 1 2373 11 is_stmt 0 view .LVU1143
	movq	128(%rsp), %rax
	.loc 1 2373 10 view .LVU1144
	testq	%rax, %rax
	je	.L445
	.loc 1 2374 9 is_stmt 1 view .LVU1145
	subq	$1, %rax
	movq	%rax, 128(%rsp)
.L445:
	.loc 1 2377 3 view .LVU1146
	testl	%r12d, %r12d
	js	.L957
	.loc 1 2379 3 view .LVU1147
	.loc 1 2379 14 is_stmt 0 view .LVU1148
	movslq	optind(%rip), %rax
	.loc 1 2379 6 view .LVU1149
	cmpl	%r12d, %eax
	jge	.L717
	.loc 1 2381 7 is_stmt 1 view .LVU1150
	.loc 1 2381 22 is_stmt 0 view .LVU1151
	subl	%eax, %r12d
.LVL472:
	.loc 1 2382 12 view .LVU1152
	leaq	0(%r13,%rax,8), %rbp
	.loc 1 2381 15 view .LVU1153
	movslq	%r12d, %rsi
	movq	%rsi, (%rsp)
.LVL473:
	.loc 1 2382 7 is_stmt 1 view .LVU1154
.LBB550:
	.loc 1 2392 5 view .LVU1155
	.loc 1 2394 5 view .LVU1156
	.loc 1 2394 17 view .LVU1157
	.loc 1 2394 5 is_stmt 0 view .LVU1158
	testq	%rsi, %rsi
	je	.L958
.LVL474:
.L447:
	.loc 1 2396 22 view .LVU1159
	movq	(%rsp), %rdi
	.loc 1 2392 10 view .LVU1160
	xorl	%ecx, %ecx
	.loc 1 2394 12 view .LVU1161
	xorl	%eax, %eax
	.loc 1 2396 22 view .LVU1162
	movl	$1, %esi
	.p2align 4,,10
	.p2align 3
.L451:
.LVL475:
	.loc 1 2395 7 is_stmt 1 view .LVU1163
	.loc 1 2395 11 is_stmt 0 view .LVU1164
	movq	0(%rbp,%rax,8), %rdx
	cmpb	$45, (%rdx)
	jne	.L450
	.loc 1 2396 22 view .LVU1165
	cmpb	$0, 1(%rdx)
	cmove	%esi, %ecx
.LVL476:
.L450:
	.loc 1 2394 30 is_stmt 1 discriminator 2 view .LVU1166
	.loc 1 2394 31 is_stmt 0 discriminator 2 view .LVU1167
	addq	$1, %rax
.LVL477:
	.loc 1 2394 17 is_stmt 1 discriminator 2 view .LVU1168
	.loc 1 2394 5 is_stmt 0 discriminator 2 view .LVU1169
	cmpq	%rdi, %rax
	jb	.L451
	.loc 1 2399 5 is_stmt 1 view .LVU1170
	.loc 1 2399 8 is_stmt 0 view .LVU1171
	testb	%cl, %cl
	je	.L452
	.loc 1 2399 37 discriminator 1 view .LVU1172
	movl	follow_mode(%rip), %eax
.LVL478:
	.loc 1 2399 22 discriminator 1 view .LVU1173
	cmpl	$1, %eax
	je	.L959
	.loc 1 2406 5 is_stmt 1 view .LVU1174
	.loc 1 2406 8 is_stmt 0 view .LVU1175
	cmpb	$0, forever(%rip)
	je	.L960
.LBB551:
	.loc 1 2408 9 is_stmt 1 view .LVU1176
	.loc 1 2409 9 view .LVU1177
	.loc 1 2410 9 view .LVU1178
	.loc 1 2412 27 is_stmt 0 view .LVU1179
	cmpl	$0, pid(%rip)
	jne	.L454
	.loc 1 2411 27 view .LVU1180
	cmpq	$1, (%rsp)
	jne	.L454
	cmpl	$2, %eax
	jne	.L454
.LVL479:
.LBB552:
.LBI552:
	.loc 3 467 1 is_stmt 1 view .LVU1181
.LBB553:
	.loc 3 469 3 view .LVU1182
	.loc 3 469 10 is_stmt 0 view .LVU1183
	leaq	528(%rsp), %rax
.LVL480:
	.loc 3 469 10 view .LVU1184
	xorl	%esi, %esi
	movl	$1, %edi
	movq	%rax, %rdx
	call	__fxstat@PLT
.LVL481:
	.loc 3 469 10 view .LVU1185
.LBE553:
.LBE552:
	.loc 1 2411 43 view .LVU1186
	testl	%eax, %eax
	jne	.L454
	.loc 1 2412 32 discriminator 3 view .LVU1187
	movl	552(%rsp), %eax
	andl	$61440, %eax
	.loc 1 2412 27 discriminator 3 view .LVU1188
	cmpl	$32768, %eax
	je	.L454
.L452:
.LBE551:
.LBE550:
	.loc 1 2421 3 is_stmt 1 view .LVU1189
	.loc 1 2421 6 is_stmt 0 view .LVU1190
	cmpq	$0, 128(%rsp)
	jne	.L705
	.loc 1 2421 17 view .LVU1191
	cmpb	$0, forever(%rip)
	je	.L706
.L705:
	.loc 1 2424 3 is_stmt 1 view .LVU1192
.LVL482:
.LBB556:
.LBI556:
	.file 8 "./lib/xalloc.h"
	.loc 8 99 1 view .LVU1193
.LBB557:
	.loc 8 101 3 view .LVU1194
	.loc 8 103 3 view .LVU1195
	.loc 8 103 10 is_stmt 0 view .LVU1196
	imulq	$96, (%rsp), %rax
	movq	%rax, %rdi
	movq	%rax, 104(%rsp)
	call	xmalloc@PLT
.LVL483:
	movq	%rax, 64(%rsp)
.LVL484:
	.loc 8 103 10 view .LVU1197
.LBE557:
.LBE556:
	.loc 1 2425 3 is_stmt 1 view .LVU1198
	.loc 1 2425 15 view .LVU1199
.L703:
	.loc 1 2425 15 is_stmt 0 view .LVU1200
	movq	(%rsp), %rsi
	movq	64(%rsp), %rdx
	movq	%rbp, %rax
	leaq	0(%rbp,%rsi,8), %rsi
.LVL485:
	.p2align 4,,10
	.p2align 3
.L460:
	.loc 1 2426 5 is_stmt 1 discriminator 3 view .LVU1201
	.loc 1 2426 15 is_stmt 0 discriminator 3 view .LVU1202
	movq	(%rax), %rcx
	addq	$8, %rax
	addq	$96, %rdx
	movq	%rcx, -96(%rdx)
	.loc 1 2425 28 is_stmt 1 discriminator 3 view .LVU1203
	.loc 1 2425 15 discriminator 3 view .LVU1204
	.loc 1 2425 3 is_stmt 0 discriminator 3 view .LVU1205
	cmpq	%rsi, %rax
	jne	.L460
	.loc 1 2428 3 is_stmt 1 view .LVU1206
	.loc 1 2428 6 is_stmt 0 view .LVU1207
	cmpl	$1, %ebx
	je	.L461
	.loc 1 2429 41 discriminator 1 view .LVU1208
	cmpq	$1, (%rsp)
	jbe	.L702
	testl	%ebx, %ebx
	je	.L461
.L702:
.LVL486:
.LBB560:
	.loc 1 2396 22 view .LVU1209
	movq	64(%rsp), %rax
	movb	$1, 95(%rsp)
	movq	$0, 40(%rsp)
	movq	%rax, 8(%rsp)
.LBE560:
.LBB561:
.LBB562:
.LBB563:
.LBB564:
.LBB565:
.LBB566:
.LBB567:
.LBB568:
.LBB569:
	.loc 3 469 10 view .LVU1210
	leaq	528(%rsp), %rax
	movq	%rax, 96(%rsp)
	jmp	.L542
.LVL487:
.L464:
	.loc 3 469 10 view .LVU1211
.LBE569:
.LBE568:
.LBE567:
.LBE566:
.LBE565:
.LBE564:
.LBE563:
	.loc 1 1997 5 is_stmt 1 view .LVU1212
	.loc 1 1997 10 is_stmt 0 view .LVU1213
	xorl	%esi, %esi
	xorl	%eax, %eax
	call	open_safer@PLT
.LVL488:
	.loc 1 1999 19 view .LVU1214
	movzbl	reopen_inaccessible_files(%rip), %ebp
	.loc 1 1997 10 view .LVU1215
	movl	%eax, %r14d
.LVL489:
	.loc 1 1999 3 is_stmt 1 view .LVU1216
	.loc 1 1999 17 is_stmt 0 view .LVU1217
	testb	%bpl, %bpl
	je	.L466
	cmpl	$-1, %eax
	jne	.L961
	.loc 1 1999 15 view .LVU1218
	movq	8(%rsp), %rax
.LVL490:
	.loc 1 1999 15 view .LVU1219
	movb	$0, 54(%rax)
	.loc 1 2001 3 is_stmt 1 view .LVU1220
.L676:
	.loc 1 2003 7 view .LVU1221
	call	__errno_location@PLT
.LVL491:
	.loc 1 2003 10 is_stmt 0 view .LVU1222
	cmpb	$0, forever(%rip)
	movq	%rax, %rbx
	je	.L470
	.loc 1 2005 11 is_stmt 1 view .LVU1223
	.loc 1 2005 17 is_stmt 0 view .LVU1224
	movq	8(%rsp), %rsi
	.loc 1 2006 21 view .LVU1225
	movl	(%rax), %eax
	.loc 1 1999 19 view .LVU1226
	xorl	$1, %ebp
	.loc 1 2005 17 view .LVU1227
	movl	$-1, 56(%rsi)
	.loc 1 2006 11 is_stmt 1 view .LVU1228
	.loc 1 2006 21 is_stmt 0 view .LVU1229
	movl	%eax, 60(%rsi)
	.loc 1 2007 11 is_stmt 1 view .LVU1230
	.loc 1 1999 19 is_stmt 0 view .LVU1231
	movb	%bpl, 52(%rsi)
	.loc 1 2008 11 is_stmt 1 view .LVU1232
	.loc 1 2008 18 is_stmt 0 view .LVU1233
	movq	$0, 40(%rsi)
	.loc 1 2009 11 is_stmt 1 view .LVU1234
	.loc 1 2009 18 is_stmt 0 view .LVU1235
	movq	$0, 32(%rsi)
.L470:
	.loc 1 2011 7 is_stmt 1 view .LVU1236
	movq	8(%rsp), %rax
	movq	(%rax), %rdi
	call	pretty_name.isra.0
.LVL492:
	movl	$4, %edi
	movq	%rax, %rsi
	call	quotearg_style@PLT
.LVL493:
	.loc 1 2011 24 is_stmt 0 view .LVU1237
	movl	$5, %edx
	leaq	.LC87(%rip), %rsi
	xorl	%edi, %edi
	.loc 1 2011 7 view .LVU1238
	movq	%rax, %r12
	.loc 1 2011 24 view .LVU1239
	call	dcgettext@PLT
.LVL494:
	.loc 1 2011 7 view .LVU1240
	movl	(%rbx), %esi
	movq	%r12, %rcx
	xorl	%edi, %edi
	.loc 1 2011 24 view .LVU1241
	movq	%rax, %rdx
	.loc 1 2011 7 view .LVU1242
	xorl	%eax, %eax
	call	error@PLT
.LVL495:
	.loc 1 2013 7 is_stmt 1 view .LVU1243
	.loc 1 2013 10 is_stmt 0 view .LVU1244
	movb	$0, 24(%rsp)
.LVL496:
.L471:
	.loc 1 2077 3 is_stmt 1 view .LVU1245
	.loc 1 2077 3 is_stmt 0 view .LVU1246
.LBE562:
.LBE561:
	.loc 1 2434 28 is_stmt 1 view .LVU1247
	.loc 1 2434 29 is_stmt 0 view .LVU1248
	addq	$1, 40(%rsp)
.LVL497:
	.loc 1 2434 29 view .LVU1249
	movzbl	24(%rsp), %esi
	addq	$96, 8(%rsp)
	movq	40(%rsp), %rax
.LVL498:
	.loc 1 2434 15 is_stmt 1 view .LVU1250
	andb	%sil, 95(%rsp)
.LVL499:
	.loc 1 2434 3 is_stmt 0 view .LVU1251
	cmpq	(%rsp), %rax
	je	.L962
.LVL500:
.L542:
	.loc 1 2435 5 is_stmt 1 discriminator 3 view .LVU1252
	.loc 1 2435 11 is_stmt 0 discriminator 3 view .LVU1253
	movq	128(%rsp), %rax
	movq	%rax, 48(%rsp)
.LVL501:
.LBB798:
.LBI561:
	.loc 1 1983 1 is_stmt 1 discriminator 3 view .LVU1254
.LBB785:
	.loc 1 1985 3 discriminator 3 view .LVU1255
	.loc 1 1986 3 discriminator 3 view .LVU1256
	.loc 1 1988 3 discriminator 3 view .LVU1257
	.loc 1 1988 20 is_stmt 0 discriminator 3 view .LVU1258
	movq	8(%rsp), %rax
.LVL502:
	.loc 1 1988 20 discriminator 3 view .LVU1259
	movq	(%rax), %rdi
	movzbl	(%rdi), %eax
	subl	$45, %eax
	movl	%eax, 56(%rsp)
	jne	.L464
	movzbl	1(%rdi), %eax
	movl	%eax, 56(%rsp)
.LVL503:
	.loc 1 1990 3 is_stmt 1 discriminator 3 view .LVU1260
	.loc 1 1990 6 is_stmt 0 discriminator 3 view .LVU1261
	testl	%eax, %eax
	jne	.L464
	.loc 1 1992 7 is_stmt 1 view .LVU1262
	.loc 1 1992 23 is_stmt 0 view .LVU1263
	movb	$1, have_read_stdin(%rip)
	.loc 1 1993 7 is_stmt 1 view .LVU1264
.LVL504:
	.loc 1 1994 7 view .LVU1265
	.loc 1 1999 3 view .LVU1266
	.loc 1 1993 10 is_stmt 0 view .LVU1267
	xorl	%r14d, %r14d
.LVL505:
.L465:
	.loc 1 1999 15 view .LVU1268
	movq	8(%rsp), %rax
	movb	$1, 54(%rax)
	.loc 1 2001 3 is_stmt 1 view .LVU1269
.L677:
.LBB771:
	.loc 1 2017 7 view .LVU1270
	.loc 1 2019 7 view .LVU1271
	.loc 1 2019 10 is_stmt 0 view .LVU1272
	cmpb	$0, print_headers(%rip)
	jne	.L963
.L472:
	.loc 1 2021 7 is_stmt 1 view .LVU1273
	.loc 1 2021 12 is_stmt 0 view .LVU1274
	movq	8(%rsp), %rax
	movq	(%rax), %rdi
	call	pretty_name.isra.0
.LVL506:
.LBB726:
.LBB710:
.LBB615:
.LBB616:
.LBB617:
.LBB618:
	.loc 3 469 10 view .LVU1275
	movq	96(%rsp), %rdx
	movl	%r14d, %esi
.LBE618:
.LBE617:
.LBE616:
.LBE615:
	.loc 1 1972 13 view .LVU1276
	movq	$0, 160(%rsp)
.LBE710:
.LBE726:
	.loc 1 2021 12 view .LVU1277
	movq	%rax, 80(%rsp)
.LVL507:
.LBB727:
.LBI564:
	.loc 1 1969 1 is_stmt 1 view .LVU1278
.LBB711:
	.loc 1 1972 3 view .LVU1279
	.loc 1 1973 3 view .LVU1280
	.loc 1 1973 7 is_stmt 0 view .LVU1281
	movzbl	count_lines(%rip), %eax
.LVL508:
.LBB686:
.LBB673:
.LBB621:
.LBB619:
	.loc 3 469 10 view .LVU1282
	movl	$1, %edi
.LBE619:
.LBE621:
.LBE673:
.LBE686:
	.loc 1 1973 7 view .LVU1283
	movb	%al, 24(%rsp)
	.loc 1 1973 6 view .LVU1284
	testb	%al, %al
	je	.L474
	.loc 1 1974 5 is_stmt 1 view .LVU1285
.LVL509:
.LBB687:
.LBI615:
	.loc 1 1907 1 view .LVU1286
.LBB674:
	.loc 1 1910 3 view .LVU1287
	.loc 1 1912 3 view .LVU1288
.LBB622:
.LBI617:
	.loc 3 467 1 view .LVU1289
.LBB620:
	.loc 3 469 3 view .LVU1290
	.loc 3 469 10 is_stmt 0 view .LVU1291
	call	__fxstat@PLT
.LVL510:
	.loc 3 469 10 view .LVU1292
.LBE620:
.LBE622:
	.loc 1 1912 6 view .LVU1293
	testl	%eax, %eax
	jne	.L964
	.loc 1 1918 3 is_stmt 1 view .LVU1294
	.loc 1 1918 7 is_stmt 0 view .LVU1295
	movzbl	from_start(%rip), %eax
	movb	%al, 112(%rsp)
	.loc 1 1918 6 view .LVU1296
	testb	%al, %al
	jne	.L965
.LBB623:
	.loc 1 1927 7 is_stmt 1 view .LVU1297
.LVL511:
	.loc 1 1928 7 view .LVU1298
	.loc 1 1932 7 view .LVU1299
	.loc 1 1932 10 is_stmt 0 view .LVU1300
	cmpb	$0, presume_input_pipe(%rip)
	jne	.L675
	.loc 1 1933 15 view .LVU1301
	movl	552(%rsp), %eax
	andl	$61440, %eax
	.loc 1 1933 12 view .LVU1302
	cmpl	$32768, %eax
	je	.L966
.LVL512:
.L675:
	.loc 1 1952 11 is_stmt 1 view .LVU1303
.LBB624:
.LBI624:
	.loc 1 623 1 view .LVU1304
.LBB625:
	.loc 1 626 3 view .LVU1305
	.loc 1 633 3 view .LVU1306
	.loc 1 634 3 view .LVU1307
	.loc 1 635 3 view .LVU1308
	.loc 1 636 3 view .LVU1309
	.loc 1 637 3 view .LVU1310
	.loc 1 639 3 view .LVU1311
	.loc 1 639 18 is_stmt 0 view .LVU1312
	movl	$8216, %edi
	call	xmalloc@PLT
.LVL513:
	.loc 1 642 9 view .LVU1313
	movl	$8216, %edi
	.loc 1 640 33 view .LVU1314
	movq	$0, 8200(%rax)
	.loc 1 639 18 view .LVU1315
	movq	%rax, %rbx
	.loc 1 640 17 view .LVU1316
	movq	$0, 8192(%rax)
	.loc 1 641 15 view .LVU1317
	movq	$0, 8208(%rax)
	.loc 1 639 18 view .LVU1318
	movq	%rax, 16(%rsp)
.LVL514:
	.loc 1 640 3 is_stmt 1 view .LVU1319
	.loc 1 641 3 view .LVU1320
	.loc 1 642 3 view .LVU1321
	.loc 1 642 9 is_stmt 0 view .LVU1322
	call	xmalloc@PLT
.LVL515:
	.loc 1 635 10 view .LVU1323
	movl	%r14d, 88(%rsp)
	movq	$0, 32(%rsp)
	.loc 1 642 9 view .LVU1324
	movq	%rax, %r13
.LVL516:
	.loc 1 635 10 view .LVU1325
	movq	%rbx, %rax
.LVL517:
	.loc 1 635 10 view .LVU1326
	movq	%r13, %rbx
.LVL518:
	.loc 1 635 10 view .LVU1327
	movq	%rax, %r13
.LVL519:
	.p2align 4,,10
	.p2align 3
.L481:
	.loc 1 645 3 is_stmt 1 view .LVU1328
	.loc 1 647 7 view .LVU1329
	.loc 1 647 16 is_stmt 0 view .LVU1330
	movl	88(%rsp), %edi
	movl	$8192, %edx
	movq	%rbx, %rsi
	call	safe_read@PLT
.LVL520:
	movq	%rax, %r12
.LVL521:
	.loc 1 648 7 is_stmt 1 view .LVU1331
	.loc 1 648 23 is_stmt 0 view .LVU1332
	leaq	-1(%rax), %rax
.LVL522:
	.loc 1 648 10 view .LVU1333
	cmpq	$-3, %rax
	ja	.L482
	.loc 1 650 7 is_stmt 1 view .LVU1334
	.loc 1 650 19 is_stmt 0 view .LVU1335
	movq	%r12, 8192(%rbx)
	.loc 1 651 7 is_stmt 1 view .LVU1336
.LBB626:
	.loc 1 659 21 is_stmt 0 view .LVU1337
	movsbl	line_end(%rip), %ebp
	.loc 1 658 21 view .LVU1338
	movq	%rbx, %rdi
	.loc 1 659 15 view .LVU1339
	xorl	%r14d, %r14d
.LBE626:
	.loc 1 651 17 view .LVU1340
	addq	%r12, 160(%rsp)
	.loc 1 652 7 is_stmt 1 view .LVU1341
.LBB627:
	.loc 1 657 21 is_stmt 0 view .LVU1342
	leaq	(%rbx,%r12), %r15
.LBE627:
	.loc 1 652 19 view .LVU1343
	movq	$0, 8200(%rbx)
	.loc 1 653 7 is_stmt 1 view .LVU1344
	.loc 1 653 17 is_stmt 0 view .LVU1345
	movq	$0, 8208(%rbx)
.LBB628:
	.loc 1 657 9 is_stmt 1 view .LVU1346
.LVL523:
	.loc 1 658 9 view .LVU1347
	.loc 1 659 9 view .LVU1348
	.loc 1 659 15 is_stmt 0 view .LVU1349
	jmp	.L483
.LVL524:
	.p2align 4,,10
	.p2align 3
.L484:
	.loc 1 661 13 is_stmt 1 view .LVU1350
	.loc 1 662 13 is_stmt 0 view .LVU1351
	movq	%rdx, 8200(%rbx)
	.loc 1 661 13 view .LVU1352
	leaq	1(%rax), %rdi
.LVL525:
	.loc 1 662 13 is_stmt 1 view .LVU1353
	movq	%rdx, %r14
.L483:
	.loc 1 659 15 view .LVU1354
	.loc 1 659 53 is_stmt 0 view .LVU1355
	movq	%r15, %rdx
	.loc 1 659 21 view .LVU1356
	movl	%ebp, %esi
	.loc 1 659 53 view .LVU1357
	subq	%rdi, %rdx
	.loc 1 659 21 view .LVU1358
	call	memchr@PLT
.LVL526:
	.loc 1 659 21 view .LVU1359
	leaq	1(%r14), %rdx
	.loc 1 659 15 view .LVU1360
	testq	%rax, %rax
	jne	.L484
.LBE628:
	.loc 1 665 7 is_stmt 1 view .LVU1361
	.loc 1 670 29 is_stmt 0 view .LVU1362
	movq	16(%rsp), %rax
.LVL527:
	.loc 1 665 19 view .LVU1363
	movq	32(%rsp), %rbp
	.loc 1 670 29 view .LVU1364
	movq	8192(%rax), %rdi
	.loc 1 665 19 view .LVU1365
	addq	%r14, %rbp
.LVL528:
	.loc 1 670 7 is_stmt 1 view .LVU1366
	.loc 1 670 23 is_stmt 0 view .LVU1367
	leaq	(%r12,%rdi), %rax
	.loc 1 670 10 view .LVU1368
	cmpq	$8191, %rax
	jbe	.L967
	.loc 1 683 11 is_stmt 1 view .LVU1369
	.loc 1 683 29 is_stmt 0 view .LVU1370
	movq	16(%rsp), %rax
	movq	%rbx, 8208(%rax)
.LVL529:
	.loc 1 684 11 is_stmt 1 view .LVU1371
	.loc 1 684 27 is_stmt 0 view .LVU1372
	movq	%rbp, %rax
.LVL530:
	.loc 1 684 27 view .LVU1373
	subq	8200(%r13), %rax
	movq	%rax, 32(%rsp)
	.loc 1 684 14 view .LVU1374
	cmpq	%rax, 48(%rsp)
	jnb	.L487
.LVL531:
	.loc 1 686 15 is_stmt 1 view .LVU1375
	.loc 1 687 15 view .LVU1376
	.loc 1 688 15 view .LVU1377
	.loc 1 688 15 is_stmt 0 view .LVU1378
	movq	%rbx, 16(%rsp)
	movq	%r13, %rbx
.LVL532:
	.loc 1 688 21 view .LVU1379
	movq	8208(%r13), %r13
.LVL533:
	.loc 1 688 21 view .LVU1380
	jmp	.L481
.LVL534:
.L949:
	.loc 1 688 21 view .LVU1381
.LBE625:
.LBE624:
.LBE623:
.LBE674:
.LBE687:
.LBE711:
.LBE727:
.LBE771:
.LBE785:
.LBE798:
.LBB799:
.LBB543:
.LBB539:
	.loc 1 2201 13 is_stmt 1 view .LVU1382
	addq	$1, %rax
	movq	%rax, optarg(%rip)
	jmp	.L431
.LVL535:
.L955:
	.loc 1 2201 13 is_stmt 0 view .LVU1383
.LBE539:
	.loc 1 2281 11 is_stmt 1 view .LVU1384
	.loc 1 2281 37 is_stmt 0 view .LVU1385
	movb	$0, reopen_inaccessible_files(%rip)
	.loc 1 2282 11 is_stmt 1 view .LVU1386
	.loc 1 2282 24 is_stmt 0 view .LVU1387
	movl	$5, %edx
	leaq	.LC79(%rip), %rsi
.L938:
	.loc 1 2286 22 view .LVU1388
	xorl	%edi, %edi
	call	dcgettext@PLT
.LVL536:
	.loc 1 2286 9 view .LVU1389
	xorl	%esi, %esi
	xorl	%edi, %edi
	.loc 1 2286 22 view .LVU1390
	movq	%rax, %rdx
	.loc 1 2286 9 view .LVU1391
	xorl	%eax, %eax
	call	error@PLT
.LVL537:
.L438:
	.loc 1 2289 3 is_stmt 1 view .LVU1392
	.loc 1 2289 7 is_stmt 0 view .LVU1393
	movl	pid(%rip), %edi
	.loc 1 2289 6 view .LVU1394
	testl	%edi, %edi
	je	.L442
	.loc 1 2289 11 view .LVU1395
	cmpb	$0, forever(%rip)
	je	.L968
.L443:
	.loc 1 2292 8 is_stmt 1 view .LVU1396
	.loc 1 2292 19 is_stmt 0 view .LVU1397
	xorl	%esi, %esi
	call	kill@PLT
.LVL538:
	.loc 1 2292 16 view .LVU1398
	testl	%eax, %eax
	je	.L442
	.loc 1 2292 41 view .LVU1399
	call	__errno_location@PLT
.LVL539:
	.loc 1 2292 38 view .LVU1400
	cmpl	$38, (%rax)
	jne	.L442
	.loc 1 2294 7 is_stmt 1 view .LVU1401
	.loc 1 2294 20 is_stmt 0 view .LVU1402
	movl	$5, %edx
	leaq	.LC82(%rip), %rsi
	xorl	%edi, %edi
	call	dcgettext@PLT
.LVL540:
	.loc 1 2294 7 view .LVU1403
	xorl	%esi, %esi
	xorl	%edi, %edi
	.loc 1 2294 20 view .LVU1404
	movq	%rax, %rdx
	.loc 1 2294 7 view .LVU1405
	xorl	%eax, %eax
	call	error@PLT
.LVL541:
	.loc 1 2295 7 is_stmt 1 view .LVU1406
	.loc 1 2295 11 is_stmt 0 view .LVU1407
	movl	$0, pid(%rip)
	jmp	.L442
.LVL542:
.L953:
	.loc 1 2295 11 view .LVU1408
.LBE543:
.LBE799:
.LBB800:
.LBB524:
	.loc 1 2159 5 is_stmt 1 view .LVU1409
	.loc 1 2159 14 is_stmt 0 view .LVU1410
	movl	%ecx, %eax
.LVL543:
	.loc 1 2159 14 view .LVU1411
	movq	%rax, 128(%rsp)
	jmp	.L410
.LVL544:
.L454:
	.loc 1 2159 14 view .LVU1412
.LBE524:
.LBE800:
.LBB801:
.LBB554:
	.loc 1 2414 9 is_stmt 1 view .LVU1413
	.loc 1 2414 33 is_stmt 0 view .LVU1414
	xorl	%edi, %edi
	call	isatty@PLT
.LVL545:
	.loc 1 2414 30 view .LVU1415
	testl	%eax, %eax
	je	.L452
	.loc 1 2415 11 is_stmt 1 view .LVU1416
	.loc 1 2415 24 is_stmt 0 view .LVU1417
	xorl	%edi, %edi
	movl	$5, %edx
	leaq	.LC86(%rip), %rsi
	call	dcgettext@PLT
.LVL546:
	.loc 1 2415 11 view .LVU1418
	xorl	%esi, %esi
	xorl	%edi, %edi
	.loc 1 2415 24 view .LVU1419
	movq	%rax, %rdx
	.loc 1 2415 11 view .LVU1420
	xorl	%eax, %eax
	call	error@PLT
.LVL547:
	.loc 1 2415 11 view .LVU1421
	jmp	.L452
.LVL548:
.L461:
	.loc 1 2415 11 view .LVU1422
.LBE554:
.LBE801:
	.loc 1 2430 5 is_stmt 1 view .LVU1423
	.loc 1 2430 19 is_stmt 0 view .LVU1424
	movb	$1, print_headers(%rip)
.LVL549:
	.loc 1 2434 15 is_stmt 1 view .LVU1425
	jmp	.L702
.LVL550:
.L967:
.LBB802:
.LBB786:
.LBB772:
.LBB728:
.LBB712:
.LBB688:
.LBB675:
.LBB660:
.LBB653:
.LBB646:
	.loc 1 672 11 view .LVU1426
.LBB629:
.LBI629:
	.file 9 "/usr/include/x86_64-linux-gnu/bits/string_fortified.h"
	.loc 9 31 1 view .LVU1427
.LBB630:
	.loc 9 34 3 view .LVU1428
.LBE630:
.LBE629:
	.loc 1 672 19 is_stmt 0 view .LVU1429
	movq	16(%rsp), %r14
.LBB633:
.LBB631:
	.loc 9 34 10 view .LVU1430
	movq	%r12, %rdx
	movq	%rbx, %rsi
.LBE631:
.LBE633:
	.loc 1 672 19 view .LVU1431
	addq	%r14, %rdi
.LVL551:
.LBB634:
.LBB632:
	.loc 9 34 10 view .LVU1432
	call	memcpy@PLT
.LVL552:
	.loc 9 34 10 view .LVU1433
.LBE632:
.LBE634:
	.loc 1 673 11 is_stmt 1 view .LVU1434
	.loc 1 673 24 is_stmt 0 view .LVU1435
	movq	8192(%rbx), %rax
	.loc 1 665 19 view .LVU1436
	movq	%rbp, 32(%rsp)
	.loc 1 673 24 view .LVU1437
	addq	%rax, 8192(%r14)
	.loc 1 674 11 is_stmt 1 view .LVU1438
	.loc 1 674 24 is_stmt 0 view .LVU1439
	movq	8200(%rbx), %rax
	addq	%rax, 8200(%r14)
	jmp	.L481
.LVL553:
.L474:
	.loc 1 674 24 view .LVU1440
.LBE646:
.LBE653:
.LBE660:
.LBE675:
.LBE688:
	.loc 1 1976 5 is_stmt 1 view .LVU1441
.LBB689:
.LBI566:
	.loc 1 1844 1 view .LVU1442
.LBB604:
	.loc 1 1847 3 view .LVU1443
	.loc 1 1849 3 view .LVU1444
.LBB571:
.LBI568:
	.loc 3 467 1 view .LVU1445
.LBB570:
	.loc 3 469 3 view .LVU1446
	.loc 3 469 10 is_stmt 0 view .LVU1447
	call	__fxstat@PLT
.LVL554:
	.loc 3 469 10 view .LVU1448
.LBE570:
.LBE571:
	.loc 1 1849 6 view .LVU1449
	testl	%eax, %eax
	jne	.L969
	.loc 1 1855 3 is_stmt 1 view .LVU1450
	.loc 1 1855 7 is_stmt 0 view .LVU1451
	movzbl	from_start(%rip), %eax
	movl	%eax, %esi
	movb	%al, 24(%rsp)
	movzbl	presume_input_pipe(%rip), %eax
	.loc 1 1855 6 view .LVU1452
	testb	%sil, %sil
	je	.L505
	.loc 1 1857 7 is_stmt 1 view .LVU1453
	.loc 1 1857 10 is_stmt 0 view .LVU1454
	testb	%al, %al
	jne	.L506
	.loc 1 1857 32 view .LVU1455
	cmpq	$0, 48(%rsp)
	js	.L506
	.loc 1 1858 16 view .LVU1456
	movl	552(%rsp), %eax
	andl	$61440, %eax
	.loc 1 1858 11 view .LVU1457
	cmpl	$32768, %eax
	je	.L507
.L509:
	.loc 1 1860 18 view .LVU1458
	movq	48(%rsp), %rsi
	movl	$1, %edx
	movl	%r14d, %edi
	call	lseek@PLT
.LVL555:
	.loc 1 1860 15 view .LVU1459
	addq	$1, %rax
	je	.L506
.L508:
	.loc 1 1861 9 is_stmt 1 view .LVU1460
	.loc 1 1861 19 is_stmt 0 view .LVU1461
	movq	48(%rsp), %rax
	addq	%rax, 160(%rsp)
	.loc 1 1868 15 view .LVU1462
	movq	$-1, 48(%rsp)
.LVL556:
.L510:
	.loc 1 1899 3 is_stmt 1 view .LVU1463
	.loc 1 1899 16 is_stmt 0 view .LVU1464
	movq	48(%rsp), %rcx
	movq	80(%rsp), %rsi
	movl	%r14d, %edx
	xorl	%edi, %edi
	call	dump_remainder
.LVL557:
	.loc 1 1899 13 view .LVU1465
	addq	%rax, 160(%rsp)
	.loc 1 1900 3 is_stmt 1 view .LVU1466
	.loc 1 1900 10 is_stmt 0 view .LVU1467
	movb	$1, 24(%rsp)
.LVL558:
.L502:
	.loc 1 1900 10 view .LVU1468
.LBE604:
.LBE689:
.LBE712:
.LBE728:
	.loc 1 2022 7 is_stmt 1 view .LVU1469
	.loc 1 2022 10 is_stmt 0 view .LVU1470
	cmpb	$0, forever(%rip)
	jne	.L970
	.loc 1 2068 11 is_stmt 1 view .LVU1471
	.loc 1 2068 14 is_stmt 0 view .LVU1472
	cmpl	$0, 56(%rsp)
	je	.L471
	.loc 1 2068 28 view .LVU1473
	movl	%r14d, %edi
	call	close@PLT
.LVL559:
	.loc 1 2068 25 view .LVU1474
	testl	%eax, %eax
	je	.L471
	.loc 1 2070 15 is_stmt 1 view .LVU1475
	movq	8(%rsp), %rax
	movq	(%rax), %rdi
	call	pretty_name.isra.0
.LVL560:
	movl	$4, %edi
	movq	%rax, %rsi
	call	quotearg_style@PLT
.LVL561:
	.loc 1 2070 32 is_stmt 0 view .LVU1476
	movl	$5, %edx
	leaq	.LC4(%rip), %rsi
	xorl	%edi, %edi
	.loc 1 2070 15 view .LVU1477
	movq	%rax, %r13
	.loc 1 2070 32 view .LVU1478
	call	dcgettext@PLT
.LVL562:
	movq	%rax, %r12
	.loc 1 2070 25 view .LVU1479
	call	__errno_location@PLT
.LVL563:
	.loc 1 2070 15 view .LVU1480
	movq	%r13, %rcx
	movq	%r12, %rdx
	xorl	%edi, %edi
	movl	(%rax), %esi
	xorl	%eax, %eax
	call	error@PLT
.LVL564:
	.loc 1 2072 15 is_stmt 1 view .LVU1481
	.loc 1 2072 18 is_stmt 0 view .LVU1482
	movb	$0, 24(%rsp)
	.loc 1 2072 18 view .LVU1483
	jmp	.L471
.LVL565:
.L506:
.LBB729:
.LBB713:
.LBB690:
.LBB605:
.LBB572:
	.loc 1 1864 11 is_stmt 1 view .LVU1484
	.loc 1 1864 19 is_stmt 0 view .LVU1485
	movq	48(%rsp), %rdx
	movq	80(%rsp), %rdi
	leaq	160(%rsp), %rcx
.LVL566:
	.loc 1 1864 19 view .LVU1486
	movl	%r14d, %esi
	call	start_bytes
.LVL567:
	.loc 1 1865 11 is_stmt 1 view .LVU1487
.LBE572:
	.loc 1 1868 15 is_stmt 0 view .LVU1488
	movq	$-1, 48(%rsp)
.LVL568:
.LBB573:
	.loc 1 1865 14 view .LVU1489
	testl	%eax, %eax
	je	.L510
	.loc 1 1866 13 is_stmt 1 view .LVU1490
	.loc 1 1866 22 is_stmt 0 view .LVU1491
	shrl	$31, %eax
.LVL569:
	.loc 1 1866 22 view .LVU1492
	movl	%eax, 24(%rsp)
	jmp	.L502
.LVL570:
.L487:
	.loc 1 1866 22 view .LVU1493
.LBE573:
.LBE605:
.LBE690:
.LBB691:
.LBB676:
.LBB661:
.LBB654:
.LBB647:
	.loc 1 691 13 is_stmt 1 view .LVU1494
	.loc 1 691 19 is_stmt 0 view .LVU1495
	movl	$8216, %edi
	call	xmalloc@PLT
.LVL571:
	.loc 1 691 19 view .LVU1496
	movq	%rbx, 16(%rsp)
	.loc 1 665 19 view .LVU1497
	movq	%rbp, 32(%rsp)
	.loc 1 691 19 view .LVU1498
	movq	%rax, %rbx
.LVL572:
	.loc 1 691 19 view .LVU1499
	jmp	.L481
.LVL573:
.L970:
	.loc 1 691 19 view .LVU1500
.LBE647:
.LBE654:
.LBE661:
.LBE676:
.LBE691:
.LBE713:
.LBE729:
.LBB730:
	.loc 1 2024 11 is_stmt 1 view .LVU1501
	.loc 1 2032 11 view .LVU1502
	.loc 1 2032 26 is_stmt 0 view .LVU1503
	movzbl	24(%rsp), %eax
	movq	8(%rsp), %rsi
.LBB731:
.LBB732:
	.loc 3 469 10 view .LVU1504
	movl	$1, %edi
	movq	96(%rsp), %rdx
.LBE732:
.LBE731:
	.loc 1 2032 26 view .LVU1505
	subl	$1, %eax
	movl	%eax, 60(%rsi)
	.loc 1 2033 11 is_stmt 1 view .LVU1506
.LVL574:
.LBB734:
.LBI731:
	.loc 3 467 1 view .LVU1507
.LBB733:
	.loc 3 469 3 view .LVU1508
	.loc 3 469 10 is_stmt 0 view .LVU1509
	movl	%r14d, %esi
	call	__fxstat@PLT
.LVL575:
	.loc 3 469 10 view .LVU1510
.LBE733:
.LBE734:
	.loc 1 2033 14 view .LVU1511
	testl	%eax, %eax
	js	.L971
	.loc 1 2040 16 is_stmt 1 view .LVU1512
	.loc 1 2040 21 is_stmt 0 view .LVU1513
	movl	552(%rsp), %edx
	movl	%edx, %eax
	andl	$61440, %eax
	subl	$4096, %eax
	.loc 1 2040 20 view .LVU1514
	testl	$-8192, %eax
	je	.L536
	.loc 1 2040 21 view .LVU1515
	movl	%edx, %eax
	andl	$45056, %eax
	.loc 1 2040 20 view .LVU1516
	cmpl	$32768, %eax
	jne	.L972
.L536:
	.loc 1 2051 11 is_stmt 1 view .LVU1517
	.loc 1 2051 14 is_stmt 0 view .LVU1518
	cmpb	$0, 24(%rsp)
	je	.L535
	.loc 1 2062 15 is_stmt 1 view .LVU1519
.LBB735:
.LBB736:
	.loc 1 398 9 is_stmt 0 view .LVU1520
	movq	8(%rsp), %rbx
	.loc 1 399 11 view .LVU1521
	movq	160(%rsp), %rcx
.LBE736:
.LBE735:
	.loc 1 2062 15 view .LVU1522
	cmpl	$1, 56(%rsp)
.LBB741:
.LBB737:
	.loc 1 399 11 view .LVU1523
	movq	%rcx, 8(%rbx)
	.loc 1 400 14 view .LVU1524
	movq	616(%rsp), %rcx
.LBE737:
.LBE741:
	.loc 1 2062 15 view .LVU1525
	sbbl	%eax, %eax
	orl	$1, %eax
.LVL576:
.LBB742:
.LBI735:
	.loc 1 394 1 is_stmt 1 view .LVU1526
.LBB738:
	.loc 1 398 3 view .LVU1527
	.loc 1 403 11 is_stmt 0 view .LVU1528
	movl	%edx, 48(%rbx)
.LBE738:
.LBE742:
	.loc 1 2063 27 view .LVU1529
	movq	(%rbx), %rdi
.LBB743:
.LBB739:
	.loc 1 400 14 view .LVU1530
	movq	%rcx, 16(%rbx)
	movq	624(%rsp), %rcx
	.loc 1 398 9 view .LVU1531
	movl	%r14d, 56(%rbx)
	.loc 1 399 3 is_stmt 1 view .LVU1532
	.loc 1 400 3 view .LVU1533
.LVL577:
	.loc 1 400 3 is_stmt 0 view .LVU1534
.LBE739:
.LBE743:
.LBE730:
.LBE772:
.LBE786:
.LBE802:
	.loc 5 149 3 is_stmt 1 view .LVU1535
.LBB803:
.LBB787:
.LBB773:
.LBB745:
.LBB744:
.LBB740:
	.loc 1 400 14 is_stmt 0 view .LVU1536
	movq	%rcx, 24(%rbx)
	.loc 1 401 3 is_stmt 1 view .LVU1537
	.loc 1 401 10 is_stmt 0 view .LVU1538
	movq	528(%rsp), %rcx
	.loc 1 404 15 view .LVU1539
	movl	%eax, 64(%rbx)
	.loc 1 401 10 view .LVU1540
	movq	%rcx, 32(%rbx)
	.loc 1 402 3 is_stmt 1 view .LVU1541
	.loc 1 402 10 is_stmt 0 view .LVU1542
	movq	536(%rsp), %rcx
	.loc 1 405 24 view .LVU1543
	movq	$0, 88(%rbx)
	.loc 1 402 10 view .LVU1544
	movq	%rcx, 40(%rbx)
	.loc 1 403 3 is_stmt 1 view .LVU1545
	.loc 1 404 3 view .LVU1546
	.loc 1 405 3 view .LVU1547
	.loc 1 406 3 view .LVU1548
	.loc 1 406 13 is_stmt 0 view .LVU1549
	movb	$0, 52(%rbx)
.LVL578:
	.loc 1 406 13 view .LVU1550
.LBE740:
.LBE744:
	.loc 1 2063 15 is_stmt 1 view .LVU1551
	.loc 1 2063 27 is_stmt 0 view .LVU1552
	call	pretty_name.isra.0
.LVL579:
	movl	%r14d, %edi
	movq	%rax, %rsi
	call	fremote
.LVL580:
	.loc 1 2063 25 view .LVU1553
	movb	%al, 53(%rbx)
	jmp	.L471
.LVL581:
.L963:
	.loc 1 2063 25 view .LVU1554
.LBE745:
	.loc 1 2020 9 is_stmt 1 view .LVU1555
	call	pretty_name.isra.0
.LVL582:
.LBB746:
.LBB747:
	.loc 1 425 3 is_stmt 0 view .LVU1556
	cmpb	$0, first_file.7627(%rip)
.LBB748:
.LBB749:
	.loc 2 107 10 view .LVU1557
	movl	$1, %edi
.LBE749:
.LBE748:
	.loc 1 425 3 view .LVU1558
	leaq	.LC6(%rip), %rdx
.LBE747:
.LBE746:
	.loc 1 2020 9 view .LVU1559
	movq	%rax, %rcx
.LVL583:
.LBB755:
.LBI746:
	.loc 1 421 1 is_stmt 1 view .LVU1560
.LBB754:
	.loc 1 423 3 view .LVU1561
	.loc 1 425 3 view .LVU1562
	leaq	.LC5(%rip), %rax
.LVL584:
.LBB752:
.LBB750:
	.loc 2 107 10 is_stmt 0 view .LVU1563
	leaq	.LC7(%rip), %rsi
.LBE750:
.LBE752:
	.loc 1 425 3 view .LVU1564
	cmovne	%rax, %rdx
.LVL585:
.LBB753:
.LBI748:
	.loc 2 105 1 is_stmt 1 view .LVU1565
.LBB751:
	.loc 2 107 3 view .LVU1566
	.loc 2 107 10 is_stmt 0 view .LVU1567
	xorl	%eax, %eax
	call	__printf_chk@PLT
.LVL586:
	.loc 2 107 10 view .LVU1568
.LBE751:
.LBE753:
	.loc 1 426 3 is_stmt 1 view .LVU1569
	.loc 1 426 14 is_stmt 0 view .LVU1570
	movb	$0, first_file.7627(%rip)
	.loc 1 427 1 view .LVU1571
	jmp	.L472
.LVL587:
.L466:
	.loc 1 427 1 view .LVU1572
.LBE754:
.LBE755:
.LBE773:
	.loc 1 1999 15 view .LVU1573
	movq	8(%rsp), %rax
.LVL588:
	.loc 1 1999 15 view .LVU1574
	movb	$1, 54(%rax)
	.loc 1 2001 3 is_stmt 1 view .LVU1575
	.loc 1 2001 6 is_stmt 0 view .LVU1576
	cmpl	$-1, %r14d
	je	.L676
	movq	8(%rsp), %rax
	movq	(%rax), %rdi
	jmp	.L677
.LVL589:
.L482:
	.loc 1 2001 6 view .LVU1577
	movq	%r13, %rax
	movq	%rbx, %r13
.LVL590:
	.loc 1 2001 6 view .LVU1578
	movl	88(%rsp), %r14d
.LBB774:
.LBB756:
.LBB714:
.LBB692:
.LBB677:
.LBB662:
.LBB655:
.LBB648:
	.loc 1 695 3 view .LVU1579
	movq	%r13, %rdi
	movq	%rax, %rbx
.LVL591:
	.loc 1 695 3 is_stmt 1 view .LVU1580
	call	free@PLT
.LVL592:
	.loc 1 697 3 view .LVU1581
	.loc 1 697 6 is_stmt 0 view .LVU1582
	addq	$1, %r12
.LVL593:
	.loc 1 697 6 view .LVU1583
	je	.L973
	.loc 1 705 3 is_stmt 1 view .LVU1584
	.loc 1 705 11 is_stmt 0 view .LVU1585
	movq	16(%rsp), %rsi
	.loc 1 709 6 view .LVU1586
	cmpq	$0, 48(%rsp)
	sete	%dl
	.loc 1 705 11 view .LVU1587
	movq	8192(%rsi), %rcx
	.loc 1 709 3 is_stmt 1 view .LVU1588
	.loc 1 705 6 is_stmt 0 view .LVU1589
	testq	%rcx, %rcx
	sete	%al
	.loc 1 709 6 view .LVU1590
	orb	%al, %dl
	movb	%dl, 112(%rsp)
	je	.L974
.LVL594:
.L489:
	.loc 1 748 9 is_stmt 1 view .LVU1591
	testq	%rbx, %rbx
	je	.L476
.LVL595:
	.p2align 4,,10
	.p2align 3
.L500:
	.loc 1 750 7 view .LVU1592
	movq	%rbx, %rdi
	.loc 1 750 11 is_stmt 0 view .LVU1593
	movq	8208(%rbx), %rbx
.LVL596:
	.loc 1 751 7 is_stmt 1 view .LVU1594
	call	free@PLT
.LVL597:
	.loc 1 752 7 view .LVU1595
	.loc 1 748 9 view .LVU1596
	testq	%rbx, %rbx
	jne	.L500
.LVL598:
.L476:
	.loc 1 748 9 is_stmt 0 view .LVU1597
.LBE648:
.LBE655:
.LBE662:
.LBE677:
.LBE692:
	.loc 1 1974 12 view .LVU1598
	movzbl	112(%rsp), %eax
	movb	%al, 24(%rsp)
	jmp	.L502
.LVL599:
.L971:
	.loc 1 1974 12 view .LVU1599
.LBE714:
.LBE756:
.LBB757:
	.loc 1 2035 15 is_stmt 1 view .LVU1600
	.loc 1 2036 15 view .LVU1601
	.loc 1 2036 27 is_stmt 0 view .LVU1602
	call	__errno_location@PLT
.LVL600:
	.loc 1 2036 25 view .LVU1603
	movq	8(%rsp), %rsi
	.loc 1 2036 27 view .LVU1604
	movq	%rax, %rbx
	.loc 1 2036 25 view .LVU1605
	movl	(%rax), %eax
	.loc 1 2037 15 view .LVU1606
	movq	(%rsi), %rdi
	.loc 1 2036 25 view .LVU1607
	movl	%eax, 60(%rsi)
	.loc 1 2037 15 is_stmt 1 view .LVU1608
	call	pretty_name.isra.0
.LVL601:
	movl	$4, %edi
	movq	%rax, %rsi
	call	quotearg_style@PLT
.LVL602:
	.loc 1 2037 32 is_stmt 0 view .LVU1609
	movl	$5, %edx
	leaq	.LC4(%rip), %rsi
	xorl	%edi, %edi
	.loc 1 2037 15 view .LVU1610
	movq	%rax, %r12
	.loc 1 2037 32 view .LVU1611
	call	dcgettext@PLT
.LVL603:
	.loc 1 2037 15 view .LVU1612
	movl	(%rbx), %esi
	movq	%r12, %rcx
	xorl	%edi, %edi
	.loc 1 2037 32 view .LVU1613
	movq	%rax, %rdx
	.loc 1 2037 15 view .LVU1614
	xorl	%eax, %eax
	call	error@PLT
.LVL604:
	.loc 1 2051 11 is_stmt 1 view .LVU1615
.L535:
	.loc 1 2053 15 view .LVU1616
	movzbl	reopen_inaccessible_files(%rip), %eax
	.loc 1 2053 25 is_stmt 0 view .LVU1617
	movq	8(%rsp), %rbx
	.loc 1 2053 15 view .LVU1618
	xorl	$1, %eax
	.loc 1 2054 15 view .LVU1619
	movq	(%rbx), %rdi
	.loc 1 2053 25 view .LVU1620
	movb	%al, 52(%rbx)
	.loc 1 2054 15 is_stmt 1 view .LVU1621
	call	pretty_name.isra.0
.LVL605:
	movl	%r14d, %edi
	movq	%rax, %rsi
	call	close_fd
.LVL606:
	.loc 1 2055 15 view .LVU1622
	.loc 1 2055 21 is_stmt 0 view .LVU1623
	movl	$-1, 56(%rbx)
	movb	$0, 24(%rsp)
	jmp	.L471
.LVL607:
.L505:
	.loc 1 2055 21 view .LVU1624
.LBE757:
.LBB758:
.LBB715:
.LBB693:
.LBB606:
.LBB574:
	.loc 1 1872 7 is_stmt 1 view .LVU1625
	.loc 1 1873 7 view .LVU1626
	.loc 1 1875 7 view .LVU1627
	.loc 1 1875 10 is_stmt 0 view .LVU1628
	testb	%al, %al
	je	.L975
.LVL608:
.L695:
	.loc 1 1883 9 is_stmt 1 view .LVU1629
.LBB575:
.LBI575:
	.loc 1 762 1 view .LVU1630
.LBB576:
	.loc 1 765 3 view .LVU1631
	.loc 1 771 3 view .LVU1632
	.loc 1 772 3 view .LVU1633
	.loc 1 773 3 view .LVU1634
	.loc 1 774 3 view .LVU1635
	.loc 1 775 3 view .LVU1636
	.loc 1 776 3 view .LVU1637
	.loc 1 778 3 view .LVU1638
	.loc 1 778 18 is_stmt 0 view .LVU1639
	movl	$8208, %edi
	.loc 1 774 10 view .LVU1640
	xorl	%ebx, %ebx
	.loc 1 778 18 view .LVU1641
	call	xmalloc@PLT
.LVL609:
	.loc 1 781 9 view .LVU1642
	movl	$8208, %edi
	.loc 1 779 17 view .LVU1643
	movq	$0, 8192(%rax)
	.loc 1 778 18 view .LVU1644
	movq	%rax, %r15
.LVL610:
	.loc 1 779 3 is_stmt 1 view .LVU1645
	.loc 1 780 3 view .LVU1646
	.loc 1 780 15 is_stmt 0 view .LVU1647
	movq	$0, 8200(%rax)
	.loc 1 781 3 is_stmt 1 view .LVU1648
	.loc 1 781 9 is_stmt 0 view .LVU1649
	movq	%r15, %r13
	call	xmalloc@PLT
.LVL611:
	.loc 1 781 9 view .LVU1650
	movq	48(%rsp), %r12
	movq	%rax, %rbp
.LVL612:
	.loc 1 781 9 view .LVU1651
	jmp	.L516
.LVL613:
.L518:
	.loc 1 809 11 is_stmt 1 view .LVU1652
	.loc 1 810 27 is_stmt 0 view .LVU1653
	movq	%rbx, %rax
	subq	8192(%r13), %rax
	.loc 1 809 29 view .LVU1654
	movq	%rbp, 8200(%r15)
.LVL614:
	.loc 1 810 11 is_stmt 1 view .LVU1655
	.loc 1 810 14 is_stmt 0 view .LVU1656
	cmpq	%rax, %r12
	jnb	.L520
.LVL615:
	.loc 1 812 15 is_stmt 1 view .LVU1657
	.loc 1 813 15 view .LVU1658
	.loc 1 814 15 view .LVU1659
	.loc 1 814 15 is_stmt 0 view .LVU1660
	movq	%rax, %rbx
	movq	%r13, %rax
.LVL616:
	.loc 1 814 21 view .LVU1661
	movq	8200(%r13), %r13
.LVL617:
.L519:
	.loc 1 814 21 view .LVU1662
	movq	%rbp, %r15
	movq	%rax, %rbp
.LVL618:
.L516:
	.loc 1 784 3 is_stmt 1 view .LVU1663
	.loc 1 786 7 view .LVU1664
	.loc 1 786 16 is_stmt 0 view .LVU1665
	movl	$8192, %edx
	movq	%rbp, %rsi
	movl	%r14d, %edi
	call	safe_read@PLT
.LVL619:
	.loc 1 786 16 view .LVU1666
	movq	%rax, %rdx
.LVL620:
	.loc 1 787 7 is_stmt 1 view .LVU1667
	.loc 1 787 23 is_stmt 0 view .LVU1668
	leaq	-1(%rax), %rax
.LVL621:
	.loc 1 787 10 view .LVU1669
	cmpq	$-3, %rax
	ja	.L517
	.loc 1 789 7 is_stmt 1 view .LVU1670
	.loc 1 789 17 is_stmt 0 view .LVU1671
	addq	%rdx, 160(%rsp)
	.loc 1 790 7 is_stmt 1 view .LVU1672
	.loc 1 793 19 is_stmt 0 view .LVU1673
	addq	%rdx, %rbx
.LVL622:
	.loc 1 790 19 view .LVU1674
	movq	%rdx, 8192(%rbp)
	.loc 1 791 7 is_stmt 1 view .LVU1675
	.loc 1 797 29 is_stmt 0 view .LVU1676
	movq	8192(%r15), %rax
	.loc 1 791 17 view .LVU1677
	movq	$0, 8200(%rbp)
	.loc 1 793 7 is_stmt 1 view .LVU1678
.LVL623:
	.loc 1 797 7 view .LVU1679
	.loc 1 797 23 is_stmt 0 view .LVU1680
	leaq	(%rdx,%rax), %rcx
	.loc 1 797 10 view .LVU1681
	cmpq	$8191, %rcx
	ja	.L518
	.loc 1 799 11 is_stmt 1 view .LVU1682
.LVL624:
.LBB577:
.LBI577:
	.loc 9 31 1 view .LVU1683
.LBB578:
	.loc 9 34 3 view .LVU1684
	.loc 9 34 10 is_stmt 0 view .LVU1685
	movq	%rbp, %rsi
.LBE578:
.LBE577:
	.loc 1 799 19 view .LVU1686
	leaq	(%r15,%rax), %rdi
.LVL625:
.LBB580:
.LBB579:
	.loc 9 34 10 view .LVU1687
	call	memcpy@PLT
.LVL626:
	.loc 9 34 10 view .LVU1688
.LBE579:
.LBE580:
	.loc 1 800 11 is_stmt 1 view .LVU1689
	.loc 1 800 24 is_stmt 0 view .LVU1690
	movq	8192(%rbp), %rax
	addq	%rax, 8192(%r15)
	movq	%rbp, %rax
	movq	%r15, %rbp
.LVL627:
	.loc 1 800 24 view .LVU1691
	jmp	.L519
.LVL628:
.L962:
	.loc 1 800 24 view .LVU1692
.LBE576:
.LBE575:
.LBE574:
.LBE606:
.LBE693:
.LBE715:
.LBE758:
.LBE774:
.LBE787:
.LBE803:
	.loc 1 2437 3 is_stmt 1 view .LVU1693
	.loc 1 2437 7 is_stmt 0 view .LVU1694
	movzbl	forever(%rip), %eax
.LVL629:
	.loc 1 2437 7 view .LVU1695
	movb	%al, 88(%rsp)
	.loc 1 2437 6 view .LVU1696
	testb	%al, %al
	je	.L548
	movq	64(%rsp), %rax
	movq	104(%rsp), %rbx
	xorl	%ecx, %ecx
	addq	%rax, %rbx
	.p2align 4,,10
	.p2align 3
.L547:
.LVL630:
.LBB804:
.LBB805:
.LBB806:
.LBB807:
	.loc 1 2312 7 is_stmt 1 view .LVU1697
	.loc 1 2313 10 is_stmt 0 view .LVU1698
	movq	(%rax), %rdx
	cmpb	$45, (%rdx)
	jne	.L545
	.loc 1 2316 10 view .LVU1699
	cmpb	$0, 1(%rdx)
	jne	.L545
	.loc 1 2314 10 view .LVU1700
	cmpb	$0, 52(%rax)
	jne	.L545
	.loc 1 2315 10 view .LVU1701
	cmpl	$0, 56(%rax)
	js	.L545
	.loc 1 2316 14 view .LVU1702
	movl	48(%rax), %edx
	andl	$61440, %edx
	.loc 1 2316 10 view .LVU1703
	cmpl	$4096, %edx
	je	.L976
.L545:
.LVL631:
	.loc 1 2318 7 is_stmt 1 view .LVU1704
	.loc 1 2324 9 view .LVU1705
	addq	$1, %rcx
.LVL632:
.L678:
	.loc 1 2324 9 is_stmt 0 view .LVU1706
.LBE807:
	.loc 1 2310 35 is_stmt 1 view .LVU1707
	.loc 1 2310 22 view .LVU1708
	addq	$96, %rax
	.loc 1 2310 3 is_stmt 0 view .LVU1709
	cmpq	%rax, %rbx
	jne	.L547
	.loc 1 2310 3 view .LVU1710
.LBE806:
	.loc 1 2327 3 is_stmt 1 view .LVU1711
.LVL633:
	.loc 1 2327 3 is_stmt 0 view .LVU1712
.LBE805:
.LBE804:
	.loc 1 2437 15 view .LVU1713
	testq	%rcx, %rcx
	jne	.L977
.LVL634:
.L548:
	.loc 1 2528 3 is_stmt 1 view .LVU1714
	movq	64(%rsp), %rdi
	call	free@PLT
.LVL635:
	.loc 1 2530 3 view .LVU1715
	.loc 1 2530 6 is_stmt 0 view .LVU1716
	cmpb	$0, have_read_stdin(%rip)
	jne	.L978
.L674:
	.loc 1 2532 3 is_stmt 1 view .LVU1717
	.loc 1 2532 28 is_stmt 0 view .LVU1718
	movzbl	95(%rsp), %eax
	xorl	$1, %eax
	movzbl	%al, %eax
.LVL636:
.L395:
	.loc 1 2533 1 view .LVU1719
	movq	680(%rsp), %rsi
	xorq	%fs:40, %rsi
	jne	.L979
	addq	$696, %rsp
	.cfi_remember_state
	.cfi_def_cfa_offset 56
	popq	%rbx
	.cfi_def_cfa_offset 48
	popq	%rbp
	.cfi_def_cfa_offset 40
	popq	%r12
	.cfi_def_cfa_offset 32
	popq	%r13
	.cfi_def_cfa_offset 24
	popq	%r14
	.cfi_def_cfa_offset 16
	popq	%r15
	.cfi_def_cfa_offset 8
	ret
.LVL637:
.L976:
	.cfi_restore_state
.LBB811:
.LBB810:
.LBB809:
.LBB808:
	.loc 1 2318 7 is_stmt 1 view .LVU1720
	.loc 1 2320 11 view .LVU1721
	.loc 1 2320 19 is_stmt 0 view .LVU1722
	movl	$-1, 56(%rax)
	.loc 1 2321 11 is_stmt 1 view .LVU1723
	.loc 1 2321 23 is_stmt 0 view .LVU1724
	movb	$1, 52(%rax)
	jmp	.L678
.LVL638:
.L965:
	.loc 1 2321 23 view .LVU1725
.LBE808:
.LBE809:
.LBE810:
.LBE811:
.LBB812:
.LBB788:
.LBB775:
.LBB759:
.LBB716:
.LBB694:
.LBB678:
.LBB663:
	.loc 1 1920 7 is_stmt 1 view .LVU1726
	.loc 1 1920 15 is_stmt 0 view .LVU1727
	movq	48(%rsp), %rdx
	movq	80(%rsp), %rdi
	leaq	160(%rsp), %rcx
.LVL639:
	.loc 1 1920 15 view .LVU1728
	movl	%r14d, %esi
	call	start_lines
.LVL640:
	.loc 1 1921 7 is_stmt 1 view .LVU1729
	.loc 1 1921 10 is_stmt 0 view .LVU1730
	testl	%eax, %eax
	je	.L478
	.loc 1 1922 9 is_stmt 1 view .LVU1731
	.loc 1 1922 18 is_stmt 0 view .LVU1732
	shrl	$31, %eax
.LVL641:
	.loc 1 1922 18 view .LVU1733
	movl	%eax, 112(%rsp)
	jmp	.L476
.LVL642:
.L952:
	.loc 1 1922 18 view .LVU1734
.LBE663:
.LBE678:
.LBE694:
.LBE716:
.LBE759:
.LBE775:
.LBE788:
.LBE812:
.LBB813:
.LBB525:
	.loc 1 2145 29 view .LVU1735
	xorl	%r13d, %r13d
	.loc 1 2144 29 view .LVU1736
	movl	$5120, %ecx
.L406:
.LVL643:
	.loc 1 2145 38 is_stmt 1 view .LVU1737
	.loc 1 2146 15 view .LVU1738
	.loc 1 2146 16 is_stmt 0 view .LVU1739
	leaq	1(%rdx), %rax
.LVL644:
	.loc 1 2146 20 is_stmt 1 view .LVU1740
	.loc 1 2146 5 is_stmt 0 view .LVU1741
	jmp	.L407
.LVL645:
.L713:
	.loc 1 2097 8 view .LVU1742
	movl	$1, %r13d
	.loc 1 2095 7 view .LVU1743
	movl	$10, %ecx
	jmp	.L406
.LVL646:
.L717:
	.loc 1 2095 7 view .LVU1744
.LBE525:
.LBE813:
.LBB814:
	.loc 1 2387 15 view .LVU1745
	movq	$1, (%rsp)
	.loc 1 2388 12 view .LVU1746
	leaq	dummy_stdin.8109(%rip), %rbp
	jmp	.L447
.LVL647:
.L964:
	.loc 1 2388 12 view .LVU1747
.LBE814:
.LBB815:
.LBB789:
.LBB776:
.LBB760:
.LBB717:
.LBB695:
.LBB679:
	.loc 1 1914 7 is_stmt 1 view .LVU1748
	movq	80(%rsp), %rsi
	movl	$4, %edi
	call	quotearg_style@PLT
.LVL648:
	.loc 1 1914 24 is_stmt 0 view .LVU1749
	movl	$5, %edx
	leaq	.LC88(%rip), %rsi
	xorl	%edi, %edi
	.loc 1 1914 7 view .LVU1750
	movq	%rax, %r13
	.loc 1 1914 24 view .LVU1751
	call	dcgettext@PLT
.LVL649:
	movq	%rax, %r12
	.loc 1 1914 17 view .LVU1752
	call	__errno_location@PLT
.LVL650:
	.loc 1 1914 7 view .LVU1753
	movq	%r13, %rcx
	movq	%r12, %rdx
	xorl	%edi, %edi
	movl	(%rax), %esi
	xorl	%eax, %eax
	call	error@PLT
.LVL651:
	.loc 1 1915 7 is_stmt 1 view .LVU1754
	.loc 1 1915 14 is_stmt 0 view .LVU1755
	movb	$0, 112(%rsp)
	jmp	.L476
.LVL652:
.L969:
	.loc 1 1915 14 view .LVU1756
.LBE679:
.LBE695:
.LBB696:
.LBB607:
	.loc 1 1851 7 is_stmt 1 view .LVU1757
	movq	80(%rsp), %rsi
	movl	$4, %edi
	call	quotearg_style@PLT
.LVL653:
	.loc 1 1851 24 is_stmt 0 view .LVU1758
	xorl	%edi, %edi
	movl	$5, %edx
	leaq	.LC88(%rip), %rsi
	.loc 1 1851 7 view .LVU1759
	movq	%rax, %r13
	.loc 1 1851 24 view .LVU1760
	call	dcgettext@PLT
.LVL654:
	movq	%rax, %r12
	.loc 1 1851 17 view .LVU1761
	call	__errno_location@PLT
.LVL655:
	.loc 1 1851 7 view .LVU1762
	movq	%r13, %rcx
	movq	%r12, %rdx
	xorl	%edi, %edi
	movl	(%rax), %esi
	xorl	%eax, %eax
	call	error@PLT
.LVL656:
	.loc 1 1852 7 is_stmt 1 view .LVU1763
	.loc 1 1852 14 is_stmt 0 view .LVU1764
	jmp	.L502
.LVL657:
.L975:
.LBB597:
	.loc 1 1875 32 view .LVU1765
	cmpq	$0, 48(%rsp)
	js	.L695
	.loc 1 1877 11 is_stmt 1 view .LVU1766
.LBB590:
.LBI590:
	.loc 7 705 1 view .LVU1767
.LVL658:
.LBB591:
	.loc 7 707 3 view .LVU1768
	.loc 7 707 33 is_stmt 0 view .LVU1769
	movl	552(%rsp), %eax
	andl	$53248, %eax
.LBE591:
.LBE590:
	.loc 1 1877 14 view .LVU1770
	cmpl	$32768, %eax
	jne	.L512
	.loc 1 1878 13 is_stmt 1 view .LVU1771
	.loc 1 1878 21 is_stmt 0 view .LVU1772
	movq	576(%rsp), %rbp
.LVL659:
	.loc 1 1873 13 view .LVU1773
	orq	$-1, %rbx
.LVL660:
.L513:
	.loc 1 1882 7 is_stmt 1 view .LVU1774
	.loc 1 1882 30 is_stmt 0 view .LVU1775
	movq	584(%rsp), %rax
	.loc 1 1882 22 view .LVU1776
	movabsq	$2305843009213693951, %rsi
	.loc 1 1882 30 view .LVU1777
	leaq	-1(%rax), %rdx
	.loc 1 1882 22 view .LVU1778
	cmpq	%rsi, %rdx
	movl	$512, %edx
	cmova	%rdx, %rax
	.loc 1 1882 10 view .LVU1779
	cmpq	%rax, %rbp
	jle	.L695
	.loc 1 1884 7 is_stmt 1 view .LVU1780
	.loc 1 1884 10 is_stmt 0 view .LVU1781
	cmpq	$-1, %rbx
	je	.L980
.L531:
	.loc 1 1886 7 is_stmt 1 view .LVU1782
	.loc 1 1886 10 is_stmt 0 view .LVU1783
	cmpq	%rbx, %rbp
	jle	.L532
.LBB592:
	.loc 1 1888 11 is_stmt 1 view .LVU1784
.LVL661:
	.loc 1 1890 11 view .LVU1785
	.loc 1 1888 17 is_stmt 0 view .LVU1786
	movq	%rbp, %rax
	subq	%rbx, %rax
.LVL662:
	.loc 1 1890 14 view .LVU1787
	cmpq	%rax, 48(%rsp)
	jb	.L981
.LVL663:
.L532:
	.loc 1 1890 14 view .LVU1788
.LBE592:
	.loc 1 1896 7 is_stmt 1 view .LVU1789
	.loc 1 1896 17 is_stmt 0 view .LVU1790
	movq	%rbx, 160(%rsp)
	jmp	.L510
.LVL664:
.L974:
	.loc 1 1896 17 view .LVU1791
.LBE597:
.LBE607:
.LBE696:
.LBB697:
.LBB680:
.LBB664:
.LBB656:
.LBB649:
	.loc 1 713 3 is_stmt 1 view .LVU1792
	.loc 1 713 38 is_stmt 0 view .LVU1793
	movsbl	line_end(%rip), %r12d
	.loc 1 713 6 view .LVU1794
	cmpb	%r12b, -1(%rsi,%rcx)
	je	.L490
	.loc 1 715 7 is_stmt 1 view .LVU1795
	addq	$1, 8200(%rsi)
	.loc 1 716 7 view .LVU1796
	addq	$1, 32(%rsp)
.LVL665:
.L490:
	.loc 1 721 3 view .LVU1797
	.loc 1 721 21 view .LVU1798
	.loc 1 721 3 is_stmt 0 view .LVU1799
	movq	48(%rsp), %rcx
	.loc 1 721 33 view .LVU1800
	movq	32(%rsp), %rdx
	.loc 1 721 3 view .LVU1801
	movq	%rbx, %r13
	.loc 1 721 33 view .LVU1802
	subq	8200(%rbx), %rdx
	.loc 1 721 3 view .LVU1803
	cmpq	%rdx, %rcx
	jb	.L492
	.loc 1 721 3 view .LVU1804
	jmp	.L491
.LVL666:
.L722:
	.loc 1 721 3 view .LVU1805
	movq	%rax, %rdx
.LVL667:
.L492:
	.loc 1 722 5 is_stmt 1 view .LVU1806
	.loc 1 721 58 view .LVU1807
	.loc 1 721 62 is_stmt 0 view .LVU1808
	movq	8208(%r13), %r13
.LVL668:
	.loc 1 721 21 is_stmt 1 view .LVU1809
	.loc 1 721 33 is_stmt 0 view .LVU1810
	movq	%rdx, %rax
	subq	8200(%r13), %rax
	.loc 1 721 3 view .LVU1811
	cmpq	%rax, %rcx
	jb	.L722
	movq	%rdx, 32(%rsp)
.LVL669:
.L491:
.LBB635:
	.loc 1 726 5 is_stmt 1 view .LVU1812
	.loc 1 727 17 is_stmt 0 view .LVU1813
	movq	8192(%r13), %r15
	.loc 1 728 8 view .LVU1814
	movq	48(%rsp), %rax
	.loc 1 726 17 view .LVU1815
	movq	%r13, %rdi
.LVL670:
	.loc 1 727 5 is_stmt 1 view .LVU1816
	.loc 1 728 8 is_stmt 0 view .LVU1817
	movq	32(%rsp), %rbp
	.loc 1 727 17 view .LVU1818
	addq	%r13, %r15
.LVL671:
	.loc 1 728 5 is_stmt 1 view .LVU1819
	.loc 1 728 8 is_stmt 0 view .LVU1820
	cmpq	%rbp, %rax
	jnb	.L493
.LVL672:
.LBB636:
	.loc 1 732 9 is_stmt 1 view .LVU1821
	.loc 1 733 9 view .LVU1822
	.loc 1 733 16 is_stmt 0 view .LVU1823
	subq	%rax, %rbp
.LVL673:
	.loc 1 733 41 is_stmt 1 view .LVU1824
	.p2align 4,,10
	.p2align 3
.L495:
	.loc 1 735 13 view .LVU1825
	.loc 1 735 53 is_stmt 0 view .LVU1826
	movq	%r15, %rdx
	.loc 1 735 19 view .LVU1827
	movl	%r12d, %esi
	.loc 1 735 53 view .LVU1828
	subq	%rdi, %rdx
	.loc 1 735 19 view .LVU1829
	call	memchr@PLT
.LVL674:
	.loc 1 736 13 is_stmt 1 view .LVU1830
	testq	%rax, %rax
	je	.L982
	.loc 1 737 13 view .LVU1831
	leaq	1(%rax), %rdi
.LVL675:
	.loc 1 733 44 view .LVU1832
	.loc 1 733 41 view .LVU1833
	.loc 1 733 9 is_stmt 0 view .LVU1834
	subq	$1, %rbp
.LVL676:
	.loc 1 733 9 view .LVU1835
	jne	.L495
.LVL677:
.L493:
	.loc 1 733 9 view .LVU1836
.LBE636:
	.loc 1 741 5 is_stmt 1 view .LVU1837
.LBB637:
.LBI637:
	.loc 1 433 1 view .LVU1838
.LBB638:
	.loc 1 435 3 view .LVU1839
	.loc 1 435 6 is_stmt 0 view .LVU1840
	subq	%rdi, %r15
.LVL678:
	.loc 1 435 6 view .LVU1841
	jne	.L983
.LVL679:
.L496:
	.loc 1 435 6 view .LVU1842
.LBE638:
.LBE637:
.LBE635:
	.loc 1 744 3 is_stmt 1 view .LVU1843
	.loc 1 744 12 is_stmt 0 view .LVU1844
	movq	8208(%r13), %rbp
.LVL680:
	.loc 1 744 25 is_stmt 1 view .LVU1845
	.loc 1 744 3 is_stmt 0 view .LVU1846
	testq	%rbp, %rbp
	je	.L497
	.p2align 4,,10
	.p2align 3
.L499:
	.loc 1 745 5 is_stmt 1 view .LVU1847
	movq	8192(%rbp), %rsi
.LVL681:
.LBB642:
.LBI642:
	.loc 1 433 1 view .LVU1848
.LBB643:
	.loc 1 435 3 view .LVU1849
	.loc 1 435 6 is_stmt 0 view .LVU1850
	testq	%rsi, %rsi
	je	.L498
	.loc 1 435 6 view .LVU1851
	movq	%rbp, %rdi
	call	xwrite_stdout.part.0
.LVL682:
.L498:
	.loc 1 435 6 view .LVU1852
.LBE643:
.LBE642:
	.loc 1 744 30 is_stmt 1 view .LVU1853
	.loc 1 744 34 is_stmt 0 view .LVU1854
	movq	8208(%rbp), %rbp
.LVL683:
	.loc 1 744 25 is_stmt 1 view .LVU1855
	.loc 1 744 3 is_stmt 0 view .LVU1856
	testq	%rbp, %rbp
	jne	.L499
.L497:
	.loc 1 748 9 is_stmt 1 view .LVU1857
	movzbl	24(%rsp), %eax
	movb	%al, 112(%rsp)
	jmp	.L500
.LVL684:
.L961:
	.loc 1 748 9 is_stmt 0 view .LVU1858
	movq	8(%rsp), %rax
.LVL685:
	.loc 1 748 9 view .LVU1859
	movq	(%rax), %rdi
	jmp	.L465
.LVL686:
.L712:
	.loc 1 748 9 view .LVU1860
.LBE649:
.LBE656:
.LBE664:
.LBE680:
.LBE697:
.LBE717:
.LBE760:
.LBE776:
.LBE789:
.LBE815:
.LBB816:
.LBB526:
	.loc 1 2142 3 view .LVU1861
	xorl	%r13d, %r13d
	movl	$10, %ecx
	jmp	.L406
.LVL687:
.L520:
	.loc 1 2142 3 view .LVU1862
.LBE526:
.LBE816:
.LBB817:
.LBB790:
.LBB777:
.LBB761:
.LBB718:
.LBB698:
.LBB608:
.LBB598:
.LBB593:
.LBB587:
	.loc 1 818 15 is_stmt 1 view .LVU1863
	.loc 1 818 21 is_stmt 0 view .LVU1864
	movl	$8208, %edi
	call	xmalloc@PLT
.LVL688:
	.loc 1 818 21 view .LVU1865
	jmp	.L519
.LVL689:
.L966:
	.loc 1 818 21 view .LVU1866
.LBE587:
.LBE593:
.LBE598:
.LBE608:
.LBE698:
.LBB699:
.LBB681:
.LBB665:
	.loc 1 1934 28 view .LVU1867
	movl	$1, %edx
	xorl	%esi, %esi
	movl	%r14d, %edi
	call	lseek@PLT
.LVL690:
	movq	%rax, %rbp
.LVL691:
	.loc 1 1934 12 view .LVU1868
	cmpq	$-1, %rax
	je	.L675
	.loc 1 1935 38 view .LVU1869
	xorl	%esi, %esi
	movl	$2, %edx
	movl	%r14d, %edi
	call	lseek@PLT
.LVL692:
	.loc 1 1935 12 view .LVU1870
	cmpq	%rax, %rbp
	jge	.L480
	.loc 1 1937 11 is_stmt 1 view .LVU1871
.LBE665:
	.loc 1 1955 10 is_stmt 0 view .LVU1872
	movzbl	24(%rsp), %esi
.LBB666:
	.loc 1 1937 21 view .LVU1873
	movq	%rax, 160(%rsp)
	.loc 1 1938 11 is_stmt 1 view .LVU1874
.LBE666:
	.loc 1 1955 10 is_stmt 0 view .LVU1875
	movb	%sil, 112(%rsp)
.LBB667:
	.loc 1 1938 14 view .LVU1876
	testq	%rax, %rax
	je	.L476
	.loc 1 1939 20 view .LVU1877
	movq	48(%rsp), %rdx
	movq	80(%rsp), %rdi
	movq	%rax, %r8
	movq	%rbp, %rcx
	leaq	160(%rsp), %r9
.LVL693:
	.loc 1 1939 20 view .LVU1878
	movl	%r14d, %esi
	call	file_lines
.LVL694:
	.loc 1 1939 20 view .LVU1879
	movb	%al, 112(%rsp)
	jmp	.L476
.LVL695:
.L478:
	.loc 1 1939 20 view .LVU1880
.LBE667:
.LBB668:
	.loc 1 1923 7 is_stmt 1 view .LVU1881
	.loc 1 1923 20 is_stmt 0 view .LVU1882
	movq	80(%rsp), %rsi
	orq	$-1, %rcx
	movl	%r14d, %edx
	xorl	%edi, %edi
	call	dump_remainder
.LVL696:
	.loc 1 1923 17 view .LVU1883
	addq	%rax, 160(%rsp)
.LBE668:
	jmp	.L476
.LVL697:
.L978:
	.loc 1 1923 17 view .LVU1884
.LBE681:
.LBE699:
.LBE718:
.LBE761:
.LBE777:
.LBE790:
.LBE817:
	.loc 1 2530 26 discriminator 1 view .LVU1885
	xorl	%edi, %edi
	call	close@PLT
.LVL698:
	.loc 1 2530 23 discriminator 1 view .LVU1886
	testl	%eax, %eax
	jns	.L674
.LBB818:
	.loc 1 2531 5 is_stmt 1 view .LVU1887
	call	__errno_location@PLT
.LVL699:
	leaq	.LC84(%rip), %rdx
	movl	$1, %edi
	movl	(%rax), %esi
	xorl	%eax, %eax
	call	error@PLT
.LVL700:
.L972:
	.loc 1 2531 5 is_stmt 0 view .LVU1888
.LBE818:
.LBB819:
.LBB791:
.LBB778:
.LBB762:
	.loc 1 2042 15 is_stmt 1 view .LVU1889
	.loc 1 2043 15 view .LVU1890
	.loc 1 2045 15 is_stmt 0 view .LVU1891
	movzbl	reopen_inaccessible_files(%rip), %eax
	.loc 1 2043 25 view .LVU1892
	movq	8(%rsp), %rsi
	.loc 1 2046 15 view .LVU1893
	leaq	.LC5(%rip), %rbx
	.loc 1 2045 15 view .LVU1894
	xorl	$1, %eax
	.loc 1 2043 25 view .LVU1895
	movl	$-1, 60(%rsi)
	.loc 1 2044 15 is_stmt 1 view .LVU1896
	.loc 1 2044 27 is_stmt 0 view .LVU1897
	movb	$0, 54(%rsi)
	.loc 1 2045 15 is_stmt 1 view .LVU1898
	.loc 1 2045 25 is_stmt 0 view .LVU1899
	movb	%al, 52(%rsi)
	.loc 1 2046 15 is_stmt 1 view .LVU1900
	testb	%al, %al
	jne	.L984
.L537:
	movq	8(%rsp), %rax
	movq	(%rax), %rdi
	call	pretty_name.isra.0
.LVL701:
	xorl	%edi, %edi
	movl	$3, %esi
	movq	%rax, %rdx
	call	quotearg_n_style_colon@PLT
.LVL702:
	.loc 1 2046 28 is_stmt 0 view .LVU1901
	xorl	%edi, %edi
	movl	$5, %edx
	leaq	.LC90(%rip), %rsi
	.loc 1 2046 15 view .LVU1902
	movq	%rax, %r12
	.loc 1 2046 28 view .LVU1903
	call	dcgettext@PLT
.LVL703:
	.loc 1 2046 15 view .LVU1904
	movq	%rbx, %r8
	movq	%r12, %rcx
	xorl	%esi, %esi
	.loc 1 2046 28 view .LVU1905
	movq	%rax, %rdx
	.loc 1 2046 15 view .LVU1906
	xorl	%edi, %edi
	xorl	%eax, %eax
	call	error@PLT
.LVL704:
	.loc 1 2051 11 is_stmt 1 view .LVU1907
	jmp	.L535
.LVL705:
.L960:
	.loc 1 2051 11 is_stmt 0 view .LVU1908
.LBE762:
.LBE778:
.LBE791:
.LBE819:
	.loc 1 2421 3 is_stmt 1 view .LVU1909
	.loc 1 2421 6 is_stmt 0 view .LVU1910
	cmpq	$0, 128(%rsp)
	jne	.L705
	.loc 1 2421 30 view .LVU1911
	cmpb	$0, from_start(%rip)
	jne	.L705
.LVL706:
.L943:
	.loc 1 2422 12 view .LVU1912
	xorl	%eax, %eax
	jmp	.L395
.LVL707:
.L412:
.LBB820:
.LBB544:
.LBB540:
	.loc 1 2273 11 is_stmt 1 view .LVU1913
	movl	$1, %edi
	call	usage
.LVL708:
.L429:
	.loc 1 2270 11 is_stmt 0 view .LVU1914
	movl	$5, %edx
	leaq	.LC77(%rip), %rsi
	xorl	%edi, %edi
	movl	%ecx, (%rsp)
	.loc 1 2266 9 is_stmt 1 view .LVU1915
	.loc 1 2266 57 view .LVU1916
	.loc 1 2270 11 view .LVU1917
	call	dcgettext@PLT
.LVL709:
	.loc 1 2270 11 is_stmt 0 view .LVU1918
	movl	(%rsp), %ecx
	xorl	%esi, %esi
	movl	$1, %edi
	movq	%rax, %rdx
	xorl	%eax, %eax
	call	error@PLT
.LVL710:
.L983:
	.loc 1 2270 11 view .LVU1919
.LBE540:
.LBE544:
.LBE820:
.LBB821:
.LBB792:
.LBB779:
.LBB763:
.LBB719:
.LBB700:
.LBB682:
.LBB669:
.LBB657:
.LBB650:
.LBB644:
.LBB640:
.LBB639:
	movq	%r15, %rsi
	call	xwrite_stdout.part.0
.LVL711:
	.loc 1 2270 11 view .LVU1920
	jmp	.L496
.LVL712:
.L968:
	.loc 1 2270 11 view .LVU1921
.LBE639:
.LBE640:
.LBE644:
.LBE650:
.LBE657:
.LBE669:
.LBE682:
.LBE700:
.LBE719:
.LBE763:
.LBE779:
.LBE792:
.LBE821:
.LBB822:
.LBB545:
	.loc 1 2290 5 is_stmt 1 view .LVU1922
	.loc 1 2291 12 is_stmt 0 view .LVU1923
	xorl	%edi, %edi
	movl	$5, %edx
	leaq	.LC81(%rip), %rsi
	call	dcgettext@PLT
.LVL713:
	.loc 1 2290 5 view .LVU1924
	xorl	%esi, %esi
	xorl	%edi, %edi
	.loc 1 2291 12 view .LVU1925
	movq	%rax, %rdx
	.loc 1 2290 5 view .LVU1926
	xorl	%eax, %eax
	call	error@PLT
.LVL714:
	jmp	.L442
.LVL715:
.L512:
	.loc 1 2290 5 view .LVU1927
.LBE545:
.LBE822:
.LBB823:
.LBB793:
.LBB780:
.LBB764:
.LBB720:
.LBB701:
.LBB609:
.LBB599:
	.loc 1 1879 16 is_stmt 1 view .LVU1928
	.loc 1 1879 46 is_stmt 0 view .LVU1929
	movq	48(%rsp), %r15
	.loc 1 1879 35 view .LVU1930
	movl	$2, %edx
	movl	%r14d, %edi
	.loc 1 1879 46 view .LVU1931
	movq	%r15, %rsi
	negq	%rsi
	.loc 1 1879 35 view .LVU1932
	call	lseek@PLT
.LVL716:
	movq	%rax, %rbx
.LVL717:
	.loc 1 1879 19 view .LVU1933
	cmpq	$-1, %rax
	je	.L695
	.loc 1 1880 13 is_stmt 1 view .LVU1934
	.loc 1 1880 35 is_stmt 0 view .LVU1935
	leaq	(%rax,%r15), %rbp
.LVL718:
	.loc 1 1880 35 view .LVU1936
	jmp	.L513
.LVL719:
.L984:
	.loc 1 1880 35 view .LVU1937
.LBE599:
.LBE609:
.LBE701:
.LBE720:
.LBE764:
.LBB765:
	.loc 1 2048 34 view .LVU1938
	movl	$5, %edx
	leaq	.LC18(%rip), %rsi
	xorl	%edi, %edi
	call	dcgettext@PLT
.LVL720:
	movq	%rax, %rbx
	jmp	.L537
.LVL721:
.L517:
	.loc 1 2048 34 view .LVU1939
	movq	%rdx, %r12
.LBE765:
.LBB766:
.LBB721:
.LBB702:
.LBB610:
.LBB600:
.LBB594:
.LBB588:
	.loc 1 823 3 is_stmt 1 view .LVU1940
	movq	%rbp, %rdi
	movq	%r13, %rbp
.LVL722:
	.loc 1 823 3 is_stmt 0 view .LVU1941
	call	free@PLT
.LVL723:
	.loc 1 825 3 is_stmt 1 view .LVU1942
	.loc 1 825 6 is_stmt 0 view .LVU1943
	addq	$1, %r12
.LVL724:
	.loc 1 825 6 view .LVU1944
	movq	48(%rsp), %rdx
	jne	.L521
.LVL725:
	.loc 1 825 6 view .LVU1945
	jmp	.L985
.LVL726:
.L523:
	.loc 1 835 5 is_stmt 1 view .LVU1946
	.loc 1 834 58 view .LVU1947
	.loc 1 834 62 is_stmt 0 view .LVU1948
	movq	8200(%rbp), %rbp
.LVL727:
	.loc 1 834 62 view .LVU1949
	movq	%rax, %rbx
.LVL728:
.L521:
	.loc 1 834 21 is_stmt 1 view .LVU1950
	.loc 1 834 38 is_stmt 0 view .LVU1951
	movq	8192(%rbp), %rsi
	.loc 1 834 33 view .LVU1952
	movq	%rbx, %rax
	subq	%rsi, %rax
	.loc 1 834 3 view .LVU1953
	cmpq	%rax, %rdx
	jb	.L523
	.loc 1 839 3 is_stmt 1 view .LVU1954
	.loc 1 839 6 is_stmt 0 view .LVU1955
	movq	48(%rsp), %rdi
	.loc 1 842 7 view .LVU1956
	xorl	%eax, %eax
	.loc 1 839 6 view .LVU1957
	cmpq	%rbx, %rdi
	jnb	.L524
	.loc 1 840 5 is_stmt 1 view .LVU1958
	.loc 1 840 7 is_stmt 0 view .LVU1959
	movq	%rbx, %rax
	subq	%rdi, %rax
.LVL729:
.L524:
	.loc 1 843 3 is_stmt 1 view .LVU1960
.LBB581:
.LBI581:
	.loc 1 433 1 view .LVU1961
.LBB582:
	.loc 1 435 3 view .LVU1962
	.loc 1 435 6 is_stmt 0 view .LVU1963
	subq	%rax, %rsi
.LVL730:
	.loc 1 435 6 view .LVU1964
	je	.L525
.LBE582:
.LBE581:
	.loc 1 843 18 view .LVU1965
	leaq	0(%rbp,%rax), %rdi
.LVL731:
.LBB584:
.LBB583:
	.loc 1 843 18 view .LVU1966
	call	xwrite_stdout.part.0
.LVL732:
.L525:
	.loc 1 843 18 view .LVU1967
.LBE583:
.LBE584:
	.loc 1 845 3 is_stmt 1 view .LVU1968
	.loc 1 845 12 is_stmt 0 view .LVU1969
	movq	8200(%rbp), %rbx
.LVL733:
	.loc 1 845 3 view .LVU1970
	jmp	.L526
.L528:
	.loc 1 846 5 is_stmt 1 view .LVU1971
	movq	8192(%rbx), %rsi
.LVL734:
.LBB585:
.LBI585:
	.loc 1 433 1 view .LVU1972
.LBB586:
	.loc 1 435 3 view .LVU1973
	.loc 1 435 6 is_stmt 0 view .LVU1974
	testq	%rsi, %rsi
	je	.L527
	.loc 1 435 6 view .LVU1975
	movq	%rbx, %rdi
	call	xwrite_stdout.part.0
.LVL735:
.L527:
	.loc 1 435 6 view .LVU1976
.LBE586:
.LBE585:
	.loc 1 845 30 is_stmt 1 view .LVU1977
	.loc 1 845 34 is_stmt 0 view .LVU1978
	movq	8200(%rbx), %rbx
.LVL736:
.L526:
	.loc 1 845 25 is_stmt 1 view .LVU1979
	.loc 1 845 3 is_stmt 0 view .LVU1980
	testq	%rbx, %rbx
	jne	.L528
.L522:
	.loc 1 845 3 view .LVU1981
	endbr64
	.loc 1 775 8 view .LVU1982
	movb	$1, 24(%rsp)
	movq	%r13, %rdi
	jmp	.L529
.LVL737:
.L530:
	.loc 1 851 7 is_stmt 1 view .LVU1983
	.loc 1 851 11 is_stmt 0 view .LVU1984
	movq	8200(%rdi), %rbx
.LVL738:
	.loc 1 852 7 is_stmt 1 view .LVU1985
	call	free@PLT
.LVL739:
	.loc 1 853 7 view .LVU1986
	.loc 1 853 13 is_stmt 0 view .LVU1987
	movq	%rbx, %rdi
.LVL740:
.L529:
	.loc 1 849 9 is_stmt 1 view .LVU1988
	testq	%rdi, %rdi
	jne	.L530
	.loc 1 849 9 is_stmt 0 view .LVU1989
	jmp	.L502
.LVL741:
.L706:
	.loc 1 849 9 view .LVU1990
.LBE588:
.LBE594:
.LBE600:
.LBE610:
.LBE702:
.LBE721:
.LBE766:
.LBE780:
.LBE793:
.LBE823:
	.loc 1 2421 30 discriminator 2 view .LVU1991
	cmpb	$0, from_start(%rip)
	je	.L943
	.loc 1 2424 3 is_stmt 1 view .LVU1992
.LVL742:
.LBB824:
	.loc 8 99 1 view .LVU1993
.LBB558:
	.loc 8 101 3 view .LVU1994
	.loc 8 103 3 view .LVU1995
	.loc 8 103 10 is_stmt 0 view .LVU1996
	movq	(%rsp), %r14
	imulq	$96, %r14, %rax
	movq	%rax, %rdi
	movq	%rax, 104(%rsp)
	call	xmalloc@PLT
.LVL743:
	movq	%rax, 64(%rsp)
.LVL744:
	.loc 8 103 10 view .LVU1997
.LBE558:
.LBE824:
	.loc 1 2425 3 is_stmt 1 view .LVU1998
	.loc 1 2425 15 view .LVU1999
	.loc 1 2425 3 is_stmt 0 view .LVU2000
	testq	%r14, %r14
	jne	.L703
.L699:
.LVL745:
	.loc 1 2428 3 is_stmt 1 view .LVU2001
	.loc 1 2428 6 is_stmt 0 view .LVU2002
	subl	$1, %ebx
.LVL746:
	.loc 1 2428 6 view .LVU2003
	jne	.L942
	.loc 1 2430 5 is_stmt 1 view .LVU2004
	.loc 1 2430 19 is_stmt 0 view .LVU2005
	movb	$1, print_headers(%rip)
.L942:
	.loc 1 2434 15 is_stmt 1 view .LVU2006
	.loc 1 2430 19 is_stmt 0 view .LVU2007
	movb	$1, 95(%rsp)
	jmp	.L548
.LVL747:
.L958:
	.loc 1 2421 3 is_stmt 1 view .LVU2008
	.loc 1 2421 7 is_stmt 0 view .LVU2009
	movq	128(%rsp), %rax
	movq	%rax, (%rsp)
	.loc 1 2421 6 view .LVU2010
	testq	%rax, %rax
	jne	.L707
	.loc 1 2421 17 view .LVU2011
	cmpb	$0, forever(%rip)
	je	.L706
.L707:
	.loc 1 2424 3 is_stmt 1 view .LVU2012
.LVL748:
.LBB825:
	.loc 8 99 1 view .LVU2013
.LBB559:
	.loc 8 101 3 view .LVU2014
	.loc 8 103 3 view .LVU2015
	.loc 8 103 10 is_stmt 0 view .LVU2016
	xorl	%edi, %edi
	call	xmalloc@PLT
.LVL749:
	.loc 8 103 10 view .LVU2017
	movq	%rax, 64(%rsp)
.LVL750:
	.loc 8 103 10 view .LVU2018
.LBE559:
.LBE825:
	.loc 1 2425 3 is_stmt 1 view .LVU2019
	.loc 1 2425 15 view .LVU2020
	jmp	.L699
.LVL751:
.L980:
.LBB826:
.LBB794:
.LBB781:
.LBB767:
.LBB722:
.LBB703:
.LBB611:
.LBB601:
	.loc 1 1885 9 view .LVU2021
	.loc 1 1885 23 is_stmt 0 view .LVU2022
	movq	80(%rsp), %rcx
	movl	$1, %edx
	xorl	%esi, %esi
	movl	%r14d, %edi
	call	xlseek
.LVL752:
	movq	%rax, %rbx
.LVL753:
	.loc 1 1885 23 view .LVU2023
	jmp	.L531
.LVL754:
.L977:
	.loc 1 1885 23 view .LVU2024
.LBE601:
.LBE611:
.LBE703:
.LBE722:
.LBE767:
.LBE781:
.LBE794:
.LBE826:
.LBB827:
	.loc 1 2442 7 is_stmt 1 view .LVU2025
	.loc 1 2443 7 view .LVU2026
.LBB828:
.LBI828:
	.loc 3 467 1 view .LVU2027
.LBB829:
	.loc 3 469 3 view .LVU2028
	.loc 3 469 10 is_stmt 0 view .LVU2029
	leaq	384(%rsp), %rdx
.LVL755:
	.loc 3 469 10 view .LVU2030
	movl	$1, %esi
	movl	$1, %edi
	call	__fxstat@PLT
.LVL756:
	.loc 3 469 10 view .LVU2031
.LBE829:
.LBE828:
	.loc 1 2443 10 view .LVU2032
	testl	%eax, %eax
	js	.L986
	.loc 1 2445 7 is_stmt 1 view .LVU2033
	.loc 1 2445 25 is_stmt 0 view .LVU2034
	movl	408(%rsp), %eax
	andl	$61440, %eax
	.loc 1 2446 25 view .LVU2035
	cmpl	$4096, %eax
	.loc 1 2445 22 view .LVU2036
	sete	monitor_output(%rip)
	.loc 1 2486 7 is_stmt 1 view .LVU2037
	.loc 1 2486 10 is_stmt 0 view .LVU2038
	cmpb	$0, disable_inotify(%rip)
	jne	.L550
	movq	64(%rsp), %r12
.LBB830:
.LBB831:
	.loc 1 1379 25 view .LVU2039
	leaq	.LC84(%rip), %rbp
	jmp	.L551
.L554:
	.loc 1 1379 5 is_stmt 1 view .LVU2040
	.loc 1 1379 8 is_stmt 0 view .LVU2041
	cmpb	$0, 52(%r12)
	jne	.L552
	.loc 1 1379 25 view .LVU2042
	movq	(%r12), %rdi
	movq	%rbp, %rsi
	call	strcmp@PLT
.LVL757:
	.loc 1 1379 22 view .LVU2043
	testl	%eax, %eax
	je	.L550
.L552:
	.loc 1 1378 35 is_stmt 1 view .LVU2044
	addq	$96, %r12
.L551:
	.loc 1 1378 22 view .LVU2045
	.loc 1 1378 3 is_stmt 0 view .LVU2046
	cmpq	%r12, %rbx
	jne	.L554
	movq	104(%rsp), %rdx
	movq	64(%rsp), %rax
	xorl	%r15d, %r15d
	jmp	.L555
.L558:
.LBE831:
.LBE830:
.LBB832:
.LBB833:
	.loc 1 1326 5 is_stmt 1 view .LVU2047
	.loc 1 1326 8 is_stmt 0 view .LVU2048
	cmpl	$0, 56(%rax,%r15)
	js	.L556
	.loc 1 1326 22 view .LVU2049
	cmpb	$0, 53(%rax,%r15)
	jne	.L550
.L556:
	.loc 1 1325 35 is_stmt 1 view .LVU2050
	addq	$96, %r15
.L555:
	.loc 1 1325 22 view .LVU2051
	.loc 1 1325 3 is_stmt 0 view .LVU2052
	cmpq	%rdx, %r15
	jne	.L558
	movq	64(%rsp), %rdx
	xorl	%eax, %eax
	jmp	.L559
.L562:
.LBE833:
.LBE832:
.LBB834:
.LBB835:
	.loc 1 1338 5 is_stmt 1 view .LVU2053
	.loc 1 1338 8 is_stmt 0 view .LVU2054
	cmpl	$0, 56(%rdx,%rax)
	js	.L560
	.loc 1 1338 31 view .LVU2055
	movzbl	53(%rdx,%rax), %ecx
	.loc 1 1338 22 view .LVU2056
	testb	%cl, %cl
	je	.L561
.L560:
	.loc 1 1337 35 is_stmt 1 view .LVU2057
	addq	$96, %rax
.L559:
	.loc 1 1337 22 view .LVU2058
	.loc 1 1337 3 is_stmt 0 view .LVU2059
	cmpq	%rax, %r15
	jne	.L562
.LVL758:
.L550:
	.loc 1 1337 3 view .LVU2060
.LBE835:
.LBE834:
	.loc 1 2494 7 is_stmt 1 view .LVU2061
	.loc 1 2524 7 view .LVU2062
.LBB836:
.LBB837:
	.loc 1 1157 24 is_stmt 0 view .LVU2063
	movl	pid(%rip), %r12d
.LBE837:
.LBE836:
	.loc 1 2524 23 view .LVU2064
	movb	$1, disable_inotify(%rip)
	.loc 1 2525 7 is_stmt 1 view .LVU2065
.LVL759:
.LBB901:
.LBI836:
	.loc 1 1154 1 view .LVU2066
.LBB892:
	.loc 1 1157 3 view .LVU2067
	.loc 1 1158 53 is_stmt 0 view .LVU2068
	testl	%r12d, %r12d
	je	.L692
	xorl	%r12d, %r12d
.L638:
	.loc 1 1157 8 view .LVU2069
	movl	%r12d, %eax
	.loc 1 1160 8 view .LVU2070
	movb	$0, 56(%rsp)
	.loc 1 1157 8 view .LVU2071
	andl	$1, %eax
	movb	%al, 40(%rsp)
.LVL760:
	.loc 1 1159 3 is_stmt 1 view .LVU2072
	.loc 1 1160 3 view .LVU2073
	.loc 1 1162 3 view .LVU2074
	.loc 1 1162 8 is_stmt 0 view .LVU2075
	movq	(%rsp), %rax
.LVL761:
	.loc 1 1162 8 view .LVU2076
	subq	$1, %rax
	movq	%rax, 16(%rsp)
.LVL762:
	.loc 1 1162 8 view .LVU2077
	leaq	52(%rbx), %rax
.LVL763:
	.loc 1 1162 8 view .LVU2078
	movq	%rax, 32(%rsp)
.LVL764:
	.p2align 4,,10
	.p2align 3
.L639:
	.loc 1 1164 3 is_stmt 1 view .LVU2079
.LBB838:
	.loc 1 1166 7 view .LVU2080
	.loc 1 1167 7 view .LVU2081
	.loc 1 1169 7 view .LVU2082
	.loc 1 1169 19 view .LVU2083
.LBB839:
.LBB840:
.LBB841:
	.loc 3 469 10 is_stmt 0 view .LVU2084
	leaq	528(%rsp), %rax
.LBE841:
.LBE840:
.LBE839:
	.loc 1 1167 12 view .LVU2085
	movb	$0, 8(%rsp)
.LBE838:
	.loc 1 1160 8 view .LVU2086
	movq	64(%rsp), %r15
.LBB884:
	.loc 1 1169 14 view .LVU2087
	xorl	%ebx, %ebx
.LBB862:
.LBB844:
.LBB842:
	.loc 3 469 10 view .LVU2088
	movq	%rax, 24(%rsp)
	jmp	.L658
.LVL765:
	.p2align 4,,10
	.p2align 3
.L641:
	.loc 3 469 10 view .LVU2089
.LBE842:
.LBE844:
	.loc 1 1186 11 is_stmt 1 view .LVU2090
	.loc 1 1187 11 view .LVU2091
	.loc 1 1187 18 is_stmt 0 view .LVU2092
	movq	(%r15), %rdi
	call	pretty_name.isra.0
.LVL766:
	.loc 1 1188 16 view .LVU2093
	movl	48(%r15), %r13d
	.loc 1 1187 18 view .LVU2094
	movq	%rax, %rbp
.LVL767:
	.loc 1 1188 11 is_stmt 1 view .LVU2095
	.loc 1 1190 11 view .LVU2096
	.loc 1 1190 19 is_stmt 0 view .LVU2097
	movl	64(%r15), %eax
.LVL768:
	.loc 1 1190 14 view .LVU2098
	cmpl	%eax, %r12d
	je	.L643
.LBB845:
	.loc 1 1192 15 is_stmt 1 view .LVU2099
	.loc 1 1192 31 is_stmt 0 view .LVU2100
	xorl	%eax, %eax
	movl	$3, %esi
	movl	%r14d, %edi
	call	rpl_fcntl@PLT
.LVL769:
	.loc 1 1193 15 is_stmt 1 view .LVU2101
	.loc 1 1193 57 is_stmt 0 view .LVU2102
	testl	%r12d, %r12d
	jne	.L644
.LVL770:
	.loc 1 1194 15 is_stmt 1 view .LVU2103
	.loc 1 1194 18 is_stmt 0 view .LVU2104
	testl	%eax, %eax
	js	.L649
	.loc 1 1193 19 view .LVU2105
	movl	%eax, %edx
	orb	$8, %dh
.LVL771:
	.loc 1 1195 19 view .LVU2106
	cmpl	%edx, %eax
	je	.L648
	.loc 1 1196 26 view .LVU2107
	xorl	%eax, %eax
.LVL772:
	.loc 1 1196 26 view .LVU2108
	movl	$4, %esi
	movl	%r14d, %edi
	call	rpl_fcntl@PLT
.LVL773:
	.loc 1 1196 23 view .LVU2109
	cmpl	$-1, %eax
	je	.L649
.L648:
	.loc 1 1210 17 is_stmt 1 view .LVU2110
	.loc 1 1210 31 is_stmt 0 view .LVU2111
	movl	%r12d, 64(%r15)
	movl	%r12d, %eax
.L643:
	.loc 1 1210 31 view .LVU2112
.LBE845:
	.loc 1 1213 11 is_stmt 1 view .LVU2113
	.loc 1 1272 27 is_stmt 0 view .LVU2114
	movq	$-2, %rcx
	.loc 1 1213 14 view .LVU2115
	testl	%eax, %eax
	je	.L987
.LVL774:
.L650:
	.loc 1 1278 11 is_stmt 1 view .LVU2116
	.loc 1 1278 24 is_stmt 0 view .LVU2117
	movl	%r14d, %edx
	xorl	%edi, %edi
	movq	%rbp, %rsi
	call	dump_remainder
.LVL775:
	.loc 1 1280 11 is_stmt 1 view .LVU2118
	.loc 1 1280 36 is_stmt 0 view .LVU2119
	testq	%rax, %rax
	setne	%dl
	.loc 1 1281 21 view .LVU2120
	addq	%rax, 8(%r15)
	orb	%dl, 8(%rsp)
.LVL776:
	.loc 1 1281 11 is_stmt 1 view .LVU2121
.L657:
	.loc 1 1281 11 is_stmt 0 view .LVU2122
.LBE862:
	.loc 1 1169 32 is_stmt 1 view .LVU2123
	.loc 1 1169 33 is_stmt 0 view .LVU2124
	addq	$1, %rbx
.LVL777:
	.loc 1 1169 19 is_stmt 1 view .LVU2125
	addq	$96, %r15
	.loc 1 1169 7 is_stmt 0 view .LVU2126
	cmpq	(%rsp), %rbx
	je	.L988
.LVL778:
.L658:
.LBB863:
	.loc 1 1171 11 is_stmt 1 view .LVU2127
	.loc 1 1172 11 view .LVU2128
	.loc 1 1173 11 view .LVU2129
	.loc 1 1174 11 view .LVU2130
	.loc 1 1175 11 view .LVU2131
	.loc 1 1177 11 view .LVU2132
	.loc 1 1177 14 is_stmt 0 view .LVU2133
	cmpb	$0, 52(%r15)
	jne	.L657
	.loc 1 1180 11 is_stmt 1 view .LVU2134
	.loc 1 1180 19 is_stmt 0 view .LVU2135
	movl	56(%r15), %r14d
	.loc 1 1180 14 view .LVU2136
	testl	%r14d, %r14d
	jns	.L641
	.loc 1 1182 15 is_stmt 1 view .LVU2137
	movq	%r15, %rdi
	movl	%r12d, %esi
.LBE863:
	.loc 1 1169 33 is_stmt 0 view .LVU2138
	addq	$1, %rbx
.LVL779:
	.loc 1 1169 33 view .LVU2139
	addq	$96, %r15
.LBB864:
	.loc 1 1182 15 view .LVU2140
	call	recheck
.LVL780:
	.loc 1 1183 15 is_stmt 1 view .LVU2141
	.loc 1 1183 15 is_stmt 0 view .LVU2142
.LBE864:
	.loc 1 1169 32 is_stmt 1 view .LVU2143
	.loc 1 1169 19 view .LVU2144
	.loc 1 1169 7 is_stmt 0 view .LVU2145
	cmpq	(%rsp), %rbx
	jne	.L658
	.p2align 4,,10
	.p2align 3
.L988:
	.loc 1 1284 7 is_stmt 1 view .LVU2146
.LVL781:
.LBB865:
.LBI865:
	.loc 1 1124 1 view .LVU2147
.LBB866:
	.loc 1 1129 3 view .LVU2148
	.loc 1 1129 7 is_stmt 0 view .LVU2149
	movzbl	reopen_inaccessible_files(%rip), %edx
	.loc 1 1129 6 view .LVU2150
	testb	%dl, %dl
	je	.L659
	.loc 1 1129 33 view .LVU2151
	cmpl	$1, follow_mode(%rip)
	je	.L660
.L659:
	movq	64(%rsp), %rax
	movq	32(%rsp), %rcx
	addq	$52, %rax
	jmp	.L662
	.p2align 4,,10
	.p2align 3
.L990:
.LBB867:
	.loc 1 1138 11 is_stmt 1 view .LVU2152
	.loc 1 1138 29 is_stmt 0 view .LVU2153
	cmpb	$1, (%rax)
	je	.L741
	testb	%dl, %dl
	jne	.L660
.L741:
	.loc 1 1132 35 is_stmt 1 view .LVU2154
	.loc 1 1132 22 view .LVU2155
	addq	$96, %rax
	.loc 1 1132 3 is_stmt 0 view .LVU2156
	cmpq	%rcx, %rax
	je	.L989
.L662:
	.loc 1 1134 7 is_stmt 1 view .LVU2157
	.loc 1 1134 10 is_stmt 0 view .LVU2158
	movl	4(%rax), %esi
	testl	%esi, %esi
	js	.L990
.L660:
.LVL782:
	.loc 1 1134 10 view .LVU2159
.LBE867:
.LBE866:
.LBE865:
	.loc 1 1290 7 is_stmt 1 view .LVU2160
	.loc 1 1290 10 is_stmt 0 view .LVU2161
	cmpb	$1, 8(%rsp)
	jne	.L742
	cmpb	$0, 40(%rsp)
	jne	.L742
	.loc 1 1293 7 is_stmt 1 view .LVU2162
.LBB868:
.LBI868:
	.loc 1 349 1 view .LVU2163
.LBB869:
	.loc 1 351 3 view .LVU2164
	.loc 1 351 6 is_stmt 0 view .LVU2165
	cmpb	$0, monitor_output(%rip)
	je	.L639
.L667:
	.loc 1 363 3 is_stmt 1 view .LVU2166
	.loc 1 364 3 view .LVU2167
.LBB870:
	.loc 1 367 3 is_stmt 0 view .LVU2168
	leaq	528(%rsp), %rsi
	xorl	%eax, %eax
	movl	$16, %ecx
.LBE870:
	.loc 1 364 32 view .LVU2169
	movq	$0, 168(%rsp)
	.loc 1 364 16 view .LVU2170
	movq	$0, 160(%rsp)
	.loc 1 366 3 is_stmt 1 view .LVU2171
	.loc 1 367 3 view .LVU2172
.LBB871:
	.loc 1 367 3 view .LVU2173
	.loc 1 367 3 view .LVU2174
	movq	%rsi, %rdi
#APP
# 367 "src/tail.c" 1
	cld; rep; stosq
# 0 "" 2
.LVL783:
	.loc 1 367 3 is_stmt 0 view .LVU2175
#NO_APP
.LBE871:
	.loc 1 367 3 is_stmt 1 view .LVU2176
	.loc 1 368 3 view .LVU2177
.LBE869:
.LBE868:
.LBE884:
.LBE892:
.LBE901:
.LBE827:
	.loc 1 368 3 view .LVU2178
	.loc 1 368 3 view .LVU2179
.LBB992:
.LBB902:
.LBB893:
.LBB885:
.LBB874:
.LBB872:
	.loc 1 372 7 is_stmt 0 view .LVU2180
	xorl	%ecx, %ecx
	xorl	%edx, %edx
	leaq	160(%rsp), %r8
	movl	$2, %edi
	.loc 1 368 3 view .LVU2181
	orq	$2, 528(%rsp)
	.loc 1 372 3 is_stmt 1 view .LVU2182
	.loc 1 372 7 is_stmt 0 view .LVU2183
	call	select@PLT
.LVL784:
	.loc 1 372 6 view .LVU2184
	subl	$1, %eax
	je	.L670
.LVL785:
.L671:
	.loc 1 352 5 is_stmt 1 view .LVU2185
.LBE872:
.LBE874:
	.loc 1 1296 7 view .LVU2186
	.loc 1 1296 10 is_stmt 0 view .LVU2187
	cmpb	$0, 8(%rsp)
	jne	.L639
	.loc 1 1298 11 is_stmt 1 view .LVU2188
	.loc 1 1298 14 is_stmt 0 view .LVU2189
	cmpb	$0, 56(%rsp)
	jne	.L548
	.loc 1 1303 11 is_stmt 1 view .LVU2190
	.loc 1 1303 33 is_stmt 0 view .LVU2191
	movl	pid(%rip), %edi
	.loc 1 1308 29 view .LVU2192
	testl	%edi, %edi
	jne	.L991
.L673:
.LVL786:
	.loc 1 1310 11 is_stmt 1 view .LVU2193
	.loc 1 1310 34 is_stmt 0 view .LVU2194
	movsd	72(%rsp), %xmm0
	call	xnanosleep@PLT
.LVL787:
	.loc 1 1310 31 view .LVU2195
	testl	%eax, %eax
	je	.L639
.LBB875:
	.loc 1 1311 13 is_stmt 1 view .LVU2196
	movl	$5, %edx
	leaq	.LC101(%rip), %rsi
	xorl	%edi, %edi
	call	dcgettext@PLT
.LVL788:
	movq	%rax, %r12
	call	__errno_location@PLT
.LVL789:
	movq	%r12, %rdx
	movl	$1, %edi
	movl	(%rax), %esi
	xorl	%eax, %eax
	call	error@PLT
.LVL790:
	.p2align 4,,10
	.p2align 3
.L987:
	.loc 1 1311 13 is_stmt 0 view .LVU2197
.LBE875:
.LBB876:
	.loc 1 1215 15 is_stmt 1 view .LVU2198
.LBB847:
.LBI840:
	.loc 3 467 1 view .LVU2199
.LBB843:
	.loc 3 469 3 view .LVU2200
	.loc 3 469 10 is_stmt 0 view .LVU2201
	movq	24(%rsp), %rdx
	movl	%r14d, %esi
	movl	$1, %edi
	call	__fxstat@PLT
.LVL791:
	.loc 3 469 10 view .LVU2202
.LBE843:
.LBE847:
	.loc 1 1215 18 view .LVU2203
	testl	%eax, %eax
	jne	.L992
	.loc 1 1224 15 is_stmt 1 view .LVU2204
	.loc 1 1224 37 is_stmt 0 view .LVU2205
	movl	552(%rsp), %eax
	.loc 1 1224 18 view .LVU2206
	cmpl	%eax, 48(%r15)
	je	.L920
.L941:
	movq	616(%rsp), %rcx
	movq	624(%rsp), %rdx
.L652:
	.loc 1 1241 15 is_stmt 1 view .LVU2207
.LVL792:
	.loc 1 1241 15 is_stmt 0 view .LVU2208
.LBE876:
.LBE885:
.LBE893:
.LBE902:
.LBE992:
	.loc 5 149 3 is_stmt 1 view .LVU2209
.LBB993:
.LBB903:
.LBB894:
.LBB886:
.LBB877:
	.loc 1 1250 19 is_stmt 0 view .LVU2210
	andl	$61440, %r13d
.LVL793:
	.loc 1 1241 28 view .LVU2211
	movq	%rcx, 16(%r15)
	movq	%rdx, 24(%r15)
	.loc 1 1242 15 is_stmt 1 view .LVU2212
	.loc 1 1242 25 is_stmt 0 view .LVU2213
	movl	%eax, 48(%r15)
	.loc 1 1245 15 is_stmt 1 view .LVU2214
	.loc 1 1245 38 is_stmt 0 view .LVU2215
	movq	$0, 88(%r15)
	.loc 1 1250 15 is_stmt 1 view .LVU2216
	.loc 1 1250 18 is_stmt 0 view .LVU2217
	cmpl	$32768, %r13d
	je	.L993
.L654:
	.loc 1 1259 15 is_stmt 1 view .LVU2218
	.loc 1 1259 18 is_stmt 0 view .LVU2219
	cmpq	16(%rsp), %rbx
	je	.L655
	.loc 1 1261 19 is_stmt 1 view .LVU2220
	.loc 1 1261 22 is_stmt 0 view .LVU2221
	cmpb	$0, print_headers(%rip)
	movq	%rbx, 16(%rsp)
.LVL794:
	.loc 1 1261 22 view .LVU2222
	je	.L655
	.loc 1 1262 21 is_stmt 1 view .LVU2223
.LVL795:
.LBB848:
.LBI848:
	.loc 1 421 1 view .LVU2224
.LBB849:
	.loc 1 423 3 view .LVU2225
	.loc 1 425 3 view .LVU2226
	cmpb	$0, first_file.7627(%rip)
	leaq	.LC5(%rip), %rax
.LBB850:
.LBB851:
	.loc 2 107 10 is_stmt 0 view .LVU2227
	movq	%rbp, %rcx
	movl	$1, %edi
.LBE851:
.LBE850:
	.loc 1 425 3 view .LVU2228
	leaq	.LC6(%rip), %rdx
.LBB854:
.LBB852:
	.loc 2 107 10 view .LVU2229
	leaq	.LC7(%rip), %rsi
.LBE852:
.LBE854:
	.loc 1 425 3 view .LVU2230
	cmovne	%rax, %rdx
.LVL796:
.LBB855:
.LBI850:
	.loc 2 105 1 is_stmt 1 view .LVU2231
.LBB853:
	.loc 2 107 3 view .LVU2232
	.loc 2 107 10 is_stmt 0 view .LVU2233
	xorl	%eax, %eax
	call	__printf_chk@PLT
.LVL797:
	.loc 2 107 10 view .LVU2234
.LBE853:
.LBE855:
	.loc 1 426 3 is_stmt 1 view .LVU2235
	.loc 1 426 14 is_stmt 0 view .LVU2236
	movb	$0, first_file.7627(%rip)
	.loc 1 427 1 view .LVU2237
	movq	%rbx, 16(%rsp)
.LVL798:
.L655:
	.loc 1 427 1 view .LVU2238
.LBE849:
.LBE848:
	.loc 1 1270 11 is_stmt 1 view .LVU2239
	.loc 1 1271 11 view .LVU2240
	.loc 1 1271 14 is_stmt 0 view .LVU2241
	movl	64(%r15), %edi
	testl	%edi, %edi
	jne	.L737
	.loc 1 1273 16 is_stmt 1 view .LVU2242
	.loc 1 1276 27 is_stmt 0 view .LVU2243
	movq	$-1, %rcx
	.loc 1 1273 19 view .LVU2244
	cmpl	$32768, %r13d
	jne	.L650
	.loc 1 1273 35 view .LVU2245
	cmpb	$0, 53(%r15)
	je	.L650
	.loc 1 1274 13 is_stmt 1 view .LVU2246
	.loc 1 1274 43 is_stmt 0 view .LVU2247
	movq	576(%rsp), %rcx
	subq	8(%r15), %rcx
.LVL799:
	.loc 1 1274 27 view .LVU2248
	jmp	.L650
.LVL800:
	.p2align 4,,10
	.p2align 3
.L644:
.LBB856:
	.loc 1 1194 15 is_stmt 1 view .LVU2249
	.loc 1 1194 18 is_stmt 0 view .LVU2250
	testl	%eax, %eax
	jns	.L648
.LVL801:
.L649:
	.loc 1 1199 19 is_stmt 1 view .LVU2251
	call	__errno_location@PLT
.LVL802:
	.loc 1 1199 23 is_stmt 0 view .LVU2252
	movl	48(%r15), %edx
	andl	$61440, %edx
	.loc 1 1199 22 view .LVU2253
	cmpl	$32768, %edx
	jne	.L932
	.loc 1 1199 43 view .LVU2254
	cmpl	$1, (%rax)
	jne	.L932
	movl	64(%r15), %eax
	jmp	.L643
	.p2align 4,,10
	.p2align 3
.L920:
	.loc 1 1199 43 view .LVU2255
.LBE856:
	.loc 1 1225 25 view .LVU2256
	movl	%eax, %edx
	andl	$61440, %edx
	.loc 1 1225 19 view .LVU2257
	cmpl	$32768, %edx
	je	.L994
.L653:
	movq	16(%r15), %rsi
	movq	616(%rsp), %rcx
.LBB857:
.LBB858:
	.loc 4 66 14 view .LVU2258
	xorl	%edi, %edi
	movq	24(%r15), %r10
	movq	624(%rsp), %rdx
.LVL803:
	.loc 4 66 14 view .LVU2259
.LBE858:
.LBE857:
.LBE877:
.LBE886:
.LBE894:
.LBE903:
.LBE993:
	.loc 5 149 3 is_stmt 1 view .LVU2260
.LBB994:
.LBB904:
.LBB895:
.LBB887:
.LBB878:
.LBB860:
.LBI857:
	.loc 4 64 1 view .LVU2261
.LBB859:
	.loc 4 66 3 view .LVU2262
	.loc 4 66 14 is_stmt 0 view .LVU2263
	cmpq	%rsi, %rcx
	setg	%sil
	setl	%dil
	movzbl	%sil, %esi
	subl	%esi, %edi
	.loc 4 66 45 view .LVU2264
	xorl	%esi, %esi
	cmpq	%r10, %rdx
	setg	%r10b
	setl	%sil
	movzbl	%r10b, %r10d
	subl	%r10d, %esi
	.loc 4 66 43 view .LVU2265
	leal	(%rsi,%rdi,2), %esi
.LBE859:
.LBE860:
	.loc 1 1226 19 view .LVU2266
	testl	%esi, %esi
	jne	.L652
	.loc 1 1228 19 is_stmt 1 view .LVU2267
	.loc 1 1229 31 is_stmt 0 view .LVU2268
	movq	88(%r15), %rax
	.loc 1 1228 22 view .LVU2269
	cmpq	max_n_unchanged_stats_between_opens(%rip), %rax
	.loc 1 1229 49 view .LVU2270
	leaq	1(%rax), %rdx
	movq	%rdx, 88(%r15)
	.loc 1 1228 22 view .LVU2271
	jb	.L657
	.loc 1 1230 23 view .LVU2272
	cmpl	$1, follow_mode(%rip)
	jne	.L657
	.loc 1 1232 23 is_stmt 1 view .LVU2273
	xorl	%esi, %esi
	cmpl	$0, 64(%r15)
	movq	%r15, %rdi
	setne	%sil
	call	recheck
.LVL804:
	.loc 1 1233 23 view .LVU2274
	.loc 1 1233 46 is_stmt 0 view .LVU2275
	movq	$0, 88(%r15)
	jmp	.L657
.LVL805:
	.p2align 4,,10
	.p2align 3
.L993:
	.loc 1 1250 34 view .LVU2276
	movq	8(%r15), %rax
	cmpq	%rax, 576(%rsp)
	jge	.L654
	.loc 1 1252 19 is_stmt 1 view .LVU2277
	movq	%rbp, %rdx
	movl	$3, %esi
	xorl	%edi, %edi
	call	quotearg_n_style_colon@PLT
.LVL806:
	.loc 1 1252 32 is_stmt 0 view .LVU2278
	movl	$5, %edx
	leaq	.LC10(%rip), %rsi
	xorl	%edi, %edi
	.loc 1 1252 19 view .LVU2279
	movq	%rax, 48(%rsp)
	.loc 1 1252 32 view .LVU2280
	call	dcgettext@PLT
.LVL807:
	.loc 1 1252 19 view .LVU2281
	movq	48(%rsp), %rcx
	xorl	%esi, %esi
	xorl	%edi, %edi
	.loc 1 1252 32 view .LVU2282
	movq	%rax, %rdx
	.loc 1 1252 19 view .LVU2283
	xorl	%eax, %eax
	call	error@PLT
.LVL808:
	.loc 1 1255 19 is_stmt 1 view .LVU2284
	movq	%rbp, %rcx
	xorl	%edx, %edx
	xorl	%esi, %esi
	movl	%r14d, %edi
	call	xlseek
.LVL809:
	.loc 1 1256 19 view .LVU2285
	.loc 1 1256 29 is_stmt 0 view .LVU2286
	movq	$0, 8(%r15)
	jmp	.L654
.LVL810:
	.p2align 4,,10
	.p2align 3
.L992:
	.loc 1 1217 19 is_stmt 1 view .LVU2287
	.loc 1 1217 27 is_stmt 0 view .LVU2288
	movl	$-1, 56(%r15)
	.loc 1 1218 19 is_stmt 1 view .LVU2289
	.loc 1 1218 33 is_stmt 0 view .LVU2290
	call	__errno_location@PLT
.LVL811:
	.loc 1 1219 19 view .LVU2291
	movq	%rbp, %rdx
	xorl	%edi, %edi
	movl	$3, %esi
	.loc 1 1218 33 view .LVU2292
	movq	%rax, %r13
.LVL812:
	.loc 1 1218 31 view .LVU2293
	movl	(%rax), %eax
	movl	%eax, 60(%r15)
	.loc 1 1219 19 is_stmt 1 view .LVU2294
	call	quotearg_n_style_colon@PLT
.LVL813:
	movl	0(%r13), %esi
	xorl	%edi, %edi
	leaq	.LC17(%rip), %rdx
	movq	%rax, %rcx
	xorl	%eax, %eax
	call	error@PLT
.LVL814:
	.loc 1 1220 19 view .LVU2295
	movl	%r14d, %edi
	call	close@PLT
.LVL815:
	.loc 1 1221 19 view .LVU2296
	jmp	.L657
.LVL816:
.L742:
	.loc 1 1221 19 is_stmt 0 view .LVU2297
.LBE878:
	.loc 1 1290 39 view .LVU2298
	movq	stdout(%rip), %rdi
	call	fflush_unlocked@PLT
.LVL817:
	.loc 1 1290 36 view .LVU2299
	testl	%eax, %eax
	jne	.L995
	.loc 1 1293 7 is_stmt 1 view .LVU2300
.LBB879:
	.loc 1 349 1 view .LVU2301
.LBB873:
	.loc 1 351 3 view .LVU2302
	.loc 1 351 6 is_stmt 0 view .LVU2303
	cmpb	$0, monitor_output(%rip)
	je	.L671
	jmp	.L667
.LVL818:
.L994:
	.loc 1 351 6 view .LVU2304
.LBE873:
.LBE879:
.LBB880:
	.loc 1 1225 49 view .LVU2305
	movq	576(%rsp), %rsi
	cmpq	%rsi, 8(%r15)
	jne	.L941
	jmp	.L653
.LVL819:
.L991:
	.loc 1 1225 49 view .LVU2306
.LBE880:
	.loc 1 1304 32 view .LVU2307
	xorl	%esi, %esi
	call	kill@PLT
.LVL820:
	.loc 1 1304 29 view .LVU2308
	testl	%eax, %eax
	je	.L673
	.loc 1 1308 32 view .LVU2309
	call	__errno_location@PLT
.LVL821:
	.loc 1 1308 29 view .LVU2310
	cmpl	$1, (%rax)
	je	.L673
	movzbl	88(%rsp), %eax
	movb	%al, 56(%rsp)
.LVL822:
	.loc 1 1308 29 view .LVU2311
	jmp	.L639
.LVL823:
.L507:
	.loc 1 1308 29 view .LVU2312
.LBE887:
.LBE895:
.LBE904:
.LBE994:
.LBB995:
.LBB795:
.LBB782:
.LBB768:
.LBB723:
.LBB704:
.LBB612:
	.loc 1 1859 19 view .LVU2313
	movq	80(%rsp), %rcx
	movq	48(%rsp), %rsi
	movl	$1, %edx
	movl	%r14d, %edi
	call	xlseek
.LVL824:
	.loc 1 1859 16 view .LVU2314
	testq	%rax, %rax
	jns	.L508
	jmp	.L509
.LVL825:
.L973:
	.loc 1 1859 16 view .LVU2315
.LBE612:
.LBE704:
.LBB705:
.LBB683:
.LBB670:
.LBB658:
.LBB651:
	.loc 1 699 7 is_stmt 1 view .LVU2316
	movq	80(%rsp), %rsi
	movl	$4, %edi
	call	quotearg_style@PLT
.LVL826:
	.loc 1 699 24 is_stmt 0 view .LVU2317
	xorl	%edi, %edi
	movl	$5, %edx
	leaq	.LC4(%rip), %rsi
	.loc 1 699 7 view .LVU2318
	movq	%rax, %r13
.LVL827:
	.loc 1 699 24 view .LVU2319
	call	dcgettext@PLT
.LVL828:
	movq	%rax, %r12
	.loc 1 699 17 view .LVU2320
	call	__errno_location@PLT
.LVL829:
	.loc 1 699 7 view .LVU2321
	movq	%r13, %rcx
	movq	%r12, %rdx
	xorl	%edi, %edi
	movl	(%rax), %esi
	xorl	%eax, %eax
	call	error@PLT
.LVL830:
	.loc 1 700 7 is_stmt 1 view .LVU2322
	.loc 1 701 7 view .LVU2323
	jmp	.L489
.LVL831:
.L981:
	.loc 1 701 7 is_stmt 0 view .LVU2324
.LBE651:
.LBE658:
.LBE670:
.LBE683:
.LBE705:
.LBB706:
.LBB613:
.LBB602:
.LBB595:
	.loc 1 1892 15 is_stmt 1 view .LVU2325
	.loc 1 1892 37 is_stmt 0 view .LVU2326
	movq	%rbp, %rbx
.LVL832:
	.loc 1 1893 15 view .LVU2327
	movq	80(%rsp), %rcx
	.loc 1 1892 37 view .LVU2328
	subq	48(%rsp), %rbx
.LVL833:
	.loc 1 1893 15 is_stmt 1 view .LVU2329
	xorl	%edx, %edx
	movq	%rbx, %rsi
	movl	%r14d, %edi
	call	xlseek
.LVL834:
	.loc 1 1893 15 is_stmt 0 view .LVU2330
	jmp	.L532
.LVL835:
.L480:
	.loc 1 1893 15 view .LVU2331
.LBE595:
.LBE602:
.LBE613:
.LBE706:
.LBB707:
.LBB684:
.LBB671:
	.loc 1 1949 11 is_stmt 1 view .LVU2332
	.loc 1 1950 13 view .LVU2333
	movq	80(%rsp), %rcx
	xorl	%edx, %edx
	movq	%rbp, %rsi
	movl	%r14d, %edi
	call	xlseek
.LVL836:
	.loc 1 1950 13 is_stmt 0 view .LVU2334
	jmp	.L675
.LVL837:
.L989:
	.loc 1 1950 13 view .LVU2335
.LBE671:
.LBE684:
.LBE707:
.LBE723:
.LBE768:
.LBE782:
.LBE795:
.LBE995:
.LBB996:
.LBB905:
.LBB896:
.LBB888:
	.loc 1 1286 11 is_stmt 1 view .LVU2336
	.loc 1 1286 24 is_stmt 0 view .LVU2337
	xorl	%edi, %edi
	movl	$5, %edx
	leaq	.LC95(%rip), %rsi
	call	dcgettext@PLT
.LVL838:
	.loc 1 1286 11 view .LVU2338
	xorl	%esi, %esi
	xorl	%edi, %edi
	.loc 1 1286 24 view .LVU2339
	movq	%rax, %rdx
	.loc 1 1286 11 view .LVU2340
	xorl	%eax, %eax
	call	error@PLT
.LVL839:
	.loc 1 1287 11 is_stmt 1 view .LVU2341
	jmp	.L548
.LVL840:
.L956:
	.loc 1 1287 11 is_stmt 0 view .LVU2342
.LBE888:
.LBE896:
.LBE905:
.LBE996:
.LBB997:
.LBB546:
	.loc 1 2286 9 is_stmt 1 view .LVU2343
	.loc 1 2286 22 is_stmt 0 view .LVU2344
	movl	$5, %edx
	leaq	.LC80(%rip), %rsi
	jmp	.L938
.LVL841:
.L692:
	.loc 1 2286 22 view .LVU2345
.LBE546:
.LBE997:
.LBB998:
.LBB906:
.LBB897:
	.loc 1 1158 20 view .LVU2346
	cmpl	$2, follow_mode(%rip)
	jne	.L638
	cmpq	$1, (%rsp)
	jne	.L638
	.loc 1 1158 36 view .LVU2347
	movq	64(%rsp), %rax
	cmpl	$-1, 56(%rax)
	je	.L638
	.loc 1 1158 58 view .LVU2348
	movl	48(%rax), %eax
	.loc 1 1158 53 view .LVU2349
	xorl	%r12d, %r12d
	.loc 1 1158 58 view .LVU2350
	movl	%eax, 8(%rsp)
	andl	$61440, %eax
	.loc 1 1158 53 view .LVU2351
	cmpl	$32768, %eax
	setne	%r12b
	jmp	.L638
.LVL842:
.L985:
	.loc 1 1158 53 view .LVU2352
.LBE897:
.LBE906:
.LBE998:
.LBB999:
.LBB796:
.LBB783:
.LBB769:
.LBB724:
.LBB708:
.LBB614:
.LBB603:
.LBB596:
.LBB589:
	.loc 1 827 7 is_stmt 1 view .LVU2353
	movq	80(%rsp), %rsi
	movl	$4, %edi
	call	quotearg_style@PLT
.LVL843:
	.loc 1 827 24 is_stmt 0 view .LVU2354
	movl	$5, %edx
	leaq	.LC4(%rip), %rsi
	xorl	%edi, %edi
	.loc 1 827 7 view .LVU2355
	movq	%rax, %r15
.LVL844:
	.loc 1 827 24 view .LVU2356
	call	dcgettext@PLT
.LVL845:
	movq	%rax, %r12
	.loc 1 827 17 view .LVU2357
	call	__errno_location@PLT
.LVL846:
	.loc 1 827 7 view .LVU2358
	xorl	%edi, %edi
	movq	%r15, %rcx
	movq	%r12, %rdx
	movl	(%rax), %esi
	xorl	%eax, %eax
	call	error@PLT
.LVL847:
	.loc 1 828 7 is_stmt 1 view .LVU2359
	.loc 1 829 7 view .LVU2360
	movq	%r13, %rdi
	jmp	.L529
.LVL848:
.L932:
	.loc 1 829 7 is_stmt 0 view .LVU2361
.LBE589:
.LBE596:
.LBE603:
.LBE614:
.LBE708:
.LBE724:
.LBE769:
.LBE783:
.LBE796:
.LBE999:
.LBB1000:
.LBB907:
.LBB898:
.LBB889:
.LBB881:
.LBB861:
.LBB846:
	.loc 1 1205 21 view .LVU2362
	movq	%rbp, %rdx
	movl	$3, %esi
	xorl	%edi, %edi
	movq	%rax, (%rsp)
.LVL849:
	.loc 1 1205 21 is_stmt 1 view .LVU2363
	call	quotearg_n_style_colon@PLT
.LVL850:
	movl	$5, %edx
	leaq	.LC100(%rip), %rsi
	xorl	%edi, %edi
	movq	%rax, %r12
	call	dcgettext@PLT
.LVL851:
	movq	(%rsp), %r10
	movq	%r12, %rcx
	movl	$1, %edi
	movq	%rax, %rdx
	xorl	%eax, %eax
	movl	(%r10), %esi
	call	error@PLT
.LVL852:
.L561:
	.loc 1 1205 21 is_stmt 0 view .LVU2364
	leaq	528(%rsp), %rax
	movq	64(%rsp), %r13
	movb	%cl, 96(%rsp)
	movq	%rax, 16(%rsp)
	leaq	0(%r13,%r15), %rbp
.L565:
.LBE846:
.LBE861:
.LBE881:
.LBE889:
.LBE898:
.LBE907:
.LBB908:
.LBB909:
.LBB910:
	.loc 1 1353 5 is_stmt 1 view .LVU2365
.LVL853:
.LBB911:
.LBI911:
	.loc 3 460 1 view .LVU2366
.LBB912:
	.loc 3 462 3 view .LVU2367
	.loc 3 462 10 is_stmt 0 view .LVU2368
	movq	16(%rsp), %rdx
	movq	0(%r13), %rsi
	movl	$1, %edi
	call	__lxstat@PLT
.LVL854:
	.loc 3 462 10 view .LVU2369
.LBE912:
.LBE911:
	.loc 1 1353 8 view .LVU2370
	testl	%eax, %eax
	jne	.L563
	.loc 1 1353 40 view .LVU2371
	movl	552(%rsp), %eax
	andl	$61440, %eax
	.loc 1 1353 37 view .LVU2372
	cmpl	$40960, %eax
	je	.L550
.L563:
	.loc 1 1352 35 is_stmt 1 view .LVU2373
	.loc 1 1352 22 view .LVU2374
	addq	$96, %r13
	.loc 1 1352 3 is_stmt 0 view .LVU2375
	cmpq	%r13, %rbp
	jne	.L565
.LVL855:
	.loc 1 1352 3 view .LVU2376
.LBE910:
.LBE909:
.LBE908:
.LBB914:
.LBB915:
	.loc 1 1366 22 is_stmt 1 view .LVU2377
	movq	64(%rsp), %rdx
.LBE915:
.LBE914:
.LBB917:
.LBB913:
	xorl	%ebp, %ebp
.LVL856:
.L569:
	.loc 1 1366 22 is_stmt 0 view .LVU2378
.LBE913:
.LBE917:
.LBB918:
.LBB916:
	.loc 1 1367 5 is_stmt 1 view .LVU2379
	.loc 1 1367 8 is_stmt 0 view .LVU2380
	cmpl	$0, 56(%rdx,%rbp)
	js	.L567
	.loc 1 1367 27 view .LVU2381
	movl	48(%rdx,%rbp), %eax
	andl	$61440, %eax
	.loc 1 1367 47 view .LVU2382
	cmpl	$4096, %eax
	je	.L567
	cmpl	$32768, %eax
	jne	.L550
.L567:
	.loc 1 1366 35 is_stmt 1 view .LVU2383
	.loc 1 1366 22 view .LVU2384
	addq	$96, %rbp
	.loc 1 1366 3 is_stmt 0 view .LVU2385
	cmpq	%rbp, %r15
	jne	.L569
.LBE916:
.LBE918:
	.loc 1 2491 32 view .LVU2386
	cmpb	$0, 95(%rsp)
	jne	.L571
	.loc 1 2491 40 discriminator 1 view .LVU2387
	cmpl	$2, follow_mode(%rip)
	je	.L550
.L571:
	.loc 1 2494 7 is_stmt 1 view .LVU2388
.LBB919:
	.loc 1 2496 11 view .LVU2389
	.loc 1 2496 20 is_stmt 0 view .LVU2390
	call	inotify_init@PLT
.LVL857:
	movl	%eax, %r13d
.LVL858:
	.loc 1 2497 11 is_stmt 1 view .LVU2391
	.loc 1 2497 14 is_stmt 0 view .LVU2392
	testl	%eax, %eax
	js	.L996
	.loc 1 2502 15 is_stmt 1 view .LVU2393
	.loc 1 2502 19 is_stmt 0 view .LVU2394
	movq	stdout(%rip), %rdi
	call	fflush_unlocked@PLT
.LVL859:
	.loc 1 2502 18 view .LVU2395
	testl	%eax, %eax
	jne	.L997
	.loc 1 2505 15 is_stmt 1 view .LVU2396
.LVL860:
.LBB920:
.LBI920:
	.loc 1 1453 1 view .LVU2397
.LBB921:
	.loc 1 1461 3 view .LVU2398
	.loc 1 1464 3 view .LVU2399
	.loc 1 1466 3 view .LVU2400
	.loc 1 1467 3 view .LVU2401
	.loc 1 1468 3 view .LVU2402
	.loc 1 1469 3 view .LVU2403
	.loc 1 1470 3 view .LVU2404
	.loc 1 1471 3 view .LVU2405
	.loc 1 1472 3 view .LVU2406
	.loc 1 1473 3 view .LVU2407
	.loc 1 1474 3 view .LVU2408
	.loc 1 1475 3 view .LVU2409
	.loc 1 1477 3 view .LVU2410
	.loc 1 1477 16 is_stmt 0 view .LVU2411
	movq	(%rsp), %rdi
	xorl	%r8d, %r8d
	leaq	wd_comparator(%rip), %rcx
	xorl	%esi, %esi
	leaq	wd_hasher(%rip), %rdx
	call	hash_initialize@PLT
.LVL861:
	movq	%rax, %r14
.LVL862:
	.loc 1 1478 3 is_stmt 1 view .LVU2412
	.loc 1 1478 6 is_stmt 0 view .LVU2413
	testq	%rax, %rax
	je	.L584
	.loc 1 1482 3 is_stmt 1 view .LVU2414
.LVL863:
	.loc 1 1485 3 view .LVU2415
	.loc 1 1486 21 is_stmt 0 view .LVU2416
	movl	$2, %edx
	movl	$3078, %eax
.LVL864:
	.loc 1 1486 21 view .LVU2417
	movq	64(%rsp), %r12
	cmpl	$1, follow_mode(%rip)
	cmovne	%edx, %eax
	.loc 1 1467 8 view .LVU2418
	movb	$0, 8(%rsp)
	movl	follow_mode(%rip), %edx
	.loc 1 1466 8 view .LVU2419
	movb	$0, 32(%rsp)
	addq	%r12, %rbp
	.loc 1 1486 21 view .LVU2420
	movl	%eax, 112(%rsp)
.LVL865:
	.loc 1 1491 3 is_stmt 1 view .LVU2421
	.loc 1 1492 3 view .LVU2422
	.loc 1 1492 3 is_stmt 0 view .LVU2423
	movq	%rbx, 24(%rsp)
	movq	%r15, 48(%rsp)
	movq	%rbp, 56(%rsp)
	.loc 1 1472 10 view .LVU2424
	xorl	%ebp, %ebp
.LVL866:
.L575:
	.loc 1 1492 15 is_stmt 1 view .LVU2425
	.loc 1 1492 3 is_stmt 0 view .LVU2426
	cmpq	%r12, 56(%rsp)
	je	.L998
	.loc 1 1494 7 is_stmt 1 view .LVU2427
	.loc 1 1494 10 is_stmt 0 view .LVU2428
	cmpb	$0, 52(%r12)
	jne	.L576
.LBB922:
	.loc 1 1496 11 is_stmt 1 view .LVU2429
	.loc 1 1496 38 is_stmt 0 view .LVU2430
	movq	(%r12), %r15
	.loc 1 1496 26 view .LVU2431
	xorl	%eax, %eax
	orq	$-1, %rcx
	movq	%r15, %rdi
	repnz scasb
	.loc 1 1500 19 view .LVU2432
	movl	$-1, 68(%r12)
	.loc 1 1496 26 view .LVU2433
	movq	%rcx, %rax
	notq	%rax
	subq	$1, %rax
.LVL867:
	.loc 1 1497 11 is_stmt 1 view .LVU2434
	cmpq	%rax, %rbp
	cmovb	%rax, %rbp
.LVL868:
	.loc 1 1500 11 view .LVU2435
	.loc 1 1502 11 view .LVU2436
	.loc 1 1502 14 is_stmt 0 view .LVU2437
	subl	$1, %edx
	jne	.L577
.LBB923:
	.loc 1 1504 15 is_stmt 1 view .LVU2438
	.loc 1 1504 31 is_stmt 0 view .LVU2439
	movq	%r15, %rdi
	call	dir_len@PLT
.LVL869:
	.loc 1 1506 37 view .LVU2440
	movq	%r15, %rdi
	.loc 1 1505 36 view .LVU2441
	leaq	(%r15,%rax), %rdx
	.loc 1 1504 31 view .LVU2442
	movq	%rax, %rbx
.LVL870:
	.loc 1 1505 15 is_stmt 1 view .LVU2443
	.loc 1 1505 20 is_stmt 0 view .LVU2444
	movzbl	(%rdx), %eax
.LVL871:
	.loc 1 1505 20 view .LVU2445
	movq	%rdx, 80(%rsp)
	movb	%al, 40(%rsp)
.LVL872:
	.loc 1 1506 15 is_stmt 1 view .LVU2446
	.loc 1 1506 37 is_stmt 0 view .LVU2447
	call	last_component@PLT
.LVL873:
	.loc 1 1508 33 view .LVU2448
	movq	80(%rsp), %rdx
	.loc 1 1512 32 view .LVU2449
	leaq	.LC59(%rip), %rsi
	.loc 1 1506 64 view .LVU2450
	subq	%r15, %rax
	movq	%rax, 80(%r12)
	.loc 1 1508 15 is_stmt 1 view .LVU2451
	.loc 1 1508 33 is_stmt 0 view .LVU2452
	movb	$0, (%rdx)
	.loc 1 1512 15 is_stmt 1 view .LVU2453
	.loc 1 1512 32 is_stmt 0 view .LVU2454
	testq	%rbx, %rbx
	je	.L578
	movq	(%r12), %rsi
.L578:
	movl	$1924, %edx
	movl	%r13d, %edi
	call	inotify_add_watch@PLT
.LVL874:
	.loc 1 1517 33 view .LVU2455
	movzbl	40(%rsp), %esi
	.loc 1 1512 30 view .LVU2456
	movl	%eax, 72(%r12)
	.loc 1 1517 15 is_stmt 1 view .LVU2457
	.loc 1 1517 33 is_stmt 0 view .LVU2458
	movq	(%r12), %rax
	movb	%sil, (%rax,%rbx)
	.loc 1 1519 15 is_stmt 1 view .LVU2459
	.loc 1 1519 18 is_stmt 0 view .LVU2460
	cmpl	$0, 72(%r12)
	js	.L999
.LVL875:
.L577:
	.loc 1 1519 18 view .LVU2461
.LBE923:
	.loc 1 1533 11 is_stmt 1 view .LVU2462
	.loc 1 1533 21 is_stmt 0 view .LVU2463
	movl	112(%rsp), %edx
	movq	(%r12), %rsi
	movl	%r13d, %edi
	call	inotify_add_watch@PLT
.LVL876:
	.loc 1 1533 19 view .LVU2464
	movl	%eax, 68(%r12)
	.loc 1 1535 11 is_stmt 1 view .LVU2465
	.loc 1 1535 14 is_stmt 0 view .LVU2466
	testl	%eax, %eax
	jns	.L581
	.loc 1 1537 15 is_stmt 1 view .LVU2467
	.loc 1 1538 40 is_stmt 0 view .LVU2468
	movzbl	8(%rsp), %eax
	movzbl	88(%rsp), %esi
	cmpl	$-1, 56(%r12)
	cmovne	%esi, %eax
	movb	%al, 8(%rsp)
.LVL877:
	.loc 1 1539 15 is_stmt 1 view .LVU2469
	.loc 1 1539 19 is_stmt 0 view .LVU2470
	call	__errno_location@PLT
.LVL878:
	.loc 1 1539 19 view .LVU2471
	movq	%rax, %rbx
	movl	(%rax), %eax
	.loc 1 1539 35 view .LVU2472
	movl	%eax, %edx
	andl	$-17, %edx
	.loc 1 1539 18 view .LVU2473
	cmpl	$12, %edx
	jne	.L583
	movq	24(%rsp), %rbx
.LVL879:
.L939:
	.loc 1 1541 19 is_stmt 1 view .LVU2474
	.loc 1 1542 19 view .LVU2475
	.loc 1 1542 32 is_stmt 0 view .LVU2476
	movl	$5, %edx
	leaq	.LC92(%rip), %rsi
	xorl	%edi, %edi
	call	dcgettext@PLT
.LVL880:
	.loc 1 1542 19 view .LVU2477
	xorl	%esi, %esi
	xorl	%edi, %edi
	.loc 1 1542 32 view .LVU2478
	movq	%rax, %rdx
	.loc 1 1542 19 view .LVU2479
	xorl	%eax, %eax
	call	error@PLT
.LVL881:
	.loc 1 1543 19 is_stmt 1 view .LVU2480
.L580:
	.loc 1 1543 19 is_stmt 0 view .LVU2481
.LBE922:
	.loc 1 1565 7 is_stmt 1 view .LVU2482
	movq	%r14, %rdi
	call	hash_free@PLT
.LVL882:
	.loc 1 1567 7 view .LVU2483
	call	__errno_location@PLT
.LVL883:
	.loc 1 1567 13 is_stmt 0 view .LVU2484
	movl	$0, (%rax)
	.loc 1 1568 7 is_stmt 1 view .LVU2485
.LVL884:
.L588:
	.loc 1 1568 7 is_stmt 0 view .LVU2486
.LBE921:
.LBE920:
	.loc 1 2508 11 is_stmt 1 view .LVU2487
	.loc 1 2508 28 is_stmt 0 view .LVU2488
	movl	$5, %edx
	leaq	.LC99(%rip), %rsi
	xorl	%edi, %edi
	call	dcgettext@PLT
.LVL885:
	movq	%rax, %r12
	.loc 1 2508 21 view .LVU2489
	call	__errno_location@PLT
.LVL886:
	.loc 1 2508 11 view .LVU2490
	movq	%r12, %rdx
	xorl	%edi, %edi
	movl	(%rax), %esi
	xorl	%eax, %eax
	call	error@PLT
.LVL887:
	.loc 1 2513 11 is_stmt 1 view .LVU2491
	.loc 1 2513 11 is_stmt 0 view .LVU2492
	movq	64(%rsp), %rbp
	movq	56(%rsp), %r12
	jmp	.L634
.LVL888:
.L637:
	.loc 1 2517 15 is_stmt 1 view .LVU2493
	.loc 1 2517 23 is_stmt 0 view .LVU2494
	movl	68(%rbp), %esi
	.loc 1 2517 18 view .LVU2495
	cmpl	$-1, %esi
	je	.L635
	.loc 1 2518 17 is_stmt 1 view .LVU2496
	movl	%r13d, %edi
	call	inotify_rm_watch@PLT
.LVL889:
.L635:
	.loc 1 2519 15 view .LVU2497
	.loc 1 2519 23 is_stmt 0 view .LVU2498
	movl	72(%rbp), %esi
	.loc 1 2519 18 view .LVU2499
	cmpl	$-1, %esi
	je	.L636
	.loc 1 2520 17 is_stmt 1 view .LVU2500
	movl	%r13d, %edi
	call	inotify_rm_watch@PLT
.LVL890:
.L636:
	.loc 1 2513 36 discriminator 2 view .LVU2501
	addq	$96, %rbp
.L634:
	.loc 1 2513 23 discriminator 1 view .LVU2502
	.loc 1 2513 11 is_stmt 0 discriminator 1 view .LVU2503
	cmpq	%rbp, %r12
	jne	.L637
	jmp	.L550
.LVL891:
.L986:
	.loc 1 2513 11 discriminator 1 view .LVU2504
.LBE919:
.LBB985:
	.loc 1 2444 9 is_stmt 1 view .LVU2505
	movl	$5, %edx
	leaq	.LC2(%rip), %rsi
	xorl	%edi, %edi
	call	dcgettext@PLT
.LVL892:
	movq	%rax, %r12
	call	__errno_location@PLT
.LVL893:
	movq	%r12, %rdx
	movl	$1, %edi
	movl	(%rax), %esi
	xorl	%eax, %eax
	call	error@PLT
.LVL894:
.L581:
	.loc 1 2444 9 is_stmt 0 view .LVU2506
.LBE985:
.LBB986:
.LBB979:
.LBB974:
.LBB925:
	.loc 1 1550 11 is_stmt 1 view .LVU2507
	.loc 1 1550 15 is_stmt 0 view .LVU2508
	movq	%r12, %rsi
	movq	%r14, %rdi
	call	hash_insert@PLT
.LVL895:
	.loc 1 1550 14 view .LVU2509
	testq	%rax, %rax
	je	.L584
	.loc 1 1553 32 view .LVU2510
	movzbl	88(%rsp), %eax
	movl	follow_mode(%rip), %edx
	movb	%al, 32(%rsp)
.LVL896:
.L576:
	.loc 1 1553 32 view .LVU2511
.LBE925:
	.loc 1 1492 28 is_stmt 1 view .LVU2512
	addq	$96, %r12
	jmp	.L575
.L583:
.LBB926:
	.loc 1 1545 20 view .LVU2513
	movl	follow_mode(%rip), %edx
	.loc 1 1545 23 is_stmt 0 view .LVU2514
	cmpl	60(%r12), %eax
	je	.L576
	.loc 1 1546 17 is_stmt 1 view .LVU2515
	movq	(%r12), %rsi
	movl	$4, %edi
	call	quotearg_style@PLT
.LVL897:
	.loc 1 1546 34 is_stmt 0 view .LVU2516
	movl	$5, %edx
	leaq	.LC93(%rip), %rsi
	xorl	%edi, %edi
	.loc 1 1546 17 view .LVU2517
	movq	%rax, 40(%rsp)
	.loc 1 1546 34 view .LVU2518
	call	dcgettext@PLT
.LVL898:
	.loc 1 1546 17 view .LVU2519
	movq	40(%rsp), %rcx
	movl	(%rbx), %esi
	xorl	%edi, %edi
	.loc 1 1546 34 view .LVU2520
	movq	%rax, %rdx
	.loc 1 1546 17 view .LVU2521
	xorl	%eax, %eax
	call	error@PLT
.LVL899:
	movl	follow_mode(%rip), %edx
	jmp	.L576
.LVL900:
.L996:
	.loc 1 1546 17 view .LVU2522
	movq	64(%rsp), %rax
.LVL901:
	.loc 1 1546 17 view .LVU2523
	addq	%rbp, %rax
	movq	%rax, 56(%rsp)
	jmp	.L588
.LVL902:
.L998:
	.loc 1 1546 17 view .LVU2524
	movq	24(%rsp), %rbx
	movq	48(%rsp), %r15
	movq	%rbp, 24(%rsp)
.LVL903:
	.loc 1 1546 17 view .LVU2525
.LBE926:
	.loc 1 1562 3 is_stmt 1 view .LVU2526
	.loc 1 1563 7 is_stmt 0 view .LVU2527
	cmpl	$2, %edx
	je	.L1000
.LVL904:
.L683:
	.loc 1 1573 3 is_stmt 1 view .LVU2528
	.loc 1 1573 16 is_stmt 0 view .LVU2529
	movq	64(%rsp), %rsi
	.loc 1 1605 11 view .LVU2530
	leaq	136(%rsp), %rbp
.LVL905:
	.loc 1 1573 16 view .LVU2531
	leaq	-96(%rsi,%r15), %rax
	movq	%r14, %r15
	movl	%r13d, %r14d
.LVL906:
	.loc 1 1573 16 view .LVU2532
	movq	%rbx, %r13
.LVL907:
	.loc 1 1573 16 view .LVU2533
	movq	%rax, 136(%rsp)
	.loc 1 1577 3 is_stmt 1 view .LVU2534
.LVL908:
	.loc 1 1577 3 is_stmt 0 view .LVU2535
	movq	%rsi, %rbx
	jmp	.L590
.LVL909:
.L592:
	.loc 1 1584 16 is_stmt 1 view .LVU2536
	.loc 1 1584 19 is_stmt 0 view .LVU2537
	cmpl	$-1, 56(%rbx)
	je	.L593
.LBB927:
	.loc 1 1590 15 is_stmt 1 view .LVU2538
	.loc 1 1592 15 view .LVU2539
.LVL910:
.LBB928:
.LBI928:
	.loc 3 453 1 view .LVU2540
.LBB929:
	.loc 3 455 3 view .LVU2541
	.loc 3 455 10 is_stmt 0 view .LVU2542
	movq	16(%rsp), %rdx
	movq	(%rbx), %rsi
	movl	$1, %edi
	call	__xstat@PLT
.LVL911:
	.loc 3 455 10 view .LVU2543
.LBE929:
.LBE928:
	.loc 1 1592 18 view .LVU2544
	testl	%eax, %eax
	jne	.L593
	.loc 1 1593 19 view .LVU2545
	movq	528(%rsp), %rax
	cmpq	%rax, 32(%rbx)
	jne	.L595
	.loc 1 1593 48 view .LVU2546
	movq	536(%rsp), %rax
	cmpq	%rax, 40(%rbx)
	jne	.L595
.L593:
.LBE927:
	.loc 1 1605 11 is_stmt 1 view .LVU2547
	movq	%rbp, %rsi
	movq	%rbx, %rdi
	call	check_fspec
.LVL912:
.L591:
	.loc 1 1577 28 view .LVU2548
	addq	$96, %rbx
.L590:
	.loc 1 1577 15 view .LVU2549
	.loc 1 1577 3 is_stmt 0 view .LVU2550
	cmpq	%rbx, %r12
	je	.L1001
	.loc 1 1579 7 is_stmt 1 view .LVU2551
	.loc 1 1579 10 is_stmt 0 view .LVU2552
	cmpb	$0, 52(%rbx)
	jne	.L591
	.loc 1 1582 11 is_stmt 1 view .LVU2553
	.loc 1 1582 14 is_stmt 0 view .LVU2554
	cmpl	$1, follow_mode(%rip)
	jne	.L592
	.loc 1 1583 13 is_stmt 1 view .LVU2555
	xorl	%esi, %esi
	movq	%rbx, %rdi
	call	recheck
.LVL913:
	jmp	.L593
.L1001:
	.loc 1 1609 9 is_stmt 0 view .LVU2556
	movq	24(%rsp), %rax
	movq	%r13, %rbx
	movl	%r14d, %r13d
	movq	%r15, %r14
.LVL914:
	.loc 1 1609 3 is_stmt 1 view .LVU2557
	.loc 1 1609 9 is_stmt 0 view .LVU2558
	addq	$17, %rax
	.loc 1 1610 11 view .LVU2559
	movq	%rax, %rdi
	.loc 1 1609 9 view .LVU2560
	movq	%rax, 48(%rsp)
.LVL915:
	.loc 1 1610 3 is_stmt 1 view .LVU2561
	.loc 1 1610 11 is_stmt 0 view .LVU2562
	call	xmalloc@PLT
.LVL916:
.LBB930:
.LBB931:
	.loc 1 1656 12 view .LVU2563
	movl	%r13d, %ecx
.LBB932:
	movq	%rbx, 120(%rsp)
	movq	(%rsp), %r12
.LBE932:
.LBE931:
.LBE930:
	.loc 1 1610 11 view .LVU2564
	movq	%rax, 24(%rsp)
.LVL917:
.LBB962:
.LBB941:
	.loc 1 1656 12 view .LVU2565
	movl	$1, %eax
.LVL918:
	.loc 1 1656 12 view .LVU2566
	salq	%cl, %rax
.LBE941:
.LBE962:
	.loc 1 1461 16 view .LVU2567
	movl	$3, 116(%rsp)
.LBB963:
.LBB942:
	.loc 1 1656 12 view .LVU2568
	movq	%rax, 40(%rsp)
.LBB933:
	movslq	%r13d, %rax
.LBE933:
.LBE942:
.LBE963:
	.loc 1 1475 10 view .LVU2569
	movq	$0, 16(%rsp)
	.loc 1 1474 10 view .LVU2570
	movq	$0, 8(%rsp)
.LVL919:
.LBB964:
.LBB943:
.LBB934:
	.loc 1 1656 12 view .LVU2571
	movq	%rax, 80(%rsp)
.LVL920:
.L597:
	.loc 1 1656 12 view .LVU2572
.LBE934:
.LBE943:
.LBE964:
	.loc 1 1616 3 is_stmt 1 view .LVU2573
.LBB965:
	.loc 1 1618 7 view .LVU2574
	.loc 1 1619 7 view .LVU2575
	.loc 1 1620 7 view .LVU2576
	.loc 1 1624 7 view .LVU2577
	.loc 1 1624 10 is_stmt 0 view .LVU2578
	cmpl	$1, follow_mode(%rip)
	je	.L1002
.L598:
.LBB944:
.LBB935:
	.loc 1 1655 12 view .LVU2579
	movq	80(%rsp), %rbx
	movl	$16, %ebp
.L607:
	.loc 1 1655 12 view .LVU2580
.LBE935:
.LBE944:
	.loc 1 1634 13 is_stmt 1 view .LVU2581
	movq	16(%rsp), %rsi
	cmpq	%rsi, 8(%rsp)
	jb	.L613
.LBB945:
	.loc 1 1636 11 view .LVU2582
	.loc 1 1638 11 view .LVU2583
	.loc 1 1638 15 is_stmt 0 view .LVU2584
	movl	pid(%rip), %edi
	.loc 1 1638 14 view .LVU2585
	testl	%edi, %edi
	je	.L600
	.loc 1 1640 15 is_stmt 1 view .LVU2586
	.loc 1 1640 18 is_stmt 0 view .LVU2587
	cmpb	$0, 96(%rsp)
	jne	.L1003
	.loc 1 1643 15 is_stmt 1 view .LVU2588
	.loc 1 1643 33 is_stmt 0 view .LVU2589
	xorl	%esi, %esi
	call	kill@PLT
.LVL921:
	.loc 1 1643 52 view .LVU2590
	testl	%eax, %eax
	je	.L602
	.loc 1 1643 55 view .LVU2591
	call	__errno_location@PLT
.LVL922:
	.loc 1 1643 52 view .LVU2592
	cmpl	$1, (%rax)
	je	.L602
.LVL923:
	.loc 1 1645 15 is_stmt 1 view .LVU2593
	.loc 1 1646 17 view .LVU2594
	.loc 1 1643 30 is_stmt 0 view .LVU2595
	movzbl	88(%rsp), %eax
	.loc 1 1646 46 view .LVU2596
	movq	$0, 152(%rsp)
	.loc 1 1646 30 view .LVU2597
	movq	$0, 144(%rsp)
	.loc 1 1643 30 view .LVU2598
	movb	%al, 96(%rsp)
.LVL924:
.L600:
	.loc 1 1654 12 is_stmt 1 view .LVU2599
	.loc 1 1655 12 view .LVU2600
.LBB936:
	.loc 1 1655 12 view .LVU2601
	.loc 1 1655 12 view .LVU2602
	leaq	256(%rsp), %r15
	xorl	%eax, %eax
	movq	%rbp, %rcx
	movq	%r15, %rdi
#APP
# 1655 "src/tail.c" 1
	cld; rep; stosq
# 0 "" 2
.LVL925:
	.loc 1 1655 12 is_stmt 0 view .LVU2603
#NO_APP
.LBE936:
	.loc 1 1655 12 is_stmt 1 view .LVU2604
	.loc 1 1656 12 view .LVU2605
.LBB937:
	.loc 1 1656 12 view .LVU2606
	.loc 1 1656 12 view .LVU2607
	movq	%rbx, %rdi
	call	__fdelt_chk@PLT
.LVL926:
.LBE937:
	movq	40(%rsp), %rsi
	orq	%rsi, 256(%rsp,%rax,8)
	.loc 1 1657 12 view .LVU2608
	.loc 1 1657 15 is_stmt 0 view .LVU2609
	cmpb	$0, monitor_output(%rip)
	je	.L604
	.loc 1 1658 14 is_stmt 1 view .LVU2610
.LBE945:
.LBE965:
.LBE974:
.LBE979:
.LBE986:
.LBE1000:
	.loc 1 1658 14 view .LVU2611
.LVL927:
	.loc 1 1658 14 view .LVU2612
.LBB1001:
.LBB987:
.LBB980:
.LBB975:
.LBB966:
.LBB946:
	orq	$2, 256(%rsp)
.LVL928:
.L604:
	.loc 1 1660 12 view .LVU2613
	.loc 1 1660 30 is_stmt 0 view .LVU2614
	cmpl	$0, pid(%rip)
	leaq	144(%rsp), %r8
	movl	$0, %eax
	movq	%r15, %rsi
	cmove	%rax, %r8
	.loc 1 1660 38 view .LVU2615
	movl	$1, %edi
	testl	%r13d, %r13d
	cmovg	%r13d, %edi
	.loc 1 1660 30 view .LVU2616
	xorl	%ecx, %ecx
	xorl	%edx, %edx
	addl	$1, %edi
	call	select@PLT
.LVL929:
	.loc 1 1663 12 is_stmt 1 view .LVU2617
	.loc 1 1663 15 is_stmt 0 view .LVU2618
	testl	%eax, %eax
	je	.L607
	.loc 1 1665 17 is_stmt 1 view .LVU2619
	.loc 1 1665 20 is_stmt 0 view .LVU2620
	addl	$1, %eax
.LVL930:
	.loc 1 1665 20 view .LVU2621
	je	.L1004
	.loc 1 1668 17 is_stmt 1 view .LVU2622
.LBE946:
.LBE966:
.LBE975:
.LBE980:
.LBE987:
.LBE1001:
	.loc 1 1668 21 view .LVU2623
.LVL931:
	.loc 1 1668 21 view .LVU2624
.LBB1002:
.LBB988:
.LBB981:
.LBB976:
.LBB967:
.LBB947:
	.loc 1 1668 20 is_stmt 0 view .LVU2625
	testb	$2, 256(%rsp)
	jne	.L670
	.loc 1 1668 20 view .LVU2626
.LBE947:
	.loc 1 1678 7 is_stmt 1 view .LVU2627
	.loc 1 1680 11 view .LVU2628
	.loc 1 1680 17 is_stmt 0 view .LVU2629
	movq	48(%rsp), %rdx
	movq	24(%rsp), %rsi
	movl	%r13d, %edi
	call	safe_read@PLT
.LVL932:
	movq	%rax, 16(%rsp)
.LVL933:
	.loc 1 1681 11 is_stmt 1 view .LVU2630
	.loc 1 1685 11 view .LVU2631
	.loc 1 1685 14 is_stmt 0 view .LVU2632
	testq	%rax, %rax
	je	.L610
	.loc 1 1681 21 view .LVU2633
	movq	$0, 8(%rsp)
	.loc 1 1685 25 view .LVU2634
	cmpq	$-1, 16(%rsp)
	je	.L1005
.LVL934:
.L613:
	.loc 1 1698 7 is_stmt 1 view .LVU2635
	.loc 1 1698 15 is_stmt 0 view .LVU2636
	movq	8(%rsp), %rsi
	movq	24(%rsp), %rbx
	addq	%rsi, %rbx
.LVL935:
	.loc 1 1699 7 is_stmt 1 view .LVU2637
	.loc 1 1700 7 view .LVU2638
	.loc 1 1700 37 is_stmt 0 view .LVU2639
	movl	12(%rbx), %edx
	.loc 1 1700 17 view .LVU2640
	leaq	16(%rsi,%rdx), %rsi
	movq	%rsi, 8(%rsp)
.LVL936:
	.loc 1 1706 7 is_stmt 1 view .LVU2641
	.loc 1 1706 14 is_stmt 0 view .LVU2642
	movl	4(%rbx), %esi
.LVL937:
	.loc 1 1706 14 view .LVU2643
	movl	%esi, 32(%rsp)
	.loc 1 1706 10 view .LVU2644
	andl	$1024, %esi
	je	.L616
	.loc 1 1706 39 view .LVU2645
	testl	%edx, %edx
	je	.L1006
.L733:
.LBB948:
	.loc 1 1729 22 view .LVU2646
	leaq	16(%rbx), %rax
	movl	%r13d, 104(%rsp)
.LBE948:
	movq	64(%rsp), %r15
	xorl	%ebp, %ebp
.LBB951:
	movq	%r12, %r13
	movq	%rbx, %r12
	movq	%rax, %rbx
.LVL938:
	.loc 1 1729 22 view .LVU2647
	jmp	.L623
.LVL939:
.L621:
	.loc 1 1724 36 is_stmt 1 view .LVU2648
	.loc 1 1724 37 is_stmt 0 view .LVU2649
	addq	$1, %rbp
.LVL940:
	.loc 1 1724 37 view .LVU2650
	addq	$96, %r15
	.loc 1 1724 23 is_stmt 1 view .LVU2651
	.loc 1 1724 11 is_stmt 0 view .LVU2652
	cmpq	%r13, %rbp
	je	.L1007
.LVL941:
.L623:
	.loc 1 1728 15 is_stmt 1 view .LVU2653
	.loc 1 1728 18 is_stmt 0 view .LVU2654
	movl	(%r12), %eax
	cmpl	%eax, 72(%r15)
	jne	.L621
	.loc 1 1729 22 view .LVU2655
	movq	80(%r15), %rsi
	movq	%rbx, %rdi
	addq	(%r15), %rsi
	call	strcmp@PLT
.LVL942:
	.loc 1 1729 19 view .LVU2656
	testl	%eax, %eax
	jne	.L621
	.loc 1 1737 22 view .LVU2657
	imulq	$96, %rbp, %rcx
	.loc 1 1737 17 view .LVU2658
	movq	64(%rsp), %rax
	movq	%r12, %rbx
	movq	%r13, %r12
.LVL943:
	.loc 1 1737 17 view .LVU2659
	movl	104(%rsp), %r13d
	.loc 1 1737 11 is_stmt 1 view .LVU2660
	.loc 1 1737 17 is_stmt 0 view .LVU2661
	leaq	(%rax,%rcx), %rbp
.LVL944:
	.loc 1 1739 11 is_stmt 1 view .LVU2662
	.loc 1 1740 11 view .LVU2663
	.loc 1 1742 11 view .LVU2664
	.loc 1 1742 14 is_stmt 0 view .LVU2665
	testl	$512, 32(%rsp)
	je	.L1008
.LVL945:
	.loc 1 1766 11 is_stmt 1 view .LVU2666
	.loc 1 1767 11 view .LVU2667
	.loc 1 1798 11 view .LVU2668
	.loc 1 1798 14 is_stmt 0 view .LVU2669
	cmpl	$1, follow_mode(%rip)
	je	.L689
.LVL946:
.L690:
	.loc 1 1798 14 view .LVU2670
.LBE951:
	.loc 1 1811 7 is_stmt 1 view .LVU2671
	.loc 1 1811 10 is_stmt 0 view .LVU2672
	movl	32(%rsp), %eax
	testl	$3588, %eax
	je	.L632
	.loc 1 1817 11 is_stmt 1 view .LVU2673
	.loc 1 1817 14 is_stmt 0 view .LVU2674
	testb	$4, %ah
	jne	.L1009
.L633:
	.loc 1 1831 11 is_stmt 1 view .LVU2675
	xorl	%esi, %esi
	movq	%rbp, %rdi
	call	recheck
.LVL947:
	.loc 1 1833 11 view .LVU2676
	jmp	.L597
.LVL948:
.L616:
	.loc 1 1721 7 view .LVU2677
	.loc 1 1721 10 is_stmt 0 view .LVU2678
	testl	%edx, %edx
	jne	.L733
	movl	(%rbx), %ecx
.L620:
.LBB952:
	.loc 1 1803 11 is_stmt 1 view .LVU2679
	.loc 1 1804 11 view .LVU2680
	.loc 1 1805 19 is_stmt 0 view .LVU2681
	leaq	160(%rsp), %rsi
	movq	%r14, %rdi
	.loc 1 1804 18 view .LVU2682
	movl	%ecx, 228(%rsp)
	.loc 1 1805 11 is_stmt 1 view .LVU2683
	.loc 1 1805 19 is_stmt 0 view .LVU2684
	call	hash_lookup@PLT
.LVL949:
	movq	%rax, %rbp
.LVL950:
	.loc 1 1805 19 view .LVU2685
.LBE952:
	.loc 1 1808 7 is_stmt 1 view .LVU2686
	.loc 1 1808 10 is_stmt 0 view .LVU2687
	testq	%rax, %rax
	je	.L597
.LVL951:
.L940:
	.loc 1 1808 10 view .LVU2688
	movl	4(%rbx), %eax
	movl	%eax, 32(%rsp)
	jmp	.L690
.LVL952:
.L1002:
	.loc 1 1625 11 view .LVU2689
	cmpb	$0, reopen_inaccessible_files(%rip)
	jne	.L598
	.loc 1 1626 14 view .LVU2690
	movq	%r14, %rdi
	call	hash_get_n_entries@PLT
.LVL953:
	.loc 1 1626 11 view .LVU2691
	testq	%rax, %rax
	jne	.L598
	.loc 1 1628 11 is_stmt 1 view .LVU2692
	.loc 1 1628 24 is_stmt 0 view .LVU2693
	movl	$5, %edx
	leaq	.LC95(%rip), %rsi
	xorl	%edi, %edi
	call	dcgettext@PLT
.LVL954:
	.loc 1 1628 11 view .LVU2694
	xorl	%esi, %esi
	xorl	%edi, %edi
	.loc 1 1628 24 view .LVU2695
	movq	%rax, %rdx
	.loc 1 1628 11 view .LVU2696
	xorl	%eax, %eax
	call	error@PLT
.LVL955:
	.loc 1 1629 11 is_stmt 1 view .LVU2697
.L599:
	.loc 1 1629 11 is_stmt 0 view .LVU2698
.LBE967:
.LBE976:
.LBE981:
	.loc 1 2506 17 is_stmt 1 view .LVU2699
	.loc 1 2506 24 is_stmt 0 view .LVU2700
	movl	$1, %eax
	jmp	.L395
.LVL956:
.L602:
.LBB982:
.LBB977:
.LBB968:
.LBB953:
	.loc 1 1645 15 is_stmt 1 view .LVU2701
	.loc 1 1649 19 view .LVU2702
	.loc 1 1649 34 is_stmt 0 view .LVU2703
	movsd	72(%rsp), %xmm4
	.loc 1 1650 61 view .LVU2704
	pxor	%xmm0, %xmm0
	.loc 1 1649 34 view .LVU2705
	cvttsd2siq	%xmm4, %rax
	.loc 1 1650 61 view .LVU2706
	cvtsi2sdq	%rax, %xmm0
	.loc 1 1649 32 view .LVU2707
	movq	%rax, 144(%rsp)
	.loc 1 1650 19 is_stmt 1 view .LVU2708
	.loc 1 1650 61 is_stmt 0 view .LVU2709
	subsd	%xmm0, %xmm4
	.loc 1 1650 43 view .LVU2710
	movsd	.LC102(%rip), %xmm0
	mulsd	%xmm4, %xmm0
	.loc 1 1650 33 view .LVU2711
	cvttsd2siq	%xmm0, %rax
	movq	%rax, 152(%rsp)
	jmp	.L600
.LVL957:
.L632:
	.loc 1 1650 33 view .LVU2712
.LBE953:
	.loc 1 1835 7 is_stmt 1 view .LVU2713
	leaq	136(%rsp), %rsi
	movq	%rbp, %rdi
	call	check_fspec
.LVL958:
	jmp	.L597
.LVL959:
.L1007:
	.loc 1 1835 7 is_stmt 0 view .LVU2714
	movq	%r13, %r12
.LVL960:
	.loc 1 1835 7 view .LVU2715
	movl	104(%rsp), %r13d
.LBB954:
	jmp	.L597
.LVL961:
.L610:
	.loc 1 1835 7 view .LVU2716
.LBE954:
	.loc 1 1686 15 view .LVU2717
	cmpl	$0, 116(%rsp)
	je	.L614
	.loc 1 1688 15 is_stmt 1 view .LVU2718
.LVL962:
	.loc 1 1689 15 view .LVU2719
	.loc 1 1689 21 is_stmt 0 view .LVU2720
	movq	48(%rsp), %rsi
	.loc 1 1690 23 view .LVU2721
	movq	24(%rsp), %rdi
	.loc 1 1686 29 view .LVU2722
	subl	$1, 116(%rsp)
.LVL963:
	.loc 1 1689 21 view .LVU2723
	movq	%rsi, %rax
	addq	%rsi, %rax
	.loc 1 1690 23 view .LVU2724
	movq	%rax, %rsi
	.loc 1 1689 21 view .LVU2725
	movq	%rax, 48(%rsp)
.LVL964:
	.loc 1 1690 15 is_stmt 1 view .LVU2726
	.loc 1 1690 23 is_stmt 0 view .LVU2727
	call	xrealloc@PLT
.LVL965:
	.loc 1 1688 19 view .LVU2728
	movq	$0, 16(%rsp)
	.loc 1 1690 23 view .LVU2729
	movq	%rax, 24(%rsp)
.LVL966:
	.loc 1 1691 15 is_stmt 1 view .LVU2730
	.loc 1 1681 21 is_stmt 0 view .LVU2731
	movq	$0, 8(%rsp)
	.loc 1 1691 15 view .LVU2732
	jmp	.L597
.LVL967:
.L1008:
.LBB955:
	.loc 1 1745 15 is_stmt 1 view .LVU2733
	.loc 1 1745 24 is_stmt 0 view .LVU2734
	movl	112(%rsp), %edx
	movq	0(%rbp), %rsi
	movl	%r13d, %edi
	call	inotify_add_watch@PLT
.LVL968:
	movl	%eax, %r15d
.LVL969:
	.loc 1 1748 11 is_stmt 1 view .LVU2735
	.loc 1 1748 14 is_stmt 0 view .LVU2736
	testl	%eax, %eax
	jns	.L625
	.loc 1 1750 15 is_stmt 1 view .LVU2737
	.loc 1 1750 19 is_stmt 0 view .LVU2738
	call	__errno_location@PLT
.LVL970:
	.loc 1 1750 19 view .LVU2739
	movq	%rax, %r9
	.loc 1 1750 35 view .LVU2740
	movl	(%rax), %eax
	andl	$-17, %eax
	.loc 1 1750 18 view .LVU2741
	cmpl	$12, %eax
	je	.L1010
	.loc 1 1760 19 view .LVU2742
	movq	0(%rbp), %rsi
	movl	$4, %edi
	movq	%r9, 104(%rsp)
	.loc 1 1760 19 is_stmt 1 view .LVU2743
	call	quotearg_style@PLT
.LVL971:
	.loc 1 1760 36 is_stmt 0 view .LVU2744
	movl	$5, %edx
	leaq	.LC93(%rip), %rsi
	xorl	%edi, %edi
	.loc 1 1760 19 view .LVU2745
	movq	%rax, 32(%rsp)
.LVL972:
	.loc 1 1760 36 view .LVU2746
	call	dcgettext@PLT
.LVL973:
	.loc 1 1760 19 view .LVU2747
	movq	104(%rsp), %r9
	movq	32(%rsp), %rcx
	xorl	%edi, %edi
	.loc 1 1760 36 view .LVU2748
	movq	%rax, %rdx
	.loc 1 1760 19 view .LVU2749
	xorl	%eax, %eax
	movl	(%r9), %esi
	call	error@PLT
.LVL974:
	.loc 1 1766 11 is_stmt 1 view .LVU2750
	.loc 1 1767 11 view .LVU2751
.L625:
	.loc 1 1767 45 is_stmt 0 view .LVU2752
	movl	68(%rbp), %esi
	.loc 1 1767 54 view .LVU2753
	testl	%esi, %esi
	js	.L681
	cmpl	%esi, %r15d
	je	.L628
.LVL975:
	.loc 1 1769 11 is_stmt 1 view .LVU2754
.LBB949:
	.loc 1 1771 15 view .LVU2755
	.loc 1 1771 18 is_stmt 0 view .LVU2756
	testl	%esi, %esi
	js	.L681
	.loc 1 1773 19 is_stmt 1 view .LVU2757
	movl	%r13d, %edi
	call	inotify_rm_watch@PLT
.LVL976:
	.loc 1 1774 19 view .LVU2758
	movq	%rbp, %rsi
	movq	%r14, %rdi
	call	hash_remove@PLT
.LVL977:
.L681:
	.loc 1 1777 15 view .LVU2759
	.loc 1 1777 25 is_stmt 0 view .LVU2760
	movl	%r15d, 68(%rbp)
	.loc 1 1779 15 is_stmt 1 view .LVU2761
	.loc 1 1779 18 is_stmt 0 view .LVU2762
	addl	$1, %r15d
	je	.L597
	.loc 1 1785 15 is_stmt 1 view .LVU2763
	.loc 1 1785 40 is_stmt 0 view .LVU2764
	movq	%rbp, %rsi
	movq	%r14, %rdi
	call	hash_remove@PLT
.LVL978:
	movq	%rax, %r15
.LVL979:
	.loc 1 1786 15 is_stmt 1 view .LVU2765
	.loc 1 1786 18 is_stmt 0 view .LVU2766
	testq	%rax, %rax
	je	.L629
	cmpq	%rax, %rbp
	je	.L629
	.loc 1 1788 19 is_stmt 1 view .LVU2767
	.loc 1 1788 22 is_stmt 0 view .LVU2768
	cmpl	$1, follow_mode(%rip)
	je	.L1011
.LVL980:
.L630:
	.loc 1 1790 19 is_stmt 1 view .LVU2769
	.loc 1 1790 28 is_stmt 0 view .LVU2770
	movl	$-1, 68(%r15)
	.loc 1 1791 19 is_stmt 1 view .LVU2771
	movq	(%r15), %rdi
	call	pretty_name.isra.0
.LVL981:
	movl	56(%r15), %edi
	movq	%rax, %rsi
	call	close_fd
.LVL982:
.L629:
	.loc 1 1794 15 view .LVU2772
	.loc 1 1794 19 is_stmt 0 view .LVU2773
	movq	%rbp, %rsi
	movq	%r14, %rdi
	call	hash_insert@PLT
.LVL983:
	.loc 1 1794 18 view .LVU2774
	testq	%rax, %rax
	je	.L584
.LVL984:
.L628:
	.loc 1 1794 18 view .LVU2775
.LBE949:
	.loc 1 1798 11 is_stmt 1 view .LVU2776
	.loc 1 1798 14 is_stmt 0 view .LVU2777
	cmpl	$1, follow_mode(%rip)
	jne	.L940
.L689:
	.loc 1 1799 13 is_stmt 1 view .LVU2778
	xorl	%esi, %esi
	movq	%rbp, %rdi
	call	recheck
.LVL985:
	movl	4(%rbx), %eax
	movl	%eax, 32(%rsp)
	jmp	.L690
.LVL986:
.L1006:
	.loc 1 1799 13 is_stmt 0 view .LVU2779
	movl	(%rbx), %ecx
.LVL987:
	.loc 1 1799 13 view .LVU2780
.LBE955:
	.loc 1 1708 23 is_stmt 1 view .LVU2781
	.loc 1 1708 18 is_stmt 0 view .LVU2782
	movq	64(%rsp), %rsi
	xorl	%eax, %eax
	jmp	.L619
.LVL988:
.L618:
	.loc 1 1708 36 is_stmt 1 view .LVU2783
	.loc 1 1708 37 is_stmt 0 view .LVU2784
	addq	$1, %rax
.LVL989:
	.loc 1 1708 23 is_stmt 1 view .LVU2785
	.loc 1 1708 11 is_stmt 0 view .LVU2786
	cmpq	%r12, %rax
	je	.L620
.LVL990:
.L619:
	.loc 1 1710 15 is_stmt 1 view .LVU2787
	.loc 1 1710 33 is_stmt 0 view .LVU2788
	imulq	$96, %rax, %rdx
	.loc 1 1710 18 view .LVU2789
	cmpl	%ecx, 72(%rsi,%rdx)
	jne	.L618
	.loc 1 1712 19 view .LVU2790
	movq	%r14, %rdi
	movq	120(%rsp), %rbx
.LVL991:
	.loc 1 1712 19 is_stmt 1 view .LVU2791
	call	hash_free@PLT
.LVL992:
	.loc 1 1713 19 view .LVU2792
	.loc 1 1714 23 is_stmt 0 view .LVU2793
	movl	$5, %edx
	leaq	.LC98(%rip), %rsi
	xorl	%edi, %edi
	call	dcgettext@PLT
.LVL993:
	.loc 1 1713 19 view .LVU2794
	xorl	%esi, %esi
	xorl	%edi, %edi
	.loc 1 1714 23 view .LVU2795
	movq	%rax, %rdx
	.loc 1 1713 19 view .LVU2796
	xorl	%eax, %eax
	call	error@PLT
.LVL994:
	.loc 1 1715 19 is_stmt 1 view .LVU2797
	call	__errno_location@PLT
.LVL995:
	.loc 1 1715 25 is_stmt 0 view .LVU2798
	movl	$0, (%rax)
	.loc 1 1716 19 is_stmt 1 view .LVU2799
.LVL996:
	.loc 1 1716 19 is_stmt 0 view .LVU2800
	jmp	.L588
.LVL997:
.L1009:
	.loc 1 1819 15 is_stmt 1 view .LVU2801
	movl	68(%rbp), %esi
	movl	%r13d, %edi
	call	inotify_rm_watch@PLT
.LVL998:
	.loc 1 1820 15 view .LVU2802
	movq	%rbp, %rsi
	movq	%r14, %rdi
	call	hash_remove@PLT
.LVL999:
	jmp	.L633
.LVL1000:
.L1000:
	.loc 1 1820 15 is_stmt 0 view .LVU2803
.LBE968:
	.loc 1 1563 44 view .LVU2804
	cmpb	$0, 8(%rsp)
	jne	.L580
	.loc 1 1570 3 is_stmt 1 view .LVU2805
	.loc 1 1570 40 is_stmt 0 view .LVU2806
	cmpb	$0, 32(%rsp)
	jne	.L683
	jmp	.L599
.LVL1001:
.L1005:
.LBB969:
	.loc 1 1685 55 view .LVU2807
	call	__errno_location@PLT
.LVL1002:
	.loc 1 1685 52 view .LVU2808
	cmpl	$22, (%rax)
	je	.L610
.LVL1003:
.L614:
.LBB956:
	.loc 1 1695 13 is_stmt 1 view .LVU2809
	movl	$5, %edx
	leaq	.LC97(%rip), %rsi
	xorl	%edi, %edi
	call	dcgettext@PLT
.LVL1004:
	movq	%rax, %r12
	call	__errno_location@PLT
.LVL1005:
	movq	%r12, %rdx
	movl	$1, %edi
	movl	(%rax), %esi
	xorl	%eax, %eax
	call	error@PLT
.LVL1006:
.L1003:
	.loc 1 1695 13 is_stmt 0 view .LVU2810
.LBE956:
.LBB957:
	.loc 1 1641 17 is_stmt 1 view .LVU2811
	xorl	%edi, %edi
	call	exit@PLT
.LVL1007:
.L1011:
	.loc 1 1641 17 is_stmt 0 view .LVU2812
.LBE957:
.LBB958:
.LBB950:
	.loc 1 1789 21 is_stmt 1 view .LVU2813
	xorl	%esi, %esi
	movq	%rax, %rdi
	call	recheck
.LVL1008:
	.loc 1 1789 21 is_stmt 0 view .LVU2814
	jmp	.L630
.LVL1009:
.L595:
	.loc 1 1789 21 view .LVU2815
	movq	%rbx, %rax
	movq	%r13, %rbx
	movl	%r14d, %r13d
	movq	%r15, %r14
.LVL1010:
	.loc 1 1789 21 view .LVU2816
.LBE950:
.LBE958:
.LBE969:
.LBB970:
	.loc 1 1595 19 is_stmt 1 view .LVU2817
	movq	(%rax), %rdi
	call	pretty_name.isra.0
.LVL1011:
	movl	$4, %edi
	movq	%rax, %rsi
	call	quotearg_style@PLT
.LVL1012:
	.loc 1 1595 36 is_stmt 0 view .LVU2818
	movl	$5, %edx
	leaq	.LC94(%rip), %rsi
	xorl	%edi, %edi
	.loc 1 1595 19 view .LVU2819
	movq	%rax, %r15
.LVL1013:
	.loc 1 1595 36 view .LVU2820
	call	dcgettext@PLT
.LVL1014:
	movq	%rax, %r12
	.loc 1 1595 29 view .LVU2821
	call	__errno_location@PLT
.LVL1015:
	.loc 1 1595 19 view .LVU2822
	movq	%r15, %rcx
	movq	%r12, %rdx
	xorl	%edi, %edi
	movl	(%rax), %esi
	.loc 1 1595 29 view .LVU2823
	movq	%rax, %rbp
	.loc 1 1595 19 view .LVU2824
	xorl	%eax, %eax
	call	error@PLT
.LVL1016:
	.loc 1 1597 19 is_stmt 1 view .LVU2825
	movq	%r14, %rdi
	call	hash_free@PLT
.LVL1017:
	.loc 1 1599 19 view .LVU2826
	.loc 1 1599 25 is_stmt 0 view .LVU2827
	movl	$0, 0(%rbp)
	.loc 1 1600 19 is_stmt 1 view .LVU2828
.LVL1018:
	.loc 1 1600 19 is_stmt 0 view .LVU2829
	jmp	.L588
.LVL1019:
.L584:
	.loc 1 1600 19 view .LVU2830
.LBE970:
	.loc 1 1479 5 is_stmt 1 view .LVU2831
	call	xalloc_die@PLT
.LVL1020:
.L1004:
.LBB971:
.LBB959:
.LBB938:
	.loc 1 1666 14 view .LVU2832
	movl	$5, %edx
	leaq	.LC96(%rip), %rsi
	xorl	%edi, %edi
	call	dcgettext@PLT
.LVL1021:
	movq	%rax, %r12
	call	__errno_location@PLT
.LVL1022:
	movq	%r12, %rdx
	movl	$1, %edi
	movl	(%rax), %esi
	xorl	%eax, %eax
	call	error@PLT
.LVL1023:
.L1010:
	.loc 1 1666 14 is_stmt 0 view .LVU2833
.LBE938:
.LBE959:
.LBB960:
	.loc 1 1752 32 view .LVU2834
	movl	$5, %edx
	leaq	.LC92(%rip), %rsi
	xorl	%edi, %edi
	movq	%r9, 8(%rsp)
.LVL1024:
	.loc 1 1752 19 is_stmt 1 view .LVU2835
	movq	120(%rsp), %rbx
.LVL1025:
	.loc 1 1752 32 is_stmt 0 view .LVU2836
	call	dcgettext@PLT
.LVL1026:
	.loc 1 1752 19 view .LVU2837
	xorl	%esi, %esi
	xorl	%edi, %edi
	.loc 1 1752 32 view .LVU2838
	movq	%rax, %rdx
	.loc 1 1752 19 view .LVU2839
	xorl	%eax, %eax
	call	error@PLT
.LVL1027:
	.loc 1 1753 19 is_stmt 1 view .LVU2840
	movq	%r14, %rdi
	call	hash_free@PLT
.LVL1028:
	.loc 1 1754 19 view .LVU2841
	.loc 1 1754 25 is_stmt 0 view .LVU2842
	movq	8(%rsp), %r9
	movl	$0, (%r9)
	.loc 1 1755 19 is_stmt 1 view .LVU2843
.LVL1029:
	.loc 1 1755 19 is_stmt 0 view .LVU2844
	jmp	.L588
.LVL1030:
.L999:
	.loc 1 1755 19 view .LVU2845
.LBE960:
.LBE971:
.LBB972:
.LBB924:
	.loc 1 1521 23 view .LVU2846
	call	__errno_location@PLT
.LVL1031:
	movq	24(%rsp), %rbx
.LVL1032:
	.loc 1 1521 19 is_stmt 1 view .LVU2847
	.loc 1 1521 22 is_stmt 0 view .LVU2848
	cmpl	$28, (%rax)
	.loc 1 1521 23 view .LVU2849
	movq	%rax, %rbp
.LVL1033:
	.loc 1 1521 22 view .LVU2850
	je	.L939
	.loc 1 1522 21 is_stmt 1 view .LVU2851
	movq	(%r12), %rsi
	movl	$4, %edi
	call	quotearg_style@PLT
.LVL1034:
	.loc 1 1522 38 is_stmt 0 view .LVU2852
	xorl	%edi, %edi
	movl	$5, %edx
	leaq	.LC91(%rip), %rsi
	.loc 1 1522 21 view .LVU2853
	movq	%rax, %r12
	.loc 1 1522 38 view .LVU2854
	call	dcgettext@PLT
.LVL1035:
	.loc 1 1522 21 view .LVU2855
	movl	0(%rbp), %esi
	movq	%r12, %rcx
	xorl	%edi, %edi
	.loc 1 1522 38 view .LVU2856
	movq	%rax, %rdx
	.loc 1 1522 21 view .LVU2857
	xorl	%eax, %eax
	call	error@PLT
.LVL1036:
	jmp	.L580
.LVL1037:
.L997:
	.loc 1 1522 21 view .LVU2858
.LBE924:
.LBE972:
.LBE977:
.LBE982:
.LBB983:
	.loc 1 2503 17 is_stmt 1 view .LVU2859
	movl	$5, %edx
	leaq	.LC11(%rip), %rsi
	xorl	%edi, %edi
	call	dcgettext@PLT
.LVL1038:
	movq	%rax, %r12
	call	__errno_location@PLT
.LVL1039:
	movq	%r12, %rdx
	movl	$1, %edi
	movl	(%rax), %esi
	xorl	%eax, %eax
	call	error@PLT
.LVL1040:
.L737:
	.loc 1 2503 17 is_stmt 0 view .LVU2860
.LBE983:
.LBE988:
.LBB989:
.LBB899:
.LBB890:
.LBB882:
	.loc 1 1272 27 view .LVU2861
	movq	$-2, %rcx
	jmp	.L650
.LVL1041:
.L957:
	.loc 1 1272 27 view .LVU2862
.LBE882:
.LBE890:
.LBE899:
.LBE989:
.LBE1002:
	.loc 1 2377 3 is_stmt 1 discriminator 1 view .LVU2863
	leaq	__PRETTY_FUNCTION__.8108(%rip), %rcx
	movl	$2377, %edx
	leaq	.LC13(%rip), %rsi
	leaq	.LC83(%rip), %rdi
	call	__assert_fail@PLT
.LVL1042:
.L959:
.LBB1003:
.LBB555:
	.loc 1 2400 7 view .LVU2864
	leaq	.LC84(%rip), %rsi
	movl	$4, %edi
	call	quotearg_style@PLT
.LVL1043:
	.loc 1 2400 7 is_stmt 0 view .LVU2865
	movl	$5, %edx
	leaq	.LC85(%rip), %rsi
	xorl	%edi, %edi
	movq	%rax, %r12
	call	dcgettext@PLT
.LVL1044:
	movq	%r12, %rcx
	xorl	%esi, %esi
	movl	$1, %edi
	movq	%rax, %rdx
	xorl	%eax, %eax
	call	error@PLT
.LVL1045:
.L979:
	.loc 1 2400 7 view .LVU2866
.LBE555:
.LBE1003:
	.loc 1 2533 1 view .LVU2867
	call	__stack_chk_fail@PLT
.LVL1046:
.L982:
.LBB1004:
.LBB797:
.LBB784:
.LBB770:
.LBB725:
.LBB709:
.LBB685:
.LBB672:
.LBB659:
.LBB652:
.LBB645:
.LBB641:
	.loc 1 736 13 is_stmt 1 view .LVU2868
	leaq	__PRETTY_FUNCTION__.7720(%rip), %rcx
	movl	$736, %edx
	leaq	.LC13(%rip), %rsi
	leaq	.LC89(%rip), %rdi
	call	__assert_fail@PLT
.LVL1047:
.L954:
	.loc 1 736 13 is_stmt 0 view .LVU2869
.LBE641:
.LBE645:
.LBE652:
.LBE659:
.LBE672:
.LBE685:
.LBE709:
.LBE725:
.LBE770:
.LBE784:
.LBE797:
.LBE1004:
.LBB1005:
.LBB527:
.LBB522:
	.loc 1 2164 7 is_stmt 1 view .LVU2870
	movq	8(%rbx), %rdi
	call	quote@PLT
.LVL1048:
	movl	$5, %edx
	leaq	.LC63(%rip), %rsi
	xorl	%edi, %edi
	movq	%rax, %rbx
.LVL1049:
	.loc 1 2164 7 is_stmt 0 view .LVU2871
	call	dcgettext@PLT
.LVL1050:
	movq	%rax, %r12
.LVL1051:
	.loc 1 2164 7 view .LVU2872
	call	__errno_location@PLT
.LVL1052:
	movq	%rbx, %r8
	movq	%r12, %rcx
	movl	$1, %edi
	movl	(%rax), %esi
	leaq	.LC64(%rip), %rdx
	xorl	%eax, %eax
	call	error@PLT
.LVL1053:
.L670:
	.loc 1 2164 7 view .LVU2873
.LBE522:
.LBE527:
.LBE1005:
.LBB1006:
.LBB990:
.LBB984:
.LBB978:
.LBB973:
.LBB961:
	.loc 1 1672 16 is_stmt 1 view .LVU2874
.LBB939:
.LBI939:
	.loc 1 340 1 view .LVU2875
.LBB940:
	.loc 1 342 3 view .LVU2876
	movl	$13, %edi
	call	raise@PLT
.LVL1054:
	.loc 1 343 3 view .LVU2877
	movl	$1, %edi
	call	exit@PLT
.LVL1055:
.L995:
	.loc 1 343 3 is_stmt 0 view .LVU2878
.LBE940:
.LBE939:
.LBE961:
.LBE973:
.LBE978:
.LBE984:
.LBE990:
.LBB991:
.LBB900:
.LBB891:
.LBB883:
	.loc 1 1291 9 is_stmt 1 view .LVU2879
	movl	$5, %edx
	leaq	.LC11(%rip), %rsi
	xorl	%edi, %edi
	call	dcgettext@PLT
.LVL1056:
	movq	%rax, %r12
	call	__errno_location@PLT
.LVL1057:
	movq	%r12, %rdx
	movl	$1, %edi
	movl	(%rax), %esi
	xorl	%eax, %eax
	call	error@PLT
.LVL1058:
.LBE883:
.LBE891:
.LBE900:
.LBE991:
.LBE1006:
	.cfi_endproc
.LFE185:
	.size	main, .-main
	.section	.rodata
	.align 8
	.type	__PRETTY_FUNCTION__.7810, @object
	.size	__PRETTY_FUNCTION__.7810, 8
__PRETTY_FUNCTION__.7810:
	.string	"recheck"
	.align 8
	.type	__PRETTY_FUNCTION__.7720, @object
	.size	__PRETTY_FUNCTION__.7720, 11
__PRETTY_FUNCTION__.7720:
	.string	"pipe_lines"
	.data
	.type	first_file.7627, @object
	.size	first_file.7627, 1
first_file.7627:
	.byte	1
	.section	.data.rel.local,"aw"
	.align 8
	.type	dummy_stdin.8109, @object
	.size	dummy_stdin.8109, 8
dummy_stdin.8109:
	.quad	.LC84
	.section	.rodata
	.type	__PRETTY_FUNCTION__.8108, @object
	.size	__PRETTY_FUNCTION__.8108, 5
__PRETTY_FUNCTION__.8108:
	.string	"main"
	.section	.rodata.str1.1
.LC103:
	.string	"bytes"
.LC104:
	.string	"follow"
.LC105:
	.string	"lines"
.LC106:
	.string	"max-unchanged-stats"
.LC107:
	.string	"-disable-inotify"
.LC108:
	.string	"pid"
.LC109:
	.string	"-presume-input-pipe"
.LC110:
	.string	"quiet"
.LC111:
	.string	"retry"
.LC112:
	.string	"silent"
.LC113:
	.string	"sleep-interval"
.LC114:
	.string	"verbose"
.LC115:
	.string	"zero-terminated"
.LC116:
	.string	"help"
.LC117:
	.string	"version"
	.section	.data.rel.ro.local,"aw"
	.align 32
	.type	long_options, @object
	.size	long_options, 512
long_options:
	.quad	.LC103
	.long	1
	.zero	4
	.quad	0
	.long	99
	.zero	4
	.quad	.LC104
	.long	2
	.zero	4
	.quad	0
	.long	132
	.zero	4
	.quad	.LC105
	.long	1
	.zero	4
	.quad	0
	.long	110
	.zero	4
	.quad	.LC106
	.long	1
	.zero	4
	.quad	0
	.long	129
	.zero	4
	.quad	.LC107
	.long	0
	.zero	4
	.quad	0
	.long	133
	.zero	4
	.quad	.LC108
	.long	1
	.zero	4
	.quad	0
	.long	130
	.zero	4
	.quad	.LC109
	.long	0
	.zero	4
	.quad	0
	.long	131
	.zero	4
	.quad	.LC110
	.long	0
	.zero	4
	.quad	0
	.long	113
	.zero	4
	.quad	.LC111
	.long	0
	.zero	4
	.quad	0
	.long	128
	.zero	4
	.quad	.LC112
	.long	0
	.zero	4
	.quad	0
	.long	113
	.zero	4
	.quad	.LC113
	.long	1
	.zero	4
	.quad	0
	.long	115
	.zero	4
	.quad	.LC114
	.long	0
	.zero	4
	.quad	0
	.long	118
	.zero	4
	.quad	.LC115
	.long	0
	.zero	4
	.quad	0
	.long	122
	.zero	4
	.quad	.LC116
	.long	0
	.zero	4
	.quad	0
	.long	-130
	.zero	4
	.quad	.LC117
	.long	0
	.zero	4
	.quad	0
	.long	-131
	.zero	4
	.quad	0
	.long	0
	.zero	4
	.quad	0
	.long	0
	.zero	4
	.local	disable_inotify
	.comm	disable_inotify,1,1
	.local	presume_input_pipe
	.comm	presume_input_pipe,1,1
	.local	have_read_stdin
	.comm	have_read_stdin,1,1
	.local	pid
	.comm	pid,4,4
	.data
	.align 8
	.type	max_n_unchanged_stats_between_opens, @object
	.size	max_n_unchanged_stats_between_opens, 8
max_n_unchanged_stats_between_opens:
	.quad	5
	.local	line_end
	.comm	line_end,1,1
	.local	print_headers
	.comm	print_headers,1,1
	.local	from_start
	.comm	from_start,1,1
	.local	monitor_output
	.comm	monitor_output,1,1
	.local	forever
	.comm	forever,1,1
	.align 4
	.type	follow_mode, @object
	.size	follow_mode, 4
follow_mode:
	.long	2
	.local	count_lines
	.comm	count_lines,1,1
	.local	reopen_inaccessible_files
	.comm	reopen_inaccessible_files,1,1
	.section	.rodata
	.align 8
	.type	follow_mode_map, @object
	.size	follow_mode_map, 8
follow_mode_map:
	.long	2
	.long	1
	.section	.rodata.str1.1
.LC118:
	.string	"descriptor"
.LC119:
	.string	"name"
	.section	.data.rel.ro.local
	.align 16
	.type	follow_mode_string, @object
	.size	follow_mode_string, 24
follow_mode_string:
	.quad	.LC118
	.quad	.LC119
	.quad	0
	.section	.rodata.cst8,"aM",@progbits,8
	.align 8
.LC58:
	.long	0
	.long	1072693248
	.align 8
.LC102:
	.long	0
	.long	1093567616
	.text
.Letext0:
	.file 10 "/usr/lib/gcc/x86_64-linux-gnu/9/include/stddef.h"
	.file 11 "/usr/include/x86_64-linux-gnu/bits/types.h"
	.file 12 "/usr/include/x86_64-linux-gnu/bits/types/struct_FILE.h"
	.file 13 "/usr/include/x86_64-linux-gnu/bits/types/FILE.h"
	.file 14 "/usr/include/stdio.h"
	.file 15 "/usr/include/x86_64-linux-gnu/bits/sys_errlist.h"
	.file 16 "/usr/include/x86_64-linux-gnu/sys/types.h"
	.file 17 "/usr/include/x86_64-linux-gnu/bits/types/time_t.h"
	.file 18 "/usr/include/x86_64-linux-gnu/bits/types/struct_timeval.h"
	.file 19 "/usr/include/x86_64-linux-gnu/bits/types/struct_timespec.h"
	.file 20 "/usr/include/x86_64-linux-gnu/sys/select.h"
	.file 21 "./lib/sys/select.h"
	.file 22 "/usr/include/x86_64-linux-gnu/bits/getopt_core.h"
	.file 23 "/usr/include/x86_64-linux-gnu/bits/getopt_ext.h"
	.file 24 "/usr/include/signal.h"
	.file 25 "/usr/include/time.h"
	.file 26 "/usr/include/x86_64-linux-gnu/bits/stat.h"
	.file 27 "/usr/include/unistd.h"
	.file 28 "/usr/include/errno.h"
	.file 29 "src/version.h"
	.file 30 "./lib/exitfail.h"
	.file 31 "/usr/include/x86_64-linux-gnu/bits/stdint-uintn.h"
	.file 32 "/usr/include/stdint.h"
	.file 33 "./lib/xalloc-oversized.h"
	.file 34 "./lib/version-etc.h"
	.file 35 "./lib/progname.h"
	.file 36 "./lib/quotearg.h"
	.file 37 "./lib/quote.h"
	.file 38 "./lib/argmatch.h"
	.file 39 "./lib/error.h"
	.file 40 "./lib/xstrtol.h"
	.file 41 "./lib/hash.h"
	.file 42 "/usr/include/x86_64-linux-gnu/sys/inotify.h"
	.file 43 "/usr/include/x86_64-linux-gnu/bits/statfs.h"
	.file 44 "./lib/xbinary-io.h"
	.file 45 "./lib/binary-io.h"
	.file 46 "/usr/include/x86_64-linux-gnu/bits/stdio.h"
	.file 47 "/usr/include/libintl.h"
	.file 48 "./lib/dirname.h"
	.file 49 "./lib/basename-lgpl.h"
	.file 50 "/usr/include/x86_64-linux-gnu/bits/select2.h"
	.file 51 "/usr/include/stdlib.h"
	.file 52 "/usr/include/string.h"
	.file 53 "./lib/safe-read.h"
	.file 54 "./lib/fcntl.h"
	.file 55 "./lib/xnanosleep.h"
	.file 56 "./lib/posixver.h"
	.file 57 "./lib/xstrtod.h"
	.file 58 "./lib/xdectoint.h"
	.file 59 "/usr/include/assert.h"
	.file 60 "./lib/fcntl-safer.h"
	.file 61 "/usr/include/locale.h"
	.file 62 "./lib/inttostr.h"
	.file 63 "/usr/include/x86_64-linux-gnu/sys/statfs.h"
	.file 64 "<built-in>"
	.section	.note.GNU-stack,"",@progbits
	.section	.note.gnu.property,"a"
	.align 8
	.long	 1f - 0f
	.long	 4f - 1f
	.long	 5
0:
	.string	 "GNU"
1:
	.align 8
	.long	 0xc0000002
	.long	 3f - 2f
2:
	.long	 0x3
3:
	.align 8
4:
