	.file	"tee.c"
	.text
.Ltext0:
	.section	.rodata.str1.1,"aMS",@progbits,1
.LC0:
	.string	"a"
.LC1:
	.string	"w"
.LC2:
	.string	"standard output"
.LC3:
	.string	"%s"
.LC4:
	.string	"read error"
	.text
	.p2align 4
	.type	tee_files, @function
tee_files:
.LVL0:
.LFB141:
	.file 1 "src/tee.c"
	.loc 1 185 1 view -0
	.cfi_startproc
	.loc 1 185 1 is_stmt 0 view .LVU1
	pushq	%r15
	.cfi_def_cfa_offset 16
	.cfi_offset 15, -16
	pushq	%r14
	.cfi_def_cfa_offset 24
	.cfi_offset 14, -24
	pushq	%r13
	.cfi_def_cfa_offset 32
	.cfi_offset 13, -32
	pushq	%r12
	.cfi_def_cfa_offset 40
	.cfi_offset 12, -40
	pushq	%rbp
	.cfi_def_cfa_offset 48
	.cfi_offset 6, -48
	pushq	%rbx
	.cfi_def_cfa_offset 56
	.cfi_offset 3, -56
	subq	$4096, %rsp
	.cfi_def_cfa_offset 4152
	orq	$0, (%rsp)
	subq	$4096, %rsp
	.cfi_def_cfa_offset 8248
	orq	$0, (%rsp)
	subq	$72, %rsp
	.cfi_def_cfa_offset 8320
	.loc 1 195 6 view .LVU2
	leaq	.LC0(%rip), %r13
	.loc 1 185 1 view .LVU3
	movl	%edi, 20(%rsp)
	movl	%edi, %ebx
	.loc 1 199 3 view .LVU4
	movq	stdin(%rip), %rdi
.LVL1:
	.loc 1 185 1 view .LVU5
	movq	%rsi, 40(%rsp)
	.loc 1 199 3 view .LVU6
	movl	$2, %esi
.LVL2:
	.loc 1 185 1 view .LVU7
	movq	%fs:40, %rax
	movq	%rax, 8248(%rsp)
	xorl	%eax, %eax
	.loc 1 186 3 is_stmt 1 view .LVU8
.LVL3:
	.loc 1 187 3 view .LVU9
	.loc 1 188 3 view .LVU10
	.loc 1 189 3 view .LVU11
	.loc 1 190 3 view .LVU12
	.loc 1 191 3 view .LVU13
	.loc 1 192 3 view .LVU14
	.loc 1 195 6 is_stmt 0 view .LVU15
	cmpb	$0, append(%rip)
	leaq	.LC1(%rip), %rax
	cmove	%rax, %r13
.LVL4:
	.loc 1 197 3 is_stmt 1 view .LVU16
	.file 2 "./lib/xbinary-io.h"
	.loc 2 42 3 view .LVU17
	.file 3 "./lib/binary-io.h"
	.loc 3 68 3 view .LVU18
	.loc 3 52 3 view .LVU19
	.loc 1 198 3 view .LVU20
	.loc 2 42 3 view .LVU21
	.loc 3 68 3 view .LVU22
	.loc 3 52 3 view .LVU23
	.loc 1 199 3 view .LVU24
	call	fadvise@PLT
.LVL5:
	.loc 1 204 3 view .LVU25
	.loc 1 204 34 is_stmt 0 view .LVU26
	leal	1(%rbx), %edi
	.loc 1 204 17 view .LVU27
	movslq	%edi, %rdi
.LVL6:
.LBB44:
.LBI44:
	.file 4 "./lib/xalloc.h"
	.loc 4 99 1 is_stmt 1 view .LVU28
.LBB45:
	.loc 4 101 3 view .LVU29
	.loc 4 101 7 is_stmt 0 view .LVU30
	movq	%rdi, %rax
	shrq	$61, %rax
	setne	%al
	salq	$3, %rdi
.LVL7:
	.loc 4 101 7 view .LVU31
	js	.L59
	movzbl	%al, %eax
	.loc 4 101 6 view .LVU32
	testq	%rax, %rax
	jne	.L59
	.loc 4 103 3 is_stmt 1 view .LVU33
	.loc 4 103 10 is_stmt 0 view .LVU34
	call	xmalloc@PLT
.LVL8:
.LBE45:
.LBE44:
	.loc 1 205 8 view .LVU35
	movq	40(%rsp), %rbx
.LVL9:
	.loc 1 207 24 view .LVU36
	movl	$5, %edx
	xorl	%edi, %edi
.LBB48:
.LBB46:
	.loc 4 103 10 view .LVU37
	movq	%rax, 24(%rsp)
.LVL10:
	.loc 4 103 10 view .LVU38
	movq	%rax, %r14
.LVL11:
	.loc 4 103 10 view .LVU39
.LBE46:
.LBE48:
	.loc 1 205 3 is_stmt 1 view .LVU40
	.loc 1 207 24 is_stmt 0 view .LVU41
	leaq	.LC2(%rip), %rsi
	.loc 1 205 8 view .LVU42
	leaq	-8(%rbx), %rax
.LVL12:
	.loc 1 205 8 view .LVU43
	movq	%rax, 32(%rsp)
.LVL13:
	.loc 1 206 3 is_stmt 1 view .LVU44
	.loc 1 206 18 is_stmt 0 view .LVU45
	movq	stdout(%rip), %rax
.LVL14:
	.loc 1 206 18 view .LVU46
	movq	%rax, (%r14)
	.loc 1 207 3 is_stmt 1 view .LVU47
	.loc 1 207 24 is_stmt 0 view .LVU48
	call	dcgettext@PLT
.LVL15:
	.file 5 "src/system.h"
	.loc 5 700 3 is_stmt 1 view .LVU49
	.loc 1 208 3 is_stmt 0 view .LVU50
	movq	stdout(%rip), %rdi
	xorl	%ecx, %ecx
	xorl	%esi, %esi
	.loc 1 207 12 view .LVU51
	movq	%rax, -8(%rbx)
	.loc 1 208 3 is_stmt 1 view .LVU52
	movl	$2, %edx
	call	setvbuf@PLT
.LVL16:
	.loc 1 209 3 view .LVU53
	.loc 1 211 3 view .LVU54
	.loc 1 211 15 view .LVU55
	.loc 1 211 3 is_stmt 0 view .LVU56
	movl	20(%rsp), %eax
	testl	%eax, %eax
	jle	.L31
	subl	$1, %eax
	movq	%rbx, %rbp
	leaq	8(%r14), %r12
	.loc 1 191 8 view .LVU57
	movb	$1, 16(%rsp)
	leaq	8(%rbx,%rax,8), %r14
.LVL17:
	.loc 1 217 11 view .LVU58
	leaq	.LC3(%rip), %r15
	.loc 1 209 12 view .LVU59
	movl	$1, %ebx
	jmp	.L10
.LVL18:
	.p2align 4,,10
	.p2align 3
.L8:
	.loc 1 224 11 is_stmt 1 view .LVU60
	xorl	%ecx, %ecx
	movl	$2, %edx
	xorl	%esi, %esi
	addq	$8, %rbp
	call	setvbuf@PLT
.LVL19:
	.loc 1 225 11 view .LVU61
	.loc 1 225 20 is_stmt 0 view .LVU62
	addq	$1, %rbx
.LVL20:
	.loc 1 211 28 is_stmt 1 view .LVU63
	.loc 1 211 15 view .LVU64
	addq	$8, %r12
	.loc 1 211 3 is_stmt 0 view .LVU65
	cmpq	%rbp, %r14
	je	.L64
.LVL21:
.L10:
	.loc 1 214 7 is_stmt 1 view .LVU66
	.loc 1 214 24 is_stmt 0 view .LVU67
	movq	0(%rbp), %rdi
	movq	%r13, %rsi
	call	fopen_safer@PLT
.LVL22:
	.loc 1 214 22 view .LVU68
	movq	%rax, (%r12)
	.loc 1 215 7 is_stmt 1 view .LVU69
	.loc 1 214 24 is_stmt 0 view .LVU70
	movq	%rax, %rdi
	.loc 1 215 10 view .LVU71
	testq	%rax, %rax
	jne	.L8
	.loc 1 217 11 is_stmt 1 view .LVU72
	movq	0(%rbp), %rdx
	movl	$3, %esi
	call	quotearg_n_style_colon@PLT
.LVL23:
	movq	%rax, 8(%rsp)
	.loc 1 219 18 is_stmt 0 view .LVU73
	call	__errno_location@PLT
.LVL24:
	.loc 1 217 11 view .LVU74
	xorl	%edi, %edi
	movq	8(%rsp), %rcx
	movq	%r15, %rdx
	.loc 1 219 18 view .LVU75
	movq	%rax, %r8
	.loc 1 218 18 view .LVU76
	movl	output_error(%rip), %eax
	.loc 1 217 11 view .LVU77
	movl	(%r8), %esi
	.loc 1 218 18 view .LVU78
	subl	$3, %eax
	.loc 1 217 11 view .LVU79
	cmpl	$1, %eax
	setbe	%dil
	xorl	%eax, %eax
	addq	$8, %rbp
	addq	$8, %r12
	call	error@PLT
.LVL25:
	.loc 1 220 11 is_stmt 1 view .LVU80
	.loc 1 220 14 is_stmt 0 view .LVU81
	movb	$0, 16(%rsp)
.LVL26:
	.loc 1 211 28 is_stmt 1 view .LVU82
	.loc 1 211 15 view .LVU83
	.loc 1 211 3 is_stmt 0 view .LVU84
	cmpq	%rbp, %r14
	jne	.L10
.L64:
	.loc 1 229 9 is_stmt 1 view .LVU85
	testq	%rbx, %rbx
	je	.L11
.LVL27:
.L7:
	.loc 1 229 9 is_stmt 0 view .LVU86
	movl	20(%rsp), %eax
	movq	40(%rsp), %rcx
	leaq	48(%rsp), %r13
.LVL28:
	.loc 1 229 9 view .LVU87
	leaq	(%rcx,%rax,8), %rax
	movq	%rax, 8(%rsp)
	.p2align 4,,10
	.p2align 3
.L23:
.LVL29:
	.loc 1 231 7 is_stmt 1 view .LVU88
.LBB49:
.LBI49:
	.file 6 "/usr/include/x86_64-linux-gnu/bits/unistd.h"
	.loc 6 34 1 view .LVU89
.LBB50:
	.loc 6 36 3 view .LVU90
	.loc 6 38 7 view .LVU91
	.loc 6 41 7 view .LVU92
	.loc 6 44 3 view .LVU93
	.loc 6 44 10 is_stmt 0 view .LVU94
	movl	$8192, %edx
	movq	%r13, %rsi
	xorl	%edi, %edi
	call	read@PLT
.LVL30:
	movq	%rax, %rbp
.LVL31:
	.loc 6 44 10 view .LVU95
.LBE50:
.LBE49:
	.loc 1 232 7 is_stmt 1 view .LVU96
	.loc 1 232 10 is_stmt 0 view .LVU97
	testq	%rax, %rax
	jns	.L12
	.loc 1 232 29 discriminator 1 view .LVU98
	call	__errno_location@PLT
.LVL32:
	.loc 1 232 26 discriminator 1 view .LVU99
	cmpl	$4, (%rax)
	je	.L13
.L14:
	.loc 1 261 3 is_stmt 1 view .LVU100
	.loc 1 261 6 is_stmt 0 view .LVU101
	cmpq	$-1, %rbp
	je	.L65
.LVL33:
.L15:
	.loc 1 268 15 is_stmt 1 discriminator 1 view .LVU102
	.loc 1 268 3 is_stmt 0 discriminator 1 view .LVU103
	movl	20(%rsp), %eax
	testl	%eax, %eax
	jle	.L24
.LVL34:
.L11:
	.loc 1 271 9 view .LVU104
	movq	24(%rsp), %r12
	movl	20(%rsp), %r13d
	.loc 1 264 10 view .LVU105
	movl	$1, %ebx
.LVL35:
	.loc 1 271 9 view .LVU106
	leaq	.LC3(%rip), %rbp
	movq	40(%rsp), %r14
	jmp	.L26
.LVL36:
	.p2align 4,,10
	.p2align 3
.L25:
	.loc 1 268 28 is_stmt 1 discriminator 2 view .LVU107
	.loc 1 268 15 discriminator 2 view .LVU108
	addq	$1, %rbx
.LVL37:
	.loc 1 268 3 is_stmt 0 discriminator 2 view .LVU109
	cmpl	%ebx, %r13d
	jl	.L24
.LVL38:
.L26:
	.loc 1 269 5 is_stmt 1 view .LVU110
	.loc 1 269 20 is_stmt 0 view .LVU111
	movq	(%r12,%rbx,8), %rdi
	.loc 1 269 8 view .LVU112
	testq	%rdi, %rdi
	je	.L25
	.loc 1 269 27 discriminator 1 view .LVU113
	call	rpl_fclose@PLT
.LVL39:
	.loc 1 269 24 discriminator 1 view .LVU114
	testl	%eax, %eax
	je	.L25
	.loc 1 271 9 is_stmt 1 view .LVU115
	movq	-8(%r14,%rbx,8), %rdx
	movl	$3, %esi
	xorl	%edi, %edi
	addq	$1, %rbx
.LVL40:
	.loc 1 271 9 is_stmt 0 view .LVU116
	call	quotearg_n_style_colon@PLT
.LVL41:
	movq	%rax, %r15
	.loc 1 271 19 view .LVU117
	call	__errno_location@PLT
.LVL42:
	.loc 1 271 9 view .LVU118
	movq	%r15, %rcx
	movq	%rbp, %rdx
	xorl	%edi, %edi
	movl	(%rax), %esi
	xorl	%eax, %eax
	call	error@PLT
.LVL43:
	.loc 1 272 9 is_stmt 1 view .LVU119
	.loc 1 272 12 is_stmt 0 view .LVU120
	movb	$0, 16(%rsp)
.LVL44:
	.loc 1 268 28 is_stmt 1 view .LVU121
	.loc 1 268 15 view .LVU122
	.loc 1 268 3 is_stmt 0 view .LVU123
	cmpl	%ebx, %r13d
	jge	.L26
	.p2align 4,,10
	.p2align 3
.L24:
	.loc 1 275 3 is_stmt 1 view .LVU124
	movq	24(%rsp), %rdi
	call	free@PLT
.LVL45:
	.loc 1 277 3 view .LVU125
	.loc 1 278 1 is_stmt 0 view .LVU126
	movq	8248(%rsp), %rax
	xorq	%fs:40, %rax
	jne	.L66
	movzbl	16(%rsp), %eax
	addq	$8264, %rsp
	.cfi_remember_state
	.cfi_def_cfa_offset 56
	popq	%rbx
	.cfi_def_cfa_offset 48
	popq	%rbp
	.cfi_def_cfa_offset 40
	popq	%r12
	.cfi_def_cfa_offset 32
	popq	%r13
	.cfi_def_cfa_offset 24
	popq	%r14
	.cfi_def_cfa_offset 16
	popq	%r15
	.cfi_def_cfa_offset 8
	ret
.LVL46:
	.p2align 4,,10
	.p2align 3
.L13:
	.cfi_restore_state
	.loc 1 229 9 is_stmt 1 view .LVU127
	testq	%rbx, %rbx
	jne	.L23
	.loc 1 229 9 is_stmt 0 view .LVU128
	jmp	.L14
.LVL47:
	.p2align 4,,10
	.p2align 3
.L12:
	.loc 1 234 7 is_stmt 1 view .LVU129
	.loc 1 234 10 is_stmt 0 view .LVU130
	je	.L15
.LVL48:
	.loc 1 239 19 is_stmt 1 view .LVU131
	.loc 1 239 7 is_stmt 0 view .LVU132
	movl	20(%rsp), %edx
	testl	%edx, %edx
	js	.L13
	movq	24(%rsp), %r15
	movq	32(%rsp), %r14
	jmp	.L22
.LVL49:
	.p2align 4,,10
	.p2align 3
.L17:
.LBB51:
	.loc 1 246 13 is_stmt 1 view .LVU133
	.loc 1 246 16 is_stmt 0 view .LVU134
	cmpq	%rax, %r12
	jne	.L20
	.loc 1 247 15 view .LVU135
	movq	%r12, %rdi
	movl	%r9d, 16(%rsp)
.LVL50:
	.loc 1 247 15 is_stmt 1 view .LVU136
	call	clearerr_unlocked@PLT
.LVL51:
	.loc 1 248 13 view .LVU137
	movl	16(%rsp), %r9d
.LVL52:
.L20:
	.loc 1 250 17 is_stmt 0 view .LVU138
	movq	(%r14), %rdx
	xorl	%edi, %edi
	movl	$3, %esi
	movl	%r9d, 16(%rsp)
	.loc 1 250 17 is_stmt 1 view .LVU139
	call	quotearg_n_style_colon@PLT
.LVL53:
	movl	16(%rsp), %r9d
	xorl	%edi, %edi
	leaq	.LC3(%rip), %rdx
	movq	%rax, %rcx
	.loc 1 251 24 is_stmt 0 view .LVU140
	movl	output_error(%rip), %eax
	.loc 1 250 17 view .LVU141
	movl	%r9d, %esi
	.loc 1 251 24 view .LVU142
	subl	$3, %eax
	.loc 1 250 17 view .LVU143
	cmpl	$1, %eax
	setbe	%dil
	xorl	%eax, %eax
	call	error@PLT
.LVL54:
	.loc 1 254 13 is_stmt 1 view .LVU144
	.loc 1 254 28 is_stmt 0 view .LVU145
	movq	$0, (%r15)
	.loc 1 255 13 is_stmt 1 view .LVU146
	.loc 1 256 18 is_stmt 0 view .LVU147
	movb	$0, 16(%rsp)
.LVL55:
.L21:
	.loc 1 257 13 is_stmt 1 view .LVU148
	.loc 1 257 22 is_stmt 0 view .LVU149
	subq	$1, %rbx
.LVL56:
.L16:
	.loc 1 257 22 view .LVU150
.LBE51:
	.loc 1 239 32 is_stmt 1 discriminator 2 view .LVU151
	.loc 1 239 19 discriminator 2 view .LVU152
	addq	$8, %r15
	addq	$8, %r14
	.loc 1 239 7 is_stmt 0 discriminator 2 view .LVU153
	cmpq	8(%rsp), %r14
	je	.L13
.L22:
	.loc 1 240 9 is_stmt 1 view .LVU154
	.loc 1 240 24 is_stmt 0 view .LVU155
	movq	(%r15), %r12
	.loc 1 240 12 view .LVU156
	testq	%r12, %r12
	je	.L16
	.loc 1 241 16 view .LVU157
	movq	%r12, %rcx
	movl	$1, %edx
	movq	%rbp, %rsi
	movq	%r13, %rdi
	call	fwrite_unlocked@PLT
.LVL57:
	.loc 1 241 13 view .LVU158
	cmpq	$1, %rax
	je	.L16
.LBB52:
	.loc 1 243 13 is_stmt 1 view .LVU159
	.loc 1 243 27 is_stmt 0 view .LVU160
	call	__errno_location@PLT
.LVL58:
	.loc 1 243 17 view .LVU161
	movl	(%rax), %r9d
.LVL59:
	.loc 1 244 13 is_stmt 1 view .LVU162
	movq	stdout(%rip), %rax
	.loc 1 244 40 is_stmt 0 view .LVU163
	cmpl	$32, %r9d
	jne	.L17
	.loc 1 245 43 discriminator 2 view .LVU164
	movl	output_error(%rip), %edx
	andl	$-3, %edx
	.loc 1 244 40 discriminator 2 view .LVU165
	cmpl	$1, %edx
	je	.L17
.LVL60:
	.loc 1 246 13 is_stmt 1 view .LVU166
	.loc 1 246 16 is_stmt 0 view .LVU167
	cmpq	%rax, %r12
	je	.L67
.LVL61:
.L19:
	.loc 1 254 13 is_stmt 1 view .LVU168
	.loc 1 254 28 is_stmt 0 view .LVU169
	movq	$0, (%r15)
	.loc 1 255 13 is_stmt 1 view .LVU170
	jmp	.L21
.LVL62:
.L65:
	.loc 1 255 13 is_stmt 0 view .LVU171
.LBE52:
	.loc 1 263 7 is_stmt 1 view .LVU172
	.loc 1 263 24 is_stmt 0 view .LVU173
	movl	$5, %edx
	leaq	.LC4(%rip), %rsi
	xorl	%edi, %edi
	call	dcgettext@PLT
.LVL63:
	movq	%rax, %r12
	.loc 1 263 17 view .LVU174
	call	__errno_location@PLT
.LVL64:
	.loc 1 263 7 view .LVU175
	movq	%r12, %rdx
	xorl	%edi, %edi
	movl	(%rax), %esi
	xorl	%eax, %eax
	call	error@PLT
.LVL65:
	.loc 1 264 7 is_stmt 1 view .LVU176
	.loc 1 264 10 is_stmt 0 view .LVU177
	movb	$0, 16(%rsp)
	jmp	.L15
.LVL66:
.L31:
	.loc 1 191 8 view .LVU178
	movb	$1, 16(%rsp)
	.loc 1 209 12 view .LVU179
	movl	$1, %ebx
	jmp	.L7
.LVL67:
.L67:
.LBB53:
	.loc 1 247 15 is_stmt 1 view .LVU180
	movq	%r12, %rdi
	call	clearerr_unlocked@PLT
.LVL68:
	.loc 1 248 13 view .LVU181
	jmp	.L19
.LVL69:
.L59:
	.loc 1 248 13 is_stmt 0 view .LVU182
.LBE53:
.LBB54:
.LBB47:
	.loc 4 102 5 is_stmt 1 view .LVU183
	call	xalloc_die@PLT
.LVL70:
.L66:
	.loc 4 102 5 is_stmt 0 view .LVU184
.LBE47:
.LBE54:
	.loc 1 278 1 view .LVU185
	call	__stack_chk_fail@PLT
.LVL71:
	.cfi_endproc
.LFE141:
	.size	tee_files, .-tee_files
	.section	.rodata.str1.1
.LC5:
	.string	"tee"
.LC6:
	.string	" invocation"
.LC7:
	.string	""
	.section	.rodata.str1.8,"aMS",@progbits,1
	.align 8
.LC8:
	.string	"Try '%s --help' for more information.\n"
	.align 8
.LC9:
	.string	"Usage: %s [OPTION]... [FILE]...\n"
	.align 8
.LC10:
	.string	"Copy standard input to each FILE, and also to standard output.\n\n  -a, --append              append to the given FILEs, do not overwrite\n  -i, --ignore-interrupts   ignore interrupt signals\n"
	.align 8
.LC11:
	.string	"  -p                        diagnose errors writing to non pipes\n      --output-error[=MODE]   set behavior on write error.  See MODE below\n"
	.align 8
.LC12:
	.string	"      --help     display this help and exit\n"
	.align 8
.LC13:
	.string	"      --version  output version information and exit\n"
	.align 8
.LC14:
	.ascii	"\nMODE determines behavior with write errors on the outputs:"
	.ascii	"\n  'warn'         diagnose errors writing to any output\n  "
	.ascii	"'warn-nopipe'  diagnose errors writing to any output not a p"
	.ascii	"ipe\n  'exit'         exit on error writing to any output\n "
	.ascii	" 'exit-nopipe'  exit"
	.string	" on error writing to any output not a pipe\nThe default MODE for the -p option is 'warn-nopipe'.\nThe default operation when --output-error is not specified, is to\nexit immediately on error writing to a pipe, and diagnose errors\nwriting to non pipe outputs.\n"
	.section	.rodata.str1.1
.LC15:
	.string	"["
.LC16:
	.string	"test invocation"
.LC17:
	.string	"coreutils"
.LC18:
	.string	"Multi-call invocation"
.LC19:
	.string	"sha224sum"
.LC20:
	.string	"sha2 utilities"
.LC21:
	.string	"sha256sum"
.LC22:
	.string	"sha384sum"
.LC23:
	.string	"sha512sum"
.LC24:
	.string	"\n%s online help: <%s>\n"
	.section	.rodata.str1.8
	.align 8
.LC25:
	.string	"https://www.gnu.org/software/coreutils/"
	.section	.rodata.str1.1
.LC26:
	.string	"GNU coreutils"
.LC27:
	.string	"en_"
	.section	.rodata.str1.8
	.align 8
.LC28:
	.string	"Report any translation bugs to <https://translationproject.org/team/>\n"
	.section	.rodata.str1.1
.LC29:
	.string	"Full documentation <%s%s>\n"
	.section	.rodata.str1.8
	.align 8
.LC30:
	.string	"or available locally via: info '(coreutils) %s%s'\n"
	.text
	.p2align 4
	.globl	usage
	.type	usage, @function
usage:
.LVL72:
.LFB139:
	.loc 1 82 1 is_stmt 1 view -0
	.cfi_startproc
	.loc 1 82 1 is_stmt 0 view .LVU187
	endbr64
	pushq	%r13
	.cfi_def_cfa_offset 16
	.cfi_offset 13, -16
	.loc 1 84 5 view .LVU188
	movl	$5, %edx
	.loc 1 82 1 view .LVU189
	pushq	%r12
	.cfi_def_cfa_offset 24
	.cfi_offset 12, -24
	pushq	%rbp
	.cfi_def_cfa_offset 32
	.cfi_offset 6, -32
	movl	%edi, %ebp
	pushq	%rbx
	.cfi_def_cfa_offset 40
	.cfi_offset 3, -40
	subq	$136, %rsp
	.cfi_def_cfa_offset 176
	movq	program_name(%rip), %r12
	.loc 1 82 1 view .LVU190
	movq	%fs:40, %rax
	movq	%rax, 120(%rsp)
	xorl	%eax, %eax
	.loc 1 83 3 is_stmt 1 view .LVU191
	.loc 1 83 6 is_stmt 0 view .LVU192
	testl	%edi, %edi
	je	.L69
	.loc 1 84 5 is_stmt 1 view .LVU193
	.loc 1 84 5 view .LVU194
	leaq	.LC8(%rip), %rsi
	xorl	%edi, %edi
.LVL73:
	.loc 1 84 5 is_stmt 0 view .LVU195
	call	dcgettext@PLT
.LVL74:
.LBB67:
.LBB68:
	.file 7 "/usr/include/x86_64-linux-gnu/bits/stdio2.h"
	.loc 7 100 10 view .LVU196
	movq	stderr(%rip), %rdi
	movq	%r12, %rcx
	movl	$1, %esi
.LBE68:
.LBE67:
	.loc 1 84 5 view .LVU197
	movq	%rax, %rdx
.LVL75:
.LBB70:
.LBI67:
	.loc 7 98 1 is_stmt 1 view .LVU198
.LBB69:
	.loc 7 100 3 view .LVU199
	.loc 7 100 10 is_stmt 0 view .LVU200
	xorl	%eax, %eax
.LVL76:
	.loc 7 100 10 view .LVU201
	call	__fprintf_chk@PLT
.LVL77:
.L70:
	.loc 7 100 10 view .LVU202
.LBE69:
.LBE70:
	.loc 1 114 3 is_stmt 1 view .LVU203
	movl	%ebp, %edi
	call	exit@PLT
.LVL78:
.L69:
	.loc 1 87 7 view .LVU204
	.loc 1 87 15 is_stmt 0 view .LVU205
	leaq	.LC9(%rip), %rsi
	xorl	%edi, %edi
.LVL79:
.LBB71:
.LBB72:
	.loc 5 636 67 view .LVU206
	leaq	.LC21(%rip), %rbx
.LBE72:
.LBE71:
	.loc 1 87 15 view .LVU207
	call	dcgettext@PLT
.LVL80:
.LBB98:
.LBB99:
	.loc 7 107 10 view .LVU208
	movq	%r12, %rdx
	movl	$1, %edi
.LBE99:
.LBE98:
	.loc 1 87 15 view .LVU209
	movq	%rax, %rsi
.LVL81:
.LBB101:
.LBI98:
	.loc 7 105 1 is_stmt 1 view .LVU210
.LBB100:
	.loc 7 107 3 view .LVU211
	.loc 7 107 10 is_stmt 0 view .LVU212
	xorl	%eax, %eax
.LVL82:
	.loc 7 107 10 view .LVU213
	call	__printf_chk@PLT
.LVL83:
	.loc 7 107 10 view .LVU214
.LBE100:
.LBE101:
	.loc 1 88 7 is_stmt 1 view .LVU215
	movq	stdout(%rip), %r12
	movl	$5, %edx
	xorl	%edi, %edi
	leaq	.LC10(%rip), %rsi
	call	dcgettext@PLT
.LVL84:
	movq	%r12, %rsi
	movq	%rax, %rdi
	call	fputs_unlocked@PLT
.LVL85:
	.loc 1 94 7 view .LVU216
	movq	stdout(%rip), %r12
	movl	$5, %edx
	xorl	%edi, %edi
	leaq	.LC11(%rip), %rsi
	call	dcgettext@PLT
.LVL86:
	movq	%r12, %rsi
	movq	%rax, %rdi
	call	fputs_unlocked@PLT
.LVL87:
	.loc 1 98 7 view .LVU217
	movq	stdout(%rip), %r12
	movl	$5, %edx
	xorl	%edi, %edi
	leaq	.LC12(%rip), %rsi
	call	dcgettext@PLT
.LVL88:
	movq	%r12, %rsi
	movq	%rax, %rdi
	call	fputs_unlocked@PLT
.LVL89:
	.loc 1 99 7 view .LVU218
	movq	stdout(%rip), %r12
	movl	$5, %edx
	xorl	%edi, %edi
	leaq	.LC13(%rip), %rsi
	call	dcgettext@PLT
.LVL90:
	movq	%r12, %rsi
	movq	%rax, %rdi
	call	fputs_unlocked@PLT
.LVL91:
	.loc 1 100 7 view .LVU219
	movq	stdout(%rip), %r12
	movl	$5, %edx
	xorl	%edi, %edi
	leaq	.LC14(%rip), %rsi
	call	dcgettext@PLT
.LVL92:
	movq	%r12, %rsi
	movq	%rax, %rdi
	call	fputs_unlocked@PLT
.LVL93:
	.loc 1 112 7 view .LVU220
.LBB102:
.LBI71:
	.loc 5 634 1 view .LVU221
.LBB97:
	.loc 5 636 3 view .LVU222
	.loc 5 636 67 is_stmt 0 view .LVU223
	leaq	.LC15(%rip), %rax
	movq	%rbx, 48(%rsp)
	leaq	.LC22(%rip), %rbx
	movq	%rax, (%rsp)
	leaq	.LC16(%rip), %rax
	movq	%rax, 8(%rsp)
	leaq	.LC17(%rip), %rax
	movq	%rax, 16(%rsp)
	leaq	.LC18(%rip), %rax
	movq	%rax, 24(%rsp)
	leaq	.LC19(%rip), %rax
	movq	$0, 96(%rsp)
	movq	$0, 104(%rsp)
	.loc 5 646 3 is_stmt 1 view .LVU224
.LVL94:
	.loc 5 647 3 view .LVU225
	.loc 5 649 3 view .LVU226
	.loc 5 649 9 view .LVU227
	.loc 5 636 67 is_stmt 0 view .LVU228
	movq	%rax, 32(%rsp)
	leaq	.LC20(%rip), %rax
	movq	%rbx, 64(%rsp)
	leaq	.LC23(%rip), %rbx
	movq	%rax, 40(%rsp)
	movq	%rax, 56(%rsp)
	movq	%rax, 72(%rsp)
	movq	%rbx, 80(%rsp)
	leaq	.LC5(%rip), %rbx
	movq	%rax, 88(%rsp)
	.loc 5 647 25 view .LVU229
	movq	%rsp, %rax
.LVL95:
	.p2align 4,,10
	.p2align 3
.L72:
	.loc 5 650 5 is_stmt 1 view .LVU230
	.loc 5 649 18 is_stmt 0 view .LVU231
	movq	16(%rax), %rdi
	.loc 5 650 13 view .LVU232
	addq	$16, %rax
.LVL96:
	.loc 5 649 9 is_stmt 1 view .LVU233
	testq	%rdi, %rdi
	je	.L71
	.loc 5 649 33 is_stmt 0 view .LVU234
	movl	$4, %ecx
	movq	%rbx, %rsi
	repz cmpsb
	seta	%dl
	sbbb	$0, %dl
	.loc 5 649 28 view .LVU235
	testb	%dl, %dl
	jne	.L72
.L71:
	.loc 5 652 3 is_stmt 1 view .LVU236
	.loc 5 652 15 is_stmt 0 view .LVU237
	movq	8(%rax), %r12
	.loc 5 655 11 view .LVU238
	movl	$5, %edx
	leaq	.LC24(%rip), %rsi
	xorl	%edi, %edi
	.loc 5 652 6 view .LVU239
	testq	%r12, %r12
	je	.L73
	.loc 5 653 5 is_stmt 1 view .LVU240
.LVL97:
	.loc 5 655 3 view .LVU241
	.loc 5 655 11 is_stmt 0 view .LVU242
	call	dcgettext@PLT
.LVL98:
.LBB73:
.LBB74:
	.loc 7 107 10 view .LVU243
	leaq	.LC25(%rip), %rcx
	movl	$1, %edi
	leaq	.LC26(%rip), %rdx
.LBE74:
.LBE73:
	.loc 5 655 11 view .LVU244
	movq	%rax, %rsi
.LVL99:
.LBB78:
.LBI73:
	.loc 7 105 1 is_stmt 1 view .LVU245
.LBB75:
	.loc 7 107 3 view .LVU246
	.loc 7 107 10 is_stmt 0 view .LVU247
	xorl	%eax, %eax
.LVL100:
	.loc 7 107 10 view .LVU248
	call	__printf_chk@PLT
.LVL101:
	.loc 7 107 10 view .LVU249
.LBE75:
.LBE78:
	.loc 5 659 3 is_stmt 1 view .LVU250
	.loc 5 659 29 is_stmt 0 view .LVU251
	movl	$5, %edi
	xorl	%esi, %esi
	call	setlocale@PLT
.LVL102:
	movq	%rax, %rdi
.LVL103:
	.loc 5 660 3 is_stmt 1 view .LVU252
	.loc 5 660 6 is_stmt 0 view .LVU253
	testq	%rax, %rax
	je	.L74
	.loc 5 660 22 view .LVU254
	movl	$3, %edx
	leaq	.LC27(%rip), %rsi
	call	strncmp@PLT
.LVL104:
	.loc 5 660 19 view .LVU255
	testl	%eax, %eax
	jne	.L77
.LVL105:
.L74:
	.loc 5 669 3 is_stmt 1 view .LVU256
	.loc 5 669 11 is_stmt 0 view .LVU257
	xorl	%edi, %edi
	movl	$5, %edx
	leaq	.LC29(%rip), %rsi
	call	dcgettext@PLT
.LVL106:
.LBB79:
.LBB80:
	.loc 7 107 10 view .LVU258
	leaq	.LC5(%rip), %rcx
	leaq	.LC25(%rip), %rdx
	movl	$1, %edi
.LBE80:
.LBE79:
	.loc 5 669 11 view .LVU259
	movq	%rax, %rsi
.LVL107:
.LBB86:
.LBI79:
	.loc 7 105 1 is_stmt 1 view .LVU260
.LBB81:
	.loc 7 107 3 view .LVU261
	.loc 7 107 10 is_stmt 0 view .LVU262
	xorl	%eax, %eax
.LVL108:
	.loc 7 107 10 view .LVU263
.LBE81:
.LBE86:
	.loc 5 671 3 view .LVU264
	leaq	.LC6(%rip), %r13
.LBB87:
.LBB82:
	.loc 7 107 10 view .LVU265
	call	__printf_chk@PLT
.LVL109:
	.loc 7 107 10 view .LVU266
.LBE82:
.LBE87:
	.loc 5 671 3 is_stmt 1 view .LVU267
	cmpq	%rbx, %r12
	leaq	.LC7(%rip), %rcx
	cmovne	%rcx, %r13
.L75:
	.loc 5 671 11 is_stmt 0 view .LVU268
	xorl	%edi, %edi
	leaq	.LC30(%rip), %rsi
	movl	$5, %edx
	call	dcgettext@PLT
.LVL110:
.LBB88:
.LBB89:
	.loc 7 107 10 view .LVU269
	movq	%r13, %rcx
	movq	%r12, %rdx
	movl	$1, %edi
.LBE89:
.LBE88:
	.loc 5 671 11 view .LVU270
	movq	%rax, %rsi
.LVL111:
.LBB91:
.LBI88:
	.loc 7 105 1 is_stmt 1 view .LVU271
.LBB90:
	.loc 7 107 3 view .LVU272
	.loc 7 107 10 is_stmt 0 view .LVU273
	xorl	%eax, %eax
.LVL112:
	.loc 7 107 10 view .LVU274
	call	__printf_chk@PLT
.LVL113:
	.loc 7 107 10 view .LVU275
.LBE90:
.LBE91:
	.loc 5 673 1 view .LVU276
	jmp	.L70
.LVL114:
.L73:
	.loc 5 655 3 is_stmt 1 view .LVU277
	.loc 5 655 11 is_stmt 0 view .LVU278
	call	dcgettext@PLT
.LVL115:
.LBB92:
.LBB76:
	.loc 7 107 10 view .LVU279
	leaq	.LC25(%rip), %rcx
	movl	$1, %edi
	leaq	.LC26(%rip), %rdx
.LBE76:
.LBE92:
	.loc 5 655 11 view .LVU280
	movq	%rax, %rsi
.LVL116:
.LBB93:
	.loc 7 105 1 is_stmt 1 view .LVU281
.LBB77:
	.loc 7 107 3 view .LVU282
	.loc 7 107 10 is_stmt 0 view .LVU283
	xorl	%eax, %eax
.LVL117:
	.loc 7 107 10 view .LVU284
	call	__printf_chk@PLT
.LVL118:
	.loc 7 107 10 view .LVU285
.LBE77:
.LBE93:
	.loc 5 659 3 is_stmt 1 view .LVU286
	.loc 5 659 29 is_stmt 0 view .LVU287
	movl	$5, %edi
	xorl	%esi, %esi
	call	setlocale@PLT
.LVL119:
	movq	%rax, %rdi
.LVL120:
	.loc 5 660 3 is_stmt 1 view .LVU288
	.loc 5 660 6 is_stmt 0 view .LVU289
	testq	%rax, %rax
	je	.L76
	.loc 5 660 22 view .LVU290
	movl	$3, %edx
	leaq	.LC27(%rip), %rsi
	call	strncmp@PLT
.LVL121:
	.loc 5 660 19 view .LVU291
	testl	%eax, %eax
	jne	.L95
.L76:
	.loc 5 669 3 is_stmt 1 view .LVU292
	.loc 5 669 11 is_stmt 0 view .LVU293
	movl	$5, %edx
	leaq	.LC29(%rip), %rsi
	xorl	%edi, %edi
	call	dcgettext@PLT
.LVL122:
.LBB94:
.LBB83:
	.loc 7 107 10 view .LVU294
	leaq	.LC5(%rip), %rcx
	leaq	.LC25(%rip), %rdx
	movl	$1, %edi
.LBE83:
.LBE94:
	.loc 5 669 11 view .LVU295
	movq	%rax, %rsi
.LVL123:
.LBB95:
	.loc 7 105 1 is_stmt 1 view .LVU296
.LBB84:
	.loc 7 107 3 view .LVU297
	.loc 7 107 10 is_stmt 0 view .LVU298
	xorl	%eax, %eax
.LVL124:
	.loc 7 107 10 view .LVU299
.LBE84:
.LBE95:
	.loc 5 646 15 view .LVU300
	leaq	.LC5(%rip), %r12
.LBB96:
.LBB85:
	.loc 7 107 10 view .LVU301
	call	__printf_chk@PLT
.LVL125:
	.loc 7 107 10 view .LVU302
.LBE85:
.LBE96:
	.loc 5 671 3 is_stmt 1 view .LVU303
	leaq	.LC6(%rip), %r13
	jmp	.L75
.L95:
	.loc 5 646 15 is_stmt 0 view .LVU304
	leaq	.LC5(%rip), %r12
.LVL126:
.L77:
	.loc 5 666 7 is_stmt 1 view .LVU305
	movq	stdout(%rip), %r13
	xorl	%edi, %edi
	movl	$5, %edx
	leaq	.LC28(%rip), %rsi
	call	dcgettext@PLT
.LVL127:
	movq	%rax, %rdi
	movq	%r13, %rsi
	call	fputs_unlocked@PLT
.LVL128:
	jmp	.L74
.LBE97:
.LBE102:
	.cfi_endproc
.LFE139:
	.size	usage, .-usage
	.section	.rodata.str1.1
.LC31:
	.string	"/usr/local/share/locale"
.LC32:
	.string	"--output-error"
.LC33:
	.string	"Richard M. Stallman"
.LC34:
	.string	"Mike Parker"
.LC35:
	.string	"David MacKenzie"
.LC36:
	.string	"aip"
.LC37:
	.string	"standard input"
	.section	.text.startup,"ax",@progbits
	.p2align 4
	.globl	main
	.type	main, @function
main:
.LVL129:
.LFB140:
	.loc 1 119 1 view -0
	.cfi_startproc
	.loc 1 119 1 is_stmt 0 view .LVU307
	endbr64
	.loc 1 120 3 is_stmt 1 view .LVU308
	.loc 1 121 3 view .LVU309
	.loc 1 123 33 view .LVU310
	.loc 1 124 3 view .LVU311
	.loc 1 119 1 is_stmt 0 view .LVU312
	pushq	%r12
	.cfi_def_cfa_offset 16
	.cfi_offset 12, -16
	.loc 1 134 18 view .LVU313
	leaq	long_options(%rip), %r12
	.loc 1 119 1 view .LVU314
	pushq	%rbp
	.cfi_def_cfa_offset 24
	.cfi_offset 6, -24
	movl	%edi, %ebp
	pushq	%rbx
	.cfi_def_cfa_offset 32
	.cfi_offset 3, -32
	.loc 1 124 3 view .LVU315
	movq	(%rsi), %rdi
.LVL130:
	.loc 1 119 1 view .LVU316
	movq	%rsi, %rbx
	.loc 1 124 3 view .LVU317
	call	set_program_name@PLT
.LVL131:
	.loc 1 125 3 is_stmt 1 view .LVU318
	leaq	.LC7(%rip), %rsi
	movl	$6, %edi
	call	setlocale@PLT
.LVL132:
	.loc 1 126 3 view .LVU319
	leaq	.LC31(%rip), %rsi
	leaq	.LC17(%rip), %rdi
	call	bindtextdomain@PLT
.LVL133:
	.loc 1 127 3 view .LVU320
	leaq	.LC17(%rip), %rdi
	call	textdomain@PLT
.LVL134:
	.loc 1 129 3 view .LVU321
	movq	close_stdout@GOTPCREL(%rip), %rdi
	call	atexit@PLT
.LVL135:
	.loc 1 131 3 view .LVU322
	.loc 1 131 10 is_stmt 0 view .LVU323
	movb	$0, append(%rip)
	.loc 1 132 3 is_stmt 1 view .LVU324
	.loc 1 132 21 is_stmt 0 view .LVU325
	movb	$0, ignore_interrupts(%rip)
	.loc 1 134 3 is_stmt 1 view .LVU326
.L97:
	.loc 1 134 9 view .LVU327
	.loc 1 134 18 is_stmt 0 view .LVU328
	xorl	%r8d, %r8d
	movq	%r12, %rcx
	leaq	.LC36(%rip), %rdx
	movq	%rbx, %rsi
	movl	%ebp, %edi
	call	getopt_long@PLT
.LVL136:
	.loc 1 134 9 view .LVU329
	cmpl	$-1, %eax
	je	.L112
	.loc 1 136 7 is_stmt 1 view .LVU330
	cmpl	$97, %eax
	je	.L98
	jle	.L113
	cmpl	$105, %eax
	jne	.L114
	.loc 1 143 11 view .LVU331
	.loc 1 143 29 is_stmt 0 view .LVU332
	movb	$1, ignore_interrupts(%rip)
	.loc 1 144 11 is_stmt 1 view .LVU333
	jmp	.L97
	.p2align 4,,10
	.p2align 3
.L113:
	.loc 1 136 7 is_stmt 0 view .LVU334
	cmpl	$-131, %eax
	jne	.L115
	.loc 1 154 9 is_stmt 1 view .LVU335
	.loc 1 154 30 view .LVU336
	.loc 1 156 9 view .LVU337
	leaq	.LC35(%rip), %rax
.LVL137:
	.loc 1 156 9 is_stmt 0 view .LVU338
	pushq	$0
	.cfi_remember_state
	.cfi_def_cfa_offset 40
	movq	stdout(%rip), %rdi
	leaq	.LC33(%rip), %r9
	pushq	%rax
	.cfi_def_cfa_offset 48
	movq	Version(%rip), %rcx
	xorl	%eax, %eax
	leaq	.LC34(%rip), %r8
	leaq	.LC26(%rip), %rdx
	leaq	.LC5(%rip), %rsi
	call	version_etc@PLT
.LVL138:
	.loc 1 156 9 is_stmt 1 view .LVU339
	xorl	%edi, %edi
	call	exit@PLT
.LVL139:
	.p2align 4,,10
	.p2align 3
.L114:
	.cfi_restore_state
	.loc 1 136 7 is_stmt 0 view .LVU340
	cmpl	$112, %eax
	jne	.L102
	.loc 1 147 11 is_stmt 1 view .LVU341
	.loc 1 147 15 is_stmt 0 view .LVU342
	movq	optarg(%rip), %rsi
	.loc 1 147 14 view .LVU343
	testq	%rsi, %rsi
	je	.L106
	.loc 1 148 13 is_stmt 1 view .LVU344
	.loc 1 148 28 is_stmt 0 view .LVU345
	movq	argmatch_die(%rip), %r9
	movl	$4, %r8d
	leaq	output_error_types(%rip), %rcx
	leaq	output_error_args(%rip), %rdx
	leaq	.LC32(%rip), %rdi
	call	__xargmatch_internal@PLT
.LVL140:
	.loc 1 148 28 view .LVU346
	movq	%rax, %r8
	leaq	output_error_types(%rip), %rax
	.loc 1 148 26 view .LVU347
	movl	(%rax,%r8,4), %eax
	movl	%eax, output_error(%rip)
	jmp	.L97
.LVL141:
.L115:
	.loc 1 136 7 view .LVU348
	cmpl	$-130, %eax
	jne	.L102
	.loc 1 154 9 is_stmt 1 view .LVU349
	xorl	%edi, %edi
	call	usage
.LVL142:
	.p2align 4,,10
	.p2align 3
.L98:
	.loc 1 139 11 view .LVU350
	.loc 1 139 18 is_stmt 0 view .LVU351
	movb	$1, append(%rip)
	.loc 1 140 11 is_stmt 1 view .LVU352
	jmp	.L97
.L106:
	.loc 1 151 13 view .LVU353
	.loc 1 151 26 is_stmt 0 view .LVU354
	movl	$2, output_error(%rip)
	jmp	.L97
.L112:
	.loc 1 163 3 is_stmt 1 view .LVU355
	.loc 1 163 6 is_stmt 0 view .LVU356
	cmpb	$0, ignore_interrupts(%rip)
	jne	.L116
.LVL143:
.L108:
	.loc 1 166 3 is_stmt 1 view .LVU357
	.loc 1 166 6 is_stmt 0 view .LVU358
	cmpl	$0, output_error(%rip)
	jne	.L117
.L109:
	.loc 1 172 3 is_stmt 1 view .LVU359
	.loc 1 172 39 is_stmt 0 view .LVU360
	movslq	optind(%rip), %rdx
	.loc 1 172 8 view .LVU361
	movl	%ebp, %edi
	subl	%edx, %edi
	leaq	(%rbx,%rdx,8), %rsi
	call	tee_files
.LVL144:
	.loc 1 173 7 view .LVU362
	xorl	%edi, %edi
	.loc 1 172 8 view .LVU363
	movl	%eax, %ebx
.LVL145:
	.loc 1 173 3 is_stmt 1 view .LVU364
	.loc 1 173 7 is_stmt 0 view .LVU365
	call	close@PLT
.LVL146:
	.loc 1 173 6 view .LVU366
	testl	%eax, %eax
	jne	.L118
	.loc 1 176 3 is_stmt 1 view .LVU367
	.loc 1 176 28 is_stmt 0 view .LVU368
	xorl	$1, %ebx
.LVL147:
	.loc 1 176 28 view .LVU369
	movzbl	%bl, %eax
	.loc 1 177 1 view .LVU370
	popq	%rbx
	.cfi_remember_state
	.cfi_def_cfa_offset 24
	popq	%rbp
	.cfi_def_cfa_offset 16
.LVL148:
	.loc 1 177 1 view .LVU371
	popq	%r12
	.cfi_def_cfa_offset 8
	ret
.LVL149:
.L116:
	.cfi_restore_state
	.loc 1 164 5 is_stmt 1 view .LVU372
	movl	$1, %esi
	movl	$2, %edi
	call	signal@PLT
.LVL150:
	.loc 1 164 5 is_stmt 0 view .LVU373
	jmp	.L108
.L117:
	.loc 1 167 5 is_stmt 1 view .LVU374
	movl	$1, %esi
	movl	$13, %edi
	call	signal@PLT
.LVL151:
	jmp	.L109
.LVL152:
.L102:
	.loc 1 156 9 view .LVU375
	.loc 1 156 57 view .LVU376
	.loc 1 159 11 view .LVU377
	movl	$1, %edi
	call	usage
.LVL153:
.L118:
.LBB103:
	.loc 1 174 5 view .LVU378
	movl	$5, %edx
	leaq	.LC37(%rip), %rsi
	xorl	%edi, %edi
	call	dcgettext@PLT
.LVL154:
	movq	%rax, %r12
	call	__errno_location@PLT
.LVL155:
	movq	%r12, %rcx
	movl	$1, %edi
	leaq	.LC3(%rip), %rdx
	movl	(%rax), %esi
	xorl	%eax, %eax
	call	error@PLT
.LVL156:
.LBE103:
	.cfi_endproc
.LFE140:
	.size	main, .-main
	.section	.rodata
	.align 16
	.type	output_error_types, @object
	.size	output_error_types, 16
output_error_types:
	.long	1
	.long	2
	.long	3
	.long	4
	.section	.rodata.str1.1
.LC38:
	.string	"warn"
.LC39:
	.string	"warn-nopipe"
.LC40:
	.string	"exit"
.LC41:
	.string	"exit-nopipe"
	.section	.data.rel.ro.local,"aw"
	.align 32
	.type	output_error_args, @object
	.size	output_error_args, 40
output_error_args:
	.quad	.LC38
	.quad	.LC39
	.quad	.LC40
	.quad	.LC41
	.quad	0
	.section	.rodata.str1.1
.LC42:
	.string	"append"
.LC43:
	.string	"ignore-interrupts"
.LC44:
	.string	"output-error"
.LC45:
	.string	"help"
.LC46:
	.string	"version"
	.section	.data.rel.ro.local
	.align 32
	.type	long_options, @object
	.size	long_options, 192
long_options:
	.quad	.LC42
	.long	0
	.zero	4
	.quad	0
	.long	97
	.zero	4
	.quad	.LC43
	.long	0
	.zero	4
	.quad	0
	.long	105
	.zero	4
	.quad	.LC44
	.long	2
	.zero	4
	.quad	0
	.long	112
	.zero	4
	.quad	.LC45
	.long	0
	.zero	4
	.quad	0
	.long	-130
	.zero	4
	.quad	.LC46
	.long	0
	.zero	4
	.quad	0
	.long	-131
	.zero	4
	.quad	0
	.long	0
	.zero	4
	.quad	0
	.long	0
	.zero	4
	.local	output_error
	.comm	output_error,4,4
	.local	ignore_interrupts
	.comm	ignore_interrupts,1,1
	.local	append
	.comm	append,1,1
	.text
.Letext0:
	.file 8 "/usr/include/x86_64-linux-gnu/bits/types.h"
	.file 9 "/usr/include/x86_64-linux-gnu/sys/types.h"
	.file 10 "/usr/include/x86_64-linux-gnu/bits/types/time_t.h"
	.file 11 "/usr/lib/gcc/x86_64-linux-gnu/9/include/stddef.h"
	.file 12 "/usr/include/signal.h"
	.file 13 "./lib/sys/select.h"
	.file 14 "/usr/include/x86_64-linux-gnu/bits/getopt_core.h"
	.file 15 "/usr/include/x86_64-linux-gnu/bits/getopt_ext.h"
	.file 16 "/usr/include/time.h"
	.file 17 "/usr/include/unistd.h"
	.file 18 "/usr/include/errno.h"
	.file 19 "src/version.h"
	.file 20 "./lib/exitfail.h"
	.file 21 "./lib/timespec.h"
	.file 22 "./lib/xalloc-oversized.h"
	.file 23 "/usr/include/x86_64-linux-gnu/bits/types/struct_FILE.h"
	.file 24 "/usr/include/x86_64-linux-gnu/bits/types/FILE.h"
	.file 25 "/usr/include/stdio.h"
	.file 26 "/usr/include/x86_64-linux-gnu/bits/sys_errlist.h"
	.file 27 "./lib/version-etc.h"
	.file 28 "./lib/progname.h"
	.file 29 "./lib/quotearg.h"
	.file 30 "./lib/quote.h"
	.file 31 "./lib/argmatch.h"
	.file 32 "./lib/error.h"
	.file 33 "./lib/fadvise.h"
	.file 34 "/usr/include/x86_64-linux-gnu/bits/stdio.h"
	.file 35 "/usr/include/libintl.h"
	.file 36 "./lib/stdio-safer.h"
	.file 37 "./lib/stdio.h"
	.file 38 "/usr/include/stdlib.h"
	.file 39 "/usr/include/locale.h"
	.file 40 "/usr/include/string.h"
	.section	.note.GNU-stack,"",@progbits
	.section	.note.gnu.property,"a"
	.align 8
	.long	 1f - 0f
	.long	 4f - 1f
	.long	 5
0:
	.string	 "GNU"
1:
	.align 8
	.long	 0xc0000002
	.long	 3f - 2f
2:
	.long	 0x3
3:
	.align 8
4:
