	.file	"test.c"
	.text
.Ltext0:
	.section	.rodata.str1.1,"aMS",@progbits,1
.LC0:
	.string	"-nt"
.LC1:
	.string	"-ot"
.LC2:
	.string	"-ef"
.LC3:
	.string	"-eq"
.LC4:
	.string	"-ne"
.LC5:
	.string	"-lt"
.LC6:
	.string	"-le"
.LC7:
	.string	"-gt"
.LC8:
	.string	"-ge"
	.text
	.p2align 4
	.type	binop, @function
binop:
.LVL0:
.LFB150:
	.file 1 "src/test.c"
	.loc 1 184 1 view -0
	.cfi_startproc
	.loc 1 185 3 view .LVU1
	.loc 1 184 1 is_stmt 0 view .LVU2
	pushq	%r12
	.cfi_def_cfa_offset 16
	.cfi_offset 12, -16
	pushq	%rbp
	.cfi_def_cfa_offset 24
	.cfi_offset 6, -24
	movq	%rdi, %rbp
	subq	$8, %rsp
	.cfi_def_cfa_offset 32
	.loc 1 185 12 view .LVU3
	cmpb	$61, (%rdi)
	jne	.L17
	.loc 1 189 30 view .LVU4
	cmpb	$0, 1(%rdi)
	movl	$1, %r12d
	jne	.L17
.LVL1:
.L1:
	.loc 1 190 1 view .LVU5
	addq	$8, %rsp
	.cfi_remember_state
	.cfi_def_cfa_offset 24
	movl	%r12d, %eax
	popq	%rbp
	.cfi_def_cfa_offset 16
	popq	%r12
	.cfi_def_cfa_offset 8
	ret
.LVL2:
	.p2align 4,,10
	.p2align 3
.L17:
	.cfi_restore_state
	.loc 1 185 34 view .LVU6
	movzbl	0(%rbp), %eax
	cmpl	$33, %eax
	je	.L34
.L18:
	.loc 1 185 56 discriminator 1 view .LVU7
	cmpl	$61, %eax
	je	.L35
.L19:
	.loc 1 186 12 discriminator 2 view .LVU8
	movl	$4, %ecx
	leaq	.LC0(%rip), %rdi
.LVL3:
	.loc 1 186 12 discriminator 2 view .LVU9
	movq	%rbp, %rsi
	movl	$1, %r12d
	repz cmpsb
.LVL4:
	.loc 1 186 12 discriminator 2 view .LVU10
	seta	%al
	sbbb	$0, %al
	.loc 1 185 73 discriminator 2 view .LVU11
	testb	%al, %al
	je	.L1
	.loc 1 187 12 view .LVU12
	movl	$4, %ecx
	leaq	.LC1(%rip), %rdi
	movq	%rbp, %rsi
	repz cmpsb
	seta	%al
	sbbb	$0, %al
	.loc 1 186 32 view .LVU13
	testb	%al, %al
	je	.L1
	.loc 1 187 34 view .LVU14
	movl	$4, %ecx
	leaq	.LC2(%rip), %rdi
	movq	%rbp, %rsi
	repz cmpsb
	seta	%al
	sbbb	$0, %al
	.loc 1 187 30 view .LVU15
	testb	%al, %al
	je	.L1
	.loc 1 187 56 discriminator 1 view .LVU16
	movl	$4, %ecx
	leaq	.LC3(%rip), %rdi
	movq	%rbp, %rsi
	repz cmpsb
	seta	%al
	sbbb	$0, %al
	.loc 1 187 52 discriminator 1 view .LVU17
	testb	%al, %al
	je	.L1
	.loc 1 188 12 discriminator 2 view .LVU18
	movl	$4, %ecx
	leaq	.LC4(%rip), %rdi
	movq	%rbp, %rsi
	repz cmpsb
	seta	%al
	sbbb	$0, %al
	.loc 1 187 74 discriminator 2 view .LVU19
	testb	%al, %al
	je	.L1
	.loc 1 188 34 view .LVU20
	movl	$4, %ecx
	leaq	.LC5(%rip), %rdi
	movq	%rbp, %rsi
	repz cmpsb
	seta	%al
	sbbb	$0, %al
	.loc 1 188 30 view .LVU21
	testb	%al, %al
	je	.L1
	.loc 1 188 56 discriminator 1 view .LVU22
	movl	$4, %ecx
	leaq	.LC6(%rip), %rdi
	movq	%rbp, %rsi
	repz cmpsb
	seta	%al
	sbbb	$0, %al
	.loc 1 188 52 discriminator 1 view .LVU23
	testb	%al, %al
	je	.L1
	.loc 1 189 12 discriminator 2 view .LVU24
	leaq	.LC7(%rip), %rsi
	movq	%rbp, %rdi
	call	strcmp@PLT
.LVL5:
	.loc 1 188 74 discriminator 2 view .LVU25
	testl	%eax, %eax
	je	.L1
	.loc 1 189 34 discriminator 2 view .LVU26
	leaq	.LC8(%rip), %rsi
	movq	%rbp, %rdi
	call	strcmp@PLT
.LVL6:
	.loc 1 189 30 discriminator 2 view .LVU27
	testl	%eax, %eax
	sete	%r12b
	jmp	.L1
.LVL7:
	.p2align 4,,10
	.p2align 3
.L34:
	.loc 1 185 34 view .LVU28
	cmpb	$61, 1(%rbp)
	jne	.L18
	.loc 1 185 30 view .LVU29
	cmpb	$0, 2(%rbp)
	movl	$1, %r12d
	jne	.L18
	.loc 1 190 1 view .LVU30
	addq	$8, %rsp
	.cfi_remember_state
	.cfi_def_cfa_offset 24
	movl	%r12d, %eax
	popq	%rbp
	.cfi_def_cfa_offset 16
	popq	%r12
	.cfi_def_cfa_offset 8
	ret
	.p2align 4,,10
	.p2align 3
.L35:
	.cfi_restore_state
	.loc 1 185 56 discriminator 1 view .LVU31
	cmpb	$61, 1(%rbp)
	jne	.L19
	.loc 1 185 52 discriminator 1 view .LVU32
	cmpb	$0, 2(%rbp)
	movl	$1, %r12d
	je	.L1
	jmp	.L19
	.cfi_endproc
.LFE150:
	.size	binop, .-binop
	.p2align 4
	.type	get_mtime, @function
get_mtime:
.LVL8:
.LFB149:
	.loc 1 169 1 is_stmt 1 view -0
	.cfi_startproc
	.loc 1 169 1 is_stmt 0 view .LVU34
	pushq	%rbx
	.cfi_def_cfa_offset 16
	.cfi_offset 3, -16
	movq	%rsi, %rbx
.LBB165:
.LBB166:
	.file 2 "/usr/include/x86_64-linux-gnu/sys/stat.h"
	.loc 2 455 10 view .LVU35
	movq	%rdi, %rsi
.LVL9:
	.loc 2 455 10 view .LVU36
	movl	$1, %edi
.LVL10:
	.loc 2 455 10 view .LVU37
.LBE166:
.LBE165:
	.loc 1 169 1 view .LVU38
	subq	$160, %rsp
	.cfi_def_cfa_offset 176
	.loc 1 169 1 view .LVU39
	movq	%fs:40, %rax
	movq	%rax, 152(%rsp)
	xorl	%eax, %eax
	.loc 1 170 3 is_stmt 1 view .LVU40
	.loc 1 171 3 view .LVU41
.LVL11:
.LBB168:
.LBI165:
	.loc 2 453 1 view .LVU42
.LBB167:
	.loc 2 455 3 view .LVU43
	.loc 2 455 10 is_stmt 0 view .LVU44
	movq	%rsp, %rdx
	call	__xstat@PLT
.LVL12:
	.loc 2 455 10 view .LVU45
.LBE167:
.LBE168:
	.loc 1 174 10 view .LVU46
	movdqa	zero.7160(%rip), %xmm0
	.loc 1 171 8 view .LVU47
	testl	%eax, %eax
	sete	%r8b
.LVL13:
	.loc 1 173 3 is_stmt 1 view .LVU48
	.loc 1 174 3 view .LVU49
	.loc 1 174 10 is_stmt 0 view .LVU50
	movaps	%xmm0, (%rbx)
	.loc 1 176 3 is_stmt 1 view .LVU51
	.loc 1 176 6 is_stmt 0 view .LVU52
	jne	.L36
	.loc 1 177 5 is_stmt 1 view .LVU53
.LVL14:
	.file 3 "./lib/stat-time.h"
	.loc 3 149 3 view .LVU54
	.loc 1 177 14 is_stmt 0 view .LVU55
	movq	88(%rsp), %rax
	movq	%rax, (%rbx)
	movq	96(%rsp), %rax
	movq	%rax, 8(%rbx)
	.loc 1 178 3 is_stmt 1 view .LVU56
.LVL15:
.L36:
	.loc 1 179 1 is_stmt 0 view .LVU57
	movq	152(%rsp), %rax
	xorq	%fs:40, %rax
	jne	.L40
	addq	$160, %rsp
	.cfi_remember_state
	.cfi_def_cfa_offset 16
	movl	%r8d, %eax
	popq	%rbx
	.cfi_def_cfa_offset 8
.LVL16:
	.loc 1 179 1 view .LVU58
	ret
.LVL17:
.L40:
	.cfi_restore_state
	.loc 1 179 1 view .LVU59
	call	__stack_chk_fail@PLT
.LVL18:
	.loc 1 179 1 view .LVU60
	.cfi_endproc
.LFE149:
	.size	get_mtime, .-get_mtime
	.p2align 4
	.type	test_syntax_error, @function
test_syntax_error:
.LVL19:
.LFB144:
	.loc 1 92 1 is_stmt 1 view -0
	.cfi_startproc
	.loc 1 92 1 is_stmt 0 view .LVU62
	pushq	%rax
	.cfi_def_cfa_offset 16
	popq	%rax
	.cfi_def_cfa_offset 8
	subq	$216, %rsp
	.cfi_def_cfa_offset 224
	movq	%rdi, %r10
	movq	%rsi, 40(%rsp)
	movq	%rdx, 48(%rsp)
	movq	%rcx, 56(%rsp)
	movq	%r8, 64(%rsp)
	movq	%r9, 72(%rsp)
	testb	%al, %al
	je	.L42
	movaps	%xmm0, 80(%rsp)
	movaps	%xmm1, 96(%rsp)
	movaps	%xmm2, 112(%rsp)
	movaps	%xmm3, 128(%rsp)
	movaps	%xmm4, 144(%rsp)
	movaps	%xmm5, 160(%rsp)
	movaps	%xmm6, 176(%rsp)
	movaps	%xmm7, 192(%rsp)
.L42:
	.loc 1 92 1 view .LVU63
	movq	%fs:40, %rax
	movq	%rax, 24(%rsp)
	xorl	%eax, %eax
	.loc 1 93 3 is_stmt 1 view .LVU64
	.loc 1 94 3 view .LVU65
	leaq	224(%rsp), %rax
	.loc 1 95 3 is_stmt 0 view .LVU66
	xorl	%edi, %edi
.LVL20:
	.loc 1 95 3 view .LVU67
	movq	%rsp, %rcx
	.loc 1 94 3 view .LVU68
	movq	%rax, 8(%rsp)
	.loc 1 95 3 view .LVU69
	movq	%r10, %rdx
	xorl	%esi, %esi
	.loc 1 94 3 view .LVU70
	leaq	32(%rsp), %rax
	movl	$8, (%rsp)
	movl	$48, 4(%rsp)
	movq	%rax, 16(%rsp)
	.loc 1 95 3 is_stmt 1 view .LVU71
	call	verror@PLT
.LVL21:
	.loc 1 96 3 view .LVU72
	movl	$2, %edi
	call	exit@PLT
.LVL22:
	.cfi_endproc
.LFE144:
	.size	test_syntax_error, .-test_syntax_error
	.section	.rodata.str1.1
.LC9:
	.string	"invalid integer %s"
	.text
	.p2align 4
	.type	find_int, @function
find_int:
.LVL23:
.LFB148:
	.loc 1 134 1 view -0
	.cfi_startproc
	.loc 1 135 3 view .LVU74
	.loc 1 136 3 view .LVU75
	.loc 1 138 3 view .LVU76
	.loc 1 134 1 is_stmt 0 view .LVU77
	pushq	%rbp
	.cfi_def_cfa_offset 16
	.cfi_offset 6, -16
	.loc 1 134 1 view .LVU78
	movq	%rdi, %rbp
.LVL24:
	.loc 1 138 20 view .LVU79
	call	__ctype_b_loc@PLT
.LVL25:
	.loc 1 138 10 view .LVU80
	movq	%rbp, %r8
	.loc 1 138 20 view .LVU81
	movq	(%rax), %rsi
.LVL26:
.L46:
	.loc 1 138 20 is_stmt 1 discriminator 1 view .LVU82
	movzbl	(%r8), %edx
	movq	%rdx, %rax
.LVL27:
.LBB169:
.LBI169:
	.file 4 "src/system.h"
	.loc 4 156 29 discriminator 1 view .LVU83
.LBB170:
	.loc 4 156 50 discriminator 1 view .LVU84
	.loc 4 156 50 is_stmt 0 discriminator 1 view .LVU85
.LBE170:
.LBE169:
	.loc 1 138 3 discriminator 1 view .LVU86
	testb	$1, (%rsi,%rdx,2)
	jne	.L47
	.loc 1 141 3 is_stmt 1 view .LVU87
	.loc 1 141 6 is_stmt 0 view .LVU88
	cmpb	$43, %dl
	je	.L62
	.loc 1 148 7 is_stmt 1 view .LVU89
.LVL28:
	.loc 1 149 7 view .LVU90
	.loc 1 149 16 is_stmt 0 view .LVU91
	xorl	%edx, %edx
	cmpb	$45, %al
	sete	%dl
	.loc 1 149 9 view .LVU92
	addq	%r8, %rdx
.LVL29:
.L49:
	.loc 1 152 3 is_stmt 1 view .LVU93
	.loc 1 152 7 is_stmt 0 view .LVU94
	movsbl	(%rdx), %ecx
	leaq	1(%rdx), %rax
.LVL30:
	.loc 1 152 7 view .LVU95
	subl	$48, %ecx
	.loc 1 152 6 view .LVU96
	cmpl	$9, %ecx
	ja	.L50
	.loc 1 154 13 is_stmt 1 view .LVU97
	.loc 1 154 14 is_stmt 0 view .LVU98
	movsbl	1(%rdx), %ecx
	movl	%ecx, %edx
	subl	$48, %ecx
	.loc 1 154 13 view .LVU99
	cmpl	$9, %ecx
	ja	.L51
	.p2align 4,,10
	.p2align 3
.L52:
	.loc 1 155 9 is_stmt 1 view .LVU100
	.loc 1 154 14 is_stmt 0 view .LVU101
	movsbl	1(%rax), %ecx
	.loc 1 155 10 view .LVU102
	addq	$1, %rax
.LVL31:
	.loc 1 154 13 is_stmt 1 view .LVU103
	.loc 1 154 14 is_stmt 0 view .LVU104
	movl	%ecx, %edx
	subl	$48, %ecx
	.loc 1 154 13 view .LVU105
	cmpl	$9, %ecx
	jbe	.L52
.L51:
	.loc 1 156 13 is_stmt 1 view .LVU106
.LVL32:
.LBB171:
.LBI171:
	.loc 4 156 29 view .LVU107
.LBB172:
	.loc 4 156 50 view .LVU108
	.loc 4 156 50 is_stmt 0 view .LVU109
.LBE172:
.LBE171:
	.loc 1 156 14 view .LVU110
	movzbl	%dl, %ecx
	.loc 1 156 13 view .LVU111
	testb	$1, (%rsi,%rcx,2)
	je	.L53
	.p2align 4,,10
	.p2align 3
.L54:
	.loc 1 157 9 is_stmt 1 view .LVU112
	.loc 1 156 14 is_stmt 0 view .LVU113
	movzbl	1(%rax), %ecx
	.loc 1 157 10 view .LVU114
	addq	$1, %rax
.LVL33:
	.loc 1 156 13 is_stmt 1 view .LVU115
	.loc 1 156 14 is_stmt 0 view .LVU116
	movq	%rcx, %rdx
.LVL34:
.LBB174:
	.loc 4 156 29 is_stmt 1 view .LVU117
.LBB173:
	.loc 4 156 50 view .LVU118
	.loc 4 156 50 is_stmt 0 view .LVU119
.LBE173:
.LBE174:
	.loc 1 156 13 view .LVU120
	testb	$1, (%rsi,%rcx,2)
	jne	.L54
.L53:
	.loc 1 158 7 is_stmt 1 view .LVU121
	.loc 1 158 10 is_stmt 0 view .LVU122
	testb	%dl, %dl
	jne	.L50
	.loc 1 163 1 view .LVU123
	movq	%r8, %rax
.LVL35:
	.loc 1 163 1 view .LVU124
	popq	%rbp
	.cfi_remember_state
	.cfi_def_cfa_offset 8
.LVL36:
	.loc 1 163 1 view .LVU125
	ret
.LVL37:
	.p2align 4,,10
	.p2align 3
.L47:
	.cfi_restore_state
	.loc 1 139 5 is_stmt 1 view .LVU126
	.loc 1 138 45 view .LVU127
	.loc 1 138 46 is_stmt 0 view .LVU128
	addq	$1, %r8
.LVL38:
	.loc 1 138 46 view .LVU129
	jmp	.L46
	.p2align 4,,10
	.p2align 3
.L62:
	.loc 1 143 7 is_stmt 1 view .LVU130
	.loc 1 143 8 is_stmt 0 view .LVU131
	leaq	1(%r8), %rdx
.LVL39:
	.loc 1 144 7 is_stmt 1 view .LVU132
	.loc 1 144 20 is_stmt 0 view .LVU133
	movq	%rdx, %r8
	jmp	.L49
.LVL40:
.L50:
	.loc 1 162 3 is_stmt 1 view .LVU134
	movq	%rbp, %rdi
	call	quote@PLT
.LVL41:
	.loc 1 162 22 is_stmt 0 view .LVU135
	leaq	.LC9(%rip), %rsi
	xorl	%edi, %edi
	movl	$5, %edx
	.loc 1 162 3 view .LVU136
	movq	%rax, %rbp
.LVL42:
	.loc 1 162 22 view .LVU137
	call	dcgettext@PLT
.LVL43:
	.loc 1 162 3 view .LVU138
	movq	%rbp, %rsi
	.loc 1 162 22 view .LVU139
	movq	%rax, %rdi
	.loc 1 162 3 view .LVU140
	xorl	%eax, %eax
	call	test_syntax_error
.LVL44:
	.cfi_endproc
.LFE148:
	.size	find_int, .-find_int
	.section	.rodata.str1.1
.LC10:
	.string	"missing argument after %s"
	.text
	.p2align 4
	.type	beyond, @function
beyond:
.LFB147:
	.loc 1 125 1 is_stmt 1 view -0
	.cfi_startproc
	.loc 1 126 3 view .LVU142
	.loc 1 126 65 is_stmt 0 view .LVU143
	movslq	argc(%rip), %rdx
	.loc 1 126 3 view .LVU144
	movq	argv(%rip), %rax
	.loc 1 125 1 view .LVU145
	pushq	%rbp
	.cfi_def_cfa_offset 16
	.cfi_offset 6, -16
	.loc 1 126 3 view .LVU146
	movq	-8(%rax,%rdx,8), %rdi
	call	quote@PLT
.LVL45:
	.loc 1 126 22 view .LVU147
	leaq	.LC10(%rip), %rsi
	xorl	%edi, %edi
	movl	$5, %edx
	.loc 1 126 3 view .LVU148
	movq	%rax, %rbp
	.loc 1 126 22 view .LVU149
	call	dcgettext@PLT
.LVL46:
	.loc 1 126 3 view .LVU150
	movq	%rbp, %rsi
	.loc 1 126 22 view .LVU151
	movq	%rax, %rdi
	.loc 1 126 3 view .LVU152
	xorl	%eax, %eax
	call	test_syntax_error
.LVL47:
	.cfi_endproc
.LFE147:
	.size	beyond, .-beyond
	.p2align 4
	.type	unary_advance, @function
unary_advance:
.LFB146:
	.loc 1 114 1 is_stmt 1 view -0
	.cfi_startproc
	.loc 1 115 3 view .LVU154
.LVL48:
.LBB175:
.LBI175:
	.loc 1 104 1 view .LVU155
.LBB176:
	.loc 1 106 3 view .LVU156
	movl	pos(%rip), %eax
	leal	1(%rax), %edx
	.loc 1 108 9 is_stmt 0 view .LVU157
	cmpl	argc(%rip), %edx
	.loc 1 106 3 view .LVU158
	movl	%edx, pos(%rip)
	.loc 1 108 3 is_stmt 1 view .LVU159
	.loc 1 108 9 is_stmt 0 view .LVU160
	jge	.L70
.LVL49:
	.loc 1 108 9 view .LVU161
.LBE176:
.LBE175:
	.loc 1 116 3 is_stmt 1 view .LVU162
	addl	$2, %eax
	movl	%eax, pos(%rip)
	ret
.LVL50:
.L70:
.LBB179:
.LBB177:
	.loc 1 109 5 view .LVU163
.LBE177:
.LBE179:
	.loc 1 114 1 is_stmt 0 view .LVU164
	pushq	%rax
	.cfi_def_cfa_offset 16
.LBB180:
.LBB178:
	.loc 1 109 5 view .LVU165
	call	beyond
.LVL51:
.LBE178:
.LBE180:
	.cfi_endproc
.LFE146:
	.size	unary_advance, .-unary_advance
	.section	.rodata.str1.1
.LC11:
	.string	"-nt does not accept -l"
.LC12:
	.string	"-ef does not accept -l"
.LC13:
	.string	"-ot does not accept -l"
.LC14:
	.string	"%s: unknown binary operator"
	.section	.text.unlikely,"ax",@progbits
.LCOLDB15:
	.text
.LHOTB15:
	.p2align 4
	.section	.text.unlikely
.Ltext_cold0:
	.text
	.type	binary_operator, @function
binary_operator:
.LVL52:
.LFB152:
	.loc 1 272 1 is_stmt 1 view -0
	.cfi_startproc
	.loc 1 272 1 is_stmt 0 view .LVU167
	pushq	%r13
	.cfi_def_cfa_offset 16
	.cfi_offset 13, -16
	pushq	%r12
	.cfi_def_cfa_offset 24
	.cfi_offset 12, -24
	pushq	%rbp
	.cfi_def_cfa_offset 32
	.cfi_offset 6, -32
	pushq	%rbx
	.cfi_def_cfa_offset 40
	.cfi_offset 3, -40
	subq	$392, %rsp
	.cfi_def_cfa_offset 432
	movl	pos(%rip), %edx
	.loc 1 272 1 view .LVU168
	movq	%fs:40, %rax
	movq	%rax, 376(%rsp)
	xorl	%eax, %eax
	.loc 1 273 3 is_stmt 1 view .LVU169
	.loc 1 274 3 view .LVU170
	.loc 1 276 3 view .LVU171
	.loc 1 278 3 view .LVU172
	leal	1(%rdx), %eax
	.loc 1 278 6 is_stmt 0 view .LVU173
	testb	%dil, %dil
	je	.L72
	.loc 1 279 5 is_stmt 1 view .LVU174
.LVL53:
.LBB181:
.LBI181:
	.loc 1 104 1 view .LVU175
.LBB182:
	.loc 1 106 3 view .LVU176
	movl	%eax, pos(%rip)
	.loc 1 108 3 view .LVU177
	leal	2(%rdx), %eax
.LVL54:
.L72:
	.loc 1 108 3 is_stmt 0 view .LVU178
.LBE182:
.LBE181:
	.loc 1 280 3 is_stmt 1 view .LVU179
	.loc 1 282 3 view .LVU180
	.loc 1 282 18 is_stmt 0 view .LVU181
	movl	argc(%rip), %ecx
	movq	argv(%rip), %rbp
	movslq	%eax, %rbx
	.loc 1 288 12 view .LVU182
	xorl	%r12d, %r12d
	.loc 1 282 18 view .LVU183
	leal	-2(%rcx), %edx
	.loc 1 282 6 view .LVU184
	cmpl	%eax, %edx
	jle	.L73
	.loc 1 282 26 discriminator 1 view .LVU185
	movq	8(%rbp,%rbx,8), %rdx
	cmpb	$45, (%rdx)
	je	.L139
.L114:
	.loc 1 288 12 view .LVU186
	xorl	%r12d, %r12d
.LVL55:
.L73:
	.loc 1 290 3 is_stmt 1 view .LVU187
	.loc 1 290 11 is_stmt 0 view .LVU188
	movq	0(%rbp,%rbx,8), %r8
	leaq	0(,%rbx,8), %r13
	.loc 1 290 15 view .LVU189
	movzbl	(%r8), %eax
	.loc 1 290 6 view .LVU190
	cmpb	$45, %al
	je	.L140
	.loc 1 369 3 is_stmt 1 view .LVU191
	.loc 1 369 6 is_stmt 0 view .LVU192
	cmpb	$61, %al
	jne	.L107
	.loc 1 370 20 view .LVU193
	movzbl	1(%r8), %eax
	.loc 1 370 7 view .LVU194
	testb	%al, %al
	je	.L108
	.loc 1 370 24 discriminator 1 view .LVU195
	cmpb	$61, %al
	jne	.L107
	.loc 1 370 49 discriminator 2 view .LVU196
	cmpb	$0, 2(%r8)
	jne	.L107
.L108:
.LBB183:
	.loc 1 372 7 is_stmt 1 view .LVU197
	.loc 1 372 20 is_stmt 0 view .LVU198
	movslq	pos(%rip), %rax
	movq	%rax, %rbx
	addq	$2, %rax
	movq	0(%rbp,%rax,8), %rsi
	movq	-16(%rbp,%rax,8), %rdi
.LVL56:
	.loc 1 372 20 view .LVU199
	call	strcmp@PLT
.LVL57:
	.loc 1 372 12 view .LVU200
	testl	%eax, %eax
	sete	%r12b
.LVL58:
	.loc 1 373 7 is_stmt 1 view .LVU201
	.loc 1 373 11 is_stmt 0 view .LVU202
	addl	$3, %ebx
	movl	%ebx, pos(%rip)
	.loc 1 374 7 is_stmt 1 view .LVU203
	.loc 1 374 14 is_stmt 0 view .LVU204
	jmp	.L71
.LVL59:
	.p2align 4,,10
	.p2align 3
.L107:
	.loc 1 374 14 view .LVU205
.LBE183:
	.loc 1 377 3 is_stmt 1 view .LVU206
	.loc 1 377 7 is_stmt 0 view .LVU207
	cmpb	$33, (%r8)
	jne	.L110
	cmpb	$61, 1(%r8)
	jne	.L110
	.loc 1 377 6 view .LVU208
	cmpb	$0, 2(%r8)
	jne	.L110
.LBB184:
	.loc 1 379 7 is_stmt 1 view .LVU209
	.loc 1 379 21 is_stmt 0 view .LVU210
	movslq	pos(%rip), %rax
	movq	%rax, %rbx
	addq	$2, %rax
	movq	0(%rbp,%rax,8), %rsi
	movq	-16(%rbp,%rax,8), %rdi
.LVL60:
	.loc 1 379 21 view .LVU211
	call	strcmp@PLT
.LVL61:
	.loc 1 379 12 view .LVU212
	testl	%eax, %eax
	setne	%r12b
.LVL62:
	.loc 1 380 7 is_stmt 1 view .LVU213
	.loc 1 380 11 is_stmt 0 view .LVU214
	addl	$3, %ebx
	movl	%ebx, pos(%rip)
	.loc 1 381 7 is_stmt 1 view .LVU215
.LVL63:
.L71:
	.loc 1 381 7 is_stmt 0 view .LVU216
.LBE184:
	.loc 1 386 1 view .LVU217
	movq	376(%rsp), %rax
	xorq	%fs:40, %rax
	jne	.L141
	addq	$392, %rsp
	.cfi_remember_state
	.cfi_def_cfa_offset 40
	movl	%r12d, %eax
	popq	%rbx
	.cfi_def_cfa_offset 32
	popq	%rbp
	.cfi_def_cfa_offset 24
	popq	%r12
	.cfi_def_cfa_offset 16
	popq	%r13
	.cfi_def_cfa_offset 8
	ret
.LVL64:
	.p2align 4,,10
	.p2align 3
.L139:
	.cfi_restore_state
	.loc 1 282 26 discriminator 1 view .LVU218
	cmpb	$108, 1(%rdx)
	jne	.L114
	.loc 1 282 23 discriminator 1 view .LVU219
	cmpb	$0, 2(%rdx)
	jne	.L114
	.loc 1 284 7 is_stmt 1 view .LVU220
.LVL65:
	.loc 1 285 7 view .LVU221
.LBB185:
.LBI185:
	.loc 1 104 1 view .LVU222
.LBB186:
	.loc 1 106 3 view .LVU223
	movl	%eax, pos(%rip)
.LVL66:
	.loc 1 108 3 view .LVU224
.LBE186:
.LBE185:
	.loc 1 284 14 is_stmt 0 view .LVU225
	movl	$1, %r12d
.LBB188:
.LBB187:
	jmp	.L73
.LVL67:
	.p2align 4,,10
	.p2align 3
.L140:
	.loc 1 284 14 view .LVU226
.LBE187:
.LBE188:
	.loc 1 293 7 is_stmt 1 view .LVU227
	.loc 1 293 22 is_stmt 0 view .LVU228
	movzbl	1(%r8), %eax
	.loc 1 293 10 view .LVU229
	cmpb	$108, %al
	je	.L115
	cmpb	$103, %al
	je	.L115
.L76:
	.loc 1 295 12 view .LVU230
	cmpb	$101, %al
	je	.L142
	.loc 1 296 12 view .LVU231
	cmpb	$110, %al
	je	.L143
.L82:
	.loc 1 315 7 is_stmt 1 view .LVU232
	cmpb	$111, %al
	jne	.L144
	.loc 1 350 11 view .LVU233
	.loc 1 350 14 is_stmt 0 view .LVU234
	cmpb	$116, 2(%r8)
	jne	.L94
	.loc 1 350 34 discriminator 1 view .LVU235
	cmpb	$0, 3(%r8)
	jne	.L94
.LBB189:
	.loc 1 353 15 is_stmt 1 view .LVU236
	.loc 1 354 15 view .LVU237
	.loc 1 355 15 view .LVU238
	.loc 1 355 19 is_stmt 0 view .LVU239
	addl	$3, pos(%rip)
	.loc 1 356 15 is_stmt 1 view .LVU240
	.loc 1 356 18 is_stmt 0 view .LVU241
	testb	%r12b, %r12b
	jne	.L117
	testb	%dil, %dil
	jne	.L117
	.loc 1 358 15 is_stmt 1 view .LVU242
	.loc 1 358 20 is_stmt 0 view .LVU243
	movq	-8(%rbp,%r13), %rdi
.LVL68:
	.loc 1 358 20 view .LVU244
	movq	%rsp, %rsi
	call	get_mtime
.LVL69:
	.loc 1 359 20 view .LVU245
	movq	8(%rbp,%r13), %rdi
	leaq	16(%rsp), %rsi
	.loc 1 358 20 view .LVU246
	movl	%eax, %ebx
.LVL70:
	.loc 1 359 15 is_stmt 1 view .LVU247
	.loc 1 359 20 is_stmt 0 view .LVU248
	call	get_mtime
.LVL71:
	.loc 1 359 20 view .LVU249
	movl	%eax, %r12d
.LVL72:
	.loc 1 360 15 is_stmt 1 view .LVU250
	.loc 1 360 25 is_stmt 0 view .LVU251
	testb	%al, %al
	je	.L71
	.loc 1 360 25 discriminator 1 view .LVU252
	testb	%bl, %bl
	je	.L71
	movq	(%rsp), %rax
.LVL73:
	.loc 1 360 25 discriminator 1 view .LVU253
	movq	16(%rsp), %rdi
.LBB190:
.LBB191:
	.file 5 "./lib/timespec.h"
	.loc 5 66 14 discriminator 4 view .LVU254
	xorl	%edx, %edx
	movq	24(%rsp), %rcx
	movq	8(%rsp), %rsi
.LVL74:
	.loc 5 66 14 discriminator 4 view .LVU255
.LBE191:
.LBI190:
	.loc 5 64 1 is_stmt 1 discriminator 4 view .LVU256
.LBB192:
	.loc 5 66 3 discriminator 4 view .LVU257
	.loc 5 66 14 is_stmt 0 discriminator 4 view .LVU258
	cmpq	%rax, %rdi
	setg	%al
	setl	%dl
	movzbl	%al, %eax
	subl	%eax, %edx
	.loc 5 66 45 discriminator 4 view .LVU259
	xorl	%eax, %eax
	cmpq	%rcx, %rsi
	setl	%cl
	setg	%al
	movzbl	%cl, %ecx
	subl	%ecx, %eax
	.loc 5 66 43 discriminator 4 view .LVU260
	leal	(%rax,%rdx,2), %edi
.LBE192:
.LBE190:
	.loc 1 360 33 discriminator 4 view .LVU261
	shrl	$31, %edi
	movl	%edi, %r12d
.LVL75:
	.loc 1 360 33 discriminator 4 view .LVU262
	jmp	.L71
.LVL76:
	.p2align 4,,10
	.p2align 3
.L142:
	.loc 1 360 33 discriminator 4 view .LVU263
.LBE189:
	.loc 1 295 46 discriminator 1 view .LVU264
	movzbl	2(%r8), %eax
	.loc 1 295 35 discriminator 1 view .LVU265
	cmpb	$113, %al
	je	.L80
.L81:
	.loc 1 336 11 is_stmt 1 view .LVU266
	.loc 1 336 14 is_stmt 0 view .LVU267
	cmpb	$102, %al
	jne	.L94
	.loc 1 336 34 discriminator 1 view .LVU268
	cmpb	$0, 3(%r8)
	jne	.L94
	.loc 1 339 15 is_stmt 1 view .LVU269
	.loc 1 339 19 is_stmt 0 view .LVU270
	addl	$3, pos(%rip)
	.loc 1 340 15 is_stmt 1 view .LVU271
	.loc 1 340 18 is_stmt 0 view .LVU272
	orb	%dil, %r12b
.LVL77:
	.loc 1 340 18 view .LVU273
	jne	.L145
	.loc 1 342 15 is_stmt 1 view .LVU274
.LVL78:
.LBB193:
.LBI193:
	.loc 2 453 1 view .LVU275
.LBB194:
	.loc 2 455 3 view .LVU276
	.loc 2 455 10 is_stmt 0 view .LVU277
	movq	-8(%rbp,%r13), %rsi
	leaq	32(%rsp), %rdx
.LVL79:
	.loc 2 455 10 view .LVU278
	movl	$1, %edi
.LVL80:
	.loc 2 455 10 view .LVU279
	call	__xstat@PLT
.LVL81:
	.loc 2 455 10 view .LVU280
.LBE194:
.LBE193:
	.loc 1 345 23 view .LVU281
	testl	%eax, %eax
	jne	.L71
.LVL82:
.LBB195:
.LBI195:
	.loc 2 453 1 is_stmt 1 view .LVU282
.LBB196:
	.loc 2 455 3 view .LVU283
	.loc 2 455 10 is_stmt 0 view .LVU284
	movq	8(%rbp,%r13), %rsi
	leaq	176(%rsp), %rdx
.LVL83:
	.loc 2 455 10 view .LVU285
	movl	$1, %edi
	call	__xstat@PLT
.LVL84:
	.loc 2 455 10 view .LVU286
.LBE196:
.LBE195:
	.loc 1 343 23 view .LVU287
	testl	%eax, %eax
	jne	.L71
	.loc 1 344 23 view .LVU288
	movq	176(%rsp), %rax
	cmpq	%rax, 32(%rsp)
	jne	.L71
	.loc 1 345 23 discriminator 3 view .LVU289
	movq	184(%rsp), %rax
	cmpq	%rax, 40(%rsp)
	sete	%r12b
	jmp	.L71
.LVL85:
	.p2align 4,,10
	.p2align 3
.L115:
	.loc 1 294 25 view .LVU290
	movzbl	2(%r8), %edx
	.loc 1 294 13 view .LVU291
	cmpb	$101, %dl
	je	.L78
	cmpb	$116, %dl
	jne	.L76
.L78:
	.loc 1 297 11 view .LVU292
	cmpb	$0, 3(%r8)
	jne	.L82
.L111:
.LBB197:
	.loc 1 299 11 is_stmt 1 view .LVU293
	.loc 1 300 11 view .LVU294
	.loc 1 301 11 view .LVU295
	movq	-8(%rbp,%r13), %r8
	.loc 1 303 28 is_stmt 0 view .LVU296
	testb	%dil, %dil
	.loc 1 302 30 view .LVU297
	movq	%r8, %rdi
.LVL86:
	.loc 1 303 28 view .LVU298
	je	.L85
	.loc 1 302 30 view .LVU299
	call	strlen@PLT
.LVL87:
	leaq	320(%rsp), %rsi
	movq	%rax, %rdi
	call	umaxtostr@PLT
.LVL88:
	movq	%rax, %rbp
.L86:
.LVL89:
	.loc 1 304 11 is_stmt 1 view .LVU300
	movq	argv(%rip), %rax
	.loc 1 306 28 is_stmt 0 view .LVU301
	testb	%r12b, %r12b
	je	.L87
	.loc 1 305 30 view .LVU302
	movq	16(%rax,%r13), %rdi
	call	strlen@PLT
.LVL90:
	leaq	352(%rsp), %rsi
	movq	%rax, %rdi
	call	umaxtostr@PLT
.LVL91:
	movq	%rax, %rsi
.L88:
.LVL92:
	.loc 1 307 11 is_stmt 1 view .LVU303
	.loc 1 307 21 is_stmt 0 view .LVU304
	movq	%rbp, %rdi
	call	strintcmp@PLT
.LVL93:
	.loc 1 308 11 is_stmt 1 view .LVU305
	.loc 1 308 35 is_stmt 0 view .LVU306
	movq	argv(%rip), %rdx
	movq	(%rdx,%rbx,8), %rcx
	.loc 1 308 16 view .LVU307
	cmpb	$101, 2(%rcx)
	.loc 1 310 27 view .LVU308
	movzbl	1(%rcx), %ecx
	.loc 1 308 16 view .LVU309
	sete	%dl
.LVL94:
	.loc 1 309 11 is_stmt 1 view .LVU310
	.loc 1 309 15 is_stmt 0 view .LVU311
	addl	$3, pos(%rip)
	.loc 1 310 11 is_stmt 1 view .LVU312
	.loc 1 311 19 is_stmt 0 view .LVU313
	cmpb	$108, %cl
	je	.L146
	.loc 1 311 19 discriminator 2 view .LVU314
	cmpb	$103, %cl
	je	.L147
	.loc 1 312 26 discriminator 5 view .LVU315
	testl	%eax, %eax
	setne	%al
.LVL95:
	.loc 1 311 19 discriminator 5 view .LVU316
	cmpb	%dl, %al
	sete	%r12b
.LVL96:
	.loc 1 311 19 discriminator 5 view .LVU317
	jmp	.L71
.LVL97:
	.p2align 4,,10
	.p2align 3
.L144:
	.loc 1 311 19 discriminator 5 view .LVU318
.LBE197:
	.loc 1 315 7 view .LVU319
	jg	.L94
	cmpb	$101, %al
	je	.L95
	cmpb	$110, %al
	jne	.L94
	movzbl	2(%r8), %eax
.L84:
	.loc 1 321 11 is_stmt 1 view .LVU320
	.loc 1 321 14 is_stmt 0 view .LVU321
	cmpb	$116, %al
	jne	.L94
	.loc 1 321 34 discriminator 1 view .LVU322
	cmpb	$0, 3(%r8)
	jne	.L94
.LBB198:
	.loc 1 324 15 is_stmt 1 view .LVU323
	.loc 1 325 15 view .LVU324
	.loc 1 326 15 view .LVU325
	.loc 1 326 19 is_stmt 0 view .LVU326
	addl	$3, pos(%rip)
	.loc 1 327 15 is_stmt 1 view .LVU327
	.loc 1 327 18 is_stmt 0 view .LVU328
	testb	%r12b, %r12b
	jne	.L116
	testb	%dil, %dil
	jne	.L116
	.loc 1 329 15 is_stmt 1 view .LVU329
	.loc 1 329 20 is_stmt 0 view .LVU330
	movq	-8(%rbp,%r13), %rdi
.LVL98:
	.loc 1 329 20 view .LVU331
	movq	%rsp, %rsi
	call	get_mtime
.LVL99:
	.loc 1 330 20 view .LVU332
	movq	8(%rbp,%r13), %rdi
	leaq	16(%rsp), %rsi
	.loc 1 329 20 view .LVU333
	movl	%eax, %r12d
.LVL100:
	.loc 1 330 15 is_stmt 1 view .LVU334
	.loc 1 330 20 is_stmt 0 view .LVU335
	call	get_mtime
.LVL101:
	.loc 1 331 15 is_stmt 1 view .LVU336
	.loc 1 331 25 is_stmt 0 view .LVU337
	testb	%r12b, %r12b
	je	.L71
	.loc 1 331 25 discriminator 1 view .LVU338
	testb	%al, %al
	je	.L71
	movq	(%rsp), %rax
.LVL102:
	.loc 1 331 25 discriminator 1 view .LVU339
	movq	16(%rsp), %rdi
.LBB199:
.LBB200:
	.loc 5 66 14 discriminator 4 view .LVU340
	xorl	%edx, %edx
	movq	8(%rsp), %rcx
.LVL103:
	.loc 5 66 14 discriminator 4 view .LVU341
	movq	24(%rsp), %rsi
.LVL104:
	.loc 5 66 14 discriminator 4 view .LVU342
.LBE200:
.LBI199:
	.loc 5 64 1 is_stmt 1 discriminator 4 view .LVU343
.LBB201:
	.loc 5 66 3 discriminator 4 view .LVU344
	.loc 5 66 14 is_stmt 0 discriminator 4 view .LVU345
	cmpq	%rax, %rdi
	setg	%al
	setl	%dl
	movzbl	%al, %eax
	subl	%eax, %edx
	.loc 5 66 45 discriminator 4 view .LVU346
	xorl	%eax, %eax
	cmpq	%rcx, %rsi
	setg	%cl
	setl	%al
	movzbl	%cl, %ecx
	subl	%ecx, %eax
	.loc 5 66 43 discriminator 4 view .LVU347
	leal	(%rax,%rdx,2), %eax
.LBE201:
.LBE199:
	.loc 1 331 33 discriminator 4 view .LVU348
	testl	%eax, %eax
	setg	%r12b
.LVL105:
	.loc 1 331 33 discriminator 4 view .LVU349
	jmp	.L71
.LVL106:
	.p2align 4,,10
	.p2align 3
.L143:
	.loc 1 331 33 discriminator 4 view .LVU350
.LBE198:
	.loc 1 296 46 discriminator 1 view .LVU351
	movzbl	2(%r8), %eax
	.loc 1 296 35 discriminator 1 view .LVU352
	cmpb	$101, %al
	jne	.L84
.L80:
	.loc 1 297 11 view .LVU353
	cmpb	$0, 3(%r8)
	je	.L111
.L94:
	.loc 1 366 7 is_stmt 1 view .LVU354
	movq	%r8, %rdi
.LVL107:
	.loc 1 366 7 is_stmt 0 view .LVU355
	call	quote@PLT
.LVL108:
	.loc 1 366 26 view .LVU356
	leaq	.LC14(%rip), %rsi
	xorl	%edi, %edi
	movl	$5, %edx
	.loc 1 366 7 view .LVU357
	movq	%rax, %rbp
	.loc 1 366 26 view .LVU358
	call	dcgettext@PLT
.LVL109:
	.loc 1 366 7 view .LVU359
	movq	%rbp, %rsi
	.loc 1 366 26 view .LVU360
	movq	%rax, %rdi
	.loc 1 366 7 view .LVU361
	xorl	%eax, %eax
	call	test_syntax_error
.LVL110:
	.p2align 4,,10
	.p2align 3
.L85:
.LBB202:
	.loc 1 303 30 discriminator 1 view .LVU362
	call	find_int
.LVL111:
	movq	%rax, %rbp
	jmp	.L86
.LVL112:
	.p2align 4,,10
	.p2align 3
.L87:
	.loc 1 306 30 discriminator 1 view .LVU363
	movq	8(%rax,%r13), %rdi
	call	find_int
.LVL113:
	movq	%rax, %rsi
	jmp	.L88
.LVL114:
	.p2align 4,,10
	.p2align 3
.L95:
	.loc 1 306 30 discriminator 1 view .LVU364
	movzbl	2(%r8), %eax
	jmp	.L81
.LVL115:
	.p2align 4,,10
	.p2align 3
.L146:
	.loc 1 311 19 discriminator 1 view .LVU365
	movzbl	%dl, %edx
	.loc 1 311 19 discriminator 1 view .LVU366
	cmpl	%eax, %edx
	setg	%r12b
.LVL116:
	.loc 1 311 19 discriminator 1 view .LVU367
	jmp	.L71
.LVL117:
	.p2align 4,,10
	.p2align 3
.L147:
	.loc 1 311 48 discriminator 4 view .LVU368
	movzbl	%dl, %edx
	.loc 1 311 48 discriminator 4 view .LVU369
	negl	%edx
.LVL118:
	.loc 1 311 19 discriminator 4 view .LVU370
	cmpl	%eax, %edx
	setl	%r12b
.LVL119:
	.loc 1 311 19 discriminator 4 view .LVU371
	jmp	.L71
.LVL120:
.L141:
	.loc 1 311 19 discriminator 4 view .LVU372
.LBE202:
	.loc 1 386 1 view .LVU373
	call	__stack_chk_fail@PLT
.LVL121:
.L117:
.LBB203:
	.loc 1 357 17 is_stmt 1 view .LVU374
	.loc 1 357 36 is_stmt 0 view .LVU375
	movl	$5, %edx
	leaq	.LC13(%rip), %rsi
.LVL122:
.L138:
	.loc 1 357 36 view .LVU376
.LBE203:
	.loc 1 341 36 view .LVU377
	xorl	%edi, %edi
.LVL123:
	.loc 1 341 36 view .LVU378
	call	dcgettext@PLT
.LVL124:
	.loc 1 341 17 view .LVU379
	xorl	%esi, %esi
	.loc 1 341 36 view .LVU380
	movq	%rax, %rdi
	.loc 1 341 17 view .LVU381
	xorl	%eax, %eax
	call	test_syntax_error
.LVL125:
.L145:
	.loc 1 341 17 is_stmt 1 view .LVU382
	.loc 1 341 36 is_stmt 0 view .LVU383
	movl	$5, %edx
	leaq	.LC12(%rip), %rsi
	jmp	.L138
.LVL126:
.L116:
.LBB204:
	.loc 1 328 17 is_stmt 1 view .LVU384
	.loc 1 328 36 is_stmt 0 view .LVU385
	movl	$5, %edx
	leaq	.LC11(%rip), %rsi
	jmp	.L138
	.loc 1 328 36 view .LVU386
.LBE204:
	.cfi_endproc
	.section	.text.unlikely
	.cfi_startproc
	.type	binary_operator.cold, @function
binary_operator.cold:
.LFSB152:
.LBB205:
.L110:
	.cfi_def_cfa_offset 432
	.cfi_offset 3, -40
	.cfi_offset 6, -32
	.cfi_offset 12, -24
	.cfi_offset 13, -16
.LBE205:
	.loc 1 385 3 is_stmt 1 view -0
	call	abort@PLT
.LVL127:
	.loc 1 385 3 is_stmt 0 view .LVU388
	.cfi_endproc
.LFE152:
	.text
	.size	binary_operator, .-binary_operator
	.section	.text.unlikely
	.size	binary_operator.cold, .-binary_operator.cold
.LCOLDE15:
	.text
.LHOTE15:
	.section	.rodata.str1.1
.LC16:
	.string	"%s: unary operator expected"
	.text
	.p2align 4
	.type	unary_operator, @function
unary_operator:
.LFB153:
	.loc 1 390 1 is_stmt 1 view -0
	.cfi_startproc
	pushq	%rbp
	.cfi_def_cfa_offset 16
	.cfi_offset 6, -16
	pushq	%rbx
	.cfi_def_cfa_offset 24
	.cfi_offset 3, -24
	subq	$168, %rsp
	.cfi_def_cfa_offset 192
	.loc 1 393 15 is_stmt 0 view .LVU390
	movq	argv(%rip), %rbx
	.loc 1 390 1 view .LVU391
	movq	%fs:40, %rax
	movq	%rax, 152(%rsp)
	xorl	%eax, %eax
	.loc 1 391 3 is_stmt 1 view .LVU392
	.loc 1 393 3 view .LVU393
	.loc 1 393 15 is_stmt 0 view .LVU394
	movslq	pos(%rip), %rax
	movq	(%rbx,%rax,8), %rdi
	movzbl	1(%rdi), %eax
	subl	$71, %eax
	cmpb	$51, %al
	ja	.L149
	leaq	.L151(%rip), %rdx
	movzbl	%al, %eax
	movslq	(%rdx,%rax,4), %rax
	addq	%rdx, %rax
	notrack jmp	*%rax
	.section	.rodata
	.align 4
	.align 4
.L151:
	.long	.L171-.L151
	.long	.L149-.L151
	.long	.L149-.L151
	.long	.L149-.L151
	.long	.L149-.L151
	.long	.L161-.L151
	.long	.L149-.L151
	.long	.L170-.L151
	.long	.L169-.L151
	.long	.L149-.L151
	.long	.L149-.L151
	.long	.L149-.L151
	.long	.L168-.L151
	.long	.L149-.L151
	.long	.L149-.L151
	.long	.L149-.L151
	.long	.L149-.L151
	.long	.L149-.L151
	.long	.L149-.L151
	.long	.L149-.L151
	.long	.L149-.L151
	.long	.L149-.L151
	.long	.L149-.L151
	.long	.L149-.L151
	.long	.L149-.L151
	.long	.L149-.L151
	.long	.L149-.L151
	.long	.L167-.L151
	.long	.L166-.L151
	.long	.L165-.L151
	.long	.L164-.L151
	.long	.L163-.L151
	.long	.L162-.L151
	.long	.L161-.L151
	.long	.L149-.L151
	.long	.L149-.L151
	.long	.L160-.L151
	.long	.L149-.L151
	.long	.L149-.L151
	.long	.L159-.L151
	.long	.L149-.L151
	.long	.L158-.L151
	.long	.L149-.L151
	.long	.L157-.L151
	.long	.L156-.L151
	.long	.L155-.L151
	.long	.L154-.L151
	.long	.L149-.L151
	.long	.L153-.L151
	.long	.L152-.L151
	.long	.L149-.L151
	.long	.L150-.L151
	.text
.L149:
	.loc 1 396 7 is_stmt 1 view .LVU395
	call	quote@PLT
.LVL128:
	.loc 1 396 26 is_stmt 0 view .LVU396
	leaq	.LC16(%rip), %rsi
	xorl	%edi, %edi
	movl	$5, %edx
	.loc 1 396 7 view .LVU397
	movq	%rax, %rbp
	.loc 1 396 26 view .LVU398
	call	dcgettext@PLT
.LVL129:
	.loc 1 396 7 view .LVU399
	movq	%rbp, %rsi
	.loc 1 396 26 view .LVU400
	movq	%rax, %rdi
	.loc 1 396 7 view .LVU401
	xorl	%eax, %eax
	call	test_syntax_error
.LVL130:
	.p2align 4,,10
	.p2align 3
.L161:
	.loc 1 493 7 is_stmt 1 view .LVU402
	call	unary_advance
.LVL131:
	.loc 1 494 7 view .LVU403
.LBB206:
.LBI206:
	.loc 2 460 1 view .LVU404
.LBB207:
	.loc 2 462 3 view .LVU405
.LBE207:
.LBE206:
	.loc 1 494 26 is_stmt 0 view .LVU406
	movslq	pos(%rip), %rax
.LVL132:
.LBB209:
.LBB208:
	.loc 2 462 10 view .LVU407
	movq	%rsp, %rdx
	movl	$1, %edi
	movq	-8(%rbx,%rax,8), %rsi
	call	__lxstat@PLT
.LVL133:
	.loc 2 462 10 view .LVU408
	movl	%eax, %r8d
.LBE208:
.LBE209:
	xorl	%eax, %eax
	.loc 1 495 15 view .LVU409
	testl	%r8d, %r8d
	jne	.L148
	.loc 1 495 18 discriminator 1 view .LVU410
	movl	24(%rsp), %eax
	andl	$61440, %eax
	.loc 1 495 15 discriminator 1 view .LVU411
	cmpl	$40960, %eax
	sete	%al
	.p2align 4,,10
	.p2align 3
.L148:
	.loc 1 531 1 view .LVU412
	movq	152(%rsp), %rcx
	xorq	%fs:40, %rcx
	jne	.L208
	addq	$168, %rsp
	.cfi_remember_state
	.cfi_def_cfa_offset 24
	popq	%rbx
	.cfi_def_cfa_offset 16
	popq	%rbp
	.cfi_def_cfa_offset 8
	ret
	.p2align 4,,10
	.p2align 3
.L165:
	.cfi_restore_state
	.loc 1 460 7 is_stmt 1 view .LVU413
	call	unary_advance
.LVL134:
	.loc 1 461 7 view .LVU414
.LBB210:
.LBI210:
	.loc 2 453 1 view .LVU415
.LBB211:
	.loc 2 455 3 view .LVU416
.LBE211:
.LBE210:
	.loc 1 461 25 is_stmt 0 view .LVU417
	movslq	pos(%rip), %rax
.LVL135:
.LBB213:
.LBB212:
	.loc 2 455 10 view .LVU418
	movq	%rsp, %rdx
	movl	$1, %edi
	movq	-8(%rbx,%rax,8), %rsi
	call	__xstat@PLT
.LVL136:
	.loc 2 455 10 view .LVU419
	movl	%eax, %r8d
.LBE212:
.LBE213:
	xorl	%eax, %eax
	.loc 1 462 15 view .LVU420
	testl	%r8d, %r8d
	jne	.L148
	.loc 1 462 18 discriminator 1 view .LVU421
	movl	24(%rsp), %eax
	andl	$61440, %eax
	.loc 1 462 15 discriminator 1 view .LVU422
	cmpl	$16384, %eax
	sete	%al
	jmp	.L148
	.p2align 4,,10
	.p2align 3
.L167:
	.loc 1 480 7 is_stmt 1 view .LVU423
	call	unary_advance
.LVL137:
	.loc 1 481 7 view .LVU424
.LBB214:
.LBI214:
	.loc 2 453 1 view .LVU425
.LBB215:
	.loc 2 455 3 view .LVU426
.LBE215:
.LBE214:
	.loc 1 481 25 is_stmt 0 view .LVU427
	movslq	pos(%rip), %rax
.LVL138:
.LBB217:
.LBB216:
	.loc 2 455 10 view .LVU428
	movq	%rsp, %rdx
	movl	$1, %edi
	movq	-8(%rbx,%rax,8), %rsi
	call	__xstat@PLT
.LVL139:
	.loc 2 455 10 view .LVU429
	movl	%eax, %r8d
.LBE216:
.LBE217:
	xorl	%eax, %eax
	.loc 1 482 15 view .LVU430
	testl	%r8d, %r8d
	jne	.L148
	.loc 1 482 18 discriminator 1 view .LVU431
	movl	24(%rsp), %eax
	andl	$61440, %eax
	.loc 1 482 15 discriminator 1 view .LVU432
	cmpl	$24576, %eax
	sete	%al
	jmp	.L148
	.p2align 4,,10
	.p2align 3
.L168:
	.loc 1 470 7 is_stmt 1 view .LVU433
	call	unary_advance
.LVL140:
	.loc 1 471 7 view .LVU434
.LBB218:
.LBI218:
	.loc 2 453 1 view .LVU435
.LBB219:
	.loc 2 455 3 view .LVU436
.LBE219:
.LBE218:
	.loc 1 471 25 is_stmt 0 view .LVU437
	movslq	pos(%rip), %rax
.LVL141:
.LBB221:
.LBB220:
	.loc 2 455 10 view .LVU438
	movq	%rsp, %rdx
	movl	$1, %edi
	movq	-8(%rbx,%rax,8), %rsi
	call	__xstat@PLT
.LVL142:
	.loc 2 455 10 view .LVU439
	movl	%eax, %r8d
.LBE220:
.LBE221:
	xorl	%eax, %eax
	.loc 1 472 15 view .LVU440
	testl	%r8d, %r8d
	jne	.L148
	.loc 1 472 18 discriminator 1 view .LVU441
	movl	24(%rsp), %eax
	andl	$61440, %eax
	.loc 1 472 15 discriminator 1 view .LVU442
	cmpl	$49152, %eax
	sete	%al
	jmp	.L148
	.p2align 4,,10
	.p2align 3
.L166:
	.loc 1 475 7 is_stmt 1 view .LVU443
	call	unary_advance
.LVL143:
	.loc 1 476 7 view .LVU444
.LBB222:
.LBI222:
	.loc 2 453 1 view .LVU445
.LBB223:
	.loc 2 455 3 view .LVU446
.LBE223:
.LBE222:
	.loc 1 476 25 is_stmt 0 view .LVU447
	movslq	pos(%rip), %rax
.LVL144:
.LBB225:
.LBB224:
	.loc 2 455 10 view .LVU448
	movq	%rsp, %rdx
	movl	$1, %edi
	movq	-8(%rbx,%rax,8), %rsi
	call	__xstat@PLT
.LVL145:
	.loc 2 455 10 view .LVU449
	movl	%eax, %r8d
.LBE224:
.LBE225:
	xorl	%eax, %eax
	.loc 1 477 15 view .LVU450
	testl	%r8d, %r8d
	jne	.L148
	.loc 1 477 18 discriminator 1 view .LVU451
	movl	24(%rsp), %eax
	andl	$61440, %eax
	.loc 1 477 15 discriminator 1 view .LVU452
	cmpl	$8192, %eax
	sete	%al
	jmp	.L148
	.p2align 4,,10
	.p2align 3
.L170:
.LBB226:
	.loc 1 422 9 is_stmt 1 view .LVU453
	call	unary_advance
.LVL146:
	.loc 1 423 9 view .LVU454
.LBB227:
.LBI227:
	.loc 2 453 1 view .LVU455
.LBB228:
	.loc 2 455 3 view .LVU456
.LBE228:
.LBE227:
	.loc 1 423 23 is_stmt 0 view .LVU457
	movslq	pos(%rip), %rax
.LVL147:
.LBB230:
.LBB229:
	.loc 2 455 10 view .LVU458
	movq	%rsp, %rdx
	movl	$1, %edi
	movq	-8(%rbx,%rax,8), %rsi
	call	__xstat@PLT
.LVL148:
	.loc 2 455 10 view .LVU459
.LBE229:
.LBE230:
	.loc 1 423 12 view .LVU460
	testl	%eax, %eax
	jne	.L174
	.loc 1 425 9 is_stmt 1 view .LVU461
	movq	88(%rsp), %rax
	movq	72(%rsp), %rdi
.LBB231:
.LBB232:
	.loc 5 66 14 is_stmt 0 view .LVU462
	xorl	%edx, %edx
	movq	80(%rsp), %rcx
.LVL149:
	.loc 5 66 14 view .LVU463
.LBE232:
.LBE231:
.LBE226:
	.loc 3 121 3 is_stmt 1 view .LVU464
.LBB235:
	.loc 1 426 9 view .LVU465
	movq	96(%rsp), %rsi
.LVL150:
	.loc 1 426 9 is_stmt 0 view .LVU466
.LBE235:
	.loc 3 149 3 is_stmt 1 view .LVU467
.LBB236:
	.loc 1 427 9 view .LVU468
.LBB234:
.LBI231:
	.loc 5 64 1 view .LVU469
.LBB233:
	.loc 5 66 3 view .LVU470
	.loc 5 66 14 is_stmt 0 view .LVU471
	cmpq	%rax, %rdi
	setg	%al
.LVL151:
	.loc 5 66 14 view .LVU472
	setl	%dl
	movzbl	%al, %eax
	subl	%eax, %edx
	.loc 5 66 45 view .LVU473
	xorl	%eax, %eax
	cmpq	%rcx, %rsi
	setl	%cl
.LVL152:
	.loc 5 66 45 view .LVU474
	setg	%al
	movzbl	%cl, %ecx
	subl	%ecx, %eax
	.loc 5 66 43 view .LVU475
	leal	(%rax,%rdx,2), %eax
.LBE233:
.LBE234:
	.loc 1 427 45 view .LVU476
	testl	%eax, %eax
	setg	%al
	jmp	.L148
.LVL153:
	.p2align 4,,10
	.p2align 3
.L163:
	.loc 1 427 45 view .LVU477
.LBE236:
	.loc 1 453 7 is_stmt 1 view .LVU478
	call	unary_advance
.LVL154:
	.loc 1 456 7 view .LVU479
.LBB237:
.LBI237:
	.loc 2 453 1 view .LVU480
.LBB238:
	.loc 2 455 3 view .LVU481
.LBE238:
.LBE237:
	.loc 1 456 25 is_stmt 0 view .LVU482
	movslq	pos(%rip), %rax
.LVL155:
.LBB240:
.LBB239:
	.loc 2 455 10 view .LVU483
	movq	%rsp, %rdx
	movl	$1, %edi
	movq	-8(%rbx,%rax,8), %rsi
	call	__xstat@PLT
.LVL156:
	.loc 2 455 10 view .LVU484
	movl	%eax, %r8d
.LBE239:
.LBE240:
	xorl	%eax, %eax
	.loc 1 457 15 view .LVU485
	testl	%r8d, %r8d
	jne	.L148
	.loc 1 457 18 discriminator 1 view .LVU486
	movl	24(%rsp), %eax
	andl	$61440, %eax
	.loc 1 457 15 discriminator 1 view .LVU487
	cmpl	$32768, %eax
	sete	%al
	jmp	.L148
	.p2align 4,,10
	.p2align 3
.L156:
	.loc 1 465 7 is_stmt 1 view .LVU488
	call	unary_advance
.LVL157:
	.loc 1 466 7 view .LVU489
.LBB241:
.LBI241:
	.loc 2 453 1 view .LVU490
.LBB242:
	.loc 2 455 3 view .LVU491
.LBE242:
.LBE241:
	.loc 1 466 25 is_stmt 0 view .LVU492
	movslq	pos(%rip), %rax
.LVL158:
.LBB244:
.LBB243:
	.loc 2 455 10 view .LVU493
	movq	%rsp, %rdx
	movl	$1, %edi
	movq	-8(%rbx,%rax,8), %rsi
	call	__xstat@PLT
.LVL159:
	.loc 2 455 10 view .LVU494
	movl	%eax, %r8d
.LBE243:
.LBE244:
	xorl	%eax, %eax
	.loc 1 467 15 view .LVU495
	testl	%r8d, %r8d
	jne	.L148
	.loc 1 467 15 discriminator 1 view .LVU496
	cmpq	$0, 48(%rsp)
	setg	%al
	jmp	.L148
	.p2align 4,,10
	.p2align 3
.L157:
	.loc 1 409 7 is_stmt 1 view .LVU497
	call	unary_advance
.LVL160:
	.loc 1 410 7 view .LVU498
	.loc 1 410 30 is_stmt 0 view .LVU499
	movslq	pos(%rip), %rax
	.loc 1 410 14 view .LVU500
	movl	$4, %esi
	movq	-8(%rbx,%rax,8), %rdi
	call	euidaccess@PLT
.LVL161:
	.loc 1 410 47 view .LVU501
	testl	%eax, %eax
	sete	%al
	jmp	.L148
	.p2align 4,,10
	.p2align 3
.L158:
	.loc 1 485 7 is_stmt 1 view .LVU502
	call	unary_advance
.LVL162:
	.loc 1 486 7 view .LVU503
.LBB245:
.LBI245:
	.loc 2 453 1 view .LVU504
.LBB246:
	.loc 2 455 3 view .LVU505
.LBE246:
.LBE245:
	.loc 1 486 25 is_stmt 0 view .LVU506
	movslq	pos(%rip), %rax
.LVL163:
.LBB248:
.LBB247:
	.loc 2 455 10 view .LVU507
	movq	%rsp, %rdx
	movl	$1, %edi
	movq	-8(%rbx,%rax,8), %rsi
	call	__xstat@PLT
.LVL164:
	.loc 2 455 10 view .LVU508
	movl	%eax, %r8d
.LBE247:
.LBE248:
	xorl	%eax, %eax
	.loc 1 487 15 view .LVU509
	testl	%r8d, %r8d
	jne	.L148
	.loc 1 487 18 discriminator 1 view .LVU510
	movl	24(%rsp), %eax
	andl	$61440, %eax
	.loc 1 487 15 discriminator 1 view .LVU511
	cmpl	$4096, %eax
	sete	%al
	jmp	.L148
	.p2align 4,,10
	.p2align 3
.L155:
.LBB249:
	.loc 1 514 9 is_stmt 1 view .LVU512
	.loc 1 515 9 view .LVU513
	.loc 1 516 9 view .LVU514
	call	unary_advance
.LVL165:
	.loc 1 517 9 view .LVU515
	.loc 1 517 29 is_stmt 0 view .LVU516
	movslq	pos(%rip), %rax
	.loc 1 517 15 view .LVU517
	movq	-8(%rbx,%rax,8), %rdi
	call	find_int
.LVL166:
	movq	%rax, %rbp
.LVL167:
	.loc 1 518 9 is_stmt 1 view .LVU518
	call	__errno_location@PLT
.LVL168:
	.loc 1 519 14 is_stmt 0 view .LVU519
	xorl	%esi, %esi
	movq	%rbp, %rdi
	movl	$10, %edx
	.loc 1 518 15 view .LVU520
	movl	$0, (%rax)
	.loc 1 519 9 is_stmt 1 view .LVU521
	.loc 1 518 9 is_stmt 0 view .LVU522
	movq	%rax, %rbx
	.loc 1 519 14 view .LVU523
	call	strtol@PLT
.LVL169:
	movq	%rax, %rdi
.LVL170:
	.loc 1 520 9 is_stmt 1 view .LVU524
	xorl	%eax, %eax
.LVL171:
	.loc 1 520 61 is_stmt 0 view .LVU525
	cmpl	$34, (%rbx)
	je	.L148
	.loc 1 520 44 discriminator 1 view .LVU526
	cmpq	$2147483647, %rdi
	ja	.L148
	.loc 1 520 64 discriminator 3 view .LVU527
	call	isatty@PLT
.LVL172:
	.loc 1 520 61 discriminator 3 view .LVU528
	testl	%eax, %eax
	setne	%al
	jmp	.L148
.LVL173:
	.p2align 4,,10
	.p2align 3
.L150:
	.loc 1 520 61 discriminator 3 view .LVU529
.LBE249:
	.loc 1 528 7 is_stmt 1 view .LVU530
	call	unary_advance
.LVL174:
	.loc 1 529 7 view .LVU531
	.loc 1 529 18 is_stmt 0 view .LVU532
	movslq	pos(%rip), %rax
	.loc 1 529 27 view .LVU533
	movq	-8(%rbx,%rax,8), %rax
	.loc 1 529 31 view .LVU534
	cmpb	$0, (%rax)
	sete	%al
	jmp	.L148
	.p2align 4,,10
	.p2align 3
.L171:
.LBB250:
	.loc 1 443 9 is_stmt 1 view .LVU535
	call	unary_advance
.LVL175:
	.loc 1 444 9 view .LVU536
.LBB251:
.LBI251:
	.loc 2 453 1 view .LVU537
.LBB252:
	.loc 2 455 3 view .LVU538
.LBE252:
.LBE251:
	.loc 1 444 23 is_stmt 0 view .LVU539
	movslq	pos(%rip), %rax
.LVL176:
.LBB254:
.LBB253:
	.loc 2 455 10 view .LVU540
	movq	%rsp, %rdx
	movl	$1, %edi
	movq	-8(%rbx,%rax,8), %rsi
	call	__xstat@PLT
.LVL177:
	.loc 2 455 10 view .LVU541
.LBE253:
.LBE254:
	.loc 1 444 12 view .LVU542
	testl	%eax, %eax
	jne	.L174
	.loc 1 446 9 is_stmt 1 view .LVU543
	call	__errno_location@PLT
.LVL178:
	.loc 1 446 15 is_stmt 0 view .LVU544
	movl	$0, (%rax)
	.loc 1 447 9 is_stmt 1 view .LVU545
	.loc 1 446 9 is_stmt 0 view .LVU546
	movq	%rax, %rbx
	.loc 1 447 22 view .LVU547
	call	getegid@PLT
.LVL179:
	movl	%eax, %edx
.LVL180:
	.loc 1 448 9 is_stmt 1 view .LVU548
	.loc 1 449 9 view .LVU549
	.loc 1 449 44 is_stmt 0 view .LVU550
	cmpl	$-1, %eax
	je	.L209
.LVL181:
.L177:
	.loc 1 449 44 discriminator 3 view .LVU551
	cmpl	%edx, 32(%rsp)
	sete	%al
	jmp	.L148
.LVL182:
	.p2align 4,,10
	.p2align 3
.L169:
	.loc 1 449 44 discriminator 3 view .LVU552
.LBE250:
.LBB255:
	.loc 1 432 9 is_stmt 1 view .LVU553
	call	unary_advance
.LVL183:
	.loc 1 433 9 view .LVU554
.LBB256:
.LBI256:
	.loc 2 453 1 view .LVU555
.LBB257:
	.loc 2 455 3 view .LVU556
.LBE257:
.LBE256:
	.loc 1 433 23 is_stmt 0 view .LVU557
	movslq	pos(%rip), %rax
.LVL184:
.LBB259:
.LBB258:
	.loc 2 455 10 view .LVU558
	movq	%rsp, %rdx
	movl	$1, %edi
	movq	-8(%rbx,%rax,8), %rsi
	call	__xstat@PLT
.LVL185:
	.loc 2 455 10 view .LVU559
.LBE258:
.LBE259:
	.loc 1 433 12 view .LVU560
	testl	%eax, %eax
	jne	.L174
	.loc 1 435 9 is_stmt 1 view .LVU561
	call	__errno_location@PLT
.LVL186:
	.loc 1 435 15 is_stmt 0 view .LVU562
	movl	$0, (%rax)
	.loc 1 436 9 is_stmt 1 view .LVU563
	.loc 1 435 9 is_stmt 0 view .LVU564
	movq	%rax, %rbx
	.loc 1 436 22 view .LVU565
	call	geteuid@PLT
.LVL187:
	movl	%eax, %edx
.LVL188:
	.loc 1 437 9 is_stmt 1 view .LVU566
	.loc 1 438 9 view .LVU567
	.loc 1 438 44 is_stmt 0 view .LVU568
	cmpl	$-1, %eax
	je	.L210
.LVL189:
.L175:
	.loc 1 438 44 discriminator 3 view .LVU569
	cmpl	%edx, 28(%rsp)
	sete	%al
	jmp	.L148
.LVL190:
	.p2align 4,,10
	.p2align 3
.L153:
	.loc 1 438 44 discriminator 3 view .LVU570
.LBE255:
	.loc 1 413 7 is_stmt 1 view .LVU571
	call	unary_advance
.LVL191:
	.loc 1 414 7 view .LVU572
	.loc 1 414 30 is_stmt 0 view .LVU573
	movslq	pos(%rip), %rax
	.loc 1 414 14 view .LVU574
	movl	$2, %esi
	movq	-8(%rbx,%rax,8), %rdi
	call	euidaccess@PLT
.LVL192:
	.loc 1 414 47 view .LVU575
	testl	%eax, %eax
	sete	%al
	jmp	.L148
	.p2align 4,,10
	.p2align 3
.L154:
	.loc 1 498 7 is_stmt 1 view .LVU576
	call	unary_advance
.LVL193:
	.loc 1 499 7 view .LVU577
.LBB260:
.LBI260:
	.loc 2 453 1 view .LVU578
.LBB261:
	.loc 2 455 3 view .LVU579
.LBE261:
.LBE260:
	.loc 1 499 25 is_stmt 0 view .LVU580
	movslq	pos(%rip), %rax
.LVL194:
.LBB263:
.LBB262:
	.loc 2 455 10 view .LVU581
	movq	%rsp, %rdx
	movl	$1, %edi
	movq	-8(%rbx,%rax,8), %rsi
	call	__xstat@PLT
.LVL195:
	.loc 2 455 10 view .LVU582
	movl	%eax, %r8d
.LBE262:
.LBE263:
	xorl	%eax, %eax
	.loc 1 500 15 view .LVU583
	testl	%r8d, %r8d
	jne	.L148
	.loc 1 500 15 discriminator 1 view .LVU584
	movl	24(%rsp), %eax
	shrl	$11, %eax
	andl	$1, %eax
	jmp	.L148
	.p2align 4,,10
	.p2align 3
.L152:
	.loc 1 417 7 is_stmt 1 view .LVU585
	call	unary_advance
.LVL196:
	.loc 1 418 7 view .LVU586
	.loc 1 418 30 is_stmt 0 view .LVU587
	movslq	pos(%rip), %rax
	.loc 1 418 14 view .LVU588
	movl	$1, %esi
	movq	-8(%rbx,%rax,8), %rdi
	call	euidaccess@PLT
.LVL197:
	.loc 1 418 47 view .LVU589
	testl	%eax, %eax
	sete	%al
	jmp	.L148
	.p2align 4,,10
	.p2align 3
.L164:
	.loc 1 405 7 is_stmt 1 view .LVU590
	call	unary_advance
.LVL198:
	.loc 1 406 7 view .LVU591
.LBB264:
.LBI264:
	.loc 2 453 1 view .LVU592
.LBB265:
	.loc 2 455 3 view .LVU593
.LBE265:
.LBE264:
	.loc 1 406 24 is_stmt 0 view .LVU594
	movslq	pos(%rip), %rax
.LVL199:
.LBB267:
.LBB266:
	.loc 2 455 10 view .LVU595
	movq	%rsp, %rdx
	movl	$1, %edi
	movq	-8(%rbx,%rax,8), %rsi
	call	__xstat@PLT
.LVL200:
	.loc 2 455 10 view .LVU596
.LBE266:
.LBE267:
	.loc 1 406 46 view .LVU597
	testl	%eax, %eax
	sete	%al
	jmp	.L148
	.p2align 4,,10
	.p2align 3
.L159:
	.loc 1 524 7 is_stmt 1 view .LVU598
	call	unary_advance
.LVL201:
	.loc 1 525 7 view .LVU599
	.loc 1 525 18 is_stmt 0 view .LVU600
	movslq	pos(%rip), %rax
	.loc 1 525 27 view .LVU601
	movq	-8(%rbx,%rax,8), %rax
	.loc 1 525 31 view .LVU602
	cmpb	$0, (%rax)
	setne	%al
	jmp	.L148
	.p2align 4,,10
	.p2align 3
.L160:
	.loc 1 508 7 is_stmt 1 view .LVU603
	call	unary_advance
.LVL202:
	.loc 1 509 7 view .LVU604
.LBB268:
.LBI268:
	.loc 2 453 1 view .LVU605
.LBB269:
	.loc 2 455 3 view .LVU606
.LBE269:
.LBE268:
	.loc 1 509 25 is_stmt 0 view .LVU607
	movslq	pos(%rip), %rax
.LVL203:
.LBB271:
.LBB270:
	.loc 2 455 10 view .LVU608
	movq	%rsp, %rdx
	movl	$1, %edi
	movq	-8(%rbx,%rax,8), %rsi
	call	__xstat@PLT
.LVL204:
	.loc 2 455 10 view .LVU609
	movl	%eax, %r8d
.LBE270:
.LBE271:
	xorl	%eax, %eax
	.loc 1 510 15 view .LVU610
	testl	%r8d, %r8d
	jne	.L148
	.loc 1 510 15 discriminator 1 view .LVU611
	movl	24(%rsp), %eax
	shrl	$9, %eax
	andl	$1, %eax
	jmp	.L148
	.p2align 4,,10
	.p2align 3
.L162:
	.loc 1 503 7 is_stmt 1 view .LVU612
	call	unary_advance
.LVL205:
	.loc 1 504 7 view .LVU613
.LBB272:
.LBI272:
	.loc 2 453 1 view .LVU614
.LBB273:
	.loc 2 455 3 view .LVU615
.LBE273:
.LBE272:
	.loc 1 504 25 is_stmt 0 view .LVU616
	movslq	pos(%rip), %rax
.LVL206:
.LBB275:
.LBB274:
	.loc 2 455 10 view .LVU617
	movq	%rsp, %rdx
	movl	$1, %edi
	movq	-8(%rbx,%rax,8), %rsi
	call	__xstat@PLT
.LVL207:
	.loc 2 455 10 view .LVU618
	movl	%eax, %r8d
.LBE274:
.LBE275:
	xorl	%eax, %eax
	.loc 1 505 15 view .LVU619
	testl	%r8d, %r8d
	jne	.L148
	.loc 1 505 15 discriminator 1 view .LVU620
	movl	24(%rsp), %eax
	shrl	$10, %eax
	andl	$1, %eax
	jmp	.L148
	.p2align 4,,10
	.p2align 3
.L174:
.LBB276:
	.loc 1 424 18 view .LVU621
	xorl	%eax, %eax
	jmp	.L148
.LVL208:
.L209:
	.loc 1 424 18 view .LVU622
.LBE276:
.LBB277:
	.loc 1 449 16 discriminator 2 view .LVU623
	movl	(%rbx), %ecx
	xorl	%eax, %eax
.LVL209:
	.loc 1 449 16 discriminator 2 view .LVU624
	testl	%ecx, %ecx
	jne	.L148
	jmp	.L177
.LVL210:
.L210:
	.loc 1 449 16 discriminator 2 view .LVU625
.LBE277:
.LBB278:
	.loc 1 438 16 discriminator 2 view .LVU626
	movl	(%rbx), %esi
	xorl	%eax, %eax
.LVL211:
	.loc 1 438 16 discriminator 2 view .LVU627
	testl	%esi, %esi
	jne	.L148
	jmp	.L175
.LVL212:
.L208:
	.loc 1 438 16 discriminator 2 view .LVU628
.LBE278:
	.loc 1 531 1 view .LVU629
	call	__stack_chk_fail@PLT
.LVL213:
	.cfi_endproc
.LFE153:
	.size	unary_operator, .-unary_operator
	.p2align 4
	.type	two_arguments, @function
two_arguments:
.LFB158:
	.loc 1 592 1 is_stmt 1 view -0
	.cfi_startproc
	.loc 1 593 3 view .LVU631
	.loc 1 595 3 view .LVU632
	.loc 1 595 7 is_stmt 0 view .LVU633
	movslq	pos(%rip), %rax
	movq	argv(%rip), %rcx
	movq	%rax, %rdx
	leaq	0(,%rax,8), %rsi
	movq	(%rcx,%rax,8), %rax
	cmpb	$33, (%rax)
	jne	.L213
	.loc 1 595 6 view .LVU634
	cmpb	$0, 1(%rax)
	jne	.L213
	.loc 1 597 7 is_stmt 1 view .LVU635
.LVL214:
	.loc 1 106 3 view .LVU636
	.loc 1 108 3 view .LVU637
	.loc 1 598 7 view .LVU638
.LBB279:
.LBI279:
	.loc 1 585 1 view .LVU639
.LBB280:
	.loc 1 587 3 view .LVU640
	.loc 1 587 21 is_stmt 0 view .LVU641
	movq	8(%rcx,%rsi), %rax
	.loc 1 587 18 view .LVU642
	addl	$2, %edx
	movl	%edx, pos(%rip)
.LBE280:
.LBE279:
	.loc 1 598 7 view .LVU643
	cmpb	$0, (%rax)
	sete	%al
.LVL215:
	.loc 1 609 1 view .LVU644
	ret
.LVL216:
	.p2align 4,,10
	.p2align 3
.L213:
	.loc 1 600 8 is_stmt 1 view .LVU645
	.loc 1 600 11 is_stmt 0 view .LVU646
	cmpb	$45, (%rax)
	jne	.L215
	.loc 1 601 12 view .LVU647
	cmpb	$0, 1(%rax)
	je	.L215
	.loc 1 602 12 view .LVU648
	cmpb	$0, 2(%rax)
	jne	.L215
	.loc 1 604 7 is_stmt 1 view .LVU649
	.loc 1 604 15 is_stmt 0 view .LVU650
	jmp	unary_operator
.LVL217:
.L215:
	.loc 1 607 5 is_stmt 1 view .LVU651
	.loc 1 592 1 is_stmt 0 view .LVU652
	pushq	%rax
	.cfi_def_cfa_offset 16
	.loc 1 607 5 view .LVU653
	call	beyond
.LVL218:
	.cfi_endproc
.LFE158:
	.size	two_arguments, .-two_arguments
	.section	.text.unlikely
.LCOLDB17:
	.text
.LHOTB17:
	.p2align 4
	.type	posixtest, @function
posixtest:
.LVL219:
.LFB160:
	.loc 1 639 1 is_stmt 1 view -0
	.cfi_startproc
	.loc 1 640 3 view .LVU655
	.loc 1 642 3 view .LVU656
	.loc 1 639 1 is_stmt 0 view .LVU657
	subq	$8, %rsp
	.cfi_def_cfa_offset 16
	.loc 1 642 3 view .LVU658
	cmpl	$3, %edi
	je	.L220
	jg	.L221
	cmpl	$1, %edi
	je	.L222
	cmpl	$2, %edi
	jne	.L238
	.loc 1 649 9 is_stmt 1 view .LVU659
	.loc 1 679 1 is_stmt 0 view .LVU660
	addq	$8, %rsp
	.cfi_remember_state
	.cfi_def_cfa_offset 8
	.loc 1 649 17 view .LVU661
	jmp	two_arguments
.LVL220:
	.p2align 4,,10
	.p2align 3
.L221:
	.cfi_restore_state
	.loc 1 642 3 view .LVU662
	cmpl	$4, %edi
	jne	.L226
	.loc 1 657 9 is_stmt 1 view .LVU663
	.loc 1 657 13 is_stmt 0 view .LVU664
	movslq	pos(%rip), %rdx
	movq	argv(%rip), %rsi
	movq	%rdx, %rax
	leaq	0(,%rdx,8), %rdi
.LVL221:
	.loc 1 657 13 view .LVU665
	movq	(%rsi,%rdx,8), %rdx
	movzbl	(%rdx), %ecx
	cmpl	$33, %ecx
	jne	.L229
	.loc 1 657 12 view .LVU666
	cmpb	$0, 1(%rdx)
	jne	.L229
	.loc 1 659 13 is_stmt 1 view .LVU667
.LVL222:
.LBB291:
.LBI291:
	.loc 1 104 1 view .LVU668
.LBB292:
	.loc 1 106 3 view .LVU669
	addl	$1, %eax
	.loc 1 108 9 is_stmt 0 view .LVU670
	cmpl	argc(%rip), %eax
	.loc 1 106 3 view .LVU671
	movl	%eax, pos(%rip)
	.loc 1 108 3 is_stmt 1 view .LVU672
	.loc 1 108 9 is_stmt 0 view .LVU673
	jge	.L235
.LVL223:
	.loc 1 108 9 view .LVU674
.LBE292:
.LBE291:
	.loc 1 660 13 is_stmt 1 view .LVU675
	.loc 1 660 22 is_stmt 0 view .LVU676
	call	three_arguments
.LVL224:
	.loc 1 660 13 view .LVU677
	xorl	$1, %eax
.LVL225:
	.loc 1 661 13 is_stmt 1 view .LVU678
	jmp	.L219
.LVL226:
.L238:
	.loc 1 670 9 view .LVU679
	.loc 1 673 9 view .LVU680
	.loc 1 673 12 is_stmt 0 view .LVU681
	subl	$1, %edi
.LVL227:
	.loc 1 673 12 view .LVU682
	jne	.L234
	.p2align 4,,10
	.p2align 3
.L226:
	movl	pos(%rip), %eax
.L232:
	.loc 1 675 9 is_stmt 1 view .LVU683
.LBB295:
.LBI295:
	.loc 1 576 1 view .LVU684
.LBB296:
	.loc 1 578 3 view .LVU685
	.loc 1 578 6 is_stmt 0 view .LVU686
	cmpl	%eax, argc(%rip)
	jle	.L235
	.loc 1 581 3 is_stmt 1 view .LVU687
.LBE296:
.LBE295:
	.loc 1 679 1 is_stmt 0 view .LVU688
	addq	$8, %rsp
	.cfi_remember_state
	.cfi_def_cfa_offset 8
.LBB298:
.LBB297:
	.loc 1 581 10 view .LVU689
	jmp	or
.LVL228:
	.p2align 4,,10
	.p2align 3
.L222:
	.cfi_restore_state
	.loc 1 581 10 view .LVU690
.LBE297:
.LBE298:
	.loc 1 645 9 is_stmt 1 view .LVU691
.LBB299:
.LBI299:
	.loc 1 585 1 view .LVU692
.LBB300:
	.loc 1 587 3 view .LVU693
	.loc 1 587 18 is_stmt 0 view .LVU694
	movslq	pos(%rip), %rax
	leal	1(%rax), %edx
	movl	%edx, pos(%rip)
	.loc 1 587 21 view .LVU695
	movq	argv(%rip), %rdx
	movq	(%rdx,%rax,8), %rax
	.loc 1 587 25 view .LVU696
	cmpb	$0, (%rax)
	setne	%al
.LVL229:
	.loc 1 587 25 view .LVU697
.LBE300:
.LBE299:
	.loc 1 646 9 is_stmt 1 view .LVU698
.L219:
	.loc 1 679 1 is_stmt 0 view .LVU699
	addq	$8, %rsp
	.cfi_remember_state
	.cfi_def_cfa_offset 8
	ret
.LVL230:
	.p2align 4,,10
	.p2align 3
.L220:
	.cfi_restore_state
	.loc 1 653 9 is_stmt 1 view .LVU700
	.loc 1 679 1 is_stmt 0 view .LVU701
	addq	$8, %rsp
	.cfi_remember_state
	.cfi_def_cfa_offset 8
	.loc 1 653 17 view .LVU702
	jmp	three_arguments
.LVL231:
	.p2align 4,,10
	.p2align 3
.L229:
	.cfi_restore_state
	.loc 1 663 9 is_stmt 1 view .LVU703
	.loc 1 663 13 is_stmt 0 view .LVU704
	cmpl	$40, %ecx
	jne	.L232
	.loc 1 663 12 view .LVU705
	cmpb	$0, 1(%rdx)
	jne	.L232
	.loc 1 663 39 discriminator 1 view .LVU706
	movq	24(%rsi,%rdi), %rdx
	cmpb	$41, (%rdx)
	jne	.L232
	.loc 1 663 36 discriminator 1 view .LVU707
	cmpb	$0, 1(%rdx)
	jne	.L232
	.loc 1 665 13 is_stmt 1 view .LVU708
.LVL232:
.LBB301:
.LBI301:
	.loc 1 104 1 view .LVU709
.LBB302:
	.loc 1 106 3 view .LVU710
	addl	$1, %eax
	movl	%eax, pos(%rip)
	.loc 1 108 3 view .LVU711
.LVL233:
	.loc 1 108 3 is_stmt 0 view .LVU712
.LBE302:
.LBE301:
	.loc 1 666 13 is_stmt 1 view .LVU713
	.loc 1 666 21 is_stmt 0 view .LVU714
	call	two_arguments
.LVL234:
	.loc 1 667 13 is_stmt 1 view .LVU715
.LBB303:
.LBI303:
	.loc 1 104 1 view .LVU716
.LBB304:
	.loc 1 106 3 view .LVU717
	addl	$1, pos(%rip)
	.loc 1 108 3 view .LVU718
	jmp	.L219
.LVL235:
.L235:
	.loc 1 108 3 is_stmt 0 view .LVU719
.LBE304:
.LBE303:
.LBB305:
.LBB293:
	.loc 1 109 5 is_stmt 1 view .LVU720
	call	beyond
.LVL236:
.LBE293:
.LBE305:
	.cfi_endproc
	.section	.text.unlikely
	.cfi_startproc
	.type	posixtest.cold, @function
posixtest.cold:
.LFSB160:
.LBB306:
.LBB294:
.L234:
	.cfi_def_cfa_offset 16
.LBE294:
.LBE306:
	.loc 1 674 11 view .LVU389
	call	abort@PLT
.LVL237:
	.cfi_endproc
.LFE160:
	.text
	.size	posixtest, .-posixtest
	.section	.text.unlikely
	.size	posixtest.cold, .-posixtest.cold
.LCOLDE17:
	.text
.LHOTE17:
	.section	.rodata.str1.1
.LC18:
	.string	")"
.LC19:
	.string	"%s expected"
.LC20:
	.string	"%s expected, found %s"
	.text
	.p2align 4
	.type	or, @function
or:
.LFB155:
	.loc 1 559 1 view -0
	.cfi_startproc
	.loc 1 560 3 view .LVU723
.LVL238:
	.loc 1 559 1 is_stmt 0 view .LVU724
	pushq	%r15
	.cfi_def_cfa_offset 16
	.cfi_offset 15, -16
	pushq	%r14
	.cfi_def_cfa_offset 24
	.cfi_offset 14, -24
	pushq	%r13
	.cfi_def_cfa_offset 32
	.cfi_offset 13, -32
	pushq	%r12
	.cfi_def_cfa_offset 40
	.cfi_offset 12, -40
	pushq	%rbp
	.cfi_def_cfa_offset 48
	.cfi_offset 6, -48
	pushq	%rbx
	.cfi_def_cfa_offset 56
	.cfi_offset 3, -56
	subq	$40, %rsp
	.cfi_def_cfa_offset 96
	movl	pos(%rip), %edx
	movl	argc(%rip), %r12d
	.loc 1 560 8 view .LVU725
	movb	$0, 31(%rsp)
.LVL239:
	.p2align 4,,10
	.p2align 3
.L267:
	.loc 1 562 3 is_stmt 1 view .LVU726
	.loc 1 564 7 view .LVU727
.LBB324:
.LBI324:
	.loc 1 539 1 view .LVU728
.LBB325:
	.loc 1 541 3 view .LVU729
	.loc 1 541 8 is_stmt 0 view .LVU730
	movl	$1, %ebp
.LVL240:
	.loc 1 543 3 is_stmt 1 view .LVU731
	.loc 1 545 7 view .LVU732
.LBB326:
.LBI326:
	.loc 1 211 1 view .LVU733
.LBB327:
	.loc 1 213 3 view .LVU734
	.loc 1 214 3 view .LVU735
	.loc 1 217 3 view .LVU736
	.loc 1 217 9 view .LVU737
	cmpl	%r12d, %edx
	jge	.L240
	.p2align 4,,10
	.p2align 3
.L302:
	.loc 1 217 28 is_stmt 0 view .LVU738
	movq	argv(%rip), %rsi
	movslq	%edx, %rdx
	xorl	%eax, %eax
	.loc 1 214 8 view .LVU739
	xorl	%r13d, %r13d
	jmp	.L241
.LVL241:
	.p2align 4,,10
	.p2align 3
.L293:
	.loc 1 217 44 view .LVU740
	cmpb	$0, 1(%r14)
	jne	.L291
	.loc 1 219 7 is_stmt 1 view .LVU741
.LVL242:
.LBB328:
.LBI328:
	.loc 1 104 1 view .LVU742
.LBB329:
	.loc 1 106 3 view .LVU743
	addq	$1, %rdx
	addl	$1, %edi
	.loc 1 108 3 view .LVU744
	.loc 1 108 9 is_stmt 0 view .LVU745
	cmpl	%edx, %r12d
	jle	.L292
.LVL243:
	.loc 1 108 9 view .LVU746
.LBE329:
.LBE328:
	.loc 1 220 7 is_stmt 1 view .LVU747
	xorl	$1, %r13d
.LVL244:
	.loc 1 217 9 view .LVU748
	.loc 1 220 7 is_stmt 0 view .LVU749
	movl	$1, %eax
.LVL245:
.L241:
	.loc 1 217 28 view .LVU750
	movq	(%rsi,%rdx,8), %r14
	movl	%edx, %edi
	movl	%edx, %ebx
.LVL246:
	.loc 1 217 33 view .LVU751
	movzbl	(%r14), %r15d
	.loc 1 217 21 view .LVU752
	cmpb	$33, %r15b
	je	.L293
	testb	%al, %al
	je	.L271
	movl	%edx, pos(%rip)
.L271:
	.loc 1 223 3 is_stmt 1 view .LVU753
	.loc 1 227 3 view .LVU754
	.loc 1 227 6 is_stmt 0 view .LVU755
	cmpb	$40, %r15b
	jne	.L247
	.loc 1 227 27 view .LVU756
	cmpb	$0, 1(%r14)
	jne	.L247
.LBB331:
	.loc 1 229 7 is_stmt 1 view .LVU757
	.loc 1 231 7 view .LVU758
.LVL247:
.LBB332:
.LBI332:
	.loc 1 104 1 view .LVU759
.LBB333:
	.loc 1 106 3 view .LVU760
	leal	1(%rbx), %r8d
	movl	%r8d, pos(%rip)
	.loc 1 108 3 view .LVU761
	.loc 1 108 9 is_stmt 0 view .LVU762
	cmpl	%r12d, %r8d
	jge	.L240
.LVL248:
	.loc 1 108 9 view .LVU763
.LBE333:
.LBE332:
	.loc 1 234 12 is_stmt 1 view .LVU764
	.loc 1 234 16 is_stmt 0 view .LVU765
	addl	$2, %ebx
	.loc 1 233 7 view .LVU766
	cmpl	%r12d, %ebx
	jge	.L273
	movslq	%ebx, %rbx
	leal	-1(%r12), %eax
	.loc 1 233 18 view .LVU767
	movl	$1, %edi
	leaq	(%rsi,%rbx,8), %rsi
	subl	%edx, %eax
.LVL249:
.L249:
	.loc 1 234 36 view .LVU768
	movq	(%rsi), %rdx
	cmpb	$41, (%rdx)
	jne	.L252
	.loc 1 234 31 view .LVU769
	cmpb	$0, 1(%rdx)
	je	.L248
.L252:
	.loc 1 236 9 is_stmt 1 view .LVU770
	.loc 1 236 12 is_stmt 0 view .LVU771
	cmpl	$4, %edi
	je	.L294
	.loc 1 235 12 is_stmt 1 view .LVU772
	.loc 1 235 17 is_stmt 0 view .LVU773
	addl	$1, %edi
.LVL250:
	.loc 1 234 12 is_stmt 1 view .LVU774
	addq	$8, %rsi
	.loc 1 233 7 is_stmt 0 view .LVU775
	cmpl	%eax, %edi
	jne	.L249
.LVL251:
	.p2align 4,,10
	.p2align 3
.L248:
	.loc 1 242 7 is_stmt 1 view .LVU776
	.loc 1 242 15 is_stmt 0 view .LVU777
	call	posixtest
.LVL252:
	.loc 1 243 7 is_stmt 1 view .LVU778
	.loc 1 243 15 is_stmt 0 view .LVU779
	movslq	pos(%rip), %rsi
	movq	argv(%rip), %rcx
	movq	%rsi, %rdx
	movq	(%rcx,%rsi,8), %rsi
	.loc 1 243 10 view .LVU780
	testq	%rsi, %rsi
	je	.L295
	.loc 1 246 9 is_stmt 1 view .LVU781
	.loc 1 246 12 is_stmt 0 view .LVU782
	cmpb	$41, (%rsi)
	jne	.L254
	.loc 1 246 33 view .LVU783
	cmpb	$0, 1(%rsi)
	jne	.L254
	.loc 1 249 7 is_stmt 1 view .LVU784
.LVL253:
.LBB335:
.LBI335:
	.loc 1 104 1 view .LVU785
.LBB336:
	.loc 1 106 3 view .LVU786
	addl	$1, %edx
	movl	argc(%rip), %r12d
	movl	%edx, pos(%rip)
	.loc 1 108 3 view .LVU787
.LVL254:
.L256:
	.loc 1 108 3 is_stmt 0 view .LVU788
.LBE336:
.LBE335:
.LBE331:
	.loc 1 267 3 is_stmt 1 view .LVU789
	.loc 1 267 18 is_stmt 0 view .LVU790
	xorl	%r13d, %eax
	andl	%eax, %ebp
.LVL255:
	.loc 1 267 18 view .LVU791
.LBE327:
.LBE326:
	.loc 1 546 7 is_stmt 1 view .LVU792
	.loc 1 546 10 is_stmt 0 view .LVU793
	cmpl	%r12d, %edx
	jge	.L263
.L301:
	.loc 1 546 28 view .LVU794
	movq	argv(%rip), %rsi
	movslq	%edx, %rax
	movq	(%rsi,%rax,8), %rax
	movzbl	(%rax), %esi
	cmpl	$45, %esi
	je	.L296
.L265:
	.loc 1 547 9 is_stmt 1 view .LVU795
.LVL256:
	.loc 1 547 9 is_stmt 0 view .LVU796
.LBE325:
.LBE324:
	.loc 1 564 13 view .LVU797
	orb	%bpl, 31(%rsp)
.LVL257:
	.loc 1 565 7 is_stmt 1 view .LVU798
	.loc 1 565 28 is_stmt 0 view .LVU799
	cmpl	$45, %esi
	je	.L297
.L239:
	.loc 1 569 1 view .LVU800
	movzbl	31(%rsp), %eax
	addq	$40, %rsp
	.cfi_remember_state
	.cfi_def_cfa_offset 56
	popq	%rbx
	.cfi_def_cfa_offset 48
	popq	%rbp
	.cfi_def_cfa_offset 40
	popq	%r12
	.cfi_def_cfa_offset 32
	popq	%r13
	.cfi_def_cfa_offset 24
	popq	%r14
	.cfi_def_cfa_offset 16
	popq	%r15
	.cfi_def_cfa_offset 8
	ret
.LVL258:
	.p2align 4,,10
	.p2align 3
.L291:
	.cfi_restore_state
	.loc 1 569 1 view .LVU801
	testb	%al, %al
	je	.L247
	movl	%edx, pos(%rip)
.L247:
.LBB359:
.LBB356:
.LBB350:
.LBB346:
	.loc 1 253 8 is_stmt 1 view .LVU802
	.loc 1 253 22 is_stmt 0 view .LVU803
	movl	%r12d, %eax
	subl	%ebx, %eax
	.loc 1 253 11 view .LVU804
	cmpl	$3, %eax
	jle	.L258
	.loc 1 253 31 view .LVU805
	cmpb	$45, (%r14)
	jne	.L260
	cmpb	$108, 1(%r14)
	jne	.L260
	.loc 1 253 28 view .LVU806
	cmpb	$0, 2(%r14)
	jne	.L260
	.loc 1 253 58 view .LVU807
	movq	16(%rsi,%rdx,8), %rdi
	movq	%rsi, 16(%rsp)
	movq	%rdx, 8(%rsp)
	call	binop
.LVL259:
	.loc 1 253 55 view .LVU808
	movq	8(%rsp), %rdx
	movq	16(%rsp), %rsi
	testb	%al, %al
	jne	.L298
.L260:
	.loc 1 255 31 view .LVU809
	movq	8(%rsi,%rdx,8), %rdi
	call	binop
.LVL260:
	.loc 1 255 28 view .LVU810
	testb	%al, %al
	jne	.L299
	.loc 1 259 8 is_stmt 1 view .LVU811
	.loc 1 259 11 is_stmt 0 view .LVU812
	cmpb	$45, %r15b
	je	.L300
.L262:
	.loc 1 263 7 is_stmt 1 view .LVU813
	.loc 1 263 13 is_stmt 0 view .LVU814
	testb	%r15b, %r15b
.LBB338:
.LBB339:
	.loc 1 106 3 view .LVU815
	leal	1(%rbx), %edx
.LBE339:
.LBE338:
	.loc 1 263 13 view .LVU816
	setne	%al
.LVL261:
	.loc 1 264 7 is_stmt 1 view .LVU817
.LBB341:
.LBI338:
	.loc 1 104 1 view .LVU818
.LBB340:
	.loc 1 106 3 view .LVU819
	movl	%edx, pos(%rip)
	.loc 1 108 3 view .LVU820
.LVL262:
	.loc 1 108 3 is_stmt 0 view .LVU821
.LBE340:
.LBE341:
	.loc 1 267 3 is_stmt 1 view .LVU822
	.loc 1 267 18 is_stmt 0 view .LVU823
	xorl	%r13d, %eax
	andl	%eax, %ebp
.LVL263:
	.loc 1 267 18 view .LVU824
.LBE346:
.LBE350:
	.loc 1 546 7 is_stmt 1 view .LVU825
	.loc 1 546 10 is_stmt 0 view .LVU826
	cmpl	%r12d, %edx
	jl	.L301
.L263:
	.loc 1 547 9 is_stmt 1 view .LVU827
.LVL264:
	.loc 1 547 9 is_stmt 0 view .LVU828
.LBE356:
.LBE359:
	.loc 1 564 13 view .LVU829
	orb	%bpl, 31(%rsp)
.LVL265:
	.loc 1 565 7 is_stmt 1 view .LVU830
	jmp	.L239
.LVL266:
	.p2align 4,,10
	.p2align 3
.L258:
.LBB360:
.LBB357:
.LBB351:
.LBB347:
	.loc 1 255 8 view .LVU831
	.loc 1 255 11 is_stmt 0 view .LVU832
	je	.L260
	.loc 1 259 8 is_stmt 1 view .LVU833
	.loc 1 259 11 is_stmt 0 view .LVU834
	cmpb	$45, %r15b
	jne	.L262
.L300:
	.loc 1 259 32 view .LVU835
	cmpb	$0, 1(%r14)
	je	.L262
	.loc 1 259 48 view .LVU836
	cmpb	$0, 2(%r14)
	jne	.L262
	.loc 1 260 5 is_stmt 1 view .LVU837
	.loc 1 260 13 is_stmt 0 view .LVU838
	call	unary_operator
.LVL267:
	.loc 1 260 13 view .LVU839
	movl	pos(%rip), %edx
	movl	argc(%rip), %r12d
	.loc 1 260 11 view .LVU840
	jmp	.L256
.LVL268:
	.p2align 4,,10
	.p2align 3
.L296:
	.loc 1 260 11 view .LVU841
.LBE347:
.LBE351:
	.loc 1 546 28 view .LVU842
	cmpb	$97, 1(%rax)
	jne	.L265
	.loc 1 546 11 view .LVU843
	cmpb	$0, 2(%rax)
	jne	.L265
	.loc 1 548 7 is_stmt 1 view .LVU844
.LVL269:
.LBB352:
.LBI352:
	.loc 1 104 1 view .LVU845
.LBB353:
	.loc 1 106 3 view .LVU846
	addl	$1, %edx
	movl	%edx, pos(%rip)
	.loc 1 108 3 view .LVU847
.LVL270:
	.loc 1 108 3 is_stmt 0 view .LVU848
.LBE353:
.LBE352:
	.loc 1 543 3 is_stmt 1 view .LVU849
	.loc 1 545 7 view .LVU850
.LBB354:
	.loc 1 211 1 view .LVU851
.LBB348:
	.loc 1 213 3 view .LVU852
	.loc 1 214 3 view .LVU853
	.loc 1 217 3 view .LVU854
	.loc 1 217 9 view .LVU855
	cmpl	%r12d, %edx
	jl	.L302
.LVL271:
.L240:
.LBB342:
.LBB337:
.LBB334:
	.loc 1 109 5 view .LVU856
	call	beyond
.LVL272:
	.p2align 4,,10
	.p2align 3
.L294:
	.loc 1 109 5 is_stmt 0 view .LVU857
.LBE334:
.LBE337:
	.loc 1 238 13 is_stmt 1 view .LVU858
	.loc 1 238 19 is_stmt 0 view .LVU859
	movl	%r12d, %edi
.LVL273:
	.loc 1 238 19 view .LVU860
	subl	%r8d, %edi
.LVL274:
	.loc 1 239 13 is_stmt 1 view .LVU861
	jmp	.L248
.LVL275:
	.p2align 4,,10
	.p2align 3
.L299:
	.loc 1 239 13 is_stmt 0 view .LVU862
.LBE342:
	.loc 1 256 5 is_stmt 1 view .LVU863
	.loc 1 256 13 is_stmt 0 view .LVU864
	xorl	%edi, %edi
	call	binary_operator
.LVL276:
	.loc 1 256 13 view .LVU865
	movl	pos(%rip), %edx
	movl	argc(%rip), %r12d
	.loc 1 256 11 view .LVU866
	jmp	.L256
.LVL277:
	.p2align 4,,10
	.p2align 3
.L298:
	.loc 1 254 5 is_stmt 1 view .LVU867
	.loc 1 254 13 is_stmt 0 view .LVU868
	movl	$1, %edi
	call	binary_operator
.LVL278:
	.loc 1 254 13 view .LVU869
	movl	pos(%rip), %edx
	movl	argc(%rip), %r12d
	.loc 1 254 11 view .LVU870
	jmp	.L256
.LVL279:
	.p2align 4,,10
	.p2align 3
.L297:
	.loc 1 254 11 view .LVU871
.LBE348:
.LBE354:
.LBE357:
.LBE360:
	.loc 1 565 28 view .LVU872
	cmpb	$111, 1(%rax)
	jne	.L239
	.loc 1 565 11 view .LVU873
	cmpb	$0, 2(%rax)
	jne	.L239
	.loc 1 567 7 is_stmt 1 view .LVU874
.LVL280:
.LBB361:
.LBI361:
	.loc 1 104 1 view .LVU875
.LBB362:
	.loc 1 106 3 view .LVU876
	addl	$1, %edx
	movl	%edx, pos(%rip)
	.loc 1 108 3 view .LVU877
	.loc 1 110 1 is_stmt 0 view .LVU878
	jmp	.L267
.LVL281:
	.p2align 4,,10
	.p2align 3
.L273:
	.loc 1 110 1 view .LVU879
.LBE362:
.LBE361:
.LBB363:
.LBB358:
.LBB355:
.LBB349:
.LBB343:
	.loc 1 233 18 view .LVU880
	movl	$1, %edi
	jmp	.L248
.LVL282:
	.p2align 4,,10
	.p2align 3
.L292:
	.loc 1 233 18 view .LVU881
	movl	%edi, pos(%rip)
.LBE343:
.LBB344:
.LBB330:
	.loc 1 109 5 is_stmt 1 view .LVU882
	call	beyond
.LVL283:
.L254:
	.loc 1 109 5 is_stmt 0 view .LVU883
.LBE330:
.LBE344:
.LBB345:
	.loc 1 247 11 is_stmt 1 view .LVU884
	movl	$1, %edi
	call	quote_n@PLT
.LVL284:
	.loc 1 247 11 is_stmt 0 view .LVU885
	leaq	.LC18(%rip), %rsi
	xorl	%edi, %edi
	movq	%rax, %r12
	call	quote_n@PLT
.LVL285:
	.loc 1 247 30 view .LVU886
	movl	$5, %edx
	leaq	.LC20(%rip), %rsi
	xorl	%edi, %edi
	.loc 1 247 11 view .LVU887
	movq	%rax, %rbp
.LVL286:
	.loc 1 247 30 view .LVU888
	call	dcgettext@PLT
.LVL287:
	.loc 1 247 11 view .LVU889
	movq	%r12, %rdx
	movq	%rbp, %rsi
	.loc 1 247 30 view .LVU890
	movq	%rax, %rdi
	.loc 1 247 11 view .LVU891
	xorl	%eax, %eax
	call	test_syntax_error
.LVL288:
.L295:
	.loc 1 244 9 is_stmt 1 view .LVU892
	leaq	.LC18(%rip), %rdi
	call	quote@PLT
.LVL289:
	.loc 1 244 28 is_stmt 0 view .LVU893
	leaq	.LC19(%rip), %rsi
	xorl	%edi, %edi
	movl	$5, %edx
	.loc 1 244 9 view .LVU894
	movq	%rax, %rbp
.LVL290:
	.loc 1 244 28 view .LVU895
	call	dcgettext@PLT
.LVL291:
	.loc 1 244 9 view .LVU896
	movq	%rbp, %rsi
	.loc 1 244 28 view .LVU897
	movq	%rax, %rdi
	.loc 1 244 9 view .LVU898
	xorl	%eax, %eax
	call	test_syntax_error
.LVL292:
.LBE345:
.LBE349:
.LBE355:
.LBE358:
.LBE363:
	.cfi_endproc
.LFE155:
	.size	or, .-or
	.section	.rodata.str1.1
.LC21:
	.string	"%s: binary operator expected"
	.text
	.p2align 4
	.type	three_arguments, @function
three_arguments:
.LFB159:
	.loc 1 613 1 is_stmt 1 view -0
	.cfi_startproc
	.loc 1 614 3 view .LVU900
	.loc 1 616 3 view .LVU901
	.loc 1 613 1 is_stmt 0 view .LVU902
	pushq	%r14
	.cfi_def_cfa_offset 16
	.cfi_offset 14, -16
	pushq	%r13
	.cfi_def_cfa_offset 24
	.cfi_offset 13, -24
	pushq	%r12
	.cfi_def_cfa_offset 32
	.cfi_offset 12, -32
	.loc 1 616 18 view .LVU903
	movq	argv(%rip), %r12
	.loc 1 613 1 view .LVU904
	pushq	%rbp
	.cfi_def_cfa_offset 40
	.cfi_offset 6, -40
	pushq	%rbx
	.cfi_def_cfa_offset 48
	.cfi_offset 3, -48
	.loc 1 616 18 view .LVU905
	movslq	pos(%rip), %rbx
	movq	%rbx, %rbp
	addq	$1, %rbx
	.loc 1 616 7 view .LVU906
	movq	(%r12,%rbx,8), %r13
	movq	%r13, %rdi
	call	binop
.LVL293:
	.loc 1 616 6 view .LVU907
	testb	%al, %al
	jne	.L322
	leaq	0(,%rbx,8), %r14
	.loc 1 618 8 is_stmt 1 view .LVU908
	.loc 1 618 12 is_stmt 0 view .LVU909
	movq	-8(%r12,%r14), %rax
	movzbl	(%rax), %edx
	cmpl	$33, %edx
	jne	.L306
	.loc 1 618 11 view .LVU910
	cmpb	$0, 1(%rax)
	jne	.L306
	.loc 1 620 7 is_stmt 1 view .LVU911
.LVL294:
.LBB374:
.LBI374:
	.loc 1 104 1 view .LVU912
.LBB375:
	.loc 1 106 3 view .LVU913
	addl	$1, %ebp
	.loc 1 108 9 is_stmt 0 view .LVU914
	cmpl	argc(%rip), %ebp
	.loc 1 106 3 view .LVU915
	movl	%ebp, pos(%rip)
	.loc 1 108 3 is_stmt 1 view .LVU916
	.loc 1 108 9 is_stmt 0 view .LVU917
	jge	.L316
.LVL295:
	.loc 1 108 9 view .LVU918
.LBE375:
.LBE374:
	.loc 1 621 7 is_stmt 1 view .LVU919
	.loc 1 621 16 is_stmt 0 view .LVU920
	call	two_arguments
.LVL296:
	.loc 1 621 7 view .LVU921
	xorl	$1, %eax
.LVL297:
.L303:
	.loc 1 634 1 view .LVU922
	popq	%rbx
	.cfi_remember_state
	.cfi_def_cfa_offset 40
	popq	%rbp
	.cfi_def_cfa_offset 32
	popq	%r12
	.cfi_def_cfa_offset 24
	popq	%r13
	.cfi_def_cfa_offset 16
	popq	%r14
	.cfi_def_cfa_offset 8
	ret
.LVL298:
	.p2align 4,,10
	.p2align 3
.L306:
	.cfi_restore_state
	.loc 1 623 8 is_stmt 1 view .LVU923
	.loc 1 623 12 is_stmt 0 view .LVU924
	cmpl	$40, %edx
	jne	.L310
	.loc 1 623 11 view .LVU925
	cmpb	$0, 1(%rax)
	jne	.L310
	.loc 1 623 38 discriminator 1 view .LVU926
	movq	8(%r12,%r14), %rax
	cmpb	$41, (%rax)
	jne	.L310
	.loc 1 623 35 discriminator 1 view .LVU927
	cmpb	$0, 1(%rax)
	jne	.L310
	.loc 1 625 7 is_stmt 1 view .LVU928
.LVL299:
	.loc 1 106 3 view .LVU929
	.loc 1 108 3 view .LVU930
	.loc 1 626 7 view .LVU931
.LBB377:
.LBI377:
	.loc 1 585 1 view .LVU932
.LBB378:
	.loc 1 587 3 view .LVU933
	.loc 1 587 21 is_stmt 0 view .LVU934
	movq	(%r12,%rbx,8), %rax
	.loc 1 587 25 view .LVU935
	cmpb	$0, (%rax)
	setne	%al
.LVL300:
	.loc 1 587 25 view .LVU936
.LBE378:
.LBE377:
	.loc 1 627 7 is_stmt 1 view .LVU937
.LBB379:
.LBI379:
	.loc 1 104 1 view .LVU938
.LBB380:
	.loc 1 106 3 view .LVU939
	addl	$3, %ebp
	movl	%ebp, pos(%rip)
	.loc 1 108 3 view .LVU940
	jmp	.L303
.LVL301:
	.p2align 4,,10
	.p2align 3
.L310:
	.loc 1 108 3 is_stmt 0 view .LVU941
.LBE380:
.LBE379:
	.loc 1 629 8 is_stmt 1 view .LVU942
	.loc 1 629 12 is_stmt 0 view .LVU943
	movzbl	0(%r13), %eax
	cmpl	$45, %eax
	jne	.L315
	cmpb	$97, 1(%r13)
	je	.L323
.L317:
	.loc 1 629 43 discriminator 1 view .LVU944
	cmpl	$45, %eax
	jne	.L315
	cmpb	$111, 1(%r13)
	je	.L324
.L315:
	.loc 1 632 5 is_stmt 1 view .LVU945
	movq	%r13, %rdi
	call	quote@PLT
.LVL302:
	.loc 1 632 24 is_stmt 0 view .LVU946
	leaq	.LC21(%rip), %rsi
	xorl	%edi, %edi
	movl	$5, %edx
	.loc 1 632 5 view .LVU947
	movq	%rax, %rbp
	.loc 1 632 24 view .LVU948
	call	dcgettext@PLT
.LVL303:
	.loc 1 632 5 view .LVU949
	movq	%rbp, %rsi
	.loc 1 632 24 view .LVU950
	movq	%rax, %rdi
	.loc 1 632 5 view .LVU951
	xorl	%eax, %eax
	call	test_syntax_error
.LVL304:
	.p2align 4,,10
	.p2align 3
.L322:
	.loc 1 617 5 is_stmt 1 view .LVU952
	.loc 1 634 1 is_stmt 0 view .LVU953
	popq	%rbx
	.cfi_remember_state
	.cfi_def_cfa_offset 40
	.loc 1 617 13 view .LVU954
	xorl	%edi, %edi
	.loc 1 634 1 view .LVU955
	popq	%rbp
	.cfi_def_cfa_offset 32
	popq	%r12
	.cfi_def_cfa_offset 24
	popq	%r13
	.cfi_def_cfa_offset 16
	popq	%r14
	.cfi_def_cfa_offset 8
	.loc 1 617 13 view .LVU956
	jmp	binary_operator
.LVL305:
	.p2align 4,,10
	.p2align 3
.L323:
	.cfi_restore_state
	.loc 1 629 11 view .LVU957
	cmpb	$0, 2(%r13)
	jne	.L317
.L313:
	.loc 1 630 5 is_stmt 1 view .LVU958
.LBB381:
.LBI381:
	.loc 1 576 1 view .LVU959
.LBB382:
	.loc 1 578 3 view .LVU960
	.loc 1 578 6 is_stmt 0 view .LVU961
	cmpl	argc(%rip), %ebp
	jge	.L316
	.loc 1 581 3 is_stmt 1 view .LVU962
.LBE382:
.LBE381:
	.loc 1 634 1 is_stmt 0 view .LVU963
	popq	%rbx
	.cfi_remember_state
	.cfi_def_cfa_offset 40
	popq	%rbp
	.cfi_def_cfa_offset 32
	popq	%r12
	.cfi_def_cfa_offset 24
	popq	%r13
	.cfi_def_cfa_offset 16
	popq	%r14
	.cfi_def_cfa_offset 8
.LBB384:
.LBB383:
	.loc 1 581 10 view .LVU964
	jmp	or
.LVL306:
	.p2align 4,,10
	.p2align 3
.L324:
	.cfi_restore_state
.LBE383:
.LBE384:
	.loc 1 629 40 discriminator 1 view .LVU965
	cmpb	$0, 2(%r13)
	je	.L313
	jmp	.L315
.L316:
.LBB385:
.LBB376:
	.loc 1 109 5 is_stmt 1 view .LVU966
	call	beyond
.LVL307:
.LBE376:
.LBE385:
	.cfi_endproc
.LFE159:
	.size	three_arguments, .-three_arguments
	.section	.rodata.str1.1
.LC22:
	.string	"test"
.LC23:
	.string	" invocation"
.LC24:
	.string	""
	.section	.rodata.str1.8,"aMS",@progbits,1
	.align 8
.LC25:
	.string	"Try '%s --help' for more information.\n"
	.align 8
.LC26:
	.string	"Usage: test EXPRESSION\n  or:  test\n  or:  [ EXPRESSION ]\n  or:  [ ]\n  or:  [ OPTION\n"
	.align 8
.LC27:
	.string	"Exit with the status determined by EXPRESSION.\n\n"
	.align 8
.LC28:
	.string	"      --help     display this help and exit\n"
	.align 8
.LC29:
	.string	"      --version  output version information and exit\n"
	.align 8
.LC30:
	.string	"\nAn omitted EXPRESSION defaults to false.  Otherwise,\nEXPRESSION is true or false and sets exit status.  It is one of:\n"
	.align 8
.LC31:
	.string	"\n  ( EXPRESSION )               EXPRESSION is true\n  ! EXPRESSION                 EXPRESSION is false\n  EXPRESSION1 -a EXPRESSION2   both EXPRESSION1 and EXPRESSION2 are true\n  EXPRESSION1 -o EXPRESSION2   either EXPRESSION1 or EXPRESSION2 is true\n"
	.align 8
.LC32:
	.string	"\n  -n STRING            the length of STRING is nonzero\n  STRING               equivalent to -n STRING\n  -z STRING            the length of STRING is zero\n  STRING1 = STRING2    the strings are equal\n  STRING1 != STRING2   the strings are not equal\n"
	.align 8
.LC33:
	.ascii	"\n  INTEGER1 -eq INTEGER2   INTEGER1 is equal to INTEGER2\n "
	.ascii	" INTEGER1 -ge INTEGER2   INTEGER1 is greater than or equal t"
	.ascii	"o"
	.string	" INTEGER2\n  INTEGER1 -gt INTEGER2   INTEGER1 is greater than INTEGER2\n  INTEGER1 -le INTEGER2   INTEGER1 is less than or equal to INTEGER2\n  INTEGER1 -lt INTEGER2   INTEGER1 is less than INTEGER2\n  INTEGER1 -ne INTEGER2   INTEGER1 is not equal to INTEGER2\n"
	.align 8
.LC34:
	.string	"\n  FILE1 -ef FILE2   FILE1 and FILE2 have the same device and inode numbers\n  FILE1 -nt FILE2   FILE1 is newer (modification date) than FILE2\n  FILE1 -ot FILE2   FILE1 is older than FILE2\n"
	.align 8
.LC35:
	.string	"\n  -b FILE     FILE exists and is block special\n  -c FILE     FILE exists and is character special\n  -d FILE     FILE exists and is a directory\n  -e FILE     FILE exists\n"
	.align 8
.LC36:
	.ascii	"  -f FILE     FILE"
	.string	" exists and is a regular file\n  -g FILE     FILE exists and is set-group-ID\n  -G FILE     FILE exists and is owned by the effective group ID\n  -h FILE     FILE exists and is a symbolic link (same as -L)\n  -k FILE     FILE exists and has its sticky bit set\n"
	.align 8
.LC37:
	.ascii	"  -L FILE     FILE exists and is a symbolic link (same as -h"
	.ascii	")\n  -N FILE     FILE exists and has been mo"
	.string	"dified since it was last read\n  -O FILE     FILE exists and is owned by the effective user ID\n  -p FILE     FILE exists and is a named pipe\n  -r FILE     FILE exists and read permission is granted\n  -s FILE     FILE exists and has a size greater than zero\n"
	.align 8
.LC38:
	.ascii	"  -S FILE     FILE exists and "
	.string	"is a socket\n  -t FD       file descriptor FD is opened on a terminal\n  -u FILE     FILE exists and its set-user-ID bit is set\n  -w FILE     FILE exists and write permission is granted\n  -x FILE     FILE exists and execute (or search) permission is granted\n"
	.align 8
.LC39:
	.string	"\nExcept for -h and -L, all FILE-related tests dereference symbolic links.\nBeware that parentheses need to be escaped (e.g., by backslashes) for shells.\nINTEGER may also be -l STRING, which evaluates to the length of STRING.\n"
	.align 8
.LC40:
	.string	"\nNOTE: Binary -a and -o are inherently ambiguous.  Use 'test EXPR1 && test\nEXPR2' or 'test EXPR1 || test EXPR2' instead.\n"
	.align 8
.LC41:
	.string	"\nNOTE: [ honors the --help and --version options, but test does not.\ntest treats each of those as it treats any other nonempty STRING.\n"
	.section	.rodata.str1.1
.LC42:
	.string	"test and/or ["
	.section	.rodata.str1.8
	.align 8
.LC43:
	.string	"\nNOTE: your shell may have its own version of %s, which usually supersedes\nthe version described here.  Please refer to your shell's documentation\nfor details about the options it supports.\n"
	.section	.rodata.str1.1
.LC44:
	.string	"["
.LC45:
	.string	"test invocation"
.LC46:
	.string	"coreutils"
.LC47:
	.string	"Multi-call invocation"
.LC48:
	.string	"sha224sum"
.LC49:
	.string	"sha2 utilities"
.LC50:
	.string	"sha256sum"
.LC51:
	.string	"sha384sum"
.LC52:
	.string	"sha512sum"
.LC53:
	.string	"\n%s online help: <%s>\n"
	.section	.rodata.str1.8
	.align 8
.LC54:
	.string	"https://www.gnu.org/software/coreutils/"
	.section	.rodata.str1.1
.LC55:
	.string	"GNU coreutils"
.LC56:
	.string	"en_"
	.section	.rodata.str1.8
	.align 8
.LC57:
	.string	"Report any translation bugs to <https://translationproject.org/team/>\n"
	.section	.rodata.str1.1
.LC58:
	.string	"Full documentation <%s%s>\n"
	.section	.rodata.str1.8
	.align 8
.LC59:
	.string	"or available locally via: info '(coreutils) %s%s'\n"
	.text
	.p2align 4
	.globl	usage
	.type	usage, @function
usage:
.LVL308:
.LFB161:
	.loc 1 685 1 view -0
	.cfi_startproc
	.loc 1 685 1 is_stmt 0 view .LVU968
	endbr64
	pushq	%r13
	.cfi_def_cfa_offset 16
	.cfi_offset 13, -16
	pushq	%r12
	.cfi_def_cfa_offset 24
	.cfi_offset 12, -24
	pushq	%rbp
	.cfi_def_cfa_offset 32
	.cfi_offset 6, -32
	movl	%edi, %ebp
	pushq	%rbx
	.cfi_def_cfa_offset 40
	.cfi_offset 3, -40
	subq	$136, %rsp
	.cfi_def_cfa_offset 176
	.loc 1 685 1 view .LVU969
	movq	%fs:40, %rax
	movq	%rax, 120(%rsp)
	xorl	%eax, %eax
	.loc 1 686 3 is_stmt 1 view .LVU970
	.loc 1 686 6 is_stmt 0 view .LVU971
	testl	%edi, %edi
	je	.L326
	.loc 1 687 5 is_stmt 1 view .LVU972
	.loc 1 687 5 view .LVU973
	movq	program_name(%rip), %r12
	movl	$5, %edx
	leaq	.LC25(%rip), %rsi
	xorl	%edi, %edi
.LVL309:
	.loc 1 687 5 is_stmt 0 view .LVU974
	call	dcgettext@PLT
.LVL310:
.LBB398:
.LBB399:
	.file 6 "/usr/include/x86_64-linux-gnu/bits/stdio2.h"
	.loc 6 100 10 view .LVU975
	movq	stderr(%rip), %rdi
	movl	$1, %esi
.LBE399:
.LBE398:
	.loc 1 687 5 view .LVU976
	movq	%rax, %rdx
.LVL311:
.LBB401:
.LBI398:
	.loc 6 98 1 is_stmt 1 view .LVU977
.LBB400:
	.loc 6 100 3 view .LVU978
	.loc 6 100 10 is_stmt 0 view .LVU979
	movq	%r12, %rcx
	xorl	%eax, %eax
.LVL312:
	.loc 6 100 10 view .LVU980
	call	__fprintf_chk@PLT
.LVL313:
.L327:
	.loc 6 100 10 view .LVU981
.LBE400:
.LBE401:
	.loc 1 786 3 is_stmt 1 view .LVU982
	movl	%ebp, %edi
	call	exit@PLT
.LVL314:
.L326:
	.loc 1 690 7 view .LVU983
	movq	stdout(%rip), %r12
	movl	$5, %edx
	xorl	%edi, %edi
.LVL315:
	.loc 1 690 7 is_stmt 0 view .LVU984
	leaq	.LC26(%rip), %rsi
	call	dcgettext@PLT
.LVL316:
.LBB402:
.LBB403:
	.loc 4 636 67 view .LVU985
	leaq	.LC50(%rip), %rbx
.LBE403:
.LBE402:
	.loc 1 690 7 view .LVU986
	movq	%r12, %rsi
	movq	%rax, %rdi
	call	fputs_unlocked@PLT
.LVL317:
	.loc 1 697 7 is_stmt 1 view .LVU987
	movq	stdout(%rip), %r12
	xorl	%edi, %edi
	movl	$5, %edx
	leaq	.LC27(%rip), %rsi
	call	dcgettext@PLT
.LVL318:
	movq	%r12, %rsi
	movq	%rax, %rdi
	call	fputs_unlocked@PLT
.LVL319:
	.loc 1 701 7 view .LVU988
	movq	stdout(%rip), %r12
	xorl	%edi, %edi
	movl	$5, %edx
	leaq	.LC28(%rip), %rsi
	call	dcgettext@PLT
.LVL320:
	movq	%r12, %rsi
	movq	%rax, %rdi
	call	fputs_unlocked@PLT
.LVL321:
	.loc 1 702 7 view .LVU989
	movq	stdout(%rip), %r12
	xorl	%edi, %edi
	movl	$5, %edx
	leaq	.LC29(%rip), %rsi
	call	dcgettext@PLT
.LVL322:
	movq	%r12, %rsi
	movq	%rax, %rdi
	call	fputs_unlocked@PLT
.LVL323:
	.loc 1 703 7 view .LVU990
	movq	stdout(%rip), %r12
	xorl	%edi, %edi
	movl	$5, %edx
	leaq	.LC30(%rip), %rsi
	call	dcgettext@PLT
.LVL324:
	movq	%r12, %rsi
	movq	%rax, %rdi
	call	fputs_unlocked@PLT
.LVL325:
	.loc 1 708 7 view .LVU991
	movq	stdout(%rip), %r12
	xorl	%edi, %edi
	movl	$5, %edx
	leaq	.LC31(%rip), %rsi
	call	dcgettext@PLT
.LVL326:
	movq	%r12, %rsi
	movq	%rax, %rdi
	call	fputs_unlocked@PLT
.LVL327:
	.loc 1 715 7 view .LVU992
	movq	stdout(%rip), %r12
	xorl	%edi, %edi
	movl	$5, %edx
	leaq	.LC32(%rip), %rsi
	call	dcgettext@PLT
.LVL328:
	movq	%r12, %rsi
	movq	%rax, %rdi
	call	fputs_unlocked@PLT
.LVL329:
	.loc 1 723 7 view .LVU993
	movq	stdout(%rip), %r12
	xorl	%edi, %edi
	movl	$5, %edx
	leaq	.LC33(%rip), %rsi
	call	dcgettext@PLT
.LVL330:
	movq	%r12, %rsi
	movq	%rax, %rdi
	call	fputs_unlocked@PLT
.LVL331:
	.loc 1 732 7 view .LVU994
	movq	stdout(%rip), %r12
	xorl	%edi, %edi
	movl	$5, %edx
	leaq	.LC34(%rip), %rsi
	call	dcgettext@PLT
.LVL332:
	movq	%r12, %rsi
	movq	%rax, %rdi
	call	fputs_unlocked@PLT
.LVL333:
	.loc 1 738 7 view .LVU995
	movq	stdout(%rip), %r12
	xorl	%edi, %edi
	movl	$5, %edx
	leaq	.LC35(%rip), %rsi
	call	dcgettext@PLT
.LVL334:
	movq	%r12, %rsi
	movq	%rax, %rdi
	call	fputs_unlocked@PLT
.LVL335:
	.loc 1 745 7 view .LVU996
	movq	stdout(%rip), %r12
	xorl	%edi, %edi
	movl	$5, %edx
	leaq	.LC36(%rip), %rsi
	call	dcgettext@PLT
.LVL336:
	movq	%r12, %rsi
	movq	%rax, %rdi
	call	fputs_unlocked@PLT
.LVL337:
	.loc 1 752 7 view .LVU997
	movq	stdout(%rip), %r12
	movl	$5, %edx
	xorl	%edi, %edi
	leaq	.LC37(%rip), %rsi
	call	dcgettext@PLT
.LVL338:
	movq	%r12, %rsi
	movq	%rax, %rdi
	call	fputs_unlocked@PLT
.LVL339:
	.loc 1 760 7 view .LVU998
	movq	stdout(%rip), %r12
	movl	$5, %edx
	xorl	%edi, %edi
	leaq	.LC38(%rip), %rsi
	call	dcgettext@PLT
.LVL340:
	movq	%r12, %rsi
	movq	%rax, %rdi
	call	fputs_unlocked@PLT
.LVL341:
	.loc 1 767 7 view .LVU999
	movq	stdout(%rip), %r12
	movl	$5, %edx
	xorl	%edi, %edi
	leaq	.LC39(%rip), %rsi
	call	dcgettext@PLT
.LVL342:
	movq	%r12, %rsi
	movq	%rax, %rdi
	call	fputs_unlocked@PLT
.LVL343:
	.loc 1 773 7 view .LVU1000
	movq	stdout(%rip), %r12
	movl	$5, %edx
	xorl	%edi, %edi
	leaq	.LC40(%rip), %rsi
	call	dcgettext@PLT
.LVL344:
	movq	%r12, %rsi
	movq	%rax, %rdi
	call	fputs_unlocked@PLT
.LVL345:
	.loc 1 778 7 view .LVU1001
	movq	stdout(%rip), %r12
	movl	$5, %edx
	xorl	%edi, %edi
	leaq	.LC41(%rip), %rsi
	call	dcgettext@PLT
.LVL346:
	movq	%r12, %rsi
	movq	%rax, %rdi
	call	fputs_unlocked@PLT
.LVL347:
	.loc 1 783 7 view .LVU1002
	movl	$5, %edx
	leaq	.LC42(%rip), %rsi
	xorl	%edi, %edi
	call	dcgettext@PLT
.LVL348:
	.loc 1 783 15 is_stmt 0 view .LVU1003
	movl	$5, %edx
	leaq	.LC43(%rip), %rsi
	xorl	%edi, %edi
	.loc 1 783 7 view .LVU1004
	movq	%rax, %r12
	.loc 1 783 15 view .LVU1005
	call	dcgettext@PLT
.LVL349:
.LBB429:
.LBB430:
	.loc 6 107 10 view .LVU1006
	movq	%r12, %rdx
	movl	$1, %edi
.LBE430:
.LBE429:
	.loc 1 783 15 view .LVU1007
	movq	%rax, %rsi
.LVL350:
.LBB432:
.LBI429:
	.loc 6 105 1 is_stmt 1 view .LVU1008
.LBB431:
	.loc 6 107 3 view .LVU1009
	.loc 6 107 10 is_stmt 0 view .LVU1010
	xorl	%eax, %eax
.LVL351:
	.loc 6 107 10 view .LVU1011
	call	__printf_chk@PLT
.LVL352:
	.loc 6 107 10 view .LVU1012
.LBE431:
.LBE432:
	.loc 1 784 7 is_stmt 1 view .LVU1013
.LBB433:
.LBI402:
	.loc 4 634 1 view .LVU1014
.LBB428:
	.loc 4 636 3 view .LVU1015
	.loc 4 636 67 is_stmt 0 view .LVU1016
	leaq	.LC44(%rip), %rax
	movq	%rbx, 48(%rsp)
	leaq	.LC51(%rip), %rbx
	movq	%rax, (%rsp)
	leaq	.LC45(%rip), %rax
	movq	%rax, 8(%rsp)
	leaq	.LC46(%rip), %rax
	movq	%rax, 16(%rsp)
	leaq	.LC47(%rip), %rax
	movq	%rax, 24(%rsp)
	leaq	.LC48(%rip), %rax
	movq	$0, 96(%rsp)
	movq	$0, 104(%rsp)
	.loc 4 646 3 is_stmt 1 view .LVU1017
.LVL353:
	.loc 4 647 3 view .LVU1018
	.loc 4 649 3 view .LVU1019
	.loc 4 649 9 view .LVU1020
	.loc 4 636 67 is_stmt 0 view .LVU1021
	movq	%rax, 32(%rsp)
	leaq	.LC49(%rip), %rax
	movq	%rbx, 64(%rsp)
	leaq	.LC52(%rip), %rbx
	movq	%rax, 40(%rsp)
	movq	%rax, 56(%rsp)
	movq	%rax, 72(%rsp)
	movq	%rbx, 80(%rsp)
	leaq	.LC22(%rip), %rbx
	movq	%rax, 88(%rsp)
	.loc 4 647 25 view .LVU1022
	movq	%rsp, %rax
.LVL354:
	.p2align 4,,10
	.p2align 3
.L329:
	.loc 4 650 5 is_stmt 1 view .LVU1023
	.loc 4 649 18 is_stmt 0 view .LVU1024
	movq	16(%rax), %rdi
	.loc 4 650 13 view .LVU1025
	addq	$16, %rax
.LVL355:
	.loc 4 649 9 is_stmt 1 view .LVU1026
	testq	%rdi, %rdi
	je	.L328
	.loc 4 649 33 is_stmt 0 view .LVU1027
	movl	$5, %ecx
	movq	%rbx, %rsi
	repz cmpsb
	seta	%dl
	sbbb	$0, %dl
	.loc 4 649 28 view .LVU1028
	testb	%dl, %dl
	jne	.L329
.L328:
	.loc 4 652 3 is_stmt 1 view .LVU1029
	.loc 4 652 15 is_stmt 0 view .LVU1030
	movq	8(%rax), %r12
	.loc 4 655 11 view .LVU1031
	movl	$5, %edx
	leaq	.LC53(%rip), %rsi
	xorl	%edi, %edi
	.loc 4 652 6 view .LVU1032
	testq	%r12, %r12
	je	.L330
	.loc 4 653 5 is_stmt 1 view .LVU1033
.LVL356:
	.loc 4 655 3 view .LVU1034
	.loc 4 655 11 is_stmt 0 view .LVU1035
	call	dcgettext@PLT
.LVL357:
.LBB404:
.LBB405:
	.loc 6 107 10 view .LVU1036
	leaq	.LC54(%rip), %rcx
	movl	$1, %edi
	leaq	.LC55(%rip), %rdx
.LBE405:
.LBE404:
	.loc 4 655 11 view .LVU1037
	movq	%rax, %rsi
.LVL358:
.LBB409:
.LBI404:
	.loc 6 105 1 is_stmt 1 view .LVU1038
.LBB406:
	.loc 6 107 3 view .LVU1039
	.loc 6 107 10 is_stmt 0 view .LVU1040
	xorl	%eax, %eax
.LVL359:
	.loc 6 107 10 view .LVU1041
	call	__printf_chk@PLT
.LVL360:
	.loc 6 107 10 view .LVU1042
.LBE406:
.LBE409:
	.loc 4 659 3 is_stmt 1 view .LVU1043
	.loc 4 659 29 is_stmt 0 view .LVU1044
	movl	$5, %edi
	xorl	%esi, %esi
	call	setlocale@PLT
.LVL361:
	movq	%rax, %rdi
.LVL362:
	.loc 4 660 3 is_stmt 1 view .LVU1045
	.loc 4 660 6 is_stmt 0 view .LVU1046
	testq	%rax, %rax
	je	.L331
	.loc 4 660 22 view .LVU1047
	movl	$3, %edx
	leaq	.LC56(%rip), %rsi
	call	strncmp@PLT
.LVL363:
	.loc 4 660 19 view .LVU1048
	testl	%eax, %eax
	jne	.L334
.LVL364:
.L331:
	.loc 4 669 3 is_stmt 1 view .LVU1049
	.loc 4 669 11 is_stmt 0 view .LVU1050
	xorl	%edi, %edi
	movl	$5, %edx
	leaq	.LC58(%rip), %rsi
	call	dcgettext@PLT
.LVL365:
.LBB410:
.LBB411:
	.loc 6 107 10 view .LVU1051
	leaq	.LC22(%rip), %rcx
	leaq	.LC54(%rip), %rdx
	movl	$1, %edi
.LBE411:
.LBE410:
	.loc 4 669 11 view .LVU1052
	movq	%rax, %rsi
.LVL366:
.LBB417:
.LBI410:
	.loc 6 105 1 is_stmt 1 view .LVU1053
.LBB412:
	.loc 6 107 3 view .LVU1054
	.loc 6 107 10 is_stmt 0 view .LVU1055
	xorl	%eax, %eax
.LVL367:
	.loc 6 107 10 view .LVU1056
.LBE412:
.LBE417:
	.loc 4 671 3 view .LVU1057
	leaq	.LC23(%rip), %r13
.LBB418:
.LBB413:
	.loc 6 107 10 view .LVU1058
	call	__printf_chk@PLT
.LVL368:
	.loc 6 107 10 view .LVU1059
.LBE413:
.LBE418:
	.loc 4 671 3 is_stmt 1 view .LVU1060
	cmpq	%rbx, %r12
	leaq	.LC24(%rip), %rcx
	cmovne	%rcx, %r13
.L332:
	.loc 4 671 11 is_stmt 0 view .LVU1061
	xorl	%edi, %edi
	leaq	.LC59(%rip), %rsi
	movl	$5, %edx
	call	dcgettext@PLT
.LVL369:
.LBB419:
.LBB420:
	.loc 6 107 10 view .LVU1062
	movq	%r13, %rcx
	movq	%r12, %rdx
	movl	$1, %edi
.LBE420:
.LBE419:
	.loc 4 671 11 view .LVU1063
	movq	%rax, %rsi
.LVL370:
.LBB422:
.LBI419:
	.loc 6 105 1 is_stmt 1 view .LVU1064
.LBB421:
	.loc 6 107 3 view .LVU1065
	.loc 6 107 10 is_stmt 0 view .LVU1066
	xorl	%eax, %eax
.LVL371:
	.loc 6 107 10 view .LVU1067
	call	__printf_chk@PLT
.LVL372:
	.loc 6 107 10 view .LVU1068
.LBE421:
.LBE422:
	.loc 4 673 1 view .LVU1069
	jmp	.L327
.LVL373:
.L330:
	.loc 4 655 3 is_stmt 1 view .LVU1070
	.loc 4 655 11 is_stmt 0 view .LVU1071
	call	dcgettext@PLT
.LVL374:
.LBB423:
.LBB407:
	.loc 6 107 10 view .LVU1072
	leaq	.LC54(%rip), %rcx
	movl	$1, %edi
	leaq	.LC55(%rip), %rdx
.LBE407:
.LBE423:
	.loc 4 655 11 view .LVU1073
	movq	%rax, %rsi
.LVL375:
.LBB424:
	.loc 6 105 1 is_stmt 1 view .LVU1074
.LBB408:
	.loc 6 107 3 view .LVU1075
	.loc 6 107 10 is_stmt 0 view .LVU1076
	xorl	%eax, %eax
.LVL376:
	.loc 6 107 10 view .LVU1077
	call	__printf_chk@PLT
.LVL377:
	.loc 6 107 10 view .LVU1078
.LBE408:
.LBE424:
	.loc 4 659 3 is_stmt 1 view .LVU1079
	.loc 4 659 29 is_stmt 0 view .LVU1080
	movl	$5, %edi
	xorl	%esi, %esi
	call	setlocale@PLT
.LVL378:
	movq	%rax, %rdi
.LVL379:
	.loc 4 660 3 is_stmt 1 view .LVU1081
	.loc 4 660 6 is_stmt 0 view .LVU1082
	testq	%rax, %rax
	je	.L333
	.loc 4 660 22 view .LVU1083
	movl	$3, %edx
	leaq	.LC56(%rip), %rsi
	call	strncmp@PLT
.LVL380:
	.loc 4 660 19 view .LVU1084
	testl	%eax, %eax
	jne	.L352
.L333:
	.loc 4 669 3 is_stmt 1 view .LVU1085
	.loc 4 669 11 is_stmt 0 view .LVU1086
	movl	$5, %edx
	leaq	.LC58(%rip), %rsi
	xorl	%edi, %edi
	call	dcgettext@PLT
.LVL381:
.LBB425:
.LBB414:
	.loc 6 107 10 view .LVU1087
	leaq	.LC22(%rip), %rcx
	leaq	.LC54(%rip), %rdx
	movl	$1, %edi
.LBE414:
.LBE425:
	.loc 4 669 11 view .LVU1088
	movq	%rax, %rsi
.LVL382:
.LBB426:
	.loc 6 105 1 is_stmt 1 view .LVU1089
.LBB415:
	.loc 6 107 3 view .LVU1090
	.loc 6 107 10 is_stmt 0 view .LVU1091
	xorl	%eax, %eax
.LVL383:
	.loc 6 107 10 view .LVU1092
.LBE415:
.LBE426:
	.loc 4 646 15 view .LVU1093
	leaq	.LC22(%rip), %r12
.LBB427:
.LBB416:
	.loc 6 107 10 view .LVU1094
	call	__printf_chk@PLT
.LVL384:
	.loc 6 107 10 view .LVU1095
.LBE416:
.LBE427:
	.loc 4 671 3 is_stmt 1 view .LVU1096
	leaq	.LC23(%rip), %r13
	jmp	.L332
.L352:
	.loc 4 646 15 is_stmt 0 view .LVU1097
	leaq	.LC22(%rip), %r12
.LVL385:
.L334:
	.loc 4 666 7 is_stmt 1 view .LVU1098
	movq	stdout(%rip), %r13
	xorl	%edi, %edi
	movl	$5, %edx
	leaq	.LC57(%rip), %rsi
	call	dcgettext@PLT
.LVL386:
	movq	%rax, %rdi
	movq	%r13, %rsi
	call	fputs_unlocked@PLT
.LVL387:
	jmp	.L331
.LBE428:
.LBE433:
	.cfi_endproc
.LFE161:
	.size	usage, .-usage
	.section	.rodata.str1.1
.LC60:
	.string	"/usr/local/share/locale"
.LC61:
	.string	"extra argument %s"
	.section	.text.startup,"ax",@progbits
	.p2align 4
	.globl	main
	.type	main, @function
main:
.LVL388:
.LFB162:
	.loc 1 806 1 view -0
	.cfi_startproc
	.loc 1 806 1 is_stmt 0 view .LVU1100
	endbr64
	.loc 1 807 3 is_stmt 1 view .LVU1101
	.loc 1 817 35 view .LVU1102
	.loc 1 818 3 view .LVU1103
	.loc 1 806 1 is_stmt 0 view .LVU1104
	pushq	%rbp
	.cfi_def_cfa_offset 16
	.cfi_offset 6, -16
	movq	%rsi, %rbp
	pushq	%rbx
	.cfi_def_cfa_offset 24
	.cfi_offset 3, -24
	movl	%edi, %ebx
	subq	$8, %rsp
	.cfi_def_cfa_offset 32
	.loc 1 818 3 view .LVU1105
	movq	(%rsi), %rdi
.LVL389:
	.loc 1 818 3 view .LVU1106
	call	set_program_name@PLT
.LVL390:
	.loc 1 819 3 is_stmt 1 view .LVU1107
	leaq	.LC24(%rip), %rsi
	movl	$6, %edi
	call	setlocale@PLT
.LVL391:
	.loc 1 820 3 view .LVU1108
	leaq	.LC60(%rip), %rsi
	leaq	.LC46(%rip), %rdi
	call	bindtextdomain@PLT
.LVL392:
	.loc 1 821 3 view .LVU1109
	leaq	.LC46(%rip), %rdi
	call	textdomain@PLT
.LVL393:
	.loc 1 823 3 view .LVU1110
.LBB434:
.LBI434:
	.loc 4 99 1 view .LVU1111
.LBB435:
	.loc 4 101 3 view .LVU1112
	.loc 4 102 5 view .LVU1113
.LBE435:
.LBE434:
	.loc 1 824 3 is_stmt 0 view .LVU1114
	movq	close_stdout@GOTPCREL(%rip), %rdi
.LBB437:
.LBB436:
	.loc 4 102 18 view .LVU1115
	movl	$2, exit_failure(%rip)
.LVL394:
	.loc 4 102 18 view .LVU1116
.LBE436:
.LBE437:
	.loc 1 824 3 is_stmt 1 view .LVU1117
	call	atexit@PLT
.LVL395:
	.loc 1 827 3 view .LVU1118
	.loc 1 827 8 is_stmt 0 view .LVU1119
	movq	%rbp, argv(%rip)
	.loc 1 829 3 is_stmt 1 view .LVU1120
	.loc 1 855 3 view .LVU1121
	.loc 1 855 8 is_stmt 0 view .LVU1122
	movl	%ebx, argc(%rip)
	.loc 1 856 3 is_stmt 1 view .LVU1123
	.loc 1 856 7 is_stmt 0 view .LVU1124
	movl	$1, pos(%rip)
	.loc 1 858 3 is_stmt 1 view .LVU1125
	.loc 1 858 6 is_stmt 0 view .LVU1126
	cmpl	$1, %ebx
	jle	.L356
	.loc 1 861 3 is_stmt 1 view .LVU1127
	.loc 1 861 11 is_stmt 0 view .LVU1128
	leal	-1(%rbx), %edi
	call	posixtest
.LVL396:
	.loc 1 863 3 is_stmt 1 view .LVU1129
	.loc 1 863 11 is_stmt 0 view .LVU1130
	movslq	pos(%rip), %rdx
	.loc 1 863 6 view .LVU1131
	cmpl	argc(%rip), %edx
	jne	.L358
	.loc 1 866 3 is_stmt 1 view .LVU1132
	xorl	$1, %eax
.LVL397:
	.loc 1 866 3 is_stmt 0 view .LVU1133
	movzbl	%al, %eax
.L353:
	.loc 1 867 1 view .LVU1134
	addq	$8, %rsp
	.cfi_remember_state
	.cfi_def_cfa_offset 24
	popq	%rbx
	.cfi_def_cfa_offset 16
.LVL398:
	.loc 1 867 1 view .LVU1135
	popq	%rbp
	.cfi_def_cfa_offset 8
.LVL399:
	.loc 1 867 1 view .LVU1136
	ret
.LVL400:
.L356:
	.cfi_restore_state
	.loc 1 859 5 view .LVU1137
	movl	$1, %eax
	jmp	.L353
.LVL401:
.L358:
	.loc 1 864 5 is_stmt 1 view .LVU1138
	movq	argv(%rip), %rax
.LVL402:
	.loc 1 864 5 is_stmt 0 view .LVU1139
	movq	(%rax,%rdx,8), %rdi
	call	quote@PLT
.LVL403:
	.loc 1 864 24 view .LVU1140
	leaq	.LC61(%rip), %rsi
	xorl	%edi, %edi
	movl	$5, %edx
	.loc 1 864 5 view .LVU1141
	movq	%rax, %rbp
.LVL404:
	.loc 1 864 24 view .LVU1142
	call	dcgettext@PLT
.LVL405:
	.loc 1 864 5 view .LVU1143
	movq	%rbp, %rsi
	.loc 1 864 24 view .LVU1144
	movq	%rax, %rdi
	.loc 1 864 5 view .LVU1145
	xorl	%eax, %eax
	call	test_syntax_error
.LVL406:
	.cfi_endproc
.LFE162:
	.size	main, .-main
	.section	.rodata
	.align 16
	.type	zero.7160, @object
	.size	zero.7160, 16
zero.7160:
	.zero	16
	.local	argv
	.comm	argv,8,8
	.local	argc
	.comm	argc,4,4
	.local	pos
	.comm	pos,4,4
	.text
.Letext0:
	.section	.text.unlikely
.Letext_cold0:
	.file 7 "/usr/lib/gcc/x86_64-linux-gnu/9/include/stddef.h"
	.file 8 "/usr/lib/gcc/x86_64-linux-gnu/9/include/stdarg.h"
	.file 9 "<built-in>"
	.file 10 "/usr/include/x86_64-linux-gnu/bits/types.h"
	.file 11 "/usr/include/x86_64-linux-gnu/bits/types/struct_FILE.h"
	.file 12 "/usr/include/x86_64-linux-gnu/bits/types/FILE.h"
	.file 13 "/usr/include/stdio.h"
	.file 14 "/usr/include/x86_64-linux-gnu/bits/sys_errlist.h"
	.file 15 "/usr/include/x86_64-linux-gnu/sys/types.h"
	.file 16 "/usr/include/x86_64-linux-gnu/bits/types/time_t.h"
	.file 17 "/usr/include/x86_64-linux-gnu/bits/types/struct_timespec.h"
	.file 18 "./lib/sys/select.h"
	.file 19 "/usr/include/time.h"
	.file 20 "/usr/include/x86_64-linux-gnu/bits/stat.h"
	.file 21 "/usr/include/signal.h"
	.file 22 "/usr/include/unistd.h"
	.file 23 "/usr/include/x86_64-linux-gnu/bits/getopt_core.h"
	.file 24 "/usr/include/errno.h"
	.file 25 "src/version.h"
	.file 26 "./lib/exitfail.h"
	.file 27 "/usr/include/stdint.h"
	.file 28 "/usr/include/ctype.h"
	.file 29 "./lib/version-etc.h"
	.file 30 "./lib/progname.h"
	.file 31 "./lib/quotearg.h"
	.file 32 "./lib/quote.h"
	.file 33 "./lib/error.h"
	.file 34 "/usr/include/locale.h"
	.file 35 "/usr/include/libintl.h"
	.file 36 "/usr/include/stdlib.h"
	.file 37 "/usr/include/string.h"
	.file 38 "./lib/inttostr.h"
	.file 39 "./lib/strnumcmp.h"
	.file 40 "./lib/verror.h"
	.section	.note.GNU-stack,"",@progbits
	.section	.note.gnu.property,"a"
	.align 8
	.long	 1f - 0f
	.long	 4f - 1f
	.long	 5
0:
	.string	 "GNU"
1:
	.align 8
	.long	 0xc0000002
	.long	 3f - 2f
2:
	.long	 0x3
3:
	.align 8
4:
