	.file	"tr.c"
	.text
.Ltext0:
	.p2align 4
	.type	star_digits_closebracket, @function
star_digits_closebracket:
.LVL0:
.LFB155:
	.file 1 "src/tr.c"
	.loc 1 831 1 view -0
	.cfi_startproc
	.loc 1 832 3 view .LVU1
.LBB207:
.LBI207:
	.loc 1 194 1 view .LVU2
.LBB208:
	.loc 1 196 3 view .LVU3
	.loc 1 196 12 is_stmt 0 view .LVU4
	movq	(%rdi), %rcx
.LBE208:
.LBE207:
	.loc 1 833 12 view .LVU5
	xorl	%r9d, %r9d
.LBB211:
.LBB209:
	.loc 1 196 24 view .LVU6
	cmpb	$42, (%rcx,%rsi)
	je	.L15
.LVL1:
.L1:
	.loc 1 196 24 view .LVU7
.LBE209:
.LBE211:
	.loc 1 839 1 view .LVU8
	movl	%r9d, %eax
	ret
.LVL2:
	.p2align 4,,10
	.p2align 3
.L15:
.LBB212:
.LBB210:
	.loc 1 196 30 view .LVU9
	movq	8(%rdi), %r8
	.loc 1 196 39 view .LVU10
	movzbl	(%r8,%rsi), %r9d
	.loc 1 196 24 view .LVU11
	testb	%r9b, %r9b
	jne	.L9
.LVL3:
	.loc 1 196 24 view .LVU12
.LBE210:
.LBE212:
	.loc 1 835 3 is_stmt 1 view .LVU13
.LBB213:
	.loc 1 835 8 view .LVU14
	.loc 1 835 34 is_stmt 0 view .LVU15
	movq	16(%rdi), %rdi
.LVL4:
	.loc 1 835 15 view .LVU16
	addq	$1, %rsi
.LVL5:
	.loc 1 835 28 is_stmt 1 view .LVU17
	.loc 1 835 3 is_stmt 0 view .LVU18
	cmpq	%rdi, %rsi
	jb	.L7
	jmp	.L1
.LVL6:
	.p2align 4,,10
	.p2align 3
.L16:
	.loc 1 836 40 discriminator 1 view .LVU19
	cmpb	$0, (%r8,%rsi)
	jne	.L1
	.loc 1 835 41 is_stmt 1 discriminator 2 view .LVU20
	.loc 1 835 42 is_stmt 0 discriminator 2 view .LVU21
	addq	$1, %rsi
.LVL7:
	.loc 1 835 28 is_stmt 1 discriminator 2 view .LVU22
	.loc 1 835 3 is_stmt 0 discriminator 2 view .LVU23
	cmpq	%rdi, %rsi
	jnb	.L9
.L7:
	.loc 1 836 5 is_stmt 1 view .LVU24
	.loc 1 836 10 is_stmt 0 view .LVU25
	movzbl	(%rcx,%rsi), %eax
	movl	%eax, %edx
.LVL8:
.LBB214:
.LBI214:
	.file 2 "src/system.h"
	.loc 2 156 29 is_stmt 1 view .LVU26
.LBB215:
	.loc 2 156 50 view .LVU27
	.loc 2 156 50 is_stmt 0 view .LVU28
.LBE215:
.LBE214:
	.loc 1 836 10 view .LVU29
	subl	$48, %eax
	.loc 1 836 8 view .LVU30
	cmpl	$9, %eax
	jbe	.L16
	.loc 1 837 7 is_stmt 1 view .LVU31
.LVL9:
.LBB216:
.LBI216:
	.loc 1 194 1 view .LVU32
.LBB217:
	.loc 1 196 3 view .LVU33
	.loc 1 196 24 is_stmt 0 view .LVU34
	cmpb	$93, %dl
	jne	.L1
	movzbl	(%r8,%rsi), %r9d
	xorl	$1, %r9d
.LVL10:
	.loc 1 196 24 view .LVU35
.LBE217:
.LBE216:
	.loc 1 837 14 view .LVU36
	jmp	.L1
.LVL11:
	.p2align 4,,10
	.p2align 3
.L9:
	.loc 1 837 14 view .LVU37
.LBE213:
	.loc 1 833 12 view .LVU38
	xorl	%r9d, %r9d
	.loc 1 839 1 view .LVU39
	movl	%r9d, %eax
	ret
	.cfi_endproc
.LFE155:
	.size	star_digits_closebracket, .-star_digits_closebracket
	.section	.rodata.str1.1,"aMS",@progbits,1
.LC0:
	.string	"\\%03o"
	.text
	.p2align 4
	.type	make_printable_char, @function
make_printable_char:
.LVL12:
.LFB146:
	.loc 1 559 1 is_stmt 1 view -0
	.cfi_startproc
	.loc 1 560 3 view .LVU41
	.loc 1 559 1 is_stmt 0 view .LVU42
	pushq	%r12
	.cfi_def_cfa_offset 16
	.cfi_offset 12, -16
	pushq	%rbp
	.cfi_def_cfa_offset 24
	.cfi_offset 6, -24
	movzbl	%dil, %ebp
	pushq	%rbx
	.cfi_def_cfa_offset 32
	.cfi_offset 3, -32
	.loc 1 559 1 view .LVU43
	movl	%edi, %ebx
	.loc 1 560 15 view .LVU44
	movl	$5, %edi
.LVL13:
	.loc 1 560 15 view .LVU45
	call	xmalloc@PLT
.LVL14:
	movq	%rax, %r12
.LVL15:
	.loc 1 562 3 is_stmt 1 view .LVU46
	.loc 1 562 7 is_stmt 0 view .LVU47
	call	__ctype_b_loc@PLT
.LVL16:
	.loc 1 562 7 view .LVU48
	movq	(%rax), %rax
	.loc 1 562 6 view .LVU49
	testb	$64, 1(%rax,%rbp,2)
	je	.L18
	.loc 1 564 7 is_stmt 1 view .LVU50
	.loc 1 564 14 is_stmt 0 view .LVU51
	movb	%bl, (%r12)
	.loc 1 565 7 is_stmt 1 view .LVU52
	.loc 1 572 1 is_stmt 0 view .LVU53
	movq	%r12, %rax
	popq	%rbx
	.cfi_remember_state
	.cfi_def_cfa_offset 24
	.loc 1 565 14 view .LVU54
	movb	$0, 1(%r12)
	.loc 1 572 1 view .LVU55
	popq	%rbp
	.cfi_def_cfa_offset 16
.LVL17:
	.loc 1 572 1 view .LVU56
	popq	%r12
	.cfi_def_cfa_offset 8
.LVL18:
	.loc 1 572 1 view .LVU57
	ret
.LVL19:
	.p2align 4,,10
	.p2align 3
.L18:
	.cfi_restore_state
	.loc 1 569 7 is_stmt 1 view .LVU58
.LBB218:
.LBI218:
	.file 3 "/usr/include/x86_64-linux-gnu/bits/stdio2.h"
	.loc 3 34 1 view .LVU59
.LBB219:
	.loc 3 36 3 view .LVU60
	.loc 3 36 10 is_stmt 0 view .LVU61
	movzbl	%bl, %r8d
	movq	%r12, %rdi
	leaq	.LC0(%rip), %rcx
	xorl	%eax, %eax
	movl	$5, %edx
	movl	$1, %esi
	call	__sprintf_chk@PLT
.LVL20:
	.loc 3 36 10 view .LVU62
.LBE219:
.LBE218:
	.loc 1 571 3 is_stmt 1 view .LVU63
	.loc 1 572 1 is_stmt 0 view .LVU64
	movq	%r12, %rax
	popq	%rbx
	.cfi_def_cfa_offset 24
	popq	%rbp
	.cfi_def_cfa_offset 16
	popq	%r12
	.cfi_def_cfa_offset 8
.LVL21:
	.loc 1 572 1 view .LVU65
	ret
	.cfi_endproc
.LFE146:
	.size	make_printable_char, .-make_printable_char
	.section	.rodata.str1.1
.LC1:
	.string	"\\a"
.LC2:
	.string	"\\b"
.LC3:
	.string	"\\f"
.LC4:
	.string	"\\n"
.LC5:
	.string	"\\r"
.LC6:
	.string	"\\t"
.LC7:
	.string	"\\v"
.LC8:
	.string	"\\"
	.text
	.p2align 4
	.type	make_printable_str, @function
make_printable_str:
.LVL22:
.LFB147:
	.loc 1 583 1 is_stmt 1 view -0
	.cfi_startproc
	.loc 1 583 1 is_stmt 0 view .LVU67
	pushq	%r15
	.cfi_def_cfa_offset 16
	.cfi_offset 15, -16
	movq	%rdi, %r15
	.loc 1 586 25 view .LVU68
	leaq	1(%rsi), %rdi
.LVL23:
	.loc 1 583 1 view .LVU69
	pushq	%r14
	.cfi_def_cfa_offset 24
	.cfi_offset 14, -24
	pushq	%r13
	.cfi_def_cfa_offset 32
	.cfi_offset 13, -32
	pushq	%r12
	.cfi_def_cfa_offset 40
	.cfi_offset 12, -40
	pushq	%rbp
	.cfi_def_cfa_offset 48
	.cfi_offset 6, -48
	pushq	%rbx
	.cfi_def_cfa_offset 56
	.cfi_offset 3, -56
	subq	$56, %rsp
	.cfi_def_cfa_offset 112
	.loc 1 583 1 view .LVU70
	movq	%fs:40, %rax
	movq	%rax, 40(%rsp)
	xorl	%eax, %eax
	.loc 1 586 3 is_stmt 1 view .LVU71
.LVL24:
.LBB220:
.LBI220:
	.file 4 "./lib/xalloc.h"
	.loc 4 99 1 view .LVU72
.LBB221:
	.loc 4 101 3 view .LVU73
	.loc 4 101 7 is_stmt 0 view .LVU74
	movq	%rdi, %rax
	shrq	$62, %rax
	setne	%al
	salq	$2, %rdi
.LVL25:
	.loc 4 101 7 view .LVU75
	js	.L49
	movzbl	%al, %eax
	.loc 4 101 6 view .LVU76
	testq	%rax, %rax
	jne	.L49
	movq	%rsi, %rbp
	.loc 4 103 3 is_stmt 1 view .LVU77
	.loc 4 103 10 is_stmt 0 view .LVU78
	call	xmalloc@PLT
.LVL26:
	.loc 4 103 10 view .LVU79
	movq	%rax, 8(%rsp)
.LVL27:
	.loc 4 103 10 view .LVU80
.LBE221:
.LBE220:
	.loc 1 587 3 is_stmt 1 view .LVU81
	.loc 1 589 3 view .LVU82
.LBB223:
	.loc 1 589 8 view .LVU83
	.loc 1 589 22 view .LVU84
	.loc 1 589 3 is_stmt 0 view .LVU85
	testq	%rbp, %rbp
	je	.L21
	addq	%r15, %rbp
.LVL28:
	.loc 1 589 3 view .LVU86
.LBE223:
	.loc 1 587 9 view .LVU87
	movq	%rax, %r10
.LBB236:
.LBB224:
	.loc 1 598 15 view .LVU88
	leaq	.LC8(%rip), %r14
	.loc 1 595 7 view .LVU89
	leaq	.LC1(%rip), %r13
	leaq	.L31(%rip), %rbx
	.loc 1 604 15 view .LVU90
	leaq	.LC2(%rip), %r12
.LVL29:
	.p2align 4,,10
	.p2align 3
.L38:
	.loc 1 591 7 is_stmt 1 view .LVU91
	.loc 1 592 7 view .LVU92
	.loc 1 593 7 view .LVU93
	.loc 1 593 26 is_stmt 0 view .LVU94
	movzbl	(%r15), %r8d
.LVL30:
	.loc 1 595 7 is_stmt 1 view .LVU95
	cmpb	$13, %r8b
	jg	.L27
	cmpb	$6, %r8b
	jle	.L28
	subl	$8, %r8d
.LVL31:
	.loc 1 595 7 is_stmt 0 view .LVU96
	movq	%r13, %rsi
	cmpb	$5, %r8b
	ja	.L36
	movzbl	%r8b, %r8d
	movslq	(%rbx,%r8,4), %rax
	addq	%rbx, %rax
	notrack jmp	*%rax
	.section	.rodata
	.align 4
	.align 4
.L31:
	.long	.L40-.L31
	.long	.L35-.L31
	.long	.L34-.L31
	.long	.L33-.L31
	.long	.L32-.L31
	.long	.L30-.L31
	.text
.L40:
	.loc 1 604 15 view .LVU97
	movq	%r12, %rsi
.LVL32:
.L36:
	.loc 1 632 7 is_stmt 1 discriminator 2 view .LVU98
.LBB225:
.LBI225:
	.file 5 "/usr/include/x86_64-linux-gnu/bits/string_fortified.h"
	.loc 5 95 1 discriminator 2 view .LVU99
.LBB226:
	.loc 5 97 3 discriminator 2 view .LVU100
	.loc 5 97 10 is_stmt 0 discriminator 2 view .LVU101
	movq	%r10, %rdi
	addq	$1, %r15
.LVL33:
	.loc 5 97 10 discriminator 2 view .LVU102
	call	stpcpy@PLT
.LVL34:
	.loc 5 97 10 discriminator 2 view .LVU103
	movq	%rax, %r10
.LVL35:
	.loc 5 97 10 discriminator 2 view .LVU104
.LBE226:
.LBE225:
.LBE224:
	.loc 1 589 31 is_stmt 1 discriminator 2 view .LVU105
	.loc 1 589 22 discriminator 2 view .LVU106
	.loc 1 589 3 is_stmt 0 discriminator 2 view .LVU107
	cmpq	%r15, %rbp
	jne	.L38
.LVL36:
.L21:
	.loc 1 589 3 discriminator 2 view .LVU108
.LBE236:
	.loc 1 635 1 view .LVU109
	movq	40(%rsp), %rax
	xorq	%fs:40, %rax
	jne	.L51
	movq	8(%rsp), %rax
	addq	$56, %rsp
	.cfi_remember_state
	.cfi_def_cfa_offset 56
	popq	%rbx
	.cfi_def_cfa_offset 48
	popq	%rbp
	.cfi_def_cfa_offset 40
	popq	%r12
	.cfi_def_cfa_offset 32
	popq	%r13
	.cfi_def_cfa_offset 24
	popq	%r14
	.cfi_def_cfa_offset 16
	popq	%r15
	.cfi_def_cfa_offset 8
	ret
.LVL37:
.L32:
	.cfi_restore_state
.LBB237:
.LBB235:
	.loc 1 607 11 is_stmt 1 view .LVU110
	.loc 1 608 11 view .LVU111
	.loc 1 607 15 is_stmt 0 view .LVU112
	leaq	.LC3(%rip), %rsi
	.loc 1 608 11 view .LVU113
	jmp	.L36
.LVL38:
.L30:
	.loc 1 613 11 is_stmt 1 view .LVU114
	.loc 1 614 11 view .LVU115
	.loc 1 613 15 is_stmt 0 view .LVU116
	leaq	.LC5(%rip), %rsi
	.loc 1 614 11 view .LVU117
	jmp	.L36
.LVL39:
.L33:
	.loc 1 619 11 is_stmt 1 view .LVU118
	.loc 1 620 11 view .LVU119
	.loc 1 619 15 is_stmt 0 view .LVU120
	leaq	.LC7(%rip), %rsi
	.loc 1 620 11 view .LVU121
	jmp	.L36
.LVL40:
.L34:
	.loc 1 610 11 is_stmt 1 view .LVU122
	.loc 1 611 11 view .LVU123
	.loc 1 610 15 is_stmt 0 view .LVU124
	leaq	.LC4(%rip), %rsi
	.loc 1 611 11 view .LVU125
	jmp	.L36
.LVL41:
.L35:
	.loc 1 616 11 is_stmt 1 view .LVU126
	.loc 1 617 11 view .LVU127
	.loc 1 616 15 is_stmt 0 view .LVU128
	leaq	.LC6(%rip), %rsi
	.loc 1 617 11 view .LVU129
	jmp	.L36
.LVL42:
	.p2align 4,,10
	.p2align 3
.L27:
	.loc 1 598 15 view .LVU130
	movq	%r14, %rsi
	.loc 1 595 7 view .LVU131
	cmpb	$92, %r8b
	je	.L36
.L28:
	.loc 1 595 7 view .LVU132
	movq	%r10, 24(%rsp)
	movb	%r8b, 16(%rsp)
	.loc 1 622 11 is_stmt 1 view .LVU133
	.loc 1 622 15 is_stmt 0 view .LVU134
	call	__ctype_b_loc@PLT
.LVL43:
	.loc 1 622 14 view .LVU135
	movq	24(%rsp), %r10
	.loc 1 622 15 view .LVU136
	movq	%rax, %r11
	movzbl	16(%rsp), %eax
	movq	(%r11), %rdx
	movq	%rax, %r8
	.loc 1 622 14 view .LVU137
	testb	$64, 1(%rdx,%rax,2)
	je	.L37
.LVL44:
	.loc 1 624 15 is_stmt 1 view .LVU138
	.loc 1 624 22 is_stmt 0 view .LVU139
	movb	%al, 35(%rsp)
	.loc 1 625 15 is_stmt 1 view .LVU140
	.loc 1 629 15 is_stmt 0 view .LVU141
	leaq	35(%rsp), %rsi
	.loc 1 625 22 view .LVU142
	movb	$0, 36(%rsp)
	jmp	.L36
	.p2align 4,,10
	.p2align 3
.L37:
.LBB227:
.LBB228:
	.loc 3 36 10 view .LVU143
	leaq	35(%rsp), %rdi
	movl	$1, %esi
	leaq	.LC0(%rip), %rcx
	xorl	%eax, %eax
	movl	$5, %edx
	movq	%r10, 24(%rsp)
.LBE228:
.LBE227:
	.loc 1 628 13 is_stmt 1 view .LVU144
.LVL45:
.LBB232:
.LBI227:
	.loc 3 34 1 view .LVU145
.LBB229:
	.loc 3 36 3 view .LVU146
	.loc 3 36 10 is_stmt 0 view .LVU147
	movq	%rdi, 16(%rsp)
.LVL46:
	.loc 3 36 10 view .LVU148
	call	__sprintf_chk@PLT
.LVL47:
	.loc 3 36 10 view .LVU149
.LBE229:
.LBE232:
	.loc 1 629 15 view .LVU150
	movq	16(%rsp), %rdi
.LBB233:
.LBB230:
	.loc 3 36 10 view .LVU151
	movq	24(%rsp), %r10
.LBE230:
.LBE233:
	.loc 1 629 15 view .LVU152
	movq	%rdi, %rsi
.LBB234:
.LBB231:
	.loc 3 36 10 view .LVU153
	jmp	.L36
.LVL48:
.L51:
	.loc 3 36 10 view .LVU154
.LBE231:
.LBE234:
.LBE235:
.LBE237:
	.loc 1 635 1 view .LVU155
	call	__stack_chk_fail@PLT
.LVL49:
.L49:
.LBB238:
.LBB222:
	.loc 4 102 5 is_stmt 1 view .LVU156
	call	xalloc_die@PLT
.LVL50:
	.loc 4 102 5 is_stmt 0 view .LVU157
.LBE222:
.LBE238:
	.cfi_endproc
.LFE147:
	.size	make_printable_str, .-make_printable_str
	.section	.text.unlikely,"ax",@progbits
.LCOLDB9:
	.text
.LHOTB9:
	.p2align 4
	.section	.text.unlikely
.Ltext_cold0:
	.text
	.type	is_char_class_member, @function
is_char_class_member:
.LVL51:
.LFB142:
	.loc 1 368 1 is_stmt 1 view -0
	.cfi_startproc
	.loc 1 369 3 view .LVU159
	.loc 1 371 3 view .LVU160
	.loc 1 368 1 is_stmt 0 view .LVU161
	pushq	%rbx
	.cfi_def_cfa_offset 16
	.cfi_offset 3, -16
	cmpl	$11, %edi
	ja	.L53
	leaq	.L55(%rip), %rdx
	movl	%edi, %edi
	.loc 1 368 1 view .LVU162
	movl	%esi, %ebx
	movslq	(%rdx,%rdi,4), %rax
	addq	%rdx, %rax
	notrack jmp	*%rax
	.section	.rodata
	.align 4
	.align 4
.L55:
	.long	.L66-.L55
	.long	.L65-.L55
	.long	.L64-.L55
	.long	.L63-.L55
	.long	.L62-.L55
	.long	.L61-.L55
	.long	.L60-.L55
	.long	.L59-.L55
	.long	.L58-.L55
	.long	.L57-.L55
	.long	.L56-.L55
	.long	.L54-.L55
	.text
	.p2align 4,,10
	.p2align 3
.L56:
	.loc 1 404 7 is_stmt 1 view .LVU163
	.loc 1 404 16 is_stmt 0 view .LVU164
	call	__ctype_b_loc@PLT
.LVL52:
	.loc 1 404 16 view .LVU165
	movzbl	%bl, %esi
	movq	(%rax), %rax
	.loc 1 404 14 view .LVU166
	movzwl	(%rax,%rsi,2), %eax
	andw	$256, %ax
	movzwl	%ax, %eax
.LVL53:
	.loc 1 405 7 is_stmt 1 view .LVU167
.L67:
	.loc 1 413 3 view .LVU168
	.loc 1 413 10 is_stmt 0 view .LVU169
	testl	%eax, %eax
	.loc 1 414 1 view .LVU170
	popq	%rbx
	.cfi_remember_state
	.cfi_def_cfa_offset 8
.LVL54:
	.loc 1 413 10 view .LVU171
	setne	%al
.LVL55:
	.loc 1 414 1 view .LVU172
	ret
.LVL56:
	.p2align 4,,10
	.p2align 3
.L54:
	.cfi_restore_state
	.loc 1 407 7 is_stmt 1 view .LVU173
	.loc 1 407 16 is_stmt 0 view .LVU174
	call	__ctype_b_loc@PLT
.LVL57:
	movzbl	%bl, %esi
	movq	(%rax), %rax
	.loc 1 407 14 view .LVU175
	movzwl	(%rax,%rsi,2), %eax
	andw	$4096, %ax
	movzwl	%ax, %eax
.LVL58:
	.loc 1 408 7 is_stmt 1 view .LVU176
	jmp	.L67
.LVL59:
	.p2align 4,,10
	.p2align 3
.L66:
	.loc 1 374 7 view .LVU177
	.loc 1 374 16 is_stmt 0 view .LVU178
	call	__ctype_b_loc@PLT
.LVL60:
	movzbl	%bl, %esi
	movq	(%rax), %rax
	.loc 1 374 14 view .LVU179
	movzwl	(%rax,%rsi,2), %eax
	andl	$8, %eax
	movzwl	%ax, %eax
.LVL61:
	.loc 1 375 7 is_stmt 1 view .LVU180
	jmp	.L67
.LVL62:
	.p2align 4,,10
	.p2align 3
.L65:
	.loc 1 377 7 view .LVU181
	.loc 1 377 16 is_stmt 0 view .LVU182
	call	__ctype_b_loc@PLT
.LVL63:
	movzbl	%bl, %esi
	movq	(%rax), %rax
	.loc 1 377 14 view .LVU183
	movzwl	(%rax,%rsi,2), %eax
	andw	$1024, %ax
	movzwl	%ax, %eax
.LVL64:
	.loc 1 378 7 is_stmt 1 view .LVU184
	jmp	.L67
.LVL65:
	.p2align 4,,10
	.p2align 3
.L64:
	.loc 1 380 7 view .LVU185
	.loc 1 380 16 is_stmt 0 view .LVU186
	call	__ctype_b_loc@PLT
.LVL66:
	movzbl	%bl, %esi
	movq	(%rax), %rax
	.loc 1 380 14 view .LVU187
	movzwl	(%rax,%rsi,2), %eax
	andl	$1, %eax
.LVL67:
	.loc 1 381 7 is_stmt 1 view .LVU188
	jmp	.L67
.LVL68:
	.p2align 4,,10
	.p2align 3
.L63:
	.loc 1 383 7 view .LVU189
	.loc 1 383 16 is_stmt 0 view .LVU190
	call	__ctype_b_loc@PLT
.LVL69:
	movzbl	%bl, %esi
	movq	(%rax), %rax
	.loc 1 383 14 view .LVU191
	movzwl	(%rax,%rsi,2), %eax
	andl	$2, %eax
	movzwl	%ax, %eax
.LVL70:
	.loc 1 384 7 is_stmt 1 view .LVU192
	jmp	.L67
.LVL71:
	.p2align 4,,10
	.p2align 3
.L62:
	.loc 1 386 7 view .LVU193
	.loc 1 386 16 is_stmt 0 view .LVU194
	call	__ctype_b_loc@PLT
.LVL72:
	movzbl	%bl, %esi
	movq	(%rax), %rax
	.loc 1 386 14 view .LVU195
	movzwl	(%rax,%rsi,2), %eax
	andw	$2048, %ax
	movzwl	%ax, %eax
.LVL73:
	.loc 1 387 7 is_stmt 1 view .LVU196
	jmp	.L67
.LVL74:
	.p2align 4,,10
	.p2align 3
.L61:
	.loc 1 389 7 view .LVU197
	.loc 1 389 16 is_stmt 0 view .LVU198
	call	__ctype_b_loc@PLT
.LVL75:
	movzbl	%bl, %esi
	movq	(%rax), %rax
	.loc 1 389 14 view .LVU199
	movzwl	(%rax,%rsi,2), %eax
	andw	$-32768, %ax
	movzwl	%ax, %eax
.LVL76:
	.loc 1 390 7 is_stmt 1 view .LVU200
	jmp	.L67
.LVL77:
	.p2align 4,,10
	.p2align 3
.L60:
	.loc 1 392 7 view .LVU201
	.loc 1 392 16 is_stmt 0 view .LVU202
	call	__ctype_b_loc@PLT
.LVL78:
	movzbl	%bl, %esi
	movq	(%rax), %rax
	.loc 1 392 14 view .LVU203
	movzwl	(%rax,%rsi,2), %eax
	andw	$512, %ax
	movzwl	%ax, %eax
.LVL79:
	.loc 1 393 7 is_stmt 1 view .LVU204
	jmp	.L67
.LVL80:
	.p2align 4,,10
	.p2align 3
.L59:
	.loc 1 395 7 view .LVU205
	.loc 1 395 16 is_stmt 0 view .LVU206
	call	__ctype_b_loc@PLT
.LVL81:
	movzbl	%bl, %esi
	movq	(%rax), %rax
	.loc 1 395 14 view .LVU207
	movzwl	(%rax,%rsi,2), %eax
	andw	$16384, %ax
	movzwl	%ax, %eax
.LVL82:
	.loc 1 396 7 is_stmt 1 view .LVU208
	jmp	.L67
.LVL83:
	.p2align 4,,10
	.p2align 3
.L58:
	.loc 1 398 7 view .LVU209
	.loc 1 398 16 is_stmt 0 view .LVU210
	call	__ctype_b_loc@PLT
.LVL84:
	movzbl	%bl, %esi
	movq	(%rax), %rax
	.loc 1 398 14 view .LVU211
	movzwl	(%rax,%rsi,2), %eax
	andl	$4, %eax
	movzwl	%ax, %eax
.LVL85:
	.loc 1 399 7 is_stmt 1 view .LVU212
	jmp	.L67
.LVL86:
	.p2align 4,,10
	.p2align 3
.L57:
	.loc 1 401 7 view .LVU213
	.loc 1 401 16 is_stmt 0 view .LVU214
	call	__ctype_b_loc@PLT
.LVL87:
	movzbl	%bl, %esi
	movq	(%rax), %rax
	.loc 1 401 14 view .LVU215
	movzwl	(%rax,%rsi,2), %eax
	andw	$8192, %ax
	movzwl	%ax, %eax
.LVL88:
	.loc 1 402 7 is_stmt 1 view .LVU216
	jmp	.L67
.LVL89:
	.loc 1 402 7 is_stmt 0 view .LVU217
	.cfi_endproc
	.section	.text.unlikely
	.cfi_startproc
	.type	is_char_class_member.cold, @function
is_char_class_member.cold:
.LFSB142:
.L53:
	.cfi_def_cfa_offset 16
	.cfi_offset 3, -16
	.loc 1 410 7 is_stmt 1 view -0
	call	abort@PLT
.LVL90:
	.loc 1 410 7 is_stmt 0 view .LVU219
	.cfi_endproc
.LFE142:
	.text
	.size	is_char_class_member, .-is_char_class_member
	.section	.text.unlikely
	.size	is_char_class_member.cold, .-is_char_class_member.cold
.LCOLDE9:
	.text
.LHOTE9:
	.section	.rodata.str1.1
.LC10:
	.string	"src/tr.c"
	.section	.rodata.str1.8,"aMS",@progbits,1
	.align 8
.LC11:
	.string	"p->u.range.last_char >= p->u.range.first_char"
	.section	.rodata.str1.1
.LC12:
	.string	"too many characters in set"
	.section	.text.unlikely
.LCOLDB13:
	.text
.LHOTB13:
	.p2align 4
	.type	get_spec_stats, @function
get_spec_stats:
.LVL91:
.LFB161:
	.loc 1 1242 1 is_stmt 1 view -0
	.cfi_startproc
	.loc 1 1243 3 view .LVU221
	.loc 1 1244 3 view .LVU222
	.loc 1 1246 3 view .LVU223
	.loc 1 1242 1 is_stmt 0 view .LVU224
	pushq	%r15
	.cfi_def_cfa_offset 16
	.cfi_offset 15, -16
	.loc 1 1247 22 view .LVU225
	xorl	%eax, %eax
	.loc 1 1242 1 view .LVU226
	pushq	%r14
	.cfi_def_cfa_offset 24
	.cfi_offset 14, -24
	.loc 1 1244 9 view .LVU227
	xorl	%r14d, %r14d
	.loc 1 1242 1 view .LVU228
	pushq	%r13
	.cfi_def_cfa_offset 32
	.cfi_offset 13, -32
	pushq	%r12
	.cfi_def_cfa_offset 40
	.cfi_offset 12, -40
	pushq	%rbp
	.cfi_def_cfa_offset 48
	.cfi_offset 6, -48
	pushq	%rbx
	.cfi_def_cfa_offset 56
	.cfi_offset 3, -56
	subq	$24, %rsp
	.cfi_def_cfa_offset 80
	.loc 1 1247 22 view .LVU229
	movw	%ax, 48(%rdi)
	.loc 1 1250 10 view .LVU230
	movq	(%rdi), %rax
	.loc 1 1242 1 view .LVU231
	movq	%rdi, 8(%rsp)
	.loc 1 1250 10 view .LVU232
	movq	8(%rax), %rbp
	.loc 1 1246 27 view .LVU233
	movq	$0, 32(%rdi)
	.loc 1 1247 3 is_stmt 1 view .LVU234
	.loc 1 1248 3 view .LVU235
	.loc 1 1249 3 view .LVU236
	.loc 1 1248 32 is_stmt 0 view .LVU237
	movb	$0, 50(%rdi)
	.loc 1 1250 3 is_stmt 1 view .LVU238
.LVL92:
	.loc 1 1250 27 view .LVU239
	.loc 1 1250 3 is_stmt 0 view .LVU240
	testq	%rbp, %rbp
	je	.L70
	leaq	.L73(%rip), %r12
.LVL93:
	.p2align 4,,10
	.p2align 3
.L87:
.LBB239:
	.loc 1 1252 7 is_stmt 1 view .LVU241
	.loc 1 1253 7 view .LVU242
	.loc 1 1255 7 view .LVU243
	cmpl	$4, 0(%rbp)
	ja	.L71
	.loc 1 1255 7 is_stmt 0 view .LVU244
	movl	0(%rbp), %eax
	movslq	(%r12,%rax,4), %rax
	addq	%r12, %rax
	notrack jmp	*%rax
	.section	.rodata
	.align 4
	.align 4
.L73:
	.long	.L89-.L73
	.long	.L76-.L73
	.long	.L75-.L73
	.long	.L74-.L73
	.long	.L72-.L73
	.text
.L74:
.LBB240:
	.loc 1 1284 44 view .LVU245
	movzbl	16(%rbp), %ecx
	.loc 1 1283 20 view .LVU246
	xorl	%eax, %eax
.LBE240:
	.loc 1 1252 13 view .LVU247
	xorl	%ebx, %ebx
.LVL94:
	.p2align 4,,10
	.p2align 3
.L82:
.LBB241:
	.loc 1 1284 13 is_stmt 1 view .LVU248
	.loc 1 1284 13 is_stmt 0 view .LVU249
.LBE241:
.LBE239:
	.loc 1 360 3 is_stmt 1 view .LVU250
.LBB246:
.LBB242:
	.loc 1 1285 15 is_stmt 0 view .LVU251
	xorl	%edx, %edx
	cmpb	%al, %cl
	sete	%dl
	.loc 1 1283 41 view .LVU252
	addl	$1, %eax
.LVL95:
	.loc 1 1285 15 view .LVU253
	addq	%rdx, %rbx
.LVL96:
	.loc 1 1283 40 is_stmt 1 view .LVU254
	.loc 1 1283 27 view .LVU255
	.loc 1 1283 11 is_stmt 0 view .LVU256
	cmpl	$256, %eax
	jne	.L82
.LBE242:
	.loc 1 1286 11 is_stmt 1 view .LVU257
	.loc 1 1286 30 is_stmt 0 view .LVU258
	movq	8(%rsp), %rax
.LVL97:
	.loc 1 1286 30 view .LVU259
	movb	$1, 48(%rax)
	.loc 1 1287 11 is_stmt 1 view .LVU260
.LVL98:
.L77:
	.loc 1 1307 7 view .LVU261
	addq	%r14, %rbx
.LVL99:
	.loc 1 1307 18 is_stmt 0 view .LVU262
	movq	%rbx, %r14
.LVL100:
	.loc 1 1308 7 is_stmt 1 view .LVU263
	.loc 1 1308 10 is_stmt 0 view .LVU264
	jc	.L90
	cmpq	$-1, %rbx
	je	.L90
.LVL101:
.L83:
	.loc 1 1310 7 is_stmt 1 discriminator 2 view .LVU265
	.loc 1 1310 7 is_stmt 0 discriminator 2 view .LVU266
.LBE246:
	.loc 1 1250 30 is_stmt 1 discriminator 2 view .LVU267
	.loc 1 1250 32 is_stmt 0 discriminator 2 view .LVU268
	movq	8(%rbp), %rbp
.LVL102:
	.loc 1 1250 27 is_stmt 1 discriminator 2 view .LVU269
	.loc 1 1250 3 is_stmt 0 discriminator 2 view .LVU270
	testq	%rbp, %rbp
	jne	.L87
.LVL103:
.L70:
	.loc 1 1313 3 is_stmt 1 view .LVU271
	.loc 1 1313 13 is_stmt 0 view .LVU272
	movq	8(%rsp), %rax
	movq	%r14, 24(%rax)
	.loc 1 1314 1 view .LVU273
	addq	$24, %rsp
	.cfi_remember_state
	.cfi_def_cfa_offset 56
	popq	%rbx
	.cfi_def_cfa_offset 48
	popq	%rbp
	.cfi_def_cfa_offset 40
.LVL104:
	.loc 1 1314 1 view .LVU274
	popq	%r12
	.cfi_def_cfa_offset 32
	popq	%r13
	.cfi_def_cfa_offset 24
	popq	%r14
	.cfi_def_cfa_offset 16
	popq	%r15
	.cfi_def_cfa_offset 8
	ret
.LVL105:
.L75:
	.cfi_restore_state
.LBB247:
	.loc 1 1267 11 is_stmt 1 view .LVU275
	.loc 1 1267 29 is_stmt 0 view .LVU276
	movq	8(%rsp), %rax
.LBB243:
	.loc 1 1269 17 view .LVU277
	movl	16(%rbp), %r15d
	.loc 1 1268 20 view .LVU278
	xorl	%r13d, %r13d
.LBE243:
	.loc 1 1252 13 view .LVU279
	xorl	%ebx, %ebx
	.loc 1 1267 29 view .LVU280
	movb	$1, 49(%rax)
	.loc 1 1268 11 is_stmt 1 view .LVU281
.LBB244:
	.loc 1 1268 16 view .LVU282
.LVL106:
	.loc 1 1268 27 view .LVU283
	.p2align 4,,10
	.p2align 3
.L80:
	.loc 1 1269 13 view .LVU284
	.loc 1 1269 17 is_stmt 0 view .LVU285
	movl	%r13d, %esi
	movl	%r15d, %edi
	call	is_char_class_member
.LVL107:
	.loc 1 1270 15 view .LVU286
	cmpb	$1, %al
	sbbq	$-1, %rbx
.LVL108:
	.loc 1 1268 40 is_stmt 1 view .LVU287
	.loc 1 1268 41 is_stmt 0 view .LVU288
	addl	$1, %r13d
.LVL109:
	.loc 1 1268 27 is_stmt 1 view .LVU289
	.loc 1 1268 11 is_stmt 0 view .LVU290
	cmpl	$256, %r13d
	jne	.L80
.LBE244:
	.loc 1 1271 11 is_stmt 1 view .LVU291
	subl	$6, %r15d
	andl	$-5, %r15d
	je	.L77
	.loc 1 1277 15 view .LVU292
	.loc 1 1277 44 is_stmt 0 view .LVU293
	movq	8(%rsp), %rax
	movb	$1, 50(%rax)
	.loc 1 1278 15 is_stmt 1 view .LVU294
	jmp	.L77
.LVL110:
.L76:
	.loc 1 1262 11 view .LVU295
	movzbl	17(%rbp), %eax
	movzbl	16(%rbp), %edx
	cmpb	%dl, %al
	jb	.L103
	.loc 1 1263 11 view .LVU296
	.loc 1 1263 27 is_stmt 0 view .LVU297
	movzbl	%al, %ebx
	.loc 1 1263 38 view .LVU298
	movl	%ebx, %eax
	subl	%edx, %eax
	.loc 1 1263 62 view .LVU299
	leal	1(%rax), %ebx
	.loc 1 1263 15 view .LVU300
	movslq	%ebx, %rbx
.LVL111:
	.loc 1 1264 11 is_stmt 1 view .LVU301
	jmp	.L77
.LVL112:
.L89:
	.loc 1 1255 16 is_stmt 0 view .LVU302
	movl	$1, %ebx
	jmp	.L77
.L72:
	.loc 1 1290 11 is_stmt 1 view .LVU303
	.loc 1 1290 33 is_stmt 0 view .LVU304
	movq	24(%rbp), %rbx
	.loc 1 1290 14 view .LVU305
	testq	%rbx, %rbx
	jne	.L77
	.loc 1 1294 15 is_stmt 1 view .LVU306
	.loc 1 1294 44 is_stmt 0 view .LVU307
	movq	8(%rsp), %rax
	.loc 1 1295 15 view .LVU308
	addq	$1, 32(%rax)
	.loc 1 1294 44 view .LVU309
	movq	%rbp, 40(%rax)
	.loc 1 1295 15 is_stmt 1 view .LVU310
	.loc 1 1307 7 view .LVU311
.LVL113:
	.loc 1 1308 7 view .LVU312
	jmp	.L83
.LVL114:
.L90:
.LBB245:
	.loc 1 1309 9 view .LVU313
	movl	$5, %edx
	leaq	.LC12(%rip), %rsi
	xorl	%edi, %edi
	call	dcgettext@PLT
.LVL115:
	xorl	%esi, %esi
	movl	$1, %edi
	movq	%rax, %rdx
	xorl	%eax, %eax
	call	error@PLT
.LVL116:
.L103:
	.loc 1 1309 9 is_stmt 0 view .LVU314
.LBE245:
	.loc 1 1262 11 is_stmt 1 discriminator 1 view .LVU315
	leaq	__PRETTY_FUNCTION__.7495(%rip), %rcx
	movl	$1262, %edx
	leaq	.LC10(%rip), %rsi
	leaq	.LC11(%rip), %rdi
	call	__assert_fail@PLT
.LVL117:
	.loc 1 1262 11 is_stmt 0 discriminator 1 view .LVU316
.LBE247:
	.cfi_endproc
	.section	.text.unlikely
	.cfi_startproc
	.type	get_spec_stats.cold, @function
get_spec_stats.cold:
.LFSB161:
.LBB248:
.L71:
	.cfi_def_cfa_offset 80
	.cfi_offset 3, -56
	.cfi_offset 6, -48
	.cfi_offset 12, -40
	.cfi_offset 13, -32
	.cfi_offset 14, -24
	.cfi_offset 15, -16
	.loc 1 1300 11 is_stmt 1 view .LVU220
	call	abort@PLT
.LVL118:
.LBE248:
	.cfi_endproc
.LFE161:
	.text
	.size	get_spec_stats, .-get_spec_stats
	.section	.text.unlikely
	.size	get_spec_stats.cold, .-get_spec_stats.cold
.LCOLDE13:
	.text
.LHOTE13:
	.section	.rodata.str1.8
	.align 8
.LC14:
	.string	"is_char_class_member (p->u.char_class, s->state)"
	.section	.rodata.str1.1
.LC15:
	.string	"i < N_CHARS"
	.section	.text.unlikely
.LCOLDB16:
	.text
.LHOTB16:
	.p2align 4
	.type	get_next, @function
get_next:
.LVL119:
.LFB158:
	.loc 1 1016 1 view -0
	.cfi_startproc
	.loc 1 1016 1 is_stmt 0 view .LVU319
	pushq	%r14
	.cfi_def_cfa_offset 16
	.cfi_offset 14, -16
	leaq	.L111(%rip), %rdx
	pushq	%r13
	.cfi_def_cfa_offset 24
	.cfi_offset 13, -24
	pushq	%r12
	.cfi_def_cfa_offset 32
	.cfi_offset 12, -32
	pushq	%rbp
	.cfi_def_cfa_offset 40
	.cfi_offset 6, -40
	movq	%rdi, %rbp
	pushq	%rbx
	.cfi_def_cfa_offset 48
	.cfi_offset 3, -48
	movq	16(%rdi), %rax
.L130:
	.loc 1 1017 3 is_stmt 1 view .LVU320
	.loc 1 1018 3 view .LVU321
	.loc 1 1019 3 view .LVU322
	.loc 1 1021 3 view .LVU323
	.loc 1 1021 6 is_stmt 0 view .LVU324
	testq	%rsi, %rsi
	je	.L105
	.loc 1 1022 5 is_stmt 1 view .LVU325
	.loc 1 1022 12 is_stmt 0 view .LVU326
	movl	$2, (%rsi)
.L105:
	.loc 1 1024 3 is_stmt 1 view .LVU327
	.loc 1 1024 6 is_stmt 0 view .LVU328
	cmpq	$-2, %rax
	je	.L106
	movq	8(%rbp), %r14
.L107:
	.loc 1 1030 3 is_stmt 1 view .LVU329
.LVL120:
	.loc 1 1031 3 view .LVU330
	.loc 1 1031 6 is_stmt 0 view .LVU331
	testq	%r14, %r14
	je	.L132
	.loc 1 1034 3 is_stmt 1 view .LVU332
	cmpl	$4, (%r14)
	ja	.L109
	movl	(%r14), %eax
	movslq	(%rdx,%rax,4), %rax
	addq	%rdx, %rax
	notrack jmp	*%rax
	.section	.rodata
	.align 4
	.align 4
.L111:
	.long	.L112-.L111
	.long	.L114-.L111
	.long	.L113-.L111
	.long	.L112-.L111
	.long	.L110-.L111
	.text
	.p2align 4,,10
	.p2align 3
.L112:
	.loc 1 1099 7 view .LVU333
	.loc 1 1101 15 is_stmt 0 view .LVU334
	movq	8(%r14), %rax
	.loc 1 1099 18 view .LVU335
	movzbl	16(%r14), %r13d
.LVL121:
	.loc 1 1100 7 is_stmt 1 view .LVU336
	.loc 1 1100 16 is_stmt 0 view .LVU337
	movq	$-1, 16(%rbp)
	.loc 1 1101 7 is_stmt 1 view .LVU338
	.loc 1 1101 15 is_stmt 0 view .LVU339
	movq	%rax, 8(%rbp)
.LVL122:
	.loc 1 1102 7 is_stmt 1 view .LVU340
.L104:
	.loc 1 1133 1 is_stmt 0 view .LVU341
	popq	%rbx
	.cfi_remember_state
	.cfi_def_cfa_offset 40
	movl	%r13d, %eax
	popq	%rbp
	.cfi_def_cfa_offset 32
	popq	%r12
	.cfi_def_cfa_offset 24
	popq	%r13
	.cfi_def_cfa_offset 16
	popq	%r14
	.cfi_def_cfa_offset 8
	ret
.LVL123:
	.p2align 4,,10
	.p2align 3
.L110:
	.cfi_restore_state
	.loc 1 1106 7 is_stmt 1 view .LVU342
	.loc 1 1106 29 is_stmt 0 view .LVU343
	movq	24(%r14), %rax
	.loc 1 1106 10 view .LVU344
	testq	%rax, %rax
	jne	.L129
	.loc 1 1108 11 is_stmt 1 view .LVU345
	.loc 1 1108 19 is_stmt 0 view .LVU346
	movq	8(%r14), %rax
	.loc 1 1109 20 view .LVU347
	movq	$-1, 16(%rbp)
	.loc 1 1108 19 view .LVU348
	movq	%rax, 8(%rbp)
.LVL124:
	.loc 1 1109 11 is_stmt 1 view .LVU349
	.loc 1 1110 11 view .LVU350
	movq	$-1, %rax
	jmp	.L130
.LVL125:
	.p2align 4,,10
	.p2align 3
.L113:
	.loc 1 1056 7 view .LVU351
	movl	16(%r14), %r12d
	.loc 1 1056 10 is_stmt 0 view .LVU352
	testq	%rsi, %rsi
	je	.L118
	.loc 1 1058 11 is_stmt 1 view .LVU353
	cmpl	$6, %r12d
	je	.L119
	cmpl	$10, %r12d
	jne	.L118
	.loc 1 1064 15 view .LVU354
	.loc 1 1064 22 is_stmt 0 view .LVU355
	movl	$1, (%rsi)
	.loc 1 1065 15 is_stmt 1 view .LVU356
	movl	16(%r14), %r12d
.L118:
	.loc 1 1071 7 view .LVU357
	.loc 1 1071 12 is_stmt 0 view .LVU358
	movq	16(%rbp), %rbx
	.loc 1 1071 10 view .LVU359
	cmpq	$-1, %rbx
	je	.L144
.LVL126:
.L121:
	.loc 1 1079 7 is_stmt 1 view .LVU360
	movzbl	%bl, %esi
	movl	%r12d, %edi
	call	is_char_class_member
.LVL127:
	testb	%al, %al
	je	.L145
	.loc 1 1080 7 view .LVU361
	.loc 1 1080 18 is_stmt 0 view .LVU362
	movl	%ebx, %r13d
.LVL128:
	.loc 1 1081 7 is_stmt 1 view .LVU363
	.loc 1 1081 25 is_stmt 0 view .LVU364
	addl	$1, %ebx
.LVL129:
	.loc 1 1081 30 is_stmt 1 view .LVU365
	.loc 1 1081 7 is_stmt 0 view .LVU366
	cmpl	$255, %ebx
	jle	.L128
	jmp	.L126
	.p2align 4,,10
	.p2align 3
.L146:
	.loc 1 1081 43 is_stmt 1 discriminator 2 view .LVU367
	.loc 1 1081 44 is_stmt 0 discriminator 2 view .LVU368
	addl	$1, %ebx
.LVL130:
	.loc 1 1081 30 is_stmt 1 discriminator 2 view .LVU369
	.loc 1 1081 7 is_stmt 0 discriminator 2 view .LVU370
	cmpl	$256, %ebx
	je	.L126
.L128:
	.loc 1 1082 9 is_stmt 1 view .LVU371
	.loc 1 1082 13 is_stmt 0 view .LVU372
	movzbl	%bl, %esi
	movl	%r12d, %edi
	call	is_char_class_member
.LVL131:
	.loc 1 1082 12 view .LVU373
	testb	%al, %al
	je	.L146
	.loc 1 1084 7 is_stmt 1 view .LVU374
	.loc 1 1085 9 view .LVU375
	.loc 1 1085 18 is_stmt 0 view .LVU376
	movslq	%ebx, %rbx
	.loc 1 1133 1 view .LVU377
	movl	%r13d, %eax
	.loc 1 1085 18 view .LVU378
	movq	%rbx, 16(%rbp)
	.loc 1 1133 1 view .LVU379
	popq	%rbx
	.cfi_remember_state
	.cfi_def_cfa_offset 40
.LVL132:
	.loc 1 1133 1 view .LVU380
	popq	%rbp
	.cfi_def_cfa_offset 32
.LVL133:
	.loc 1 1133 1 view .LVU381
	popq	%r12
	.cfi_def_cfa_offset 24
	popq	%r13
	.cfi_def_cfa_offset 16
.LVL134:
	.loc 1 1133 1 view .LVU382
	popq	%r14
	.cfi_def_cfa_offset 8
	ret
.LVL135:
	.p2align 4,,10
	.p2align 3
.L114:
	.cfi_restore_state
	.loc 1 1043 7 is_stmt 1 view .LVU383
	.loc 1 1043 12 is_stmt 0 view .LVU384
	movq	16(%rbp), %rdx
	.loc 1 1046 9 view .LVU385
	leaq	1(%rdx), %rax
	.loc 1 1043 10 view .LVU386
	cmpq	$-1, %rdx
	je	.L147
.L117:
	.loc 1 1048 33 view .LVU387
	movzbl	17(%r14), %edx
	movq	%rax, 16(%rbp)
	.loc 1 1047 7 is_stmt 1 view .LVU388
	.loc 1 1047 18 is_stmt 0 view .LVU389
	movl	%eax, %r13d
.LVL136:
	.loc 1 1048 7 is_stmt 1 view .LVU390
	.loc 1 1048 10 is_stmt 0 view .LVU391
	cmpq	%rax, %rdx
	jne	.L104
.LVL137:
.L126:
	.loc 1 1084 7 is_stmt 1 view .LVU392
	.loc 1 1088 11 view .LVU393
	.loc 1 1088 19 is_stmt 0 view .LVU394
	movq	8(%r14), %rax
	.loc 1 1133 1 view .LVU395
	popq	%rbx
	.cfi_remember_state
	.cfi_def_cfa_offset 40
	.loc 1 1089 20 view .LVU396
	movq	$-1, 16(%rbp)
	.loc 1 1088 19 view .LVU397
	movq	%rax, 8(%rbp)
	.loc 1 1089 11 is_stmt 1 view .LVU398
	.loc 1 1133 1 is_stmt 0 view .LVU399
	popq	%rbp
	.cfi_def_cfa_offset 32
.LVL138:
	.loc 1 1133 1 view .LVU400
	movl	%r13d, %eax
	popq	%r12
	.cfi_def_cfa_offset 24
	popq	%r13
	.cfi_def_cfa_offset 16
.LVL139:
	.loc 1 1133 1 view .LVU401
	popq	%r14
	.cfi_def_cfa_offset 8
	ret
.LVL140:
	.p2align 4,,10
	.p2align 3
.L106:
	.cfi_restore_state
	.loc 1 1026 7 is_stmt 1 view .LVU402
	.loc 1 1026 24 is_stmt 0 view .LVU403
	movq	0(%rbp), %rax
	movq	8(%rax), %r14
	.loc 1 1027 16 view .LVU404
	movq	$-1, 16(%rbp)
	.loc 1 1026 15 view .LVU405
	movq	%r14, 8(%rbp)
	.loc 1 1027 7 is_stmt 1 view .LVU406
	jmp	.L107
.LVL141:
	.p2align 4,,10
	.p2align 3
.L144:
	.loc 1 1073 18 is_stmt 0 view .LVU407
	xorl	%ebx, %ebx
	jmp	.L123
.LVL142:
	.p2align 4,,10
	.p2align 3
.L149:
	.loc 1 1073 36 is_stmt 1 discriminator 2 view .LVU408
	.loc 1 1073 37 is_stmt 0 discriminator 2 view .LVU409
	addl	$1, %ebx
.LVL143:
	.loc 1 1073 23 is_stmt 1 discriminator 2 view .LVU410
	.loc 1 1073 11 is_stmt 0 discriminator 2 view .LVU411
	cmpl	$256, %ebx
	je	.L148
.LVL144:
.L123:
	.loc 1 1074 13 is_stmt 1 view .LVU412
	.loc 1 1074 17 is_stmt 0 view .LVU413
	movl	%ebx, %esi
	movl	%r12d, %edi
	call	is_char_class_member
.LVL145:
	.loc 1 1074 16 view .LVU414
	testb	%al, %al
	je	.L149
	.loc 1 1076 11 is_stmt 1 view .LVU415
	.loc 1 1077 11 view .LVU416
	.loc 1 1077 20 is_stmt 0 view .LVU417
	movslq	%ebx, %rbx
	.loc 1 1077 20 view .LVU418
	movq	%rbx, 16(%rbp)
	jmp	.L121
.LVL146:
	.p2align 4,,10
	.p2align 3
.L147:
	.loc 1 1044 9 is_stmt 1 view .LVU419
	.loc 1 1044 30 is_stmt 0 view .LVU420
	movzbl	16(%r14), %eax
	jmp	.L117
	.p2align 4,,10
	.p2align 3
.L119:
	.loc 1 1061 15 is_stmt 1 view .LVU421
	.loc 1 1061 22 is_stmt 0 view .LVU422
	movl	$0, (%rsi)
	.loc 1 1062 15 is_stmt 1 view .LVU423
	movl	16(%r14), %r12d
	jmp	.L118
	.p2align 4,,10
	.p2align 3
.L132:
	.loc 1 1032 12 is_stmt 0 view .LVU424
	movl	$-1, %r13d
	jmp	.L104
.L129:
	.loc 1 1114 11 is_stmt 1 view .LVU425
	.loc 1 1114 16 is_stmt 0 view .LVU426
	movq	16(%rbp), %rcx
	.loc 1 1119 22 view .LVU427
	movzbl	16(%r14), %r13d
	leaq	1(%rcx), %rdx
	cmpq	$-1, %rcx
	movl	$1, %ecx
	cmove	%rcx, %rdx
	.loc 1 1118 11 is_stmt 1 view .LVU428
	movq	%rdx, 16(%rbp)
	.loc 1 1119 11 view .LVU429
.LVL147:
	.loc 1 1120 11 view .LVU430
	.loc 1 1120 14 is_stmt 0 view .LVU431
	cmpq	%rdx, %rax
	jne	.L104
	jmp	.L126
.LVL148:
.L145:
	.loc 1 1079 7 is_stmt 1 discriminator 1 view .LVU432
	leaq	__PRETTY_FUNCTION__.7443(%rip), %rcx
	movl	$1079, %edx
	leaq	.LC10(%rip), %rsi
	leaq	.LC14(%rip), %rdi
	call	__assert_fail@PLT
.LVL149:
.L148:
	.loc 1 1076 11 view .LVU433
	.loc 1 1076 11 view .LVU434
	leaq	__PRETTY_FUNCTION__.7443(%rip), %rcx
	movl	$1076, %edx
	leaq	.LC10(%rip), %rsi
	leaq	.LC15(%rip), %rdi
	call	__assert_fail@PLT
.LVL150:
	.loc 1 1076 11 is_stmt 0 view .LVU435
	.cfi_endproc
	.section	.text.unlikely
	.cfi_startproc
	.type	get_next.cold, @function
get_next.cold:
.LFSB158:
.L109:
	.cfi_def_cfa_offset 48
	.cfi_offset 3, -48
	.cfi_offset 6, -40
	.cfi_offset 12, -32
	.cfi_offset 13, -24
	.cfi_offset 14, -16
	.loc 1 1129 7 is_stmt 1 view .LVU318
	call	abort@PLT
.LVL151:
	.loc 1 1129 7 is_stmt 0 view .LVU437
	.cfi_endproc
.LFE158:
	.text
	.size	get_next, .-get_next
	.section	.text.unlikely
	.size	get_next.cold, .-get_next.cold
.LCOLDE16:
	.text
.LHOTE16:
	.section	.rodata.str1.1
.LC17:
	.string	"read error"
	.text
	.p2align 4
	.type	plain_read.part.0, @function
plain_read.part.0:
.LFB179:
	.loc 1 1607 1 is_stmt 1 view -0
	.cfi_startproc
.LVL152:
.LBB249:
	.loc 1 1611 5 view .LVU439
.LBE249:
	.loc 1 1607 1 is_stmt 0 view .LVU440
	pushq	%r12
	.cfi_def_cfa_offset 16
	.cfi_offset 12, -16
.LBB250:
	.loc 1 1611 5 view .LVU441
	movl	$5, %edx
	leaq	.LC17(%rip), %rsi
	xorl	%edi, %edi
	call	dcgettext@PLT
.LVL153:
	movq	%rax, %r12
	call	__errno_location@PLT
.LVL154:
	movq	%r12, %rdx
	movl	$1, %edi
	movl	(%rax), %esi
	xorl	%eax, %eax
	call	error@PLT
.LVL155:
.LBE250:
	.cfi_endproc
.LFE179:
	.size	plain_read.part.0, .-plain_read.part.0
	.p2align 4
	.type	plain_read, @function
plain_read:
.LVL156:
.LFB170:
	.loc 1 1608 1 is_stmt 1 view -0
	.cfi_startproc
	.loc 1 1608 1 is_stmt 0 view .LVU443
	endbr64
	.loc 1 1609 3 is_stmt 1 view .LVU444
	.loc 1 1608 1 is_stmt 0 view .LVU445
	subq	$8, %rsp
	.cfi_def_cfa_offset 16
	.loc 1 1608 1 view .LVU446
	movq	%rsi, %rdx
	.loc 1 1609 15 view .LVU447
	movq	%rdi, %rsi
.LVL157:
	.loc 1 1609 15 view .LVU448
	xorl	%edi, %edi
.LVL158:
	.loc 1 1609 15 view .LVU449
	call	safe_read@PLT
.LVL159:
	.loc 1 1610 3 is_stmt 1 view .LVU450
	.loc 1 1610 6 is_stmt 0 view .LVU451
	cmpq	$-1, %rax
	je	.L155
	.loc 1 1613 1 view .LVU452
	addq	$8, %rsp
	.cfi_remember_state
	.cfi_def_cfa_offset 8
	ret
.L155:
	.cfi_restore_state
	call	plain_read.part.0
.LVL160:
	.loc 1 1613 1 view .LVU453
	.cfi_endproc
.LFE170:
	.size	plain_read, .-plain_read
	.p2align 4
	.type	read_and_delete, @function
read_and_delete:
.LVL161:
.LFB171:
	.loc 1 1623 1 is_stmt 1 view -0
	.cfi_startproc
	.loc 1 1623 1 is_stmt 0 view .LVU455
	endbr64
	pushq	%r12
	.cfi_def_cfa_offset 16
	.cfi_offset 12, -16
	leaq	in_delete_set(%rip), %r12
	pushq	%rbp
	.cfi_def_cfa_offset 24
	.cfi_offset 6, -24
	movq	%rdi, %rbp
	pushq	%rbx
	.cfi_def_cfa_offset 32
	.cfi_offset 3, -32
	.loc 1 1623 1 view .LVU456
	movq	%rsi, %rbx
.LVL162:
	.p2align 4,,10
	.p2align 3
.L165:
	.loc 1 1624 3 is_stmt 1 view .LVU457
	.loc 1 1629 3 view .LVU458
.LBB251:
	.loc 1 1631 7 view .LVU459
.LBB252:
.LBI252:
	.loc 1 1607 1 view .LVU460
.LBB253:
	.loc 1 1609 3 view .LVU461
	.loc 1 1609 15 is_stmt 0 view .LVU462
	xorl	%edi, %edi
	movq	%rbx, %rdx
	movq	%rbp, %rsi
	call	safe_read@PLT
.LVL163:
	.loc 1 1610 3 is_stmt 1 view .LVU463
	.loc 1 1610 6 is_stmt 0 view .LVU464
	cmpq	$-1, %rax
	je	.L176
	.loc 1 1612 3 is_stmt 1 view .LVU465
.LVL164:
	.loc 1 1612 3 is_stmt 0 view .LVU466
.LBE253:
.LBE252:
	.loc 1 1633 7 is_stmt 1 view .LVU467
	.loc 1 1633 10 is_stmt 0 view .LVU468
	testq	%rax, %rax
	je	.L156
	.loc 1 1642 14 view .LVU469
	xorl	%esi, %esi
.L159:
.LVL165:
.LBB255:
.LBI255:
	.loc 2 156 29 is_stmt 1 discriminator 3 view .LVU470
.LBB256:
	.loc 2 156 50 discriminator 3 view .LVU471
	.loc 2 156 50 is_stmt 0 discriminator 3 view .LVU472
.LBE256:
.LBE255:
	.loc 1 1642 43 discriminator 3 view .LVU473
	movzbl	0(%rbp,%rsi), %ecx
	leaq	1(%rsi), %rdx
	.loc 1 1642 26 discriminator 3 view .LVU474
	cmpb	$0, (%r12,%rcx)
	jne	.L175
	jmp	.L161
.LVL166:
	.p2align 4,,10
	.p2align 3
.L164:
	.loc 1 1647 9 is_stmt 1 view .LVU475
	.loc 1 1647 41 is_stmt 0 view .LVU476
	movzbl	0(%rbp,%rdx), %edi
.LVL167:
.LBB257:
.LBI257:
	.loc 2 156 29 is_stmt 1 view .LVU477
.LBB258:
	.loc 2 156 50 view .LVU478
	.loc 2 156 50 is_stmt 0 view .LVU479
.LBE258:
.LBE257:
	.loc 1 1647 12 view .LVU480
	cmpb	$0, (%r12,%rdi)
	jne	.L163
	.loc 1 1648 11 is_stmt 1 view .LVU481
.LVL168:
	.loc 1 1648 26 is_stmt 0 view .LVU482
	movb	%dil, 0(%rbp,%rsi)
	.loc 1 1648 22 view .LVU483
	addq	$1, %rsi
.LVL169:
.L163:
	.loc 1 1646 25 is_stmt 1 discriminator 2 view .LVU484
	.loc 1 1646 26 is_stmt 0 discriminator 2 view .LVU485
	addq	$1, %rdx
.LVL170:
.L175:
	.loc 1 1646 17 is_stmt 1 discriminator 2 view .LVU486
	.loc 1 1646 7 is_stmt 0 discriminator 2 view .LVU487
	cmpq	%rdx, %rax
	ja	.L164
.LBE251:
	.loc 1 1650 9 is_stmt 1 view .LVU488
	.loc 1 1650 3 is_stmt 0 view .LVU489
	testq	%rsi, %rsi
	je	.L165
	movq	%rsi, %rax
.LVL171:
.L156:
	.loc 1 1653 1 view .LVU490
	popq	%rbx
	.cfi_remember_state
	.cfi_def_cfa_offset 24
.LVL172:
	.loc 1 1653 1 view .LVU491
	popq	%rbp
	.cfi_def_cfa_offset 16
.LVL173:
	.loc 1 1653 1 view .LVU492
	popq	%r12
	.cfi_def_cfa_offset 8
	ret
.LVL174:
	.p2align 4,,10
	.p2align 3
.L161:
	.cfi_restore_state
.LBB260:
	.loc 1 1643 9 is_stmt 1 view .LVU493
	.loc 1 1642 64 view .LVU494
	.loc 1 1642 19 view .LVU495
	.loc 1 1642 7 is_stmt 0 view .LVU496
	cmpq	%rdx, %rax
	je	.L160
	movq	%rdx, %rsi
.LVL175:
	.loc 1 1642 7 view .LVU497
	jmp	.L159
.LVL176:
.L160:
	.loc 1 1644 7 is_stmt 1 view .LVU498
	.loc 1 1646 7 view .LVU499
	.loc 1 1646 12 is_stmt 0 view .LVU500
	leaq	2(%rsi), %rdx
.LVL177:
	.loc 1 1646 17 is_stmt 1 view .LVU501
	.loc 1 1646 7 is_stmt 0 view .LVU502
	cmpq	%rax, %rdx
	jnb	.L156
	movq	%rax, %rsi
.LVL178:
	.loc 1 1646 7 view .LVU503
	jmp	.L164
.LVL179:
.L176:
.LBB259:
.LBB254:
	.loc 1 1646 7 view .LVU504
	call	plain_read.part.0
.LVL180:
	.loc 1 1646 7 view .LVU505
.LBE254:
.LBE259:
.LBE260:
	.cfi_endproc
.LFE171:
	.size	read_and_delete, .-read_and_delete
	.p2align 4
	.type	read_and_xlate, @function
read_and_xlate:
.LVL181:
.LFB172:
	.loc 1 1661 1 is_stmt 1 view -0
	.cfi_startproc
	.loc 1 1661 1 is_stmt 0 view .LVU507
	endbr64
	pushq	%rbx
	.cfi_def_cfa_offset 16
	.cfi_offset 3, -16
	.loc 1 1661 1 view .LVU508
	movq	%rsi, %rdx
	movq	%rdi, %rbx
	.loc 1 1662 3 is_stmt 1 view .LVU509
.LVL182:
.LBB261:
.LBI261:
	.loc 1 1607 1 view .LVU510
.LBB262:
	.loc 1 1609 3 view .LVU511
	.loc 1 1609 15 is_stmt 0 view .LVU512
	movq	%rdi, %rsi
.LVL183:
	.loc 1 1609 15 view .LVU513
	xorl	%edi, %edi
.LVL184:
	.loc 1 1609 15 view .LVU514
	call	safe_read@PLT
.LVL185:
	.loc 1 1610 3 is_stmt 1 view .LVU515
	.loc 1 1610 6 is_stmt 0 view .LVU516
	cmpq	$-1, %rax
	je	.L178
.LVL186:
	.loc 1 1610 6 view .LVU517
.LBE262:
.LBE261:
.LBB264:
	.loc 1 1664 22 is_stmt 1 view .LVU518
	movq	%rbx, %rdi
	leaq	(%rbx,%rax), %rsi
	leaq	xlate(%rip), %rcx
	.loc 1 1664 3 is_stmt 0 view .LVU519
	testq	%rax, %rax
	je	.L177
.LVL187:
	.p2align 4,,10
	.p2align 3
.L181:
	.loc 1 1665 5 is_stmt 1 discriminator 3 view .LVU520
.LBB265:
.LBI265:
	.loc 2 156 29 discriminator 3 view .LVU521
.LBB266:
	.loc 2 156 50 discriminator 3 view .LVU522
	.loc 2 156 50 is_stmt 0 discriminator 3 view .LVU523
.LBE266:
.LBE265:
	.loc 1 1665 19 discriminator 3 view .LVU524
	movzbl	(%rdi), %edx
	addq	$1, %rdi
.LVL188:
	.loc 1 1665 12 discriminator 3 view .LVU525
	movzbl	(%rcx,%rdx), %edx
	movb	%dl, -1(%rdi)
	.loc 1 1664 38 is_stmt 1 discriminator 3 view .LVU526
.LVL189:
	.loc 1 1664 22 discriminator 3 view .LVU527
	.loc 1 1664 3 is_stmt 0 discriminator 3 view .LVU528
	cmpq	%rdi, %rsi
	jne	.L181
.L177:
.LBE264:
	.loc 1 1668 1 view .LVU529
	popq	%rbx
	.cfi_remember_state
	.cfi_def_cfa_offset 8
.LVL190:
	.loc 1 1668 1 view .LVU530
	ret
.LVL191:
.L178:
	.cfi_restore_state
.LBB267:
.LBB263:
	.loc 1 1668 1 view .LVU531
	call	plain_read.part.0
.LVL192:
	.loc 1 1668 1 view .LVU532
.LBE263:
.LBE267:
	.cfi_endproc
.LFE172:
	.size	read_and_xlate, .-read_and_xlate
	.section	.rodata.str1.1
.LC18:
	.string	"list->tail"
	.text
	.p2align 4
	.type	append_repeated_char.part.0, @function
append_repeated_char.part.0:
.LFB182:
	.loc 1 711 1 is_stmt 1 view -0
	.cfi_startproc
	pushq	%rax
	.cfi_def_cfa_offset 16
	popq	%rax
	.cfi_def_cfa_offset 8
.LVL193:
	.loc 1 719 3 view .LVU534
	leaq	__PRETTY_FUNCTION__.7357(%rip), %rcx
	movl	$719, %edx
	leaq	.LC10(%rip), %rsi
	leaq	.LC18(%rip), %rdi
	.loc 1 711 1 is_stmt 0 view .LVU535
	subq	$8, %rsp
	.cfi_def_cfa_offset 16
	.loc 1 719 3 view .LVU536
	call	__assert_fail@PLT
.LVL194:
	.cfi_endproc
.LFE182:
	.size	append_repeated_char.part.0, .-append_repeated_char.part.0
	.p2align 4
	.type	append_normal_char, @function
append_normal_char:
.LVL195:
.LFB148:
	.loc 1 642 1 is_stmt 1 view -0
	.cfi_startproc
	.loc 1 642 1 is_stmt 0 view .LVU538
	pushq	%rbp
	.cfi_def_cfa_offset 16
	.cfi_offset 6, -16
	movl	%esi, %ebp
	.loc 1 643 3 is_stmt 1 view .LVU539
	.loc 1 642 1 is_stmt 0 view .LVU540
	pushq	%rbx
	.cfi_def_cfa_offset 24
	.cfi_offset 3, -24
	movq	%rdi, %rbx
	.loc 1 643 30 view .LVU541
	movl	$32, %edi
.LVL196:
	.loc 1 642 1 view .LVU542
	subq	$8, %rsp
	.cfi_def_cfa_offset 32
	.loc 1 643 30 view .LVU543
	call	xmalloc@PLT
.LVL197:
	.loc 1 644 3 is_stmt 1 view .LVU544
	.loc 1 647 3 is_stmt 0 view .LVU545
	movq	8(%rbx), %rdx
	.loc 1 644 13 view .LVU546
	movq	$0, 8(%rax)
	.loc 1 645 3 is_stmt 1 view .LVU547
	.loc 1 645 13 is_stmt 0 view .LVU548
	movl	$0, (%rax)
	.loc 1 646 3 is_stmt 1 view .LVU549
	.loc 1 646 22 is_stmt 0 view .LVU550
	movb	%bpl, 16(%rax)
	.loc 1 647 3 is_stmt 1 view .LVU551
	testq	%rdx, %rdx
	je	.L190
	.loc 1 648 3 view .LVU552
	.loc 1 648 20 is_stmt 0 view .LVU553
	movq	%rax, 8(%rdx)
	.loc 1 649 3 is_stmt 1 view .LVU554
	.loc 1 649 14 is_stmt 0 view .LVU555
	movq	%rax, 8(%rbx)
	.loc 1 650 1 view .LVU556
	addq	$8, %rsp
	.cfi_remember_state
	.cfi_def_cfa_offset 24
	popq	%rbx
	.cfi_def_cfa_offset 16
.LVL198:
	.loc 1 650 1 view .LVU557
	popq	%rbp
	.cfi_def_cfa_offset 8
	ret
.LVL199:
.L190:
	.cfi_restore_state
.LBB270:
.LBI270:
	.loc 1 641 1 is_stmt 1 view .LVU558
.LBB271:
	.loc 1 647 3 view .LVU559
	leaq	__PRETTY_FUNCTION__.7333(%rip), %rcx
	movl	$647, %edx
	leaq	.LC10(%rip), %rsi
	leaq	.LC18(%rip), %rdi
	call	__assert_fail@PLT
.LVL200:
	.loc 1 647 3 is_stmt 0 view .LVU560
.LBE271:
.LBE270:
	.cfi_endproc
.LFE148:
	.size	append_normal_char, .-append_normal_char
	.section	.rodata.str1.8
	.align 8
.LC19:
	.string	"warning: the ambiguous octal escape \\%c%c%c is being\n\tinterpreted as the 2-byte sequence \\0%c%c, %c"
	.align 8
.LC20:
	.string	"warning: an unescaped backslash at end of string is not portable"
	.align 8
.LC21:
	.string	"missing character class name '[::]'"
	.align 8
.LC22:
	.string	"missing equivalence class character '[==]'"
	.section	.rodata.str1.1
.LC23:
	.string	"invalid character class %s"
	.section	.rodata.str1.8
	.align 8
.LC24:
	.string	"%s: equivalence class operand must be a single character"
	.align 8
.LC25:
	.string	"invalid repeat count %s in [c*n] construct"
	.align 8
.LC26:
	.string	"range-endpoints of '%s-%s' are in reverse collating sequence order"
	.text
	.p2align 4
	.type	parse_str, @function
parse_str:
.LVL201:
.LFB165:
	.loc 1 1352 1 is_stmt 1 view -0
	.cfi_startproc
	.loc 1 1352 1 is_stmt 0 view .LVU562
	pushq	%r15
	.cfi_def_cfa_offset 16
	.cfi_offset 15, -16
	pushq	%r14
	.cfi_def_cfa_offset 24
	.cfi_offset 14, -24
	pushq	%r13
	.cfi_def_cfa_offset 32
	.cfi_offset 13, -32
	pushq	%r12
	.cfi_def_cfa_offset 40
	.cfi_offset 12, -40
	pushq	%rbp
	.cfi_def_cfa_offset 48
	.cfi_offset 6, -48
	pushq	%rbx
	.cfi_def_cfa_offset 56
	.cfi_offset 3, -56
	movq	%rdi, %rbx
	subq	$136, %rsp
	.cfi_def_cfa_offset 192
	.loc 1 1352 1 view .LVU563
	movq	%rsi, (%rsp)
	movq	%fs:40, %rax
	movq	%rax, 120(%rsp)
	xorl	%eax, %eax
	.loc 1 1353 3 is_stmt 1 view .LVU564
	.loc 1 1354 3 view .LVU565
.LVL202:
.LBB315:
.LBI315:
	.loc 1 432 1 view .LVU566
.LBB316:
	.loc 1 434 3 view .LVU567
	.loc 1 434 16 is_stmt 0 view .LVU568
	call	strlen@PLT
.LVL203:
	.loc 1 434 16 view .LVU569
	movq	%rax, %r12
.LVL204:
	.loc 1 436 3 is_stmt 1 view .LVU570
	.loc 1 436 11 is_stmt 0 view .LVU571
	movq	%rax, %rdi
	call	xmalloc@PLT
.LVL205:
	.loc 1 437 17 view .LVU572
	movq	%r12, %rdi
	movl	$1, %esi
	.loc 1 436 9 view .LVU573
	movq	%rax, 96(%rsp)
	.loc 1 437 3 is_stmt 1 view .LVU574
	.loc 1 436 11 is_stmt 0 view .LVU575
	movq	%rax, %rbp
	.loc 1 437 17 view .LVU576
	call	xcalloc@PLT
.LVL206:
	.loc 1 437 15 view .LVU577
	movq	%rax, 104(%rsp)
	.loc 1 439 3 is_stmt 1 view .LVU578
.LVL207:
	.loc 1 440 3 view .LVU579
.LBB317:
	.loc 1 440 8 view .LVU580
	.loc 1 440 28 view .LVU581
.LBE317:
	.loc 1 437 17 is_stmt 0 view .LVU582
	movq	%rax, %r12
.LVL208:
.LBB324:
	.loc 1 440 29 view .LVU583
	movzbl	(%rbx), %eax
	.loc 1 440 3 view .LVU584
	testb	%al, %al
	je	.L192
	.loc 1 440 21 view .LVU585
	xorl	%ecx, %ecx
.LBE324:
	.loc 1 439 16 view .LVU586
	xorl	%r14d, %r14d
	leaq	.L198(%rip), %r11
	movq	%rbx, %r10
	jmp	.L208
.LVL209:
	.p2align 4,,10
	.p2align 3
.L193:
.LBB325:
.LBB318:
	.loc 1 531 11 is_stmt 1 view .LVU587
	.loc 1 531 22 is_stmt 0 view .LVU588
	movb	%al, (%rbx)
	.loc 1 532 11 is_stmt 1 view .LVU589
.LVL210:
	.loc 1 532 11 is_stmt 0 view .LVU590
	movl	%r9d, %eax
.LVL211:
	.loc 1 532 11 view .LVU591
.LBE318:
	.loc 1 440 34 is_stmt 1 view .LVU592
	.loc 1 440 28 view .LVU593
.LBB319:
	.loc 1 532 11 is_stmt 0 view .LVU594
	movl	%esi, %ecx
.LBE319:
	.loc 1 440 3 view .LVU595
	testb	%al, %al
	je	.L304
.LVL212:
.L208:
.LBB320:
	.loc 1 442 7 is_stmt 1 view .LVU596
	.loc 1 443 7 view .LVU597
	.loc 1 445 7 view .LVU598
	movl	%r14d, %edx
	leal	1(%rcx), %esi
	addl	$1, %r14d
.LVL213:
	.loc 1 445 7 is_stmt 0 view .LVU599
	movzbl	(%r10,%rsi), %r9d
	movq	%rsi, %r15
	leaq	0(%rbp,%rdx), %rbx
	cmpb	$92, %al
	jne	.L193
	.loc 1 448 11 is_stmt 1 view .LVU600
	.loc 1 448 22 is_stmt 0 view .LVU601
	leaq	(%r12,%rdx), %r13
	.loc 1 448 26 view .LVU602
	movb	$1, 0(%r13)
	.loc 1 449 11 is_stmt 1 view .LVU603
	testb	%r9b, %r9b
	je	.L194
	leal	-48(%r9), %edx
	movl	%r9d, %r13d
	cmpb	$70, %dl
	ja	.L299
	movzbl	%dl, %eax
	movslq	(%r11,%rax,4), %rax
	addq	%r11, %rax
	notrack jmp	*%rax
	.section	.rodata
	.align 4
	.align 4
.L198:
	.long	.L205-.L198
	.long	.L205-.L198
	.long	.L205-.L198
	.long	.L205-.L198
	.long	.L205-.L198
	.long	.L205-.L198
	.long	.L205-.L198
	.long	.L205-.L198
	.long	.L299-.L198
	.long	.L299-.L198
	.long	.L299-.L198
	.long	.L299-.L198
	.long	.L299-.L198
	.long	.L299-.L198
	.long	.L299-.L198
	.long	.L299-.L198
	.long	.L299-.L198
	.long	.L299-.L198
	.long	.L299-.L198
	.long	.L299-.L198
	.long	.L299-.L198
	.long	.L299-.L198
	.long	.L299-.L198
	.long	.L299-.L198
	.long	.L299-.L198
	.long	.L299-.L198
	.long	.L299-.L198
	.long	.L299-.L198
	.long	.L299-.L198
	.long	.L299-.L198
	.long	.L299-.L198
	.long	.L299-.L198
	.long	.L299-.L198
	.long	.L299-.L198
	.long	.L299-.L198
	.long	.L299-.L198
	.long	.L299-.L198
	.long	.L299-.L198
	.long	.L299-.L198
	.long	.L299-.L198
	.long	.L299-.L198
	.long	.L299-.L198
	.long	.L299-.L198
	.long	.L299-.L198
	.long	.L204-.L198
	.long	.L299-.L198
	.long	.L299-.L198
	.long	.L299-.L198
	.long	.L299-.L198
	.long	.L259-.L198
	.long	.L203-.L198
	.long	.L299-.L198
	.long	.L299-.L198
	.long	.L299-.L198
	.long	.L202-.L198
	.long	.L299-.L198
	.long	.L299-.L198
	.long	.L299-.L198
	.long	.L299-.L198
	.long	.L299-.L198
	.long	.L299-.L198
	.long	.L299-.L198
	.long	.L201-.L198
	.long	.L299-.L198
	.long	.L299-.L198
	.long	.L299-.L198
	.long	.L200-.L198
	.long	.L299-.L198
	.long	.L199-.L198
	.long	.L299-.L198
	.long	.L197-.L198
	.text
.L259:
	movl	$7, %r13d
.L299:
	leal	2(%rcx), %eax
.L195:
.LVL214:
	.loc 1 527 11 view .LVU604
	.loc 1 528 11 view .LVU605
	.loc 1 528 11 is_stmt 0 view .LVU606
	movl	%eax, %eax
	.loc 1 528 22 view .LVU607
	movb	%r13b, (%rbx)
	.loc 1 529 11 is_stmt 1 view .LVU608
	movq	%rax, %rcx
	movzbl	(%r10,%rax), %eax
.LVL215:
	.loc 1 529 11 is_stmt 0 view .LVU609
.LBE320:
	.loc 1 440 34 is_stmt 1 view .LVU610
	.loc 1 440 28 view .LVU611
	.loc 1 440 3 is_stmt 0 view .LVU612
	testb	%al, %al
	jne	.L208
.LVL216:
.L304:
	.loc 1 440 3 view .LVU613
	movl	%r14d, %eax
	movq	%rax, 16(%rsp)
.LBE325:
	.loc 1 535 3 is_stmt 1 view .LVU614
	.loc 1 535 11 is_stmt 0 view .LVU615
	movq	%rax, 112(%rsp)
	.loc 1 536 3 is_stmt 1 view .LVU616
.LVL217:
	.loc 1 536 3 is_stmt 0 view .LVU617
.LBE316:
.LBE315:
.LBB332:
.LBI332:
	.loc 1 854 1 is_stmt 1 view .LVU618
.LBB333:
	.loc 1 856 3 view .LVU619
	.loc 1 864 3 view .LVU620
	.loc 1 865 3 view .LVU621
	.loc 1 865 15 view .LVU622
	.loc 1 865 3 is_stmt 0 view .LVU623
	cmpl	$2, %r14d
	jbe	.L262
	.loc 1 865 10 view .LVU624
	xorl	%r15d, %r15d
	.loc 1 865 17 view .LVU625
	movl	$2, %r13d
	movq	%r15, %r14
	jmp	.L244
.LVL218:
	.p2align 4,,10
	.p2align 3
.L210:
	.loc 1 971 7 is_stmt 1 view .LVU626
.LBB334:
.LBI334:
	.loc 1 194 1 view .LVU627
.LBB335:
	.loc 1 196 3 view .LVU628
	movzbl	70(%rsp), %esi
	.loc 1 196 24 is_stmt 0 view .LVU629
	cmpb	$45, %bl
	je	.L305
.L241:
.LVL219:
	.loc 1 196 24 view .LVU630
.LBE335:
.LBE334:
	.loc 1 979 11 is_stmt 1 view .LVU631
	movq	(%rsp), %rdi
	call	append_normal_char
.LVL220:
	.loc 1 980 11 view .LVU632
	.loc 1 980 11 is_stmt 0 view .LVU633
	movq	8(%rsp), %r14
.LVL221:
.L240:
	.loc 1 865 15 is_stmt 1 view .LVU634
	.loc 1 865 17 is_stmt 0 view .LVU635
	leaq	2(%r14), %r13
	.loc 1 865 3 view .LVU636
	cmpq	16(%rsp), %r13
	jnb	.L306
.LVL222:
.L244:
	.loc 1 867 7 is_stmt 1 view .LVU637
.LBB337:
.LBI337:
	.loc 1 194 1 view .LVU638
.LBB338:
	.loc 1 196 3 view .LVU639
	.loc 1 196 15 is_stmt 0 view .LVU640
	movzbl	0(%rbp,%r14), %eax
	leaq	1(%r14), %rcx
	movzbl	1(%rbp,%r14), %ebx
	movq	%rcx, 8(%rsp)
	movb	%al, 70(%rsp)
	.loc 1 196 24 view .LVU641
	cmpb	$91, %al
	jne	.L210
	.loc 1 196 39 view .LVU642
	movzbl	(%r12,%r14), %eax
	movb	%al, 24(%rsp)
	.loc 1 196 24 view .LVU643
	testb	%al, %al
	jne	.L210
.LVL223:
	.loc 1 196 24 view .LVU644
.LBE338:
.LBE337:
.LBB339:
	.loc 1 869 11 is_stmt 1 view .LVU645
	.loc 1 870 11 view .LVU646
	.loc 1 871 11 view .LVU647
	.loc 1 872 11 view .LVU648
	.loc 1 873 11 view .LVU649
	.loc 1 875 11 view .LVU650
	.loc 1 876 11 view .LVU651
.LBB340:
.LBI340:
	.loc 1 194 1 view .LVU652
.LBB341:
	.loc 1 196 3 view .LVU653
	.loc 1 196 24 is_stmt 0 view .LVU654
	cmpb	$58, %bl
	je	.L255
.LVL224:
	.loc 1 196 24 view .LVU655
.LBE341:
.LBE340:
.LBB342:
.LBI342:
	.loc 1 194 1 is_stmt 1 view .LVU656
.LBB343:
	.loc 1 196 3 view .LVU657
	.loc 1 196 24 is_stmt 0 view .LVU658
	cmpb	$61, %bl
	je	.L255
.LVL225:
	.p2align 4,,10
	.p2align 3
.L212:
	.loc 1 196 24 view .LVU659
.LBE343:
.LBE342:
	.loc 1 943 11 is_stmt 1 view .LVU660
.LBB345:
.LBI345:
	.loc 1 778 1 view .LVU661
.LBB346:
	.loc 1 782 3 view .LVU662
	.loc 1 783 3 view .LVU663
.LBB347:
.LBI347:
	.loc 1 194 1 view .LVU664
.LBB348:
	.loc 1 196 3 view .LVU665
	.loc 1 196 24 is_stmt 0 view .LVU666
	cmpb	$42, 0(%rbp,%r13)
	jne	.L210
	cmpb	$0, (%r12,%r13)
	jne	.L210
.LVL226:
	.loc 1 196 24 view .LVU667
.LBE348:
.LBE347:
	.loc 1 786 3 is_stmt 1 view .LVU668
.LBB349:
	.loc 1 786 8 view .LVU669
	.loc 1 786 15 is_stmt 0 view .LVU670
	leaq	3(%r14), %rax
.LVL227:
	.loc 1 786 34 is_stmt 1 view .LVU671
	.loc 1 786 3 is_stmt 0 view .LVU672
	movq	%rax, %r15
	cmpq	%rax, 16(%rsp)
	ja	.L249
	jmp	.L210
.LVL228:
	.p2align 4,,10
	.p2align 3
.L231:
	.loc 1 786 66 is_stmt 1 view .LVU673
	.loc 1 786 67 is_stmt 0 view .LVU674
	addq	$1, %r15
.LVL229:
	.loc 1 786 34 is_stmt 1 view .LVU675
	.loc 1 786 3 is_stmt 0 view .LVU676
	cmpq	%r15, 16(%rsp)
	jbe	.L210
.L249:
	.loc 1 786 46 view .LVU677
	cmpb	$0, (%r12,%r15)
	jne	.L210
	.loc 1 788 7 is_stmt 1 view .LVU678
	.loc 1 788 10 is_stmt 0 view .LVU679
	cmpb	$93, 0(%rbp,%r15)
	jne	.L231
.LBB350:
	.loc 1 790 11 is_stmt 1 view .LVU680
	.loc 1 790 18 is_stmt 0 view .LVU681
	movq	%r15, %r13
	subq	8(%rsp), %r13
.LVL230:
	.loc 1 792 11 is_stmt 1 view .LVU682
	.loc 1 793 11 view .LVU683
	.loc 1 793 14 is_stmt 0 view .LVU684
	subq	$2, %r13
.LVL231:
	.loc 1 793 14 view .LVU685
	je	.L307
.LBB351:
	.loc 1 802 15 is_stmt 1 view .LVU686
	.loc 1 802 27 is_stmt 0 view .LVU687
	leaq	0(%rbp,%rax), %r14
.LVL232:
	.loc 1 803 15 is_stmt 1 view .LVU688
	.loc 1 804 15 view .LVU689
	.loc 1 804 20 is_stmt 0 view .LVU690
	xorl	%edx, %edx
	leaq	80(%rsp), %rcx
.LVL233:
	.loc 1 804 20 view .LVU691
	cmpb	$48, (%r14)
	leaq	88(%rsp), %rsi
	movq	%r14, %rdi
	setne	%dl
	xorl	%r8d, %r8d
	leal	8(%rdx,%rdx), %edx
	call	xstrtoumax@PLT
.LVL234:
	.loc 1 804 18 view .LVU692
	testl	%eax, %eax
	jne	.L235
	.loc 1 807 45 view .LVU693
	movq	80(%rsp), %rdx
	.loc 1 807 19 view .LVU694
	cmpq	$-1, %rdx
	je	.L235
	.loc 1 808 32 view .LVU695
	leaq	(%r14,%r13), %rax
	.loc 1 808 19 view .LVU696
	cmpq	%rax, 88(%rsp)
	jne	.L235
.LVL235:
.L233:
	.loc 1 808 19 view .LVU697
.LBE351:
.LBE350:
.LBE349:
.LBE346:
.LBE345:
.LBB370:
.LBB371:
	.loc 1 714 30 view .LVU698
	movl	$32, %edi
	movq	%rdx, 8(%rsp)
.LVL236:
	.loc 1 714 30 view .LVU699
.LBE371:
.LBE370:
	.loc 1 948 15 is_stmt 1 view .LVU700
.LBB376:
.LBI370:
	.loc 1 711 1 view .LVU701
.LBB372:
	.loc 1 714 3 view .LVU702
	.loc 1 714 30 is_stmt 0 view .LVU703
	call	xmalloc@PLT
.LVL237:
	.loc 1 715 3 is_stmt 1 view .LVU704
	.loc 1 718 37 is_stmt 0 view .LVU705
	movq	8(%rsp), %rdx
	.loc 1 719 3 view .LVU706
	movq	(%rsp), %rsi
	.loc 1 715 13 view .LVU707
	movq	$0, 8(%rax)
	.loc 1 716 3 is_stmt 1 view .LVU708
	.loc 1 718 37 is_stmt 0 view .LVU709
	movq	%rdx, 24(%rax)
	.loc 1 719 3 view .LVU710
	movq	8(%rsi), %rdx
	.loc 1 716 13 view .LVU711
	movl	$4, (%rax)
	.loc 1 717 3 is_stmt 1 view .LVU712
	.loc 1 717 42 is_stmt 0 view .LVU713
	movb	%bl, 16(%rax)
	.loc 1 718 3 is_stmt 1 view .LVU714
	.loc 1 719 3 view .LVU715
	testq	%rdx, %rdx
	je	.L308
	.loc 1 720 3 view .LVU716
	.loc 1 721 14 is_stmt 0 view .LVU717
	movq	(%rsp), %rcx
.LBE372:
.LBE376:
	.loc 1 949 17 view .LVU718
	leaq	1(%r15), %r14
.LBB377:
.LBB373:
	.loc 1 720 20 view .LVU719
	movq	%rax, 8(%rdx)
	.loc 1 721 3 is_stmt 1 view .LVU720
.LBE373:
.LBE377:
.LBE339:
	.loc 1 865 17 is_stmt 0 view .LVU721
	leaq	2(%r14), %r13
.LBB419:
.LBB378:
.LBB374:
	.loc 1 721 14 view .LVU722
	movq	%rax, 8(%rcx)
.LVL238:
	.loc 1 721 14 view .LVU723
.LBE374:
.LBE378:
	.loc 1 949 15 is_stmt 1 view .LVU724
	.loc 1 962 11 view .LVU725
	.loc 1 963 13 view .LVU726
	.loc 1 963 13 is_stmt 0 view .LVU727
.LBE419:
	.loc 1 865 15 is_stmt 1 view .LVU728
	.loc 1 865 3 is_stmt 0 view .LVU729
	cmpq	16(%rsp), %r13
	jb	.L244
.LVL239:
.L306:
	.loc 1 865 3 view .LVU730
	movq	%r14, %r15
.LVL240:
.L209:
	.loc 1 985 10 is_stmt 1 view .LVU731
	movq	16(%rsp), %rax
	movq	(%rsp), %r14
	leaq	0(%rbp,%r15), %r13
	leaq	0(%rbp,%rax), %rbx
	.loc 1 985 3 is_stmt 0 view .LVU732
	cmpq	%r15, %rax
	jbe	.L192
.LVL241:
	.p2align 4,,10
	.p2align 3
.L246:
	.loc 1 986 5 is_stmt 1 view .LVU733
	movzbl	0(%r13), %esi
	movq	%r14, %rdi
	addq	$1, %r13
.LVL242:
	.loc 1 986 5 is_stmt 0 view .LVU734
	call	append_normal_char
.LVL243:
	.loc 1 985 23 is_stmt 1 view .LVU735
	.loc 1 985 10 view .LVU736
	.loc 1 985 3 is_stmt 0 view .LVU737
	cmpq	%r13, %rbx
	jne	.L246
.LVL244:
.L192:
	.loc 1 865 10 view .LVU738
	movb	$1, 24(%rsp)
	jmp	.L239
.LVL245:
.L204:
	.loc 1 865 10 view .LVU739
.LBE333:
.LBE332:
.LBB443:
.LBB329:
.LBB326:
.LBB321:
	.loc 1 452 17 view .LVU740
	movl	$92, %r13d
	leal	2(%rcx), %eax
	jmp	.L195
.LVL246:
	.p2align 4,,10
	.p2align 3
.L255:
	.loc 1 452 17 view .LVU741
.LBE321:
.LBE326:
.LBE329:
.LBE443:
.LBB444:
.LBB438:
.LBB420:
.LBB379:
.LBB344:
	.loc 1 196 24 view .LVU742
	movq	8(%rsp), %rax
	cmpb	$0, (%r12,%rax)
	jne	.L212
.LBE344:
.LBE379:
.LBB380:
	.loc 1 878 15 is_stmt 1 view .LVU743
	.loc 1 880 15 view .LVU744
.LVL247:
.LBB381:
.LBI381:
	.loc 1 754 1 view .LVU745
.LBE381:
.LBE380:
.LBE420:
.LBE438:
.LBE444:
	.loc 1 757 3 view .LVU746
.LBB445:
.LBB439:
.LBB421:
.LBB409:
.LBB383:
.LBB382:
	.loc 1 757 8 view .LVU747
	.loc 1 757 30 view .LVU748
	.loc 1 757 42 is_stmt 0 view .LVU749
	movq	16(%rsp), %rax
	leaq	-1(%rax), %rdx
	.loc 1 757 3 view .LVU750
	cmpq	%r13, %rdx
	jbe	.L212
	movq	%r13, %rax
	jmp	.L216
.LVL248:
	.p2align 4,,10
	.p2align 3
.L214:
	.loc 1 757 47 is_stmt 1 view .LVU751
	.loc 1 757 30 view .LVU752
	.loc 1 757 3 is_stmt 0 view .LVU753
	cmpq	%rax, %rdx
	jbe	.L212
.LVL249:
.L216:
	.loc 1 758 5 is_stmt 1 view .LVU754
	.loc 1 758 14 is_stmt 0 view .LVU755
	movzbl	0(%rbp,%rax), %ecx
	movq	%rax, %r15
	leaq	1(%rax), %rax
.LVL250:
	.loc 1 758 8 view .LVU756
	cmpb	%bl, %cl
	jne	.L214
	.loc 1 758 38 view .LVU757
	cmpb	$93, 1(%rbp,%r15)
	jne	.L214
	.loc 1 759 9 view .LVU758
	cmpb	$0, -1(%r12,%rax)
	jne	.L214
	.loc 1 759 28 view .LVU759
	cmpb	$0, 1(%r12,%r15)
	jne	.L214
.LVL251:
	.loc 1 759 28 view .LVU760
.LBE382:
.LBE383:
.LBB384:
	.loc 1 882 19 is_stmt 1 view .LVU761
	.loc 1 882 26 is_stmt 0 view .LVU762
	movq	%r15, %rax
	.loc 1 883 31 view .LVU763
	leaq	0(%rbp,%r13), %rdi
	.loc 1 882 26 view .LVU764
	subq	%r14, %rax
.LVL252:
	.loc 1 883 19 is_stmt 1 view .LVU765
	.loc 1 883 31 is_stmt 0 view .LVU766
	movq	%rdi, 40(%rsp)
.LVL253:
	.loc 1 885 19 is_stmt 1 view .LVU767
	.loc 1 885 22 is_stmt 0 view .LVU768
	subq	$2, %rax
.LVL254:
	.loc 1 885 22 view .LVU769
	movq	%rax, 32(%rsp)
	je	.L309
	.loc 1 895 19 is_stmt 1 view .LVU770
	.loc 1 895 22 is_stmt 0 view .LVU771
	cmpb	$58, %bl
	je	.L310
	.loc 1 916 23 is_stmt 1 view .LVU772
.LVL255:
.LBB385:
.LBI385:
	.loc 1 731 1 view .LVU773
.LBB386:
	.loc 1 734 3 view .LVU774
	.loc 1 734 6 is_stmt 0 view .LVU775
	cmpq	$1, 32(%rsp)
	je	.L225
.LVL256:
	.loc 1 734 6 view .LVU776
.LBE386:
.LBE385:
	.loc 1 918 27 is_stmt 1 view .LVU777
	.loc 1 918 31 is_stmt 0 view .LVU778
	leaq	96(%rsp), %rdi
.LVL257:
	.loc 1 918 31 view .LVU779
	movq	%r13, %rsi
	call	star_digits_closebracket
.LVL258:
	.loc 1 918 30 view .LVU780
	testb	%al, %al
	jne	.L212
.LBB390:
	.loc 1 922 31 is_stmt 1 view .LVU781
	.loc 1 922 43 is_stmt 0 view .LVU782
	movq	32(%rsp), %rsi
	movq	40(%rsp), %rdi
	call	make_printable_str
.LVL259:
	.loc 1 925 16 view .LVU783
	movl	$5, %edx
	leaq	.LC24(%rip), %rsi
	xorl	%edi, %edi
	.loc 1 922 43 view .LVU784
	movq	%rax, %r13
.LVL260:
	.loc 1 924 31 is_stmt 1 view .LVU785
	.loc 1 925 16 is_stmt 0 view .LVU786
	call	dcgettext@PLT
.LVL261:
	.loc 1 924 31 view .LVU787
	movq	%r13, %rcx
	.loc 1 925 16 view .LVU788
	movq	%rax, %rdx
.LVL262:
.L301:
	.loc 1 925 16 view .LVU789
.LBE390:
.LBE384:
.LBE409:
.LBB410:
.LBB366:
.LBB362:
.LBB358:
.LBB355:
.LBB352:
	.loc 1 811 19 view .LVU790
	xorl	%edi, %edi
	xorl	%esi, %esi
	xorl	%eax, %eax
	call	error@PLT
.LVL263:
	.loc 1 814 19 is_stmt 1 view .LVU791
	movq	%r13, %rdi
	call	free@PLT
.LVL264:
	.loc 1 815 19 view .LVU792
	.loc 1 815 19 is_stmt 0 view .LVU793
.LBE352:
.LBE355:
.LBE358:
.LBE362:
.LBE366:
.LBE410:
	.loc 1 946 11 is_stmt 1 view .LVU794
	jmp	.L239
.LVL265:
	.p2align 4,,10
	.p2align 3
.L305:
	.loc 1 946 11 is_stmt 0 view .LVU795
.LBE421:
.LBB422:
.LBB336:
	.loc 1 196 39 view .LVU796
	movq	8(%rsp), %rax
	movzbl	(%r12,%rax), %eax
	movb	%al, 24(%rsp)
	.loc 1 196 24 view .LVU797
	testb	%al, %al
	jne	.L241
.LVL266:
	.loc 1 196 24 view .LVU798
.LBE336:
.LBE422:
	.loc 1 973 11 is_stmt 1 view .LVU799
	.loc 1 973 45 is_stmt 0 view .LVU800
	movzbl	0(%rbp,%r13), %ebx
.LVL267:
.LBB423:
.LBI423:
	.loc 1 658 1 is_stmt 1 view .LVU801
.LBB424:
	.loc 1 660 3 view .LVU802
	.loc 1 660 6 is_stmt 0 view .LVU803
	cmpb	70(%rsp), %bl
	jb	.L311
	.loc 1 672 3 is_stmt 1 view .LVU804
	.loc 1 672 30 is_stmt 0 view .LVU805
	movl	$32, %edi
	call	xmalloc@PLT
.LVL268:
	.loc 1 673 3 is_stmt 1 view .LVU806
	.loc 1 677 3 is_stmt 0 view .LVU807
	movq	(%rsp), %rcx
	.loc 1 675 27 view .LVU808
	movzbl	70(%rsp), %esi
	.loc 1 673 13 view .LVU809
	movq	$0, 8(%rax)
	.loc 1 674 3 is_stmt 1 view .LVU810
	.loc 1 677 3 is_stmt 0 view .LVU811
	movq	8(%rcx), %rdx
	.loc 1 674 13 view .LVU812
	movl	$1, (%rax)
	.loc 1 675 3 is_stmt 1 view .LVU813
	.loc 1 675 27 is_stmt 0 view .LVU814
	movb	%sil, 16(%rax)
	.loc 1 676 3 is_stmt 1 view .LVU815
	.loc 1 676 26 is_stmt 0 view .LVU816
	movb	%bl, 17(%rax)
	.loc 1 677 3 is_stmt 1 view .LVU817
	testq	%rdx, %rdx
	je	.L312
	.loc 1 678 3 view .LVU818
	.loc 1 679 14 is_stmt 0 view .LVU819
	movq	(%rsp), %rsi
	.loc 1 678 20 view .LVU820
	movq	%rax, 8(%rdx)
	.loc 1 679 3 is_stmt 1 view .LVU821
.LBE424:
.LBE423:
	.loc 1 975 13 is_stmt 0 view .LVU822
	addq	$3, %r14
.LVL269:
.LBB431:
.LBB427:
	.loc 1 679 14 view .LVU823
	movq	%rax, 8(%rsi)
	.loc 1 680 3 is_stmt 1 view .LVU824
.LVL270:
	.loc 1 680 3 is_stmt 0 view .LVU825
.LBE427:
.LBE431:
	.loc 1 975 11 is_stmt 1 view .LVU826
	.loc 1 975 11 is_stmt 0 view .LVU827
	jmp	.L240
.LVL271:
	.p2align 4,,10
	.p2align 3
.L311:
.LBB432:
.LBB428:
.LBB425:
	.loc 1 662 7 is_stmt 1 view .LVU828
	.loc 1 662 20 is_stmt 0 view .LVU829
	movl	%esi, %edi
	call	make_printable_char
.LVL272:
.LBE425:
.LBE428:
.LBE432:
	.loc 1 973 16 view .LVU830
	movzbl	%bl, %edi
.LBB433:
.LBB429:
.LBB426:
	.loc 1 662 20 view .LVU831
	movq	%rax, %r14
.LVL273:
	.loc 1 663 7 is_stmt 1 view .LVU832
	.loc 1 663 20 is_stmt 0 view .LVU833
	call	make_printable_char
.LVL274:
	.loc 1 666 8 view .LVU834
	movl	$5, %edx
	leaq	.LC26(%rip), %rsi
	xorl	%edi, %edi
	.loc 1 663 20 view .LVU835
	movq	%rax, %r13
.LVL275:
	.loc 1 665 7 is_stmt 1 view .LVU836
	.loc 1 666 8 is_stmt 0 view .LVU837
	call	dcgettext@PLT
.LVL276:
	.loc 1 665 7 view .LVU838
	movq	%r13, %r8
	movq	%r14, %rcx
	xorl	%esi, %esi
	.loc 1 666 8 view .LVU839
	movq	%rax, %rdx
	.loc 1 665 7 view .LVU840
	xorl	%edi, %edi
	xorl	%eax, %eax
	call	error@PLT
.LVL277:
	.loc 1 668 7 is_stmt 1 view .LVU841
	movq	%r14, %rdi
	call	free@PLT
.LVL278:
	.loc 1 669 7 view .LVU842
	movq	%r13, %rdi
	call	free@PLT
.LVL279:
	.loc 1 670 7 view .LVU843
.L239:
	.loc 1 670 7 is_stmt 0 view .LVU844
.LBE426:
.LBE429:
.LBE433:
.LBE439:
.LBE445:
	.loc 1 1355 3 is_stmt 1 discriminator 6 view .LVU845
.LBB446:
.LBI446:
	.loc 1 417 1 discriminator 6 view .LVU846
.LBB447:
	.loc 1 419 3 discriminator 6 view .LVU847
	movq	%rbp, %rdi
	call	free@PLT
.LVL280:
	.loc 1 420 3 discriminator 6 view .LVU848
	movq	%r12, %rdi
	call	free@PLT
.LVL281:
.LBE447:
.LBE446:
	.loc 1 1356 3 discriminator 6 view .LVU849
	.loc 1 1357 1 is_stmt 0 discriminator 6 view .LVU850
	movq	120(%rsp), %rax
	xorq	%fs:40, %rax
	jne	.L313
	.loc 1 1357 1 view .LVU851
	movzbl	24(%rsp), %eax
	addq	$136, %rsp
	.cfi_remember_state
	.cfi_def_cfa_offset 56
.LVL282:
	.loc 1 1357 1 view .LVU852
	popq	%rbx
	.cfi_def_cfa_offset 48
	popq	%rbp
	.cfi_def_cfa_offset 40
	popq	%r12
	.cfi_def_cfa_offset 32
	popq	%r13
	.cfi_def_cfa_offset 24
	popq	%r14
	.cfi_def_cfa_offset 16
	popq	%r15
	.cfi_def_cfa_offset 8
	ret
.LVL283:
.L197:
	.cfi_restore_state
.LBB448:
.LBB330:
.LBB327:
.LBB322:
	.loc 1 473 15 is_stmt 1 view .LVU853
	.loc 1 474 15 view .LVU854
	.loc 1 473 17 is_stmt 0 view .LVU855
	movl	$11, %r13d
	leal	2(%rcx), %eax
	.loc 1 474 15 view .LVU856
	jmp	.L195
.LVL284:
.L199:
	.loc 1 470 15 is_stmt 1 view .LVU857
	.loc 1 471 15 view .LVU858
	.loc 1 470 17 is_stmt 0 view .LVU859
	movl	$9, %r13d
	leal	2(%rcx), %eax
	.loc 1 471 15 view .LVU860
	jmp	.L195
.LVL285:
.L200:
	.loc 1 467 15 is_stmt 1 view .LVU861
	.loc 1 468 15 view .LVU862
	.loc 1 467 17 is_stmt 0 view .LVU863
	movl	$13, %r13d
	leal	2(%rcx), %eax
	.loc 1 468 15 view .LVU864
	jmp	.L195
.LVL286:
.L201:
	.loc 1 464 15 is_stmt 1 view .LVU865
	.loc 1 465 15 view .LVU866
	.loc 1 464 17 is_stmt 0 view .LVU867
	movl	$10, %r13d
	leal	2(%rcx), %eax
	.loc 1 465 15 view .LVU868
	jmp	.L195
.LVL287:
.L202:
	.loc 1 461 15 is_stmt 1 view .LVU869
	.loc 1 462 15 view .LVU870
	.loc 1 461 17 is_stmt 0 view .LVU871
	movl	$12, %r13d
	leal	2(%rcx), %eax
	.loc 1 462 15 view .LVU872
	jmp	.L195
.LVL288:
.L203:
	.loc 1 458 15 is_stmt 1 view .LVU873
	.loc 1 459 15 view .LVU874
	.loc 1 458 17 is_stmt 0 view .LVU875
	movl	$8, %r13d
	leal	2(%rcx), %eax
	.loc 1 459 15 view .LVU876
	jmp	.L195
.LVL289:
.L205:
	.loc 1 483 15 is_stmt 1 view .LVU877
	.loc 1 484 15 view .LVU878
	.loc 1 484 31 is_stmt 0 view .LVU879
	leal	2(%rcx), %esi
	.loc 1 483 17 view .LVU880
	movl	%edx, %r13d
	.loc 1 484 28 view .LVU881
	movsbl	(%r10,%rsi), %r8d
	.loc 1 484 31 view .LVU882
	movq	%rsi, %rax
	.loc 1 484 25 view .LVU883
	leal	-48(%r8), %esi
.LVL290:
	.loc 1 485 15 is_stmt 1 view .LVU884
	.loc 1 485 18 is_stmt 0 view .LVU885
	cmpl	$7, %esi
	ja	.L195
	.loc 1 487 19 is_stmt 1 view .LVU886
	.loc 1 489 35 is_stmt 0 view .LVU887
	leal	3(%rcx), %eax
	.loc 1 487 21 view .LVU888
	leal	(%rsi,%r13,8), %r13d
.LVL291:
	.loc 1 488 19 is_stmt 1 view .LVU889
	.loc 1 489 19 view .LVU890
	.loc 1 489 32 is_stmt 0 view .LVU891
	movsbl	(%r10,%rax), %eax
	.loc 1 489 29 view .LVU892
	leal	-48(%rax), %edx
.LVL292:
	.loc 1 490 19 is_stmt 1 view .LVU893
	.loc 1 489 32 is_stmt 0 view .LVU894
	movl	%eax, 8(%rsp)
	leal	2(%r15), %eax
	.loc 1 490 22 view .LVU895
	cmpl	$7, %edx
	ja	.L195
	.loc 1 492 23 is_stmt 1 view .LVU896
	.loc 1 492 29 is_stmt 0 view .LVU897
	movzbl	%r13b, %eax
	.loc 1 492 33 view .LVU898
	leal	(%rdx,%rax,8), %eax
	.loc 1 492 26 view .LVU899
	cmpl	$255, %eax
	jg	.L206
	.loc 1 494 27 is_stmt 1 view .LVU900
	.loc 1 494 29 is_stmt 0 view .LVU901
	leal	(%rdx,%r13,8), %r13d
.LVL293:
	.loc 1 495 27 is_stmt 1 view .LVU902
	.loc 1 495 27 is_stmt 0 view .LVU903
	leal	4(%rcx), %eax
	jmp	.L195
.LVL294:
.L310:
	.loc 1 495 27 view .LVU904
.LBE322:
.LBE327:
.LBE330:
.LBE448:
.LBB449:
.LBB440:
.LBB434:
.LBB411:
.LBB405:
	movq	%r14, 56(%rsp)
	xorl	%eax, %eax
.LVL295:
	.loc 1 495 27 view .LVU905
	movq	%r13, 48(%rsp)
	movq	40(%rsp), %r13
	movb	%bl, 71(%rsp)
	movq	32(%rsp), %rbx
	movq	%r15, 72(%rsp)
	movq	%rax, %r15
.LVL296:
	.p2align 4,,10
	.p2align 3
.L222:
.LBB391:
.LBB392:
.LBB393:
.LBB394:
	.loc 1 548 5 is_stmt 1 view .LVU906
	.loc 1 548 9 is_stmt 0 view .LVU907
	leaq	char_class_name(%rip), %rax
	movq	%rbx, %rdx
	movq	%r13, %rdi
	movq	(%rax,%r15,8), %r14
	movq	%r14, %rsi
	call	strncmp@PLT
.LVL297:
	.loc 1 548 8 view .LVU908
	testl	%eax, %eax
	jne	.L220
	.loc 1 549 12 view .LVU909
	movq	%r14, %rdi
	call	strlen@PLT
.LVL298:
	.loc 1 549 9 view .LVU910
	cmpq	%rax, %rbx
	je	.L221
.L220:
	.loc 1 547 56 is_stmt 1 view .LVU911
.LVL299:
	.loc 1 547 15 view .LVU912
	addq	$1, %r15
.LVL300:
	.loc 1 547 3 is_stmt 0 view .LVU913
	cmpq	$12, %r15
	jne	.L222
	movq	48(%rsp), %r13
.LBE394:
.LBE393:
.LBE392:
.LBE391:
	.loc 1 900 31 view .LVU914
	leaq	96(%rsp), %rdi
.LVL301:
	.loc 1 900 31 view .LVU915
	movq	56(%rsp), %r14
	movzbl	71(%rsp), %ebx
.LVL302:
.LBB398:
.LBB395:
	.loc 1 693 3 is_stmt 1 view .LVU916
	.loc 1 693 3 is_stmt 0 view .LVU917
.LBE395:
.LBE398:
	.loc 1 900 27 is_stmt 1 view .LVU918
	.loc 1 900 31 is_stmt 0 view .LVU919
	movq	%r13, %rsi
	call	star_digits_closebracket
.LVL303:
	.loc 1 900 30 view .LVU920
	testb	%al, %al
	jne	.L212
.LBB399:
	.loc 1 904 31 is_stmt 1 view .LVU921
	.loc 1 904 43 is_stmt 0 view .LVU922
	movq	32(%rsp), %rsi
	movq	40(%rsp), %rdi
	call	make_printable_str
.LVL304:
	.loc 1 906 31 view .LVU923
	movq	%rax, %rdi
	.loc 1 904 43 view .LVU924
	movq	%rax, %r13
.LVL305:
	.loc 1 906 31 is_stmt 1 view .LVU925
	call	quote@PLT
.LVL306:
	.loc 1 906 44 is_stmt 0 view .LVU926
	movl	$5, %edx
	leaq	.LC23(%rip), %rsi
	.loc 1 906 31 view .LVU927
	movq	%rax, %r14
.LVL307:
.L302:
	.loc 1 906 31 view .LVU928
.LBE399:
.LBE405:
.LBE411:
.LBB412:
.LBB367:
.LBB363:
.LBB359:
.LBB356:
.LBB353:
	.loc 1 812 26 view .LVU929
	xorl	%edi, %edi
	call	dcgettext@PLT
.LVL308:
	.loc 1 811 19 view .LVU930
	movq	%r14, %rcx
	.loc 1 812 26 view .LVU931
	movq	%rax, %rdx
	jmp	.L301
.LVL309:
.L307:
	.loc 1 812 26 view .LVU932
.LBE353:
.LBE356:
	.loc 1 796 15 is_stmt 1 view .LVU933
	.loc 1 796 29 is_stmt 0 view .LVU934
	movq	$0, 80(%rsp)
.LVL310:
	.loc 1 796 29 view .LVU935
.LBE359:
.LBE363:
.LBE367:
.LBE412:
	.loc 1 946 11 is_stmt 1 view .LVU936
.LBB413:
.LBB368:
.LBB364:
.LBB360:
	.loc 1 796 29 is_stmt 0 view .LVU937
	xorl	%edx, %edx
	jmp	.L233
.LVL311:
.L221:
	.loc 1 796 29 view .LVU938
.LBE360:
.LBE364:
.LBE368:
.LBE413:
.LBB414:
.LBB406:
.LBB400:
.LBB396:
	.loc 1 695 30 view .LVU939
	movl	$32, %edi
	movq	%r15, %rbx
	movq	72(%rsp), %r15
.LVL312:
	.loc 1 693 3 is_stmt 1 view .LVU940
	.loc 1 695 3 view .LVU941
	.loc 1 695 30 is_stmt 0 view .LVU942
	call	xmalloc@PLT
.LVL313:
	.loc 1 696 3 is_stmt 1 view .LVU943
	.loc 1 699 3 is_stmt 0 view .LVU944
	movq	(%rsp), %rsi
	.loc 1 696 13 view .LVU945
	movq	$0, 8(%rax)
	.loc 1 697 3 is_stmt 1 view .LVU946
	.loc 1 699 3 is_stmt 0 view .LVU947
	movq	8(%rsi), %rdx
	.loc 1 697 13 view .LVU948
	movl	$2, (%rax)
	.loc 1 698 3 is_stmt 1 view .LVU949
	.loc 1 698 21 is_stmt 0 view .LVU950
	movl	%ebx, 16(%rax)
	.loc 1 699 3 is_stmt 1 view .LVU951
	testq	%rdx, %rdx
	je	.L314
.LVL314:
.L227:
	.loc 1 699 3 is_stmt 0 view .LVU952
.LBE396:
.LBE400:
.LBB401:
.LBB387:
	.loc 1 742 3 is_stmt 1 view .LVU953
	.loc 1 743 14 is_stmt 0 view .LVU954
	movq	(%rsp), %rsi
	.loc 1 742 20 view .LVU955
	movq	%rax, 8(%rdx)
	.loc 1 743 3 is_stmt 1 view .LVU956
.LBE387:
.LBE401:
	.loc 1 933 21 is_stmt 0 view .LVU957
	leaq	2(%r15), %r14
.LBB402:
.LBB388:
	.loc 1 743 14 view .LVU958
	movq	%rax, 8(%rsi)
	.loc 1 744 3 is_stmt 1 view .LVU959
.LBE388:
.LBE402:
	.loc 1 933 19 view .LVU960
.LVL315:
	.loc 1 934 19 view .LVU961
	.loc 1 934 19 is_stmt 0 view .LVU962
	jmp	.L240
.LVL316:
.L225:
.LBB403:
.LBB389:
	.loc 1 737 3 is_stmt 1 view .LVU963
	.loc 1 737 30 is_stmt 0 view .LVU964
	movl	$32, %edi
.LVL317:
	.loc 1 737 30 view .LVU965
	call	xmalloc@PLT
.LVL318:
	.loc 1 738 3 is_stmt 1 view .LVU966
	.loc 1 740 21 is_stmt 0 view .LVU967
	movq	40(%rsp), %rdi
	.loc 1 741 3 view .LVU968
	movq	(%rsp), %rcx
	.loc 1 738 13 view .LVU969
	movq	$0, 8(%rax)
	.loc 1 739 3 is_stmt 1 view .LVU970
	.loc 1 740 21 is_stmt 0 view .LVU971
	movzbl	(%rdi), %edx
	.loc 1 739 13 view .LVU972
	movl	$3, (%rax)
	.loc 1 740 3 is_stmt 1 view .LVU973
	.loc 1 740 21 is_stmt 0 view .LVU974
	movb	%dl, 16(%rax)
	.loc 1 741 3 is_stmt 1 view .LVU975
	movq	8(%rcx), %rdx
	testq	%rdx, %rdx
	jne	.L227
	.loc 1 741 3 view .LVU976
	leaq	__PRETTY_FUNCTION__.7364(%rip), %rcx
	movl	$741, %edx
	leaq	.LC10(%rip), %rsi
	leaq	.LC18(%rip), %rdi
	call	__assert_fail@PLT
.LVL319:
.L194:
	.loc 1 741 3 is_stmt 0 view .LVU977
.LBE389:
.LBE403:
.LBE406:
.LBE414:
.LBE434:
.LBE440:
.LBE449:
.LBB450:
.LBB331:
.LBB328:
.LBB323:
	.loc 1 516 15 is_stmt 1 view .LVU978
	.loc 1 516 28 is_stmt 0 view .LVU979
	movl	$5, %edx
	leaq	.LC20(%rip), %rsi
	xorl	%edi, %edi
	movq	%r10, 16(%rsp)
	movl	%ecx, 8(%rsp)
	call	dcgettext@PLT
.LVL320:
	.loc 1 516 15 view .LVU980
	xorl	%esi, %esi
	xorl	%edi, %edi
	.loc 1 516 28 view .LVU981
	movq	%rax, %rdx
	.loc 1 516 15 view .LVU982
	xorl	%eax, %eax
	call	error@PLT
.LVL321:
	.loc 1 519 15 is_stmt 1 view .LVU983
	movl	8(%rsp), %ecx
	.loc 1 519 30 is_stmt 0 view .LVU984
	movb	$0, 0(%r13)
	.loc 1 520 15 is_stmt 1 view .LVU985
.LVL322:
	.loc 1 521 15 view .LVU986
	.loc 1 522 15 view .LVU987
	leaq	.L198(%rip), %r11
	movq	16(%rsp), %r10
	.loc 1 521 17 is_stmt 0 view .LVU988
	movl	$92, %r13d
	leal	1(%rcx), %eax
	.loc 1 522 15 view .LVU989
	jmp	.L195
.LVL323:
.L206:
	.loc 1 507 40 view .LVU990
	movl	$5, %edx
.LVL324:
	.loc 1 507 40 view .LVU991
	leaq	.LC19(%rip), %rsi
	xorl	%edi, %edi
	movq	%r10, 24(%rsp)
	movb	%r9b, 70(%rsp)
	movl	%r8d, 16(%rsp)
	.loc 1 507 27 is_stmt 1 view .LVU992
	.loc 1 507 40 is_stmt 0 view .LVU993
	call	dcgettext@PLT
.LVL325:
	.loc 1 449 20 view .LVU994
	movsbl	70(%rsp), %ecx
	.loc 1 507 27 view .LVU995
	xorl	%esi, %esi
	xorl	%edi, %edi
	.loc 1 507 40 view .LVU996
	movq	%rax, %rdx
	.loc 1 507 27 view .LVU997
	pushq	%rax
	.cfi_def_cfa_offset 200
.LVL326:
	.loc 1 507 27 view .LVU998
	movl	16(%rsp), %r9d
	xorl	%eax, %eax
	pushq	%r9
	.cfi_def_cfa_offset 208
	movl	32(%rsp), %r8d
	pushq	%r8
	.cfi_def_cfa_offset 216
	pushq	%rcx
	.cfi_def_cfa_offset 224
	call	error@PLT
.LVL327:
	addq	$32, %rsp
	.cfi_def_cfa_offset 192
.LVL328:
	.loc 1 507 27 view .LVU999
	leal	2(%r15), %eax
	leaq	.L198(%rip), %r11
	movq	24(%rsp), %r10
	jmp	.L195
.LVL329:
.L235:
	.loc 1 507 27 view .LVU1000
.LBE323:
.LBE328:
.LBE331:
.LBE450:
.LBB451:
.LBB441:
.LBB435:
.LBB415:
.LBB369:
.LBB365:
.LBB361:
.LBB357:
.LBB354:
	.loc 1 810 19 is_stmt 1 view .LVU1001
	.loc 1 810 31 is_stmt 0 view .LVU1002
	movq	%r13, %rsi
	movq	%r14, %rdi
	call	make_printable_str
.LVL330:
	.loc 1 811 19 view .LVU1003
	movq	%rax, %rdi
	.loc 1 810 31 view .LVU1004
	movq	%rax, %r13
.LVL331:
	.loc 1 811 19 is_stmt 1 view .LVU1005
	call	quote@PLT
.LVL332:
	.loc 1 812 26 is_stmt 0 view .LVU1006
	movl	$5, %edx
	leaq	.LC25(%rip), %rsi
	.loc 1 811 19 view .LVU1007
	movq	%rax, %r14
.LVL333:
	.loc 1 811 19 view .LVU1008
	jmp	.L302
.LVL334:
.L309:
	.loc 1 811 19 view .LVU1009
.LBE354:
.LBE357:
.LBE361:
.LBE365:
.LBE369:
.LBE415:
.LBB416:
.LBB407:
	.loc 1 887 23 is_stmt 1 view .LVU1010
	.loc 1 888 38 is_stmt 0 view .LVU1011
	movl	$5, %edx
	leaq	.LC21(%rip), %rsi
	.loc 1 887 26 view .LVU1012
	cmpb	$58, %bl
	je	.L303
	.loc 1 890 25 is_stmt 1 view .LVU1013
	.loc 1 891 32 is_stmt 0 view .LVU1014
	leaq	.LC22(%rip), %rsi
.L303:
	xorl	%edi, %edi
.LVL335:
	.loc 1 891 32 view .LVU1015
	call	dcgettext@PLT
.LVL336:
	.loc 1 890 25 view .LVU1016
	xorl	%esi, %esi
	xorl	%edi, %edi
	.loc 1 891 32 view .LVU1017
	movq	%rax, %rdx
	.loc 1 890 25 view .LVU1018
	xorl	%eax, %eax
	call	error@PLT
.LVL337:
	jmp	.L239
.LVL338:
.L312:
	.loc 1 890 25 view .LVU1019
.LBE407:
.LBE416:
.LBE435:
.LBB436:
.LBB430:
	.loc 1 677 3 is_stmt 1 view .LVU1020
	leaq	__PRETTY_FUNCTION__.7342(%rip), %rcx
	movl	$677, %edx
	leaq	.LC10(%rip), %rsi
	leaq	.LC18(%rip), %rdi
	call	__assert_fail@PLT
.LVL339:
.L313:
	.loc 1 677 3 is_stmt 0 view .LVU1021
.LBE430:
.LBE436:
.LBE441:
.LBE451:
	.loc 1 1357 1 view .LVU1022
	call	__stack_chk_fail@PLT
.LVL340:
.L308:
.LBB452:
.LBB442:
.LBB437:
.LBB417:
.LBB375:
	.loc 1 1357 1 view .LVU1023
	call	append_repeated_char.part.0
.LVL341:
.L314:
	.loc 1 1357 1 view .LVU1024
.LBE375:
.LBE417:
.LBB418:
.LBB408:
.LBB404:
.LBB397:
	.loc 1 699 3 is_stmt 1 view .LVU1025
	leaq	__PRETTY_FUNCTION__.7350(%rip), %rcx
	movl	$699, %edx
	leaq	.LC10(%rip), %rsi
	leaq	.LC18(%rip), %rdi
	call	__assert_fail@PLT
.LVL342:
.L262:
	.loc 1 699 3 is_stmt 0 view .LVU1026
.LBE397:
.LBE404:
.LBE408:
.LBE418:
.LBE437:
	.loc 1 865 10 view .LVU1027
	xorl	%r15d, %r15d
	jmp	.L209
.LBE442:
.LBE452:
	.cfi_endproc
.LFE165:
	.size	parse_str, .-parse_str
	.p2align 4
	.type	set_initialize, @function
set_initialize:
.LVL343:
.LFB173:
	.loc 1 1678 1 is_stmt 1 view -0
	.cfi_startproc
	.loc 1 1678 1 is_stmt 0 view .LVU1029
	pushq	%r12
	.cfi_def_cfa_offset 16
	.cfi_offset 12, -16
	movl	%esi, %r12d
	.loc 1 1679 3 is_stmt 1 view .LVU1030
	.loc 1 1681 3 view .LVU1031
	.loc 1 1678 1 is_stmt 0 view .LVU1032
	pushq	%rbp
	.cfi_def_cfa_offset 24
	.cfi_offset 6, -24
	movq	%rdi, %rbp
	pushq	%rbx
	.cfi_def_cfa_offset 32
	.cfi_offset 3, -32
	.loc 1 1678 1 view .LVU1033
	movq	%rdx, %rbx
	.loc 1 1681 12 view .LVU1034
	movq	$-2, 16(%rdi)
	.loc 1 1682 3 is_stmt 1 view .LVU1035
	.loc 1 1682 9 is_stmt 0 view .LVU1036
	jmp	.L316
.LVL344:
	.p2align 4,,10
	.p2align 3
.L317:
	.loc 1 1683 5 is_stmt 1 view .LVU1037
	.loc 1 1683 11 is_stmt 0 view .LVU1038
	cltq
	.loc 1 1683 15 view .LVU1039
	movb	$1, (%rbx,%rax)
.LVL345:
.L316:
	.loc 1 1682 9 is_stmt 1 view .LVU1040
	.loc 1 1682 15 is_stmt 0 view .LVU1041
	xorl	%esi, %esi
	movq	%rbp, %rdi
	call	get_next
.LVL346:
	.loc 1 1682 9 view .LVU1042
	cmpl	$-1, %eax
	jne	.L317
	.loc 1 1684 3 is_stmt 1 view .LVU1043
	.loc 1 1684 6 is_stmt 0 view .LVU1044
	testb	%r12b, %r12b
	je	.L315
	movq	%rbx, %rdx
	leaq	256(%rbx), %rax
.LVL347:
	.p2align 4,,10
	.p2align 3
.L319:
.LBB457:
.LBB458:
.LBB459:
	.loc 1 1686 7 is_stmt 1 view .LVU1045
	xorb	$1, (%rdx)
	.loc 1 1685 37 view .LVU1046
.LVL348:
	.loc 1 1685 24 view .LVU1047
	addq	$1, %rdx
.LVL349:
	.loc 1 1685 5 is_stmt 0 view .LVU1048
	cmpq	%rax, %rdx
	jne	.L319
.LVL350:
.L315:
	.loc 1 1685 5 view .LVU1049
.LBE459:
.LBE458:
.LBE457:
	.loc 1 1687 1 view .LVU1050
	popq	%rbx
	.cfi_def_cfa_offset 24
.LVL351:
	.loc 1 1687 1 view .LVU1051
	popq	%rbp
	.cfi_def_cfa_offset 16
.LVL352:
	.loc 1 1687 1 view .LVU1052
	popq	%r12
	.cfi_def_cfa_offset 8
	ret
	.cfi_endproc
.LFE173:
	.size	set_initialize, .-set_initialize
	.section	.rodata.str1.1
.LC27:
	.string	"write error"
	.text
	.p2align 4
	.type	squeeze_filter.constprop.0, @function
squeeze_filter.constprop.0:
.LVL353:
.LFB189:
	.loc 1 1522 1 is_stmt 1 view -0
	.cfi_startproc
	.loc 1 1522 1 is_stmt 0 view .LVU1054
	pushq	%r15
	.cfi_def_cfa_offset 16
	.cfi_offset 15, -16
	pushq	%r14
	.cfi_def_cfa_offset 24
	.cfi_offset 14, -24
	leaq	io_buf(%rip), %r14
	pushq	%r13
	.cfi_def_cfa_offset 32
	.cfi_offset 13, -32
	.loc 1 1528 7 view .LVU1055
	movl	$2147483647, %r13d
	.loc 1 1522 1 view .LVU1056
	pushq	%r12
	.cfi_def_cfa_offset 40
	.cfi_offset 12, -40
	movq	%rdi, %r12
	pushq	%rbp
	.cfi_def_cfa_offset 48
	.cfi_offset 6, -48
	.loc 1 1529 10 view .LVU1057
	xorl	%ebp, %ebp
	.loc 1 1522 1 view .LVU1058
	pushq	%rbx
	.cfi_def_cfa_offset 56
	.cfi_offset 3, -56
	.loc 1 1530 10 view .LVU1059
	xorl	%ebx, %ebx
	.loc 1 1522 1 view .LVU1060
	subq	$24, %rsp
	.cfi_def_cfa_offset 80
	jmp	.L323
.LVL354:
	.p2align 4,,10
	.p2align 3
.L326:
.LBB460:
	.loc 1 1542 7 is_stmt 1 view .LVU1061
	.loc 1 1544 7 view .LVU1062
	.loc 1 1544 10 is_stmt 0 view .LVU1063
	cmpl	$2147483647, %r13d
	je	.L361
.L341:
	.loc 1 1595 31 view .LVU1064
	movsbl	(%r14,%rbp), %eax
	.loc 1 1595 25 view .LVU1065
	cmpl	%eax, %r13d
	je	.L342
.L362:
	.loc 1 1598 29 view .LVU1066
	movl	$2147483647, %r13d
.LVL355:
.L323:
	.loc 1 1598 29 view .LVU1067
.LBE460:
	.loc 1 1532 3 is_stmt 1 view .LVU1068
.LBB469:
	.loc 1 1534 7 view .LVU1069
	.loc 1 1534 10 is_stmt 0 view .LVU1070
	cmpq	%rbx, %rbp
	jb	.L326
.LVL356:
.L324:
	.loc 1 1536 11 is_stmt 1 view .LVU1071
	.loc 1 1536 16 is_stmt 0 view .LVU1072
	movl	$8192, %esi
	movq	%r14, %rdi
	call	*%r12
.LVL357:
	.loc 1 1536 16 view .LVU1073
	movq	%rax, %rbx
	.loc 1 1537 11 is_stmt 1 view .LVU1074
	.loc 1 1537 14 is_stmt 0 view .LVU1075
	testq	%rax, %rax
	je	.L322
.LVL358:
	.loc 1 1542 7 is_stmt 1 view .LVU1076
	.loc 1 1544 7 view .LVU1077
	.loc 1 1544 10 is_stmt 0 view .LVU1078
	cmpl	$2147483647, %r13d
	je	.L347
	.loc 1 1539 13 view .LVU1079
	xorl	%ebp, %ebp
.LVL359:
.L329:
	.loc 1 1595 18 is_stmt 1 view .LVU1080
	.loc 1 1595 11 is_stmt 0 view .LVU1081
	cmpq	%rbp, %rbx
	jbe	.L323
	.loc 1 1595 31 view .LVU1082
	movsbl	(%r14,%rbp), %eax
	.loc 1 1595 25 view .LVU1083
	cmpl	%eax, %r13d
	jne	.L362
.L342:
	.loc 1 1596 13 is_stmt 1 view .LVU1084
	.loc 1 1595 55 view .LVU1085
.LVL360:
	.loc 1 1595 56 is_stmt 0 view .LVU1086
	addq	$1, %rbp
.LVL361:
	.loc 1 1595 18 is_stmt 1 view .LVU1087
	.loc 1 1595 11 is_stmt 0 view .LVU1088
	cmpq	%rbp, %rbx
	jne	.L341
.LVL362:
	.loc 1 1595 11 view .LVU1089
	movq	%rbx, %rbp
	jmp	.L323
.LVL363:
	.p2align 4,,10
	.p2align 3
.L347:
	.loc 1 1595 11 view .LVU1090
	leaq	io_buf(%rip), %rdi
	.loc 1 1539 13 view .LVU1091
	xorl	%r15d, %r15d
.LVL364:
.L328:
	.loc 1 1539 13 view .LVU1092
	movq	%r15, %rbp
.L330:
.LVL365:
.LBB461:
	.loc 1 1558 57 view .LVU1093
	movzbl	(%r14,%rbp), %edx
	.loc 1 1558 25 view .LVU1094
	leaq	in_squeeze_set(%rip), %rcx
	cmpb	$0, (%rcx,%rdx)
	.loc 1 1558 57 view .LVU1095
	movq	%rdx, %rax
.LVL366:
.LBB462:
.LBI462:
	.loc 2 156 29 is_stmt 1 view .LVU1096
.LBB463:
	.loc 2 156 50 view .LVU1097
	.loc 2 156 50 is_stmt 0 view .LVU1098
.LBE463:
.LBE462:
	.loc 1 1558 25 view .LVU1099
	je	.L363
	.loc 1 1567 11 is_stmt 1 view .LVU1100
	.loc 1 1567 14 is_stmt 0 view .LVU1101
	cmpq	%rbp, %rbx
	jbe	.L364
.L335:
	.loc 1 1571 15 is_stmt 1 view .LVU1102
	.loc 1 1573 27 is_stmt 0 view .LVU1103
	movq	%rbp, %rcx
	.loc 1 1571 31 view .LVU1104
	movsbl	%al, %r13d
.LVL367:
	.loc 1 1573 15 is_stmt 1 view .LVU1105
	.loc 1 1573 27 is_stmt 0 view .LVU1106
	subq	%r15, %rcx
	.loc 1 1573 23 view .LVU1107
	leaq	1(%rcx), %rdx
.LVL368:
	.loc 1 1577 15 is_stmt 1 view .LVU1108
	.loc 1 1577 18 is_stmt 0 view .LVU1109
	testq	%rbp, %rbp
	je	.L338
	.loc 1 1578 17 view .LVU1110
	leaq	-1+io_buf(%rip), %rsi
	cmpb	%al, 0(%rbp,%rsi)
	cmove	%rcx, %rdx
.LVL369:
.L338:
	.loc 1 1583 15 is_stmt 1 view .LVU1111
	addq	$1, %rbp
.LVL370:
	.loc 1 1585 11 view .LVU1112
	.loc 1 1585 14 is_stmt 0 view .LVU1113
	testq	%rdx, %rdx
	je	.L329
	.loc 1 1586 18 view .LVU1114
	movq	stdout(%rip), %rcx
	leaq	(%r14,%r15), %rdi
	movl	$1, %esi
	movq	%rdx, 8(%rsp)
	call	fwrite_unlocked@PLT
.LVL371:
	.loc 1 1586 15 view .LVU1115
	movq	8(%rsp), %rdx
	cmpq	%rax, %rdx
	je	.L329
.LVL372:
.L345:
.LBB464:
	.loc 1 1587 13 is_stmt 1 view .LVU1116
	movl	$5, %edx
	leaq	.LC27(%rip), %rsi
	xorl	%edi, %edi
	call	dcgettext@PLT
.LVL373:
	movq	%rax, %r12
.LVL374:
	.loc 1 1587 13 is_stmt 0 view .LVU1117
	call	__errno_location@PLT
.LVL375:
	movq	%r12, %rdx
	movl	$1, %edi
	movl	(%rax), %esi
	xorl	%eax, %eax
	call	error@PLT
.LVL376:
	.p2align 4,,10
	.p2align 3
.L363:
	.loc 1 1587 13 view .LVU1118
.LBE464:
	.loc 1 1559 13 is_stmt 1 view .LVU1119
	.loc 1 1558 64 view .LVU1120
	.loc 1 1558 66 is_stmt 0 view .LVU1121
	leaq	2(%rbp), %rdx
.LVL377:
	.loc 1 1558 18 is_stmt 1 view .LVU1122
	.loc 1 1558 11 is_stmt 0 view .LVU1123
	cmpq	%rbx, %rdx
	jnb	.L365
	movq	%rdx, %rbp
	jmp	.L330
.LVL378:
	.p2align 4,,10
	.p2align 3
.L364:
	.loc 1 1568 13 is_stmt 1 view .LVU1124
	.loc 1 1568 21 is_stmt 0 view .LVU1125
	movq	%rbx, %r13
	subq	%r15, %r13
.LVL379:
	.loc 1 1585 11 is_stmt 1 view .LVU1126
	.loc 1 1568 21 is_stmt 0 view .LVU1127
	movq	%rbp, %r15
.LVL380:
.L337:
	.loc 1 1586 18 view .LVU1128
	movq	stdout(%rip), %rcx
	movq	%r13, %rdx
	movl	$1, %esi
	call	fwrite_unlocked@PLT
.LVL381:
	.loc 1 1586 15 view .LVU1129
	cmpq	%rax, %r13
	jne	.L345
	.loc 1 1586 15 view .LVU1130
.LBE461:
.LBE469:
	.loc 1 1532 3 is_stmt 1 view .LVU1131
.LBB470:
	.loc 1 1534 7 view .LVU1132
	movl	$2147483647, %r13d
	.loc 1 1534 10 is_stmt 0 view .LVU1133
	cmpq	%rbx, %r15
	jnb	.L324
.LVL382:
.L325:
	.loc 1 1534 10 view .LVU1134
	leaq	(%r14,%r15), %rdi
	jmp	.L328
.LVL383:
	.p2align 4,,10
	.p2align 3
.L322:
	.loc 1 1534 10 view .LVU1135
.LBE470:
	.loc 1 1604 1 view .LVU1136
	addq	$24, %rsp
	.cfi_remember_state
	.cfi_def_cfa_offset 56
	popq	%rbx
	.cfi_def_cfa_offset 48
	popq	%rbp
	.cfi_def_cfa_offset 40
	popq	%r12
	.cfi_def_cfa_offset 32
.LVL384:
	.loc 1 1604 1 view .LVU1137
	popq	%r13
	.cfi_def_cfa_offset 24
.LVL385:
	.loc 1 1604 1 view .LVU1138
	popq	%r14
	.cfi_def_cfa_offset 16
	popq	%r15
	.cfi_def_cfa_offset 8
	ret
.LVL386:
.L365:
	.cfi_restore_state
.LBB471:
.LBB467:
	.loc 1 1564 11 is_stmt 1 view .LVU1139
	.loc 1 1564 14 is_stmt 0 view .LVU1140
	jne	.L334
	.loc 1 1564 54 view .LVU1141
	addq	$1, %rbp
	.loc 1 1564 23 view .LVU1142
	leaq	in_squeeze_set(%rip), %rsi
	.loc 1 1564 54 view .LVU1143
	movzbl	(%r14,%rbp), %ecx
	.loc 1 1564 23 view .LVU1144
	cmpb	$0, (%rsi,%rcx)
	.loc 1 1564 54 view .LVU1145
	movq	%rcx, %rax
.LVL387:
.LBB465:
.LBI465:
	.loc 2 156 29 is_stmt 1 view .LVU1146
.LBB466:
	.loc 2 156 50 view .LVU1147
	.loc 2 156 50 is_stmt 0 view .LVU1148
.LBE466:
.LBE465:
	.loc 1 1564 23 view .LVU1149
	je	.L334
.LVL388:
	.loc 1 1567 11 is_stmt 1 view .LVU1150
	.loc 1 1567 14 is_stmt 0 view .LVU1151
	cmpq	%rbx, %rbp
	jb	.L335
	movq	%rbp, %rdx
.LVL389:
	.p2align 4,,10
	.p2align 3
.L334:
	.loc 1 1568 13 is_stmt 1 view .LVU1152
	.loc 1 1585 11 view .LVU1153
	.loc 1 1585 14 is_stmt 0 view .LVU1154
	movq	%rbx, %r13
	subq	%r15, %r13
.LVL390:
	.loc 1 1585 14 view .LVU1155
	jne	.L366
	.loc 1 1585 14 view .LVU1156
.LBE467:
.LBE471:
	.loc 1 1532 3 is_stmt 1 view .LVU1157
.LBB472:
	.loc 1 1534 7 view .LVU1158
	movl	$2147483647, %r13d
.LVL391:
	.loc 1 1534 10 is_stmt 0 view .LVU1159
	movq	%rdx, %r15
.LVL392:
	.loc 1 1534 10 view .LVU1160
	cmpq	%rdx, %rbx
	ja	.L325
	jmp	.L324
.LVL393:
.L361:
	.loc 1 1544 10 view .LVU1161
	movq	%rbp, %r15
	jmp	.L325
.LVL394:
.L366:
	.loc 1 1544 10 view .LVU1162
	leaq	(%r14,%r15), %rdi
.LBB468:
	.loc 1 1585 14 view .LVU1163
	movq	%rdx, %r15
	jmp	.L337
.LBE468:
.LBE472:
	.cfi_endproc
.LFE189:
	.size	squeeze_filter.constprop.0, .-squeeze_filter.constprop.0
	.section	.rodata.str1.1
.LC28:
	.string	"tr"
.LC29:
	.string	" invocation"
.LC30:
	.string	""
	.section	.rodata.str1.8
	.align 8
.LC31:
	.string	"Try '%s --help' for more information.\n"
	.align 8
.LC32:
	.string	"Usage: %s [OPTION]... SET1 [SET2]\n"
	.align 8
.LC33:
	.ascii	"Translate, squeeze, and/or delete characters from standard i"
	.ascii	"nput,\nwriting to standard output.\n\n  -c, -C, --complement"
	.ascii	"    use the complement of SET1\n  -d, --delete            de"
	.ascii	"lete characters in SET1, do not translate\n  -s, --squeeze-r"
	.ascii	"epea"
	.string	"ts   replace each sequence of a repeated character\n                            that is listed in the last specified SET,\n                            with a single occurrence of that character\n  -t, --truncate-set1     first truncate SET1 to length of SET2\n"
	.align 8
.LC34:
	.string	"      --help     display this help and exit\n"
	.align 8
.LC35:
	.string	"      --version  output version information and exit\n"
	.align 8
.LC36:
	.ascii	"\nSETs are specified as strings of characters.  Most represe"
	.ascii	"nt themselves.\nInterpreted sequences are:\n\n  \\NNN       "
	.ascii	" "
	.string	"    character with octal value NNN (1 to 3 octal digits)\n  \\\\              backslash\n  \\a              audible BEL\n  \\b              backspace\n  \\f              form feed\n  \\n              new line\n  \\r              return\n  \\t              horizontal tab\n"
	.align 8
.LC37:
	.ascii	"  \\v              vertical tab\n  CHAR1-CHAR2     all chara"
	.ascii	"cters from CHAR1 to CHAR2 in ascending order\n  [CHAR*]     "
	.ascii	"    in SET2, copies of CHAR until length of SET1\n  "
	.string	"[CHAR*REPEAT]   REPEAT copies of CHAR, REPEAT octal if starting with 0\n  [:alnum:]       all letters and digits\n  [:alpha:]       all letters\n  [:blank:]       all horizontal whitespace\n  [:cntrl:]       all control characters\n  [:digit:]       all digits\n"
	.align 8
.LC38:
	.ascii	"  [:graph:]       all printable characters, not including sp"
	.ascii	"ace\n  [:lower:]       all lower case letters\n  [:print:]  "
	.ascii	"     all printable characters, inclu"
	.string	"ding space\n  [:punct:]       all punctuation characters\n  [:space:]       all horizontal or vertical whitespace\n  [:upper:]       all upper case letters\n  [:xdigit:]      all hexadecimal digits\n  [=CHAR=]        all characters which are equivalent to CHAR\n"
	.align 8
.LC39:
	.ascii	"\nTranslation occurs if -d is not given and both SET1 and SE"
	.ascii	"T2 appear.\n-t may be used only when translating.  SET2 is e"
	.ascii	"xtended to length of\nSET1 by repeating its last character a"
	.ascii	"s necessary.  Excess characters\nof SET"
	.string	"2 are ignored.  Only [:lower:] and [:upper:] are guaranteed to\nexpand in ascending order; used in SET2 while translating, they may\nonly be used in pairs to specify case conversion.  -s uses the last\nspecified SET, and occurs after translation or deletion.\n"
	.section	.rodata.str1.1
.LC40:
	.string	"["
.LC41:
	.string	"test invocation"
.LC42:
	.string	"coreutils"
.LC43:
	.string	"Multi-call invocation"
.LC44:
	.string	"sha224sum"
.LC45:
	.string	"sha2 utilities"
.LC46:
	.string	"sha256sum"
.LC47:
	.string	"sha384sum"
.LC48:
	.string	"sha512sum"
.LC49:
	.string	"\n%s online help: <%s>\n"
	.section	.rodata.str1.8
	.align 8
.LC50:
	.string	"https://www.gnu.org/software/coreutils/"
	.section	.rodata.str1.1
.LC51:
	.string	"GNU coreutils"
.LC52:
	.string	"en_"
	.section	.rodata.str1.8
	.align 8
.LC53:
	.string	"Report any translation bugs to <https://translationproject.org/team/>\n"
	.section	.rodata.str1.1
.LC54:
	.string	"Full documentation <%s%s>\n"
	.section	.rodata.str1.8
	.align 8
.LC55:
	.string	"or available locally via: info '(coreutils) %s%s'\n"
	.text
	.p2align 4
	.globl	usage
	.type	usage, @function
usage:
.LVL395:
.LFB140:
	.loc 1 282 1 is_stmt 1 view -0
	.cfi_startproc
	.loc 1 282 1 is_stmt 0 view .LVU1165
	endbr64
	pushq	%r14
	.cfi_def_cfa_offset 16
	.cfi_offset 14, -16
	.loc 1 284 5 view .LVU1166
	movl	$5, %edx
	.loc 1 282 1 view .LVU1167
	pushq	%r13
	.cfi_def_cfa_offset 24
	.cfi_offset 13, -24
	pushq	%r12
	.cfi_def_cfa_offset 32
	.cfi_offset 12, -32
	pushq	%rbp
	.cfi_def_cfa_offset 40
	.cfi_offset 6, -40
	movl	%edi, %ebp
	subq	$136, %rsp
	.cfi_def_cfa_offset 176
	movq	program_name(%rip), %r12
	.loc 1 282 1 view .LVU1168
	movq	%fs:40, %rax
	movq	%rax, 120(%rsp)
	xorl	%eax, %eax
	.loc 1 283 3 is_stmt 1 view .LVU1169
	.loc 1 283 6 is_stmt 0 view .LVU1170
	testl	%edi, %edi
	je	.L368
	.loc 1 284 5 is_stmt 1 view .LVU1171
	.loc 1 284 5 view .LVU1172
	leaq	.LC31(%rip), %rsi
	xorl	%edi, %edi
.LVL396:
	.loc 1 284 5 is_stmt 0 view .LVU1173
	call	dcgettext@PLT
.LVL397:
.LBB485:
.LBB486:
	.loc 3 100 10 view .LVU1174
	movq	stderr(%rip), %rdi
	movq	%r12, %rcx
	movl	$1, %esi
.LBE486:
.LBE485:
	.loc 1 284 5 view .LVU1175
	movq	%rax, %rdx
.LVL398:
.LBB488:
.LBI485:
	.loc 3 98 1 is_stmt 1 view .LVU1176
.LBB487:
	.loc 3 100 3 view .LVU1177
	.loc 3 100 10 is_stmt 0 view .LVU1178
	xorl	%eax, %eax
.LVL399:
	.loc 3 100 10 view .LVU1179
	call	__fprintf_chk@PLT
.LVL400:
.L369:
	.loc 3 100 10 view .LVU1180
.LBE487:
.LBE488:
	.loc 1 351 3 is_stmt 1 view .LVU1181
	movl	%ebp, %edi
	call	exit@PLT
.LVL401:
.L368:
	.loc 1 287 7 view .LVU1182
	.loc 1 287 15 is_stmt 0 view .LVU1183
	leaq	.LC32(%rip), %rsi
	xorl	%edi, %edi
.LVL402:
	.loc 1 287 15 view .LVU1184
	call	dcgettext@PLT
.LVL403:
.LBB489:
.LBB490:
	.loc 3 107 10 view .LVU1185
	movq	%r12, %rdx
	movl	$1, %edi
.LBE490:
.LBE489:
	.loc 1 287 15 view .LVU1186
	movq	%rax, %rsi
.LVL404:
.LBB492:
.LBI489:
	.loc 3 105 1 is_stmt 1 view .LVU1187
.LBB491:
	.loc 3 107 3 view .LVU1188
	.loc 3 107 10 is_stmt 0 view .LVU1189
	xorl	%eax, %eax
.LVL405:
	.loc 3 107 10 view .LVU1190
	call	__printf_chk@PLT
.LVL406:
	.loc 3 107 10 view .LVU1191
.LBE491:
.LBE492:
	.loc 1 291 7 is_stmt 1 view .LVU1192
	movq	stdout(%rip), %r12
	movl	$5, %edx
	xorl	%edi, %edi
	leaq	.LC33(%rip), %rsi
	call	dcgettext@PLT
.LVL407:
	movq	%r12, %rsi
	movq	%rax, %rdi
	call	fputs_unlocked@PLT
.LVL408:
	.loc 1 302 7 view .LVU1193
	movq	stdout(%rip), %r12
	movl	$5, %edx
	xorl	%edi, %edi
	leaq	.LC34(%rip), %rsi
	call	dcgettext@PLT
.LVL409:
	movq	%r12, %rsi
	movq	%rax, %rdi
	call	fputs_unlocked@PLT
.LVL410:
	.loc 1 303 7 view .LVU1194
	movq	stdout(%rip), %r12
	movl	$5, %edx
	xorl	%edi, %edi
	leaq	.LC35(%rip), %rsi
	call	dcgettext@PLT
.LVL411:
	movq	%r12, %rsi
	movq	%rax, %rdi
	call	fputs_unlocked@PLT
.LVL412:
	.loc 1 304 7 view .LVU1195
	movq	stdout(%rip), %r12
	movl	$5, %edx
	xorl	%edi, %edi
	leaq	.LC36(%rip), %rsi
	call	dcgettext@PLT
.LVL413:
	movq	%r12, %rsi
	movq	%rax, %rdi
	call	fputs_unlocked@PLT
.LVL414:
	.loc 1 318 6 view .LVU1196
	movq	stdout(%rip), %r12
	movl	$5, %edx
	xorl	%edi, %edi
	leaq	.LC37(%rip), %rsi
	call	dcgettext@PLT
.LVL415:
	movq	%r12, %rsi
	movq	%rax, %rdi
	call	fputs_unlocked@PLT
.LVL416:
	.loc 1 329 6 view .LVU1197
	movq	stdout(%rip), %r12
	movl	$5, %edx
	xorl	%edi, %edi
	leaq	.LC38(%rip), %rsi
	call	dcgettext@PLT
.LVL417:
	movq	%r12, %rsi
	movq	%rax, %rdi
	call	fputs_unlocked@PLT
.LVL418:
	.loc 1 339 6 view .LVU1198
	movl	$5, %edx
	movq	stdout(%rip), %r12
	xorl	%edi, %edi
	leaq	.LC39(%rip), %rsi
	call	dcgettext@PLT
.LVL419:
	movq	%r12, %rsi
	movq	%rax, %rdi
	call	fputs_unlocked@PLT
.LVL420:
	.loc 1 349 7 view .LVU1199
.LBB493:
.LBI493:
	.loc 2 634 1 view .LVU1200
.LBB494:
	.loc 2 636 3 view .LVU1201
	.loc 2 636 67 is_stmt 0 view .LVU1202
	leaq	.LC40(%rip), %rax
	.loc 2 647 25 view .LVU1203
	movq	%rsp, %rdx
	.loc 2 636 67 view .LVU1204
	leaq	.LC46(%rip), %rcx
	movq	%rax, (%rsp)
	leaq	.LC41(%rip), %rax
	.loc 2 649 33 view .LVU1205
	movl	$116, %edi
	movl	$114, %esi
	.loc 2 636 67 view .LVU1206
	movq	%rax, 8(%rsp)
	leaq	.LC42(%rip), %rax
	movq	%rax, 16(%rsp)
	leaq	.LC43(%rip), %rax
	movq	%rax, 24(%rsp)
	leaq	.LC44(%rip), %rax
	movq	%rcx, 48(%rsp)
	leaq	.LC47(%rip), %rcx
	movq	%rax, 32(%rsp)
	leaq	.LC45(%rip), %rax
	movq	%rcx, 64(%rsp)
	leaq	.LC48(%rip), %rcx
	movq	%rax, 40(%rsp)
	movq	%rax, 56(%rsp)
	movq	%rax, 72(%rsp)
	movq	%rcx, 80(%rsp)
	movq	%rax, 88(%rsp)
	movq	$0, 96(%rsp)
	movq	$0, 104(%rsp)
	.loc 2 646 3 is_stmt 1 view .LVU1207
.LVL421:
	.loc 2 647 3 view .LVU1208
	.loc 2 649 3 view .LVU1209
	.loc 2 649 9 view .LVU1210
	.p2align 4,,10
	.p2align 3
.L389:
	.loc 2 650 5 view .LVU1211
	.loc 2 649 18 is_stmt 0 view .LVU1212
	movq	16(%rdx), %rax
	.loc 2 650 13 view .LVU1213
	addq	$16, %rdx
.LVL422:
	.loc 2 649 9 is_stmt 1 view .LVU1214
	testq	%rax, %rax
	je	.L370
	.loc 2 649 33 is_stmt 0 view .LVU1215
	movzbl	(%rax), %ecx
	cmpl	%ecx, %edi
	jne	.L389
	movzbl	1(%rax), %ecx
	cmpl	%ecx, %esi
	jne	.L389
	.loc 2 649 28 view .LVU1216
	cmpb	$0, 2(%rax)
	jne	.L389
.L370:
	.loc 2 652 3 is_stmt 1 view .LVU1217
	.loc 2 652 15 is_stmt 0 view .LVU1218
	movq	8(%rdx), %r12
	.loc 2 655 11 view .LVU1219
	leaq	.LC49(%rip), %rsi
	movl	$5, %edx
.LVL423:
	.loc 2 655 11 view .LVU1220
	xorl	%edi, %edi
	.loc 2 652 6 view .LVU1221
	testq	%r12, %r12
	je	.L373
	.loc 2 653 5 is_stmt 1 view .LVU1222
.LVL424:
	.loc 2 655 3 view .LVU1223
	.loc 2 655 11 is_stmt 0 view .LVU1224
	call	dcgettext@PLT
.LVL425:
.LBB495:
.LBB496:
	.loc 3 107 10 view .LVU1225
	leaq	.LC50(%rip), %rcx
	leaq	.LC51(%rip), %rdx
	movl	$1, %edi
.LBE496:
.LBE495:
	.loc 2 655 11 view .LVU1226
	movq	%rax, %rsi
.LVL426:
.LBB500:
.LBI495:
	.loc 3 105 1 is_stmt 1 view .LVU1227
.LBB497:
	.loc 3 107 3 view .LVU1228
	.loc 3 107 10 is_stmt 0 view .LVU1229
	xorl	%eax, %eax
.LVL427:
	.loc 3 107 10 view .LVU1230
	leaq	.LC28(%rip), %r13
	call	__printf_chk@PLT
.LVL428:
	.loc 3 107 10 view .LVU1231
.LBE497:
.LBE500:
	.loc 2 659 3 is_stmt 1 view .LVU1232
	.loc 2 659 29 is_stmt 0 view .LVU1233
	movl	$5, %edi
	xorl	%esi, %esi
	call	setlocale@PLT
.LVL429:
	movq	%rax, %rdi
.LVL430:
	.loc 2 660 3 is_stmt 1 view .LVU1234
	.loc 2 660 6 is_stmt 0 view .LVU1235
	testq	%rax, %rax
	je	.L374
	.loc 2 660 22 view .LVU1236
	movl	$3, %edx
	leaq	.LC52(%rip), %rsi
	call	strncmp@PLT
.LVL431:
	.loc 2 660 19 view .LVU1237
	testl	%eax, %eax
	jne	.L377
.LVL432:
.L374:
	.loc 2 669 3 is_stmt 1 view .LVU1238
	.loc 2 669 11 is_stmt 0 view .LVU1239
	xorl	%edi, %edi
	movl	$5, %edx
	leaq	.LC54(%rip), %rsi
	call	dcgettext@PLT
.LVL433:
.LBB501:
.LBB502:
	.loc 3 107 10 view .LVU1240
	leaq	.LC28(%rip), %rcx
	movl	$1, %edi
	leaq	.LC50(%rip), %rdx
.LBE502:
.LBE501:
	.loc 2 669 11 view .LVU1241
	movq	%rax, %rsi
.LVL434:
.LBB507:
.LBI501:
	.loc 3 105 1 is_stmt 1 view .LVU1242
.LBB503:
	.loc 3 107 3 view .LVU1243
	.loc 3 107 10 is_stmt 0 view .LVU1244
	xorl	%eax, %eax
.LVL435:
	.loc 3 107 10 view .LVU1245
	call	__printf_chk@PLT
.LVL436:
	.loc 3 107 10 view .LVU1246
.LBE503:
.LBE507:
	.loc 2 671 3 is_stmt 1 view .LVU1247
	cmpq	%r13, %r12
	leaq	.LC30(%rip), %rcx
	leaq	.LC29(%rip), %r13
	cmovne	%rcx, %r13
.L375:
	.loc 2 671 11 is_stmt 0 view .LVU1248
	xorl	%edi, %edi
	leaq	.LC55(%rip), %rsi
	movl	$5, %edx
	call	dcgettext@PLT
.LVL437:
.LBB508:
.LBB509:
	.loc 3 107 10 view .LVU1249
	movq	%r13, %rcx
	movq	%r12, %rdx
	movl	$1, %edi
.LBE509:
.LBE508:
	.loc 2 671 11 view .LVU1250
	movq	%rax, %rsi
.LVL438:
.LBB511:
.LBI508:
	.loc 3 105 1 is_stmt 1 view .LVU1251
.LBB510:
	.loc 3 107 3 view .LVU1252
	.loc 3 107 10 is_stmt 0 view .LVU1253
	xorl	%eax, %eax
.LVL439:
	.loc 3 107 10 view .LVU1254
	call	__printf_chk@PLT
.LVL440:
	.loc 3 107 10 view .LVU1255
.LBE510:
.LBE511:
	.loc 2 673 1 view .LVU1256
	jmp	.L369
.LVL441:
.L373:
	.loc 2 655 3 is_stmt 1 view .LVU1257
	.loc 2 655 11 is_stmt 0 view .LVU1258
	call	dcgettext@PLT
.LVL442:
.LBB512:
.LBB498:
	.loc 3 107 10 view .LVU1259
	leaq	.LC50(%rip), %rcx
	movl	$1, %edi
	leaq	.LC51(%rip), %rdx
.LBE498:
.LBE512:
	.loc 2 655 11 view .LVU1260
	movq	%rax, %rsi
.LVL443:
.LBB513:
	.loc 3 105 1 is_stmt 1 view .LVU1261
.LBB499:
	.loc 3 107 3 view .LVU1262
	.loc 3 107 10 is_stmt 0 view .LVU1263
	xorl	%eax, %eax
.LVL444:
	.loc 3 107 10 view .LVU1264
	call	__printf_chk@PLT
.LVL445:
	.loc 3 107 10 view .LVU1265
.LBE499:
.LBE513:
	.loc 2 659 3 is_stmt 1 view .LVU1266
	.loc 2 659 29 is_stmt 0 view .LVU1267
	movl	$5, %edi
	xorl	%esi, %esi
	call	setlocale@PLT
.LVL446:
	movq	%rax, %rdi
.LVL447:
	.loc 2 660 3 is_stmt 1 view .LVU1268
	.loc 2 660 6 is_stmt 0 view .LVU1269
	testq	%rax, %rax
	je	.L376
	.loc 2 660 22 view .LVU1270
	movl	$3, %edx
	leaq	.LC52(%rip), %rsi
	call	strncmp@PLT
.LVL448:
	.loc 2 660 19 view .LVU1271
	testl	%eax, %eax
	jne	.L395
.L376:
	.loc 2 669 3 is_stmt 1 view .LVU1272
	.loc 2 669 11 is_stmt 0 view .LVU1273
	movl	$5, %edx
	leaq	.LC54(%rip), %rsi
	xorl	%edi, %edi
	call	dcgettext@PLT
.LVL449:
.LBB514:
.LBB504:
	.loc 3 107 10 view .LVU1274
	leaq	.LC28(%rip), %rcx
	leaq	.LC50(%rip), %rdx
	movl	$1, %edi
.LBE504:
.LBE514:
	.loc 2 669 11 view .LVU1275
	movq	%rax, %rsi
.LVL450:
.LBB515:
	.loc 3 105 1 is_stmt 1 view .LVU1276
.LBB505:
	.loc 3 107 3 view .LVU1277
	.loc 3 107 10 is_stmt 0 view .LVU1278
	xorl	%eax, %eax
.LVL451:
	.loc 3 107 10 view .LVU1279
.LBE505:
.LBE515:
	.loc 2 646 15 view .LVU1280
	leaq	.LC28(%rip), %r12
.LBB516:
.LBB506:
	.loc 3 107 10 view .LVU1281
	call	__printf_chk@PLT
.LVL452:
	.loc 3 107 10 view .LVU1282
.LBE506:
.LBE516:
	.loc 2 671 3 is_stmt 1 view .LVU1283
	leaq	.LC29(%rip), %r13
	jmp	.L375
.L395:
	.loc 2 646 15 is_stmt 0 view .LVU1284
	leaq	.LC28(%rip), %r13
	movq	%r13, %r12
.LVL453:
.L377:
	.loc 2 666 7 is_stmt 1 view .LVU1285
	movq	stdout(%rip), %r14
	xorl	%edi, %edi
	movl	$5, %edx
	leaq	.LC53(%rip), %rsi
	call	dcgettext@PLT
.LVL454:
	movq	%rax, %rdi
	movq	%r14, %rsi
	call	fputs_unlocked@PLT
.LVL455:
	jmp	.L374
.LBE494:
.LBE493:
	.cfi_endproc
.LFE140:
	.size	usage, .-usage
	.section	.rodata.str1.8
	.align 8
.LC56:
	.string	"Two strings must be given when both deleting and squeezing repeats."
	.align 8
.LC57:
	.string	"Two strings must be given when translating."
	.section	.rodata.str1.1
.LC58:
	.string	"/usr/local/share/locale"
.LC59:
	.string	"C"
.LC60:
	.string	"Jim Meyering"
.LC61:
	.string	"+AcCdst"
.LC62:
	.string	"missing operand"
.LC63:
	.string	"missing operand after %s"
.LC64:
	.string	"%s\n"
.LC65:
	.string	"extra operand %s"
	.section	.rodata.str1.8
	.align 8
.LC66:
	.string	"Only one string may be given when deleting without squeezing repeats."
	.align 8
.LC67:
	.string	"the [c*] repeat construct may not appear in string1"
	.align 8
.LC68:
	.string	"only one [c*] repeat construct may appear in string2"
	.align 8
.LC69:
	.string	"[=c=] expressions may not appear in string2 when translating"
	.align 8
.LC70:
	.string	"when translating, the only character classes that may appear in\nstring2 are 'upper' and 'lower'"
	.align 8
.LC71:
	.string	"misaligned [:upper:] and/or [:lower:] construct"
	.align 8
.LC72:
	.string	"old_s1_len >= s1->length && old_s2_len >= s2->length"
	.align 8
.LC73:
	.string	"when not truncating set1, string2 must be non-empty"
	.align 8
.LC74:
	.string	"when translating with string1 longer than string2,\nthe latter string must not end with a character class"
	.align 8
.LC75:
	.string	"when translating with complemented character classes,\nstring2 must map all characters in the domain to one"
	.align 8
.LC76:
	.string	"the [c*] construct may appear in string2 only when translating"
	.section	.rodata.str1.1
.LC77:
	.string	"ch != -1 || truncate_set1"
.LC78:
	.string	"c1 == -1 || truncate_set1"
.LC79:
	.string	"standard input"
	.section	.text.unlikely
.LCOLDB80:
	.section	.text.startup,"ax",@progbits
.LHOTB80:
	.p2align 4
	.globl	main
	.type	main, @function
main:
.LVL456:
.LFB174:
	.loc 1 1691 1 view -0
	.cfi_startproc
	.loc 1 1691 1 is_stmt 0 view .LVU1287
	endbr64
	pushq	%r15
	.cfi_def_cfa_offset 16
	.cfi_offset 15, -16
	pushq	%r14
	.cfi_def_cfa_offset 24
	.cfi_offset 14, -24
	pushq	%r13
	.cfi_def_cfa_offset 32
	.cfi_offset 13, -32
	pushq	%r12
	.cfi_def_cfa_offset 40
	.cfi_offset 12, -40
	.loc 1 1708 15 view .LVU1288
	leaq	long_options(%rip), %r12
	.loc 1 1691 1 view .LVU1289
	pushq	%rbp
	.cfi_def_cfa_offset 48
	.cfi_offset 6, -48
	movslq	%edi, %rbp
	pushq	%rbx
	.cfi_def_cfa_offset 56
	.cfi_offset 3, -56
	movq	%rsi, %rbx
	subq	$504, %rsp
	.cfi_def_cfa_offset 560
	.loc 1 1701 3 view .LVU1290
	movq	(%rsi), %rdi
.LVL457:
	.loc 1 1691 1 view .LVU1291
	movq	%fs:40, %rax
	movq	%rax, 488(%rsp)
	xorl	%eax, %eax
	.loc 1 1692 3 is_stmt 1 view .LVU1292
	.loc 1 1693 3 view .LVU1293
	.loc 1 1694 3 view .LVU1294
	.loc 1 1695 3 view .LVU1295
	.loc 1 1696 3 view .LVU1296
	.loc 1 1697 3 view .LVU1297
.LVL458:
	.loc 1 1698 3 view .LVU1298
	.loc 1 1700 33 view .LVU1299
	.loc 1 1701 3 view .LVU1300
	call	set_program_name@PLT
.LVL459:
	.loc 1 1702 3 view .LVU1301
	leaq	.LC30(%rip), %rsi
	movl	$6, %edi
	call	setlocale@PLT
.LVL460:
	.loc 1 1703 3 view .LVU1302
	leaq	.LC58(%rip), %rsi
	leaq	.LC42(%rip), %rdi
	call	bindtextdomain@PLT
.LVL461:
	.loc 1 1704 3 view .LVU1303
	leaq	.LC42(%rip), %rdi
	call	textdomain@PLT
.LVL462:
	.loc 1 1706 3 view .LVU1304
	movq	close_stdout@GOTPCREL(%rip), %rdi
	call	atexit@PLT
.LVL463:
	.loc 1 1708 3 view .LVU1305
	.p2align 4,,10
	.p2align 3
.L397:
	.loc 1 1741 11 view .LVU1306
	.loc 1 1708 9 view .LVU1307
	.loc 1 1708 15 is_stmt 0 view .LVU1308
	xorl	%r8d, %r8d
	movq	%r12, %rcx
	leaq	.LC61(%rip), %rdx
	movq	%rbx, %rsi
	movl	%ebp, %edi
	call	getopt_long@PLT
.LVL464:
	.loc 1 1708 9 view .LVU1309
	cmpl	$-1, %eax
	je	.L597
	.loc 1 1710 7 is_stmt 1 view .LVU1310
	cmpl	$99, %eax
	je	.L398
	jle	.L598
	cmpl	$115, %eax
	je	.L405
	cmpl	$116, %eax
	jne	.L599
	.loc 1 1732 11 view .LVU1311
	.loc 1 1732 25 is_stmt 0 view .LVU1312
	movb	$1, truncate_set1(%rip)
	.loc 1 1733 11 is_stmt 1 view .LVU1313
	jmp	.L397
	.p2align 4,,10
	.p2align 3
.L598:
	.loc 1 1710 7 is_stmt 0 view .LVU1314
	cmpl	$65, %eax
	je	.L400
	jle	.L600
	cmpl	$67, %eax
	jne	.L416
.L398:
	.loc 1 1720 11 is_stmt 1 view .LVU1315
	.loc 1 1720 22 is_stmt 0 view .LVU1316
	movb	$1, complement(%rip)
	.loc 1 1721 11 is_stmt 1 view .LVU1317
	jmp	.L397
.L600:
	.loc 1 1710 7 is_stmt 0 view .LVU1318
	cmpl	$-131, %eax
	jne	.L601
	.loc 1 1735 9 is_stmt 1 view .LVU1319
	.loc 1 1735 30 view .LVU1320
	.loc 1 1737 9 view .LVU1321
	movq	stdout(%rip), %rdi
	movq	Version(%rip), %rcx
	xorl	%eax, %eax
.LVL465:
	.loc 1 1737 9 is_stmt 0 view .LVU1322
	xorl	%r9d, %r9d
	leaq	.LC60(%rip), %r8
	leaq	.LC51(%rip), %rdx
	leaq	.LC28(%rip), %rsi
	call	version_etc@PLT
.LVL466:
	.loc 1 1737 9 is_stmt 1 view .LVU1323
	xorl	%edi, %edi
	call	exit@PLT
.LVL467:
.L599:
	.loc 1 1710 7 is_stmt 0 view .LVU1324
	cmpl	$100, %eax
	jne	.L416
	.loc 1 1724 11 is_stmt 1 view .LVU1325
	.loc 1 1724 18 is_stmt 0 view .LVU1326
	movb	$1, delete(%rip)
	.loc 1 1725 11 is_stmt 1 view .LVU1327
	jmp	.L397
.L601:
	.loc 1 1710 7 is_stmt 0 view .LVU1328
	cmpl	$-130, %eax
	jne	.L416
	.loc 1 1735 9 is_stmt 1 view .LVU1329
	xorl	%edi, %edi
	call	usage
.LVL468:
	.p2align 4,,10
	.p2align 3
.L400:
	.loc 1 1714 11 view .LVU1330
	leaq	.LC59(%rip), %rsi
	movl	$3, %edi
	call	setlocale@PLT
.LVL469:
	.loc 1 1715 11 view .LVU1331
	leaq	.LC59(%rip), %rsi
	xorl	%edi, %edi
	call	setlocale@PLT
.LVL470:
	.loc 1 1716 11 view .LVU1332
	jmp	.L397
.LVL471:
	.p2align 4,,10
	.p2align 3
.L405:
	.loc 1 1728 11 view .LVU1333
	.loc 1 1728 27 is_stmt 0 view .LVU1334
	movb	$1, squeeze_repeats(%rip)
	.loc 1 1729 11 is_stmt 1 view .LVU1335
	jmp	.L397
.L597:
	.loc 1 1745 3 view .LVU1336
	.loc 1 1745 26 is_stmt 0 view .LVU1337
	movl	optind(%rip), %ecx
	.loc 1 1745 19 view .LVU1338
	movl	%ebp, %r15d
	movzbl	delete(%rip), %eax
.LVL472:
	.loc 1 1745 19 view .LVU1339
	movzbl	squeeze_repeats(%rip), %edx
	subl	%ecx, %r15d
.LVL473:
	.loc 1 1746 3 is_stmt 1 view .LVU1340
	.loc 1 1746 39 is_stmt 0 view .LVU1341
	cmpl	$2, %r15d
	je	.L602
	.loc 1 1746 15 discriminator 6 view .LVU1342
	movb	$0, translating(%rip)
	.loc 1 1747 3 is_stmt 1 discriminator 6 view .LVU1343
	.loc 1 1747 20 is_stmt 0 discriminator 6 view .LVU1344
	cmpb	%dl, %al
	je	.L499
.L497:
.LVL474:
	.loc 1 1748 3 is_stmt 1 view .LVU1345
	.loc 1 1747 20 is_stmt 0 view .LVU1346
	cmpb	%al, %dl
	movl	$1, %esi
	sbbl	%eax, %eax
	addl	$2, %eax
.LVL475:
.L413:
	.loc 1 1750 3 is_stmt 1 discriminator 4 view .LVU1347
	.loc 1 1750 6 is_stmt 0 discriminator 4 view .LVU1348
	cmpl	%esi, %r15d
	jl	.L603
.LVL476:
.L414:
	.loc 1 1766 3 is_stmt 1 view .LVU1349
	.loc 1 1766 6 is_stmt 0 view .LVU1350
	cmpl	%eax, %r15d
	jg	.L604
.LVL477:
	.loc 1 1776 3 is_stmt 1 view .LVU1351
.LBB587:
.LBI587:
	.loc 1 1337 1 view .LVU1352
.LBB588:
	.loc 1 1339 3 view .LVU1353
	.loc 1 1339 30 is_stmt 0 view .LVU1354
	movl	$32, %edi
.LBE588:
.LBE587:
	.loc 1 1777 8 view .LVU1355
	leaq	96(%rsp), %r12
.LVL478:
.LBB594:
.LBB589:
	.loc 1 1339 30 view .LVU1356
	call	xmalloc@PLT
.LVL479:
	.loc 1 1340 3 is_stmt 1 view .LVU1357
.LBE589:
.LBE594:
	.loc 1 1777 8 is_stmt 0 view .LVU1358
	movq	%r12, %rsi
.LBB595:
.LBB590:
	.loc 1 1340 37 view .LVU1359
	movq	%rax, 104(%rsp)
	.loc 1 1340 19 view .LVU1360
	movq	%rax, 96(%rsp)
	.loc 1 1341 3 is_stmt 1 view .LVU1361
	.loc 1 1341 25 is_stmt 0 view .LVU1362
	movq	$0, 8(%rax)
.LVL480:
	.loc 1 1341 25 view .LVU1363
.LBE590:
.LBE595:
	.loc 1 1777 3 is_stmt 1 view .LVU1364
	.loc 1 1777 23 is_stmt 0 view .LVU1365
	movslq	optind(%rip), %rax
	.loc 1 1777 8 view .LVU1366
	movq	(%rbx,%rax,8), %rdi
	call	parse_str
.LVL481:
	.loc 1 1777 6 view .LVU1367
	testb	%al, %al
	je	.L419
	.loc 1 1780 3 is_stmt 1 view .LVU1368
	.loc 1 1787 8 is_stmt 0 view .LVU1369
	xorl	%ebp, %ebp
.LVL482:
	.loc 1 1780 6 view .LVU1370
	cmpl	$2, %r15d
	je	.L494
.LVL483:
.L420:
	.loc 1 1789 3 is_stmt 1 view .LVU1371
.LBB596:
.LBI596:
	.loc 1 1443 1 view .LVU1372
.LBB597:
	.loc 1 1445 3 view .LVU1373
.LBB598:
.LBI598:
	.loc 1 1317 1 view .LVU1374
.LBB599:
	.loc 1 1319 3 view .LVU1375
	movq	%r12, %rdi
	call	get_spec_stats
.LVL484:
	.loc 1 1320 3 view .LVU1376
	.loc 1 1320 6 is_stmt 0 view .LVU1377
	cmpb	$0, complement(%rip)
	jne	.L605
.LVL485:
.L421:
	.loc 1 1320 6 view .LVU1378
.LBE599:
.LBE598:
	.loc 1 1446 3 is_stmt 1 view .LVU1379
	.loc 1 1446 9 is_stmt 0 view .LVU1380
	movq	128(%rsp), %rbx
	.loc 1 1446 6 view .LVU1381
	testq	%rbx, %rbx
	jne	.L606
	.loc 1 1452 3 is_stmt 1 view .LVU1382
	.loc 1 1452 6 is_stmt 0 view .LVU1383
	testq	%rbp, %rbp
	je	.L425
	.loc 1 1454 7 is_stmt 1 view .LVU1384
.LBB603:
.LBB604:
	.loc 1 1327 3 is_stmt 0 view .LVU1385
	movq	%rbp, %rdi
.LBE604:
.LBE603:
	.loc 1 1454 7 view .LVU1386
	movq	120(%rsp), %r13
.LVL486:
.LBB608:
.LBI603:
	.loc 1 1325 1 is_stmt 1 view .LVU1387
.LBB605:
	.loc 1 1327 3 view .LVU1388
	call	get_spec_stats
.LVL487:
	.loc 1 1328 3 view .LVU1389
	.loc 1 1328 19 is_stmt 0 view .LVU1390
	movq	24(%rbp), %rax
	.loc 1 1328 6 view .LVU1391
	cmpq	%rax, %r13
	jb	.L426
	.loc 1 1328 28 view .LVU1392
	cmpq	$1, 32(%rbp)
	je	.L607
.L426:
.LVL488:
	.loc 1 1328 28 view .LVU1393
.LBE605:
.LBE608:
	.loc 1 1456 7 is_stmt 1 view .LVU1394
	.loc 1 1456 13 is_stmt 0 view .LVU1395
	movq	32(%rbp), %rax
	.loc 1 1456 10 view .LVU1396
	cmpq	$1, %rax
	ja	.L608
	.loc 1 1462 7 is_stmt 1 view .LVU1397
	.loc 1 1462 10 is_stmt 0 view .LVU1398
	cmpb	$0, translating(%rip)
	jne	.L427
	.loc 1 1505 11 is_stmt 1 view .LVU1399
	.loc 1 1505 14 is_stmt 0 view .LVU1400
	testq	%rax, %rax
	je	.L425
.L428:
.LBB609:
	.loc 1 1506 13 is_stmt 1 view .LVU1401
	movl	$5, %edx
	leaq	.LC76(%rip), %rsi
	xorl	%edi, %edi
	call	dcgettext@PLT
.LVL489:
	xorl	%esi, %esi
	movl	$1, %edi
	movq	%rax, %rdx
	xorl	%eax, %eax
	call	error@PLT
.LVL490:
.L505:
	.loc 1 1506 13 is_stmt 0 view .LVU1402
	movq	%r15, %rbp
	movq	72(%rsp), %rbx
.LBE609:
.LBB610:
.LBB611:
	.loc 1 1221 3 is_stmt 1 view .LVU1403
	movl	68(%rsp), %r15d
	movq	40(%rsp), %rax
	cmpq	120(%rsp), %rax
	jb	.L448
	movq	32(%rsp), %rax
	cmpq	24(%rbp), %rax
	jb	.L448
	.loc 1 1223 3 view .LVU1404
	.loc 1 1223 12 is_stmt 0 view .LVU1405
	movq	48(%rsp), %rax
	movq	%rax, 104(%rsp)
	.loc 1 1224 3 is_stmt 1 view .LVU1406
	.loc 1 1224 12 is_stmt 0 view .LVU1407
	movq	56(%rsp), %rax
	movq	%rax, 8(%rbp)
	movq	120(%rsp), %rax
	movq	%rax, 40(%rsp)
.LVL491:
	.loc 1 1224 12 view .LVU1408
	movq	24(%rbp), %rax
	movq	%rax, 32(%rsp)
.LVL492:
.L434:
	.loc 1 1224 12 view .LVU1409
.LBE611:
.LBE610:
	.loc 1 1480 11 is_stmt 1 view .LVU1410
	.loc 1 1480 14 is_stmt 0 view .LVU1411
	movq	32(%rsp), %rdx
	cmpq	%rdx, 40(%rsp)
	jbe	.L425
	.loc 1 1482 15 is_stmt 1 view .LVU1412
	.loc 1 1482 18 is_stmt 0 view .LVU1413
	cmpb	$0, truncate_set1(%rip)
	jne	.L425
.L493:
	.loc 1 1487 19 is_stmt 1 view .LVU1414
	.loc 1 1487 22 is_stmt 0 view .LVU1415
	cmpq	$0, 32(%rsp)
	je	.L609
	.loc 1 1490 19 is_stmt 1 view .LVU1416
.LVL493:
.LBB629:
.LBI629:
	.loc 1 1369 1 view .LVU1417
.LBB630:
	.loc 1 1371 3 view .LVU1418
	.loc 1 1372 3 view .LVU1419
	.loc 1 1374 3 view .LVU1420
	.loc 1 1375 3 view .LVU1421
	.loc 1 1376 3 view .LVU1422
	.loc 1 1378 3 view .LVU1423
	.loc 1 1378 5 is_stmt 0 view .LVU1424
	movq	8(%rbp), %rax
.LVL494:
	.loc 1 1379 3 is_stmt 1 view .LVU1425
	.loc 1 1379 12 is_stmt 0 view .LVU1426
	movl	(%rax), %edx
	.loc 1 1379 3 view .LVU1427
	cmpl	$1, %edx
	je	.L451
	ja	.L610
.L454:
.LBB631:
	.loc 1 1397 7 is_stmt 1 view .LVU1428
	.loc 1 1397 22 is_stmt 0 view .LVU1429
	movzbl	16(%rax), %r13d
.LVL495:
	.loc 1 1398 7 is_stmt 1 view .LVU1430
.L456:
	.loc 1 1398 7 is_stmt 0 view .LVU1431
.LBE631:
	.loc 1 1409 3 is_stmt 1 view .LVU1432
.LBB632:
.LBB633:
	.loc 1 714 30 is_stmt 0 view .LVU1433
	movl	$32, %edi
.LBE633:
.LBE632:
	.loc 1 1409 3 view .LVU1434
	movq	40(%rsp), %r14
	subq	32(%rsp), %r14
.LVL496:
.LBB637:
.LBI632:
	.loc 1 711 1 is_stmt 1 view .LVU1435
.LBB634:
	.loc 1 714 3 view .LVU1436
	.loc 1 714 30 is_stmt 0 view .LVU1437
	call	xmalloc@PLT
.LVL497:
	.loc 1 715 3 is_stmt 1 view .LVU1438
	.loc 1 719 3 is_stmt 0 view .LVU1439
	movq	8(%rbp), %rdx
	.loc 1 715 13 view .LVU1440
	movq	$0, 8(%rax)
	.loc 1 716 3 is_stmt 1 view .LVU1441
	.loc 1 716 13 is_stmt 0 view .LVU1442
	movl	$4, (%rax)
	.loc 1 717 3 is_stmt 1 view .LVU1443
	.loc 1 717 42 is_stmt 0 view .LVU1444
	movb	%r13b, 16(%rax)
	.loc 1 718 3 is_stmt 1 view .LVU1445
	.loc 1 718 37 is_stmt 0 view .LVU1446
	movq	%r14, 24(%rax)
	.loc 1 719 3 is_stmt 1 view .LVU1447
	testq	%rdx, %rdx
	je	.L611
	.loc 1 720 3 view .LVU1448
	.loc 1 720 20 is_stmt 0 view .LVU1449
	movq	%rax, 8(%rdx)
	.loc 1 721 3 is_stmt 1 view .LVU1450
.LBE634:
.LBE637:
.LBE630:
.LBE629:
	.loc 1 1494 14 is_stmt 0 view .LVU1451
	cmpb	$0, complement(%rip)
.LBB649:
.LBB643:
.LBB638:
.LBB635:
	.loc 1 721 14 view .LVU1452
	movq	%rax, 8(%rbp)
.LVL498:
	.loc 1 721 14 view .LVU1453
.LBE635:
.LBE638:
	.loc 1 1410 3 is_stmt 1 view .LVU1454
	.loc 1 1410 14 is_stmt 0 view .LVU1455
	movq	120(%rsp), %rax
	movq	%rax, 24(%rbp)
.LVL499:
	.loc 1 1410 14 view .LVU1456
.LBE643:
.LBE649:
	.loc 1 1494 11 is_stmt 1 view .LVU1457
	.loc 1 1494 14 is_stmt 0 view .LVU1458
	je	.L425
.LVL500:
.L490:
	.loc 1 1494 26 view .LVU1459
	cmpb	$0, 145(%rsp)
	je	.L425
	.loc 1 1495 15 view .LVU1460
	movq	120(%rsp), %rax
	cmpq	%rax, 24(%rbp)
	jne	.L458
.LVL501:
.LBB650:
.LBI650:
	.loc 1 1418 1 is_stmt 1 view .LVU1461
.LBB651:
	.loc 1 1420 3 view .LVU1462
	.loc 1 1422 3 view .LVU1463
	.loc 1 1422 12 is_stmt 0 view .LVU1464
	movq	$-2, 16(%rbp)
	.loc 1 1424 3 is_stmt 1 view .LVU1465
	.loc 1 1424 12 is_stmt 0 view .LVU1466
	xorl	%esi, %esi
	movq	%rbp, %rdi
	call	get_next
.LVL502:
	movl	%eax, %r13d
.LVL503:
	.loc 1 1424 6 view .LVU1467
	cmpl	$-1, %eax
	jne	.L459
	jmp	.L458
.LVL504:
.L460:
	.loc 1 1428 5 is_stmt 1 view .LVU1468
	.loc 1 1428 8 is_stmt 0 view .LVU1469
	cmpl	%eax, %r13d
	jne	.L458
.LVL505:
.L459:
	.loc 1 1427 9 is_stmt 1 view .LVU1470
	.loc 1 1427 15 is_stmt 0 view .LVU1471
	xorl	%esi, %esi
	movq	%rbp, %rdi
	call	get_next
.LVL506:
	.loc 1 1427 9 view .LVU1472
	cmpl	$-1, %eax
	jne	.L460
.LVL507:
.L425:
	.loc 1 1427 9 view .LVU1473
.LBE651:
.LBE650:
.LBE597:
.LBE596:
	.loc 1 1794 3 is_stmt 1 view .LVU1474
	.file 6 "./lib/xbinary-io.h"
	.loc 6 42 3 view .LVU1475
	.file 7 "./lib/binary-io.h"
	.loc 7 68 3 view .LVU1476
	.loc 7 52 3 view .LVU1477
	.loc 1 1795 3 view .LVU1478
	.loc 6 42 3 view .LVU1479
	.loc 7 68 3 view .LVU1480
	.loc 7 52 3 view .LVU1481
	.loc 1 1796 3 view .LVU1482
	movq	stdin(%rip), %rdi
	movl	$2, %esi
	call	fadvise@PLT
.LVL508:
	.loc 1 1798 3 view .LVU1483
	.loc 1 1798 7 is_stmt 0 view .LVU1484
	movzbl	squeeze_repeats(%rip), %eax
	movb	%al, 16(%rsp)
	.loc 1 1798 23 view .LVU1485
	cmpl	$1, %r15d
	jne	.L461
	testb	%al, %al
	je	.L461
	.loc 1 1800 7 is_stmt 1 view .LVU1486
	movzbl	complement(%rip), %esi
	movq	%r12, %rdi
	leaq	in_squeeze_set(%rip), %rdx
	call	set_initialize
.LVL509:
	.loc 1 1801 7 view .LVU1487
	leaq	plain_read(%rip), %rdi
	call	squeeze_filter.constprop.0
.LVL510:
.L462:
	.loc 1 1910 3 view .LVU1488
	.loc 1 1910 7 is_stmt 0 view .LVU1489
	xorl	%edi, %edi
	call	close@PLT
.LVL511:
	.loc 1 1910 6 view .LVU1490
	testl	%eax, %eax
	jne	.L612
.LVL512:
.L396:
	.loc 1 1914 1 view .LVU1491
	movq	488(%rsp), %rdx
	xorq	%fs:40, %rdx
	jne	.L613
	addq	$504, %rsp
	.cfi_remember_state
	.cfi_def_cfa_offset 56
	popq	%rbx
	.cfi_def_cfa_offset 48
	popq	%rbp
	.cfi_def_cfa_offset 40
	popq	%r12
	.cfi_def_cfa_offset 32
	popq	%r13
	.cfi_def_cfa_offset 24
	popq	%r14
	.cfi_def_cfa_offset 16
	popq	%r15
	.cfi_def_cfa_offset 8
	ret
.LVL513:
.L461:
	.cfi_restore_state
	.loc 1 1803 8 is_stmt 1 view .LVU1492
	.loc 1 1803 11 is_stmt 0 view .LVU1493
	cmpb	$0, delete(%rip)
	je	.L463
	.loc 1 1803 19 discriminator 1 view .LVU1494
	cmpl	$1, %r15d
	je	.L614
	.loc 1 1816 8 is_stmt 1 discriminator 2 view .LVU1495
	.loc 1 1816 38 is_stmt 0 discriminator 2 view .LVU1496
	cmpl	$2, %r15d
	jne	.L463
	cmpb	$0, 16(%rsp)
	je	.L463
	.loc 1 1818 7 is_stmt 1 view .LVU1497
	movzbl	complement(%rip), %esi
	movq	%r12, %rdi
	leaq	in_delete_set(%rip), %rdx
	call	set_initialize
.LVL514:
	.loc 1 1819 7 view .LVU1498
	movq	%rbp, %rdi
	leaq	in_squeeze_set(%rip), %rdx
	xorl	%esi, %esi
	call	set_initialize
.LVL515:
	.loc 1 1820 7 view .LVU1499
	leaq	read_and_delete(%rip), %rdi
	call	squeeze_filter.constprop.0
.LVL516:
	jmp	.L462
.L463:
	.loc 1 1822 8 view .LVU1500
	.loc 1 1822 11 is_stmt 0 view .LVU1501
	cmpb	$0, translating(%rip)
	je	.L462
	.loc 1 1824 7 is_stmt 1 view .LVU1502
	xorl	%eax, %eax
	.loc 1 1824 10 is_stmt 0 view .LVU1503
	cmpb	$0, complement(%rip)
	leaq	xlate(%rip), %r15
	jne	.L615
	.p2align 4,,10
	.p2align 3
.L467:
.LVL517:
.LBB677:
.LBB678:
	.loc 1 1855 13 is_stmt 1 discriminator 3 view .LVU1504
	.loc 1 1855 22 is_stmt 0 discriminator 3 view .LVU1505
	movb	%al, (%r15,%rax)
	.loc 1 1854 40 is_stmt 1 discriminator 3 view .LVU1506
.LVL518:
	.loc 1 1854 27 discriminator 3 view .LVU1507
	addq	$1, %rax
.LVL519:
	.loc 1 1854 11 is_stmt 0 discriminator 3 view .LVU1508
	cmpq	$256, %rax
	jne	.L467
.LBE678:
	.loc 1 1856 11 is_stmt 1 view .LVU1509
	leaq	92(%rsp), %rax
	.loc 1 1857 21 is_stmt 0 view .LVU1510
	movq	$-2, 16(%rbp)
	leaq	88(%rsp), %r14
	.loc 1 1856 21 view .LVU1511
	movq	$-2, 112(%rsp)
	.loc 1 1857 11 is_stmt 1 view .LVU1512
	movq	%rax, 8(%rsp)
	jmp	.L484
.LVL520:
.L617:
	.loc 1 1863 40 is_stmt 0 discriminator 1 view .LVU1513
	cmpl	$1, 92(%rsp)
	je	.L616
.L476:
	.loc 1 1878 19 is_stmt 1 view .LVU1514
	.loc 1 1878 22 is_stmt 0 view .LVU1515
	cmpl	$-1, %ebx
	je	.L472
	.loc 1 1878 22 view .LVU1516
	cmpl	$-1, %eax
	je	.L482
	.loc 1 1880 19 is_stmt 1 view .LVU1517
	.loc 1 1884 18 is_stmt 0 view .LVU1518
	cmpl	$2, 92(%rsp)
	.loc 1 1880 29 view .LVU1519
	movb	%al, (%r15,%rbx)
	.loc 1 1884 15 is_stmt 1 view .LVU1520
	.loc 1 1884 18 is_stmt 0 view .LVU1521
	jne	.L483
.LVL521:
.L484:
	.loc 1 1858 11 is_stmt 1 view .LVU1522
	.loc 1 1860 15 view .LVU1523
	.loc 1 1860 20 is_stmt 0 view .LVU1524
	movq	%r14, %rsi
	movq	%r12, %rdi
	call	get_next
.LVL522:
	.loc 1 1861 20 view .LVU1525
	movq	8(%rsp), %rsi
	movq	%rbp, %rdi
	.loc 1 1860 20 view .LVU1526
	movslq	%eax, %rbx
.LVL523:
	.loc 1 1861 15 is_stmt 1 view .LVU1527
	.loc 1 1861 20 is_stmt 0 view .LVU1528
	call	get_next
.LVL524:
	.loc 1 1863 15 is_stmt 1 view .LVU1529
	.loc 1 1863 28 is_stmt 0 view .LVU1530
	movl	88(%rsp), %edx
	.loc 1 1863 18 view .LVU1531
	testl	%edx, %edx
	je	.L617
	.loc 1 1869 20 is_stmt 1 view .LVU1532
	.loc 1 1869 23 is_stmt 0 view .LVU1533
	subl	$1, %edx
	jne	.L476
	.loc 1 1869 45 discriminator 1 view .LVU1534
	cmpl	$0, 92(%rsp)
	jne	.L476
.LBB679:
	.loc 1 1872 25 view .LVU1535
	call	__ctype_b_loc@PLT
.LVL525:
	.loc 1 1872 25 view .LVU1536
	xorl	%ebx, %ebx
.LVL526:
	.loc 1 1872 25 view .LVU1537
	movq	(%rax), %r13
	.p2align 4,,10
	.p2align 3
.L481:
.LVL527:
	.loc 1 1872 21 is_stmt 1 view .LVU1538
	.loc 1 1872 24 is_stmt 0 view .LVU1539
	testb	$1, 1(%r13,%rbx,2)
	je	.L480
	.loc 1 1873 23 is_stmt 1 discriminator 1 view .LVU1540
.LBB680:
	.loc 1 1873 34 discriminator 1 view .LVU1541
	.loc 1 1873 34 discriminator 1 view .LVU1542
	.loc 1 1873 34 discriminator 1 view .LVU1543
	.loc 1 1873 34 discriminator 1 view .LVU1544
.LVL528:
.LBB681:
.LBI681:
	.file 8 "/usr/include/ctype.h"
	.loc 8 207 1 discriminator 1 view .LVU1545
.LBB682:
	.loc 8 209 3 discriminator 1 view .LVU1546
	.loc 8 209 39 is_stmt 0 discriminator 1 view .LVU1547
	call	__ctype_tolower_loc@PLT
.LVL529:
	.loc 8 209 39 discriminator 1 view .LVU1548
.LBE682:
.LBE681:
	.loc 1 1873 34 is_stmt 1 discriminator 1 view .LVU1549
.LBB684:
.LBB683:
	.loc 8 209 68 is_stmt 0 discriminator 1 view .LVU1550
	movq	(%rax), %rax
.LVL530:
	.loc 8 209 68 discriminator 1 view .LVU1551
.LBE683:
.LBE684:
.LBE680:
	.loc 1 1873 32 discriminator 1 view .LVU1552
	movl	(%rax,%rbx,4), %eax
.LVL531:
	.loc 1 1873 32 discriminator 1 view .LVU1553
	movb	%al, (%r15,%rbx)
.L480:
	.loc 1 1871 48 is_stmt 1 discriminator 2 view .LVU1554
.LVL532:
	.loc 1 1871 35 discriminator 2 view .LVU1555
	addq	$1, %rbx
.LVL533:
	.loc 1 1871 19 is_stmt 0 discriminator 2 view .LVU1556
	cmpq	$256, %rbx
	jne	.L481
.L483:
	.loc 1 1871 19 discriminator 2 view .LVU1557
.LBE679:
	.loc 1 1884 15 is_stmt 1 view .LVU1558
	.loc 1 1886 19 view .LVU1559
.LBB685:
.LBI685:
	.loc 1 994 1 view .LVU1560
.LVL534:
.LBB686:
	.loc 1 996 3 view .LVU1561
	.loc 1 996 20 is_stmt 0 view .LVU1562
	movq	104(%rsp), %rax
	movq	8(%rax), %rax
	.loc 1 997 12 view .LVU1563
	movq	$-1, 112(%rsp)
	.loc 1 996 11 view .LVU1564
	movq	%rax, 104(%rsp)
	.loc 1 997 3 is_stmt 1 view .LVU1565
.LBE686:
.LBE685:
	.loc 1 1887 19 view .LVU1566
.LVL535:
.LBB687:
.LBI687:
	.loc 1 994 1 view .LVU1567
.LBB688:
	.loc 1 996 3 view .LVU1568
	.loc 1 996 20 is_stmt 0 view .LVU1569
	movq	8(%rbp), %rax
	movq	8(%rax), %rax
	.loc 1 997 12 view .LVU1570
	movq	$-1, 16(%rbp)
	.loc 1 996 11 view .LVU1571
	movq	%rax, 8(%rbp)
	.loc 1 997 3 is_stmt 1 view .LVU1572
	.loc 1 998 1 is_stmt 0 view .LVU1573
	jmp	.L484
.LVL536:
.L602:
	.loc 1 998 1 view .LVU1574
.LBE688:
.LBE687:
.LBE677:
	.loc 1 1746 39 discriminator 1 view .LVU1575
	testb	%al, %al
	jne	.L411
	.loc 1 1746 15 view .LVU1576
	movb	$1, translating(%rip)
	.loc 1 1747 3 is_stmt 1 view .LVU1577
	.loc 1 1748 20 is_stmt 0 view .LVU1578
	movl	$2, %eax
	.loc 1 1747 20 view .LVU1579
	testb	%dl, %dl
	jne	.L414
.L496:
.LVL537:
	.loc 1 1750 3 is_stmt 1 view .LVU1580
	.loc 1 1776 3 view .LVU1581
.LBB695:
	.loc 1 1337 1 view .LVU1582
.LBB591:
	.loc 1 1339 3 view .LVU1583
	.loc 1 1339 30 is_stmt 0 view .LVU1584
	movl	$32, %edi
.LBE591:
.LBE695:
	.loc 1 1777 8 view .LVU1585
	leaq	96(%rsp), %r12
.LVL538:
.LBB696:
.LBB592:
	.loc 1 1339 30 view .LVU1586
	call	xmalloc@PLT
.LVL539:
	.loc 1 1340 3 is_stmt 1 view .LVU1587
.LBE592:
.LBE696:
	.loc 1 1777 8 is_stmt 0 view .LVU1588
	movq	%r12, %rsi
.LBB697:
.LBB593:
	.loc 1 1340 37 view .LVU1589
	movq	%rax, 104(%rsp)
	.loc 1 1340 19 view .LVU1590
	movq	%rax, 96(%rsp)
	.loc 1 1341 3 is_stmt 1 view .LVU1591
	.loc 1 1341 25 is_stmt 0 view .LVU1592
	movq	$0, 8(%rax)
.LVL540:
	.loc 1 1341 25 view .LVU1593
.LBE593:
.LBE697:
	.loc 1 1777 3 is_stmt 1 view .LVU1594
	.loc 1 1777 23 is_stmt 0 view .LVU1595
	movslq	optind(%rip), %rax
	.loc 1 1777 8 view .LVU1596
	movq	(%rbx,%rax,8), %rdi
	call	parse_str
.LVL541:
	.loc 1 1777 6 view .LVU1597
	testb	%al, %al
	je	.L419
.L494:
	.loc 1 1782 7 is_stmt 1 view .LVU1598
.LVL542:
.LBB698:
.LBI698:
	.loc 1 1337 1 view .LVU1599
.LBB699:
	.loc 1 1339 3 view .LVU1600
	.loc 1 1339 30 is_stmt 0 view .LVU1601
	movl	$32, %edi
.LBE699:
.LBE698:
	.loc 1 1783 12 view .LVU1602
	leaq	160(%rsp), %rbp
.LVL543:
.LBB702:
.LBB700:
	.loc 1 1339 30 view .LVU1603
	call	xmalloc@PLT
.LVL544:
	.loc 1 1340 3 is_stmt 1 view .LVU1604
.LBE700:
.LBE702:
	.loc 1 1783 12 is_stmt 0 view .LVU1605
	movq	%rbp, %rsi
.LBB703:
.LBB701:
	.loc 1 1340 37 view .LVU1606
	movq	%rax, 168(%rsp)
	.loc 1 1340 19 view .LVU1607
	movq	%rax, 160(%rsp)
	.loc 1 1341 3 is_stmt 1 view .LVU1608
	.loc 1 1341 25 is_stmt 0 view .LVU1609
	movq	$0, 8(%rax)
.LVL545:
	.loc 1 1341 25 view .LVU1610
.LBE701:
.LBE703:
	.loc 1 1783 7 is_stmt 1 view .LVU1611
	.loc 1 1783 27 is_stmt 0 view .LVU1612
	movslq	optind(%rip), %rax
	.loc 1 1783 12 view .LVU1613
	movq	8(%rbx,%rax,8), %rdi
	call	parse_str
.LVL546:
	.loc 1 1783 10 view .LVU1614
	testb	%al, %al
	jne	.L420
.LVL547:
.L419:
	.loc 1 1778 12 view .LVU1615
	movl	$1, %eax
	jmp	.L396
.LVL548:
.L616:
.LBB704:
.LBB689:
	.loc 1 1866 25 view .LVU1616
	call	__ctype_b_loc@PLT
.LVL549:
	.loc 1 1866 25 view .LVU1617
	xorl	%ebx, %ebx
.LVL550:
	.loc 1 1866 25 view .LVU1618
	movq	(%rax), %r13
	.p2align 4,,10
	.p2align 3
.L478:
.LVL551:
	.loc 1 1866 21 is_stmt 1 view .LVU1619
	.loc 1 1866 24 is_stmt 0 view .LVU1620
	testb	$2, 1(%r13,%rbx,2)
	je	.L477
	.loc 1 1867 23 is_stmt 1 discriminator 1 view .LVU1621
.LBB690:
	.loc 1 1867 34 discriminator 1 view .LVU1622
	.loc 1 1867 34 discriminator 1 view .LVU1623
	.loc 1 1867 34 discriminator 1 view .LVU1624
	.loc 1 1867 34 discriminator 1 view .LVU1625
.LVL552:
.LBB691:
.LBI691:
	.loc 8 213 1 discriminator 1 view .LVU1626
.LBB692:
	.loc 8 215 3 discriminator 1 view .LVU1627
	.loc 8 215 39 is_stmt 0 discriminator 1 view .LVU1628
	call	__ctype_toupper_loc@PLT
.LVL553:
	.loc 8 215 39 discriminator 1 view .LVU1629
.LBE692:
.LBE691:
	.loc 1 1867 34 is_stmt 1 discriminator 1 view .LVU1630
.LBB694:
.LBB693:
	.loc 8 215 68 is_stmt 0 discriminator 1 view .LVU1631
	movq	(%rax), %rax
.LVL554:
	.loc 8 215 68 discriminator 1 view .LVU1632
.LBE693:
.LBE694:
.LBE690:
	.loc 1 1867 32 discriminator 1 view .LVU1633
	movl	(%rax,%rbx,4), %eax
.LVL555:
	.loc 1 1867 32 discriminator 1 view .LVU1634
	movb	%al, (%r15,%rbx)
.L477:
	.loc 1 1865 48 is_stmt 1 discriminator 2 view .LVU1635
.LVL556:
	.loc 1 1865 35 discriminator 2 view .LVU1636
	addq	$1, %rbx
.LVL557:
	.loc 1 1865 19 is_stmt 0 discriminator 2 view .LVU1637
	cmpq	$256, %rbx
	jne	.L478
	jmp	.L483
.LVL558:
.L499:
	.loc 1 1865 19 discriminator 2 view .LVU1638
.LBE689:
.LBE704:
	.loc 1 1747 20 view .LVU1639
	movl	$2, %esi
	.loc 1 1748 20 view .LVU1640
	movl	$2, %eax
	jmp	.L413
.LVL559:
.L472:
	.loc 1 1892 7 is_stmt 1 view .LVU1641
	.loc 1 1892 10 is_stmt 0 view .LVU1642
	cmpb	$0, 16(%rsp)
.LBB705:
	.loc 1 1901 35 view .LVU1643
	leaq	io_buf(%rip), %r12
.LBE705:
	.loc 1 1892 10 view .LVU1644
	je	.L486
	jmp	.L618
.LVL560:
.L620:
.LBB707:
	.loc 1 1904 15 is_stmt 1 view .LVU1645
	.loc 1 1904 19 is_stmt 0 view .LVU1646
	movq	stdout(%rip), %rcx
	movq	%rax, %rdx
	movl	$1, %esi
	movq	%r12, %rdi
	call	fwrite_unlocked@PLT
.LVL561:
	.loc 1 1904 18 view .LVU1647
	cmpq	%rax, %rbx
	jne	.L619
.LVL562:
.L486:
	.loc 1 1904 18 view .LVU1648
.LBE707:
	.loc 1 1899 11 is_stmt 1 view .LVU1649
.LBB708:
	.loc 1 1901 15 view .LVU1650
	.loc 1 1901 35 is_stmt 0 view .LVU1651
	movl	$8192, %esi
	movq	%r12, %rdi
	call	read_and_xlate
.LVL563:
	movq	%rax, %rbx
.LVL564:
	.loc 1 1902 15 is_stmt 1 view .LVU1652
	.loc 1 1902 18 is_stmt 0 view .LVU1653
	testq	%rax, %rax
	jne	.L620
.LBE708:
	jmp	.L462
.LVL565:
.L605:
.LBB709:
.LBB669:
.LBB652:
.LBB602:
	.loc 1 1321 5 is_stmt 1 view .LVU1654
.LBB600:
.LBI600:
	.loc 1 1141 1 view .LVU1655
.LBB601:
	.loc 1 1143 3 view .LVU1656
	.loc 1 1144 3 view .LVU1657
	.loc 1 1145 3 view .LVU1658
	.loc 1 1145 8 is_stmt 0 view .LVU1659
	leaq	224(%rsp), %rdi
	movl	$32, %ecx
	xorl	%eax, %eax
	.loc 1 1147 12 view .LVU1660
	movq	$-2, 112(%rsp)
	.loc 1 1145 8 view .LVU1661
	rep stosq
	.loc 1 1147 3 is_stmt 1 view .LVU1662
	.loc 1 1148 3 view .LVU1663
	.loc 1 1144 7 is_stmt 0 view .LVU1664
	movl	$256, %ebx
.LVL566:
	.loc 1 1148 9 view .LVU1665
	jmp	.L422
.LVL567:
.L423:
	.loc 1 1150 7 is_stmt 1 view .LVU1666
	.loc 1 1150 30 is_stmt 0 view .LVU1667
	cltq
	.loc 1 1150 23 view .LVU1668
	movzbl	224(%rsp,%rax), %edx
	.loc 1 1151 17 view .LVU1669
	movb	$1, 224(%rsp,%rax)
	.loc 1 1150 23 view .LVU1670
	xorl	$1, %edx
	movzbl	%dl, %edx
	.loc 1 1150 19 view .LVU1671
	subl	%edx, %ebx
.LVL568:
	.loc 1 1151 7 is_stmt 1 view .LVU1672
.L422:
	.loc 1 1148 9 view .LVU1673
	.loc 1 1148 15 is_stmt 0 view .LVU1674
	xorl	%esi, %esi
	movq	%r12, %rdi
	call	get_next
.LVL569:
	.loc 1 1148 9 view .LVU1675
	cmpl	$-1, %eax
	jne	.L423
	.loc 1 1153 3 is_stmt 1 view .LVU1676
.LVL570:
	.loc 1 1153 3 is_stmt 0 view .LVU1677
.LBE601:
.LBE600:
	.loc 1 1321 18 view .LVU1678
	movslq	%ebx, %rbx
	movq	%rbx, 120(%rsp)
	jmp	.L421
.LVL571:
.L411:
	.loc 1 1321 18 view .LVU1679
.LBE602:
.LBE652:
.LBE669:
.LBE709:
	.loc 1 1746 15 view .LVU1680
	movb	$0, translating(%rip)
	.loc 1 1747 3 is_stmt 1 view .LVU1681
	.loc 1 1747 20 is_stmt 0 view .LVU1682
	testb	%dl, %dl
	je	.L497
	jmp	.L496
.LVL572:
.L607:
.LBB710:
.LBB670:
.LBB653:
.LBB606:
	.loc 1 1330 7 is_stmt 1 view .LVU1683
	.loc 1 1330 67 is_stmt 0 view .LVU1684
	movq	40(%rbp), %rdx
	.loc 1 1331 16 view .LVU1685
	movq	%r13, %rcx
	subq	%rax, %rcx
.LBE606:
.LBE653:
	.loc 1 1462 10 view .LVU1686
	cmpb	$0, translating(%rip)
.LBB654:
.LBB607:
	.loc 1 1331 16 view .LVU1687
	movq	%rcx, 24(%rdx)
	.loc 1 1332 7 is_stmt 1 view .LVU1688
	.loc 1 1332 18 is_stmt 0 view .LVU1689
	movq	%r13, 24(%rbp)
.LVL573:
	.loc 1 1332 18 view .LVU1690
.LBE607:
.LBE654:
	.loc 1 1456 7 is_stmt 1 view .LVU1691
	.loc 1 1462 7 view .LVU1692
	.loc 1 1462 10 is_stmt 0 view .LVU1693
	je	.L428
.L427:
	.loc 1 1464 11 is_stmt 1 view .LVU1694
	.loc 1 1464 14 is_stmt 0 view .LVU1695
	cmpb	$0, 48(%rbp)
	jne	.L621
	.loc 1 1471 11 is_stmt 1 view .LVU1696
	.loc 1 1471 14 is_stmt 0 view .LVU1697
	cmpb	$0, 50(%rbp)
	jne	.L622
	.loc 1 1478 11 is_stmt 1 view .LVU1698
.LVL574:
.LBB655:
.LBI610:
	.loc 1 1166 1 view .LVU1699
.LBB626:
	.loc 1 1168 3 view .LVU1700
	.loc 1 1169 3 view .LVU1701
	.loc 1 1170 3 view .LVU1702
	.loc 1 1171 3 view .LVU1703
	.loc 1 1172 3 view .LVU1704
	.loc 1 1172 9 is_stmt 0 view .LVU1705
	movq	120(%rsp), %rax
	.loc 1 1179 6 view .LVU1706
	cmpb	$0, complement(%rip)
	.loc 1 1172 9 view .LVU1707
	movq	%rax, 40(%rsp)
.LVL575:
	.loc 1 1173 3 is_stmt 1 view .LVU1708
	.loc 1 1173 9 is_stmt 0 view .LVU1709
	movq	24(%rbp), %rax
.LVL576:
	.loc 1 1173 9 view .LVU1710
	movq	%rax, 32(%rsp)
.LVL577:
	.loc 1 1174 3 is_stmt 1 view .LVU1711
	.loc 1 1175 3 view .LVU1712
	.loc 1 1176 3 view .LVU1713
	.loc 1 1177 3 view .LVU1714
	.loc 1 1179 3 view .LVU1715
	.loc 1 1179 6 is_stmt 0 view .LVU1716
	jne	.L433
	.loc 1 1179 24 view .LVU1717
	movzbl	49(%rbp), %eax
.LVL578:
	.loc 1 1179 24 view .LVU1718
	movl	%eax, %r14d
	.loc 1 1179 18 view .LVU1719
	testb	%al, %al
	je	.L434
.LBB612:
	.loc 1 1184 11 view .LVU1720
	call	__ctype_b_loc@PLT
.LVL579:
	.loc 1 1184 11 view .LVU1721
.LBE612:
	.loc 1 1169 10 view .LVU1722
	xorl	%esi, %esi
	.loc 1 1168 10 view .LVU1723
	xorl	%r8d, %r8d
	movq	(%rax), %rdx
	leaq	512(%rdx), %r9
.LVL580:
	.p2align 4,,10
	.p2align 3
.L437:
.LBB613:
	.loc 1 1184 7 is_stmt 1 view .LVU1724
	.loc 1 1184 11 is_stmt 0 view .LVU1725
	movzwl	(%rdx), %eax
	.loc 1 1184 10 view .LVU1726
	movl	%eax, %ecx
	andw	$256, %cx
	.loc 1 1185 16 view .LVU1727
	cmpw	$1, %cx
	sbbq	$-1, %r8
.LVL581:
	.loc 1 1186 7 is_stmt 1 view .LVU1728
	.loc 1 1186 10 is_stmt 0 view .LVU1729
	andw	$512, %ax
	.loc 1 1187 16 view .LVU1730
	cmpw	$1, %ax
	sbbq	$-1, %rsi
.LVL582:
	.loc 1 1182 32 is_stmt 1 view .LVU1731
	.loc 1 1182 19 view .LVU1732
	addq	$2, %rdx
	.loc 1 1182 3 is_stmt 0 view .LVU1733
	cmpq	%r9, %rdx
	jne	.L437
.LBE613:
	.loc 1 1174 24 view .LVU1734
	movq	104(%rsp), %rax
.LBB614:
	.loc 1 1213 68 view .LVU1735
	leaq	-1(%rsi), %rdx
.LBE614:
	.loc 1 1176 8 view .LVU1736
	movb	%r14b, 8(%rsp)
	movl	%r14d, %r13d
	.loc 1 1191 13 view .LVU1737
	movq	$-2, 16(%rbp)
	leaq	88(%rsp), %r14
	.loc 1 1174 24 view .LVU1738
	movq	%rax, 48(%rsp)
	.loc 1 1175 24 view .LVU1739
	movq	8(%rbp), %rax
.LBB622:
	.loc 1 1213 68 view .LVU1740
	movl	%r15d, 68(%rsp)
	movq	%rbp, %r15
.LVL583:
	.loc 1 1213 68 view .LVU1741
.LBE622:
	.loc 1 1175 24 view .LVU1742
	movq	%rax, 56(%rsp)
	.loc 1 1190 3 is_stmt 1 view .LVU1743
	leaq	92(%rsp), %rax
	.loc 1 1190 13 is_stmt 0 view .LVU1744
	movq	$-2, 112(%rsp)
	.loc 1 1191 3 is_stmt 1 view .LVU1745
	.loc 1 1193 3 view .LVU1746
	.loc 1 1193 9 view .LVU1747
.LBB623:
	.loc 1 1213 68 is_stmt 0 view .LVU1748
	movq	%rax, %rbp
	movq	%rdx, 16(%rsp)
	movq	%rbx, 72(%rsp)
	movq	%r8, 24(%rsp)
	jmp	.L446
.LVL584:
.L623:
	.loc 1 1202 26 view .LVU1749
	cmpl	$2, %esi
	je	.L439
	.loc 1 1203 11 view .LVU1750
	cmpb	$0, 8(%rsp)
	je	.L440
	.loc 1 1203 14 view .LVU1751
	cmpl	$2, 88(%rsp)
	je	.L440
.L441:
	.loc 1 1210 11 is_stmt 1 view .LVU1752
.LBB615:
.LBI615:
	.loc 1 994 1 view .LVU1753
.LVL585:
.LBB616:
	.loc 1 996 3 view .LVU1754
	.loc 1 996 20 is_stmt 0 view .LVU1755
	movq	104(%rsp), %rcx
.LBE616:
.LBE615:
	.loc 1 1213 68 view .LVU1756
	cmpl	$1, 88(%rsp)
	movq	16(%rsp), %rdi
.LBB618:
.LBB617:
	.loc 1 996 20 view .LVU1757
	movq	8(%rcx), %rcx
	.loc 1 997 12 view .LVU1758
	movq	$-1, 112(%rsp)
	.loc 1 996 11 view .LVU1759
	movq	%rcx, 104(%rsp)
	.loc 1 997 3 is_stmt 1 view .LVU1760
.LBE617:
.LBE618:
	.loc 1 1211 11 view .LVU1761
.LVL586:
.LBB619:
.LBI619:
	.loc 1 994 1 view .LVU1762
.LBB620:
	.loc 1 996 3 view .LVU1763
	.loc 1 996 20 is_stmt 0 view .LVU1764
	movq	8(%r15), %rcx
	movq	8(%rcx), %rcx
	.loc 1 997 12 view .LVU1765
	movq	$-1, 16(%r15)
	.loc 1 996 11 view .LVU1766
	movq	%rcx, 8(%r15)
	.loc 1 997 3 is_stmt 1 view .LVU1767
.LBE620:
.LBE619:
	.loc 1 1213 11 view .LVU1768
	.loc 1 1213 22 is_stmt 0 view .LVU1769
	movq	120(%rsp), %rcx
	.loc 1 1213 68 view .LVU1770
	jne	.L443
	movq	24(%rsp), %rdx
	leaq	-1(%rdx), %rdi
.L443:
	.loc 1 1213 22 view .LVU1771
	subq	%rdi, %rcx
	.loc 1 1214 68 view .LVU1772
	subl	$1, %esi
	movq	16(%rsp), %rdi
	.loc 1 1213 22 view .LVU1773
	movq	%rcx, 120(%rsp)
	.loc 1 1214 11 is_stmt 1 view .LVU1774
	.loc 1 1214 22 is_stmt 0 view .LVU1775
	movq	24(%r15), %rcx
	.loc 1 1214 68 view .LVU1776
	jne	.L445
	movq	24(%rsp), %rdx
	leaq	-1(%rdx), %rdi
.L445:
	.loc 1 1214 22 view .LVU1777
	subq	%rdi, %rcx
	movq	%rcx, 24(%r15)
.L439:
	.loc 1 1217 7 is_stmt 1 view .LVU1778
	.loc 1 1218 7 view .LVU1779
	.loc 1 1217 22 is_stmt 0 view .LVU1780
	cmpq	$-1, 112(%rsp)
	sete	8(%rsp)
.LVL587:
	.loc 1 1218 22 view .LVU1781
	cmpq	$-1, 16(%r15)
	sete	%r13b
.LVL588:
	.loc 1 1218 22 view .LVU1782
.LBE623:
	.loc 1 1193 9 is_stmt 1 view .LVU1783
	addl	$1, %ebx
.LVL589:
	.loc 1 1193 9 is_stmt 0 view .LVU1784
	je	.L505
	.loc 1 1193 9 view .LVU1785
	addl	$1, %eax
.LVL590:
	.loc 1 1193 9 view .LVU1786
	je	.L505
.LVL591:
.L446:
.LBB624:
	.loc 1 1195 7 is_stmt 1 view .LVU1787
	.loc 1 1197 7 view .LVU1788
	.loc 1 1197 12 is_stmt 0 view .LVU1789
	movq	%r14, %rsi
	movq	%r12, %rdi
	call	get_next
.LVL592:
	.loc 1 1198 12 view .LVU1790
	movq	%rbp, %rsi
	movq	%r15, %rdi
	.loc 1 1197 12 view .LVU1791
	movl	%eax, %ebx
.LVL593:
	.loc 1 1198 7 is_stmt 1 view .LVU1792
	.loc 1 1198 12 is_stmt 0 view .LVU1793
	call	get_next
.LVL594:
	.loc 1 1202 7 is_stmt 1 view .LVU1794
	.loc 1 1202 38 is_stmt 0 view .LVU1795
	movl	92(%rsp), %esi
	.loc 1 1202 10 view .LVU1796
	testb	%r13b, %r13b
	jne	.L623
	.loc 1 1208 7 is_stmt 1 view .LVU1797
	.loc 1 1208 10 is_stmt 0 view .LVU1798
	cmpl	$2, %esi
	jne	.L441
	jmp	.L439
.LVL595:
.L482:
	.loc 1 1208 10 view .LVU1799
.LBE624:
.LBE626:
.LBE655:
.LBE670:
.LBE710:
.LBB711:
	.loc 1 1890 11 is_stmt 1 view .LVU1800
	addl	$1, %ebx
.LVL596:
	.loc 1 1890 11 is_stmt 0 view .LVU1801
	je	.L472
	.loc 1 1890 11 discriminator 1 view .LVU1802
	cmpb	$0, truncate_set1(%rip)
	jne	.L472
	.loc 1 1890 11 is_stmt 1 discriminator 2 view .LVU1803
	leaq	__PRETTY_FUNCTION__.7697(%rip), %rcx
	movl	$1890, %edx
	leaq	.LC10(%rip), %rsi
	leaq	.LC78(%rip), %rdi
	call	__assert_fail@PLT
.LVL597:
.L618:
	.loc 1 1890 11 is_stmt 0 discriminator 2 view .LVU1804
.LBE711:
	.loc 1 1894 11 is_stmt 1 view .LVU1805
	movq	%rbp, %rdi
	leaq	in_squeeze_set(%rip), %rdx
	xorl	%esi, %esi
	call	set_initialize
.LVL598:
	.loc 1 1895 11 view .LVU1806
	leaq	read_and_xlate(%rip), %rdi
	call	squeeze_filter.constprop.0
.LVL599:
	jmp	.L462
.LVL600:
.L615:
.LBB712:
	.loc 1 1826 11 view .LVU1807
	.loc 1 1828 11 view .LVU1808
	leaq	in_delete_set(%rip), %rdx
	xorl	%esi, %esi
	movq	%r12, %rdi
	call	set_initialize
.LVL601:
	.loc 1 1829 11 view .LVU1809
	.loc 1 1829 21 is_stmt 0 view .LVU1810
	movq	$-2, 16(%rbp)
	.loc 1 1830 11 is_stmt 1 view .LVU1811
.LBB713:
	.loc 1 1830 16 view .LVU1812
.LVL602:
	.loc 1 1830 27 view .LVU1813
.LBE713:
	.loc 1 1829 21 is_stmt 0 view .LVU1814
	xorl	%eax, %eax
.LVL603:
	.p2align 4,,10
	.p2align 3
.L468:
.LBB714:
	.loc 1 1831 13 is_stmt 1 discriminator 3 view .LVU1815
	.loc 1 1831 22 is_stmt 0 discriminator 3 view .LVU1816
	movb	%al, (%r15,%rax)
	.loc 1 1830 40 is_stmt 1 discriminator 3 view .LVU1817
.LVL604:
	.loc 1 1830 27 discriminator 3 view .LVU1818
	addq	$1, %rax
.LVL605:
	.loc 1 1830 11 is_stmt 0 discriminator 3 view .LVU1819
	cmpq	$256, %rax
	jne	.L468
	leaq	in_delete_set(%rip), %r12
.LVL606:
	.loc 1 1830 11 discriminator 3 view .LVU1820
	jmp	.L473
.LVL607:
.L469:
	.loc 1 1830 11 discriminator 3 view .LVU1821
.LBE714:
.LBB715:
	.loc 1 1832 40 is_stmt 1 discriminator 2 view .LVU1822
	.loc 1 1832 27 discriminator 2 view .LVU1823
	addq	$1, %rbx
.LVL608:
	.loc 1 1832 11 is_stmt 0 discriminator 2 view .LVU1824
	cmpq	$256, %rbx
	je	.L472
.L473:
.LVL609:
	.loc 1 1834 15 is_stmt 1 view .LVU1825
	.loc 1 1834 18 is_stmt 0 view .LVU1826
	cmpb	$0, (%r12,%rbx)
	jne	.L469
.LBB716:
	.loc 1 1836 19 is_stmt 1 view .LVU1827
	.loc 1 1836 28 is_stmt 0 view .LVU1828
	xorl	%esi, %esi
	movq	%rbp, %rdi
	call	get_next
.LVL610:
	.loc 1 1837 19 is_stmt 1 view .LVU1829
	cmpl	$-1, %eax
	je	.L624
	.loc 1 1838 19 view .LVU1830
	.loc 1 1844 19 view .LVU1831
	.loc 1 1844 28 is_stmt 0 view .LVU1832
	movb	%al, (%r15,%rbx)
	jmp	.L469
.L624:
	.loc 1 1837 19 discriminator 1 view .LVU1833
	cmpb	$0, truncate_set1(%rip)
	jne	.L472
	.loc 1 1837 19 is_stmt 1 discriminator 2 view .LVU1834
	leaq	__PRETTY_FUNCTION__.7697(%rip), %rcx
	movl	$1837, %edx
	leaq	.LC10(%rip), %rsi
	leaq	.LC77(%rip), %rdi
	call	__assert_fail@PLT
.LVL611:
.L433:
	.loc 1 1837 19 is_stmt 0 discriminator 2 view .LVU1835
.LBE716:
.LBE715:
.LBE712:
.LBB717:
.LBB671:
	.loc 1 1480 11 is_stmt 1 view .LVU1836
	.loc 1 1480 14 is_stmt 0 view .LVU1837
	movq	32(%rsp), %rdx
	cmpq	%rdx, 40(%rsp)
	jbe	.L490
	.loc 1 1482 15 is_stmt 1 view .LVU1838
	.loc 1 1482 18 is_stmt 0 view .LVU1839
	cmpb	$0, truncate_set1(%rip)
	jne	.L490
	jmp	.L493
.LVL612:
.L614:
	.loc 1 1482 18 view .LVU1840
.LBE671:
.LBE717:
	.loc 1 1805 7 is_stmt 1 view .LVU1841
	movzbl	complement(%rip), %esi
	leaq	in_delete_set(%rip), %rdx
	movq	%r12, %rdi
.LBB718:
	.loc 1 1809 23 is_stmt 0 view .LVU1842
	leaq	io_buf(%rip), %rbp
.LBE718:
	.loc 1 1805 7 view .LVU1843
	call	set_initialize
.LVL613:
	jmp	.L466
.LVL614:
.L626:
.LBB720:
	.loc 1 1812 11 is_stmt 1 view .LVU1844
	.loc 1 1812 15 is_stmt 0 view .LVU1845
	movq	stdout(%rip), %rcx
	movq	%rax, %rdx
	movl	$1, %esi
	movq	%rbp, %rdi
	call	fwrite_unlocked@PLT
.LVL615:
	.loc 1 1812 14 view .LVU1846
	cmpq	%rax, %rbx
	jne	.L625
.LVL616:
.L466:
	.loc 1 1812 14 view .LVU1847
.LBE720:
	.loc 1 1807 7 is_stmt 1 view .LVU1848
.LBB721:
	.loc 1 1809 11 view .LVU1849
	.loc 1 1809 23 is_stmt 0 view .LVU1850
	movl	$8192, %esi
	movq	%rbp, %rdi
	call	read_and_delete
.LVL617:
	movq	%rax, %rbx
.LVL618:
	.loc 1 1810 11 is_stmt 1 view .LVU1851
	.loc 1 1810 14 is_stmt 0 view .LVU1852
	testq	%rax, %rax
	jne	.L626
.LBE721:
	jmp	.L462
.LVL619:
.L610:
.LBB722:
.LBB672:
.LBB656:
.LBB644:
	.loc 1 1379 3 view .LVU1853
	cmpl	$2, %edx
	je	.L453
	cmpl	$4, %edx
	je	.L454
	jmp	.L588
.LVL620:
.L458:
	.loc 1 1379 3 view .LVU1854
.LBE644:
.LBE656:
.LBB657:
	.loc 1 1497 15 is_stmt 1 view .LVU1855
	movl	$5, %edx
	leaq	.LC75(%rip), %rsi
	xorl	%edi, %edi
	call	dcgettext@PLT
.LVL621:
	xorl	%esi, %esi
	movl	$1, %edi
	movq	%rax, %rdx
	xorl	%eax, %eax
	call	error@PLT
.LVL622:
.L604:
	.loc 1 1497 15 is_stmt 0 view .LVU1856
.LBE657:
.LBE672:
.LBE722:
	.loc 1 1768 7 is_stmt 1 view .LVU1857
	.loc 1 1768 62 is_stmt 0 view .LVU1858
	addl	%ecx, %eax
.LVL623:
	.loc 1 1768 62 view .LVU1859
	cltq
	.loc 1 1768 7 view .LVU1860
	movq	(%rbx,%rax,8), %rdi
	call	quote@PLT
.LVL624:
	.loc 1 1768 20 view .LVU1861
	movl	$5, %edx
	leaq	.LC65(%rip), %rsi
	xorl	%edi, %edi
	.loc 1 1768 7 view .LVU1862
	movq	%rax, %r12
	.loc 1 1768 20 view .LVU1863
	call	dcgettext@PLT
.LVL625:
	.loc 1 1768 7 view .LVU1864
	xorl	%esi, %esi
	movq	%r12, %rcx
	xorl	%edi, %edi
	.loc 1 1768 20 view .LVU1865
	movq	%rax, %rdx
	.loc 1 1768 7 view .LVU1866
	xorl	%eax, %eax
	call	error@PLT
.LVL626:
	.loc 1 1769 7 is_stmt 1 view .LVU1867
	.loc 1 1770 9 is_stmt 0 view .LVU1868
	movl	$5, %edx
	leaq	.LC66(%rip), %rsi
	.loc 1 1769 10 view .LVU1869
	cmpl	$2, %r15d
	jne	.L416
.L595:
	.loc 1 1757 11 view .LVU1870
	xorl	%edi, %edi
	call	dcgettext@PLT
.LVL627:
.LBB723:
.LBB724:
	.loc 3 100 10 view .LVU1871
	movq	stderr(%rip), %rdi
	movl	$1, %esi
	leaq	.LC64(%rip), %rdx
.LBE724:
.LBE723:
	.loc 1 1757 11 view .LVU1872
	movq	%rax, %rcx
.LVL628:
.LBB726:
.LBI723:
	.loc 3 98 1 is_stmt 1 view .LVU1873
.LBB725:
	.loc 3 100 3 view .LVU1874
	.loc 3 100 10 is_stmt 0 view .LVU1875
	xorl	%eax, %eax
	call	__fprintf_chk@PLT
.LVL629:
.L416:
	.loc 3 100 10 view .LVU1876
.LBE725:
.LBE726:
	.loc 1 1763 7 is_stmt 1 view .LVU1877
	movl	$1, %edi
	call	usage
.LVL630:
.L451:
.LBB727:
.LBB673:
.LBB658:
.LBB645:
.LBB639:
	.loc 1 1385 7 view .LVU1878
	.loc 1 1385 22 is_stmt 0 view .LVU1879
	movzbl	17(%rax), %r13d
.LVL631:
	.loc 1 1386 7 is_stmt 1 view .LVU1880
	jmp	.L456
.LVL632:
.L609:
	.loc 1 1386 7 is_stmt 0 view .LVU1881
.LBE639:
.LBE645:
.LBE658:
.LBB659:
	.loc 1 1488 21 is_stmt 1 view .LVU1882
	movl	$5, %edx
	leaq	.LC73(%rip), %rsi
	xorl	%edi, %edi
	call	dcgettext@PLT
.LVL633:
	xorl	%esi, %esi
	movl	$1, %edi
	movq	%rax, %rdx
	xorl	%eax, %eax
	call	error@PLT
.LVL634:
.L611:
	.loc 1 1488 21 is_stmt 0 view .LVU1883
.LBE659:
.LBB660:
.LBB646:
.LBB640:
.LBB636:
	call	append_repeated_char.part.0
.LVL635:
.L625:
	.loc 1 1488 21 view .LVU1884
.LBE636:
.LBE640:
.LBE646:
.LBE660:
.LBE673:
.LBE727:
.LBB728:
.LBB719:
	.loc 1 1813 13 is_stmt 1 view .LVU1885
	movl	$5, %edx
	leaq	.LC27(%rip), %rsi
	xorl	%edi, %edi
	call	dcgettext@PLT
.LVL636:
	movq	%rax, %r12
.LVL637:
	.loc 1 1813 13 is_stmt 0 view .LVU1886
	call	__errno_location@PLT
.LVL638:
	movq	%r12, %rdx
	movl	$1, %edi
	movl	(%rax), %esi
	xorl	%eax, %eax
	call	error@PLT
.LVL639:
.L448:
	.loc 1 1813 13 view .LVU1887
.LBE719:
.LBE728:
.LBB729:
.LBB674:
.LBB661:
.LBB627:
	.loc 1 1221 3 is_stmt 1 view .LVU1888
	leaq	__PRETTY_FUNCTION__.7484(%rip), %rcx
	movl	$1221, %edx
	leaq	.LC10(%rip), %rsi
	leaq	.LC72(%rip), %rdi
	call	__assert_fail@PLT
.LVL640:
.L619:
	.loc 1 1221 3 is_stmt 0 view .LVU1889
.LBE627:
.LBE661:
.LBE674:
.LBE729:
.LBB730:
.LBB706:
	.loc 1 1905 17 is_stmt 1 view .LVU1890
	movl	$5, %edx
	leaq	.LC27(%rip), %rsi
	xorl	%edi, %edi
	call	dcgettext@PLT
.LVL641:
	movq	%rax, %r12
	call	__errno_location@PLT
.LVL642:
	movq	%r12, %rdx
	movl	$1, %edi
	movl	(%rax), %esi
	xorl	%eax, %eax
	call	error@PLT
.LVL643:
.L453:
	.loc 1 1905 17 is_stmt 0 view .LVU1891
.LBE706:
.LBE730:
.LBB731:
.LBB675:
.LBB662:
.LBB647:
.LBB641:
	.loc 1 1392 7 is_stmt 1 view .LVU1892
	movl	$5, %edx
	leaq	.LC74(%rip), %rsi
	xorl	%edi, %edi
	call	dcgettext@PLT
.LVL644:
	.loc 1 1392 7 is_stmt 0 view .LVU1893
	xorl	%esi, %esi
	movl	$1, %edi
	movq	%rax, %rdx
	xorl	%eax, %eax
	call	error@PLT
.LVL645:
.L440:
	.loc 1 1392 7 view .LVU1894
.LBE641:
.LBE647:
.LBE662:
.LBB663:
.LBB628:
.LBB625:
.LBB621:
	.loc 1 1204 9 is_stmt 1 view .LVU1895
	movl	$5, %edx
	leaq	.LC71(%rip), %rsi
	xorl	%edi, %edi
	call	dcgettext@PLT
.LVL646:
	.loc 1 1204 9 is_stmt 0 view .LVU1896
	xorl	%esi, %esi
	movl	$1, %edi
	movq	%rax, %rdx
	xorl	%eax, %eax
	call	error@PLT
.LVL647:
.L622:
	.loc 1 1204 9 view .LVU1897
.LBE621:
.LBE625:
.LBE628:
.LBE663:
.LBB664:
	.loc 1 1473 15 is_stmt 1 view .LVU1898
	movl	$5, %edx
	leaq	.LC70(%rip), %rsi
	xorl	%edi, %edi
	call	dcgettext@PLT
.LVL648:
	xorl	%esi, %esi
	movl	$1, %edi
	movq	%rax, %rdx
	xorl	%eax, %eax
	call	error@PLT
.LVL649:
.L621:
.LBE664:
.LBB665:
	.loc 1 1466 15 view .LVU1899
	movl	$5, %edx
	leaq	.LC69(%rip), %rsi
	xorl	%edi, %edi
	call	dcgettext@PLT
.LVL650:
	xorl	%esi, %esi
	movl	$1, %edi
	movq	%rax, %rdx
	xorl	%eax, %eax
	call	error@PLT
.LVL651:
.L608:
.LBE665:
.LBB666:
	.loc 1 1458 11 view .LVU1900
	movl	$5, %edx
	leaq	.LC68(%rip), %rsi
	xorl	%edi, %edi
	call	dcgettext@PLT
.LVL652:
	xorl	%esi, %esi
	movl	$1, %edi
	movq	%rax, %rdx
	xorl	%eax, %eax
	call	error@PLT
.LVL653:
.L606:
.LBE666:
.LBB667:
	.loc 1 1448 7 view .LVU1901
	movl	$5, %edx
	leaq	.LC67(%rip), %rsi
	xorl	%edi, %edi
	call	dcgettext@PLT
.LVL654:
	xorl	%esi, %esi
	movl	$1, %edi
	movq	%rax, %rdx
	xorl	%eax, %eax
	call	error@PLT
.LVL655:
.L603:
	.loc 1 1448 7 is_stmt 0 view .LVU1902
.LBE667:
.LBE675:
.LBE731:
	.loc 1 1752 7 is_stmt 1 view .LVU1903
	.loc 1 1752 10 is_stmt 0 view .LVU1904
	testl	%r15d, %r15d
	jne	.L415
	.loc 1 1753 9 is_stmt 1 view .LVU1905
	.loc 1 1753 22 is_stmt 0 view .LVU1906
	xorl	%edi, %edi
	movl	$5, %edx
	leaq	.LC62(%rip), %rsi
	call	dcgettext@PLT
.LVL656:
	.loc 1 1753 9 view .LVU1907
	xorl	%esi, %esi
	xorl	%edi, %edi
	.loc 1 1753 22 view .LVU1908
	movq	%rax, %rdx
	.loc 1 1753 9 view .LVU1909
	xorl	%eax, %eax
	call	error@PLT
.LVL657:
	jmp	.L416
.LVL658:
.L613:
	.loc 1 1914 1 view .LVU1910
	call	__stack_chk_fail@PLT
.LVL659:
.L612:
.LBB732:
	.loc 1 1911 5 is_stmt 1 view .LVU1911
	movl	$5, %edx
	leaq	.LC79(%rip), %rsi
	xorl	%edi, %edi
	call	dcgettext@PLT
.LVL660:
	movq	%rax, %r12
	call	__errno_location@PLT
.LVL661:
	movq	%r12, %rdx
	movl	$1, %edi
	movl	(%rax), %esi
	xorl	%eax, %eax
	call	error@PLT
.LVL662:
.L415:
	.loc 1 1911 5 is_stmt 0 view .LVU1912
.LBE732:
	.loc 1 1756 11 is_stmt 1 view .LVU1913
	movq	-8(%rbx,%rbp,8), %rdi
	call	quote@PLT
.LVL663:
	.loc 1 1756 24 is_stmt 0 view .LVU1914
	xorl	%edi, %edi
	movl	$5, %edx
	leaq	.LC63(%rip), %rsi
	.loc 1 1756 11 view .LVU1915
	movq	%rax, %r12
	.loc 1 1756 24 view .LVU1916
	call	dcgettext@PLT
.LVL664:
	.loc 1 1756 11 view .LVU1917
	xorl	%esi, %esi
	xorl	%edi, %edi
	movq	%r12, %rcx
	.loc 1 1756 24 view .LVU1918
	movq	%rax, %rdx
	.loc 1 1756 11 view .LVU1919
	xorl	%eax, %eax
	call	error@PLT
.LVL665:
	.loc 1 1757 11 is_stmt 1 view .LVU1920
	cmpb	$0, squeeze_repeats(%rip)
	movl	$5, %edx
	leaq	.LC56(%rip), %rsi
	leaq	.LC57(%rip), %rax
	cmove	%rax, %rsi
	jmp	.L595
.LVL666:
	.loc 1 1757 11 is_stmt 0 view .LVU1921
	.cfi_endproc
	.section	.text.unlikely
	.cfi_startproc
	.type	main.cold, @function
main.cold:
.LFSB174:
.L588:
	.cfi_def_cfa_offset 560
	.cfi_offset 3, -56
	.cfi_offset 6, -48
	.cfi_offset 12, -40
	.cfi_offset 13, -32
	.cfi_offset 14, -24
	.cfi_offset 15, -16
.LBB733:
.LBB676:
.LBB668:
.LBB648:
.LBB642:
	.loc 1 1403 7 is_stmt 1 view .LVU438
	call	abort@PLT
.LVL667:
	.loc 1 1403 7 is_stmt 0 view .LVU1923
.LBE642:
.LBE648:
.LBE668:
.LBE676:
.LBE733:
	.cfi_endproc
.LFE174:
	.section	.text.startup
	.size	main, .-main
	.section	.text.unlikely
	.size	main.cold, .-main.cold
.LCOLDE80:
	.section	.text.startup
.LHOTE80:
	.section	.rodata
	.align 8
	.type	__PRETTY_FUNCTION__.7443, @object
	.size	__PRETTY_FUNCTION__.7443, 9
__PRETTY_FUNCTION__.7443:
	.string	"get_next"
	.align 16
	.type	__PRETTY_FUNCTION__.7484, @object
	.size	__PRETTY_FUNCTION__.7484, 22
__PRETTY_FUNCTION__.7484:
	.string	"validate_case_classes"
	.align 8
	.type	__PRETTY_FUNCTION__.7495, @object
	.size	__PRETTY_FUNCTION__.7495, 15
__PRETTY_FUNCTION__.7495:
	.string	"get_spec_stats"
	.align 16
	.type	__PRETTY_FUNCTION__.7333, @object
	.size	__PRETTY_FUNCTION__.7333, 19
__PRETTY_FUNCTION__.7333:
	.string	"append_normal_char"
	.align 8
	.type	__PRETTY_FUNCTION__.7342, @object
	.size	__PRETTY_FUNCTION__.7342, 13
__PRETTY_FUNCTION__.7342:
	.string	"append_range"
	.align 16
	.type	__PRETTY_FUNCTION__.7357, @object
	.size	__PRETTY_FUNCTION__.7357, 21
__PRETTY_FUNCTION__.7357:
	.string	"append_repeated_char"
	.align 16
	.type	__PRETTY_FUNCTION__.7364, @object
	.size	__PRETTY_FUNCTION__.7364, 19
__PRETTY_FUNCTION__.7364:
	.string	"append_equiv_class"
	.align 16
	.type	__PRETTY_FUNCTION__.7350, @object
	.size	__PRETTY_FUNCTION__.7350, 18
__PRETTY_FUNCTION__.7350:
	.string	"append_char_class"
	.type	__PRETTY_FUNCTION__.7697, @object
	.size	__PRETTY_FUNCTION__.7697, 5
__PRETTY_FUNCTION__.7697:
	.string	"main"
	.section	.rodata.str1.1
.LC81:
	.string	"complement"
.LC82:
	.string	"delete"
.LC83:
	.string	"squeeze-repeats"
.LC84:
	.string	"truncate-set1"
.LC85:
	.string	"help"
.LC86:
	.string	"version"
	.section	.data.rel.ro.local,"aw"
	.align 32
	.type	long_options, @object
	.size	long_options, 224
long_options:
	.quad	.LC81
	.long	0
	.zero	4
	.quad	0
	.long	99
	.zero	4
	.quad	.LC82
	.long	0
	.zero	4
	.quad	0
	.long	100
	.zero	4
	.quad	.LC83
	.long	0
	.zero	4
	.quad	0
	.long	115
	.zero	4
	.quad	.LC84
	.long	0
	.zero	4
	.quad	0
	.long	116
	.zero	4
	.quad	.LC85
	.long	0
	.zero	4
	.quad	0
	.long	-130
	.zero	4
	.quad	.LC86
	.long	0
	.zero	4
	.quad	0
	.long	-131
	.zero	4
	.quad	0
	.long	0
	.zero	4
	.quad	0
	.long	0
	.zero	4
	.local	xlate
	.comm	xlate,256,32
	.local	in_delete_set
	.comm	in_delete_set,256,32
	.local	in_squeeze_set
	.comm	in_squeeze_set,256,32
	.section	.rodata.str1.1
.LC87:
	.string	"alnum"
.LC88:
	.string	"alpha"
.LC89:
	.string	"blank"
.LC90:
	.string	"cntrl"
.LC91:
	.string	"digit"
.LC92:
	.string	"graph"
.LC93:
	.string	"lower"
.LC94:
	.string	"print"
.LC95:
	.string	"punct"
.LC96:
	.string	"space"
.LC97:
	.string	"upper"
.LC98:
	.string	"xdigit"
	.section	.data.rel.ro.local
	.align 32
	.type	char_class_name, @object
	.size	char_class_name, 96
char_class_name:
	.quad	.LC87
	.quad	.LC88
	.quad	.LC89
	.quad	.LC90
	.quad	.LC91
	.quad	.LC92
	.quad	.LC93
	.quad	.LC94
	.quad	.LC95
	.quad	.LC96
	.quad	.LC97
	.quad	.LC98
	.local	io_buf
	.comm	io_buf,8192,32
	.local	translating
	.comm	translating,1,1
	.local	truncate_set1
	.comm	truncate_set1,1,1
	.local	complement
	.comm	complement,1,1
	.local	delete
	.comm	delete,1,1
	.local	squeeze_repeats
	.comm	squeeze_repeats,1,1
	.text
.Letext0:
	.section	.text.unlikely
.Letext_cold0:
	.file 9 "/usr/lib/gcc/x86_64-linux-gnu/9/include/stddef.h"
	.file 10 "/usr/include/x86_64-linux-gnu/bits/types.h"
	.file 11 "/usr/include/x86_64-linux-gnu/bits/types/struct_FILE.h"
	.file 12 "/usr/include/x86_64-linux-gnu/bits/types/FILE.h"
	.file 13 "/usr/include/stdio.h"
	.file 14 "/usr/include/x86_64-linux-gnu/bits/sys_errlist.h"
	.file 15 "/usr/include/x86_64-linux-gnu/bits/types/time_t.h"
	.file 16 "./lib/sys/select.h"
	.file 17 "/usr/include/x86_64-linux-gnu/bits/getopt_core.h"
	.file 18 "/usr/include/x86_64-linux-gnu/bits/getopt_ext.h"
	.file 19 "/usr/include/time.h"
	.file 20 "/usr/include/signal.h"
	.file 21 "/usr/include/unistd.h"
	.file 22 "/usr/include/errno.h"
	.file 23 "src/version.h"
	.file 24 "./lib/exitfail.h"
	.file 25 "/usr/include/stdint.h"
	.file 26 "./lib/timespec.h"
	.file 27 "./lib/xalloc-oversized.h"
	.file 28 "./lib/version-etc.h"
	.file 29 "./lib/progname.h"
	.file 30 "./lib/quotearg.h"
	.file 31 "./lib/error.h"
	.file 32 "./lib/fadvise.h"
	.file 33 "./lib/quote.h"
	.file 34 "./lib/xstrtol.h"
	.file 35 "/usr/include/x86_64-linux-gnu/bits/stdio.h"
	.file 36 "/usr/include/libintl.h"
	.file 37 "/usr/include/assert.h"
	.file 38 "/usr/include/stdlib.h"
	.file 39 "/usr/include/locale.h"
	.file 40 "./lib/safe-read.h"
	.file 41 "/usr/include/string.h"
	.file 42 "<built-in>"
	.section	.note.GNU-stack,"",@progbits
	.section	.note.gnu.property,"a"
	.align 8
	.long	 1f - 0f
	.long	 4f - 1f
	.long	 5
0:
	.string	 "GNU"
1:
	.align 8
	.long	 0xc0000002
	.long	 3f - 2f
2:
	.long	 0x3
3:
	.align 8
4:
