	.file	"truncate.c"
	.text
.Ltext0:
	.section	.rodata.str1.1,"aMS",@progbits,1
.LC0:
	.string	"truncate"
.LC1:
	.string	" invocation"
.LC2:
	.string	""
	.section	.rodata.str1.8,"aMS",@progbits,1
	.align 8
.LC3:
	.string	"Try '%s --help' for more information.\n"
	.section	.rodata.str1.1
.LC4:
	.string	"Usage: %s OPTION... FILE...\n"
	.section	.rodata.str1.8
	.align 8
.LC5:
	.ascii	"Shrink or extend t"
	.string	"he size of each FILE to the specified size\n\nA FILE argument that does not exist is created.\n\nIf a FILE is larger than the specified size, the extra data is lost.\nIf a FILE is shorter, it is extended and the sparse extended part (hole)\nreads as zero bytes.\n"
	.align 8
.LC6:
	.string	"\nMandatory arguments to long options are mandatory for short options too.\n"
	.align 8
.LC7:
	.string	"  -c, --no-create        do not create any files\n"
	.align 8
.LC8:
	.string	"  -o, --io-blocks        treat SIZE as number of IO blocks instead of bytes\n"
	.align 8
.LC9:
	.string	"  -r, --reference=RFILE  base size on RFILE\n  -s, --size=SIZE        set or adjust the file size by SIZE bytes\n"
	.align 8
.LC10:
	.string	"      --help     display this help and exit\n"
	.align 8
.LC11:
	.string	"      --version  output version information and exit\n"
	.align 8
.LC12:
	.string	"\nThe SIZE argument is an integer and optional unit (example: 10K is 10*1024).\nUnits are K,M,G,T,P,E,Z,Y (powers of 1024) or KB,MB,... (powers of 1000).\nBinary prefixes can be used, too: KiB=K, MiB=M, and so on.\n"
	.align 8
.LC13:
	.string	"\nSIZE may also be prefixed by one of the following modifying characters:\n'+' extend by, '-' reduce by, '<' at most, '>' at least,\n'/' round down to multiple of, '%' round up to multiple of.\n"
	.section	.rodata.str1.1
.LC14:
	.string	"["
.LC15:
	.string	"test invocation"
.LC16:
	.string	"coreutils"
.LC17:
	.string	"Multi-call invocation"
.LC18:
	.string	"sha224sum"
.LC19:
	.string	"sha2 utilities"
.LC20:
	.string	"sha256sum"
.LC21:
	.string	"sha384sum"
.LC22:
	.string	"sha512sum"
.LC23:
	.string	"\n%s online help: <%s>\n"
	.section	.rodata.str1.8
	.align 8
.LC24:
	.string	"https://www.gnu.org/software/coreutils/"
	.section	.rodata.str1.1
.LC25:
	.string	"GNU coreutils"
.LC26:
	.string	"en_"
	.section	.rodata.str1.8
	.align 8
.LC27:
	.string	"Report any translation bugs to <https://translationproject.org/team/>\n"
	.section	.rodata.str1.1
.LC28:
	.string	"Full documentation <%s%s>\n"
	.section	.rodata.str1.8
	.align 8
.LC29:
	.string	"or available locally via: info '(coreutils) %s%s'\n"
	.text
	.p2align 4
	.globl	usage
	.type	usage, @function
usage:
.LVL0:
.LFB135:
	.file 1 "src/truncate.c"
	.loc 1 65 1 view -0
	.cfi_startproc
	.loc 1 65 1 is_stmt 0 view .LVU1
	endbr64
	pushq	%r13
	.cfi_def_cfa_offset 16
	.cfi_offset 13, -16
	.loc 1 67 5 view .LVU2
	movl	$5, %edx
	.loc 1 65 1 view .LVU3
	pushq	%r12
	.cfi_def_cfa_offset 24
	.cfi_offset 12, -24
	pushq	%rbp
	.cfi_def_cfa_offset 32
	.cfi_offset 6, -32
	movl	%edi, %ebp
	pushq	%rbx
	.cfi_def_cfa_offset 40
	.cfi_offset 3, -40
	subq	$136, %rsp
	.cfi_def_cfa_offset 176
	movq	program_name(%rip), %r12
	.loc 1 65 1 view .LVU4
	movq	%fs:40, %rax
	movq	%rax, 120(%rsp)
	xorl	%eax, %eax
	.loc 1 66 3 is_stmt 1 view .LVU5
	.loc 1 66 6 is_stmt 0 view .LVU6
	testl	%edi, %edi
	je	.L2
	.loc 1 67 5 is_stmt 1 view .LVU7
	.loc 1 67 5 view .LVU8
	leaq	.LC3(%rip), %rsi
	xorl	%edi, %edi
.LVL1:
	.loc 1 67 5 is_stmt 0 view .LVU9
	call	dcgettext@PLT
.LVL2:
.LBB76:
.LBB77:
	.file 2 "/usr/include/x86_64-linux-gnu/bits/stdio2.h"
	.loc 2 100 10 view .LVU10
	movq	stderr(%rip), %rdi
	movq	%r12, %rcx
	movl	$1, %esi
.LBE77:
.LBE76:
	.loc 1 67 5 view .LVU11
	movq	%rax, %rdx
.LVL3:
.LBB79:
.LBI76:
	.loc 2 98 1 is_stmt 1 view .LVU12
.LBB78:
	.loc 2 100 3 view .LVU13
	.loc 2 100 10 is_stmt 0 view .LVU14
	xorl	%eax, %eax
.LVL4:
	.loc 2 100 10 view .LVU15
	call	__fprintf_chk@PLT
.LVL5:
.L3:
	.loc 2 100 10 view .LVU16
.LBE78:
.LBE79:
	.loc 1 101 3 is_stmt 1 view .LVU17
	movl	%ebp, %edi
	call	exit@PLT
.LVL6:
.L2:
	.loc 1 70 7 view .LVU18
	.loc 1 70 15 is_stmt 0 view .LVU19
	leaq	.LC4(%rip), %rsi
	xorl	%edi, %edi
.LVL7:
.LBB80:
.LBB81:
	.file 3 "src/system.h"
	.loc 3 636 67 view .LVU20
	leaq	.LC20(%rip), %rbx
.LBE81:
.LBE80:
	.loc 1 70 15 view .LVU21
	call	dcgettext@PLT
.LVL8:
.LBB107:
.LBB108:
	.loc 2 107 10 view .LVU22
	movq	%r12, %rdx
	movl	$1, %edi
.LBE108:
.LBE107:
	.loc 1 70 15 view .LVU23
	movq	%rax, %rsi
.LVL9:
.LBB110:
.LBI107:
	.loc 2 105 1 is_stmt 1 view .LVU24
.LBB109:
	.loc 2 107 3 view .LVU25
	.loc 2 107 10 is_stmt 0 view .LVU26
	xorl	%eax, %eax
.LVL10:
	.loc 2 107 10 view .LVU27
	call	__printf_chk@PLT
.LVL11:
	.loc 2 107 10 view .LVU28
.LBE109:
.LBE110:
	.loc 1 71 7 is_stmt 1 view .LVU29
	movq	stdout(%rip), %r12
	movl	$5, %edx
	xorl	%edi, %edi
	leaq	.LC5(%rip), %rsi
	call	dcgettext@PLT
.LVL12:
	movq	%r12, %rsi
	movq	%rax, %rdi
	call	fputs_unlocked@PLT
.LVL13:
	.loc 1 81 7 view .LVU30
.LBB111:
.LBI111:
	.loc 3 588 1 view .LVU31
.LBB112:
	.loc 3 590 3 view .LVU32
	movq	stdout(%rip), %r12
	movl	$5, %edx
	xorl	%edi, %edi
	leaq	.LC6(%rip), %rsi
	call	dcgettext@PLT
.LVL14:
	movq	%r12, %rsi
	movq	%rax, %rdi
	call	fputs_unlocked@PLT
.LVL15:
.LBE112:
.LBE111:
	.loc 1 83 7 view .LVU33
	movq	stdout(%rip), %r12
	movl	$5, %edx
	xorl	%edi, %edi
	leaq	.LC7(%rip), %rsi
	call	dcgettext@PLT
.LVL16:
	movq	%r12, %rsi
	movq	%rax, %rdi
	call	fputs_unlocked@PLT
.LVL17:
	.loc 1 86 7 view .LVU34
	movq	stdout(%rip), %r12
	movl	$5, %edx
	xorl	%edi, %edi
	leaq	.LC8(%rip), %rsi
	call	dcgettext@PLT
.LVL18:
	movq	%r12, %rsi
	movq	%rax, %rdi
	call	fputs_unlocked@PLT
.LVL19:
	.loc 1 89 7 view .LVU35
	movq	stdout(%rip), %r12
	movl	$5, %edx
	xorl	%edi, %edi
	leaq	.LC9(%rip), %rsi
	call	dcgettext@PLT
.LVL20:
	movq	%r12, %rsi
	movq	%rax, %rdi
	call	fputs_unlocked@PLT
.LVL21:
	.loc 1 92 7 view .LVU36
	movq	stdout(%rip), %r12
	movl	$5, %edx
	xorl	%edi, %edi
	leaq	.LC10(%rip), %rsi
	call	dcgettext@PLT
.LVL22:
	movq	%r12, %rsi
	movq	%rax, %rdi
	call	fputs_unlocked@PLT
.LVL23:
	.loc 1 93 7 view .LVU37
	movq	stdout(%rip), %r12
	movl	$5, %edx
	xorl	%edi, %edi
	leaq	.LC11(%rip), %rsi
	call	dcgettext@PLT
.LVL24:
	movq	%r12, %rsi
	movq	%rax, %rdi
	call	fputs_unlocked@PLT
.LVL25:
	.loc 1 94 7 view .LVU38
.LBB113:
.LBI113:
	.loc 3 596 1 view .LVU39
.LBB114:
	.loc 3 598 3 view .LVU40
	movq	stdout(%rip), %r12
	movl	$5, %edx
	xorl	%edi, %edi
	leaq	.LC12(%rip), %rsi
	call	dcgettext@PLT
.LVL26:
	movq	%r12, %rsi
	movq	%rax, %rdi
	call	fputs_unlocked@PLT
.LVL27:
.LBE114:
.LBE113:
	.loc 1 95 7 view .LVU41
	movq	stdout(%rip), %r12
	movl	$5, %edx
	xorl	%edi, %edi
	leaq	.LC13(%rip), %rsi
	call	dcgettext@PLT
.LVL28:
	movq	%r12, %rsi
	movq	%rax, %rdi
	call	fputs_unlocked@PLT
.LVL29:
	.loc 1 99 7 view .LVU42
.LBB115:
.LBI80:
	.loc 3 634 1 view .LVU43
.LBB106:
	.loc 3 636 3 view .LVU44
	.loc 3 636 67 is_stmt 0 view .LVU45
	leaq	.LC14(%rip), %rax
	movq	%rbx, 48(%rsp)
	leaq	.LC21(%rip), %rbx
	movq	%rax, (%rsp)
	leaq	.LC15(%rip), %rax
	movq	%rax, 8(%rsp)
	leaq	.LC16(%rip), %rax
	movq	%rax, 16(%rsp)
	leaq	.LC17(%rip), %rax
	movq	%rax, 24(%rsp)
	leaq	.LC18(%rip), %rax
	movq	$0, 96(%rsp)
	movq	$0, 104(%rsp)
	.loc 3 646 3 is_stmt 1 view .LVU46
.LVL30:
	.loc 3 647 3 view .LVU47
	.loc 3 649 3 view .LVU48
	.loc 3 649 9 view .LVU49
	.loc 3 636 67 is_stmt 0 view .LVU50
	movq	%rax, 32(%rsp)
	leaq	.LC19(%rip), %rax
	movq	%rbx, 64(%rsp)
	leaq	.LC22(%rip), %rbx
	movq	%rax, 40(%rsp)
	movq	%rax, 56(%rsp)
	movq	%rax, 72(%rsp)
	movq	%rbx, 80(%rsp)
	leaq	.LC0(%rip), %rbx
	movq	%rax, 88(%rsp)
	.loc 3 647 25 view .LVU51
	movq	%rsp, %rax
.LVL31:
	.p2align 4,,10
	.p2align 3
.L5:
	.loc 3 650 5 is_stmt 1 view .LVU52
	.loc 3 649 18 is_stmt 0 view .LVU53
	movq	16(%rax), %rdi
	.loc 3 650 13 view .LVU54
	addq	$16, %rax
.LVL32:
	.loc 3 649 9 is_stmt 1 view .LVU55
	testq	%rdi, %rdi
	je	.L4
	.loc 3 649 33 is_stmt 0 view .LVU56
	movl	$9, %ecx
	movq	%rbx, %rsi
	repz cmpsb
	seta	%dl
	sbbb	$0, %dl
	.loc 3 649 28 view .LVU57
	testb	%dl, %dl
	jne	.L5
.L4:
	.loc 3 652 3 is_stmt 1 view .LVU58
	.loc 3 652 15 is_stmt 0 view .LVU59
	movq	8(%rax), %r12
	.loc 3 655 11 view .LVU60
	movl	$5, %edx
	leaq	.LC23(%rip), %rsi
	xorl	%edi, %edi
	.loc 3 652 6 view .LVU61
	testq	%r12, %r12
	je	.L6
	.loc 3 653 5 is_stmt 1 view .LVU62
.LVL33:
	.loc 3 655 3 view .LVU63
	.loc 3 655 11 is_stmt 0 view .LVU64
	call	dcgettext@PLT
.LVL34:
.LBB82:
.LBB83:
	.loc 2 107 10 view .LVU65
	leaq	.LC24(%rip), %rcx
	movl	$1, %edi
	leaq	.LC25(%rip), %rdx
.LBE83:
.LBE82:
	.loc 3 655 11 view .LVU66
	movq	%rax, %rsi
.LVL35:
.LBB87:
.LBI82:
	.loc 2 105 1 is_stmt 1 view .LVU67
.LBB84:
	.loc 2 107 3 view .LVU68
	.loc 2 107 10 is_stmt 0 view .LVU69
	xorl	%eax, %eax
.LVL36:
	.loc 2 107 10 view .LVU70
	call	__printf_chk@PLT
.LVL37:
	.loc 2 107 10 view .LVU71
.LBE84:
.LBE87:
	.loc 3 659 3 is_stmt 1 view .LVU72
	.loc 3 659 29 is_stmt 0 view .LVU73
	movl	$5, %edi
	xorl	%esi, %esi
	call	setlocale@PLT
.LVL38:
	movq	%rax, %rdi
.LVL39:
	.loc 3 660 3 is_stmt 1 view .LVU74
	.loc 3 660 6 is_stmt 0 view .LVU75
	testq	%rax, %rax
	je	.L7
	.loc 3 660 22 view .LVU76
	movl	$3, %edx
	leaq	.LC26(%rip), %rsi
	call	strncmp@PLT
.LVL40:
	.loc 3 660 19 view .LVU77
	testl	%eax, %eax
	jne	.L10
.LVL41:
.L7:
	.loc 3 669 3 is_stmt 1 view .LVU78
	.loc 3 669 11 is_stmt 0 view .LVU79
	xorl	%edi, %edi
	movl	$5, %edx
	leaq	.LC28(%rip), %rsi
	call	dcgettext@PLT
.LVL42:
.LBB88:
.LBB89:
	.loc 2 107 10 view .LVU80
	leaq	.LC0(%rip), %rcx
	leaq	.LC24(%rip), %rdx
	movl	$1, %edi
.LBE89:
.LBE88:
	.loc 3 669 11 view .LVU81
	movq	%rax, %rsi
.LVL43:
.LBB95:
.LBI88:
	.loc 2 105 1 is_stmt 1 view .LVU82
.LBB90:
	.loc 2 107 3 view .LVU83
	.loc 2 107 10 is_stmt 0 view .LVU84
	xorl	%eax, %eax
.LVL44:
	.loc 2 107 10 view .LVU85
.LBE90:
.LBE95:
	.loc 3 671 3 view .LVU86
	leaq	.LC1(%rip), %r13
.LBB96:
.LBB91:
	.loc 2 107 10 view .LVU87
	call	__printf_chk@PLT
.LVL45:
	.loc 2 107 10 view .LVU88
.LBE91:
.LBE96:
	.loc 3 671 3 is_stmt 1 view .LVU89
	cmpq	%rbx, %r12
	leaq	.LC2(%rip), %rcx
	cmovne	%rcx, %r13
.L8:
	.loc 3 671 11 is_stmt 0 view .LVU90
	xorl	%edi, %edi
	leaq	.LC29(%rip), %rsi
	movl	$5, %edx
	call	dcgettext@PLT
.LVL46:
.LBB97:
.LBB98:
	.loc 2 107 10 view .LVU91
	movq	%r13, %rcx
	movq	%r12, %rdx
	movl	$1, %edi
.LBE98:
.LBE97:
	.loc 3 671 11 view .LVU92
	movq	%rax, %rsi
.LVL47:
.LBB100:
.LBI97:
	.loc 2 105 1 is_stmt 1 view .LVU93
.LBB99:
	.loc 2 107 3 view .LVU94
	.loc 2 107 10 is_stmt 0 view .LVU95
	xorl	%eax, %eax
.LVL48:
	.loc 2 107 10 view .LVU96
	call	__printf_chk@PLT
.LVL49:
	.loc 2 107 10 view .LVU97
.LBE99:
.LBE100:
	.loc 3 673 1 view .LVU98
	jmp	.L3
.LVL50:
.L6:
	.loc 3 655 3 is_stmt 1 view .LVU99
	.loc 3 655 11 is_stmt 0 view .LVU100
	call	dcgettext@PLT
.LVL51:
.LBB101:
.LBB85:
	.loc 2 107 10 view .LVU101
	leaq	.LC24(%rip), %rcx
	movl	$1, %edi
	leaq	.LC25(%rip), %rdx
.LBE85:
.LBE101:
	.loc 3 655 11 view .LVU102
	movq	%rax, %rsi
.LVL52:
.LBB102:
	.loc 2 105 1 is_stmt 1 view .LVU103
.LBB86:
	.loc 2 107 3 view .LVU104
	.loc 2 107 10 is_stmt 0 view .LVU105
	xorl	%eax, %eax
.LVL53:
	.loc 2 107 10 view .LVU106
	call	__printf_chk@PLT
.LVL54:
	.loc 2 107 10 view .LVU107
.LBE86:
.LBE102:
	.loc 3 659 3 is_stmt 1 view .LVU108
	.loc 3 659 29 is_stmt 0 view .LVU109
	movl	$5, %edi
	xorl	%esi, %esi
	call	setlocale@PLT
.LVL55:
	movq	%rax, %rdi
.LVL56:
	.loc 3 660 3 is_stmt 1 view .LVU110
	.loc 3 660 6 is_stmt 0 view .LVU111
	testq	%rax, %rax
	je	.L9
	.loc 3 660 22 view .LVU112
	movl	$3, %edx
	leaq	.LC26(%rip), %rsi
	call	strncmp@PLT
.LVL57:
	.loc 3 660 19 view .LVU113
	testl	%eax, %eax
	jne	.L29
.L9:
	.loc 3 669 3 is_stmt 1 view .LVU114
	.loc 3 669 11 is_stmt 0 view .LVU115
	movl	$5, %edx
	leaq	.LC28(%rip), %rsi
	xorl	%edi, %edi
	call	dcgettext@PLT
.LVL58:
.LBB103:
.LBB92:
	.loc 2 107 10 view .LVU116
	leaq	.LC0(%rip), %rcx
	leaq	.LC24(%rip), %rdx
	movl	$1, %edi
.LBE92:
.LBE103:
	.loc 3 669 11 view .LVU117
	movq	%rax, %rsi
.LVL59:
.LBB104:
	.loc 2 105 1 is_stmt 1 view .LVU118
.LBB93:
	.loc 2 107 3 view .LVU119
	.loc 2 107 10 is_stmt 0 view .LVU120
	xorl	%eax, %eax
.LVL60:
	.loc 2 107 10 view .LVU121
.LBE93:
.LBE104:
	.loc 3 646 15 view .LVU122
	leaq	.LC0(%rip), %r12
.LBB105:
.LBB94:
	.loc 2 107 10 view .LVU123
	call	__printf_chk@PLT
.LVL61:
	.loc 2 107 10 view .LVU124
.LBE94:
.LBE105:
	.loc 3 671 3 is_stmt 1 view .LVU125
	leaq	.LC1(%rip), %r13
	jmp	.L8
.L29:
	.loc 3 646 15 is_stmt 0 view .LVU126
	leaq	.LC0(%rip), %r12
.LVL62:
.L10:
	.loc 3 666 7 is_stmt 1 view .LVU127
	movq	stdout(%rip), %r13
	xorl	%edi, %edi
	movl	$5, %edx
	leaq	.LC27(%rip), %rsi
	call	dcgettext@PLT
.LVL63:
	movq	%rax, %rdi
	movq	%r13, %rsi
	call	fputs_unlocked@PLT
.LVL64:
	jmp	.L7
.LBE106:
.LBE115:
	.cfi_endproc
.LFE135:
	.size	usage, .-usage
	.section	.rodata.str1.1
.LC30:
	.string	"/usr/local/share/locale"
	.section	.rodata.str1.8
	.align 8
.LC31:
	.string	"multiple relative modifiers specified"
	.section	.rodata.str1.1
.LC32:
	.string	"Invalid number"
.LC33:
	.string	"EgGkKmMPtTYZ0"
.LC34:
	.string	"division by zero"
.LC35:
	.string	"Padraig Brady"
.LC36:
	.string	"cor:s:"
.LC37:
	.string	"--reference"
.LC38:
	.string	"--size"
	.section	.rodata.str1.8
	.align 8
.LC39:
	.string	"you must specify either %s or %s"
	.align 8
.LC40:
	.string	"you must specify a relative %s with %s"
	.section	.rodata.str1.1
.LC41:
	.string	"--io-blocks"
	.section	.rodata.str1.8
	.align 8
.LC42:
	.string	"%s was specified but %s was not"
	.section	.rodata.str1.1
.LC43:
	.string	"missing file operand"
.LC44:
	.string	"cannot stat %s"
.LC45:
	.string	"cannot get the size of %s"
.LC46:
	.string	"cannot open %s for writing"
.LC47:
	.string	"cannot fstat %s"
	.section	.rodata.str1.8
	.align 8
.LC48:
	.string	"overflow in %ld * %ld byte blocks for file %s"
	.align 8
.LC49:
	.string	"%s has unusable, apparently negative size"
	.align 8
.LC50:
	.string	"overflow extending size of file %s"
	.align 8
.LC51:
	.string	"failed to truncate %s at %ld bytes"
	.section	.rodata.str1.1
.LC52:
	.string	"failed to close %s"
	.section	.text.startup,"ax",@progbits
	.p2align 4
	.globl	main
	.type	main, @function
main:
.LVL65:
.LFB137:
	.loc 1 203 1 view -0
	.cfi_startproc
	.loc 1 203 1 is_stmt 0 view .LVU129
	endbr64
	pushq	%r15
	.cfi_def_cfa_offset 16
	.cfi_offset 15, -16
	pushq	%r14
	.cfi_def_cfa_offset 24
	.cfi_offset 14, -24
	movl	%edi, %r14d
	pushq	%r13
	.cfi_def_cfa_offset 32
	.cfi_offset 13, -32
	.loc 1 204 8 view .LVU130
	xorl	%r13d, %r13d
	.loc 1 203 1 view .LVU131
	pushq	%r12
	.cfi_def_cfa_offset 40
	.cfi_offset 12, -40
	movq	%rsi, %r12
	pushq	%rbp
	.cfi_def_cfa_offset 48
	.cfi_offset 6, -48
	.loc 1 208 14 view .LVU132
	xorl	%ebp, %ebp
	.loc 1 203 1 view .LVU133
	pushq	%rbx
	.cfi_def_cfa_offset 56
	.cfi_offset 3, -56
	.loc 1 206 9 view .LVU134
	xorl	%ebx, %ebx
	.loc 1 203 1 view .LVU135
	subq	$232, %rsp
	.cfi_def_cfa_offset 288
	.loc 1 213 3 view .LVU136
	movq	(%rsi), %rdi
.LVL66:
	.loc 1 203 1 view .LVU137
	movq	%fs:40, %rax
	movq	%rax, 216(%rsp)
	xorl	%eax, %eax
	.loc 1 204 3 is_stmt 1 view .LVU138
.LVL67:
	.loc 1 205 3 view .LVU139
	.loc 1 206 3 view .LVU140
	.loc 1 207 3 view .LVU141
	.loc 1 208 3 view .LVU142
	.loc 1 209 3 view .LVU143
	.loc 1 210 3 view .LVU144
	.loc 1 212 33 view .LVU145
	.loc 1 213 3 view .LVU146
	call	set_program_name@PLT
.LVL68:
	.loc 1 214 3 view .LVU147
	leaq	.LC2(%rip), %rsi
	movl	$6, %edi
	call	setlocale@PLT
.LVL69:
	.loc 1 215 3 view .LVU148
	leaq	.LC30(%rip), %rsi
	leaq	.LC16(%rip), %rdi
	call	bindtextdomain@PLT
.LVL70:
	.loc 1 216 3 view .LVU149
	leaq	.LC16(%rip), %rdi
	call	textdomain@PLT
.LVL71:
	.loc 1 218 3 view .LVU150
	movq	close_stdout@GOTPCREL(%rip), %rdi
	call	atexit@PLT
.LVL72:
	.loc 1 220 3 view .LVU151
.L31:
	.loc 1 220 9 view .LVU152
	.loc 1 220 15 is_stmt 0 view .LVU153
	xorl	%r8d, %r8d
	leaq	longopts(%rip), %rcx
	movq	%r12, %rsi
	movl	%r14d, %edi
	leaq	.LC36(%rip), %rdx
	call	getopt_long@PLT
.LVL73:
	.loc 1 220 9 view .LVU154
	cmpl	$-1, %eax
	je	.L141
	.loc 1 222 7 is_stmt 1 view .LVU155
	cmpl	$111, %eax
	je	.L32
	jg	.L33
	cmpl	$-130, %eax
	je	.L34
	cmpl	$99, %eax
	jne	.L142
	.loc 1 225 11 view .LVU156
	.loc 1 225 21 is_stmt 0 view .LVU157
	movb	$1, no_create(%rip)
	.loc 1 226 11 is_stmt 1 view .LVU158
	jmp	.L31
	.p2align 4,,10
	.p2align 3
.L33:
	.loc 1 222 7 is_stmt 0 view .LVU159
	cmpl	$114, %eax
	jne	.L143
	.loc 1 233 11 is_stmt 1 view .LVU160
	.loc 1 233 20 is_stmt 0 view .LVU161
	movq	optarg(%rip), %rax
.LVL74:
	.loc 1 233 20 view .LVU162
	movq	%rax, ref_file(%rip)
	.loc 1 234 11 is_stmt 1 view .LVU163
	jmp	.L31
.LVL75:
	.p2align 4,,10
	.p2align 3
.L142:
	.loc 1 222 7 is_stmt 0 view .LVU164
	cmpl	$-131, %eax
	je	.L36
.LVL76:
.L139:
	.loc 1 299 7 is_stmt 1 view .LVU165
	movl	$1, %edi
	call	usage
.LVL77:
	.p2align 4,,10
	.p2align 3
.L143:
	.loc 1 222 7 is_stmt 0 view .LVU166
	cmpl	$115, %eax
	jne	.L139
	.loc 1 238 18 view .LVU167
	call	__ctype_b_loc@PLT
.LVL78:
	.loc 1 238 18 view .LVU168
	movq	(%rax), %rcx
	movq	optarg(%rip), %rax
	jmp	.L39
	.p2align 4,,10
	.p2align 3
.L41:
	.loc 1 239 13 is_stmt 1 view .LVU169
	.loc 1 239 19 is_stmt 0 view .LVU170
	movq	%rax, optarg(%rip)
.L39:
	.loc 1 238 18 view .LVU171
	movzbl	(%rax), %esi
	movq	%rax, %rdi
	.loc 1 238 17 is_stmt 1 view .LVU172
.LVL79:
.LBB143:
.LBI143:
	.loc 3 156 29 view .LVU173
.LBB144:
	.loc 3 156 50 view .LVU174
	.loc 3 156 50 is_stmt 0 view .LVU175
	addq	$1, %rax
.LBE144:
.LBE143:
	.loc 1 238 17 view .LVU176
	testb	$32, 1(%rcx,%rsi,2)
	jne	.L41
	.loc 1 240 11 is_stmt 1 view .LVU177
	cmpb	$60, %sil
	je	.L42
	jg	.L43
	cmpb	$37, %sil
	je	.L44
	cmpb	$47, %sil
	jne	.L46
	.loc 1 251 15 view .LVU178
.LVL80:
	.loc 1 252 15 view .LVU179
	.loc 1 252 21 is_stmt 0 view .LVU180
	addq	$1, %rdi
	.loc 1 251 24 view .LVU181
	movl	$4, %ebp
	.loc 1 252 21 view .LVU182
	movq	%rdi, optarg(%rip)
	.loc 1 253 15 is_stmt 1 view .LVU183
.LVL81:
	.p2align 4,,10
	.p2align 3
.L46:
	.loc 1 260 17 discriminator 1 view .LVU184
	.loc 1 260 18 is_stmt 0 discriminator 1 view .LVU185
	movq	optarg(%rip), %rax
	jmp	.L135
	.p2align 4,,10
	.p2align 3
.L48:
	.loc 1 261 13 is_stmt 1 view .LVU186
	.loc 1 261 19 is_stmt 0 view .LVU187
	movq	%rax, optarg(%rip)
	.loc 1 260 17 is_stmt 1 view .LVU188
.LVL82:
.LBB145:
.LBI145:
	.loc 3 156 29 view .LVU189
.LBB146:
	.loc 3 156 50 view .LVU190
.L135:
	.loc 3 156 50 is_stmt 0 view .LVU191
.LBE146:
	.loc 3 156 29 is_stmt 1 discriminator 1 view .LVU192
.LBB147:
	.loc 3 156 50 discriminator 1 view .LVU193
	.loc 3 156 57 is_stmt 0 discriminator 1 view .LVU194
	movzbl	(%rax), %esi
	addq	$1, %rax
.LVL83:
	.loc 3 156 57 discriminator 1 view .LVU195
	movq	%rsi, %rdx
.LVL84:
	.loc 3 156 57 discriminator 1 view .LVU196
.LBE147:
.LBE145:
	.loc 1 260 17 discriminator 1 view .LVU197
	testb	$32, 1(%rcx,%rsi,2)
	jne	.L48
	.loc 1 262 11 is_stmt 1 view .LVU198
	.loc 1 262 30 is_stmt 0 view .LVU199
	subl	$43, %edx
	.loc 1 262 14 view .LVU200
	andl	$253, %edx
	.loc 1 266 32 view .LVU201
	movl	$5, %edx
	.loc 1 262 14 view .LVU202
	jne	.L51
	.loc 1 264 15 is_stmt 1 view .LVU203
	.loc 1 264 18 is_stmt 0 view .LVU204
	testl	%ebp, %ebp
	jne	.L144
.LVL85:
	.loc 1 274 11 is_stmt 1 view .LVU205
	.loc 1 275 30 is_stmt 0 view .LVU206
	leaq	.LC32(%rip), %rsi
	xorl	%edi, %edi
	.loc 1 270 24 view .LVU207
	movl	$1, %ebp
	.loc 1 279 20 view .LVU208
	movl	$1, %r13d
.LVL86:
	.loc 1 275 30 view .LVU209
	call	dcgettext@PLT
.LVL87:
	.loc 1 274 18 view .LVU210
	movq	optarg(%rip), %rdi
	xorl	%r9d, %r9d
	movl	$1, %esi
	.loc 1 275 30 view .LVU211
	movq	%rax, %r8
	.loc 1 274 18 view .LVU212
	leaq	.LC33(%rip), %rcx
	salq	$63, %rsi
	movabsq	$9223372036854775807, %rdx
	call	xdectoimax@PLT
.LVL88:
	movq	%rax, %rbx
.LVL89:
	.loc 1 277 11 is_stmt 1 view .LVU213
	jmp	.L31
.LVL90:
	.p2align 4,,10
	.p2align 3
.L43:
	.loc 1 277 11 is_stmt 0 view .LVU214
	cmpb	$62, %sil
	jne	.L46
	.loc 1 247 15 is_stmt 1 view .LVU215
.LVL91:
	.loc 1 248 15 view .LVU216
	.loc 1 248 21 is_stmt 0 view .LVU217
	addq	$1, %rdi
	.loc 1 247 24 view .LVU218
	movl	$2, %ebp
	.loc 1 248 21 view .LVU219
	movq	%rdi, optarg(%rip)
	.loc 1 249 15 is_stmt 1 view .LVU220
	jmp	.L46
.LVL92:
	.p2align 4,,10
	.p2align 3
.L32:
	.loc 1 229 11 view .LVU221
	.loc 1 229 22 is_stmt 0 view .LVU222
	movb	$1, block_mode(%rip)
	.loc 1 230 11 is_stmt 1 view .LVU223
	jmp	.L31
	.p2align 4,,10
	.p2align 3
.L36:
	.loc 1 282 9 view .LVU224
	.loc 1 282 30 view .LVU225
	.loc 1 284 9 view .LVU226
	movq	stdout(%rip), %rdi
	movq	Version(%rip), %rcx
	xorl	%eax, %eax
.LVL93:
	.loc 1 284 9 is_stmt 0 view .LVU227
	xorl	%r9d, %r9d
	leaq	.LC35(%rip), %r8
	leaq	.LC25(%rip), %rdx
	leaq	.LC0(%rip), %rsi
	call	version_etc@PLT
.LVL94:
	.loc 1 284 9 is_stmt 1 view .LVU228
	xorl	%edi, %edi
	call	exit@PLT
.LVL95:
.L51:
	.loc 1 274 11 view .LVU229
	.loc 1 275 30 is_stmt 0 view .LVU230
	leaq	.LC32(%rip), %rsi
	xorl	%edi, %edi
	call	dcgettext@PLT
.LVL96:
	.loc 1 274 18 view .LVU231
	movq	optarg(%rip), %rdi
	xorl	%r9d, %r9d
	movl	$1, %esi
	.loc 1 275 30 view .LVU232
	movq	%rax, %r8
	.loc 1 274 18 view .LVU233
	leaq	.LC33(%rip), %rcx
	salq	$63, %rsi
	movabsq	$9223372036854775807, %rdx
	call	xdectoimax@PLT
.LVL97:
	movq	%rax, %rbx
.LVL98:
	.loc 1 277 11 is_stmt 1 view .LVU234
	.loc 1 277 35 is_stmt 0 view .LVU235
	leal	-4(%rbp), %eax
.LVL99:
	.loc 1 277 14 view .LVU236
	cmpl	$1, %eax
	ja	.L96
	.loc 1 277 58 discriminator 1 view .LVU237
	testq	%rbx, %rbx
	je	.L145
.L96:
	.loc 1 279 20 view .LVU238
	movl	$1, %r13d
.LVL100:
	.loc 1 279 20 view .LVU239
	jmp	.L31
.LVL101:
.L44:
	.loc 1 255 15 is_stmt 1 view .LVU240
	.loc 1 256 15 view .LVU241
	.loc 1 256 21 is_stmt 0 view .LVU242
	addq	$1, %rdi
	.loc 1 255 24 view .LVU243
	movl	$5, %ebp
	.loc 1 256 21 view .LVU244
	movq	%rdi, optarg(%rip)
	.loc 1 257 15 is_stmt 1 view .LVU245
	jmp	.L46
.LVL102:
.L42:
	.loc 1 243 15 view .LVU246
	.loc 1 244 15 view .LVU247
	.loc 1 244 21 is_stmt 0 view .LVU248
	addq	$1, %rdi
	.loc 1 243 24 view .LVU249
	movl	$3, %ebp
	.loc 1 244 21 view .LVU250
	movq	%rdi, optarg(%rip)
	.loc 1 245 15 is_stmt 1 view .LVU251
	jmp	.L46
.LVL103:
.L141:
	.loc 1 291 3 view .LVU252
	.loc 1 291 8 is_stmt 0 view .LVU253
	movslq	optind(%rip), %rdx
	.loc 1 295 7 view .LVU254
	movq	ref_file(%rip), %r15
	.loc 1 291 8 view .LVU255
	leaq	(%r12,%rdx,8), %r12
.LVL104:
	.loc 1 292 3 is_stmt 1 view .LVU256
	.loc 1 292 8 is_stmt 0 view .LVU257
	subl	%edx, %r14d
.LVL105:
	.loc 1 295 3 is_stmt 1 view .LVU258
	.loc 1 295 6 is_stmt 0 view .LVU259
	testq	%r15, %r15
	je	.L146
	.loc 1 302 3 is_stmt 1 discriminator 1 view .LVU260
	.loc 1 302 28 is_stmt 0 discriminator 1 view .LVU261
	testl	%ebp, %ebp
	jne	.L56
	testb	%r13b, %r13b
	je	.L56
	.loc 1 304 7 is_stmt 1 view .LVU262
	leaq	.LC37(%rip), %rsi
	movl	$1, %edi
	call	quote_n@PLT
.LVL106:
	.loc 1 304 7 is_stmt 0 view .LVU263
	leaq	.LC38(%rip), %rsi
	xorl	%edi, %edi
	movq	%rax, %rbx
.LVL107:
	.loc 1 304 7 view .LVU264
	call	quote_n@PLT
.LVL108:
	.loc 1 304 20 view .LVU265
	movl	$5, %edx
	leaq	.LC40(%rip), %rsi
	.loc 1 304 7 view .LVU266
	movq	%rax, %r12
.LVL109:
	.loc 1 304 7 view .LVU267
	jmp	.L140
.LVL110:
.L56:
	.loc 1 309 3 is_stmt 1 view .LVU268
	.loc 1 309 18 is_stmt 0 view .LVU269
	cmpb	$1, block_mode(%rip)
	jne	.L57
	testb	%r13b, %r13b
	jne	.L57
	.loc 1 311 7 is_stmt 1 view .LVU270
	leaq	.LC38(%rip), %rsi
	movl	$1, %edi
	call	quote_n@PLT
.LVL111:
	.loc 1 311 7 is_stmt 0 view .LVU271
	leaq	.LC41(%rip), %rsi
	xorl	%edi, %edi
	movq	%rax, %rbx
.LVL112:
	.loc 1 311 7 view .LVU272
	call	quote_n@PLT
.LVL113:
	.loc 1 311 20 view .LVU273
	movl	$5, %edx
	leaq	.LC42(%rip), %rsi
	.loc 1 311 7 view .LVU274
	movq	%rax, %r12
.LVL114:
.L140:
	.loc 1 297 20 view .LVU275
	xorl	%edi, %edi
	call	dcgettext@PLT
.LVL115:
	.loc 1 297 7 view .LVU276
	movq	%rbx, %r8
	movq	%r12, %rcx
	xorl	%esi, %esi
	.loc 1 297 20 view .LVU277
	movq	%rax, %rdx
	.loc 1 297 7 view .LVU278
	xorl	%edi, %edi
	xorl	%eax, %eax
	call	error@PLT
.LVL116:
	jmp	.L139
.LVL117:
.L57:
	.loc 1 316 3 is_stmt 1 view .LVU279
	.loc 1 316 6 is_stmt 0 view .LVU280
	testl	%r14d, %r14d
	jle	.L91
.LBB148:
	.loc 1 324 7 is_stmt 1 view .LVU281
	.loc 1 325 7 view .LVU282
.LVL118:
	.loc 1 326 7 view .LVU283
.LBB149:
.LBI149:
	.file 4 "/usr/include/x86_64-linux-gnu/sys/stat.h"
	.loc 4 453 1 view .LVU284
.LBB150:
	.loc 4 455 3 view .LVU285
	.loc 4 455 10 is_stmt 0 view .LVU286
	leaq	64(%rsp), %rdx
.LVL119:
	.loc 4 455 10 view .LVU287
	movq	%r15, %rsi
	movl	$1, %edi
	call	__xstat@PLT
.LVL120:
	.loc 4 455 10 view .LVU288
.LBE150:
.LBE149:
	.loc 1 326 10 view .LVU289
	testl	%eax, %eax
	jne	.L147
	.loc 1 328 7 is_stmt 1 view .LVU290
.LBB151:
.LBI151:
	.loc 3 705 1 view .LVU291
.LVL121:
.LBB152:
	.loc 3 707 3 view .LVU292
	.loc 3 707 33 is_stmt 0 view .LVU293
	movl	88(%rsp), %eax
	andl	$53248, %eax
.LBE152:
.LBE151:
	.loc 1 328 10 view .LVU294
	cmpl	$32768, %eax
	jne	.L59
	.loc 1 329 9 is_stmt 1 view .LVU295
	.loc 1 329 19 is_stmt 0 view .LVU296
	movq	112(%rsp), %r15
.LVL122:
	.loc 1 347 7 is_stmt 1 view .LVU297
	.loc 1 347 10 is_stmt 0 view .LVU298
	testq	%r15, %r15
	js	.L61
.LVL123:
.L60:
	.loc 1 350 7 is_stmt 1 view .LVU299
.LBE148:
	.loc 1 207 9 is_stmt 0 view .LVU300
	movq	$-1, 40(%rsp)
.LBB159:
	.loc 1 350 10 view .LVU301
	testb	%r13b, %r13b
	je	.L63
	movq	%r15, 40(%rsp)
	movq	%rbx, %r15
.LVL124:
.L63:
	.loc 1 350 10 view .LVU302
	movq	%r15, %rbx
.LVL125:
.L93:
	.loc 1 350 10 view .LVU303
.LBE159:
	.loc 1 356 3 is_stmt 1 view .LVU304
	.loc 1 356 49 is_stmt 0 view .LVU305
	cmpb	$1, no_create(%rip)
	.loc 1 358 24 view .LVU306
	leaq	8(%r12), %r13
.LVL126:
	.loc 1 358 17 view .LVU307
	movq	(%r12), %r12
.LVL127:
	.loc 1 205 8 view .LVU308
	movb	$0, 8(%rsp)
	.loc 1 356 49 view .LVU309
	sbbl	%r15d, %r15d
	andl	$64, %r15d
	addl	$2049, %r15d
.LVL128:
	.loc 1 358 3 is_stmt 1 view .LVU310
	.loc 1 358 9 view .LVU311
	.loc 1 358 9 is_stmt 0 view .LVU312
	testq	%r12, %r12
	je	.L65
.LBB160:
.LBB161:
.LBB162:
.LBB163:
	.loc 4 469 10 view .LVU313
	leaq	64(%rsp), %rax
.LBE163:
.LBE162:
	.loc 1 112 41 view .LVU314
	movq	%rbx, 24(%rsp)
.LBB167:
.LBB164:
	.loc 4 469 10 view .LVU315
	movq	%rax, 32(%rsp)
.LBE164:
.LBE167:
	.loc 1 112 41 view .LVU316
	movq	40(%rsp), %rax
	shrq	$63, %rax
	movq	%rax, 48(%rsp)
	jmp	.L86
.LVL129:
.L66:
	.loc 1 112 41 view .LVU317
.LBE161:
.LBE160:
	.loc 1 376 7 is_stmt 1 view .LVU318
	.loc 1 378 11 view .LVU319
.LBB186:
.LBI160:
	.loc 1 106 1 view .LVU320
.LBB180:
	.loc 1 109 3 view .LVU321
	.loc 1 110 3 view .LVU322
	.loc 1 112 3 view .LVU323
	.loc 1 112 6 is_stmt 0 view .LVU324
	cmpb	$0, block_mode(%rip)
	jne	.L69
	.loc 1 112 19 view .LVU325
	testl	%ebp, %ebp
	je	.L104
	cmpb	$0, 48(%rsp)
	je	.L104
.LVL130:
.LBB168:
.LBI162:
	.loc 4 467 1 is_stmt 1 view .LVU326
.LBB165:
	.loc 4 469 3 view .LVU327
	.loc 4 469 10 is_stmt 0 view .LVU328
	movq	32(%rsp), %rdx
	movl	%eax, %esi
	movl	$1, %edi
	call	__fxstat@PLT
.LVL131:
	.loc 4 469 10 view .LVU329
.LBE165:
.LBE168:
	.loc 1 112 47 view .LVU330
	testl	%eax, %eax
	je	.L148
.L87:
	.loc 1 114 7 is_stmt 1 view .LVU331
	movq	%r12, %rsi
	movl	$4, %edi
	call	quotearg_style@PLT
.LVL132:
	.loc 1 114 24 is_stmt 0 view .LVU332
	movl	$5, %edx
	leaq	.LC47(%rip), %rsi
	.loc 1 114 7 view .LVU333
	movq	%rax, 16(%rsp)
.LVL133:
.L136:
.LBB169:
	.loc 1 155 36 view .LVU334
	xorl	%edi, %edi
	call	dcgettext@PLT
.LVL134:
	movq	%rax, %rbx
	.loc 1 155 29 view .LVU335
	call	__errno_location@PLT
.LVL135:
	.loc 1 155 19 view .LVU336
	movq	16(%rsp), %rcx
	movq	%rbx, %rdx
	xorl	%edi, %edi
	movl	(%rax), %esi
	xorl	%eax, %eax
	.loc 1 157 26 view .LVU337
	xorl	%ebx, %ebx
	.loc 1 155 19 view .LVU338
	call	error@PLT
.LVL136:
	.loc 1 157 19 is_stmt 1 view .LVU339
.L73:
	.loc 1 157 19 is_stmt 0 view .LVU340
.LBE169:
.LBE180:
.LBE186:
	.loc 1 379 11 is_stmt 1 view .LVU341
	.loc 1 379 15 is_stmt 0 view .LVU342
	movl	%r14d, %edi
	call	close@PLT
.LVL137:
	.loc 1 379 14 view .LVU343
	testl	%eax, %eax
	jne	.L85
	.loc 1 378 21 view .LVU344
	xorl	$1, %ebx
.LVL138:
	.loc 1 378 21 view .LVU345
	orb	%bl, 8(%rsp)
.LVL139:
.L68:
	.loc 1 358 9 is_stmt 1 view .LVU346
	.loc 1 358 17 is_stmt 0 view .LVU347
	movq	0(%r13), %r12
	.loc 1 358 24 view .LVU348
	addq	$8, %r13
.LVL140:
	.loc 1 358 9 view .LVU349
	testq	%r12, %r12
	je	.L65
.LVL141:
.L86:
	.loc 1 360 7 is_stmt 1 view .LVU350
.LBB187:
.LBI187:
	.file 5 "/usr/include/x86_64-linux-gnu/bits/fcntl2.h"
	.loc 5 41 1 view .LVU351
.LBB188:
	.loc 5 43 3 view .LVU352
	.loc 5 46 3 view .LVU353
	.loc 5 56 3 view .LVU354
	.loc 5 59 3 view .LVU355
	.loc 5 59 10 is_stmt 0 view .LVU356
	movl	$438, %edx
	movl	%r15d, %esi
	movq	%r12, %rdi
	xorl	%eax, %eax
	call	open@PLT
.LVL142:
	movl	%eax, %r14d
.LVL143:
	.loc 5 59 10 view .LVU357
.LBE188:
.LBE187:
	.loc 1 360 10 view .LVU358
	cmpl	$-1, %eax
	jne	.L66
	.loc 1 366 11 is_stmt 1 view .LVU359
	call	__errno_location@PLT
.LVL144:
	.loc 1 366 14 is_stmt 0 view .LVU360
	cmpb	$0, no_create(%rip)
	movq	%rax, %rbx
	je	.L67
	.loc 1 366 15 discriminator 1 view .LVU361
	cmpl	$2, (%rax)
	je	.L68
.L67:
	.loc 1 368 15 is_stmt 1 view .LVU362
	movq	%r12, %rsi
	movl	$4, %edi
	call	quotearg_style@PLT
.LVL145:
	.loc 1 368 32 is_stmt 0 view .LVU363
	movl	$5, %edx
	leaq	.LC46(%rip), %rsi
	xorl	%edi, %edi
	.loc 1 368 15 view .LVU364
	movq	%rax, %r12
.LVL146:
	.loc 1 368 32 view .LVU365
	call	dcgettext@PLT
.LVL147:
	.loc 1 368 15 view .LVU366
	movl	(%rbx), %esi
	movq	%r12, %rcx
	xorl	%edi, %edi
	.loc 1 368 32 view .LVU367
	movq	%rax, %rdx
	.loc 1 368 15 view .LVU368
	xorl	%eax, %eax
	call	error@PLT
.LVL148:
	.loc 1 370 15 is_stmt 1 view .LVU369
	.loc 1 370 22 is_stmt 0 view .LVU370
	movb	$1, 8(%rsp)
	jmp	.L68
.LVL149:
.L91:
	.loc 1 318 7 is_stmt 1 view .LVU371
	.loc 1 318 20 is_stmt 0 view .LVU372
	movl	$5, %edx
	leaq	.LC43(%rip), %rsi
.LVL150:
.L138:
	.loc 1 318 20 view .LVU373
	xorl	%edi, %edi
	call	dcgettext@PLT
.LVL151:
	.loc 1 318 7 view .LVU374
	xorl	%edi, %edi
	xorl	%esi, %esi
	.loc 1 318 20 view .LVU375
	movq	%rax, %rdx
	.loc 1 318 7 view .LVU376
	xorl	%eax, %eax
	call	error@PLT
.LVL152:
	.loc 1 319 7 is_stmt 1 view .LVU377
	movl	$1, %edi
	call	usage
.LVL153:
.L104:
.LBB189:
.LBB181:
	.loc 1 319 7 is_stmt 0 view .LVU378
	movq	24(%rsp), %rbx
.LVL154:
.L72:
	.loc 1 130 3 is_stmt 1 view .LVU379
	.loc 1 130 6 is_stmt 0 view .LVU380
	testl	%ebp, %ebp
	je	.L76
.LBB173:
	.loc 1 132 7 is_stmt 1 view .LVU381
	.loc 1 134 7 view .LVU382
	movq	40(%rsp), %rax
	movq	%rax, %rcx
	.loc 1 134 10 is_stmt 0 view .LVU383
	addq	$1, %rax
	je	.L88
.L77:
.LVL155:
	.loc 1 162 7 is_stmt 1 view .LVU384
	.loc 1 162 10 is_stmt 0 view .LVU385
	cmpl	$2, %ebp
	je	.L149
	.loc 1 164 12 is_stmt 1 view .LVU386
	.loc 1 164 15 is_stmt 0 view .LVU387
	cmpl	$3, %ebp
	je	.L150
	.loc 1 166 12 is_stmt 1 view .LVU388
	.loc 1 166 15 is_stmt 0 view .LVU389
	cmpl	$4, %ebp
	je	.L151
	.loc 1 171 11 is_stmt 1 view .LVU390
	.loc 1 171 14 is_stmt 0 view .LVU391
	cmpl	$5, %ebp
	je	.L152
.LVL156:
.L82:
	.loc 1 177 11 is_stmt 1 view .LVU392
	.loc 1 177 15 is_stmt 0 view .LVU393
	addq	%rcx, %rbx
.LVL157:
	.loc 1 177 14 view .LVU394
	jo	.L153
.LVL158:
.L76:
	.loc 1 177 14 view .LVU395
.LBE173:
	.loc 1 187 3 is_stmt 1 view .LVU396
	testq	%rbx, %rbx
	movl	$0, %r8d
	.loc 1 190 7 is_stmt 0 view .LVU397
	movl	%r14d, %edi
	cmovns	%rbx, %r8
.LVL159:
	.loc 1 190 3 is_stmt 1 view .LVU398
	.loc 1 198 10 is_stmt 0 view .LVU399
	movl	$1, %ebx
	.loc 1 190 7 view .LVU400
	movq	%r8, %rsi
	movq	%r8, 16(%rsp)
	call	ftruncate@PLT
.LVL160:
	.loc 1 190 6 view .LVU401
	movq	16(%rsp), %r8
	addl	$1, %eax
	jne	.L73
	.loc 1 192 7 view .LVU402
	movq	%r12, %rsi
	movl	$4, %edi
	movq	%r8, 56(%rsp)
	.loc 1 192 7 is_stmt 1 view .LVU403
	call	quotearg_style@PLT
.LVL161:
	.loc 1 193 14 is_stmt 0 view .LVU404
	movl	$5, %edx
	leaq	.LC51(%rip), %rsi
	xorl	%edi, %edi
	.loc 1 192 7 view .LVU405
	movq	%rax, 16(%rsp)
.LVL162:
	.loc 1 193 14 view .LVU406
	call	dcgettext@PLT
.LVL163:
	movq	%rax, %rbx
	.loc 1 192 17 view .LVU407
	call	__errno_location@PLT
.LVL164:
	.loc 1 192 7 view .LVU408
	movq	56(%rsp), %r8
	movq	%rbx, %rdx
	xorl	%edi, %edi
	movl	(%rax), %esi
	movq	16(%rsp), %rcx
	xorl	%eax, %eax
	.loc 1 195 14 view .LVU409
	xorl	%ebx, %ebx
	.loc 1 192 7 view .LVU410
	call	error@PLT
.LVL165:
	.loc 1 195 7 is_stmt 1 view .LVU411
	.loc 1 195 14 is_stmt 0 view .LVU412
	jmp	.L73
.LVL166:
.L69:
.LBB174:
	.loc 4 467 1 is_stmt 1 view .LVU413
.LBB166:
	.loc 4 469 3 view .LVU414
	.loc 4 469 10 is_stmt 0 view .LVU415
	movq	32(%rsp), %rdx
	movl	%eax, %esi
	movl	$1, %edi
	call	__fxstat@PLT
.LVL167:
	.loc 4 469 10 view .LVU416
.LBE166:
.LBE174:
	.loc 1 112 47 view .LVU417
	testl	%eax, %eax
	jne	.L87
	.loc 1 117 3 is_stmt 1 view .LVU418
.LBB175:
	.loc 1 119 7 view .LVU419
	.loc 1 119 27 is_stmt 0 view .LVU420
	movabsq	$2305843009213693951, %rbx
	movq	120(%rsp), %r8
	leaq	-1(%r8), %rax
	cmpq	%rbx, %rax
	movl	$512, %eax
	.loc 1 121 11 view .LVU421
	movq	24(%rsp), %rbx
	.loc 1 119 27 view .LVU422
	cmova	%rax, %r8
.LVL168:
	.loc 1 120 7 is_stmt 1 view .LVU423
	.loc 1 121 7 view .LVU424
	.loc 1 121 11 is_stmt 0 view .LVU425
	imulq	%r8, %rbx
.LVL169:
	.loc 1 121 10 view .LVU426
	jno	.L72
	.loc 1 123 11 view .LVU427
	movq	%r12, %rsi
	movl	$4, %edi
	movq	%r8, 16(%rsp)
	.loc 1 123 11 is_stmt 1 view .LVU428
	call	quotearg_style@PLT
.LVL170:
	.loc 1 124 18 is_stmt 0 view .LVU429
	movl	$5, %edx
	leaq	.LC48(%rip), %rsi
	xorl	%edi, %edi
	.loc 1 123 11 view .LVU430
	movq	%rax, %rbx
.LVL171:
	.loc 1 124 18 view .LVU431
	call	dcgettext@PLT
.LVL172:
	.loc 1 123 11 view .LVU432
	movq	16(%rsp), %r8
	movq	%rbx, %r9
	xorl	%esi, %esi
	movq	24(%rsp), %rcx
	.loc 1 124 18 view .LVU433
	movq	%rax, %rdx
	.loc 1 123 11 view .LVU434
	xorl	%edi, %edi
	xorl	%eax, %eax
	.loc 1 127 18 view .LVU435
	xorl	%ebx, %ebx
	.loc 1 123 11 view .LVU436
	call	error@PLT
.LVL173:
	.loc 1 127 11 is_stmt 1 view .LVU437
	.loc 1 127 18 is_stmt 0 view .LVU438
	jmp	.L73
.LVL174:
.L85:
	.loc 1 127 18 view .LVU439
.LBE175:
.LBE181:
.LBE189:
	.loc 1 381 15 is_stmt 1 view .LVU440
	movq	%r12, %rsi
	movl	$4, %edi
	call	quotearg_style@PLT
.LVL175:
	.loc 1 381 32 is_stmt 0 view .LVU441
	movl	$5, %edx
	leaq	.LC52(%rip), %rsi
	xorl	%edi, %edi
	.loc 1 381 15 view .LVU442
	movq	%rax, %r14
.LVL176:
	.loc 1 381 32 view .LVU443
	call	dcgettext@PLT
.LVL177:
	movq	%rax, %r12
.LVL178:
	.loc 1 381 25 view .LVU444
	call	__errno_location@PLT
.LVL179:
	.loc 1 381 15 view .LVU445
	movq	%r14, %rcx
	movq	%r12, %rdx
	xorl	%edi, %edi
	movl	(%rax), %esi
	xorl	%eax, %eax
	call	error@PLT
.LVL180:
	.loc 1 382 15 is_stmt 1 view .LVU446
	.loc 1 382 22 is_stmt 0 view .LVU447
	movb	$1, 8(%rsp)
	jmp	.L68
.LVL181:
.L148:
.LBB190:
.LBB182:
	.loc 1 112 47 view .LVU448
	movq	24(%rsp), %rbx
.LVL182:
.L88:
.LBB176:
	.loc 1 138 11 is_stmt 1 view .LVU449
.LBB170:
.LBI170:
	.loc 3 705 1 view .LVU450
.LBB171:
	.loc 3 707 3 view .LVU451
	.loc 3 707 33 is_stmt 0 view .LVU452
	movl	88(%rsp), %eax
	andl	$53248, %eax
.LBE171:
.LBE170:
	.loc 1 138 14 view .LVU453
	cmpl	$32768, %eax
	jne	.L78
	.loc 1 140 15 is_stmt 1 view .LVU454
	.loc 1 140 21 is_stmt 0 view .LVU455
	movq	112(%rsp), %rcx
.LVL183:
	.loc 1 141 15 is_stmt 1 view .LVU456
	.loc 1 141 18 is_stmt 0 view .LVU457
	testq	%rcx, %rcx
	jns	.L77
	.loc 1 145 19 is_stmt 1 view .LVU458
	movq	%r12, %rsi
	movl	$4, %edi
	call	quotearg_style@PLT
.LVL184:
	.loc 1 145 32 is_stmt 0 view .LVU459
	movl	$5, %edx
	leaq	.LC49(%rip), %rsi
	.loc 1 145 19 view .LVU460
	movq	%rax, %rbx
.LVL185:
.L137:
	.loc 1 179 28 view .LVU461
	xorl	%edi, %edi
	call	dcgettext@PLT
.LVL186:
	.loc 1 179 15 view .LVU462
	movq	%rbx, %rcx
	xorl	%esi, %esi
	xorl	%edi, %edi
	.loc 1 179 28 view .LVU463
	movq	%rax, %rdx
	.loc 1 179 15 view .LVU464
	xorl	%eax, %eax
	.loc 1 181 22 view .LVU465
	xorl	%ebx, %ebx
	.loc 1 179 15 view .LVU466
	call	error@PLT
.LVL187:
	.loc 1 181 15 is_stmt 1 view .LVU467
	.loc 1 181 22 is_stmt 0 view .LVU468
	jmp	.L73
.LVL188:
.L65:
	.loc 1 181 22 view .LVU469
.LBE176:
.LBE182:
.LBE190:
	.loc 1 387 3 is_stmt 1 view .LVU470
	.loc 1 388 1 is_stmt 0 view .LVU471
	movq	216(%rsp), %rbx
	xorq	%fs:40, %rbx
	.loc 1 387 32 view .LVU472
	movzbl	8(%rsp), %eax
	.loc 1 388 1 view .LVU473
	jne	.L154
	addq	$232, %rsp
	.cfi_remember_state
	.cfi_def_cfa_offset 56
	popq	%rbx
	.cfi_def_cfa_offset 48
	popq	%rbp
	.cfi_def_cfa_offset 40
.LVL189:
	.loc 1 388 1 view .LVU474
	popq	%r12
	.cfi_def_cfa_offset 32
.LVL190:
	.loc 1 388 1 view .LVU475
	popq	%r13
	.cfi_def_cfa_offset 24
.LVL191:
	.loc 1 388 1 view .LVU476
	popq	%r14
	.cfi_def_cfa_offset 16
	popq	%r15
	.cfi_def_cfa_offset 8
.LVL192:
	.loc 1 388 1 view .LVU477
	ret
.LVL193:
.L149:
	.cfi_restore_state
.LBB191:
.LBB183:
.LBB177:
	.loc 1 163 9 is_stmt 1 view .LVU478
	.loc 1 163 17 is_stmt 0 view .LVU479
	cmpq	%rcx, %rbx
	cmovl	%rcx, %rbx
.LVL194:
	.loc 1 163 17 view .LVU480
	jmp	.L76
.LVL195:
.L150:
	.loc 1 165 9 is_stmt 1 view .LVU481
	.loc 1 165 17 is_stmt 0 view .LVU482
	cmpq	%rcx, %rbx
	cmovg	%rcx, %rbx
.LVL196:
	.loc 1 165 17 view .LVU483
	jmp	.L76
.LVL197:
.L151:
	.loc 1 168 9 is_stmt 1 view .LVU484
	.loc 1 168 31 is_stmt 0 view .LVU485
	movq	%rcx, %rax
	cqto
	idivq	%rbx
	.loc 1 168 23 view .LVU486
	movq	%rcx, %rbx
.LVL198:
	.loc 1 168 23 view .LVU487
	subq	%rdx, %rbx
.LVL199:
	.loc 1 168 23 view .LVU488
	jmp	.L76
.LVL200:
.L78:
	.loc 1 152 15 is_stmt 1 view .LVU489
	.loc 1 152 23 is_stmt 0 view .LVU490
	movl	$2, %edx
	xorl	%esi, %esi
	movl	%r14d, %edi
	call	lseek@PLT
.LVL201:
	movq	%rax, %rcx
.LVL202:
	.loc 1 153 15 is_stmt 1 view .LVU491
	.loc 1 153 18 is_stmt 0 view .LVU492
	testq	%rax, %rax
	jns	.L77
	.loc 1 155 19 is_stmt 1 view .LVU493
	movq	%r12, %rsi
	movl	$4, %edi
	call	quotearg_style@PLT
.LVL203:
	.loc 1 155 36 is_stmt 0 view .LVU494
	movl	$5, %edx
	leaq	.LC45(%rip), %rsi
	.loc 1 155 19 view .LVU495
	movq	%rax, 16(%rsp)
	jmp	.L136
.LVL204:
.L146:
	.loc 1 155 19 view .LVU496
.LBE177:
.LBE183:
.LBE191:
	.loc 1 295 17 discriminator 1 view .LVU497
	testb	%r13b, %r13b
	je	.L155
	.loc 1 316 3 is_stmt 1 view .LVU498
	.loc 1 316 6 is_stmt 0 view .LVU499
	testl	%r14d, %r14d
	jle	.L91
	.loc 1 207 9 view .LVU500
	movq	$-1, 40(%rsp)
	jmp	.L93
.LVL205:
.L152:
.LBB192:
.LBB184:
.LBB178:
.LBB172:
	.loc 1 174 15 is_stmt 1 view .LVU501
	.loc 1 174 21 is_stmt 0 view .LVU502
	movq	%rcx, %rax
	cqto
	idivq	%rbx
.LVL206:
	.loc 1 175 15 is_stmt 1 view .LVU503
	.loc 1 175 34 is_stmt 0 view .LVU504
	testq	%rdx, %rdx
	je	.L101
	.loc 1 175 34 view .LVU505
	subq	%rdx, %rbx
.LVL207:
	.loc 1 175 34 view .LVU506
	jmp	.L82
.LVL208:
.L59:
	.loc 1 175 34 view .LVU507
.LBE172:
.LBE178:
.LBE184:
.LBE192:
.LBB193:
.LBB153:
	.loc 1 332 11 is_stmt 1 view .LVU508
.LBB154:
.LBI154:
	.loc 5 41 1 view .LVU509
.LBB155:
	.loc 5 43 3 view .LVU510
	.loc 5 46 3 view .LVU511
	.loc 5 48 7 view .LVU512
	.loc 5 53 7 view .LVU513
	.loc 5 53 14 is_stmt 0 view .LVU514
	xorl	%esi, %esi
	movq	%r15, %rdi
	xorl	%eax, %eax
	call	open@PLT
.LVL209:
	movl	%eax, %r14d
.LVL210:
	.loc 5 53 14 view .LVU515
.LBE155:
.LBE154:
	.loc 1 333 11 is_stmt 1 view .LVU516
	call	__errno_location@PLT
.LVL211:
	.loc 1 333 11 is_stmt 0 view .LVU517
	movq	%rax, 8(%rsp)
	.loc 1 333 14 view .LVU518
	testl	%r14d, %r14d
	js	.L61
.LBB156:
	.loc 1 335 15 is_stmt 1 view .LVU519
	.loc 1 335 32 is_stmt 0 view .LVU520
	xorl	%esi, %esi
	movl	%r14d, %edi
	movl	$2, %edx
	call	lseek@PLT
.LVL212:
	.loc 1 337 15 view .LVU521
	movl	%r14d, %edi
	.loc 1 335 32 view .LVU522
	movq	%rax, %r15
.LVL213:
	.loc 1 336 15 is_stmt 1 view .LVU523
	.loc 1 336 19 is_stmt 0 view .LVU524
	movq	8(%rsp), %rax
.LVL214:
	.loc 1 336 19 view .LVU525
	movl	(%rax), %eax
	movl	%eax, 16(%rsp)
.LVL215:
	.loc 1 337 15 is_stmt 1 view .LVU526
	call	close@PLT
.LVL216:
	.loc 1 338 15 view .LVU527
	.loc 1 338 18 is_stmt 0 view .LVU528
	testq	%r15, %r15
	jns	.L60
	.loc 1 343 19 is_stmt 1 view .LVU529
	.loc 1 343 25 is_stmt 0 view .LVU530
	movq	8(%rsp), %rax
	movl	16(%rsp), %ebx
.LVL217:
	.loc 1 343 25 view .LVU531
	movl	%ebx, (%rax)
	.loc 1 343 25 view .LVU532
.LBE156:
.LBE153:
	.loc 1 347 7 is_stmt 1 view .LVU533
.LVL218:
.L61:
.LBB157:
	.loc 1 348 9 view .LVU534
	movq	ref_file(%rip), %rsi
	movl	$4, %edi
	call	quotearg_style@PLT
.LVL219:
	movl	$5, %edx
	leaq	.LC45(%rip), %rsi
	xorl	%edi, %edi
	movq	%rax, %r13
.LVL220:
	.loc 1 348 9 is_stmt 0 view .LVU535
	call	dcgettext@PLT
.LVL221:
	movq	%rax, %r12
.LVL222:
	.loc 1 348 9 view .LVU536
	call	__errno_location@PLT
.LVL223:
	movq	%r13, %rcx
	movq	%r12, %rdx
	movl	$1, %edi
	movl	(%rax), %esi
	xorl	%eax, %eax
	call	error@PLT
.LVL224:
.L153:
	.loc 1 348 9 view .LVU537
.LBE157:
.LBE193:
.LBB194:
.LBB185:
.LBB179:
	.loc 1 179 15 is_stmt 1 view .LVU538
	movq	%r12, %rsi
	movl	$4, %edi
	call	quotearg_style@PLT
.LVL225:
	.loc 1 179 28 is_stmt 0 view .LVU539
	movl	$5, %edx
	leaq	.LC50(%rip), %rsi
	.loc 1 179 15 view .LVU540
	movq	%rax, %rbx
.LVL226:
	.loc 1 179 15 view .LVU541
	jmp	.L137
.LVL227:
.L101:
	.loc 1 177 15 view .LVU542
	movq	%rcx, %rbx
.LVL228:
	.loc 1 177 15 view .LVU543
	jmp	.L76
.LVL229:
.L34:
	.loc 1 177 15 view .LVU544
.LBE179:
.LBE185:
.LBE194:
	.loc 1 282 9 is_stmt 1 view .LVU545
	xorl	%edi, %edi
	call	usage
.LVL230:
.L145:
.LBB195:
	.loc 1 278 13 view .LVU546
	movl	$5, %edx
	leaq	.LC34(%rip), %rsi
	xorl	%edi, %edi
	call	dcgettext@PLT
.LVL231:
	xorl	%esi, %esi
	movl	$1, %edi
	movq	%rax, %rdx
	xorl	%eax, %eax
	call	error@PLT
.LVL232:
.L144:
	.loc 1 278 13 is_stmt 0 view .LVU547
.LBE195:
	.loc 1 266 19 is_stmt 1 view .LVU548
	.loc 1 266 32 is_stmt 0 view .LVU549
	leaq	.LC31(%rip), %rsi
	jmp	.L138
.LVL233:
.L155:
	.loc 1 297 7 is_stmt 1 view .LVU550
	leaq	.LC37(%rip), %rsi
	movl	$1, %edi
	call	quote_n@PLT
.LVL234:
	.loc 1 297 7 is_stmt 0 view .LVU551
	leaq	.LC38(%rip), %rsi
	xorl	%edi, %edi
	movq	%rax, %rbx
.LVL235:
	.loc 1 297 7 view .LVU552
	call	quote_n@PLT
.LVL236:
	.loc 1 297 20 view .LVU553
	movl	$5, %edx
	leaq	.LC39(%rip), %rsi
	.loc 1 297 7 view .LVU554
	movq	%rax, %r12
.LVL237:
	.loc 1 297 7 view .LVU555
	jmp	.L140
.LVL238:
.L154:
	.loc 1 388 1 view .LVU556
	call	__stack_chk_fail@PLT
.LVL239:
.L147:
.LBB196:
.LBB158:
	.loc 1 327 9 is_stmt 1 view .LVU557
	movq	%r15, %rsi
	movl	$4, %edi
	call	quotearg_style@PLT
.LVL240:
	movl	$5, %edx
	leaq	.LC44(%rip), %rsi
	xorl	%edi, %edi
	movq	%rax, %r13
.LVL241:
	.loc 1 327 9 is_stmt 0 view .LVU558
	call	dcgettext@PLT
.LVL242:
	movq	%rax, %r12
.LVL243:
	.loc 1 327 9 view .LVU559
	call	__errno_location@PLT
.LVL244:
	movq	%r13, %rcx
	movq	%r12, %rdx
	movl	$1, %edi
	movl	(%rax), %esi
	xorl	%eax, %eax
	call	error@PLT
.LVL245:
.LBE158:
.LBE196:
	.cfi_endproc
.LFE137:
	.size	main, .-main
	.section	.rodata.str1.1
.LC53:
	.string	"no-create"
.LC54:
	.string	"io-blocks"
.LC55:
	.string	"reference"
.LC56:
	.string	"size"
.LC57:
	.string	"help"
.LC58:
	.string	"version"
	.section	.data.rel.ro.local,"aw"
	.align 32
	.type	longopts, @object
	.size	longopts, 224
longopts:
	.quad	.LC53
	.long	0
	.zero	4
	.quad	0
	.long	99
	.zero	4
	.quad	.LC54
	.long	0
	.zero	4
	.quad	0
	.long	111
	.zero	4
	.quad	.LC55
	.long	1
	.zero	4
	.quad	0
	.long	114
	.zero	4
	.quad	.LC56
	.long	1
	.zero	4
	.quad	0
	.long	115
	.zero	4
	.quad	.LC57
	.long	0
	.zero	4
	.quad	0
	.long	-130
	.zero	4
	.quad	.LC58
	.long	0
	.zero	4
	.quad	0
	.long	-131
	.zero	4
	.quad	0
	.long	0
	.zero	4
	.quad	0
	.long	0
	.zero	4
	.local	ref_file
	.comm	ref_file,8,8
	.local	block_mode
	.comm	block_mode,1,1
	.local	no_create
	.comm	no_create,1,1
	.text
.Letext0:
	.file 6 "/usr/lib/gcc/x86_64-linux-gnu/9/include/stddef.h"
	.file 7 "/usr/include/x86_64-linux-gnu/bits/types.h"
	.file 8 "/usr/include/x86_64-linux-gnu/bits/types/struct_FILE.h"
	.file 9 "/usr/include/x86_64-linux-gnu/bits/types/FILE.h"
	.file 10 "/usr/include/stdio.h"
	.file 11 "/usr/include/x86_64-linux-gnu/bits/sys_errlist.h"
	.file 12 "/usr/include/x86_64-linux-gnu/bits/types/time_t.h"
	.file 13 "/usr/include/x86_64-linux-gnu/bits/types/struct_timespec.h"
	.file 14 "./lib/sys/select.h"
	.file 15 "/usr/include/x86_64-linux-gnu/bits/getopt_core.h"
	.file 16 "/usr/include/x86_64-linux-gnu/bits/getopt_ext.h"
	.file 17 "/usr/include/time.h"
	.file 18 "/usr/include/x86_64-linux-gnu/bits/stat.h"
	.file 19 "/usr/include/signal.h"
	.file 20 "/usr/include/unistd.h"
	.file 21 "/usr/include/errno.h"
	.file 22 "src/version.h"
	.file 23 "./lib/exitfail.h"
	.file 24 "/usr/include/stdint.h"
	.file 25 "./lib/timespec.h"
	.file 26 "/usr/include/ctype.h"
	.file 27 "./lib/version-etc.h"
	.file 28 "./lib/progname.h"
	.file 29 "./lib/quotearg.h"
	.file 30 "./lib/error.h"
	.file 31 "./lib/quote.h"
	.file 32 "/usr/include/libintl.h"
	.file 33 "/usr/include/locale.h"
	.file 34 "/usr/include/stdlib.h"
	.file 35 "./lib/xdectoint.h"
	.file 36 "/usr/include/string.h"
	.section	.note.GNU-stack,"",@progbits
	.section	.note.gnu.property,"a"
	.align 8
	.long	 1f - 0f
	.long	 4f - 1f
	.long	 5
0:
	.string	 "GNU"
1:
	.align 8
	.long	 0xc0000002
	.long	 3f - 2f
2:
	.long	 0x3
3:
	.align 8
4:
