	.file	"uname.c"
	.text
.Ltext0:
	.p2align 4
	.type	print_element, @function
print_element:
.LVL0:
.LFB136:
	.file 1 "src/uname.c"
	.loc 1 162 1 view -0
	.cfi_startproc
	.loc 1 163 3 view .LVU1
	.loc 1 164 3 view .LVU2
	.loc 1 164 6 is_stmt 0 view .LVU3
	cmpb	$0, printed.7083(%rip)
	.loc 1 162 1 view .LVU4
	pushq	%rbp
	.cfi_def_cfa_offset 16
	.cfi_offset 6, -16
	.loc 1 162 1 view .LVU5
	movq	%rdi, %rbp
	.loc 1 164 6 view .LVU6
	je	.L2
	movq	stdout(%rip), %rdi
.LVL1:
	.loc 1 165 5 is_stmt 1 view .LVU7
.LBB20:
.LBI20:
	.file 2 "/usr/include/x86_64-linux-gnu/bits/stdio.h"
	.loc 2 108 1 view .LVU8
.LBB21:
	.loc 2 110 3 view .LVU9
	.loc 2 110 10 is_stmt 0 view .LVU10
	movq	40(%rdi), %rax
	cmpq	48(%rdi), %rax
	jnb	.L6
	leaq	1(%rax), %rdx
	movq	%rdx, 40(%rdi)
	movb	$32, (%rax)
.LVL2:
.L2:
	.loc 2 110 10 view .LVU11
.LBE21:
.LBE20:
	.loc 1 166 3 is_stmt 1 view .LVU12
	.loc 1 167 3 is_stmt 0 view .LVU13
	movq	stdout(%rip), %rsi
	movq	%rbp, %rdi
	.loc 1 168 1 view .LVU14
	popq	%rbp
	.cfi_remember_state
	.cfi_def_cfa_offset 8
.LVL3:
	.loc 1 166 11 view .LVU15
	movb	$1, printed.7083(%rip)
	.loc 1 167 3 is_stmt 1 view .LVU16
	jmp	fputs_unlocked@PLT
.LVL4:
.L6:
	.cfi_restore_state
.LBB23:
.LBB22:
	.loc 2 110 10 is_stmt 0 view .LVU17
	movl	$32, %esi
	call	__overflow@PLT
.LVL5:
	jmp	.L2
.LBE22:
.LBE23:
	.cfi_endproc
.LFE136:
	.size	print_element, .-print_element
	.section	.rodata.str1.1,"aMS",@progbits,1
.LC0:
	.string	"uname"
.LC1:
	.string	"arch"
.LC2:
	.string	"["
.LC3:
	.string	" invocation"
.LC4:
	.string	""
	.section	.rodata.str1.8,"aMS",@progbits,1
	.align 8
.LC5:
	.string	"Try '%s --help' for more information.\n"
	.section	.rodata.str1.1
.LC6:
	.string	"Usage: %s [OPTION]...\n"
	.section	.rodata.str1.8
	.align 8
.LC7:
	.ascii	"Print certain system information.  With no OPTION, same as -"
	.ascii	"s.\n\n  -a, --all                print all info"
	.string	"rmation, in the following order,\n                             except omit -p and -i if unknown:\n  -s, --kernel-name        print the kernel name\n  -n, --nodename           print the network node hostname\n  -r, --kernel-release     print the kernel release\n"
	.align 8
.LC8:
	.ascii	"  -v, --kernel-version     print the kernel ve"
	.string	"rsion\n  -m, --machine            print the machine hardware name\n  -p, --processor          print the processor type (non-portable)\n  -i, --hardware-platform  print the hardware platform (non-portable)\n  -o, --operating-system   print the operating system\n"
	.section	.rodata.str1.1
.LC9:
	.string	"Print machine architecture.\n\n"
	.section	.rodata.str1.8
	.align 8
.LC10:
	.string	"      --help     display this help and exit\n"
	.align 8
.LC11:
	.string	"      --version  output version information and exit\n"
	.section	.rodata.str1.1
.LC12:
	.string	"test invocation"
.LC13:
	.string	"coreutils"
.LC14:
	.string	"Multi-call invocation"
.LC15:
	.string	"sha224sum"
.LC16:
	.string	"sha2 utilities"
.LC17:
	.string	"sha256sum"
.LC18:
	.string	"sha384sum"
.LC19:
	.string	"sha512sum"
.LC20:
	.string	"\n%s online help: <%s>\n"
	.section	.rodata.str1.8
	.align 8
.LC21:
	.string	"https://www.gnu.org/software/coreutils/"
	.section	.rodata.str1.1
.LC22:
	.string	"GNU coreutils"
.LC23:
	.string	"en_"
	.section	.rodata.str1.8
	.align 8
.LC24:
	.string	"Report any translation bugs to <https://translationproject.org/team/>\n"
	.section	.rodata.str1.1
.LC25:
	.string	"Full documentation <%s%s>\n"
	.section	.rodata.str1.8
	.align 8
.LC26:
	.string	"or available locally via: info '(coreutils) %s%s'\n"
	.text
	.p2align 4
	.globl	usage
	.type	usage, @function
usage:
.LVL6:
.LFB135:
	.loc 1 116 1 is_stmt 1 view -0
	.cfi_startproc
	.loc 1 116 1 is_stmt 0 view .LVU19
	endbr64
	pushq	%r14
	.cfi_def_cfa_offset 16
	.cfi_offset 14, -16
	.loc 1 118 5 view .LVU20
	movl	$5, %edx
	.loc 1 116 1 view .LVU21
	pushq	%r13
	.cfi_def_cfa_offset 24
	.cfi_offset 13, -24
	pushq	%r12
	.cfi_def_cfa_offset 32
	.cfi_offset 12, -32
	pushq	%rbp
	.cfi_def_cfa_offset 40
	.cfi_offset 6, -40
	movl	%edi, %ebp
	pushq	%rbx
	.cfi_def_cfa_offset 48
	.cfi_offset 3, -48
	addq	$-128, %rsp
	.cfi_def_cfa_offset 176
	movq	program_name(%rip), %r12
	.loc 1 116 1 view .LVU22
	movq	%fs:40, %rax
	movq	%rax, 120(%rsp)
	xorl	%eax, %eax
	.loc 1 117 3 is_stmt 1 view .LVU23
	.loc 1 117 6 is_stmt 0 view .LVU24
	testl	%edi, %edi
	je	.L8
	.loc 1 118 5 is_stmt 1 view .LVU25
	.loc 1 118 5 view .LVU26
	leaq	.LC5(%rip), %rsi
	xorl	%edi, %edi
.LVL7:
	.loc 1 118 5 is_stmt 0 view .LVU27
	call	dcgettext@PLT
.LVL8:
.LBB36:
.LBB37:
	.file 3 "/usr/include/x86_64-linux-gnu/bits/stdio2.h"
	.loc 3 100 10 view .LVU28
	movq	stderr(%rip), %rdi
	movq	%r12, %rcx
	movl	$1, %esi
.LBE37:
.LBE36:
	.loc 1 118 5 view .LVU29
	movq	%rax, %rdx
.LVL9:
.LBB39:
.LBI36:
	.loc 3 98 1 is_stmt 1 view .LVU30
.LBB38:
	.loc 3 100 3 view .LVU31
	.loc 3 100 10 is_stmt 0 view .LVU32
	xorl	%eax, %eax
.LVL10:
	.loc 3 100 10 view .LVU33
	call	__fprintf_chk@PLT
.LVL11:
.L9:
	.loc 3 100 10 view .LVU34
.LBE38:
.LBE39:
	.loc 1 154 3 is_stmt 1 view .LVU35
	movl	%ebp, %edi
	call	exit@PLT
.LVL12:
.L8:
	.loc 1 121 7 view .LVU36
	.loc 1 121 15 is_stmt 0 view .LVU37
	xorl	%edi, %edi
.LVL13:
	.loc 1 121 15 view .LVU38
	leaq	.LC6(%rip), %rsi
	call	dcgettext@PLT
.LVL14:
.LBB40:
.LBB41:
	.loc 3 107 10 view .LVU39
	movq	%r12, %rdx
	movl	$1, %edi
.LBE41:
.LBE40:
	.loc 1 121 15 view .LVU40
	movq	%rax, %rsi
.LVL15:
.LBB43:
.LBI40:
	.loc 3 105 1 is_stmt 1 view .LVU41
.LBB42:
	.loc 3 107 3 view .LVU42
	.loc 3 107 10 is_stmt 0 view .LVU43
	xorl	%eax, %eax
.LVL16:
	.loc 3 107 10 view .LVU44
	call	__printf_chk@PLT
.LVL17:
	.loc 3 107 10 view .LVU45
.LBE42:
.LBE43:
	.loc 1 123 7 is_stmt 1 view .LVU46
	.loc 1 123 10 is_stmt 0 view .LVU47
	cmpl	$1, uname_mode(%rip)
	.loc 1 125 11 view .LVU48
	movq	stdout(%rip), %r12
	movl	$5, %edx
	.loc 1 144 11 view .LVU49
	leaq	.LC9(%rip), %rsi
	.loc 1 123 10 view .LVU50
	je	.L40
.L39:
	.loc 1 144 11 view .LVU51
	xorl	%edi, %edi
.LBB44:
.LBB45:
	.file 4 "src/system.h"
	.loc 4 636 67 view .LVU52
	leaq	.LC18(%rip), %rbx
.LBE45:
.LBE44:
	.loc 1 144 11 view .LVU53
	call	dcgettext@PLT
.LVL18:
	movq	%r12, %rsi
	movq	%rax, %rdi
	call	fputs_unlocked@PLT
.LVL19:
	.loc 1 150 7 is_stmt 1 view .LVU54
	movq	stdout(%rip), %r12
	xorl	%edi, %edi
	movl	$5, %edx
	leaq	.LC10(%rip), %rsi
	call	dcgettext@PLT
.LVL20:
	movq	%r12, %rsi
	movq	%rax, %rdi
	call	fputs_unlocked@PLT
.LVL21:
	.loc 1 151 7 view .LVU55
	movq	stdout(%rip), %r12
	xorl	%edi, %edi
	movl	$5, %edx
	leaq	.LC11(%rip), %rsi
	call	dcgettext@PLT
.LVL22:
	movq	%r12, %rsi
	.loc 1 152 7 is_stmt 0 view .LVU56
	leaq	.LC0(%rip), %r12
	.loc 1 151 7 view .LVU57
	movq	%rax, %rdi
	call	fputs_unlocked@PLT
.LVL23:
	.loc 1 152 7 is_stmt 1 view .LVU58
	leaq	.LC1(%rip), %rax
	cmpl	$1, uname_mode(%rip)
.LBB73:
.LBB70:
	.loc 4 636 67 is_stmt 0 view .LVU59
	leaq	.LC17(%rip), %rcx
.LBE70:
.LBE73:
	.loc 1 152 7 view .LVU60
	cmovne	%rax, %r12
.LVL24:
.LBB74:
.LBI44:
	.loc 4 634 1 is_stmt 1 view .LVU61
.LBB71:
	.loc 4 636 3 view .LVU62
	.loc 4 636 67 is_stmt 0 view .LVU63
	leaq	.LC12(%rip), %rax
	movq	%rcx, 48(%rsp)
	leaq	.LC2(%rip), %rsi
	movq	%rax, 8(%rsp)
	leaq	.LC13(%rip), %rax
	leaq	.LC19(%rip), %rcx
	movq	%rax, 16(%rsp)
	leaq	.LC14(%rip), %rax
	movq	%rax, 24(%rsp)
	leaq	.LC15(%rip), %rax
	movq	%rax, 32(%rsp)
	leaq	.LC16(%rip), %rax
	movq	%rbx, 64(%rsp)
	.loc 4 647 25 view .LVU64
	movq	%rsp, %rbx
	.loc 4 636 67 view .LVU65
	movq	%rsi, (%rsp)
	movq	%rax, 40(%rsp)
	movq	%rax, 56(%rsp)
	movq	%rax, 72(%rsp)
	movq	%rcx, 80(%rsp)
	movq	%rax, 88(%rsp)
	movq	$0, 96(%rsp)
	movq	$0, 104(%rsp)
	.loc 4 646 3 is_stmt 1 view .LVU66
.LVL25:
	.loc 4 647 3 view .LVU67
	.loc 4 649 3 view .LVU68
	.loc 4 649 9 view .LVU69
	jmp	.L13
	.p2align 4,,10
	.p2align 3
.L15:
	.loc 4 650 5 view .LVU70
	.loc 4 649 18 is_stmt 0 view .LVU71
	movq	16(%rbx), %rsi
	.loc 4 650 13 view .LVU72
	addq	$16, %rbx
.LVL26:
	.loc 4 649 9 is_stmt 1 view .LVU73
	testq	%rsi, %rsi
	je	.L14
.L13:
	.loc 4 649 33 is_stmt 0 view .LVU74
	movq	%r12, %rdi
	call	strcmp@PLT
.LVL27:
	.loc 4 649 28 view .LVU75
	testl	%eax, %eax
	jne	.L15
.L14:
	.loc 4 652 3 is_stmt 1 view .LVU76
	.loc 4 652 15 is_stmt 0 view .LVU77
	movq	8(%rbx), %r13
	.loc 4 655 11 view .LVU78
	movl	$5, %edx
	leaq	.LC20(%rip), %rsi
	xorl	%edi, %edi
	.loc 4 652 6 view .LVU79
	testq	%r13, %r13
	je	.L16
	.loc 4 653 5 is_stmt 1 view .LVU80
.LVL28:
	.loc 4 655 3 view .LVU81
	.loc 4 655 11 is_stmt 0 view .LVU82
	call	dcgettext@PLT
.LVL29:
.LBB46:
.LBB47:
	.loc 3 107 10 view .LVU83
	leaq	.LC21(%rip), %rcx
	movl	$1, %edi
	leaq	.LC22(%rip), %rdx
.LBE47:
.LBE46:
	.loc 4 655 11 view .LVU84
	movq	%rax, %rsi
.LVL30:
.LBB51:
.LBI46:
	.loc 3 105 1 is_stmt 1 view .LVU85
.LBB48:
	.loc 3 107 3 view .LVU86
	.loc 3 107 10 is_stmt 0 view .LVU87
	xorl	%eax, %eax
.LVL31:
	.loc 3 107 10 view .LVU88
	call	__printf_chk@PLT
.LVL32:
	.loc 3 107 10 view .LVU89
.LBE48:
.LBE51:
	.loc 4 659 3 is_stmt 1 view .LVU90
	.loc 4 659 29 is_stmt 0 view .LVU91
	movl	$5, %edi
	xorl	%esi, %esi
	call	setlocale@PLT
.LVL33:
	movq	%rax, %rdi
.LVL34:
	.loc 4 660 3 is_stmt 1 view .LVU92
	.loc 4 660 6 is_stmt 0 view .LVU93
	testq	%rax, %rax
	je	.L17
	.loc 4 660 22 view .LVU94
	movl	$3, %edx
	leaq	.LC23(%rip), %rsi
	call	strncmp@PLT
.LVL35:
	.loc 4 660 19 view .LVU95
	testl	%eax, %eax
	jne	.L21
.L17:
	.loc 4 669 3 is_stmt 1 view .LVU96
	.loc 4 669 11 is_stmt 0 view .LVU97
	xorl	%edi, %edi
	movl	$5, %edx
	leaq	.LC25(%rip), %rsi
	call	dcgettext@PLT
.LVL36:
.LBB52:
.LBB53:
	.loc 3 107 10 view .LVU98
	movq	%r12, %rcx
	movl	$1, %edi
	leaq	.LC21(%rip), %rdx
.LBE53:
.LBE52:
	.loc 4 669 11 view .LVU99
	movq	%rax, %rsi
.LVL37:
.LBB59:
.LBI52:
	.loc 3 105 1 is_stmt 1 view .LVU100
.LBB54:
	.loc 3 107 3 view .LVU101
	.loc 3 107 10 is_stmt 0 view .LVU102
	xorl	%eax, %eax
.LVL38:
	.loc 3 107 10 view .LVU103
	call	__printf_chk@PLT
.LVL39:
	.loc 3 107 10 view .LVU104
.LBE54:
.LBE59:
	.loc 4 671 3 is_stmt 1 view .LVU105
	cmpq	%r13, %r12
	leaq	.LC4(%rip), %rcx
	leaq	.LC3(%rip), %r12
.LVL40:
	.loc 4 671 3 is_stmt 0 view .LVU106
	cmovne	%rcx, %r12
.L18:
	.loc 4 671 11 view .LVU107
	xorl	%edi, %edi
	leaq	.LC26(%rip), %rsi
	movl	$5, %edx
	call	dcgettext@PLT
.LVL41:
.LBB60:
.LBB61:
	.loc 3 107 10 view .LVU108
	movq	%r12, %rcx
	movq	%r13, %rdx
	movl	$1, %edi
.LBE61:
.LBE60:
	.loc 4 671 11 view .LVU109
	movq	%rax, %rsi
.LVL42:
.LBB63:
.LBI60:
	.loc 3 105 1 is_stmt 1 view .LVU110
.LBB62:
	.loc 3 107 3 view .LVU111
	.loc 3 107 10 is_stmt 0 view .LVU112
	xorl	%eax, %eax
.LVL43:
	.loc 3 107 10 view .LVU113
	call	__printf_chk@PLT
.LVL44:
	.loc 3 107 10 view .LVU114
.LBE62:
.LBE63:
	.loc 4 673 1 view .LVU115
	jmp	.L9
.LVL45:
.L40:
	.loc 4 673 1 view .LVU116
.LBE71:
.LBE74:
	.loc 1 125 11 is_stmt 1 view .LVU117
	leaq	.LC7(%rip), %rsi
	xorl	%edi, %edi
	call	dcgettext@PLT
.LVL46:
	movq	%r12, %rsi
	movq	%rax, %rdi
	call	fputs_unlocked@PLT
.LVL47:
	.loc 1 134 11 view .LVU118
	movq	stdout(%rip), %r12
	movl	$5, %edx
	leaq	.LC8(%rip), %rsi
	jmp	.L39
.LVL48:
.L16:
.LBB75:
.LBB72:
	.loc 4 655 3 view .LVU119
	.loc 4 655 11 is_stmt 0 view .LVU120
	call	dcgettext@PLT
.LVL49:
.LBB64:
.LBB49:
	.loc 3 107 10 view .LVU121
	leaq	.LC21(%rip), %rcx
	movl	$1, %edi
	leaq	.LC22(%rip), %rdx
.LBE49:
.LBE64:
	.loc 4 655 11 view .LVU122
	movq	%rax, %rsi
.LVL50:
.LBB65:
	.loc 3 105 1 is_stmt 1 view .LVU123
.LBB50:
	.loc 3 107 3 view .LVU124
	.loc 3 107 10 is_stmt 0 view .LVU125
	xorl	%eax, %eax
.LVL51:
	.loc 3 107 10 view .LVU126
	call	__printf_chk@PLT
.LVL52:
	.loc 3 107 10 view .LVU127
.LBE50:
.LBE65:
	.loc 4 659 3 is_stmt 1 view .LVU128
	.loc 4 659 29 is_stmt 0 view .LVU129
	movl	$5, %edi
	xorl	%esi, %esi
	call	setlocale@PLT
.LVL53:
	movq	%rax, %rdi
.LVL54:
	.loc 4 660 3 is_stmt 1 view .LVU130
	.loc 4 660 6 is_stmt 0 view .LVU131
	testq	%rax, %rax
	je	.L37
	.loc 4 660 22 view .LVU132
	movl	$3, %edx
	leaq	.LC23(%rip), %rsi
	call	strncmp@PLT
.LVL55:
	.loc 4 660 19 view .LVU133
	testl	%eax, %eax
	jne	.L41
.L37:
	.loc 4 669 3 is_stmt 1 view .LVU134
	.loc 4 669 11 is_stmt 0 view .LVU135
	movl	$5, %edx
	leaq	.LC25(%rip), %rsi
	xorl	%edi, %edi
.LBB66:
.LBB55:
	.loc 3 107 10 view .LVU136
	movq	%r12, %r13
.LBE55:
.LBE66:
	.loc 4 669 11 view .LVU137
	call	dcgettext@PLT
.LVL56:
.LBB67:
.LBB56:
	.loc 3 107 10 view .LVU138
	movq	%r12, %rcx
	movl	$1, %edi
	leaq	.LC21(%rip), %rdx
.LBE56:
.LBE67:
	.loc 4 669 11 view .LVU139
	movq	%rax, %rsi
.LVL57:
.LBB68:
	.loc 3 105 1 is_stmt 1 view .LVU140
.LBB57:
	.loc 3 107 3 view .LVU141
	.loc 3 107 10 is_stmt 0 view .LVU142
	xorl	%eax, %eax
.LVL58:
	.loc 3 107 10 view .LVU143
.LBE57:
.LBE68:
	.loc 4 671 3 view .LVU144
	leaq	.LC3(%rip), %r12
.LVL59:
.LBB69:
.LBB58:
	.loc 3 107 10 view .LVU145
	call	__printf_chk@PLT
.LVL60:
	.loc 3 107 10 view .LVU146
.LBE58:
.LBE69:
	.loc 4 671 3 is_stmt 1 view .LVU147
	jmp	.L18
.LVL61:
.L41:
	.loc 4 660 19 is_stmt 0 view .LVU148
	movq	%r12, %r13
.LVL62:
.L21:
	.loc 4 666 7 is_stmt 1 view .LVU149
	movq	stdout(%rip), %r14
	xorl	%edi, %edi
	movl	$5, %edx
	leaq	.LC24(%rip), %rsi
	call	dcgettext@PLT
.LVL63:
	movq	%rax, %rdi
	movq	%r14, %rsi
	call	fputs_unlocked@PLT
.LVL64:
	jmp	.L17
.LBE72:
.LBE75:
	.cfi_endproc
.LFE135:
	.size	usage, .-usage
	.section	.rodata.str1.1
.LC27:
	.string	"/usr/local/share/locale"
.LC28:
	.string	"Karel Zak"
.LC29:
	.string	"David MacKenzie"
.LC30:
	.string	"asnrvmpio"
.LC31:
	.string	"extra operand %s"
.LC32:
	.string	"cannot get system name"
.LC33:
	.string	"GNU/Linux"
	.section	.text.startup,"ax",@progbits
	.p2align 4
	.globl	main
	.type	main, @function
main:
.LVL65:
.LFB138:
	.loc 1 261 1 view -0
	.cfi_startproc
	.loc 1 261 1 is_stmt 0 view .LVU151
	endbr64
	pushq	%r13
	.cfi_def_cfa_offset 16
	.cfi_offset 13, -16
	pushq	%r12
	.cfi_def_cfa_offset 24
	.cfi_offset 12, -24
	pushq	%rbp
	.cfi_def_cfa_offset 32
	.cfi_offset 6, -32
	movl	%edi, %ebp
	pushq	%rbx
	.cfi_def_cfa_offset 40
	.cfi_offset 3, -40
	movq	%rsi, %rbx
	subq	$408, %rsp
	.cfi_def_cfa_offset 448
	.loc 1 268 3 view .LVU152
	movq	(%rsi), %rdi
.LVL66:
	.loc 1 261 1 view .LVU153
	movq	%fs:40, %rax
	movq	%rax, 392(%rsp)
	xorl	%eax, %eax
	.loc 1 262 3 is_stmt 1 view .LVU154
	.loc 1 265 3 view .LVU155
.LVL67:
	.loc 1 267 33 view .LVU156
	.loc 1 268 3 view .LVU157
	call	set_program_name@PLT
.LVL68:
	.loc 1 269 3 view .LVU158
	leaq	.LC4(%rip), %rsi
	movl	$6, %edi
	call	setlocale@PLT
.LVL69:
	.loc 1 270 3 view .LVU159
	leaq	.LC27(%rip), %rsi
	leaq	.LC13(%rip), %rdi
	call	bindtextdomain@PLT
.LVL70:
	.loc 1 271 3 view .LVU160
	leaq	.LC13(%rip), %rdi
	call	textdomain@PLT
.LVL71:
	.loc 1 273 3 view .LVU161
	movq	close_stdout@GOTPCREL(%rip), %rdi
	call	atexit@PLT
.LVL72:
	.loc 1 275 3 view .LVU162
.LBB84:
.LBI84:
	.loc 1 175 1 view .LVU163
.LBB85:
	.loc 1 177 3 view .LVU164
	.loc 1 178 3 view .LVU165
	.loc 1 180 3 view .LVU166
	.loc 1 180 6 is_stmt 0 view .LVU167
	cmpl	$2, uname_mode(%rip)
	je	.L43
	.loc 1 178 16 view .LVU168
	xorl	%r12d, %r12d
	leaq	.L54(%rip), %r13
.LVL73:
.L44:
	.loc 1 199 13 is_stmt 1 view .LVU169
	.loc 1 199 19 is_stmt 0 view .LVU170
	xorl	%r8d, %r8d
	leaq	uname_long_options(%rip), %rcx
	movq	%rbx, %rsi
	movl	%ebp, %edi
	leaq	.LC30(%rip), %rdx
	call	getopt_long@PLT
.LVL74:
	.loc 1 199 13 view .LVU171
	cmpl	$-1, %eax
	je	.L126
	.loc 1 202 11 is_stmt 1 view .LVU172
	cmpl	$118, %eax
	jg	.L125
	cmpl	$96, %eax
	jle	.L127
	subl	$97, %eax
.LVL75:
	.loc 1 202 11 is_stmt 0 view .LVU173
	cmpl	$21, %eax
	ja	.L125
	movslq	0(%r13,%rax,4), %rax
	addq	%r13, %rax
	notrack jmp	*%rax
	.section	.rodata
	.align 4
	.align 4
.L54:
	.long	.L88-.L54
	.long	.L125-.L54
	.long	.L125-.L54
	.long	.L125-.L54
	.long	.L125-.L54
	.long	.L125-.L54
	.long	.L125-.L54
	.long	.L125-.L54
	.long	.L61-.L54
	.long	.L125-.L54
	.long	.L125-.L54
	.long	.L125-.L54
	.long	.L60-.L54
	.long	.L59-.L54
	.long	.L58-.L54
	.long	.L57-.L54
	.long	.L125-.L54
	.long	.L56-.L54
	.long	.L55-.L54
	.long	.L125-.L54
	.long	.L125-.L54
	.long	.L53-.L54
	.section	.text.startup
.L88:
	movl	$-1, %r12d
.LVL76:
	.loc 1 202 11 view .LVU174
	jmp	.L44
.LVL77:
.L53:
	.loc 1 221 15 is_stmt 1 view .LVU175
	.loc 1 221 23 is_stmt 0 view .LVU176
	orl	$8, %r12d
.LVL78:
	.loc 1 222 15 is_stmt 1 view .LVU177
	jmp	.L44
.L55:
	.loc 1 209 15 view .LVU178
	.loc 1 209 23 is_stmt 0 view .LVU179
	orl	$1, %r12d
.LVL79:
	.loc 1 210 15 is_stmt 1 view .LVU180
	jmp	.L44
.L56:
	.loc 1 217 15 view .LVU181
	.loc 1 217 23 is_stmt 0 view .LVU182
	orl	$4, %r12d
.LVL80:
	.loc 1 218 15 is_stmt 1 view .LVU183
	jmp	.L44
.L57:
	.loc 1 229 15 view .LVU184
	.loc 1 229 23 is_stmt 0 view .LVU185
	orl	$32, %r12d
.LVL81:
	.loc 1 230 15 is_stmt 1 view .LVU186
	jmp	.L44
.L58:
	.loc 1 237 15 view .LVU187
	.loc 1 237 23 is_stmt 0 view .LVU188
	orb	$-128, %r12b
.LVL82:
	.loc 1 238 15 is_stmt 1 view .LVU189
	jmp	.L44
.L59:
	.loc 1 213 15 view .LVU190
	.loc 1 213 23 is_stmt 0 view .LVU191
	orl	$2, %r12d
.LVL83:
	.loc 1 214 15 is_stmt 1 view .LVU192
	jmp	.L44
.L60:
	.loc 1 225 15 view .LVU193
	.loc 1 225 23 is_stmt 0 view .LVU194
	orl	$16, %r12d
.LVL84:
	.loc 1 226 15 is_stmt 1 view .LVU195
	jmp	.L44
.L61:
	.loc 1 233 15 view .LVU196
	.loc 1 233 23 is_stmt 0 view .LVU197
	orl	$64, %r12d
.LVL85:
	.loc 1 234 15 is_stmt 1 view .LVU198
	jmp	.L44
.LVL86:
	.p2align 4,,10
	.p2align 3
.L127:
	.loc 1 202 11 is_stmt 0 view .LVU199
	cmpl	$-131, %eax
	jne	.L124
	.loc 1 240 13 is_stmt 1 view .LVU200
	.loc 1 240 34 view .LVU201
	.loc 1 242 13 view .LVU202
	cmpl	$1, uname_mode(%rip)
	leaq	.LC1(%rip), %rax
.LVL87:
	.loc 1 242 13 is_stmt 0 view .LVU203
	leaq	.LC0(%rip), %rsi
	movq	stdout(%rip), %rdi
	cmovne	%rax, %rsi
	movq	Version(%rip), %rcx
	xorl	%r9d, %r9d
	xorl	%eax, %eax
	leaq	.LC29(%rip), %r8
	leaq	.LC22(%rip), %rdx
	call	version_etc@PLT
.LVL88:
	.loc 1 242 13 is_stmt 1 view .LVU204
	xorl	%edi, %edi
	call	exit@PLT
.LVL89:
	.p2align 4,,10
	.p2align 3
.L124:
	.loc 1 185 11 is_stmt 0 view .LVU205
	cmpl	$-130, %eax
	jne	.L125
	.loc 1 187 13 is_stmt 1 view .LVU206
	xorl	%edi, %edi
	call	usage
.LVL90:
.L43:
	.loc 1 182 7 view .LVU207
	.loc 1 182 13 view .LVU208
	.loc 1 182 19 is_stmt 0 view .LVU209
	xorl	%r8d, %r8d
	leaq	arch_long_options(%rip), %rcx
	movq	%rbx, %rsi
	movl	%ebp, %edi
	leaq	.LC4(%rip), %rdx
	call	getopt_long@PLT
.LVL91:
	.loc 1 182 13 view .LVU210
	cmpl	$-1, %eax
	je	.L128
	.loc 1 185 11 is_stmt 1 view .LVU211
	cmpl	$-131, %eax
	jne	.L124
	.loc 1 187 13 view .LVU212
	.loc 1 187 34 view .LVU213
	.loc 1 189 13 view .LVU214
	cmpl	$1, uname_mode(%rip)
	leaq	.LC1(%rip), %rax
.LVL92:
	.loc 1 189 13 is_stmt 0 view .LVU215
	leaq	.LC0(%rip), %rsi
	movq	stdout(%rip), %rdi
	cmovne	%rax, %rsi
	pushq	%rax
	.cfi_remember_state
	.cfi_def_cfa_offset 456
	xorl	%eax, %eax
	movq	Version(%rip), %rcx
	pushq	$0
	.cfi_def_cfa_offset 464
	leaq	.LC28(%rip), %r9
	leaq	.LC29(%rip), %r8
	leaq	.LC22(%rip), %rdx
	call	version_etc@PLT
.LVL93:
	.loc 1 189 13 is_stmt 1 view .LVU216
	xorl	%edi, %edi
	call	exit@PLT
.LVL94:
.L128:
	.cfi_restore_state
	.loc 1 250 3 view .LVU217
	.loc 1 250 12 is_stmt 0 view .LVU218
	movslq	optind(%rip), %rax
.LVL95:
	.loc 1 250 6 view .LVU219
	cmpl	%eax, %ebp
	jne	.L84
	.loc 1 256 3 is_stmt 1 view .LVU220
.LVL96:
	.loc 1 256 3 is_stmt 0 view .LVU221
.LBE85:
.LBE84:
	.loc 1 277 3 is_stmt 1 view .LVU222
	.loc 1 280 3 view .LVU223
.LBB89:
	.loc 1 284 7 view .LVU224
	.loc 1 286 7 view .LVU225
	.loc 1 286 11 is_stmt 0 view .LVU226
	movq	%rsp, %rdi
	call	uname@PLT
.LVL97:
	.loc 1 286 10 view .LVU227
	addl	$1, %eax
	je	.L82
	movl	$16, %ebx
.LVL98:
	.loc 1 286 10 view .LVU228
.LBE89:
.LBB91:
.LBB86:
	.loc 1 195 15 view .LVU229
	movl	$16, %r12d
.LVL99:
.L71:
	.loc 1 195 15 view .LVU230
.LBE86:
.LBE91:
.LBB92:
	.loc 1 295 7 is_stmt 1 view .LVU231
	.loc 1 295 10 is_stmt 0 view .LVU232
	testb	$8, %bl
	jne	.L129
.L72:
	.loc 1 297 7 is_stmt 1 view .LVU233
	.loc 1 297 10 is_stmt 0 view .LVU234
	testb	$16, %bl
	jne	.L130
.L66:
.LBE92:
	.loc 1 301 3 is_stmt 1 view .LVU235
	.loc 1 301 6 is_stmt 0 view .LVU236
	testb	$32, %bl
	je	.L74
.LBB93:
	.loc 1 303 7 is_stmt 1 view .LVU237
.LVL100:
	.loc 1 341 7 view .LVU238
	.loc 1 341 10 is_stmt 0 view .LVU239
	addl	$1, %r12d
	je	.L76
	.loc 1 342 9 is_stmt 1 view .LVU240
	leaq	unknown.7116(%rip), %rdi
	call	print_element
.LVL101:
.LBE93:
	.loc 1 345 3 view .LVU241
	.loc 1 345 6 is_stmt 0 view .LVU242
	testb	$64, %bl
	jne	.L78
.LVL102:
.L76:
	.loc 1 370 3 is_stmt 1 view .LVU243
	.loc 1 370 6 is_stmt 0 view .LVU244
	andb	$-128, %bl
	jne	.L131
.L79:
	.loc 1 373 3 is_stmt 1 view .LVU245
.LVL103:
.LBB94:
.LBI94:
	.loc 2 108 1 view .LVU246
.LBB95:
	.loc 2 110 3 view .LVU247
	.loc 2 110 10 is_stmt 0 view .LVU248
	movq	stdout(%rip), %rdi
	movq	40(%rdi), %rax
	cmpq	48(%rdi), %rax
	jnb	.L132
	leaq	1(%rax), %rdx
	movq	%rdx, 40(%rdi)
	movb	$10, (%rax)
.L81:
.LVL104:
	.loc 2 110 10 view .LVU249
.LBE95:
.LBE94:
	.loc 1 375 3 is_stmt 1 view .LVU250
	.loc 1 376 1 is_stmt 0 view .LVU251
	movq	392(%rsp), %rax
	xorq	%fs:40, %rax
	jne	.L133
	addq	$408, %rsp
	.cfi_remember_state
	.cfi_def_cfa_offset 40
	xorl	%eax, %eax
	popq	%rbx
	.cfi_def_cfa_offset 32
	popq	%rbp
	.cfi_def_cfa_offset 24
	popq	%r12
	.cfi_def_cfa_offset 16
	popq	%r13
	.cfi_def_cfa_offset 8
	ret
.L74:
	.cfi_restore_state
	.loc 1 345 3 is_stmt 1 view .LVU252
	.loc 1 345 6 is_stmt 0 view .LVU253
	testb	$64, %bl
	je	.L76
.LBB97:
	.loc 1 347 7 is_stmt 1 view .LVU254
.LVL105:
	.loc 1 366 7 view .LVU255
	.loc 1 366 10 is_stmt 0 view .LVU256
	addl	$1, %r12d
	je	.L76
.LVL106:
.L78:
	.loc 1 367 9 is_stmt 1 view .LVU257
	leaq	unknown.7116(%rip), %rdi
	call	print_element
.LVL107:
	jmp	.L76
.LVL108:
.L126:
	.loc 1 367 9 is_stmt 0 view .LVU258
.LBE97:
.LBB98:
.LBB87:
	.loc 1 250 3 is_stmt 1 view .LVU259
	.loc 1 250 12 is_stmt 0 view .LVU260
	movslq	optind(%rip), %rax
.LVL109:
	.loc 1 250 6 view .LVU261
	cmpl	%eax, %ebp
	jne	.L84
	.loc 1 256 3 is_stmt 1 view .LVU262
.LVL110:
	.loc 1 256 3 is_stmt 0 view .LVU263
.LBE87:
.LBE98:
	.loc 1 277 3 is_stmt 1 view .LVU264
	testl	%r12d, %r12d
	movl	$1, %ebx
.LVL111:
	.loc 1 277 3 is_stmt 0 view .LVU265
	cmovne	%r12d, %ebx
.LVL112:
	.loc 1 280 3 is_stmt 1 view .LVU266
	.loc 1 280 6 is_stmt 0 view .LVU267
	testb	$31, %bl
	je	.L66
.LBB99:
	.loc 1 284 7 is_stmt 1 view .LVU268
	.loc 1 286 7 view .LVU269
	.loc 1 286 11 is_stmt 0 view .LVU270
	movq	%rsp, %rbp
.LVL113:
	.loc 1 286 11 view .LVU271
	movq	%rbp, %rdi
	call	uname@PLT
.LVL114:
	.loc 1 286 10 view .LVU272
	addl	$1, %eax
	je	.L82
	.loc 1 289 7 is_stmt 1 view .LVU273
	.loc 1 289 10 is_stmt 0 view .LVU274
	testb	$1, %bl
	je	.L68
	.loc 1 290 9 is_stmt 1 view .LVU275
	movq	%rbp, %rdi
	call	print_element
.LVL115:
.L68:
	.loc 1 291 7 view .LVU276
	.loc 1 291 10 is_stmt 0 view .LVU277
	testb	$2, %bl
	je	.L69
	.loc 1 292 9 is_stmt 1 view .LVU278
	leaq	65(%rsp), %rdi
	call	print_element
.LVL116:
.L69:
	.loc 1 293 7 view .LVU279
	.loc 1 293 10 is_stmt 0 view .LVU280
	testb	$4, %bl
	je	.L71
	.loc 1 294 9 is_stmt 1 view .LVU281
	leaq	130(%rsp), %rdi
	call	print_element
.LVL117:
	jmp	.L71
.LVL118:
.L131:
	.loc 1 294 9 is_stmt 0 view .LVU282
.LBE99:
	.loc 1 371 5 is_stmt 1 view .LVU283
	leaq	.LC33(%rip), %rdi
	call	print_element
.LVL119:
	jmp	.L79
.LVL120:
.L84:
.LBB100:
.LBB88:
	.loc 1 252 7 view .LVU284
	movq	(%rbx,%rax,8), %rdi
	call	quote@PLT
.LVL121:
	.loc 1 252 20 is_stmt 0 view .LVU285
	movl	$5, %edx
	leaq	.LC31(%rip), %rsi
	xorl	%edi, %edi
	.loc 1 252 7 view .LVU286
	movq	%rax, %r12
	.loc 1 252 20 view .LVU287
	call	dcgettext@PLT
.LVL122:
	.loc 1 252 7 view .LVU288
	movq	%r12, %rcx
	xorl	%esi, %esi
	xorl	%edi, %edi
	.loc 1 252 20 view .LVU289
	movq	%rax, %rdx
	.loc 1 252 7 view .LVU290
	xorl	%eax, %eax
	call	error@PLT
.LVL123:
.L125:
	.loc 1 253 7 is_stmt 1 view .LVU291
	movl	$1, %edi
	call	usage
.LVL124:
.L130:
	.loc 1 253 7 is_stmt 0 view .LVU292
.LBE88:
.LBE100:
.LBB101:
	.loc 1 298 9 is_stmt 1 view .LVU293
	leaq	260(%rsp), %rdi
	call	print_element
.LVL125:
	jmp	.L66
.L129:
	.loc 1 296 9 view .LVU294
	leaq	195(%rsp), %rdi
	call	print_element
.LVL126:
	jmp	.L72
.LVL127:
.L132:
	.loc 1 296 9 is_stmt 0 view .LVU295
.LBE101:
.LBB102:
.LBB96:
	.loc 2 110 10 view .LVU296
	movl	$10, %esi
	call	__overflow@PLT
.LVL128:
	jmp	.L81
.LVL129:
.L82:
	.loc 2 110 10 view .LVU297
.LBE96:
.LBE102:
.LBB103:
.LBB90:
	.loc 1 287 9 is_stmt 1 view .LVU298
	movl	$5, %edx
	leaq	.LC32(%rip), %rsi
	xorl	%edi, %edi
	call	dcgettext@PLT
.LVL130:
	movq	%rax, %r12
	call	__errno_location@PLT
.LVL131:
	movq	%r12, %rdx
	movl	$1, %edi
	movl	(%rax), %esi
	xorl	%eax, %eax
	call	error@PLT
.LVL132:
.L133:
.LBE90:
.LBE103:
	.loc 1 376 1 is_stmt 0 view .LVU299
	call	__stack_chk_fail@PLT
.LVL133:
	.cfi_endproc
.LFE138:
	.size	main, .-main
	.local	printed.7083
	.comm	printed.7083,1,1
	.section	.rodata
	.align 8
	.type	unknown.7116, @object
	.size	unknown.7116, 8
unknown.7116:
	.string	"unknown"
	.section	.rodata.str1.1
.LC34:
	.string	"help"
.LC35:
	.string	"version"
	.section	.data.rel.ro.local,"aw"
	.align 32
	.type	arch_long_options, @object
	.size	arch_long_options, 96
arch_long_options:
	.quad	.LC34
	.long	0
	.zero	4
	.quad	0
	.long	-130
	.zero	4
	.quad	.LC35
	.long	0
	.zero	4
	.quad	0
	.long	-131
	.zero	4
	.quad	0
	.long	0
	.zero	4
	.quad	0
	.long	0
	.zero	4
	.section	.rodata.str1.1
.LC36:
	.string	"all"
.LC37:
	.string	"kernel-name"
.LC38:
	.string	"sysname"
.LC39:
	.string	"nodename"
.LC40:
	.string	"kernel-release"
.LC41:
	.string	"release"
.LC42:
	.string	"kernel-version"
.LC43:
	.string	"machine"
.LC44:
	.string	"processor"
.LC45:
	.string	"hardware-platform"
.LC46:
	.string	"operating-system"
	.section	.data.rel.ro.local
	.align 32
	.type	uname_long_options, @object
	.size	uname_long_options, 448
uname_long_options:
	.quad	.LC36
	.long	0
	.zero	4
	.quad	0
	.long	97
	.zero	4
	.quad	.LC37
	.long	0
	.zero	4
	.quad	0
	.long	115
	.zero	4
	.quad	.LC38
	.long	0
	.zero	4
	.quad	0
	.long	115
	.zero	4
	.quad	.LC39
	.long	0
	.zero	4
	.quad	0
	.long	110
	.zero	4
	.quad	.LC40
	.long	0
	.zero	4
	.quad	0
	.long	114
	.zero	4
	.quad	.LC41
	.long	0
	.zero	4
	.quad	0
	.long	114
	.zero	4
	.quad	.LC42
	.long	0
	.zero	4
	.quad	0
	.long	118
	.zero	4
	.quad	.LC43
	.long	0
	.zero	4
	.quad	0
	.long	109
	.zero	4
	.quad	.LC44
	.long	0
	.zero	4
	.quad	0
	.long	112
	.zero	4
	.quad	.LC45
	.long	0
	.zero	4
	.quad	0
	.long	105
	.zero	4
	.quad	.LC46
	.long	0
	.zero	4
	.quad	0
	.long	111
	.zero	4
	.quad	.LC34
	.long	0
	.zero	4
	.quad	0
	.long	-130
	.zero	4
	.quad	.LC35
	.long	0
	.zero	4
	.quad	0
	.long	-131
	.zero	4
	.quad	0
	.long	0
	.zero	4
	.quad	0
	.long	0
	.zero	4
	.text
.Letext0:
	.file 5 "/usr/lib/gcc/x86_64-linux-gnu/9/include/stddef.h"
	.file 6 "/usr/include/x86_64-linux-gnu/bits/types.h"
	.file 7 "/usr/include/x86_64-linux-gnu/bits/types/struct_FILE.h"
	.file 8 "/usr/include/x86_64-linux-gnu/bits/types/FILE.h"
	.file 9 "/usr/include/stdio.h"
	.file 10 "/usr/include/x86_64-linux-gnu/bits/sys_errlist.h"
	.file 11 "/usr/include/x86_64-linux-gnu/bits/types/time_t.h"
	.file 12 "./lib/sys/select.h"
	.file 13 "/usr/include/x86_64-linux-gnu/sys/utsname.h"
	.file 14 "/usr/include/x86_64-linux-gnu/bits/getopt_core.h"
	.file 15 "/usr/include/x86_64-linux-gnu/bits/getopt_ext.h"
	.file 16 "/usr/include/time.h"
	.file 17 "/usr/include/signal.h"
	.file 18 "/usr/include/unistd.h"
	.file 19 "/usr/include/errno.h"
	.file 20 "src/version.h"
	.file 21 "./lib/exitfail.h"
	.file 22 "./lib/timespec.h"
	.file 23 "./lib/version-etc.h"
	.file 24 "./lib/progname.h"
	.file 25 "./lib/quotearg.h"
	.file 26 "./lib/error.h"
	.file 27 "./lib/quote.h"
	.file 28 "src/uname.h"
	.file 29 "/usr/include/libintl.h"
	.file 30 "/usr/include/stdlib.h"
	.file 31 "/usr/include/locale.h"
	.file 32 "/usr/include/string.h"
	.section	.note.GNU-stack,"",@progbits
	.section	.note.gnu.property,"a"
	.align 8
	.long	 1f - 0f
	.long	 4f - 1f
	.long	 5
0:
	.string	 "GNU"
1:
	.align 8
	.long	 0xc0000002
	.long	 3f - 2f
2:
	.long	 0x3
3:
	.align 8
4:
