	.file	"wc.c"
	.text
.Ltext0:
	.section	.rodata.str1.1,"aMS",@progbits,1
.LC0:
	.string	" %s"
	.text
	.p2align 4
	.type	write_counts, @function
write_counts:
.LVL0:
.LFB171:
	.file 1 "src/wc.c"
	.loc 1 177 1 view -0
	.cfi_startproc
	.loc 1 177 1 is_stmt 0 view .LVU1
	pushq	%r15
	.cfi_def_cfa_offset 16
	.cfi_offset 15, -16
	movq	%rdx, %r15
	pushq	%r14
	.cfi_def_cfa_offset 24
	.cfi_offset 14, -24
	movq	%rcx, %r14
	pushq	%r13
	.cfi_def_cfa_offset 32
	.cfi_offset 13, -32
	movq	%r8, %r13
	pushq	%r12
	.cfi_def_cfa_offset 40
	.cfi_offset 12, -40
	movq	%r9, %r12
	pushq	%rbp
	.cfi_def_cfa_offset 48
	.cfi_offset 6, -48
	.loc 1 179 15 view .LVU2
	leaq	1+format_sp_int.8232(%rip), %rbp
	.loc 1 177 1 view .LVU3
	pushq	%rbx
	.cfi_def_cfa_offset 56
	.cfi_offset 3, -56
	movq	%rsi, %rbx
	subq	$40, %rsp
	.cfi_def_cfa_offset 96
	.loc 1 177 1 view .LVU4
	movq	%fs:40, %rax
	movq	%rax, 24(%rsp)
	xorl	%eax, %eax
	.loc 1 178 3 is_stmt 1 view .LVU5
	.loc 1 179 3 view .LVU6
.LVL1:
	.loc 1 180 3 view .LVU7
	.loc 1 182 3 view .LVU8
	.loc 1 182 6 is_stmt 0 view .LVU9
	cmpb	$0, print_lines(%rip)
	jne	.L21
.LVL2:
.L2:
	.loc 1 187 3 is_stmt 1 view .LVU10
	.loc 1 187 6 is_stmt 0 view .LVU11
	cmpb	$0, print_words(%rip)
	jne	.L22
.LVL3:
.L3:
	.loc 1 192 3 is_stmt 1 view .LVU12
	.loc 1 192 6 is_stmt 0 view .LVU13
	cmpb	$0, print_chars(%rip)
	jne	.L23
.LVL4:
.L4:
	.loc 1 197 3 is_stmt 1 view .LVU14
	.loc 1 197 6 is_stmt 0 view .LVU15
	cmpb	$0, print_bytes(%rip)
	jne	.L24
.LVL5:
.L5:
	.loc 1 202 3 is_stmt 1 view .LVU16
	.loc 1 202 6 is_stmt 0 view .LVU17
	cmpb	$0, print_linelength(%rip)
	jne	.L25
.L6:
	.loc 1 206 3 is_stmt 1 view .LVU18
	.loc 1 206 6 is_stmt 0 view .LVU19
	testq	%r12, %r12
	je	.L7
	.loc 1 207 5 is_stmt 1 view .LVU20
	.loc 1 207 20 is_stmt 0 view .LVU21
	movl	$10, %esi
	movq	%r12, %rdi
	call	strchr@PLT
.LVL6:
	.loc 1 207 5 view .LVU22
	testq	%rax, %rax
	je	.L8
	.loc 1 207 42 discriminator 1 view .LVU23
	movq	%r12, %rdx
	movl	$3, %esi
	xorl	%edi, %edi
	call	quotearg_n_style_colon@PLT
.LVL7:
	movq	%rax, %r12
.LVL8:
.L8:
.LBB142:
.LBI142:
	.file 2 "/usr/include/x86_64-linux-gnu/bits/stdio2.h"
	.loc 2 105 1 is_stmt 1 discriminator 4 view .LVU24
.LBB143:
	.loc 2 107 3 discriminator 4 view .LVU25
	.loc 2 107 10 is_stmt 0 discriminator 4 view .LVU26
	movq	%r12, %rdx
	leaq	.LC0(%rip), %rsi
	movl	$1, %edi
	xorl	%eax, %eax
	call	__printf_chk@PLT
.LVL9:
.L7:
	.loc 2 107 10 discriminator 4 view .LVU27
.LBE143:
.LBE142:
	.loc 1 208 3 is_stmt 1 view .LVU28
.LBB144:
.LBI144:
	.file 3 "/usr/include/x86_64-linux-gnu/bits/stdio.h"
	.loc 3 108 1 view .LVU29
.LBB145:
	.loc 3 110 3 view .LVU30
	.loc 3 110 10 is_stmt 0 view .LVU31
	movq	stdout(%rip), %rdi
	movq	40(%rdi), %rax
	cmpq	48(%rdi), %rax
	jnb	.L26
	leaq	1(%rax), %rdx
	movq	%rdx, 40(%rdi)
	movb	$10, (%rax)
.LVL10:
.L1:
	.loc 3 110 10 view .LVU32
.LBE145:
.LBE144:
	.loc 1 209 1 view .LVU33
	movq	24(%rsp), %rax
	xorq	%fs:40, %rax
	jne	.L27
	addq	$40, %rsp
	.cfi_remember_state
	.cfi_def_cfa_offset 56
	popq	%rbx
	.cfi_def_cfa_offset 48
.LVL11:
	.loc 1 209 1 view .LVU34
	popq	%rbp
	.cfi_def_cfa_offset 40
.LVL12:
	.loc 1 209 1 view .LVU35
	popq	%r12
	.cfi_def_cfa_offset 32
	popq	%r13
	.cfi_def_cfa_offset 24
.LVL13:
	.loc 1 209 1 view .LVU36
	popq	%r14
	.cfi_def_cfa_offset 16
.LVL14:
	.loc 1 209 1 view .LVU37
	popq	%r15
	.cfi_def_cfa_offset 8
.LVL15:
	.loc 1 209 1 view .LVU38
	ret
.LVL16:
	.p2align 4,,10
	.p2align 3
.L25:
	.cfi_restore_state
	.loc 1 204 7 is_stmt 1 view .LVU39
	movq	%rsp, %rsi
	movq	%r13, %rdi
	call	umaxtostr@PLT
.LVL17:
.LBB147:
.LBB148:
	.loc 2 107 10 is_stmt 0 view .LVU40
	movl	number_width(%rip), %edx
	movq	%rbp, %rsi
	movl	$1, %edi
.LBE148:
.LBE147:
	.loc 1 204 7 view .LVU41
	movq	%rax, %rcx
.LVL18:
.LBB150:
.LBI147:
	.loc 2 105 1 is_stmt 1 view .LVU42
.LBB149:
	.loc 2 107 3 view .LVU43
	.loc 2 107 10 is_stmt 0 view .LVU44
	xorl	%eax, %eax
	call	__printf_chk@PLT
.LVL19:
	.loc 2 107 10 view .LVU45
	jmp	.L6
.LVL20:
	.p2align 4,,10
	.p2align 3
.L24:
	.loc 2 107 10 view .LVU46
.LBE149:
.LBE150:
	.loc 1 199 7 is_stmt 1 view .LVU47
	movq	%rsp, %rsi
	movq	%r14, %rdi
	call	umaxtostr@PLT
.LVL21:
.LBB151:
.LBB152:
	.loc 2 107 10 is_stmt 0 view .LVU48
	movl	number_width(%rip), %edx
	movq	%rbp, %rsi
	movl	$1, %edi
.LBE152:
.LBE151:
	.loc 1 199 7 view .LVU49
	movq	%rax, %rcx
.LVL22:
.LBB155:
.LBI151:
	.loc 2 105 1 is_stmt 1 view .LVU50
.LBB153:
	.loc 2 107 3 view .LVU51
	.loc 2 107 10 is_stmt 0 view .LVU52
	xorl	%eax, %eax
.LBE153:
.LBE155:
	.loc 1 200 18 view .LVU53
	leaq	format_sp_int.8232(%rip), %rbp
.LVL23:
.LBB156:
.LBB154:
	.loc 2 107 10 view .LVU54
	call	__printf_chk@PLT
.LVL24:
	.loc 2 107 10 view .LVU55
.LBE154:
.LBE156:
	.loc 1 200 7 is_stmt 1 view .LVU56
	.loc 1 200 7 is_stmt 0 view .LVU57
	jmp	.L5
.LVL25:
	.p2align 4,,10
	.p2align 3
.L23:
	.loc 1 194 7 is_stmt 1 view .LVU58
	movq	%rsp, %rsi
	movq	%r15, %rdi
	call	umaxtostr@PLT
.LVL26:
.LBB157:
.LBB158:
	.loc 2 107 10 is_stmt 0 view .LVU59
	movl	number_width(%rip), %edx
	movq	%rbp, %rsi
	movl	$1, %edi
.LBE158:
.LBE157:
	.loc 1 194 7 view .LVU60
	movq	%rax, %rcx
.LVL27:
.LBB161:
.LBI157:
	.loc 2 105 1 is_stmt 1 view .LVU61
.LBB159:
	.loc 2 107 3 view .LVU62
	.loc 2 107 10 is_stmt 0 view .LVU63
	xorl	%eax, %eax
.LBE159:
.LBE161:
	.loc 1 195 18 view .LVU64
	leaq	format_sp_int.8232(%rip), %rbp
.LVL28:
.LBB162:
.LBB160:
	.loc 2 107 10 view .LVU65
	call	__printf_chk@PLT
.LVL29:
	.loc 2 107 10 view .LVU66
.LBE160:
.LBE162:
	.loc 1 195 7 is_stmt 1 view .LVU67
	.loc 1 195 7 is_stmt 0 view .LVU68
	jmp	.L4
.LVL30:
	.p2align 4,,10
	.p2align 3
.L22:
	.loc 1 189 7 is_stmt 1 view .LVU69
	movq	%rsp, %rsi
	movq	%rbx, %rdi
	call	umaxtostr@PLT
.LVL31:
.LBB163:
.LBB164:
	.loc 2 107 10 is_stmt 0 view .LVU70
	movl	number_width(%rip), %edx
	movq	%rbp, %rsi
	movl	$1, %edi
.LBE164:
.LBE163:
	.loc 1 189 7 view .LVU71
	movq	%rax, %rcx
.LVL32:
.LBB167:
.LBI163:
	.loc 2 105 1 is_stmt 1 view .LVU72
.LBB165:
	.loc 2 107 3 view .LVU73
	.loc 2 107 10 is_stmt 0 view .LVU74
	xorl	%eax, %eax
.LBE165:
.LBE167:
	.loc 1 190 18 view .LVU75
	leaq	format_sp_int.8232(%rip), %rbp
.LVL33:
.LBB168:
.LBB166:
	.loc 2 107 10 view .LVU76
	call	__printf_chk@PLT
.LVL34:
	.loc 2 107 10 view .LVU77
.LBE166:
.LBE168:
	.loc 1 190 7 is_stmt 1 view .LVU78
	.loc 1 190 7 is_stmt 0 view .LVU79
	jmp	.L3
.LVL35:
	.p2align 4,,10
	.p2align 3
.L21:
	.loc 1 184 7 is_stmt 1 view .LVU80
	movq	%rsp, %rsi
	call	umaxtostr@PLT
.LVL36:
.LBB169:
.LBB170:
	.loc 2 107 10 is_stmt 0 view .LVU81
	movl	number_width(%rip), %edx
	movq	%rbp, %rsi
	movl	$1, %edi
.LBE170:
.LBE169:
	.loc 1 184 7 view .LVU82
	movq	%rax, %rcx
.LVL37:
.LBB173:
.LBI169:
	.loc 2 105 1 is_stmt 1 view .LVU83
.LBB171:
	.loc 2 107 3 view .LVU84
	.loc 2 107 10 is_stmt 0 view .LVU85
	xorl	%eax, %eax
.LBE171:
.LBE173:
	.loc 1 185 18 view .LVU86
	subq	$1, %rbp
.LVL38:
.LBB174:
.LBB172:
	.loc 2 107 10 view .LVU87
	call	__printf_chk@PLT
.LVL39:
	.loc 2 107 10 view .LVU88
.LBE172:
.LBE174:
	.loc 1 185 7 is_stmt 1 view .LVU89
	.loc 1 185 7 is_stmt 0 view .LVU90
	jmp	.L2
.LVL40:
	.p2align 4,,10
	.p2align 3
.L26:
.LBB175:
.LBB146:
	.loc 3 110 10 view .LVU91
	movl	$10, %esi
	call	__overflow@PLT
.LVL41:
	jmp	.L1
.LVL42:
.L27:
	.loc 3 110 10 view .LVU92
.LBE146:
.LBE175:
	.loc 1 209 1 view .LVU93
	call	__stack_chk_fail@PLT
.LVL43:
	.cfi_endproc
.LFE171:
	.size	write_counts, .-write_counts
	.section	.rodata.str1.1
.LC1:
	.string	"standard input"
.LC2:
	.string	"%s"
	.text
	.p2align 4
	.type	wc, @function
wc:
.LVL44:
.LFB172:
	.loc 1 217 1 is_stmt 1 view -0
	.cfi_startproc
	.loc 1 217 1 is_stmt 0 view .LVU95
	pushq	%r15
	.cfi_def_cfa_offset 16
	.cfi_offset 15, -16
	pushq	%r14
	.cfi_def_cfa_offset 24
	.cfi_offset 14, -24
	pushq	%r13
	.cfi_def_cfa_offset 32
	.cfi_offset 13, -32
	pushq	%r12
	.cfi_def_cfa_offset 40
	.cfi_offset 12, -40
	pushq	%rbp
	.cfi_def_cfa_offset 48
	.cfi_offset 6, -48
	pushq	%rbx
	.cfi_def_cfa_offset 56
	.cfi_offset 3, -56
	leaq	-16384(%rsp), %r11
	.cfi_def_cfa 11, 16440
.LPSRL0:
	subq	$4096, %rsp
	orq	$0, (%rsp)
	cmpq	%r11, %rsp
	jne	.LPSRL0
	.cfi_def_cfa_register 7
	subq	$120, %rsp
	.cfi_def_cfa_offset 16560
	.loc 1 217 1 view .LVU96
	movl	%edi, 28(%rsp)
	movq	%rdx, %rbx
	movq	%rcx, %rbp
	movq	%rsi, 56(%rsp)
	movq	%fs:40, %rax
	movq	%rax, 16488(%rsp)
	xorl	%eax, %eax
	.loc 1 218 3 is_stmt 1 view .LVU97
.LVL45:
	.loc 1 219 3 view .LVU98
	.loc 1 220 3 view .LVU99
	.loc 1 221 3 view .LVU100
	.loc 1 222 3 view .LVU101
	.loc 1 223 3 view .LVU102
	movq	%rsi, 72(%rsp)
	.loc 1 223 38 is_stmt 0 view .LVU103
	testq	%rsi, %rsi
	je	.L143
.LVL46:
.L29:
	.loc 1 225 3 is_stmt 1 discriminator 4 view .LVU104
	.loc 1 230 3 discriminator 4 view .LVU105
	.loc 1 230 7 is_stmt 0 discriminator 4 view .LVU106
	call	__ctype_get_mb_cur_max@PLT
.LVL47:
	movzbl	print_bytes(%rip), %r12d
	.loc 1 230 6 discriminator 4 view .LVU107
	cmpq	$1, %rax
	jbe	.L30
	.loc 1 232 7 is_stmt 1 view .LVU108
.LVL48:
	.loc 1 233 7 view .LVU109
	.loc 1 233 19 is_stmt 0 view .LVU110
	movzbl	print_chars(%rip), %eax
	movb	%al, 67(%rsp)
.LVL49:
.L31:
	.loc 1 241 3 is_stmt 1 view .LVU111
	.loc 1 241 35 is_stmt 0 view .LVU112
	cmpb	$0, print_words(%rip)
	jne	.L33
	.loc 1 241 35 discriminator 2 view .LVU113
	movzbl	print_linelength(%rip), %eax
	movb	%al, 8(%rsp)
	testb	%al, %al
	jne	.L33
.LVL50:
	.loc 1 244 3 is_stmt 1 discriminator 6 view .LVU114
	.loc 1 244 6 is_stmt 0 discriminator 6 view .LVU115
	cmpb	$1, %r12b
	jne	.L34
	cmpb	$0, 67(%rsp)
	jne	.L34
	.loc 1 244 50 discriminator 1 view .LVU116
	cmpb	$0, print_lines(%rip)
	jne	.L35
.L40:
.LBB207:
	.loc 1 259 7 is_stmt 1 view .LVU117
.LVL51:
	.loc 1 261 7 view .LVU118
	.loc 1 261 22 is_stmt 0 view .LVU119
	movl	(%rbx), %eax
	.loc 1 261 10 view .LVU120
	testl	%eax, %eax
	jg	.L144
.L37:
	.loc 1 267 7 is_stmt 1 view .LVU121
	.loc 1 267 10 is_stmt 0 view .LVU122
	testl	%eax, %eax
	je	.L41
.LVL52:
.L43:
	.loc 1 267 10 view .LVU123
.LBE207:
	.loc 1 225 33 view .LVU124
	movq	$0, 40(%rsp)
.LVL53:
.L42:
.LBB218:
	.loc 1 298 11 is_stmt 1 view .LVU125
	movl	28(%rsp), %ebp
	movl	$2, %ecx
	xorl	%edx, %edx
	xorl	%esi, %esi
	leaq	96(%rsp), %r15
	movl	%ebp, %edi
	call	fdadvise@PLT
.LVL54:
	.loc 1 299 11 view .LVU126
	movq	40(%rsp), %rbx
.LVL55:
	.loc 1 299 17 is_stmt 0 view .LVU127
	jmp	.L48
.LVL56:
	.p2align 4,,10
	.p2align 3
.L33:
	.loc 1 299 17 view .LVU128
.LBE218:
	.loc 1 244 3 is_stmt 1 view .LVU129
	.loc 1 245 5 view .LVU130
	movl	28(%rsp), %edi
	movl	$2, %ecx
	xorl	%edx, %edx
	xorl	%esi, %esi
	call	fdadvise@PLT
.LVL57:
	.loc 1 257 3 view .LVU131
.L51:
	.loc 1 361 8 view .LVU132
	.loc 1 361 12 is_stmt 0 view .LVU133
	call	__ctype_get_mb_cur_max@PLT
.LVL58:
	.loc 1 361 11 view .LVU134
	cmpq	$1, %rax
	jbe	.L107
.LBB219:
	.loc 1 363 7 is_stmt 1 view .LVU135
.LVL59:
	.loc 1 364 7 view .LVU136
	.loc 1 365 7 view .LVU137
	leaq	96(%rsp), %r15
	.loc 1 375 14 is_stmt 0 view .LVU138
	xorl	%r13d, %r13d
	.loc 1 366 12 view .LVU139
	xorl	%r14d, %r14d
	.loc 1 364 17 view .LVU140
	xorl	%r12d, %r12d
.LVL60:
	.loc 1 365 17 view .LVU141
	movq	$0, 88(%rsp)
	.loc 1 366 7 is_stmt 1 view .LVU142
.LVL61:
	.loc 1 375 7 view .LVU143
	.loc 1 380 7 view .LVU144
	.loc 1 363 12 is_stmt 0 view .LVU145
	xorl	%ebp, %ebp
.LVL62:
	.loc 1 363 12 view .LVU146
.LBE219:
	.loc 1 225 25 view .LVU147
	xorl	%ebx, %ebx
.LVL63:
	.loc 1 225 46 view .LVU148
	movq	$0, 32(%rsp)
	.loc 1 225 33 view .LVU149
	movq	$0, 40(%rsp)
	.loc 1 225 17 view .LVU150
	movq	$0, 16(%rsp)
	.loc 1 225 9 view .LVU151
	movq	$0, (%rsp)
	movq	%r15, 48(%rsp)
.LVL64:
	.p2align 4,,10
	.p2align 3
.L61:
.LBB243:
	.loc 1 380 13 is_stmt 1 view .LVU152
	.loc 1 380 28 is_stmt 0 view .LVU153
	movq	48(%rsp), %rax
.LVL65:
	.loc 1 380 28 view .LVU154
	movl	$16384, %edx
	movl	28(%rsp), %edi
	subq	%r13, %rdx
	leaq	(%rax,%r13), %rsi
	call	safe_read@PLT
.LVL66:
	.loc 1 380 13 view .LVU155
	testq	%rax, %rax
	je	.L145
.LBB220:
	.loc 1 382 11 is_stmt 1 view .LVU156
	.loc 1 384 11 view .LVU157
	.loc 1 386 11 view .LVU158
	.loc 1 386 14 is_stmt 0 view .LVU159
	cmpq	$-1, %rax
	je	.L146
	.loc 1 393 11 is_stmt 1 view .LVU160
	.loc 1 394 11 view .LVU161
.LVL67:
	.loc 1 395 11 view .LVU162
	.loc 1 395 22 is_stmt 0 view .LVU163
	addq	%rax, %r13
.LVL68:
	.loc 1 393 17 view .LVU164
	addq	%rax, 40(%rsp)
.LVL69:
	.loc 1 394 13 view .LVU165
	movq	48(%rsp), %r15
	movl	%r14d, %eax
	movq	%r13, %r14
.LVL70:
	.loc 1 394 13 view .LVU166
	movl	%eax, %r13d
.LVL71:
	.p2align 4,,10
	.p2align 3
.L81:
	.loc 1 396 11 is_stmt 1 view .LVU167
.LBB221:
	.loc 1 398 15 view .LVU168
	.loc 1 399 15 view .LVU169
	.loc 1 400 15 view .LVU170
	.loc 1 402 15 view .LVU171
	.loc 1 402 18 is_stmt 0 view .LVU172
	testb	%r13b, %r13b
	jne	.L64
	.loc 1 402 42 discriminator 1 view .LVU173
	movzbl	(%r15), %ecx
.LVL72:
.LBB222:
.LBI222:
	.file 4 "./lib/mbchar.h"
	.loc 4 316 1 is_stmt 1 discriminator 1 view .LVU174
.LBB223:
	.loc 4 318 3 discriminator 1 view .LVU175
	.loc 4 318 51 is_stmt 0 discriminator 1 view .LVU176
	leaq	is_basic_table(%rip), %rsi
	.loc 4 318 45 discriminator 1 view .LVU177
	movl	%ecx, %eax
	shrb	$5, %al
	.loc 4 318 26 discriminator 1 view .LVU178
	andl	$7, %eax
	.loc 4 318 51 discriminator 1 view .LVU179
	movl	(%rsi,%rax,4), %eax
	shrl	%cl, %eax
.LBE223:
.LBE222:
	.loc 1 402 29 discriminator 1 view .LVU180
	movl	%eax, %edi
	andl	$1, %edi
	je	.L64
	.loc 1 406 19 is_stmt 1 view .LVU181
.LVL73:
	.loc 1 407 19 view .LVU182
	.loc 1 402 32 is_stmt 0 view .LVU183
	movsbl	%cl, %eax
	movl	%eax, 84(%rsp)
	.loc 1 408 19 is_stmt 1 view .LVU184
.LVL74:
	.loc 1 443 15 view .LVU185
	leal	-9(%rcx), %eax
	cmpb	$23, %al
	ja	.L65
	leaq	.L67(%rip), %rsi
	movzbl	%al, %eax
	movslq	(%rsi,%rax,4), %rax
	addq	%rsi, %rax
	notrack jmp	*%rax
	.section	.rodata
	.align 4
	.align 4
.L67:
	.long	.L108-.L67
	.long	.L109-.L67
	.long	.L110-.L67
	.long	.L111-.L67
	.long	.L111-.L67
	.long	.L65-.L67
	.long	.L65-.L67
	.long	.L65-.L67
	.long	.L65-.L67
	.long	.L65-.L67
	.long	.L65-.L67
	.long	.L65-.L67
	.long	.L65-.L67
	.long	.L65-.L67
	.long	.L65-.L67
	.long	.L65-.L67
	.long	.L65-.L67
	.long	.L65-.L67
	.long	.L65-.L67
	.long	.L65-.L67
	.long	.L65-.L67
	.long	.L65-.L67
	.long	.L65-.L67
	.long	.L112-.L67
	.text
.LVL75:
	.p2align 4,,10
	.p2align 3
.L30:
	.loc 1 443 15 is_stmt 0 view .LVU186
.LBE221:
.LBE220:
.LBE243:
	.loc 1 238 7 is_stmt 1 view .LVU187
	.loc 1 238 33 is_stmt 0 view .LVU188
	movzbl	print_chars(%rip), %eax
	testb	%r12b, %r12b
	.loc 1 239 19 view .LVU189
	movb	$0, 67(%rsp)
	.loc 1 238 33 view .LVU190
	cmove	%eax, %r12d
	.loc 1 239 7 is_stmt 1 view .LVU191
.LVL76:
	.loc 1 239 7 is_stmt 0 view .LVU192
	jmp	.L31
.LVL77:
	.p2align 4,,10
	.p2align 3
.L65:
	.loc 1 239 7 view .LVU193
	movb	%cl, 8(%rsp)
.LBB244:
.LBB238:
.LBB227:
	.loc 1 466 19 is_stmt 1 discriminator 1 view .LVU194
	.loc 1 480 24 discriminator 1 view .LVU195
	movb	%dil, 68(%rsp)
	.loc 1 480 37 is_stmt 0 discriminator 1 view .LVU196
	call	__ctype_b_loc@PLT
.LVL78:
	.loc 1 480 37 discriminator 1 view .LVU197
.LBE227:
.LBE238:
.LBE244:
	.file 5 "src/system.h"
	.loc 5 156 50 is_stmt 1 discriminator 1 view .LVU198
.LBB245:
.LBB239:
.LBB228:
	.loc 1 480 37 is_stmt 0 discriminator 1 view .LVU199
	movzbl	8(%rsp), %ecx
	.loc 1 406 21 discriminator 1 view .LVU200
	movl	$1, %edx
	.loc 1 480 37 discriminator 1 view .LVU201
	movq	(%rax), %rax
	movzwl	(%rax,%rcx,2), %eax
	.loc 1 480 34 discriminator 1 view .LVU202
	testb	$64, %ah
	je	.L79
	.loc 1 482 23 is_stmt 1 view .LVU203
	.loc 1 482 30 is_stmt 0 view .LVU204
	addq	$1, %r12
.LVL79:
	.loc 1 483 23 is_stmt 1 view .LVU205
	.loc 1 483 23 is_stmt 0 view .LVU206
.LBE228:
.LBE239:
.LBE245:
	.loc 5 156 50 is_stmt 1 view .LVU207
.LBB246:
.LBB240:
.LBB229:
	.loc 1 483 26 is_stmt 0 view .LVU208
	testb	$32, %ah
	jne	.L69
	.loc 1 485 31 view .LVU209
	movzbl	68(%rsp), %edi
	movzbl	%dil, %ebp
.LVL80:
	.p2align 4,,10
	.p2align 3
.L79:
	.loc 1 490 15 is_stmt 1 discriminator 1 view .LVU210
	.loc 1 490 17 is_stmt 0 discriminator 1 view .LVU211
	addq	%rdx, %r15
.LVL81:
	.loc 1 491 15 is_stmt 1 discriminator 1 view .LVU212
	.loc 1 491 26 is_stmt 0 discriminator 1 view .LVU213
	subq	%rdx, %r14
.LVL82:
	.loc 1 492 15 is_stmt 1 discriminator 1 view .LVU214
	.loc 1 492 20 is_stmt 0 discriminator 1 view .LVU215
	addq	$1, %rbx
.LVL83:
.L76:
	.loc 1 492 20 discriminator 1 view .LVU216
.LBE229:
	.loc 1 494 17 is_stmt 1 view .LVU217
	.loc 1 494 11 is_stmt 0 view .LVU218
	testq	%r14, %r14
	jne	.L81
	.loc 1 494 11 view .LVU219
	movl	%r13d, %eax
	movq	%r14, %r13
.LVL84:
	.loc 1 494 11 view .LVU220
	movl	%eax, %r14d
.LVL85:
	.loc 1 494 11 view .LVU221
	jmp	.L61
.LVL86:
	.p2align 4,,10
	.p2align 3
.L111:
.LBB230:
	.loc 1 407 29 view .LVU222
	movl	$1, %edx
.LVL87:
.L68:
	.loc 1 447 19 is_stmt 1 view .LVU223
	.loc 1 450 19 view .LVU224
	movq	32(%rsp), %rax
	cmpq	%r12, %rax
	cmovnb	%rax, %r12
.LVL88:
	.loc 1 450 19 is_stmt 0 view .LVU225
	movq	%r12, 32(%rsp)
.LVL89:
	.loc 1 452 19 is_stmt 1 view .LVU226
	.loc 1 453 19 view .LVU227
	.loc 1 452 27 is_stmt 0 view .LVU228
	xorl	%r12d, %r12d
.LVL90:
.L69:
	.loc 1 459 19 is_stmt 1 view .LVU229
	.loc 1 462 19 view .LVU230
	.loc 1 463 19 view .LVU231
	.loc 1 464 19 view .LVU232
	.loc 1 462 25 is_stmt 0 view .LVU233
	addq	%rbp, 16(%rsp)
.LVL91:
	.loc 1 463 27 view .LVU234
	xorl	%ebp, %ebp
	.loc 1 464 19 view .LVU235
	jmp	.L79
.LVL92:
	.p2align 4,,10
	.p2align 3
.L109:
	.loc 1 407 29 view .LVU236
	movl	$1, %edx
.LVL93:
.L70:
	.loc 1 446 19 is_stmt 1 view .LVU237
	.loc 1 446 24 is_stmt 0 view .LVU238
	addq	$1, (%rsp)
.LVL94:
	.loc 1 446 24 view .LVU239
	jmp	.L68
.LVL95:
	.p2align 4,,10
	.p2align 3
.L108:
	.loc 1 407 29 view .LVU240
	movl	$1, %edx
.LVL96:
.L71:
	.loc 1 455 19 is_stmt 1 view .LVU241
	.loc 1 455 27 is_stmt 0 view .LVU242
	andq	$-8, %r12
.LVL97:
	.loc 1 455 27 view .LVU243
	addq	$8, %r12
.LVL98:
	.loc 1 456 19 is_stmt 1 view .LVU244
	jmp	.L69
.LVL99:
	.p2align 4,,10
	.p2align 3
.L112:
	.loc 1 407 29 is_stmt 0 view .LVU245
	movl	$1, %edx
.LVL100:
.L66:
	.loc 1 458 19 is_stmt 1 view .LVU246
	.loc 1 458 26 is_stmt 0 view .LVU247
	addq	$1, %r12
.LVL101:
	.loc 1 458 26 view .LVU248
	jmp	.L69
.LVL102:
	.p2align 4,,10
	.p2align 3
.L110:
	.loc 1 407 29 view .LVU249
	movl	$1, %edx
	jmp	.L69
.LVL103:
.L107:
	.loc 1 407 29 view .LVU250
	leaq	96(%rsp), %r15
.LBE230:
.LBE240:
.LBE246:
.LBB247:
	.loc 1 517 12 view .LVU251
	xorl	%ebx, %ebx
.LVL104:
	.loc 1 518 17 view .LVU252
	xorl	%ebp, %ebp
.LVL105:
	.loc 1 518 17 view .LVU253
.LBE247:
	.loc 1 225 46 view .LVU254
	xorl	%r12d, %r12d
.LVL106:
	.loc 1 225 33 view .LVU255
	movq	$0, 40(%rsp)
	movzbl	%bl, %r13d
	movq	%rbp, %rbx
	.loc 1 225 9 view .LVU256
	movq	$0, (%rsp)
	movq	%r15, 16(%rsp)
.LVL107:
	.p2align 4,,10
	.p2align 3
.L60:
.LBB268:
	.loc 1 520 13 is_stmt 1 view .LVU257
	.loc 1 520 28 is_stmt 0 view .LVU258
	movq	16(%rsp), %rsi
	movl	28(%rsp), %edi
	movl	$16384, %edx
	call	safe_read@PLT
.LVL108:
	.loc 1 520 13 view .LVU259
	leaq	.L88(%rip), %r9
	testq	%rax, %rax
	je	.L147
.LBB248:
	.loc 1 522 11 is_stmt 1 view .LVU260
.LVL109:
	.loc 1 523 11 view .LVU261
	.loc 1 523 14 is_stmt 0 view .LVU262
	cmpq	$-1, %rax
	je	.L148
	.loc 1 530 11 is_stmt 1 view .LVU263
	.loc 1 530 11 is_stmt 0 view .LVU264
	movq	16(%rsp), %r14
	.loc 1 530 17 view .LVU265
	addq	%rax, 40(%rsp)
.LVL110:
	.loc 1 530 17 view .LVU266
	leaq	(%r14,%rax), %r15
	.loc 1 522 23 view .LVU267
	movq	%r15, %rcx
	movq	%r12, %r15
	movq	%rbp, %r12
.LVL111:
	.loc 1 522 23 view .LVU268
	movq	%rbx, %rbp
.LVL112:
	.p2align 4,,10
	.p2align 3
.L94:
	.loc 1 531 11 is_stmt 1 view .LVU269
	.loc 1 533 15 view .LVU270
	.loc 1 533 23 is_stmt 0 view .LVU271
	movzbl	(%r14), %ebx
	.loc 1 533 25 view .LVU272
	addq	$1, %r14
.LVL113:
	.loc 1 533 25 view .LVU273
	leal	-9(%rbx), %eax
	cmpb	$23, %al
	ja	.L86
	.loc 1 533 25 view .LVU274
	movzbl	%al, %eax
	movslq	(%r9,%rax,4), %rax
	addq	%r9, %rax
	notrack jmp	*%rax
	.section	.rodata
	.align 4
	.align 4
.L88:
	.long	.L92-.L88
	.long	.L91-.L88
	.long	.L90-.L88
	.long	.L89-.L88
	.long	.L89-.L88
	.long	.L86-.L88
	.long	.L86-.L88
	.long	.L86-.L88
	.long	.L86-.L88
	.long	.L86-.L88
	.long	.L86-.L88
	.long	.L86-.L88
	.long	.L86-.L88
	.long	.L86-.L88
	.long	.L86-.L88
	.long	.L86-.L88
	.long	.L86-.L88
	.long	.L86-.L88
	.long	.L86-.L88
	.long	.L86-.L88
	.long	.L86-.L88
	.long	.L86-.L88
	.long	.L86-.L88
	.long	.L87-.L88
	.text
	.p2align 4,,10
	.p2align 3
.L86:
	.loc 1 556 19 is_stmt 1 view .LVU275
	movq	%rcx, 8(%rsp)
	.loc 1 556 23 is_stmt 0 view .LVU276
	call	__ctype_b_loc@PLT
.LVL114:
.LBB249:
.LBI249:
	.loc 5 156 29 is_stmt 1 view .LVU277
.LBB250:
	.loc 5 156 50 view .LVU278
	.loc 5 156 50 is_stmt 0 view .LVU279
.LBE250:
.LBE249:
	.loc 1 556 22 view .LVU280
	movq	8(%rsp), %rcx
	leaq	.L88(%rip), %r9
	.loc 1 556 23 view .LVU281
	movq	%rax, %r8
	movzbl	%bl, %eax
	movq	(%r8), %rsi
	movzwl	(%rsi,%rax,2), %eax
	.loc 1 556 22 view .LVU282
	testb	$64, %ah
	je	.L93
	.loc 1 558 23 is_stmt 1 view .LVU283
	.loc 1 558 30 is_stmt 0 view .LVU284
	addq	$1, %rbp
.LVL115:
	.loc 1 559 23 is_stmt 1 view .LVU285
	.loc 1 559 23 is_stmt 0 view .LVU286
.LBE248:
.LBE268:
	.loc 5 156 50 is_stmt 1 view .LVU287
.LBB269:
.LBB263:
	.loc 1 559 26 is_stmt 0 view .LVU288
	testb	$32, %ah
	jne	.L90
.LVL116:
	.loc 1 559 26 view .LVU289
.LBE263:
.LBE269:
	.loc 5 156 50 is_stmt 1 view .LVU290
.LBB270:
.LBB264:
.LBB251:
.LBI251:
	.loc 1 163 1 view .LVU291
.LBE251:
.LBE264:
.LBE270:
	.loc 1 165 3 view .LVU292
.LBB271:
.LBB265:
.LBB260:
.LBB252:
.LBI252:
	.file 6 "/usr/include/wchar.h"
	.loc 6 318 1 view .LVU293
.LBB253:
	.loc 6 319 3 view .LVU294
.LBE253:
.LBE252:
.LBE260:
	.loc 1 560 30 is_stmt 0 view .LVU295
	movzbl	%bl, %edi
.LVL117:
.LBB261:
.LBB255:
.LBB254:
	.loc 6 320 21 view .LVU296
	call	btowc@PLT
.LVL118:
	.loc 6 320 21 view .LVU297
.LBE254:
.LBE255:
.LBB256:
.LBI256:
	.loc 1 155 1 is_stmt 1 view .LVU298
.LBB257:
	.loc 1 157 3 view .LVU299
	.loc 1 157 10 is_stmt 0 view .LVU300
	movzbl	posixly_correct(%rip), %esi
	.loc 1 158 10 view .LVU301
	movq	8(%rsp), %rcx
	leaq	.L88(%rip), %r9
	testb	%sil, %sil
	jne	.L116
	cmpl	$160, %eax
	je	.L90
	cmpl	$8199, %eax
	je	.L90
	.loc 1 159 30 view .LVU302
	cmpl	$8239, %eax
	je	.L90
	cmpl	$8288, %eax
	je	.L90
.LBE257:
.LBE256:
.LBE261:
	.loc 1 562 31 view .LVU303
	movl	$1, %r13d
.LVL119:
.LBB262:
.LBB259:
.LBB258:
	.loc 1 562 31 view .LVU304
	jmp	.L93
.LVL120:
	.p2align 4,,10
	.p2align 3
.L91:
	.loc 1 562 31 view .LVU305
.LBE258:
.LBE259:
.LBE262:
	.loc 1 536 19 is_stmt 1 view .LVU306
	.loc 1 536 24 is_stmt 0 view .LVU307
	addq	$1, (%rsp)
.LVL121:
.L89:
	.loc 1 537 19 is_stmt 1 view .LVU308
	.loc 1 540 19 view .LVU309
	cmpq	%rbp, %r15
	cmovb	%rbp, %r15
.LVL122:
	.loc 1 542 19 view .LVU310
	.loc 1 543 19 view .LVU311
	.loc 1 542 27 is_stmt 0 view .LVU312
	xorl	%ebp, %ebp
.LVL123:
.L90:
	.loc 1 549 19 is_stmt 1 view .LVU313
	.loc 1 552 19 view .LVU314
	.loc 1 552 25 is_stmt 0 view .LVU315
	addq	%r13, %r12
.LVL124:
	.loc 1 553 19 is_stmt 1 view .LVU316
	.loc 1 554 19 view .LVU317
	.loc 1 553 27 is_stmt 0 view .LVU318
	xorl	%r13d, %r13d
.LVL125:
.L93:
	.loc 1 567 17 is_stmt 1 view .LVU319
	.loc 1 567 11 is_stmt 0 view .LVU320
	cmpq	%r14, %rcx
	jne	.L94
	.loc 1 567 11 view .LVU321
	movq	%rbp, %rbx
	movq	%r12, %rbp
.LVL126:
	.loc 1 567 11 view .LVU322
	movq	%r15, %r12
.LVL127:
	.loc 1 567 11 view .LVU323
	jmp	.L60
.LVL128:
	.p2align 4,,10
	.p2align 3
.L87:
	.loc 1 548 19 is_stmt 1 view .LVU324
	.loc 1 548 26 is_stmt 0 view .LVU325
	addq	$1, %rbp
.LVL129:
	.loc 1 548 26 view .LVU326
	jmp	.L90
	.p2align 4,,10
	.p2align 3
.L92:
	.loc 1 545 19 is_stmt 1 view .LVU327
	.loc 1 545 27 is_stmt 0 view .LVU328
	andq	$-8, %rbp
.LVL130:
	.loc 1 545 27 view .LVU329
	addq	$8, %rbp
.LVL131:
	.loc 1 546 19 is_stmt 1 view .LVU330
	jmp	.L90
.LVL132:
	.p2align 4,,10
	.p2align 3
.L50:
	.loc 1 546 19 is_stmt 0 view .LVU331
.LBE265:
.LBE271:
.LBB272:
	.loc 1 301 15 is_stmt 1 view .LVU332
	.loc 1 301 18 is_stmt 0 view .LVU333
	cmpq	$-1, %rax
	je	.L149
	.loc 1 307 15 is_stmt 1 view .LVU334
	.loc 1 307 21 is_stmt 0 view .LVU335
	addq	%rax, %rbx
.LVL133:
.L48:
	.loc 1 299 17 is_stmt 1 view .LVU336
	.loc 1 299 32 is_stmt 0 view .LVU337
	movl	$16384, %edx
	movq	%r15, %rsi
	movl	%ebp, %edi
	call	safe_read@PLT
.LVL134:
	.loc 1 299 17 view .LVU338
	testq	%rax, %rax
	jne	.L50
	movq	%rbx, 40(%rsp)
.LBE272:
	.loc 1 225 46 view .LVU339
	xorl	%r12d, %r12d
	movq	%rax, %rbx
.LVL135:
	.loc 1 225 17 view .LVU340
	xorl	%r13d, %r13d
	.loc 1 225 9 view .LVU341
	movq	$0, (%rsp)
	.loc 1 218 8 view .LVU342
	movb	$1, 8(%rsp)
	jmp	.L46
.LVL136:
.L41:
.LBB273:
.LBB208:
.LBI208:
	.loc 5 705 1 is_stmt 1 discriminator 1 view .LVU343
.LBB209:
	.loc 5 707 3 discriminator 1 view .LVU344
	.loc 5 707 33 is_stmt 0 discriminator 1 view .LVU345
	movl	32(%rbx), %eax
	andl	$53248, %eax
.LBE209:
.LBE208:
	.loc 1 267 29 discriminator 1 view .LVU346
	cmpl	$32768, %eax
	jne	.L43
	.loc 1 268 30 view .LVU347
	movq	56(%rbx), %r12
.LVL137:
	.loc 1 268 11 view .LVU348
	testq	%r12, %r12
	js	.L43
.LBB210:
	.loc 1 270 11 is_stmt 1 view .LVU349
	.loc 1 270 18 is_stmt 0 view .LVU350
	movq	%r12, 40(%rsp)
.LVL138:
	.loc 1 271 11 is_stmt 1 view .LVU351
	movq	page_size(%rip), %r13
	.loc 1 271 14 is_stmt 0 view .LVU352
	cmpq	$-1, %rbp
	je	.L150
.LVL139:
	.loc 1 274 11 is_stmt 1 view .LVU353
	.loc 1 274 23 is_stmt 0 view .LVU354
	movq	%r12, %rax
	xorl	%edx, %edx
	divq	%r13
	.loc 1 274 14 view .LVU355
	testq	%rdx, %rdx
	jne	.L98
	movl	$1, %esi
	xorl	%ebp, %ebp
.LVL140:
.L99:
.LBB211:
	.loc 1 289 15 is_stmt 1 view .LVU356
	.loc 1 289 76 is_stmt 0 view .LVU357
	movabsq	$2305843009213693951, %rdx
	.loc 1 289 51 view .LVU358
	movq	64(%rbx), %rax
	leaq	-1(%rax), %rcx
	.loc 1 289 76 view .LVU359
	addq	$1, %rax
	cmpq	%rdx, %rcx
	movl	$513, %ecx
	cmovbe	%rax, %rcx
	.loc 1 289 48 view .LVU360
	movq	%r12, %rax
	xorl	%edx, %edx
	divq	%rcx
	.loc 1 289 38 view .LVU361
	subq	%rdx, %r12
.LVL141:
	.loc 1 290 15 is_stmt 1 view .LVU362
	.loc 1 290 18 is_stmt 0 view .LVU363
	cmpq	%rbp, %r12
	jle	.L43
	.loc 1 290 18 discriminator 4 view .LVU364
	testb	%sil, %sil
	je	.L43
	.loc 1 291 27 view .LVU365
	movl	28(%rsp), %edi
	movl	$1, %edx
	movq	%r12, %rsi
	call	lseek@PLT
.LVL142:
	.loc 1 291 19 view .LVU366
	testq	%rax, %rax
	js	.L43
	.loc 1 292 17 is_stmt 1 view .LVU367
	.loc 1 292 32 is_stmt 0 view .LVU368
	subq	%rbp, %r12
.LVL143:
	.loc 1 292 32 view .LVU369
	movq	%r12, 40(%rsp)
.LVL144:
	.loc 1 292 32 view .LVU370
.LBE211:
.LBE210:
	.loc 1 296 7 is_stmt 1 view .LVU371
	jmp	.L42
.LVL145:
	.p2align 4,,10
	.p2align 3
.L64:
	.loc 1 296 7 is_stmt 0 view .LVU372
.LBE273:
.LBB274:
.LBB241:
.LBB231:
	.loc 1 412 19 is_stmt 1 view .LVU373
	.loc 1 414 19 view .LVU374
	.loc 1 414 32 is_stmt 0 view .LVU375
	movq	88(%rsp), %rax
	.loc 1 416 23 view .LVU376
	leaq	88(%rsp), %r13
	movq	%r14, %rdx
	movq	%r15, %rsi
	leaq	84(%rsp), %rdi
	movq	%r13, %rcx
.LVL146:
	.loc 1 414 32 view .LVU377
	movq	%rax, 8(%rsp)
	.loc 1 416 19 is_stmt 1 view .LVU378
	.loc 1 416 23 is_stmt 0 view .LVU379
	call	rpl_mbrtowc@PLT
.LVL147:
	.loc 1 417 19 is_stmt 1 view .LVU380
	.loc 1 417 22 is_stmt 0 view .LVU381
	cmpq	$-2, %rax
	je	.L151
	.loc 1 424 19 is_stmt 1 view .LVU382
	.loc 1 424 22 is_stmt 0 view .LVU383
	cmpq	$-1, %rax
	je	.L152
	.loc 1 434 23 view .LVU384
	movq	%r13, %rdi
	movq	%rax, 8(%rsp)
	.loc 1 434 19 is_stmt 1 view .LVU385
	.loc 1 434 23 is_stmt 0 view .LVU386
	call	mbsinit@PLT
.LVL148:
	.loc 1 436 22 view .LVU387
	movq	8(%rsp), %rdx
	.loc 1 434 22 view .LVU388
	testl	%eax, %eax
	sete	%r13b
.LVL149:
	.loc 1 436 19 is_stmt 1 view .LVU389
	.loc 1 436 22 is_stmt 0 view .LVU390
	testq	%rdx, %rdx
	jne	.L77
	.loc 1 438 23 is_stmt 1 view .LVU391
	.loc 1 438 33 is_stmt 0 view .LVU392
	movl	$0, 84(%rsp)
	.loc 1 439 23 is_stmt 1 view .LVU393
.LVL150:
	.loc 1 443 15 view .LVU394
	xorl	%edi, %edi
	.loc 1 439 25 is_stmt 0 view .LVU395
	movl	$1, %edx
.LVL151:
.L78:
	.loc 1 439 25 view .LVU396
	movq	%rdx, 8(%rsp)
.LVL152:
	.loc 1 466 19 is_stmt 1 discriminator 1 view .LVU397
	.loc 1 466 31 is_stmt 0 discriminator 1 view .LVU398
	movl	%edi, 68(%rsp)
	call	iswprint@PLT
.LVL153:
	.loc 1 466 28 discriminator 1 view .LVU399
	movq	8(%rsp), %rdx
	testl	%eax, %eax
	je	.L79
	.loc 1 470 23 is_stmt 1 view .LVU400
	.loc 1 470 26 is_stmt 0 view .LVU401
	cmpb	$0, print_linelength(%rip)
	movl	68(%rsp), %edi
	jne	.L153
.LVL154:
.L80:
	.loc 1 476 27 view .LVU402
	movl	84(%rsp), %ecx
	movq	%rdx, 8(%rsp)
.LVL155:
	.loc 1 476 23 is_stmt 1 view .LVU403
	.loc 1 476 27 is_stmt 0 view .LVU404
	movl	%ecx, %edi
	movl	%ecx, 68(%rsp)
	call	iswspace@PLT
.LVL156:
	.loc 1 476 26 view .LVU405
	movq	8(%rsp), %rdx
	testl	%eax, %eax
	jne	.L69
.LVL157:
.LBB224:
.LBI224:
	.loc 1 155 1 is_stmt 1 discriminator 1 view .LVU406
.LBB225:
	.loc 1 157 3 discriminator 1 view .LVU407
	.loc 1 157 10 is_stmt 0 discriminator 1 view .LVU408
	movzbl	posixly_correct(%rip), %eax
	.loc 1 158 10 discriminator 1 view .LVU409
	testb	%al, %al
	jne	.L113
	.loc 1 158 10 view .LVU410
	movl	68(%rsp), %ecx
	cmpl	$160, %ecx
	je	.L69
	cmpl	$8199, %ecx
	je	.L69
	.loc 1 159 30 view .LVU411
	cmpl	$8239, %ecx
	je	.L69
	cmpl	$8288, %ecx
	je	.L69
.LBE225:
.LBE224:
	.loc 1 478 31 view .LVU412
	movl	$1, %ebp
.LVL158:
	.loc 1 478 31 view .LVU413
	jmp	.L79
.LVL159:
	.p2align 4,,10
	.p2align 3
.L77:
	.loc 1 443 15 is_stmt 1 view .LVU414
	movl	84(%rsp), %edi
	leal	-9(%rdi), %eax
	cmpl	$23, %eax
	ja	.L78
	leaq	.L100(%rip), %rsi
	movslq	(%rsi,%rax,4), %rax
	addq	%rsi, %rax
	notrack jmp	*%rax
	.section	.rodata
	.align 4
	.align 4
.L100:
	.long	.L71-.L100
	.long	.L70-.L100
	.long	.L69-.L100
	.long	.L68-.L100
	.long	.L68-.L100
	.long	.L78-.L100
	.long	.L78-.L100
	.long	.L78-.L100
	.long	.L78-.L100
	.long	.L78-.L100
	.long	.L78-.L100
	.long	.L78-.L100
	.long	.L78-.L100
	.long	.L78-.L100
	.long	.L78-.L100
	.long	.L78-.L100
	.long	.L78-.L100
	.long	.L78-.L100
	.long	.L78-.L100
	.long	.L78-.L100
	.long	.L78-.L100
	.long	.L78-.L100
	.long	.L78-.L100
	.long	.L66-.L100
	.text
.LVL160:
	.p2align 4,,10
	.p2align 3
.L152:
	.loc 1 430 23 view .LVU415
	.loc 1 430 24 is_stmt 0 view .LVU416
	addq	$1, %r15
.LVL161:
	.loc 1 431 23 is_stmt 1 view .LVU417
	.loc 1 431 33 is_stmt 0 view .LVU418
	subq	$1, %r14
.LVL162:
	.loc 1 432 23 is_stmt 1 view .LVU419
	.loc 1 412 28 is_stmt 0 view .LVU420
	movl	$1, %r13d
	jmp	.L76
	.p2align 4,,10
	.p2align 3
.L151:
	.loc 1 420 29 view .LVU421
	movq	8(%rsp), %rax
.LVL163:
	.loc 1 420 29 view .LVU422
	movq	%r14, %r13
	.loc 1 420 23 is_stmt 1 view .LVU423
.LVL164:
	.loc 1 420 29 is_stmt 0 view .LVU424
	movq	%rax, 88(%rsp)
	.loc 1 422 23 is_stmt 1 view .LVU425
.LVL165:
	.loc 1 422 23 is_stmt 0 view .LVU426
.LBE231:
	.loc 1 497 11 is_stmt 1 view .LVU427
	.loc 1 497 14 is_stmt 0 view .LVU428
	testq	%r14, %r14
	je	.L142
	.loc 1 499 15 is_stmt 1 view .LVU429
	.loc 1 499 18 is_stmt 0 view .LVU430
	cmpq	$16384, %r14
	jne	.L82
	.loc 1 502 19 is_stmt 1 view .LVU431
	.loc 1 502 20 is_stmt 0 view .LVU432
	addq	$1, %r15
.LVL166:
	.loc 1 503 19 is_stmt 1 view .LVU433
	.loc 1 503 29 is_stmt 0 view .LVU434
	movl	$16383, %r13d
.LVL167:
.L82:
	.loc 1 505 15 is_stmt 1 view .LVU435
.LBB232:
.LBI232:
	.file 7 "/usr/include/x86_64-linux-gnu/bits/string_fortified.h"
	.loc 7 38 1 view .LVU436
.LBB233:
	.loc 7 40 3 view .LVU437
	.loc 7 40 10 is_stmt 0 view .LVU438
	movq	48(%rsp), %rdi
	movl	$16385, %ecx
	movq	%r13, %rdx
	movq	%r15, %rsi
	call	__memmove_chk@PLT
.LVL168:
.L142:
	.loc 7 40 10 view .LVU439
.LBE233:
.LBE232:
.LBB235:
	.loc 1 412 28 view .LVU440
	movl	$1, %r14d
.LVL169:
	.loc 1 412 28 view .LVU441
.LBE235:
	.loc 1 507 11 is_stmt 1 view .LVU442
.LBB236:
.LBB234:
	.loc 7 40 10 is_stmt 0 view .LVU443
	jmp	.L61
.LVL170:
.L113:
	.loc 7 40 10 view .LVU444
.LBE234:
.LBE236:
.LBB237:
	.loc 1 478 31 view .LVU445
	movzbl	%al, %ebp
.LVL171:
	.loc 1 478 31 view .LVU446
	jmp	.L79
.LVL172:
.L153:
.LBB226:
	.loc 1 472 27 is_stmt 1 view .LVU447
	.loc 1 472 39 is_stmt 0 view .LVU448
	call	wcwidth@PLT
.LVL173:
	.loc 1 473 27 is_stmt 1 view .LVU449
	.loc 1 474 37 is_stmt 0 view .LVU450
	movq	8(%rsp), %rdx
	movslq	%eax, %rcx
	addq	%r12, %rcx
	testl	%eax, %eax
	cmovg	%rcx, %r12
.LVL174:
	.loc 1 474 37 view .LVU451
	jmp	.L80
.LVL175:
.L116:
	.loc 1 474 37 view .LVU452
.LBE226:
.LBE237:
.LBE241:
.LBE274:
.LBB275:
.LBB266:
	.loc 1 562 31 view .LVU453
	movzbl	%sil, %r13d
.LVL176:
	.loc 1 562 31 view .LVU454
	jmp	.L93
.LVL177:
.L143:
	.loc 1 562 31 view .LVU455
.LBE266:
.LBE275:
	.loc 1 223 40 discriminator 1 view .LVU456
	movl	$5, %edx
.LVL178:
	.loc 1 223 40 discriminator 1 view .LVU457
	leaq	.LC1(%rip), %rsi
.LVL179:
	.loc 1 223 40 discriminator 1 view .LVU458
	xorl	%edi, %edi
.LVL180:
	.loc 1 223 40 discriminator 1 view .LVU459
	call	dcgettext@PLT
.LVL181:
	.loc 1 223 40 discriminator 1 view .LVU460
	movq	%rax, 72(%rsp)
	jmp	.L29
.LVL182:
.L145:
	.loc 1 218 8 view .LVU461
	movb	$1, 8(%rsp)
	movq	%r12, %r15
.LVL183:
.L63:
.LBB276:
	.loc 1 510 7 is_stmt 1 view .LVU462
	movq	32(%rsp), %rax
	.loc 1 512 13 is_stmt 0 view .LVU463
	movq	16(%rsp), %r13
.LVL184:
	.loc 1 512 13 view .LVU464
	movq	%r15, %r12
.LVL185:
	.loc 1 512 13 view .LVU465
	cmpq	%r15, %rax
	cmovnb	%rax, %r12
.LVL186:
	.loc 1 512 7 is_stmt 1 view .LVU466
	.loc 1 512 13 is_stmt 0 view .LVU467
	addq	%rbp, %r13
.LVL187:
	.p2align 4,,10
	.p2align 3
.L46:
	.loc 1 512 13 view .LVU468
.LBE276:
	.loc 1 574 3 is_stmt 1 view .LVU469
	.loc 1 575 11 is_stmt 0 view .LVU470
	movq	40(%rsp), %r15
	movzbl	67(%rsp), %eax
	.loc 1 577 3 view .LVU471
	movq	%r12, %r8
	movq	%r13, %rsi
	.loc 1 575 11 view .LVU472
	cmpb	%al, print_chars(%rip)
	.loc 1 577 3 view .LVU473
	movq	(%rsp), %r14
	.loc 1 575 11 view .LVU474
	cmova	%r15, %rbx
.LVL188:
	.loc 1 577 3 is_stmt 1 view .LVU475
	movq	56(%rsp), %r9
	movq	%r15, %rcx
	movq	%r14, %rdi
	movq	%rbx, %rdx
	call	write_counts
.LVL189:
	.loc 1 578 3 view .LVU476
	.loc 1 578 15 is_stmt 0 view .LVU477
	addq	%r14, total_lines(%rip)
	.loc 1 579 3 is_stmt 1 view .LVU478
	.loc 1 579 15 is_stmt 0 view .LVU479
	addq	%r13, total_words(%rip)
	.loc 1 580 3 is_stmt 1 view .LVU480
	.loc 1 580 15 is_stmt 0 view .LVU481
	addq	%rbx, total_chars(%rip)
	.loc 1 581 3 is_stmt 1 view .LVU482
	.loc 1 581 15 is_stmt 0 view .LVU483
	addq	%r15, total_bytes(%rip)
	.loc 1 582 3 is_stmt 1 view .LVU484
	.loc 1 582 6 is_stmt 0 view .LVU485
	cmpq	%r12, max_line_length(%rip)
	jnb	.L28
	.loc 1 583 5 is_stmt 1 view .LVU486
	.loc 1 583 21 is_stmt 0 view .LVU487
	movq	%r12, max_line_length(%rip)
	.loc 1 585 3 is_stmt 1 view .LVU488
.L28:
	.loc 1 586 1 is_stmt 0 view .LVU489
	movq	16488(%rsp), %rax
	xorq	%fs:40, %rax
	jne	.L154
	movzbl	8(%rsp), %eax
	addq	$16504, %rsp
	.cfi_remember_state
	.cfi_def_cfa_offset 56
.LVL190:
	.loc 1 586 1 view .LVU490
	popq	%rbx
	.cfi_def_cfa_offset 48
.LVL191:
	.loc 1 586 1 view .LVU491
	popq	%rbp
	.cfi_def_cfa_offset 40
	popq	%r12
	.cfi_def_cfa_offset 32
.LVL192:
	.loc 1 586 1 view .LVU492
	popq	%r13
	.cfi_def_cfa_offset 24
.LVL193:
	.loc 1 586 1 view .LVU493
	popq	%r14
	.cfi_def_cfa_offset 16
.LVL194:
	.loc 1 586 1 view .LVU494
	popq	%r15
	.cfi_def_cfa_offset 8
	ret
.LVL195:
.L146:
	.cfi_restore_state
.LBB277:
.LBB242:
	.loc 1 388 15 view .LVU495
	movq	72(%rsp), %rdx
	movl	$3, %esi
	xorl	%edi, %edi
	movq	%r12, %r15
	.loc 1 388 15 is_stmt 1 view .LVU496
	call	quotearg_n_style_colon@PLT
.LVL196:
	.loc 1 388 15 is_stmt 0 view .LVU497
	movq	%rax, %r14
.LVL197:
	.loc 1 388 25 view .LVU498
	call	__errno_location@PLT
.LVL198:
	.loc 1 388 15 view .LVU499
	movq	%r14, %rcx
	leaq	.LC2(%rip), %rdx
	xorl	%edi, %edi
	movl	(%rax), %esi
	xorl	%eax, %eax
	call	error@PLT
.LVL199:
	.loc 1 389 15 is_stmt 1 view .LVU500
	.loc 1 390 15 view .LVU501
	.loc 1 389 18 is_stmt 0 view .LVU502
	movb	$0, 8(%rsp)
	jmp	.L63
.LVL200:
.L147:
	.loc 1 389 18 view .LVU503
.LBE242:
.LBE277:
	.loc 1 218 8 view .LVU504
	movb	$1, 8(%rsp)
	movq	%rbx, %rax
.LVL201:
	.loc 1 218 8 view .LVU505
	movzbl	%r13b, %ebx
.LVL202:
	.loc 1 218 8 view .LVU506
	movq	%rbp, %r13
.LVL203:
	.loc 1 218 8 view .LVU507
	movq	%rax, %rbp
.LVL204:
.L85:
.LBB278:
	.loc 1 569 7 is_stmt 1 view .LVU508
	cmpq	%rbp, %r12
	cmovb	%rbp, %r12
.LVL205:
	.loc 1 571 7 view .LVU509
	.loc 1 571 13 is_stmt 0 view .LVU510
	addq	%rbx, %r13
.LVL206:
	.loc 1 571 13 view .LVU511
.LBE278:
	.loc 1 225 25 view .LVU512
	xorl	%ebx, %ebx
	jmp	.L46
.LVL207:
.L148:
.LBB279:
.LBB267:
	.loc 1 525 15 view .LVU513
	movq	72(%rsp), %rdx
	movq	%rbx, %rax
.LVL208:
	.loc 1 525 15 view .LVU514
	movl	$3, %esi
	xorl	%edi, %edi
	movzbl	%r13b, %ebx
.LVL209:
	.loc 1 525 15 view .LVU515
	movq	%rbp, %r13
.LVL210:
	.loc 1 525 15 view .LVU516
	movq	%rax, %rbp
.LVL211:
	.loc 1 525 15 is_stmt 1 view .LVU517
	call	quotearg_n_style_colon@PLT
.LVL212:
	.loc 1 525 15 is_stmt 0 view .LVU518
	movq	%rax, %r14
	.loc 1 525 25 view .LVU519
	call	__errno_location@PLT
.LVL213:
	.loc 1 525 15 view .LVU520
	movq	%r14, %rcx
	leaq	.LC2(%rip), %rdx
	xorl	%edi, %edi
	movl	(%rax), %esi
	xorl	%eax, %eax
	call	error@PLT
.LVL214:
	.loc 1 526 15 is_stmt 1 view .LVU521
	.loc 1 527 15 view .LVU522
	.loc 1 526 18 is_stmt 0 view .LVU523
	movb	$0, 8(%rsp)
	.loc 1 527 15 view .LVU524
	jmp	.L85
.LVL215:
.L144:
	.loc 1 527 15 view .LVU525
.LBE267:
.LBE279:
.LBB280:
	.loc 1 262 9 is_stmt 1 view .LVU526
.LBB212:
.LBI212:
	.file 8 "/usr/include/x86_64-linux-gnu/sys/stat.h"
	.loc 8 467 1 view .LVU527
.LBB213:
	.loc 8 469 3 view .LVU528
	.loc 8 469 10 is_stmt 0 view .LVU529
	movl	28(%rsp), %esi
.LBE213:
.LBE212:
	.loc 1 262 27 view .LVU530
	leaq	8(%rbx), %rdx
.LVL216:
.LBB215:
.LBB214:
	.loc 8 469 10 view .LVU531
	movl	$1, %edi
	call	__fxstat@PLT
.LVL217:
	.loc 8 469 10 view .LVU532
.LBE214:
.LBE215:
	.loc 1 262 25 view .LVU533
	movl	%eax, (%rbx)
	jmp	.L37
.LVL218:
.L149:
	.loc 1 303 19 view .LVU534
	movq	72(%rsp), %rdx
	movl	$3, %esi
	xorl	%edi, %edi
.LBE280:
	.loc 1 225 17 view .LVU535
	xorl	%r13d, %r13d
	movq	%rbx, 40(%rsp)
.LBB281:
	.loc 1 303 19 is_stmt 1 view .LVU536
.LBE281:
	.loc 1 225 25 is_stmt 0 view .LVU537
	xorl	%ebx, %ebx
.LVL219:
.LBB282:
	.loc 1 303 19 view .LVU538
	call	quotearg_n_style_colon@PLT
.LVL220:
	.loc 1 303 19 view .LVU539
	movq	%rax, %r12
	.loc 1 303 29 view .LVU540
	call	__errno_location@PLT
.LVL221:
	.loc 1 303 19 view .LVU541
	movq	%r12, %rcx
	leaq	.LC2(%rip), %rdx
	xorl	%edi, %edi
	movl	(%rax), %esi
	xorl	%eax, %eax
.LBE282:
	.loc 1 225 46 view .LVU542
	xorl	%r12d, %r12d
.LBB283:
	.loc 1 303 19 view .LVU543
	call	error@PLT
.LVL222:
	.loc 1 304 19 is_stmt 1 view .LVU544
	.loc 1 305 19 view .LVU545
.LBE283:
	.loc 1 225 9 is_stmt 0 view .LVU546
	movq	$0, (%rsp)
.LBB284:
	.loc 1 305 19 view .LVU547
	jmp	.L46
.LVL223:
.L155:
	.loc 1 305 19 view .LVU548
	subq	%rbp, 40(%rsp)
.LVL224:
.L98:
	.loc 1 296 7 is_stmt 1 discriminator 1 view .LVU549
.LBE284:
	.loc 1 225 9 is_stmt 0 discriminator 1 view .LVU550
	movq	$0, (%rsp)
	.loc 1 225 46 discriminator 1 view .LVU551
	xorl	%r12d, %r12d
.LVL225:
	.loc 1 225 25 discriminator 1 view .LVU552
	xorl	%ebx, %ebx
.LVL226:
	.loc 1 225 17 discriminator 1 view .LVU553
	xorl	%r13d, %r13d
	.loc 1 218 8 discriminator 1 view .LVU554
	movb	$1, 8(%rsp)
	jmp	.L46
.LVL227:
.L150:
.LBB285:
.LBB216:
	.loc 1 272 13 is_stmt 1 view .LVU555
	.loc 1 272 27 is_stmt 0 view .LVU556
	movl	28(%rsp), %edi
	movl	$1, %edx
	xorl	%esi, %esi
	call	lseek@PLT
.LVL228:
	.loc 1 274 23 view .LVU557
	xorl	%edx, %edx
	.loc 1 272 27 view .LVU558
	movq	%rax, %rbp
.LVL229:
	.loc 1 274 11 is_stmt 1 view .LVU559
	.loc 1 274 23 is_stmt 0 view .LVU560
	movq	%r12, %rax
.LVL230:
	.loc 1 274 23 view .LVU561
	divq	%r13
	.loc 1 274 14 view .LVU562
	testq	%rdx, %rdx
	je	.L45
	.loc 1 284 15 is_stmt 1 view .LVU563
	.loc 1 284 49 is_stmt 0 view .LVU564
	cmpq	40(%rsp), %rbp
	jbe	.L155
.LBE216:
.LBE285:
	.loc 1 225 9 view .LVU565
	movq	$0, (%rsp)
	.loc 1 225 46 view .LVU566
	xorl	%r12d, %r12d
.LVL231:
	.loc 1 225 25 view .LVU567
	xorl	%ebx, %ebx
.LVL232:
	.loc 1 225 17 view .LVU568
	xorl	%r13d, %r13d
.LBB286:
.LBB217:
	.loc 1 284 49 view .LVU569
	movq	$0, 40(%rsp)
.LVL233:
	.loc 1 284 49 view .LVU570
.LBE217:
.LBE286:
	.loc 1 218 8 view .LVU571
	movb	$1, 8(%rsp)
	jmp	.L46
.LVL234:
.L34:
	.loc 1 245 5 is_stmt 1 view .LVU572
	movl	28(%rsp), %edi
	xorl	%edx, %edx
	xorl	%esi, %esi
	movl	$2, %ecx
	call	fdadvise@PLT
.LVL235:
	.loc 1 257 3 view .LVU573
	.loc 1 257 6 is_stmt 0 view .LVU574
	cmpb	$1, 67(%rsp)
	je	.L51
	testb	%r12b, %r12b
	je	.L38
.L141:
	.loc 1 257 3 is_stmt 1 view .LVU575
	.loc 1 257 35 is_stmt 0 view .LVU576
	cmpb	$0, print_lines(%rip)
	je	.L40
	.p2align 4,,10
	.p2align 3
.L52:
.LBB287:
.LBB288:
	.loc 1 334 21 view .LVU577
	movq	$0, (%rsp)
	xorl	%r13d, %r13d
	leaq	96(%rsp), %r15
	movabsq	$-8608480567731124087, %r14
	movq	$0, 40(%rsp)
.LVL236:
	.p2align 4,,10
	.p2align 3
.L58:
	.loc 1 334 21 view .LVU578
.LBE288:
	.loc 1 316 13 is_stmt 1 view .LVU579
	.loc 1 316 28 is_stmt 0 view .LVU580
	movl	28(%rsp), %edi
	movl	$16384, %edx
	movq	%r15, %rsi
	call	safe_read@PLT
.LVL237:
	.loc 1 316 13 view .LVU581
	testq	%rax, %rax
	je	.L156
.LBB289:
	.loc 1 318 11 is_stmt 1 view .LVU582
	.loc 1 318 14 is_stmt 0 view .LVU583
	cmpq	$-1, %rax
	je	.L157
	.loc 1 325 11 is_stmt 1 view .LVU584
	.loc 1 327 11 view .LVU585
.LVL238:
	.loc 1 328 11 view .LVU586
	.loc 1 325 17 is_stmt 0 view .LVU587
	addq	%rax, 40(%rsp)
.LVL239:
	.loc 1 328 17 view .LVU588
	leaq	(%r15,%rax), %rbp
.LVL240:
	.loc 1 329 11 is_stmt 1 view .LVU589
	.loc 1 331 11 view .LVU590
	mulq	%r14
.LVL241:
	.loc 1 331 11 is_stmt 0 view .LVU591
	movq	%rdx, %rbx
	shrq	$3, %rbx
	.loc 1 331 14 view .LVU592
	testb	%r13b, %r13b
	jne	.L105
	.loc 1 334 21 is_stmt 1 view .LVU593
	cmpq	%r15, %rbp
	je	.L106
	movq	(%rsp), %rdx
	.loc 1 327 17 is_stmt 0 view .LVU594
	movq	%r15, %rax
.LVL242:
	.p2align 4,,10
	.p2align 3
.L56:
	.loc 1 335 17 is_stmt 1 view .LVU595
	.loc 1 335 28 is_stmt 0 view .LVU596
	addq	$1, %rax
.LVL243:
	.loc 1 335 31 view .LVU597
	xorl	%ecx, %ecx
	cmpb	$10, -1(%rax)
	sete	%cl
	.loc 1 335 23 view .LVU598
	addq	%rcx, %rdx
.LVL244:
	.loc 1 334 21 is_stmt 1 view .LVU599
	cmpq	%rax, %rbp
	jne	.L56
	movq	%rdx, %rax
.LVL245:
	.loc 1 334 21 is_stmt 0 view .LVU600
	subq	(%rsp), %rax
	.loc 1 335 23 view .LVU601
	movq	%rdx, (%rsp)
.LVL246:
	.loc 1 335 23 view .LVU602
	cmpq	%rax, %rbx
	setnb	%r13b
.LVL247:
	.loc 1 335 23 view .LVU603
	jmp	.L58
.LVL248:
	.p2align 4,,10
	.p2align 3
.L105:
	.loc 1 335 23 view .LVU604
	movq	(%rsp), %r12
	.loc 1 327 17 view .LVU605
	movq	%r15, %rdi
	jmp	.L54
.LVL249:
	.p2align 4,,10
	.p2align 3
.L57:
	.loc 1 342 19 is_stmt 1 view .LVU606
	leaq	1(%rax), %rdi
.LVL250:
	.loc 1 343 19 view .LVU607
	addq	$1, %r12
.LVL251:
.L54:
	.loc 1 340 21 view .LVU608
	.loc 1 340 48 is_stmt 0 view .LVU609
	movq	%rbp, %rdx
	.loc 1 340 27 view .LVU610
	movl	$10, %esi
	.loc 1 340 48 view .LVU611
	subq	%rdi, %rdx
	.loc 1 340 27 view .LVU612
	call	memchr@PLT
.LVL252:
	.loc 1 340 21 view .LVU613
	testq	%rax, %rax
	jne	.L57
	movq	%r12, %rax
.LVL253:
	.loc 1 340 21 view .LVU614
	subq	(%rsp), %rax
	movq	%r12, (%rsp)
.LVL254:
	.loc 1 340 21 view .LVU615
	cmpq	%rax, %rbx
	setnb	%r13b
.LVL255:
	.loc 1 340 21 view .LVU616
	jmp	.L58
.LVL256:
.L38:
	.loc 1 340 21 view .LVU617
.LBE289:
.LBE287:
	.loc 1 311 8 is_stmt 1 view .LVU618
	.loc 1 311 11 is_stmt 0 view .LVU619
	cmpb	$0, 67(%rsp)
	je	.L52
	jmp	.L51
.LVL257:
	.p2align 4,,10
	.p2align 3
.L156:
	.loc 1 218 8 view .LVU620
	movb	$1, 8(%rsp)
	movq	%rax, %rbx
	.loc 1 225 46 view .LVU621
	xorl	%r12d, %r12d
	.loc 1 225 17 view .LVU622
	xorl	%r13d, %r13d
.LVL258:
	.loc 1 225 17 view .LVU623
	jmp	.L46
.LVL259:
	.p2align 4,,10
	.p2align 3
.L157:
.LBB293:
.LBB290:
	.loc 1 320 15 is_stmt 1 view .LVU624
	movq	72(%rsp), %rdx
	movl	$3, %esi
	xorl	%edi, %edi
.LBE290:
.LBE293:
	.loc 1 225 25 is_stmt 0 view .LVU625
	xorl	%ebx, %ebx
	.loc 1 225 17 view .LVU626
	xorl	%r13d, %r13d
.LVL260:
.LBB294:
.LBB291:
	.loc 1 320 15 view .LVU627
	call	quotearg_n_style_colon@PLT
.LVL261:
	.loc 1 320 15 view .LVU628
	movq	%rax, %r12
	.loc 1 320 25 view .LVU629
	call	__errno_location@PLT
.LVL262:
	.loc 1 320 15 view .LVU630
	movq	%r12, %rcx
	leaq	.LC2(%rip), %rdx
	xorl	%edi, %edi
	movl	(%rax), %esi
	xorl	%eax, %eax
.LBE291:
.LBE294:
	.loc 1 225 46 view .LVU631
	xorl	%r12d, %r12d
.LBB295:
.LBB292:
	.loc 1 320 15 view .LVU632
	call	error@PLT
.LVL263:
	.loc 1 321 15 is_stmt 1 view .LVU633
	.loc 1 322 15 view .LVU634
	jmp	.L46
.LVL264:
	.p2align 4,,10
	.p2align 3
.L106:
	.loc 1 334 21 is_stmt 0 view .LVU635
	movl	$1, %r13d
.LVL265:
	.loc 1 353 11 is_stmt 1 view .LVU636
	jmp	.L58
.LVL266:
.L45:
	.loc 1 353 11 is_stmt 0 view .LVU637
	movq	%rbp, %rsi
	notq	%rsi
	shrq	$63, %rsi
	jmp	.L99
.LVL267:
.L35:
	.loc 1 353 11 view .LVU638
.LBE292:
.LBE295:
	.loc 1 245 5 is_stmt 1 view .LVU639
	movl	28(%rsp), %edi
	movl	$2, %ecx
	xorl	%edx, %edx
	xorl	%esi, %esi
	call	fdadvise@PLT
.LVL268:
	jmp	.L141
.LVL269:
.L154:
	.loc 1 586 1 is_stmt 0 view .LVU640
	call	__stack_chk_fail@PLT
.LVL270:
	.cfi_endproc
.LFE172:
	.size	wc, .-wc
	.section	.rodata.str1.1
.LC3:
	.string	"wc"
.LC4:
	.string	" invocation"
.LC5:
	.string	""
	.section	.rodata.str1.8,"aMS",@progbits,1
	.align 8
.LC6:
	.string	"Try '%s --help' for more information.\n"
	.align 8
.LC7:
	.string	"Usage: %s [OPTION]... [FILE]...\n  or:  %s [OPTION]... --files0-from=F\n"
	.align 8
.LC8:
	.string	"Print newline, word, and byte counts for each FILE, and a total line if\nmore than one FILE is specified.  A word is a non-zero-length sequence of\ncharacters delimited by white space.\n"
	.align 8
.LC9:
	.string	"\nWith no FILE, or when FILE is -, read standard input.\n"
	.align 8
.LC10:
	.ascii	"\nThe options below may be used to select whi"
	.string	"ch counts are printed, always in\nthe following order: newline, word, character, byte, maximum line length.\n  -c, --bytes            print the byte counts\n  -m, --chars            print the character counts\n  -l, --lines            print the newline counts\n"
	.align 8
.LC11:
	.ascii	"      --files0-from=F    read input from the"
	.string	" files specified by\n                           NUL-terminated names in file F;\n                           If F is - then read names from standard input\n  -L, --max-line-length  print the maximum display width\n  -w, --words            print the word counts\n"
	.align 8
.LC12:
	.string	"      --help     display this help and exit\n"
	.align 8
.LC13:
	.string	"      --version  output version information and exit\n"
	.section	.rodata.str1.1
.LC14:
	.string	"["
.LC15:
	.string	"test invocation"
.LC16:
	.string	"coreutils"
.LC17:
	.string	"Multi-call invocation"
.LC18:
	.string	"sha224sum"
.LC19:
	.string	"sha2 utilities"
.LC20:
	.string	"sha256sum"
.LC21:
	.string	"sha384sum"
.LC22:
	.string	"sha512sum"
.LC23:
	.string	"\n%s online help: <%s>\n"
	.section	.rodata.str1.8
	.align 8
.LC24:
	.string	"https://www.gnu.org/software/coreutils/"
	.section	.rodata.str1.1
.LC25:
	.string	"GNU coreutils"
.LC26:
	.string	"en_"
	.section	.rodata.str1.8
	.align 8
.LC27:
	.string	"Report any translation bugs to <https://translationproject.org/team/>\n"
	.section	.rodata.str1.1
.LC28:
	.string	"Full documentation <%s%s>\n"
	.section	.rodata.str1.8
	.align 8
.LC29:
	.string	"or available locally via: info '(coreutils) %s%s'\n"
	.text
	.p2align 4
	.globl	usage
	.type	usage, @function
usage:
.LVL271:
.LFB168:
	.loc 1 113 1 is_stmt 1 view -0
	.cfi_startproc
	.loc 1 113 1 is_stmt 0 view .LVU642
	endbr64
	pushq	%r14
	.cfi_def_cfa_offset 16
	.cfi_offset 14, -16
	.loc 1 115 5 view .LVU643
	movl	$5, %edx
	.loc 1 113 1 view .LVU644
	pushq	%r13
	.cfi_def_cfa_offset 24
	.cfi_offset 13, -24
	pushq	%r12
	.cfi_def_cfa_offset 32
	.cfi_offset 12, -32
	pushq	%rbp
	.cfi_def_cfa_offset 40
	.cfi_offset 6, -40
	movl	%edi, %ebp
	subq	$136, %rsp
	.cfi_def_cfa_offset 176
	movq	program_name(%rip), %r12
	.loc 1 113 1 view .LVU645
	movq	%fs:40, %rax
	movq	%rax, 120(%rsp)
	xorl	%eax, %eax
	.loc 1 114 3 is_stmt 1 view .LVU646
	.loc 1 114 6 is_stmt 0 view .LVU647
	testl	%edi, %edi
	je	.L159
	.loc 1 115 5 is_stmt 1 view .LVU648
	.loc 1 115 5 view .LVU649
	leaq	.LC6(%rip), %rsi
	xorl	%edi, %edi
.LVL272:
	.loc 1 115 5 is_stmt 0 view .LVU650
	call	dcgettext@PLT
.LVL273:
.LBB310:
.LBB311:
	.loc 2 100 10 view .LVU651
	movq	stderr(%rip), %rdi
	movq	%r12, %rcx
	movl	$1, %esi
.LBE311:
.LBE310:
	.loc 1 115 5 view .LVU652
	movq	%rax, %rdx
.LVL274:
.LBB313:
.LBI310:
	.loc 2 98 1 is_stmt 1 view .LVU653
.LBB312:
	.loc 2 100 3 view .LVU654
	.loc 2 100 10 is_stmt 0 view .LVU655
	xorl	%eax, %eax
.LVL275:
	.loc 2 100 10 view .LVU656
	call	__fprintf_chk@PLT
.LVL276:
.L160:
	.loc 2 100 10 view .LVU657
.LBE312:
.LBE313:
	.loc 1 150 3 is_stmt 1 view .LVU658
	movl	%ebp, %edi
	call	exit@PLT
.LVL277:
.L159:
	.loc 1 118 7 view .LVU659
	.loc 1 118 15 is_stmt 0 view .LVU660
	leaq	.LC7(%rip), %rsi
	xorl	%edi, %edi
.LVL278:
	.loc 1 118 15 view .LVU661
	call	dcgettext@PLT
.LVL279:
.LBB314:
.LBB315:
	.loc 2 107 10 view .LVU662
	movq	%r12, %rcx
	movq	%r12, %rdx
	movl	$1, %edi
.LBE315:
.LBE314:
	.loc 1 118 15 view .LVU663
	movq	%rax, %rsi
.LVL280:
.LBB317:
.LBI314:
	.loc 2 105 1 is_stmt 1 view .LVU664
.LBB316:
	.loc 2 107 3 view .LVU665
	.loc 2 107 10 is_stmt 0 view .LVU666
	xorl	%eax, %eax
.LVL281:
	.loc 2 107 10 view .LVU667
	call	__printf_chk@PLT
.LVL282:
	.loc 2 107 10 view .LVU668
.LBE316:
.LBE317:
	.loc 1 123 7 is_stmt 1 view .LVU669
	movq	stdout(%rip), %r12
	movl	$5, %edx
	xorl	%edi, %edi
	leaq	.LC8(%rip), %rsi
	call	dcgettext@PLT
.LVL283:
	movq	%r12, %rsi
	movq	%rax, %rdi
	call	fputs_unlocked@PLT
.LVL284:
	.loc 1 129 7 view .LVU670
.LBB318:
.LBI318:
	.loc 5 581 1 view .LVU671
.LBB319:
	.loc 5 583 3 view .LVU672
	movq	stdout(%rip), %r12
	movl	$5, %edx
	xorl	%edi, %edi
	leaq	.LC9(%rip), %rsi
	call	dcgettext@PLT
.LVL285:
	movq	%r12, %rsi
	movq	%rax, %rdi
	call	fputs_unlocked@PLT
.LVL286:
.LBE319:
.LBE318:
	.loc 1 131 7 view .LVU673
	movq	stdout(%rip), %r12
	movl	$5, %edx
	xorl	%edi, %edi
	leaq	.LC10(%rip), %rsi
	call	dcgettext@PLT
.LVL287:
	movq	%r12, %rsi
	movq	%rax, %rdi
	call	fputs_unlocked@PLT
.LVL288:
	.loc 1 139 7 view .LVU674
	movq	stdout(%rip), %r12
	movl	$5, %edx
	xorl	%edi, %edi
	leaq	.LC11(%rip), %rsi
	call	dcgettext@PLT
.LVL289:
	movq	%r12, %rsi
	movq	%rax, %rdi
	call	fputs_unlocked@PLT
.LVL290:
	.loc 1 146 7 view .LVU675
	movq	stdout(%rip), %r12
	movl	$5, %edx
	xorl	%edi, %edi
	leaq	.LC12(%rip), %rsi
	call	dcgettext@PLT
.LVL291:
	movq	%r12, %rsi
	movq	%rax, %rdi
	call	fputs_unlocked@PLT
.LVL292:
	.loc 1 147 7 view .LVU676
	movl	$5, %edx
	movq	stdout(%rip), %r12
	xorl	%edi, %edi
	leaq	.LC13(%rip), %rsi
	call	dcgettext@PLT
.LVL293:
	movq	%r12, %rsi
	movq	%rax, %rdi
	call	fputs_unlocked@PLT
.LVL294:
	.loc 1 148 7 view .LVU677
.LBB320:
.LBI320:
	.loc 5 634 1 view .LVU678
.LBB321:
	.loc 5 636 3 view .LVU679
	.loc 5 636 67 is_stmt 0 view .LVU680
	leaq	.LC14(%rip), %rax
	.loc 5 647 25 view .LVU681
	movq	%rsp, %rdx
	.loc 5 636 67 view .LVU682
	leaq	.LC20(%rip), %rcx
	movq	%rax, (%rsp)
	leaq	.LC15(%rip), %rax
	.loc 5 649 33 view .LVU683
	movl	$119, %edi
	movl	$99, %esi
	.loc 5 636 67 view .LVU684
	movq	%rax, 8(%rsp)
	leaq	.LC16(%rip), %rax
	movq	%rax, 16(%rsp)
	leaq	.LC17(%rip), %rax
	movq	%rax, 24(%rsp)
	leaq	.LC18(%rip), %rax
	movq	%rcx, 48(%rsp)
	leaq	.LC21(%rip), %rcx
	movq	%rax, 32(%rsp)
	leaq	.LC19(%rip), %rax
	movq	%rcx, 64(%rsp)
	leaq	.LC22(%rip), %rcx
	movq	%rax, 40(%rsp)
	movq	%rax, 56(%rsp)
	movq	%rax, 72(%rsp)
	movq	%rcx, 80(%rsp)
	movq	%rax, 88(%rsp)
	movq	$0, 96(%rsp)
	movq	$0, 104(%rsp)
	.loc 5 646 3 is_stmt 1 view .LVU685
.LVL295:
	.loc 5 647 3 view .LVU686
	.loc 5 649 3 view .LVU687
	.loc 5 649 9 view .LVU688
	.p2align 4,,10
	.p2align 3
.L180:
	.loc 5 650 5 view .LVU689
	.loc 5 649 18 is_stmt 0 view .LVU690
	movq	16(%rdx), %rax
	.loc 5 650 13 view .LVU691
	addq	$16, %rdx
.LVL296:
	.loc 5 649 9 is_stmt 1 view .LVU692
	testq	%rax, %rax
	je	.L161
	.loc 5 649 33 is_stmt 0 view .LVU693
	movzbl	(%rax), %ecx
	cmpl	%ecx, %edi
	jne	.L180
	movzbl	1(%rax), %ecx
	cmpl	%ecx, %esi
	jne	.L180
	.loc 5 649 28 view .LVU694
	cmpb	$0, 2(%rax)
	jne	.L180
.L161:
	.loc 5 652 3 is_stmt 1 view .LVU695
	.loc 5 652 15 is_stmt 0 view .LVU696
	movq	8(%rdx), %r12
	.loc 5 655 11 view .LVU697
	leaq	.LC23(%rip), %rsi
	movl	$5, %edx
.LVL297:
	.loc 5 655 11 view .LVU698
	xorl	%edi, %edi
	.loc 5 652 6 view .LVU699
	testq	%r12, %r12
	je	.L164
	.loc 5 653 5 is_stmt 1 view .LVU700
.LVL298:
	.loc 5 655 3 view .LVU701
	.loc 5 655 11 is_stmt 0 view .LVU702
	call	dcgettext@PLT
.LVL299:
.LBB322:
.LBB323:
	.loc 2 107 10 view .LVU703
	leaq	.LC24(%rip), %rcx
	leaq	.LC25(%rip), %rdx
	movl	$1, %edi
.LBE323:
.LBE322:
	.loc 5 655 11 view .LVU704
	movq	%rax, %rsi
.LVL300:
.LBB327:
.LBI322:
	.loc 2 105 1 is_stmt 1 view .LVU705
.LBB324:
	.loc 2 107 3 view .LVU706
	.loc 2 107 10 is_stmt 0 view .LVU707
	xorl	%eax, %eax
.LVL301:
	.loc 2 107 10 view .LVU708
	leaq	.LC3(%rip), %r13
	call	__printf_chk@PLT
.LVL302:
	.loc 2 107 10 view .LVU709
.LBE324:
.LBE327:
	.loc 5 659 3 is_stmt 1 view .LVU710
	.loc 5 659 29 is_stmt 0 view .LVU711
	movl	$5, %edi
	xorl	%esi, %esi
	call	setlocale@PLT
.LVL303:
	movq	%rax, %rdi
.LVL304:
	.loc 5 660 3 is_stmt 1 view .LVU712
	.loc 5 660 6 is_stmt 0 view .LVU713
	testq	%rax, %rax
	je	.L165
	.loc 5 660 22 view .LVU714
	movl	$3, %edx
	leaq	.LC26(%rip), %rsi
	call	strncmp@PLT
.LVL305:
	.loc 5 660 19 view .LVU715
	testl	%eax, %eax
	jne	.L168
.LVL306:
.L165:
	.loc 5 669 3 is_stmt 1 view .LVU716
	.loc 5 669 11 is_stmt 0 view .LVU717
	xorl	%edi, %edi
	movl	$5, %edx
	leaq	.LC28(%rip), %rsi
	call	dcgettext@PLT
.LVL307:
.LBB328:
.LBB329:
	.loc 2 107 10 view .LVU718
	leaq	.LC3(%rip), %rcx
	movl	$1, %edi
	leaq	.LC24(%rip), %rdx
.LBE329:
.LBE328:
	.loc 5 669 11 view .LVU719
	movq	%rax, %rsi
.LVL308:
.LBB334:
.LBI328:
	.loc 2 105 1 is_stmt 1 view .LVU720
.LBB330:
	.loc 2 107 3 view .LVU721
	.loc 2 107 10 is_stmt 0 view .LVU722
	xorl	%eax, %eax
.LVL309:
	.loc 2 107 10 view .LVU723
	call	__printf_chk@PLT
.LVL310:
	.loc 2 107 10 view .LVU724
.LBE330:
.LBE334:
	.loc 5 671 3 is_stmt 1 view .LVU725
	cmpq	%r13, %r12
	leaq	.LC5(%rip), %rcx
	leaq	.LC4(%rip), %r13
	cmovne	%rcx, %r13
.L166:
	.loc 5 671 11 is_stmt 0 view .LVU726
	xorl	%edi, %edi
	leaq	.LC29(%rip), %rsi
	movl	$5, %edx
	call	dcgettext@PLT
.LVL311:
.LBB335:
.LBB336:
	.loc 2 107 10 view .LVU727
	movq	%r13, %rcx
	movq	%r12, %rdx
	movl	$1, %edi
.LBE336:
.LBE335:
	.loc 5 671 11 view .LVU728
	movq	%rax, %rsi
.LVL312:
.LBB338:
.LBI335:
	.loc 2 105 1 is_stmt 1 view .LVU729
.LBB337:
	.loc 2 107 3 view .LVU730
	.loc 2 107 10 is_stmt 0 view .LVU731
	xorl	%eax, %eax
.LVL313:
	.loc 2 107 10 view .LVU732
	call	__printf_chk@PLT
.LVL314:
	.loc 2 107 10 view .LVU733
.LBE337:
.LBE338:
	.loc 5 673 1 view .LVU734
	jmp	.L160
.LVL315:
.L164:
	.loc 5 655 3 is_stmt 1 view .LVU735
	.loc 5 655 11 is_stmt 0 view .LVU736
	call	dcgettext@PLT
.LVL316:
.LBB339:
.LBB325:
	.loc 2 107 10 view .LVU737
	leaq	.LC24(%rip), %rcx
	movl	$1, %edi
	leaq	.LC25(%rip), %rdx
.LBE325:
.LBE339:
	.loc 5 655 11 view .LVU738
	movq	%rax, %rsi
.LVL317:
.LBB340:
	.loc 2 105 1 is_stmt 1 view .LVU739
.LBB326:
	.loc 2 107 3 view .LVU740
	.loc 2 107 10 is_stmt 0 view .LVU741
	xorl	%eax, %eax
.LVL318:
	.loc 2 107 10 view .LVU742
	call	__printf_chk@PLT
.LVL319:
	.loc 2 107 10 view .LVU743
.LBE326:
.LBE340:
	.loc 5 659 3 is_stmt 1 view .LVU744
	.loc 5 659 29 is_stmt 0 view .LVU745
	movl	$5, %edi
	xorl	%esi, %esi
	call	setlocale@PLT
.LVL320:
	movq	%rax, %rdi
.LVL321:
	.loc 5 660 3 is_stmt 1 view .LVU746
	.loc 5 660 6 is_stmt 0 view .LVU747
	testq	%rax, %rax
	je	.L167
	.loc 5 660 22 view .LVU748
	movl	$3, %edx
	leaq	.LC26(%rip), %rsi
	call	strncmp@PLT
.LVL322:
	.loc 5 660 19 view .LVU749
	testl	%eax, %eax
	jne	.L186
.L167:
	.loc 5 669 3 is_stmt 1 view .LVU750
	.loc 5 669 11 is_stmt 0 view .LVU751
	movl	$5, %edx
	leaq	.LC28(%rip), %rsi
	xorl	%edi, %edi
	call	dcgettext@PLT
.LVL323:
.LBB341:
.LBB331:
	.loc 2 107 10 view .LVU752
	leaq	.LC3(%rip), %rcx
	leaq	.LC24(%rip), %rdx
	movl	$1, %edi
.LBE331:
.LBE341:
	.loc 5 669 11 view .LVU753
	movq	%rax, %rsi
.LVL324:
.LBB342:
	.loc 2 105 1 is_stmt 1 view .LVU754
.LBB332:
	.loc 2 107 3 view .LVU755
	.loc 2 107 10 is_stmt 0 view .LVU756
	xorl	%eax, %eax
.LVL325:
	.loc 2 107 10 view .LVU757
.LBE332:
.LBE342:
	.loc 5 646 15 view .LVU758
	leaq	.LC3(%rip), %r12
.LBB343:
.LBB333:
	.loc 2 107 10 view .LVU759
	call	__printf_chk@PLT
.LVL326:
	.loc 2 107 10 view .LVU760
.LBE333:
.LBE343:
	.loc 5 671 3 is_stmt 1 view .LVU761
	leaq	.LC4(%rip), %r13
	jmp	.L166
.L186:
	.loc 5 646 15 is_stmt 0 view .LVU762
	leaq	.LC3(%rip), %r13
	movq	%r13, %r12
.LVL327:
.L168:
	.loc 5 666 7 is_stmt 1 view .LVU763
	movq	stdout(%rip), %r14
	xorl	%edi, %edi
	movl	$5, %edx
	leaq	.LC27(%rip), %rsi
	call	dcgettext@PLT
.LVL328:
	movq	%rax, %rdi
	movq	%r14, %rsi
	call	fputs_unlocked@PLT
.LVL329:
	jmp	.L165
.LBE321:
.LBE320:
	.cfi_endproc
.LFE168:
	.size	usage, .-usage
	.section	.rodata.str1.1
.LC31:
	.string	"/usr/local/share/locale"
.LC32:
	.string	"POSIXLY_CORRECT"
.LC33:
	.string	"David MacKenzie"
.LC34:
	.string	"Paul Rubin"
.LC35:
	.string	"clLmw"
.LC36:
	.string	"extra operand %s"
	.section	.rodata.str1.8
	.align 8
.LC37:
	.string	"file operands cannot be combined with --files0-from"
	.section	.rodata.str1.1
.LC38:
	.string	"%s\n"
.LC39:
	.string	"-"
.LC40:
	.string	"r"
.LC41:
	.string	"cannot open %s for reading"
	.section	.rodata.str1.8
	.align 8
.LC43:
	.string	"cannot read file names from %s"
	.section	.rodata.str1.1
.LC44:
	.string	"%s: read error"
.LC45:
	.string	"src/wc.c"
	.section	.rodata.str1.8
	.align 8
.LC46:
	.string	"!\"unexpected error code from argv_iter\""
	.align 8
.LC47:
	.string	"when reading file names from stdin, no file name of %s allowed"
	.section	.rodata.str1.1
.LC48:
	.string	"total"
.LC49:
	.string	"invalid zero-length file name"
.LC50:
	.string	"%s:%lu: %s"
	.section	.text.startup,"ax",@progbits
	.p2align 4
	.globl	main
	.type	main, @function
main:
.LVL330:
.LFB176:
	.loc 1 681 1 view -0
	.cfi_startproc
	.loc 1 681 1 is_stmt 0 view .LVU765
	endbr64
	pushq	%r15
	.cfi_def_cfa_offset 16
	.cfi_offset 15, -16
	pushq	%r14
	.cfi_def_cfa_offset 24
	.cfi_offset 14, -24
	pushq	%r13
	.cfi_def_cfa_offset 32
	.cfi_offset 13, -32
	leaq	.L195(%rip), %r13
	pushq	%r12
	.cfi_def_cfa_offset 40
	.cfi_offset 12, -40
	pushq	%rbp
	.cfi_def_cfa_offset 48
	.cfi_offset 6, -48
	movq	%rsi, %rbp
	pushq	%rbx
	.cfi_def_cfa_offset 56
	.cfi_offset 3, -56
	movl	%edi, %ebx
	subq	$520, %rsp
	.cfi_def_cfa_offset 576
	.loc 1 691 3 view .LVU766
	movq	(%rsi), %rdi
.LVL331:
	.loc 1 681 1 view .LVU767
	movq	%fs:40, %rax
	movq	%rax, 504(%rsp)
	xorl	%eax, %eax
	.loc 1 682 3 is_stmt 1 view .LVU768
	.loc 1 683 3 view .LVU769
	.loc 1 684 3 view .LVU770
	.loc 1 685 3 view .LVU771
	.loc 1 686 3 view .LVU772
.LVL332:
	.loc 1 687 3 view .LVU773
	.loc 1 688 3 view .LVU774
	.loc 1 690 33 view .LVU775
	.loc 1 691 3 view .LVU776
	call	set_program_name@PLT
.LVL333:
	.loc 1 692 3 view .LVU777
	leaq	.LC5(%rip), %rsi
	movl	$6, %edi
	call	setlocale@PLT
.LVL334:
	.loc 1 693 3 view .LVU778
	leaq	.LC31(%rip), %rsi
	leaq	.LC16(%rip), %rdi
	call	bindtextdomain@PLT
.LVL335:
	.loc 1 694 3 view .LVU779
	leaq	.LC16(%rip), %rdi
	call	textdomain@PLT
.LVL336:
	.loc 1 696 3 view .LVU780
	movq	close_stdout@GOTPCREL(%rip), %rdi
	call	atexit@PLT
.LVL337:
	.loc 1 698 3 view .LVU781
	.loc 1 698 15 is_stmt 0 view .LVU782
	call	getpagesize@PLT
.LVL338:
	.loc 1 701 3 view .LVU783
	movq	stdout(%rip), %rdi
	xorl	%ecx, %ecx
	xorl	%esi, %esi
	.loc 1 698 15 view .LVU784
	cltq
	.loc 1 701 3 view .LVU785
	movl	$1, %edx
	.loc 1 698 15 view .LVU786
	movq	%rax, page_size(%rip)
	.loc 1 701 3 is_stmt 1 view .LVU787
	call	setvbuf@PLT
.LVL339:
	.loc 1 703 3 view .LVU788
	.loc 1 703 22 is_stmt 0 view .LVU789
	leaq	.LC32(%rip), %rdi
	call	getenv@PLT
.LVL340:
	.loc 1 705 57 view .LVU790
	movb	$0, print_bytes(%rip)
	.loc 1 705 43 view .LVU791
	movb	$0, print_chars(%rip)
	.loc 1 703 49 view .LVU792
	testq	%rax, %rax
	.loc 1 705 29 view .LVU793
	movb	$0, print_words(%rip)
	.loc 1 705 15 view .LVU794
	movb	$0, print_lines(%rip)
	.loc 1 706 20 view .LVU795
	movb	$0, print_linelength(%rip)
	.loc 1 707 75 view .LVU796
	movq	$0, max_line_length(%rip)
	.loc 1 707 57 view .LVU797
	movq	$0, total_bytes(%rip)
	.loc 1 707 43 view .LVU798
	movq	$0, total_chars(%rip)
	.loc 1 707 29 view .LVU799
	movq	$0, total_words(%rip)
	.loc 1 707 15 view .LVU800
	movq	$0, total_lines(%rip)
	.loc 1 703 19 view .LVU801
	setne	posixly_correct(%rip)
	.loc 1 705 3 is_stmt 1 view .LVU802
	.loc 1 706 3 view .LVU803
	.loc 1 707 3 view .LVU804
	.loc 1 709 3 view .LVU805
	.loc 1 686 9 is_stmt 0 view .LVU806
	xorl	%r12d, %r12d
.LVL341:
	.p2align 4,,10
	.p2align 3
.L188:
	.loc 1 709 9 is_stmt 1 view .LVU807
	.loc 1 709 18 is_stmt 0 view .LVU808
	xorl	%r8d, %r8d
	leaq	longopts(%rip), %rcx
	movq	%rbp, %rsi
	movl	%ebx, %edi
	leaq	.LC35(%rip), %rdx
	call	getopt_long@PLT
.LVL342:
	.loc 1 709 9 view .LVU809
	cmpl	$-1, %eax
	je	.L303
	.loc 1 710 5 is_stmt 1 view .LVU810
	cmpl	$128, %eax
	jg	.L302
	cmpl	$98, %eax
	jle	.L304
	subl	$99, %eax
.LVL343:
	.loc 1 710 5 is_stmt 0 view .LVU811
	cmpl	$29, %eax
	ja	.L302
	movslq	0(%r13,%rax,4), %rax
	addq	%r13, %rax
	notrack jmp	*%rax
	.section	.rodata
	.align 4
	.align 4
.L195:
	.long	.L199-.L195
	.long	.L302-.L195
	.long	.L302-.L195
	.long	.L302-.L195
	.long	.L302-.L195
	.long	.L302-.L195
	.long	.L302-.L195
	.long	.L302-.L195
	.long	.L302-.L195
	.long	.L198-.L195
	.long	.L197-.L195
	.long	.L302-.L195
	.long	.L302-.L195
	.long	.L302-.L195
	.long	.L302-.L195
	.long	.L302-.L195
	.long	.L302-.L195
	.long	.L302-.L195
	.long	.L302-.L195
	.long	.L302-.L195
	.long	.L196-.L195
	.long	.L302-.L195
	.long	.L302-.L195
	.long	.L302-.L195
	.long	.L302-.L195
	.long	.L302-.L195
	.long	.L302-.L195
	.long	.L302-.L195
	.long	.L302-.L195
	.long	.L194-.L195
	.section	.text.startup
.L194:
	.loc 1 733 9 is_stmt 1 view .LVU812
	.loc 1 733 20 is_stmt 0 view .LVU813
	movq	optarg(%rip), %r12
.LVL344:
	.loc 1 734 9 is_stmt 1 view .LVU814
	jmp	.L188
.L196:
	.loc 1 725 9 view .LVU815
	.loc 1 725 21 is_stmt 0 view .LVU816
	movb	$1, print_words(%rip)
	.loc 1 726 9 is_stmt 1 view .LVU817
	jmp	.L188
.L197:
	.loc 1 717 9 view .LVU818
	.loc 1 717 21 is_stmt 0 view .LVU819
	movb	$1, print_chars(%rip)
	.loc 1 718 9 is_stmt 1 view .LVU820
	jmp	.L188
.L198:
	.loc 1 721 9 view .LVU821
	.loc 1 721 21 is_stmt 0 view .LVU822
	movb	$1, print_lines(%rip)
	.loc 1 722 9 is_stmt 1 view .LVU823
	jmp	.L188
.L199:
	.loc 1 713 9 view .LVU824
	.loc 1 713 21 is_stmt 0 view .LVU825
	movb	$1, print_bytes(%rip)
	.loc 1 714 9 is_stmt 1 view .LVU826
	jmp	.L188
.LVL345:
	.p2align 4,,10
	.p2align 3
.L304:
	.loc 1 710 5 is_stmt 0 view .LVU827
	cmpl	$-130, %eax
	je	.L191
	cmpl	$76, %eax
	jne	.L305
	.loc 1 729 9 is_stmt 1 view .LVU828
	.loc 1 729 26 is_stmt 0 view .LVU829
	movb	$1, print_linelength(%rip)
	.loc 1 730 9 is_stmt 1 view .LVU830
	jmp	.L188
	.p2align 4,,10
	.p2align 3
.L305:
	.loc 1 710 5 is_stmt 0 view .LVU831
	cmpl	$-131, %eax
	je	.L193
.LVL346:
.L302:
.LBB379:
	.loc 1 761 11 is_stmt 1 view .LVU832
	movl	$1, %edi
	call	usage
.LVL347:
	.p2align 4,,10
	.p2align 3
.L193:
	.loc 1 761 11 is_stmt 0 view .LVU833
.LBE379:
	.loc 1 736 7 is_stmt 1 view .LVU834
	.loc 1 736 28 view .LVU835
	.loc 1 738 7 view .LVU836
	subq	$8, %rsp
	.cfi_remember_state
	.cfi_def_cfa_offset 584
	movq	stdout(%rip), %rdi
	xorl	%eax, %eax
.LVL348:
	.loc 1 738 7 is_stmt 0 view .LVU837
	movq	Version(%rip), %rcx
	pushq	$0
	.cfi_def_cfa_offset 592
	leaq	.LC33(%rip), %r9
	leaq	.LC34(%rip), %r8
	leaq	.LC25(%rip), %rdx
	leaq	.LC3(%rip), %rsi
	call	version_etc@PLT
.LVL349:
	.loc 1 738 7 is_stmt 1 view .LVU838
	xorl	%edi, %edi
	call	exit@PLT
.LVL350:
.L303:
	.cfi_restore_state
	.loc 1 744 3 view .LVU839
	.loc 1 744 6 is_stmt 0 view .LVU840
	cmpb	$0, print_lines(%rip)
	jne	.L202
	.loc 1 744 22 discriminator 1 view .LVU841
	cmpb	$0, print_words(%rip)
	je	.L306
.L202:
	.loc 1 748 3 is_stmt 1 view .LVU842
.LVL351:
	.loc 1 749 3 view .LVU843
	.loc 1 750 3 view .LVU844
	movslq	optind(%rip), %rax
.LVL352:
	.loc 1 750 6 is_stmt 0 view .LVU845
	testq	%r12, %r12
	je	.L203
.LBB390:
	.loc 1 752 7 is_stmt 1 view .LVU846
	.loc 1 756 7 view .LVU847
	.loc 1 756 10 is_stmt 0 view .LVU848
	cmpl	%eax, %ebx
	jg	.L307
	.loc 1 764 7 is_stmt 1 view .LVU849
	.loc 1 764 11 is_stmt 0 view .LVU850
	leaq	.LC39(%rip), %rsi
	movq	%r12, %rdi
	call	strcmp@PLT
.LVL353:
	.loc 1 764 10 view .LVU851
	testl	%eax, %eax
	jne	.L205
	.loc 1 765 9 is_stmt 1 view .LVU852
	.loc 1 765 16 is_stmt 0 view .LVU853
	movq	stdin(%rip), %rbp
.LVL354:
.L206:
	.loc 1 776 7 is_stmt 1 view .LVU854
	.loc 1 777 7 view .LVU855
	.loc 1 777 11 is_stmt 0 view .LVU856
	movq	%rbp, %rdi
	call	fileno@PLT
.LVL355:
.LBB380:
.LBB381:
	.loc 8 469 10 view .LVU857
	leaq	352(%rsp), %rdx
	movl	$1, %edi
.LBE381:
.LBE380:
	.loc 1 777 11 view .LVU858
	movl	%eax, %esi
.LVL356:
.LBB383:
.LBI380:
	.loc 8 467 1 is_stmt 1 view .LVU859
.LBB382:
	.loc 8 469 3 view .LVU860
	.loc 8 469 10 is_stmt 0 view .LVU861
	call	__fxstat@PLT
.LVL357:
	.loc 8 469 10 view .LVU862
.LBE382:
.LBE383:
	.loc 1 777 10 view .LVU863
	testl	%eax, %eax
	jne	.L207
	.loc 1 778 14 view .LVU864
	movl	376(%rsp), %eax
	andl	$61440, %eax
	.loc 1 778 11 view .LVU865
	cmpl	$32768, %eax
	je	.L308
.L207:
	.loc 1 792 11 is_stmt 1 view .LVU866
.LVL358:
	.loc 1 793 11 view .LVU867
	.loc 1 794 11 view .LVU868
	.loc 1 794 16 is_stmt 0 view .LVU869
	movq	%rbp, %rdi
	call	argv_iter_init_stream@PLT
.LVL359:
	movq	%rax, %rbp
.LVL360:
	.loc 1 794 16 view .LVU870
.LBE390:
	.loc 1 805 3 is_stmt 1 view .LVU871
	.loc 1 805 6 is_stmt 0 view .LVU872
	testq	%rax, %rax
	je	.L234
	.loc 1 808 3 is_stmt 1 view .LVU873
.LVL361:
.LBB391:
.LBI391:
	.loc 1 625 1 view .LVU874
.LBB392:
	.loc 1 627 3 view .LVU875
.LBB393:
.LBI393:
	.file 9 "./lib/xalloc.h"
	.loc 9 99 1 view .LVU876
.LBB394:
	.loc 9 101 3 view .LVU877
	.loc 9 103 3 view .LVU878
	.loc 9 103 10 is_stmt 0 view .LVU879
	movl	$152, %edi
	call	xmalloc@PLT
.LVL362:
	.loc 9 103 10 view .LVU880
.LBE394:
.LBE393:
.LBE392:
.LBE391:
	.loc 1 748 8 view .LVU881
	movb	$0, 39(%rsp)
.LBB416:
.LBB409:
.LBB400:
.LBB395:
	.loc 9 103 10 view .LVU882
	movq	%rax, 8(%rsp)
.LVL363:
	.loc 9 103 10 view .LVU883
.LBE395:
.LBE400:
	.loc 1 629 3 is_stmt 1 view .LVU884
.L221:
	.loc 1 634 5 view .LVU885
	.loc 1 634 23 is_stmt 0 view .LVU886
	movq	8(%rsp), %rax
	xorl	%ebx, %ebx
.LBE409:
.LBE416:
.LBB417:
.LBB418:
	.loc 1 653 7 view .LVU887
	movl	$1, %ecx
.LBE418:
.LBE417:
.LBB427:
.LBB410:
	.loc 1 634 23 view .LVU888
	movl	$1, (%rax)
	.loc 1 643 3 is_stmt 1 view .LVU889
.LVL364:
	.loc 1 643 3 is_stmt 0 view .LVU890
.LBE410:
.LBE427:
	.loc 1 809 3 is_stmt 1 view .LVU891
.LBB428:
.LBI417:
	.loc 1 651 1 view .LVU892
.LBB423:
	.loc 1 653 3 view .LVU893
	.loc 1 655 3 view .LVU894
.L228:
	.loc 1 675 3 view .LVU895
	.loc 1 675 3 is_stmt 0 view .LVU896
.LBE423:
.LBE428:
	.loc 1 809 16 view .LVU897
	movl	%ecx, number_width(%rip)
	.loc 1 811 3 is_stmt 1 view .LVU898
.LVL365:
	.loc 1 812 3 view .LVU899
.LBB429:
	.loc 1 812 8 view .LVU900
	.loc 1 812 8 is_stmt 0 view .LVU901
.LBE429:
	.loc 1 809 16 view .LVU902
	xorl	%r13d, %r13d
	.loc 1 811 6 view .LVU903
	movl	$1, %r14d
	leaq	60(%rsp), %r15
	jmp	.L253
.LVL366:
.L312:
.LBB460:
.LBB430:
	.loc 1 834 22 discriminator 1 view .LVU904
	cmpb	$0, 1(%r12)
	jne	.L243
	.loc 1 834 52 discriminator 2 view .LVU905
	leaq	.LC39(%rip), %rsi
	movq	%rax, %rdi
	movq	%rax, 16(%rsp)
	call	strcmp@PLT
.LVL367:
	.loc 1 834 49 discriminator 2 view .LVU906
	movq	16(%rsp), %r8
	testl	%eax, %eax
	je	.L309
	.loc 1 844 7 is_stmt 1 view .LVU907
	.loc 1 844 10 is_stmt 0 view .LVU908
	cmpb	$0, (%r8)
	je	.L245
.LVL368:
	.loc 1 867 9 is_stmt 1 view .LVU909
	.loc 1 867 43 is_stmt 0 view .LVU910
	testq	%rbx, %rbx
	jne	.L257
	movq	8(%rsp), %rdx
.LVL369:
.L249:
.LBB431:
.LBB432:
.LBB433:
.LBB434:
.LBB435:
.LBB436:
	.file 10 "/usr/include/x86_64-linux-gnu/bits/fcntl2.h"
	.loc 10 53 14 view .LVU911
	movq	%r8, %rdi
	xorl	%esi, %esi
	xorl	%eax, %eax
	movq	%rdx, 24(%rsp)
.LVL370:
	.loc 10 53 14 view .LVU912
.LBE436:
.LBE435:
.LBE434:
.LBI433:
	.loc 1 589 1 is_stmt 1 view .LVU913
.LBB443:
	.loc 1 599 7 view .LVU914
.LBB439:
.LBI435:
	.loc 10 41 1 view .LVU915
.LBB437:
	.loc 10 43 3 view .LVU916
	.loc 10 46 3 view .LVU917
	.loc 10 48 7 view .LVU918
	.loc 10 53 7 view .LVU919
	.loc 10 53 14 is_stmt 0 view .LVU920
	movq	%r8, 16(%rsp)
	call	open@PLT
.LVL371:
	.loc 10 53 14 view .LVU921
.LBE437:
.LBE439:
	.loc 1 600 10 view .LVU922
	movq	16(%rsp), %r8
	movq	24(%rsp), %rdx
	cmpl	$-1, %eax
.LBB440:
.LBB438:
	.loc 10 53 14 view .LVU923
	movl	%eax, %edi
.LVL372:
	.loc 10 53 14 view .LVU924
.LBE438:
.LBE440:
	.loc 1 600 7 is_stmt 1 view .LVU925
	.loc 1 600 10 is_stmt 0 view .LVU926
	je	.L300
.LBB441:
	.loc 1 607 11 is_stmt 1 view .LVU927
	.loc 1 607 21 is_stmt 0 view .LVU928
	xorl	%ecx, %ecx
	movq	%r8, %rsi
	movq	%r8, 40(%rsp)
	movl	%eax, 24(%rsp)
.LVL373:
	.loc 1 607 21 view .LVU929
	call	wc
.LVL374:
	.loc 1 608 15 view .LVU930
	movl	24(%rsp), %edi
	.loc 1 607 21 view .LVU931
	movb	%al, 16(%rsp)
.LVL375:
	.loc 1 608 11 is_stmt 1 view .LVU932
	.loc 1 608 15 is_stmt 0 view .LVU933
	call	close@PLT
.LVL376:
	.loc 1 608 14 view .LVU934
	movzbl	16(%rsp), %edx
	movq	40(%rsp), %r8
	testl	%eax, %eax
	jne	.L300
.LVL377:
.L250:
	.loc 1 608 14 view .LVU935
	andl	%edx, %r14d
.LVL378:
.L246:
	.loc 1 608 14 view .LVU936
.LBE441:
.LBE443:
.LBE433:
.LBE432:
.LBE431:
	.loc 1 869 7 is_stmt 1 view .LVU937
	.loc 1 869 10 is_stmt 0 view .LVU938
	testq	%rbx, %rbx
	jne	.L252
	.loc 1 870 9 is_stmt 1 view .LVU939
	.loc 1 870 27 is_stmt 0 view .LVU940
	movq	8(%rsp), %rax
	movl	$1, (%rax)
.L252:
.LBE430:
	.loc 1 812 26 is_stmt 1 view .LVU941
.LVL379:
	.loc 1 812 24 view .LVU942
	addq	$1, %r13
.LVL380:
.L253:
.LBB455:
	.loc 1 814 7 view .LVU943
	.loc 1 815 7 view .LVU944
	.loc 1 816 7 view .LVU945
	.loc 1 816 25 is_stmt 0 view .LVU946
	movq	%r15, %rsi
	movq	%rbp, %rdi
	call	argv_iter@PLT
.LVL381:
	movq	%rax, %r8
.LVL382:
	.loc 1 817 7 is_stmt 1 view .LVU947
	.loc 1 817 10 is_stmt 0 view .LVU948
	testq	%rax, %rax
	je	.L310
	.loc 1 834 7 is_stmt 1 view .LVU949
	.loc 1 834 10 is_stmt 0 view .LVU950
	testq	%r12, %r12
	je	.L311
	.loc 1 834 25 discriminator 1 view .LVU951
	cmpb	$45, (%r12)
	je	.L312
.L243:
	.loc 1 844 7 is_stmt 1 view .LVU952
	.loc 1 844 10 is_stmt 0 view .LVU953
	cmpb	$0, (%r8)
	je	.L245
.L241:
.LVL383:
	.loc 1 867 9 is_stmt 1 view .LVU954
	.loc 1 867 43 is_stmt 0 view .LVU955
	xorl	%edx, %edx
	testq	%rbx, %rbx
	je	.L248
.LVL384:
.L257:
	.loc 1 867 43 view .LVU956
	imulq	$152, %r13, %rdx
.L248:
	.loc 1 867 15 discriminator 4 view .LVU957
	addq	8(%rsp), %rdx
.LBB450:
.LBB446:
	.loc 1 591 17 discriminator 4 view .LVU958
	movq	%r8, %rdi
	movq	%r8, 16(%rsp)
	leaq	.LC39(%rip), %rsi
.LBE446:
.LBE450:
	.loc 1 867 15 discriminator 4 view .LVU959
	movq	%rdx, 24(%rsp)
.LVL385:
.LBB451:
.LBI431:
	.loc 1 589 1 is_stmt 1 discriminator 4 view .LVU960
.LBB447:
	.loc 1 591 3 discriminator 4 view .LVU961
	.loc 1 591 17 is_stmt 0 discriminator 4 view .LVU962
	call	strcmp@PLT
.LVL386:
	.loc 1 591 14 discriminator 4 view .LVU963
	movq	16(%rsp), %r8
	movq	24(%rsp), %rdx
	testl	%eax, %eax
	jne	.L249
.LVL387:
	.loc 1 593 7 is_stmt 1 view .LVU964
	.loc 1 595 14 is_stmt 0 view .LVU965
	orq	$-1, %rcx
	movq	%r8, %rsi
	xorl	%edi, %edi
	.loc 1 593 23 view .LVU966
	movb	$1, have_read_stdin(%rip)
	.loc 1 594 7 is_stmt 1 view .LVU967
.LVL388:
	.loc 1 594 7 is_stmt 0 view .LVU968
.LBE447:
.LBE451:
.LBE455:
.LBE460:
	.file 11 "./lib/xbinary-io.h"
	.loc 11 42 3 is_stmt 1 view .LVU969
	.file 12 "./lib/binary-io.h"
	.loc 12 68 3 view .LVU970
	.loc 12 52 3 view .LVU971
.LBB461:
.LBB456:
.LBB452:
.LBB448:
	.loc 1 595 7 view .LVU972
	.loc 1 595 14 is_stmt 0 view .LVU973
	call	wc
.LVL389:
	.loc 1 595 14 view .LVU974
	movl	%eax, %edx
	jmp	.L250
.LVL390:
.L309:
	.loc 1 595 14 view .LVU975
.LBE448:
.LBE452:
	.loc 1 838 11 is_stmt 1 view .LVU976
	movq	%r8, %rsi
	movl	$4, %edi
	call	quotearg_style@PLT
.LVL391:
	.loc 1 838 24 is_stmt 0 view .LVU977
	xorl	%edi, %edi
	movl	$5, %edx
	leaq	.LC47(%rip), %rsi
	.loc 1 838 11 view .LVU978
	movq	%rax, %r14
.LVL392:
	.loc 1 838 24 view .LVU979
	call	dcgettext@PLT
.LVL393:
	.loc 1 838 11 view .LVU980
	xorl	%esi, %esi
	xorl	%edi, %edi
	movq	%r14, %rcx
	.loc 1 838 24 view .LVU981
	movq	%rax, %rdx
	.loc 1 838 11 view .LVU982
	xorl	%eax, %eax
	call	error@PLT
.LVL394:
	.loc 1 841 11 is_stmt 1 view .LVU983
	.loc 1 844 7 view .LVU984
	.loc 1 844 10 is_stmt 0 view .LVU985
	movq	16(%rsp), %r8
	cmpb	$0, (%r8)
	jne	.L301
.LVL395:
.L245:
	.loc 1 850 11 is_stmt 1 view .LVU986
.LBB453:
	.loc 1 857 15 view .LVU987
	.loc 1 857 47 is_stmt 0 view .LVU988
	movq	%rbp, %rdi
	call	argv_iter_n_args@PLT
.LVL396:
	.loc 1 858 15 view .LVU989
	movl	$5, %edx
	leaq	.LC49(%rip), %rsi
	xorl	%edi, %edi
	.loc 1 857 47 view .LVU990
	movq	%rax, %r14
.LVL397:
	.loc 1 858 15 is_stmt 1 view .LVU991
	call	dcgettext@PLT
.LVL398:
	.loc 1 858 15 is_stmt 0 view .LVU992
	movq	%r12, %rdx
	movl	$3, %esi
	xorl	%edi, %edi
	movq	%rax, 16(%rsp)
	call	quotearg_n_style_colon@PLT
.LVL399:
	movq	16(%rsp), %r9
	movq	%r14, %r8
	xorl	%esi, %esi
	movq	%rax, %rcx
	leaq	.LC50(%rip), %rdx
	xorl	%edi, %edi
	xorl	%eax, %eax
	call	error@PLT
.LVL400:
.L301:
	.loc 1 858 15 view .LVU993
.LBE453:
	.loc 1 865 12 view .LVU994
	xorl	%r14d, %r14d
	jmp	.L246
.LVL401:
.L311:
	.loc 1 844 7 is_stmt 1 view .LVU995
	.loc 1 844 10 is_stmt 0 view .LVU996
	cmpb	$0, (%rax)
	jne	.L241
	.loc 1 850 11 is_stmt 1 view .LVU997
	.loc 1 851 13 view .LVU998
	movl	$5, %edx
	leaq	.LC49(%rip), %rsi
	xorl	%edi, %edi
	.loc 1 865 12 is_stmt 0 view .LVU999
	xorl	%r14d, %r14d
.LVL402:
	.loc 1 851 13 view .LVU1000
	call	dcgettext@PLT
.LVL403:
	.loc 1 851 13 view .LVU1001
	leaq	.LC2(%rip), %rdx
	xorl	%esi, %esi
	xorl	%edi, %edi
	movq	%rax, %rcx
	xorl	%eax, %eax
	call	error@PLT
.LVL404:
	jmp	.L246
.LVL405:
.L310:
	.loc 1 819 11 is_stmt 1 view .LVU1002
	movl	60(%rsp), %eax
.LVL406:
	.loc 1 819 11 is_stmt 0 view .LVU1003
	cmpl	$3, %eax
	je	.L234
	cmpl	$4, %eax
	jne	.L313
	.loc 1 824 15 is_stmt 1 view .LVU1004
	movq	%r12, %rdx
	movl	$3, %esi
	xorl	%edi, %edi
	.loc 1 826 18 is_stmt 0 view .LVU1005
	xorl	%r14d, %r14d
.LVL407:
	.loc 1 824 15 view .LVU1006
	call	quotearg_n_style_colon@PLT
.LVL408:
	.loc 1 824 32 view .LVU1007
	movl	$5, %edx
	leaq	.LC44(%rip), %rsi
	xorl	%edi, %edi
	.loc 1 824 15 view .LVU1008
	movq	%rax, %r13
.LVL409:
	.loc 1 824 32 view .LVU1009
	call	dcgettext@PLT
.LVL410:
	movq	%rax, %r12
.LVL411:
	.loc 1 824 25 view .LVU1010
	call	__errno_location@PLT
.LVL412:
	.loc 1 824 15 view .LVU1011
	movq	%r13, %rcx
	movq	%r12, %rdx
	xorl	%edi, %edi
	movl	(%rax), %esi
	xorl	%eax, %eax
	call	error@PLT
.LVL413:
	.loc 1 826 15 is_stmt 1 view .LVU1012
	.loc 1 827 15 view .LVU1013
	.loc 1 827 15 is_stmt 0 view .LVU1014
.LBE456:
.LBE461:
	.loc 1 877 3 is_stmt 1 view .LVU1015
.L238:
	.loc 1 880 3 view .LVU1016
	.loc 1 880 6 is_stmt 0 view .LVU1017
	cmpb	$0, 39(%rsp)
	jne	.L314
.L254:
	.loc 1 883 3 is_stmt 1 view .LVU1018
	.loc 1 883 11 is_stmt 0 view .LVU1019
	movq	%rbp, %rdi
	call	argv_iter_n_args@PLT
.LVL414:
	.loc 1 883 6 view .LVU1020
	cmpq	$1, %rax
	jbe	.L255
	.loc 1 884 5 is_stmt 1 view .LVU1021
	.loc 1 885 36 is_stmt 0 view .LVU1022
	movl	$5, %edx
	leaq	.LC48(%rip), %rsi
	xorl	%edi, %edi
	call	dcgettext@PLT
.LVL415:
	.loc 1 884 5 view .LVU1023
	movq	max_line_length(%rip), %r8
	movq	total_bytes(%rip), %rcx
	movq	total_chars(%rip), %rdx
	movq	total_words(%rip), %rsi
	.loc 1 885 36 view .LVU1024
	movq	%rax, %r9
	.loc 1 884 5 view .LVU1025
	movq	total_lines(%rip), %rdi
	call	write_counts
.LVL416:
.L255:
	.loc 1 887 3 is_stmt 1 view .LVU1026
	movq	%rbp, %rdi
	call	argv_iter_free@PLT
.LVL417:
	.loc 1 889 3 view .LVU1027
	movq	8(%rsp), %rdi
	call	free@PLT
.LVL418:
	.loc 1 891 3 view .LVU1028
	.loc 1 891 6 is_stmt 0 view .LVU1029
	cmpb	$0, have_read_stdin(%rip)
	jne	.L315
.L256:
	.loc 1 894 3 is_stmt 1 view .LVU1030
	.loc 1 894 28 is_stmt 0 view .LVU1031
	xorl	$1, %r14d
.LVL419:
	.loc 1 895 1 view .LVU1032
	movq	504(%rsp), %rbx
	xorq	%fs:40, %rbx
	.loc 1 894 28 view .LVU1033
	movzbl	%r14b, %eax
	.loc 1 895 1 view .LVU1034
	jne	.L316
	addq	$520, %rsp
	.cfi_remember_state
	.cfi_def_cfa_offset 56
	popq	%rbx
	.cfi_def_cfa_offset 48
	popq	%rbp
	.cfi_def_cfa_offset 40
.LVL420:
	.loc 1 895 1 view .LVU1035
	popq	%r12
	.cfi_def_cfa_offset 32
	popq	%r13
	.cfi_def_cfa_offset 24
	popq	%r14
	.cfi_def_cfa_offset 16
	popq	%r15
	.cfi_def_cfa_offset 8
	ret
.LVL421:
.L313:
	.cfi_restore_state
.LBB462:
.LBB457:
	.loc 1 819 11 view .LVU1036
	cmpl	$2, %eax
	je	.L317
	.loc 1 831 15 is_stmt 1 discriminator 1 view .LVU1037
	.loc 1 831 15 discriminator 1 view .LVU1038
	leaq	__PRETTY_FUNCTION__.8386(%rip), %rcx
	movl	$831, %edx
	leaq	.LC45(%rip), %rsi
	leaq	.LC46(%rip), %rdi
	call	__assert_fail@PLT
.LVL422:
.L317:
.LDL1:
	.loc 1 831 15 is_stmt 0 discriminator 1 view .LVU1039
.LBE457:
.LBE462:
	.loc 1 877 3 is_stmt 1 discriminator 1 view .LVU1040
	.loc 1 877 13 is_stmt 0 discriminator 1 view .LVU1041
	testq	%r12, %r12
	sete	%al
	.loc 1 877 6 discriminator 1 view .LVU1042
	andb	%r14b, %al
	movl	%eax, %ebx
	je	.L238
	.loc 1 877 28 discriminator 1 view .LVU1043
	movq	%rbp, %rdi
	movl	%ebx, %r14d
.LVL423:
	.loc 1 877 28 discriminator 1 view .LVU1044
	call	argv_iter_n_args@PLT
.LVL424:
	.loc 1 877 25 discriminator 1 view .LVU1045
	testq	%rax, %rax
	jne	.L238
	.loc 1 878 5 is_stmt 1 view .LVU1046
.LVL425:
.LBB463:
.LBI463:
	.loc 1 589 1 view .LVU1047
.LBB464:
	.loc 1 591 3 view .LVU1048
	.loc 1 593 7 view .LVU1049
	.loc 1 595 14 is_stmt 0 view .LVU1050
	movq	8(%rsp), %rdx
	orq	$-1, %rcx
	xorl	%esi, %esi
	xorl	%edi, %edi
	.loc 1 593 23 view .LVU1051
	movb	$1, have_read_stdin(%rip)
	.loc 1 594 7 is_stmt 1 view .LVU1052
.LVL426:
	.loc 1 594 7 is_stmt 0 view .LVU1053
.LBE464:
.LBE463:
	.loc 11 42 3 is_stmt 1 view .LVU1054
	.loc 12 68 3 view .LVU1055
	.loc 12 52 3 view .LVU1056
.LBB466:
.LBB465:
	.loc 1 595 7 view .LVU1057
	.loc 1 595 14 is_stmt 0 view .LVU1058
	call	wc
.LVL427:
	movl	%eax, %r14d
.LVL428:
	.loc 1 595 14 view .LVU1059
	jmp	.L238
.LVL429:
.L300:
	.loc 1 595 14 view .LVU1060
.LBE465:
.LBE466:
.LBB467:
.LBB458:
.LBB454:
.LBB449:
.LBB445:
.LBB444:
.LBB442:
	.loc 1 610 15 is_stmt 1 view .LVU1061
	movq	%r8, %rdx
	movl	$3, %esi
	xorl	%edi, %edi
	call	quotearg_n_style_colon@PLT
.LVL430:
	movq	%rax, 16(%rsp)
	.loc 1 610 25 is_stmt 0 view .LVU1062
	call	__errno_location@PLT
.LVL431:
	.loc 1 610 15 view .LVU1063
	movq	16(%rsp), %rcx
	leaq	.LC2(%rip), %rdx
	xorl	%edi, %edi
	movl	(%rax), %esi
	xorl	%eax, %eax
	call	error@PLT
.LVL432:
	.loc 1 611 15 is_stmt 1 view .LVU1064
	.loc 1 611 22 is_stmt 0 view .LVU1065
	xorl	%edx, %edx
	jmp	.L250
.LVL433:
.L314:
	.loc 1 611 22 view .LVU1066
.LBE442:
.LBE444:
.LBE445:
.LBE449:
.LBE454:
.LBE458:
.LBE467:
	.loc 1 881 5 is_stmt 1 view .LVU1067
	leaq	64(%rsp), %rdi
	call	readtokens0_free@PLT
.LVL434:
	jmp	.L254
.L315:
	.loc 1 891 26 is_stmt 0 discriminator 1 view .LVU1068
	xorl	%edi, %edi
	call	close@PLT
.LVL435:
	.loc 1 891 23 discriminator 1 view .LVU1069
	testl	%eax, %eax
	je	.L256
.LBB468:
	.loc 1 892 5 is_stmt 1 view .LVU1070
	call	__errno_location@PLT
.LVL436:
	leaq	.LC39(%rip), %rdx
	movl	$1, %edi
	movl	(%rax), %esi
	xorl	%eax, %eax
	call	error@PLT
.LVL437:
.L306:
	.loc 1 892 5 is_stmt 0 view .LVU1071
.LBE468:
	.loc 1 744 37 discriminator 2 view .LVU1072
	cmpb	$0, print_chars(%rip)
	jne	.L202
	.loc 1 744 52 discriminator 3 view .LVU1073
	cmpb	$0, print_bytes(%rip)
	jne	.L202
	.loc 1 744 7 discriminator 4 view .LVU1074
	cmpb	$0, print_linelength(%rip)
	jne	.L202
	.loc 1 746 5 is_stmt 1 view .LVU1075
	.loc 1 746 45 is_stmt 0 view .LVU1076
	movb	$1, print_bytes(%rip)
	.loc 1 746 31 view .LVU1077
	movb	$1, print_words(%rip)
	.loc 1 746 17 view .LVU1078
	movb	$1, print_lines(%rip)
	jmp	.L202
.LVL438:
.L203:
.LBB469:
	.loc 1 799 7 is_stmt 1 view .LVU1079
	.loc 1 800 7 view .LVU1080
	.loc 1 800 46 is_stmt 0 view .LVU1081
	cmpl	%eax, %ebx
	jle	.L261
	.loc 1 800 37 discriminator 1 view .LVU1082
	movslq	%eax, %rdx
	.loc 1 801 38 discriminator 1 view .LVU1083
	subl	%eax, %ebx
.LVL439:
	.loc 1 800 46 discriminator 1 view .LVU1084
	leaq	0(%rbp,%rdx,8), %rcx
	.loc 1 801 47 discriminator 1 view .LVU1085
	movslq	%ebx, %rbx
	.loc 1 800 46 discriminator 1 view .LVU1086
	movq	%rcx, 16(%rsp)
.LVL440:
	.loc 1 801 7 is_stmt 1 discriminator 1 view .LVU1087
.L216:
	.loc 1 802 7 discriminator 4 view .LVU1088
	.loc 1 802 12 is_stmt 0 discriminator 4 view .LVU1089
	movq	16(%rsp), %rdi
	call	argv_iter_init_argv@PLT
.LVL441:
	movq	%rax, %rbp
.LVL442:
	.loc 1 802 12 discriminator 4 view .LVU1090
.LBE469:
	.loc 1 805 3 is_stmt 1 discriminator 4 view .LVU1091
	.loc 1 805 6 is_stmt 0 discriminator 4 view .LVU1092
	testq	%rax, %rax
	je	.L234
	.loc 1 808 3 is_stmt 1 view .LVU1093
.LVL443:
.LBB470:
	.loc 1 625 1 view .LVU1094
.LBB411:
	.loc 1 627 3 view .LVU1095
.LBB401:
	.loc 9 99 1 view .LVU1096
.LBB396:
	.loc 9 101 3 view .LVU1097
	.loc 9 103 3 view .LVU1098
	.loc 9 103 10 is_stmt 0 view .LVU1099
	imulq	$152, %rbx, %rdi
	call	xmalloc@PLT
.LVL444:
	.loc 9 103 10 view .LVU1100
.LBE396:
.LBE401:
.LBE411:
.LBE470:
	.loc 1 748 8 view .LVU1101
	movb	$0, 39(%rsp)
.LBB471:
.LBB412:
.LBB402:
.LBB397:
	.loc 9 103 10 view .LVU1102
	movq	%rax, 8(%rsp)
.LVL445:
	.loc 9 103 10 view .LVU1103
.LBE397:
.LBE402:
	.loc 1 629 3 is_stmt 1 view .LVU1104
.L258:
	.loc 1 630 7 is_stmt 0 view .LVU1105
	cmpq	$1, %rbx
	je	.L318
.L222:
	.loc 1 630 7 view .LVU1106
	movq	8(%rsp), %rax
.LBE412:
.LBE471:
	.loc 1 748 8 view .LVU1107
	xorl	%r13d, %r13d
	leaq	8(%rax), %r15
.LVL446:
.LBB472:
.LBB413:
.LBB403:
	.loc 1 637 26 is_stmt 1 view .LVU1108
	jmp	.L227
.LVL447:
.L224:
.LBB404:
.LBI404:
	.loc 8 467 1 view .LVU1109
.LBB405:
	.loc 8 469 3 view .LVU1110
	.loc 8 469 10 is_stmt 0 view .LVU1111
	movq	%r15, %rdx
	xorl	%esi, %esi
	movl	$1, %edi
	call	__fxstat@PLT
.LVL448:
.L226:
	.loc 8 469 10 view .LVU1112
.LBE405:
.LBE404:
	.loc 1 637 39 view .LVU1113
	addq	$1, %r13
.LVL449:
	.loc 1 638 27 view .LVU1114
	movl	%eax, -8(%r15)
	.loc 1 637 38 is_stmt 1 view .LVU1115
.LVL450:
	.loc 1 637 38 is_stmt 0 view .LVU1116
	addq	$152, %r15
	.loc 1 637 26 is_stmt 1 view .LVU1117
	.loc 1 637 7 is_stmt 0 view .LVU1118
	cmpq	%rbx, %r13
	je	.L319
.LVL451:
.L227:
	.loc 1 638 9 is_stmt 1 view .LVU1119
	.loc 1 638 36 is_stmt 0 view .LVU1120
	movq	16(%rsp), %rax
	movq	(%rax,%r13,8), %r14
	.loc 1 640 30 view .LVU1121
	testq	%r14, %r14
	je	.L224
	.loc 1 638 43 view .LVU1122
	leaq	.LC39(%rip), %rsi
	movq	%r14, %rdi
	call	strcmp@PLT
.LVL452:
	.loc 1 638 40 view .LVU1123
	testl	%eax, %eax
	je	.L224
.LVL453:
.LBB406:
.LBI406:
	.loc 8 453 1 is_stmt 1 view .LVU1124
.LBB407:
	.loc 8 455 3 view .LVU1125
	.loc 8 455 10 is_stmt 0 view .LVU1126
	movq	%r15, %rdx
	movq	%r14, %rsi
	movl	$1, %edi
	call	__xstat@PLT
.LVL454:
	.loc 8 455 10 view .LVU1127
	jmp	.L226
.L319:
.LVL455:
	.loc 8 455 10 view .LVU1128
.LBE407:
.LBE406:
.LBE403:
.LBE413:
.LBE472:
.LBB473:
.LBB424:
	.loc 1 655 18 view .LVU1129
	movq	8(%rsp), %rdx
	.loc 1 653 7 view .LVU1130
	movl	$1, %ecx
	.loc 1 655 18 view .LVU1131
	cmpl	$0, (%rdx)
	jg	.L228
.LVL456:
.LBB419:
.LBB420:
	.loc 1 660 26 is_stmt 1 view .LVU1132
.LBE420:
	.loc 1 657 11 is_stmt 0 view .LVU1133
	movl	$1, %edi
	.loc 1 658 17 view .LVU1134
	xorl	%eax, %eax
.LBB421:
	.loc 1 660 19 view .LVU1135
	xorl	%ecx, %ecx
	jmp	.L230
.LVL457:
.L263:
	.loc 1 666 29 view .LVU1136
	movl	$7, %edi
.LVL458:
.L229:
	.loc 1 660 38 is_stmt 1 view .LVU1137
	.loc 1 660 39 is_stmt 0 view .LVU1138
	addq	$1, %rcx
.LVL459:
	.loc 1 660 39 view .LVU1139
	addq	$152, %rdx
	.loc 1 660 26 is_stmt 1 view .LVU1140
	.loc 1 660 7 is_stmt 0 view .LVU1141
	cmpq	%rbx, %rcx
	je	.L320
.LVL460:
.L230:
	.loc 1 661 9 is_stmt 1 view .LVU1142
	.loc 1 661 12 is_stmt 0 view .LVU1143
	cmpl	$0, (%rdx)
	jne	.L229
	.loc 1 663 13 is_stmt 1 view .LVU1144
	.loc 1 663 17 is_stmt 0 view .LVU1145
	movl	32(%rdx), %esi
	andl	$61440, %esi
	.loc 1 663 16 view .LVU1146
	cmpl	$32768, %esi
	jne	.L263
	.loc 1 664 15 is_stmt 1 view .LVU1147
.LVL461:
	.loc 1 664 29 is_stmt 0 view .LVU1148
	addq	56(%rdx), %rax
.LVL462:
	.loc 1 664 29 view .LVU1149
	jmp	.L229
.LVL463:
.L205:
	.loc 1 664 29 view .LVU1150
.LBE421:
.LBE419:
.LBE424:
.LBE473:
.LBB474:
	.loc 1 768 11 is_stmt 1 view .LVU1151
	.loc 1 768 20 is_stmt 0 view .LVU1152
	leaq	.LC40(%rip), %rsi
	movq	%r12, %rdi
	call	fopen@PLT
.LVL464:
	movq	%rax, %rbp
.LVL465:
	.loc 1 769 11 is_stmt 1 view .LVU1153
	.loc 1 769 14 is_stmt 0 view .LVU1154
	testq	%rax, %rax
	jne	.L206
.LBB384:
	.loc 1 770 13 is_stmt 1 view .LVU1155
	movq	%r12, %rsi
	movl	$4, %edi
	call	quotearg_style@PLT
.LVL466:
	.loc 1 770 13 is_stmt 0 view .LVU1156
	movl	$5, %edx
	leaq	.LC41(%rip), %rsi
	xorl	%edi, %edi
	movq	%rax, %r13
	call	dcgettext@PLT
.LVL467:
	movq	%rax, %r12
.LVL468:
	.loc 1 770 13 view .LVU1157
	call	__errno_location@PLT
.LVL469:
	movq	%r13, %rcx
	movq	%r12, %rdx
	movl	$1, %edi
	movl	(%rax), %esi
	xorl	%eax, %eax
	call	error@PLT
.LVL470:
.L320:
	.loc 1 770 13 view .LVU1158
.LBE384:
.LBE474:
.LBB475:
.LBB425:
	.loc 1 653 7 view .LVU1159
	movl	$1, %ecx
.LVL471:
.LBB422:
	.loc 1 669 49 view .LVU1160
	movl	$10, %esi
	jmp	.L231
.LVL472:
.L232:
	.loc 1 670 9 is_stmt 1 view .LVU1161
	.loc 1 669 49 is_stmt 0 view .LVU1162
	xorl	%edx, %edx
	.loc 1 670 14 view .LVU1163
	addl	$1, %ecx
.LVL473:
	.loc 1 669 35 is_stmt 1 view .LVU1164
	.loc 1 669 49 is_stmt 0 view .LVU1165
	divq	%rsi
.LVL474:
.L231:
	.loc 1 669 14 is_stmt 1 view .LVU1166
	.loc 1 669 7 is_stmt 0 view .LVU1167
	cmpq	$9, %rax
	ja	.L232
	.loc 1 671 7 is_stmt 1 view .LVU1168
	cmpl	%edi, %ecx
	cmovl	%edi, %ecx
.LVL475:
	.loc 1 671 7 is_stmt 0 view .LVU1169
	jmp	.L228
.LVL476:
.L318:
	.loc 1 671 7 view .LVU1170
.LBE422:
.LBE425:
.LBE475:
.LBB476:
.LBB414:
	.loc 1 631 28 view .LVU1171
	movzbl	print_words(%rip), %eax
	movzbl	print_lines(%rip), %ecx
	addl	%eax, %ecx
	.loc 1 631 42 view .LVU1172
	movzbl	print_chars(%rip), %eax
	addl	%eax, %ecx
	.loc 1 632 16 view .LVU1173
	movzbl	print_bytes(%rip), %eax
	addl	%eax, %ecx
	.loc 1 632 30 view .LVU1174
	movzbl	print_linelength(%rip), %eax
	addl	%eax, %ecx
	.loc 1 631 11 view .LVU1175
	cmpl	$1, %ecx
	jne	.L222
	.loc 1 634 5 is_stmt 1 view .LVU1176
	.loc 1 634 23 is_stmt 0 view .LVU1177
	movq	8(%rsp), %rax
	movl	$1, (%rax)
	.loc 1 643 3 is_stmt 1 view .LVU1178
.LVL477:
	.loc 1 643 3 is_stmt 0 view .LVU1179
.LBE414:
.LBE476:
	.loc 1 809 3 is_stmt 1 view .LVU1180
.LBB477:
	.loc 1 651 1 view .LVU1181
.LBB426:
	.loc 1 653 3 view .LVU1182
	.loc 1 655 3 view .LVU1183
	.loc 1 655 3 is_stmt 0 view .LVU1184
	jmp	.L228
.LVL478:
.L261:
	.loc 1 655 3 view .LVU1185
.LBE426:
.LBE477:
.LBB478:
	.loc 1 800 46 view .LVU1186
	leaq	stdin_only.8376(%rip), %rax
	.loc 1 801 47 view .LVU1187
	movl	$1, %ebx
.LVL479:
	.loc 1 800 46 view .LVU1188
	movq	%rax, 16(%rsp)
	jmp	.L216
.LVL480:
.L308:
	.loc 1 800 46 view .LVU1189
.LBE478:
.LBB479:
	.loc 1 779 25 view .LVU1190
	pxor	%xmm2, %xmm2
	cvtsi2sdq	400(%rsp), %xmm2
	movsd	%xmm2, 8(%rsp)
	.loc 1 779 28 view .LVU1191
	call	physmem_available@PLT
.LVL481:
	movsd	.LC42(%rip), %xmm1
	mulsd	%xmm0, %xmm1
	movsd	.LC30(%rip), %xmm0
	comisd	%xmm0, %xmm1
	jbe	.L321
.L208:
	.loc 1 779 11 discriminator 4 view .LVU1192
	comisd	8(%rsp), %xmm0
	jb	.L207
	.loc 1 781 11 is_stmt 1 view .LVU1193
.LVL482:
	.loc 1 782 11 view .LVU1194
	leaq	64(%rsp), %r13
	movq	%r13, %rdi
	call	readtokens0_init@PLT
.LVL483:
	.loc 1 783 11 view .LVU1195
	.loc 1 783 17 is_stmt 0 view .LVU1196
	movq	%r13, %rsi
	movq	%rbp, %rdi
	call	readtokens0@PLT
.LVL484:
	movb	%al, 39(%rsp)
	.loc 1 783 14 view .LVU1197
	testb	%al, %al
	je	.L211
	.loc 1 783 47 discriminator 1 view .LVU1198
	movq	%rbp, %rdi
	call	rpl_fclose@PLT
.LVL485:
	.loc 1 783 44 discriminator 1 view .LVU1199
	testl	%eax, %eax
	jne	.L211
	.loc 1 786 11 is_stmt 1 view .LVU1200
	.loc 1 786 17 is_stmt 0 view .LVU1201
	movq	72(%rsp), %rax
	.loc 1 787 18 view .LVU1202
	movq	64(%rsp), %rbx
.LVL486:
	.loc 1 788 16 view .LVU1203
	movq	%rax, %rdi
	.loc 1 786 17 view .LVU1204
	movq	%rax, 16(%rsp)
.LVL487:
	.loc 1 787 11 is_stmt 1 view .LVU1205
	.loc 1 788 11 view .LVU1206
	.loc 1 788 16 is_stmt 0 view .LVU1207
	call	argv_iter_init_argv@PLT
.LVL488:
	.loc 1 788 16 view .LVU1208
	movq	%rax, %rbp
.LVL489:
	.loc 1 788 16 view .LVU1209
.LBE479:
	.loc 1 805 3 is_stmt 1 view .LVU1210
	.loc 1 805 6 is_stmt 0 view .LVU1211
	testq	%rax, %rax
	je	.L234
	.loc 1 808 3 is_stmt 1 view .LVU1212
.LVL490:
.LBB480:
	.loc 1 625 1 view .LVU1213
.LBB415:
	.loc 1 627 3 view .LVU1214
	testq	%rbx, %rbx
	movl	$1, %edi
.LBB408:
.LBB398:
	.loc 9 101 7 is_stmt 0 view .LVU1215
	movl	$152, %edx
	cmovne	%rbx, %rdi
.LVL491:
	.loc 9 101 7 view .LVU1216
.LBE398:
	.loc 9 99 1 is_stmt 1 view .LVU1217
.LBB399:
	.loc 9 101 3 view .LVU1218
	.loc 9 101 7 is_stmt 0 view .LVU1219
	movq	%rdx, %rax
.LVL492:
	.loc 9 101 7 view .LVU1220
	mulq	%rdi
	seto	%dl
	movzbl	%dl, %edx
	testq	%rax, %rax
	js	.L234
	.loc 9 101 6 view .LVU1221
	testq	%rdx, %rdx
	jne	.L234
.LVL493:
	.loc 9 103 3 is_stmt 1 view .LVU1222
	.loc 9 103 10 is_stmt 0 view .LVU1223
	movq	%rax, %rdi
	call	xmalloc@PLT
.LVL494:
	movq	%rax, 8(%rsp)
.LVL495:
	.loc 9 103 10 view .LVU1224
.LBE399:
.LBE408:
	.loc 1 629 3 is_stmt 1 view .LVU1225
	.loc 1 629 6 is_stmt 0 view .LVU1226
	testq	%rbx, %rbx
	jne	.L258
	jmp	.L221
.LVL496:
.L321:
	.loc 1 629 6 view .LVU1227
.LBE415:
.LBE480:
.LBB481:
	.loc 1 779 28 discriminator 2 view .LVU1228
	call	physmem_available@PLT
.LVL497:
	mulsd	.LC42(%rip), %xmm0
	jmp	.L208
.LVL498:
.L191:
	.loc 1 779 28 discriminator 2 view .LVU1229
.LBE481:
	.loc 1 736 7 is_stmt 1 view .LVU1230
	xorl	%edi, %edi
	call	usage
.LVL499:
.L307:
.LBB482:
	.loc 1 758 11 view .LVU1231
	movq	0(%rbp,%rax,8), %rsi
	movl	$4, %edi
	call	quotearg_style@PLT
.LVL500:
	.loc 1 758 24 is_stmt 0 view .LVU1232
	xorl	%edi, %edi
	movl	$5, %edx
	leaq	.LC36(%rip), %rsi
	.loc 1 758 11 view .LVU1233
	movq	%rax, %r12
.LVL501:
	.loc 1 758 24 view .LVU1234
	call	dcgettext@PLT
.LVL502:
	.loc 1 758 11 view .LVU1235
	movq	%r12, %rcx
	xorl	%esi, %esi
	xorl	%edi, %edi
	.loc 1 758 24 view .LVU1236
	movq	%rax, %rdx
	.loc 1 758 11 view .LVU1237
	xorl	%eax, %eax
	call	error@PLT
.LVL503:
	.loc 1 759 11 is_stmt 1 view .LVU1238
	xorl	%edi, %edi
	movl	$5, %edx
	leaq	.LC37(%rip), %rsi
	call	dcgettext@PLT
.LVL504:
.LBB385:
.LBB386:
	.loc 2 100 10 is_stmt 0 view .LVU1239
	movq	stderr(%rip), %rdi
	movl	$1, %esi
	leaq	.LC38(%rip), %rdx
.LBE386:
.LBE385:
	.loc 1 759 11 view .LVU1240
	movq	%rax, %rcx
.LVL505:
.LBB388:
.LBI385:
	.loc 2 98 1 is_stmt 1 view .LVU1241
.LBB387:
	.loc 2 100 3 view .LVU1242
	.loc 2 100 10 is_stmt 0 view .LVU1243
	xorl	%eax, %eax
	call	__fprintf_chk@PLT
.LVL506:
	.loc 2 100 10 view .LVU1244
	jmp	.L302
.LVL507:
.L211:
	.loc 2 100 10 view .LVU1245
.LBE387:
.LBE388:
.LBB389:
	.loc 1 784 13 is_stmt 1 view .LVU1246
	movq	%r12, %rsi
	movl	$4, %edi
	call	quotearg_style@PLT
.LVL508:
	movl	$5, %edx
	leaq	.LC43(%rip), %rsi
	xorl	%edi, %edi
	movq	%rax, %r12
.LVL509:
	.loc 1 784 13 is_stmt 0 view .LVU1247
	call	dcgettext@PLT
.LVL510:
	movq	%r12, %rcx
	xorl	%esi, %esi
	movl	$1, %edi
	movq	%rax, %rdx
	xorl	%eax, %eax
	call	error@PLT
.LVL511:
.L316:
	.loc 1 784 13 view .LVU1248
.LBE389:
.LBE482:
	.loc 1 895 1 view .LVU1249
	call	__stack_chk_fail@PLT
.LVL512:
.L234:
.LBB483:
.LBB459:
	.loc 1 829 15 is_stmt 1 view .LVU1250
	call	xalloc_die@PLT
.LVL513:
.LBE459:
.LBE483:
	.cfi_endproc
.LFE176:
	.size	main, .-main
	.section	.rodata
	.type	format_sp_int.8232, @object
	.size	format_sp_int.8232, 5
format_sp_int.8232:
	.string	" %*s"
	.type	__PRETTY_FUNCTION__.8386, @object
	.size	__PRETTY_FUNCTION__.8386, 5
__PRETTY_FUNCTION__.8386:
	.string	"main"
	.local	stdin_only.8376
	.comm	stdin_only.8376,8,8
	.section	.rodata.str1.1
.LC51:
	.string	"bytes"
.LC52:
	.string	"chars"
.LC53:
	.string	"lines"
.LC54:
	.string	"words"
.LC55:
	.string	"files0-from"
.LC56:
	.string	"max-line-length"
.LC57:
	.string	"help"
.LC58:
	.string	"version"
	.section	.data.rel.ro.local,"aw"
	.align 32
	.type	longopts, @object
	.size	longopts, 288
longopts:
	.quad	.LC51
	.long	0
	.zero	4
	.quad	0
	.long	99
	.zero	4
	.quad	.LC52
	.long	0
	.zero	4
	.quad	0
	.long	109
	.zero	4
	.quad	.LC53
	.long	0
	.zero	4
	.quad	0
	.long	108
	.zero	4
	.quad	.LC54
	.long	0
	.zero	4
	.quad	0
	.long	119
	.zero	4
	.quad	.LC55
	.long	1
	.zero	4
	.quad	0
	.long	128
	.zero	4
	.quad	.LC56
	.long	0
	.zero	4
	.quad	0
	.long	76
	.zero	4
	.quad	.LC57
	.long	0
	.zero	4
	.quad	0
	.long	-130
	.zero	4
	.quad	.LC58
	.long	0
	.zero	4
	.quad	0
	.long	-131
	.zero	4
	.quad	0
	.long	0
	.zero	4
	.quad	0
	.long	0
	.zero	4
	.local	posixly_correct
	.comm	posixly_correct,1,1
	.local	page_size
	.comm	page_size,8,8
	.local	have_read_stdin
	.comm	have_read_stdin,1,1
	.local	number_width
	.comm	number_width,4,4
	.local	print_linelength
	.comm	print_linelength,1,1
	.local	print_bytes
	.comm	print_bytes,1,1
	.local	print_chars
	.comm	print_chars,1,1
	.local	print_words
	.comm	print_words,1,1
	.local	print_lines
	.comm	print_lines,1,1
	.local	max_line_length
	.comm	max_line_length,8,8
	.local	total_bytes
	.comm	total_bytes,8,8
	.local	total_chars
	.comm	total_chars,8,8
	.local	total_words
	.comm	total_words,8,8
	.local	total_lines
	.comm	total_lines,8,8
	.section	.rodata.cst8,"aM",@progbits,8
	.align 8
.LC30:
	.long	0
	.long	1097072640
	.align 8
.LC42:
	.long	0
	.long	1071644672
	.text
.Letext0:
	.file 13 "/usr/lib/gcc/x86_64-linux-gnu/9/include/stddef.h"
	.file 14 "/usr/include/x86_64-linux-gnu/bits/types.h"
	.file 15 "/usr/include/x86_64-linux-gnu/bits/types/__mbstate_t.h"
	.file 16 "/usr/include/x86_64-linux-gnu/bits/types/struct_FILE.h"
	.file 17 "/usr/include/x86_64-linux-gnu/bits/types/FILE.h"
	.file 18 "/usr/include/stdio.h"
	.file 19 "/usr/include/x86_64-linux-gnu/bits/sys_errlist.h"
	.file 20 "/usr/include/x86_64-linux-gnu/bits/types/time_t.h"
	.file 21 "/usr/include/x86_64-linux-gnu/bits/types/struct_timespec.h"
	.file 22 "./lib/sys/select.h"
	.file 23 "/usr/include/x86_64-linux-gnu/bits/getopt_core.h"
	.file 24 "/usr/include/x86_64-linux-gnu/bits/getopt_ext.h"
	.file 25 "/usr/include/x86_64-linux-gnu/bits/types/wint_t.h"
	.file 26 "/usr/include/x86_64-linux-gnu/bits/types/mbstate_t.h"
	.file 27 "/usr/include/time.h"
	.file 28 "/usr/include/x86_64-linux-gnu/bits/stat.h"
	.file 29 "/usr/include/signal.h"
	.file 30 "/usr/include/unistd.h"
	.file 31 "/usr/include/errno.h"
	.file 32 "src/version.h"
	.file 33 "./lib/exitfail.h"
	.file 34 "/usr/include/stdint.h"
	.file 35 "./lib/timespec.h"
	.file 36 "/usr/include/ctype.h"
	.file 37 "./lib/xalloc-oversized.h"
	.file 38 "./lib/version-etc.h"
	.file 39 "./lib/progname.h"
	.file 40 "./lib/quotearg.h"
	.file 41 "./lib/argv-iter.h"
	.file 42 "./lib/error.h"
	.file 43 "./lib/fadvise.h"
	.file 44 "./lib/obstack.h"
	.file 45 "./lib/readtokens0.h"
	.file 46 "/usr/include/libintl.h"
	.file 47 "/usr/include/string.h"
	.file 48 "./lib/physmem.h"
	.file 49 "./lib/stdio.h"
	.file 50 "/usr/include/assert.h"
	.file 51 "/usr/include/locale.h"
	.file 52 "/usr/include/stdlib.h"
	.file 53 "./lib/safe-read.h"
	.file 54 "./lib/wchar.h"
	.file 55 "/usr/include/x86_64-linux-gnu/bits/wctype-wchar.h"
	.file 56 "./lib/inttostr.h"
	.file 57 "<built-in>"
	.section	.note.GNU-stack,"",@progbits
	.section	.note.gnu.property,"a"
	.align 8
	.long	 1f - 0f
	.long	 4f - 1f
	.long	 5
0:
	.string	 "GNU"
1:
	.align 8
	.long	 0xc0000002
	.long	 3f - 2f
2:
	.long	 0x3
3:
	.align 8
4:
