	.file	"who.c"
	.text
.Ltext0:
	.section	.rodata.str1.1,"aMS",@progbits,1
.LC0:
	.string	""
.LC1:
	.string	"   ."
.LC2:
	.string	" %-6s"
.LC3:
	.string	" %10s"
.LC4:
	.string	" %-12s"
	.section	.rodata.str1.8,"aMS",@progbits,1
	.align 8
.LC5:
	.string	"%-8.*s%s %-12.*s %-*s%s%s %-8s%s"
	.text
	.p2align 4
	.type	print_line, @function
print_line:
.LVL0:
.LFB152:
	.file 1 "src/who.c"
	.loc 1 248 1 view -0
	.cfi_startproc
	.loc 1 248 1 is_stmt 0 view .LVU1
	pushq	%r15
	.cfi_def_cfa_offset 16
	.cfi_offset 15, -16
	pushq	%r14
	.cfi_def_cfa_offset 24
	.cfi_offset 14, -24
	pushq	%r13
	.cfi_def_cfa_offset 32
	.cfi_offset 13, -32
	movl	%edi, %r13d
	pushq	%r12
	.cfi_def_cfa_offset 40
	.cfi_offset 12, -40
	movq	%rsi, %r12
	pushq	%rbp
	.cfi_def_cfa_offset 48
	.cfi_offset 6, -48
	pushq	%rbx
	.cfi_def_cfa_offset 56
	.cfi_offset 3, -56
	movl	%ecx, %ebx
	subq	$104, %rsp
	.cfi_def_cfa_offset 160
	movzbl	short_output(%rip), %ebp
	.loc 1 248 1 view .LVU2
	movq	176(%rsp), %rax
	movq	%r9, 16(%rsp)
	movq	%r8, 8(%rsp)
	movq	160(%rsp), %r14
	movq	%rax, 24(%rsp)
	movq	168(%rsp), %r9
.LVL1:
	.loc 1 248 1 view .LVU3
	movq	184(%rsp), %r15
	movq	%fs:40, %rax
	movq	%rax, 88(%rsp)
	xorl	%eax, %eax
	.loc 1 249 3 is_stmt 1 view .LVU4
	.loc 1 250 3 view .LVU5
	.loc 1 251 3 view .LVU6
	.loc 1 252 3 view .LVU7
	.loc 1 253 3 view .LVU8
	.loc 1 254 3 view .LVU9
	.loc 1 256 3 view .LVU10
	.loc 1 258 6 is_stmt 0 view .LVU11
	cmpb	$0, include_idle(%rip)
	.loc 1 256 11 view .LVU12
	movb	%dl, 1+mesg.7945(%rip)
	.loc 1 258 3 is_stmt 1 view .LVU13
	.loc 1 258 6 is_stmt 0 view .LVU14
	je	.L2
	.loc 1 258 20 discriminator 1 view .LVU15
	testb	%bpl, %bpl
	je	.L21
.LVL2:
.L2:
	.loc 1 261 5 is_stmt 1 view .LVU16
	leaq	67(%rsp), %rax
	.loc 1 261 13 is_stmt 0 view .LVU17
	movb	$0, 67(%rsp)
	movq	%rax, 32(%rsp)
.L3:
	.loc 1 263 3 is_stmt 1 view .LVU18
	.loc 1 263 6 is_stmt 0 view .LVU19
	testb	%bpl, %bpl
	jne	.L4
	.loc 1 263 24 discriminator 1 view .LVU20
	movq	%r9, %rdi
	movq	%r9, 40(%rsp)
	call	strlen@PLT
.LVL3:
	.loc 1 263 21 discriminator 1 view .LVU21
	movq	40(%rsp), %r9
	cmpq	$11, %rax
	jbe	.L22
.L4:
	.loc 1 266 5 is_stmt 1 view .LVU22
	.loc 1 266 12 is_stmt 0 view .LVU23
	movb	$0, 75(%rsp)
	leaq	75(%rsp), %r14
.L5:
	.loc 1 268 3 is_stmt 1 view .LVU24
	.loc 1 268 15 is_stmt 0 view .LVU25
	cmpb	$0, include_exit(%rip)
	movl	$1, %edi
	je	.L6
	.loc 1 268 43 discriminator 1 view .LVU26
	movq	%r15, %rdi
	call	strlen@PLT
.LVL4:
	.loc 1 268 70 discriminator 1 view .LVU27
	leaq	2(%rax), %rdi
	cmpq	$11, %rax
	movl	$14, %eax
	cmovbe	%rax, %rdi
.L6:
	.loc 1 268 15 discriminator 8 view .LVU28
	call	xmalloc@PLT
.LVL5:
	.loc 1 269 6 discriminator 8 view .LVU29
	cmpb	$0, include_exit(%rip)
	.loc 1 268 15 discriminator 8 view .LVU30
	movq	%rax, %rbp
.LVL6:
	.loc 1 269 3 is_stmt 1 discriminator 8 view .LVU31
	.loc 1 269 6 is_stmt 0 discriminator 8 view .LVU32
	jne	.L23
	.loc 1 272 5 is_stmt 1 view .LVU33
	.loc 1 272 16 is_stmt 0 view .LVU34
	movb	$0, (%rax)
.LVL7:
.L8:
	.loc 1 274 3 is_stmt 1 view .LVU35
	.loc 1 274 9 is_stmt 0 view .LVU36
	cmpb	$0, include_mesg(%rip)
	leaq	56(%rsp), %rdi
	movl	%ebx, %r9d
	movl	%r13d, %edx
	leaq	.LC0(%rip), %rax
	leaq	mesg.7945(%rip), %r8
	cmove	%rax, %r8
	testq	%r12, %r12
	leaq	.LC1(%rip), %rax
	cmove	%rax, %r12
.LVL8:
	.loc 1 274 9 view .LVU37
	movl	time_format_width(%rip), %eax
	subq	$8, %rsp
	.cfi_def_cfa_offset 168
	pushq	%rbp
	.cfi_def_cfa_offset 176
	leaq	.LC5(%rip), %rsi
	pushq	40(%rsp)
	.cfi_def_cfa_offset 184
	movq	%r12, %rcx
	pushq	%r14
	.cfi_def_cfa_offset 192
	pushq	64(%rsp)
	.cfi_def_cfa_offset 200
	pushq	56(%rsp)
	.cfi_def_cfa_offset 208
	pushq	%rax
	.cfi_def_cfa_offset 216
	xorl	%eax, %eax
	pushq	64(%rsp)
	.cfi_def_cfa_offset 224
	call	rpl_asprintf@PLT
.LVL9:
	.loc 1 298 3 is_stmt 1 view .LVU38
	.loc 1 298 6 is_stmt 0 view .LVU39
	addq	$64, %rsp
	.cfi_def_cfa_offset 160
	cmpl	$-1, %eax
	je	.L24
.LBB101:
	.loc 1 303 5 is_stmt 1 view .LVU40
	.loc 1 303 19 is_stmt 0 view .LVU41
	movq	56(%rsp), %rbx
.LVL10:
	.loc 1 303 21 view .LVU42
	movq	%rbx, %rdi
	call	strlen@PLT
.LVL11:
	.loc 1 303 11 view .LVU43
	addq	%rbx, %rax
.LVL12:
	.loc 1 304 5 is_stmt 1 view .LVU44
	.p2align 4,,10
	.p2align 3
.L12:
	.loc 1 305 18 discriminator 1 view .LVU45
	.loc 1 304 11 discriminator 1 view .LVU46
	movq	%rax, %rdx
	subq	$1, %rax
.LVL13:
	.loc 1 304 11 is_stmt 0 discriminator 1 view .LVU47
	cmpb	$32, (%rax)
	je	.L12
	.loc 1 306 5 is_stmt 1 view .LVU48
	.loc 1 306 14 is_stmt 0 view .LVU49
	movb	$0, (%rdx)
.LBE101:
	.loc 1 309 3 is_stmt 1 view .LVU50
	movq	56(%rsp), %rdi
	call	puts@PLT
.LVL14:
	.loc 1 310 3 view .LVU51
	movq	56(%rsp), %rdi
	call	free@PLT
.LVL15:
	.loc 1 311 3 view .LVU52
	movq	88(%rsp), %rax
	xorq	%fs:40, %rax
	jne	.L25
	.loc 1 312 1 is_stmt 0 view .LVU53
	addq	$104, %rsp
	.cfi_remember_state
	.cfi_def_cfa_offset 56
	.loc 1 311 3 view .LVU54
	movq	%rbp, %rdi
	.loc 1 312 1 view .LVU55
	popq	%rbx
	.cfi_def_cfa_offset 48
	popq	%rbp
	.cfi_def_cfa_offset 40
.LVL16:
	.loc 1 312 1 view .LVU56
	popq	%r12
	.cfi_def_cfa_offset 32
	popq	%r13
	.cfi_def_cfa_offset 24
.LVL17:
	.loc 1 312 1 view .LVU57
	popq	%r14
	.cfi_def_cfa_offset 16
	popq	%r15
	.cfi_def_cfa_offset 8
	.loc 1 311 3 view .LVU58
	jmp	free@PLT
.LVL18:
	.p2align 4,,10
	.p2align 3
.L21:
	.cfi_restore_state
	.loc 1 258 40 discriminator 2 view .LVU59
	movq	%r14, %rdi
.LVL19:
	.loc 1 258 40 discriminator 2 view .LVU60
	movq	%r9, 32(%rsp)
	call	strlen@PLT
.LVL20:
	.loc 1 258 37 discriminator 2 view .LVU61
	movq	32(%rsp), %r9
	cmpq	$6, %rax
	ja	.L2
.LBB102:
.LBB103:
	.file 2 "/usr/include/x86_64-linux-gnu/bits/stdio2.h"
	.loc 2 36 10 view .LVU62
	leaq	67(%rsp), %rax
	movq	%r14, %r8
	movl	$8, %edx
	movl	$1, %esi
	movq	%rax, 32(%rsp)
	movq	%rax, %rdi
	leaq	.LC2(%rip), %rcx
	xorl	%eax, %eax
	movq	%r9, 40(%rsp)
.LBE103:
.LBE102:
	.loc 1 259 5 is_stmt 1 view .LVU63
.LVL21:
.LBB105:
.LBI102:
	.loc 2 34 1 view .LVU64
.LBB104:
	.loc 2 36 3 view .LVU65
	.loc 2 36 10 is_stmt 0 view .LVU66
	call	__sprintf_chk@PLT
.LVL22:
	.loc 2 36 10 view .LVU67
	movzbl	short_output(%rip), %ebp
	movq	40(%rsp), %r9
	jmp	.L3
.LVL23:
	.p2align 4,,10
	.p2align 3
.L23:
	.loc 2 36 10 view .LVU68
.LBE104:
.LBE105:
	.loc 1 270 5 is_stmt 1 view .LVU69
.LBB106:
.LBI106:
	.loc 2 34 1 view .LVU70
.LBB107:
	.loc 2 36 3 view .LVU71
	.loc 2 36 10 is_stmt 0 view .LVU72
	movq	%rax, %rdi
	movq	%r15, %r8
	xorl	%eax, %eax
.LVL24:
	.loc 2 36 10 view .LVU73
	movq	$-1, %rdx
	leaq	.LC4(%rip), %rcx
	movl	$1, %esi
	call	__sprintf_chk@PLT
.LVL25:
	.loc 2 36 10 view .LVU74
	jmp	.L8
.LVL26:
	.p2align 4,,10
	.p2align 3
.L22:
	.loc 2 36 10 view .LVU75
.LBE107:
.LBE106:
	.loc 1 264 5 is_stmt 1 view .LVU76
.LBB108:
.LBI108:
	.loc 2 34 1 view .LVU77
.LBB109:
	.loc 2 36 3 view .LVU78
	.loc 2 36 10 is_stmt 0 view .LVU79
	leaq	75(%rsp), %r14
.LVL27:
	.loc 2 36 10 view .LVU80
	movq	%r9, %r8
	movl	$13, %edx
	xorl	%eax, %eax
	leaq	.LC3(%rip), %rcx
	movl	$1, %esi
	movq	%r14, %rdi
	call	__sprintf_chk@PLT
.LVL28:
	jmp	.L5
.LVL29:
.L24:
	.loc 2 36 10 view .LVU81
.LBE109:
.LBE108:
	.loc 1 299 5 is_stmt 1 view .LVU82
	call	xalloc_die@PLT
.LVL30:
.L25:
	.loc 1 311 3 is_stmt 0 view .LVU83
	call	__stack_chk_fail@PLT
.LVL31:
	.cfi_endproc
.LFE152:
	.size	print_line, .-print_line
	.section	.rodata.str1.1
.LC6:
	.string	"id="
	.text
	.p2align 4
	.type	make_id_equals_comment, @function
make_id_equals_comment:
.LVL32:
.LFB156:
	.loc 1 449 1 is_stmt 1 view -0
	.cfi_startproc
	.loc 1 450 3 view .LVU85
	.loc 1 451 3 view .LVU86
	.loc 1 449 1 is_stmt 0 view .LVU87
	pushq	%r12
	.cfi_def_cfa_offset 16
	.cfi_offset 12, -16
	.loc 1 451 36 view .LVU88
	movl	$5, %edx
	leaq	.LC6(%rip), %rsi
	.loc 1 449 1 view .LVU89
	pushq	%rbx
	.cfi_def_cfa_offset 24
	.cfi_offset 3, -24
	movq	%rdi, %rbx
	.loc 1 451 36 view .LVU90
	xorl	%edi, %edi
.LVL33:
	.loc 1 449 1 view .LVU91
	subq	$8, %rsp
	.cfi_def_cfa_offset 32
	.loc 1 451 36 view .LVU92
	call	dcgettext@PLT
.LVL34:
	movq	%rax, %rdi
	.loc 1 451 28 view .LVU93
	call	strlen@PLT
.LVL35:
	.loc 1 451 19 view .LVU94
	leaq	5(%rax), %rdi
	call	xmalloc@PLT
.LVL36:
	.loc 1 453 30 view .LVU95
	movl	$5, %edx
	leaq	.LC6(%rip), %rsi
	xorl	%edi, %edi
	.loc 1 451 19 view .LVU96
	movq	%rax, %r12
.LVL37:
	.loc 1 453 3 is_stmt 1 view .LVU97
	.loc 1 453 30 is_stmt 0 view .LVU98
	call	dcgettext@PLT
.LVL38:
.LBB110:
.LBB111:
	.file 3 "/usr/include/x86_64-linux-gnu/bits/string_fortified.h"
	.loc 3 97 10 view .LVU99
	movq	%r12, %rdi
.LBE111:
.LBE110:
	.loc 1 453 30 view .LVU100
	movq	%rax, %rsi
.LVL39:
.LBB113:
.LBI110:
	.loc 3 95 1 is_stmt 1 view .LVU101
.LBB112:
	.loc 3 97 3 view .LVU102
	.loc 3 97 10 is_stmt 0 view .LVU103
	call	stpcpy@PLT
.LVL40:
	.loc 3 97 10 view .LVU104
.LBE112:
.LBE113:
	.loc 1 454 3 is_stmt 1 view .LVU105
	.loc 1 454 15 is_stmt 0 view .LVU106
	leaq	40(%rbx), %rdx
.LVL41:
.LBB114:
.LBI114:
	.file 4 "src/system.h"
	.loc 4 741 1 is_stmt 1 view .LVU107
.LBB115:
	.loc 4 743 3 view .LVU108
	.loc 4 743 15 is_stmt 0 view .LVU109
	leaq	44(%rbx), %rdi
.LVL42:
	.loc 4 744 3 is_stmt 1 view .LVU110
	.loc 4 744 9 view .LVU111
	jmp	.L27
.LVL43:
	.p2align 4,,10
	.p2align 3
.L29:
	.loc 4 745 5 view .LVU112
	.loc 4 745 19 is_stmt 0 view .LVU113
	addq	$1, %rdx
.LVL44:
	.loc 4 745 10 view .LVU114
	addq	$1, %rax
.LVL45:
	.loc 4 745 13 view .LVU115
	movb	%cl, -1(%rax)
	.loc 4 744 9 is_stmt 1 view .LVU116
	cmpq	%rdx, %rdi
	jbe	.L28
.LVL46:
.L27:
	.loc 4 744 27 is_stmt 0 view .LVU117
	movzbl	(%rdx), %ecx
	.loc 4 744 24 view .LVU118
	testb	%cl, %cl
	jne	.L29
.L28:
	.loc 4 746 3 is_stmt 1 view .LVU119
	.loc 4 746 9 is_stmt 0 view .LVU120
	movb	$0, (%rax)
	.loc 4 747 3 is_stmt 1 view .LVU121
.LVL47:
	.loc 4 747 3 is_stmt 0 view .LVU122
.LBE115:
.LBE114:
	.loc 1 455 3 is_stmt 1 view .LVU123
	.loc 1 456 1 is_stmt 0 view .LVU124
	addq	$8, %rsp
	.cfi_def_cfa_offset 24
	movq	%r12, %rax
	popq	%rbx
	.cfi_def_cfa_offset 16
.LVL48:
	.loc 1 456 1 view .LVU125
	popq	%r12
	.cfi_def_cfa_offset 8
.LVL49:
	.loc 1 456 1 view .LVU126
	ret
	.cfi_endproc
.LFE156:
	.size	make_id_equals_comment, .-make_id_equals_comment
	.p2align 4
	.type	time_string.isra.0, @function
time_string.isra.0:
.LFB169:
	.loc 1 218 1 is_stmt 1 view -0
	.cfi_startproc
	subq	$24, %rsp
	.cfi_def_cfa_offset 32
	.loc 1 228 14 is_stmt 0 view .LVU128
	movslq	%edi, %rdi
	.loc 1 218 1 view .LVU129
	movq	%fs:40, %rax
	movq	%rax, 8(%rsp)
	xorl	%eax, %eax
	.loc 1 220 3 is_stmt 1 view .LVU130
	.loc 1 228 3 view .LVU131
	.loc 1 228 14 is_stmt 0 view .LVU132
	movq	%rdi, (%rsp)
	.loc 1 229 3 is_stmt 1 view .LVU133
	.loc 1 229 20 is_stmt 0 view .LVU134
	movq	%rsp, %rdi
	call	localtime@PLT
.LVL50:
	.loc 1 231 3 is_stmt 1 view .LVU135
	.loc 1 231 6 is_stmt 0 view .LVU136
	testq	%rax, %rax
	je	.L32
	.loc 1 233 7 view .LVU137
	movq	time_format(%rip), %rdx
	movq	%rax, %rcx
	.loc 1 233 7 is_stmt 1 view .LVU138
	movl	$33, %esi
	leaq	buf.7930(%rip), %rdi
	call	strftime@PLT
.LVL51:
	.loc 1 234 7 view .LVU139
	.loc 1 234 14 is_stmt 0 view .LVU140
	leaq	buf.7930(%rip), %rax
.L31:
	.loc 1 238 1 view .LVU141
	movq	8(%rsp), %rdx
	xorq	%fs:40, %rdx
	jne	.L36
	addq	$24, %rsp
	.cfi_remember_state
	.cfi_def_cfa_offset 8
	ret
.LVL52:
	.p2align 4,,10
	.p2align 3
.L32:
	.cfi_restore_state
	.loc 1 237 5 is_stmt 1 view .LVU142
.LBB116:
.LBI116:
	.loc 4 690 1 view .LVU143
.LBB117:
	.loc 4 692 3 view .LVU144
	.loc 4 694 11 is_stmt 0 view .LVU145
	movq	(%rsp), %rdi
	leaq	buf.7930(%rip), %rsi
	call	imaxtostr@PLT
.LVL53:
	.loc 4 694 11 view .LVU146
.LBE117:
.LBE116:
	.loc 1 237 12 view .LVU147
	jmp	.L31
.L36:
	.loc 1 238 1 view .LVU148
	call	__stack_chk_fail@PLT
.LVL54:
	.cfi_endproc
.LFE169:
	.size	time_string.isra.0, .-time_string.isra.0
	.section	.rodata.str1.1
.LC7:
	.string	"  .  "
.LC8:
	.string	"%ld"
.LC9:
	.string	"src/who.c"
.LC10:
	.string	"seconds_idle / (60 * 60) < 24"
.LC11:
	.string	"%02d:%02d"
.LC12:
	.string	" old "
.LC13:
	.string	"%.*s"
.LC14:
	.string	"(%s:%s)"
.LC15:
	.string	"(%s)"
	.text
	.p2align 4
	.type	print_user, @function
print_user:
.LVL55:
.LFB154:
	.loc 1 334 1 is_stmt 1 view -0
	.cfi_startproc
	.loc 1 334 1 is_stmt 0 view .LVU150
	pushq	%r15
	.cfi_def_cfa_offset 16
	.cfi_offset 15, -16
.LBB145:
.LBB146:
	.loc 2 36 10 view .LVU151
	movl	$12, %edx
	leaq	.LC8(%rip), %rcx
.LBE146:
.LBE145:
	.loc 1 334 1 view .LVU152
	pushq	%r14
	.cfi_def_cfa_offset 24
	.cfi_offset 14, -24
	pushq	%r13
	.cfi_def_cfa_offset 32
	.cfi_offset 13, -32
	pushq	%r12
	.cfi_def_cfa_offset 40
	.cfi_offset 12, -40
	pushq	%rbp
	.cfi_def_cfa_offset 48
	.cfi_offset 6, -48
	movq	%rsi, %rbp
.LBB150:
.LBB147:
	.loc 2 36 10 view .LVU153
	movl	$1, %esi
.LVL56:
	.loc 2 36 10 view .LVU154
.LBE147:
.LBE150:
	.loc 1 334 1 view .LVU155
	pushq	%rbx
	.cfi_def_cfa_offset 56
	.cfi_offset 3, -56
	movq	%rdi, %rbx
	subq	$536, %rsp
	.cfi_def_cfa_offset 592
.LBB151:
.LBB148:
	.loc 2 36 10 view .LVU156
	movslq	4(%rdi), %r8
.LBE148:
.LBE151:
	.loc 1 334 1 view .LVU157
	movq	%fs:40, %rax
	movq	%rax, 520(%rsp)
	xorl	%eax, %eax
	.loc 1 335 3 is_stmt 1 view .LVU158
	.loc 1 336 3 view .LVU159
	.loc 1 337 3 view .LVU160
	.loc 1 338 3 view .LVU161
	.loc 1 339 3 view .LVU162
	.loc 1 341 3 view .LVU163
	.loc 1 347 3 view .LVU164
	.loc 1 348 3 view .LVU165
.LVL57:
	.loc 1 349 3 view .LVU166
	.loc 1 349 3 view .LVU167
.LBB152:
.LBI145:
	.loc 2 34 1 view .LVU168
.LBB149:
	.loc 2 36 3 view .LVU169
	.loc 2 36 10 is_stmt 0 view .LVU170
	leaq	196(%rsp), %r13
.LVL58:
	.loc 2 36 10 view .LVU171
	movq	%r13, %rdi
.LVL59:
	.loc 2 36 10 view .LVU172
	call	__sprintf_chk@PLT
.LVL60:
	.loc 2 36 10 view .LVU173
.LBE149:
.LBE152:
	.loc 1 354 3 is_stmt 1 view .LVU174
	.loc 1 354 10 is_stmt 0 view .LVU175
	movzbl	8(%rbx), %edx
	.loc 1 354 6 view .LVU176
	cmpb	$47, %dl
	jne	.L82
	.loc 1 348 9 view .LVU177
	leaq	208(%rsp), %r8
.LVL61:
	.loc 1 348 9 view .LVU178
	movq	%r8, %rcx
.LVL62:
.L38:
	.loc 1 356 3 is_stmt 1 view .LVU179
	.loc 1 356 23 is_stmt 0 view .LVU180
	leaq	8(%rbx), %r12
.LVL63:
.LBB153:
.LBI153:
	.loc 4 741 1 is_stmt 1 view .LVU181
.LBB154:
	.loc 4 743 3 view .LVU182
	.loc 4 743 15 is_stmt 0 view .LVU183
	leaq	40(%rbx), %rsi
.LVL64:
	.loc 4 744 3 is_stmt 1 view .LVU184
	.loc 4 744 9 view .LVU185
	.loc 4 743 15 is_stmt 0 view .LVU186
	movq	%r12, %rax
	jmp	.L39
.LVL65:
	.p2align 4,,10
	.p2align 3
.L41:
	.loc 4 745 5 is_stmt 1 view .LVU187
	.loc 4 745 19 is_stmt 0 view .LVU188
	addq	$1, %rax
.LVL66:
	.loc 4 745 10 view .LVU189
	addq	$1, %rcx
.LVL67:
	.loc 4 745 13 view .LVU190
	movb	%dl, -1(%rcx)
	.loc 4 744 9 is_stmt 1 view .LVU191
	cmpq	%rax, %rsi
	jbe	.L40
	movzbl	(%rax), %edx
.L39:
	.loc 4 744 24 is_stmt 0 view .LVU192
	testb	%dl, %dl
	jne	.L41
.L40:
	.loc 4 746 3 is_stmt 1 view .LVU193
	.loc 4 746 9 is_stmt 0 view .LVU194
	movb	$0, (%rcx)
	.loc 4 747 3 is_stmt 1 view .LVU195
.LVL68:
	.loc 4 747 3 is_stmt 0 view .LVU196
.LBE154:
.LBE153:
	.loc 1 358 3 is_stmt 1 view .LVU197
.LBB155:
.LBI155:
	.file 5 "/usr/include/x86_64-linux-gnu/sys/stat.h"
	.loc 5 453 1 view .LVU198
.LBB156:
	.loc 5 455 3 view .LVU199
	.loc 5 455 10 is_stmt 0 view .LVU200
	leaq	32(%rsp), %rdx
.LVL69:
	.loc 5 455 10 view .LVU201
	movq	%r8, %rsi
	movl	$1, %edi
	call	__xstat@PLT
.LVL70:
	.loc 5 455 10 view .LVU202
.LBE156:
.LBE155:
	.loc 1 358 6 view .LVU203
	testl	%eax, %eax
	jne	.L67
	.loc 1 360 7 is_stmt 1 view .LVU204
.LBB157:
.LBI157:
	.loc 1 317 1 view .LVU205
.LVL71:
.LBB158:
	.loc 1 327 3 view .LVU206
	.loc 1 327 25 is_stmt 0 view .LVU207
	movl	56(%rsp), %eax
.LBE158:
.LBE157:
	.loc 1 361 19 view .LVU208
	movq	104(%rsp), %r15
.LBB160:
.LBB159:
	.loc 1 327 25 view .LVU209
	andl	$16, %eax
.LBE159:
.LBE160:
	.loc 1 360 12 view .LVU210
	cmpl	$1, %eax
	sbbl	%r14d, %r14d
	andl	$2, %r14d
	addl	$43, %r14d
.LVL72:
	.loc 1 361 7 is_stmt 1 view .LVU211
	.loc 1 369 3 view .LVU212
	.loc 1 369 6 is_stmt 0 view .LVU213
	testq	%r15, %r15
	jne	.L44
	movsbl	%r14b, %r14d
.LVL73:
.L42:
	.loc 1 372 5 is_stmt 1 view .LVU214
.LBB161:
.LBI161:
	.loc 2 34 1 view .LVU215
.LBB162:
	.loc 2 36 3 view .LVU216
.LBE162:
.LBE161:
	.loc 1 375 24 is_stmt 0 view .LVU217
	movzbl	76(%rbx), %edx
	leaq	189(%rsp), %r15
.LVL74:
	.loc 1 375 3 is_stmt 1 view .LVU218
.LBB164:
.LBB163:
	.loc 2 36 10 is_stmt 0 view .LVU219
	movl	$4136992, 189(%rsp)
.LBE163:
.LBE164:
	.loc 1 375 6 view .LVU220
	testb	%dl, %dl
	je	.L50
.L85:
.LBB165:
	.loc 1 377 7 is_stmt 1 view .LVU221
	.loc 1 378 7 view .LVU222
.LVL75:
	.loc 1 379 7 view .LVU223
	.loc 1 382 7 view .LVU224
.LBB166:
.LBB167:
	.loc 4 743 15 is_stmt 0 view .LVU225
	leaq	256(%rsp), %rbp
.LVL76:
	.loc 4 743 15 view .LVU226
.LBE167:
.LBE166:
	.loc 1 382 33 view .LVU227
	leaq	76(%rbx), %rax
.LVL77:
.LBB169:
.LBI166:
	.loc 4 741 1 is_stmt 1 view .LVU228
.LBB168:
	.loc 4 743 3 view .LVU229
	.loc 4 743 15 is_stmt 0 view .LVU230
	leaq	332(%rbx), %rsi
.LVL78:
	.loc 4 744 3 is_stmt 1 view .LVU231
	.loc 4 744 9 view .LVU232
	.loc 4 743 15 is_stmt 0 view .LVU233
	movq	%rbp, %rcx
.LVL79:
	.p2align 4,,10
	.p2align 3
.L52:
	.loc 4 745 5 is_stmt 1 view .LVU234
	.loc 4 745 19 is_stmt 0 view .LVU235
	addq	$1, %rax
.LVL80:
	.loc 4 745 10 view .LVU236
	addq	$1, %rcx
.LVL81:
	.loc 4 745 13 view .LVU237
	movb	%dl, -1(%rcx)
	.loc 4 744 9 is_stmt 1 view .LVU238
	cmpq	%rax, %rsi
	jbe	.L51
	movzbl	(%rax), %edx
	.loc 4 744 24 is_stmt 0 view .LVU239
	testb	%dl, %dl
	jne	.L52
.L51:
	.loc 4 746 3 is_stmt 1 view .LVU240
	.loc 4 746 9 is_stmt 0 view .LVU241
	movb	$0, (%rcx)
	.loc 4 747 3 is_stmt 1 view .LVU242
.LVL82:
	.loc 4 747 3 is_stmt 0 view .LVU243
.LBE168:
.LBE169:
	.loc 1 385 7 is_stmt 1 view .LVU244
	.loc 1 385 17 is_stmt 0 view .LVU245
	movl	$58, %esi
	movq	%rbp, %rdi
	call	strchr@PLT
.LVL83:
	.loc 1 386 7 is_stmt 1 view .LVU246
	.loc 1 386 10 is_stmt 0 view .LVU247
	testq	%rax, %rax
	je	.L53
	.loc 1 387 9 is_stmt 1 view .LVU248
	.loc 1 387 20 is_stmt 0 view .LVU249
	movb	$0, (%rax)
	.loc 1 389 10 view .LVU250
	cmpb	$0, 256(%rsp)
	.loc 1 387 17 view .LVU251
	leaq	1(%rax), %r9
.LVL84:
	.loc 1 389 7 is_stmt 1 view .LVU252
	.loc 1 389 10 is_stmt 0 view .LVU253
	je	.L81
	.loc 1 389 20 view .LVU254
	cmpb	$0, do_lookup(%rip)
	je	.L81
	.loc 1 392 18 view .LVU255
	movq	%rbp, %rdi
	movq	%r9, 8(%rsp)
	.loc 1 392 11 is_stmt 1 view .LVU256
	.loc 1 392 18 is_stmt 0 view .LVU257
	call	canon_host@PLT
.LVL85:
	.loc 1 392 18 view .LVU258
	movq	8(%rsp), %r9
	movq	%rax, %r8
.LVL86:
	.loc 1 395 7 is_stmt 1 view .LVU259
	.loc 1 396 14 is_stmt 0 view .LVU260
	testq	%rax, %rax
	cmove	%rbp, %r8
	jmp	.L64
.LVL87:
	.p2align 4,,10
	.p2align 3
.L44:
	.loc 1 396 14 view .LVU261
.LBE165:
	.loc 1 370 5 is_stmt 1 view .LVU262
.LBB174:
.LBI174:
	.loc 1 188 1 view .LVU263
.LBB175:
	.loc 1 190 3 view .LVU264
	.loc 1 192 3 view .LVU265
	.loc 1 192 6 is_stmt 0 view .LVU266
	movabsq	$-9223372036854775808, %rax
	cmpq	%rax, now.7923(%rip)
	je	.L83
.L45:
	.loc 1 195 3 is_stmt 1 view .LVU267
	.loc 1 195 6 is_stmt 0 view .LVU268
	cmpq	%rbp, %r15
	jle	.L46
	.loc 1 195 45 view .LVU269
	movq	now.7923(%rip), %rax
	leaq	-86399(%rax), %rdx
	.loc 1 195 52 view .LVU270
	cmpq	%rdx, %r15
	jl	.L46
	cmpq	%rax, %r15
	jle	.L84
.L46:
	.loc 1 213 3 is_stmt 1 view .LVU271
	.loc 1 213 10 is_stmt 0 view .LVU272
	movl	$5, %edx
	leaq	.LC12(%rip), %rsi
	xorl	%edi, %edi
	call	dcgettext@PLT
.LVL88:
	movq	%rax, %r9
.L47:
.LVL89:
	.loc 1 213 10 view .LVU273
.LBE175:
.LBE174:
.LBB195:
.LBI195:
	.loc 2 34 1 is_stmt 1 view .LVU274
.LBB196:
	.loc 2 36 3 view .LVU275
	.loc 2 36 10 is_stmt 0 view .LVU276
	movl	$7, %edx
	movl	$1, %esi
	xorl	%eax, %eax
	movsbl	%r14b, %r14d
	.loc 2 36 10 view .LVU277
	leaq	189(%rsp), %r15
.LVL90:
	.loc 2 36 10 view .LVU278
	movl	$6, %r8d
	leaq	.LC13(%rip), %rcx
	movq	%r15, %rdi
	call	__sprintf_chk@PLT
.LVL91:
	.loc 2 36 10 view .LVU279
.LBE196:
.LBE195:
	.loc 1 375 3 is_stmt 1 view .LVU280
	.loc 1 375 24 is_stmt 0 view .LVU281
	movzbl	76(%rbx), %edx
	.loc 1 375 6 view .LVU282
	testb	%dl, %dl
	jne	.L85
.LVL92:
.L50:
	.loc 1 424 7 is_stmt 1 view .LVU283
	.loc 1 424 10 is_stmt 0 view .LVU284
	cmpq	$0, hostlen.7967(%rip)
	movq	hoststr.7966(%rip), %rbp
.LVL93:
	.loc 1 424 10 view .LVU285
	je	.L86
.L60:
	.loc 1 430 7 is_stmt 1 view .LVU286
	.loc 1 430 16 is_stmt 0 view .LVU287
	movb	$0, 0(%rbp)
	.loc 1 434 3 is_stmt 1 view .LVU288
	leaq	.LC0(%rip), %rdx
	jmp	.L59
.LVL94:
	.p2align 4,,10
	.p2align 3
.L81:
.LBB197:
	.loc 1 396 14 is_stmt 0 view .LVU289
	movq	%rbp, %r8
.LVL95:
.L64:
	.loc 1 400 25 view .LVU290
	movq	%r8, %rdi
	movq	%r8, 24(%rsp)
	movq	%r9, 8(%rsp)
.LVL96:
	.loc 1 400 11 is_stmt 1 view .LVU291
	.loc 1 400 25 is_stmt 0 view .LVU292
	call	strlen@PLT
.LVL97:
	.loc 1 400 41 view .LVU293
	movq	8(%rsp), %r9
	.loc 1 400 25 view .LVU294
	movq	%rax, 16(%rsp)
	.loc 1 400 41 view .LVU295
	movq	%r9, %rdi
	call	strlen@PLT
.LVL98:
	.loc 1 400 58 view .LVU296
	movq	16(%rsp), %rdx
	.loc 1 400 14 view .LVU297
	movq	8(%rsp), %r9
	movq	hoststr.7966(%rip), %rdi
	movq	24(%rsp), %r8
	.loc 1 400 58 view .LVU298
	leaq	4(%rdx,%rax), %r10
	.loc 1 400 14 view .LVU299
	cmpq	hostlen.7967(%rip), %r10
	ja	.L87
.L55:
	.loc 1 406 11 is_stmt 1 view .LVU300
.LVL99:
.LBB170:
.LBI170:
	.loc 2 34 1 view .LVU301
.LBB171:
	.loc 2 36 3 view .LVU302
	.loc 2 36 10 is_stmt 0 view .LVU303
	leaq	.LC14(%rip), %rcx
	movq	$-1, %rdx
	movl	$1, %esi
	xorl	%eax, %eax
	movq	%r8, 8(%rsp)
	call	__sprintf_chk@PLT
.LVL100:
	.loc 2 36 10 view .LVU304
	movq	8(%rsp), %r8
.LVL101:
.L56:
	.loc 2 36 10 view .LVU305
.LBE171:
.LBE170:
	.loc 1 419 7 is_stmt 1 view .LVU306
	.loc 1 419 10 is_stmt 0 view .LVU307
	cmpq	%rbp, %r8
	je	.L58
	.loc 1 420 9 is_stmt 1 view .LVU308
	movq	%r8, %rdi
	call	free@PLT
.LVL102:
.L58:
.LBE197:
	.loc 1 434 3 view .LVU309
	.loc 1 437 23 is_stmt 0 view .LVU310
	movq	hoststr.7966(%rip), %rbp
	leaq	.LC0(%rip), %rdx
	.loc 1 434 3 view .LVU311
	testq	%rbp, %rbp
	jne	.L59
	movq	%rdx, %rbp
.L59:
	.loc 1 434 3 discriminator 4 view .LVU312
	movl	340(%rbx), %edi
	movq	%rdx, 8(%rsp)
	call	time_string.isra.0
.LVL103:
	movq	8(%rsp), %rdx
	.loc 1 434 42 discriminator 4 view .LVU313
	leaq	44(%rbx), %rsi
	.loc 1 434 3 discriminator 4 view .LVU314
	movq	%r12, %r8
	movq	%rax, %r9
	movl	$32, %ecx
	movl	$32, %edi
	pushq	%rdx
	.cfi_def_cfa_offset 600
	movl	%r14d, %edx
	pushq	%rbp
	.cfi_def_cfa_offset 608
	pushq	%r13
	.cfi_def_cfa_offset 616
	pushq	%r15
	.cfi_def_cfa_offset 624
	call	print_line
.LVL104:
	.loc 1 438 1 discriminator 4 view .LVU315
	addq	$32, %rsp
	.cfi_def_cfa_offset 592
	movq	520(%rsp), %rax
	xorq	%fs:40, %rax
	jne	.L88
	.loc 1 438 1 view .LVU316
	addq	$536, %rsp
	.cfi_remember_state
	.cfi_def_cfa_offset 56
	popq	%rbx
	.cfi_def_cfa_offset 48
.LVL105:
	.loc 1 438 1 view .LVU317
	popq	%rbp
	.cfi_def_cfa_offset 40
	popq	%r12
	.cfi_def_cfa_offset 32
.LVL106:
	.loc 1 438 1 view .LVU318
	popq	%r13
	.cfi_def_cfa_offset 24
	popq	%r14
	.cfi_def_cfa_offset 16
	popq	%r15
	.cfi_def_cfa_offset 8
	ret
.LVL107:
	.p2align 4,,10
	.p2align 3
.L82:
	.cfi_restore_state
	.loc 1 355 5 is_stmt 1 view .LVU319
.LBB198:
.LBI198:
	.loc 3 95 1 view .LVU320
.LBB199:
	.loc 3 97 3 view .LVU321
	movl	$47, %eax
.LBE199:
.LBE198:
	.loc 1 355 9 is_stmt 0 view .LVU322
	leaq	213(%rsp), %rcx
	movl	$1986356271, 208(%rsp)
	leaq	208(%rsp), %r8
.LVL108:
	.loc 1 355 9 view .LVU323
	movw	%ax, 212(%rsp)
.LVL109:
	.loc 1 355 9 view .LVU324
	jmp	.L38
.LVL110:
	.p2align 4,,10
	.p2align 3
.L67:
	.loc 1 355 9 view .LVU325
	movl	$63, %r14d
	jmp	.L42
.LVL111:
	.p2align 4,,10
	.p2align 3
.L86:
	.loc 1 426 11 is_stmt 1 view .LVU326
	.loc 1 426 19 is_stmt 0 view .LVU327
	movq	$1, hostlen.7967(%rip)
	.loc 1 427 11 is_stmt 1 view .LVU328
	movq	%rbp, %rdi
	call	free@PLT
.LVL112:
	.loc 1 428 11 view .LVU329
	.loc 1 428 21 is_stmt 0 view .LVU330
	movl	$1, %edi
	call	xmalloc@PLT
.LVL113:
	.loc 1 428 19 view .LVU331
	movq	%rax, hoststr.7966(%rip)
	.loc 1 428 21 view .LVU332
	movq	%rax, %rbp
	jmp	.L60
.LVL114:
	.p2align 4,,10
	.p2align 3
.L53:
.LBB200:
	.loc 1 389 7 is_stmt 1 view .LVU333
	.loc 1 389 10 is_stmt 0 view .LVU334
	cmpb	$0, 256(%rsp)
	.loc 1 396 14 view .LVU335
	movq	%rbp, %r8
	.loc 1 389 10 view .LVU336
	je	.L61
	.loc 1 389 20 view .LVU337
	cmpb	$0, do_lookup(%rip)
	jne	.L62
.LVL115:
.L61:
	.loc 1 410 11 is_stmt 1 view .LVU338
	.loc 1 410 25 is_stmt 0 view .LVU339
	movq	%r8, %rdi
	movq	%r8, 8(%rsp)
	call	strlen@PLT
.LVL116:
	.loc 1 410 25 view .LVU340
	movq	hoststr.7966(%rip), %rdi
	.loc 1 410 14 view .LVU341
	movq	8(%rsp), %r8
	.loc 1 410 39 view .LVU342
	leaq	3(%rax), %r9
	.loc 1 410 14 view .LVU343
	cmpq	hostlen.7967(%rip), %r9
	ja	.L89
.LVL117:
.L57:
	.loc 1 416 11 is_stmt 1 view .LVU344
.LBB172:
.LBI172:
	.loc 2 34 1 view .LVU345
.LBB173:
	.loc 2 36 3 view .LVU346
	.loc 2 36 10 is_stmt 0 view .LVU347
	leaq	.LC15(%rip), %rcx
	movq	$-1, %rdx
	movl	$1, %esi
	xorl	%eax, %eax
	movq	%r8, 8(%rsp)
	call	__sprintf_chk@PLT
.LVL118:
	.loc 2 36 10 view .LVU348
	movq	8(%rsp), %r8
	jmp	.L56
.LVL119:
	.p2align 4,,10
	.p2align 3
.L87:
	.loc 2 36 10 view .LVU349
	movq	%r9, 16(%rsp)
.LBE173:
.LBE172:
	.loc 1 402 15 is_stmt 1 view .LVU350
	.loc 1 402 23 is_stmt 0 view .LVU351
	movq	%r10, hostlen.7967(%rip)
	movq	%r10, 8(%rsp)
	.loc 1 403 15 is_stmt 1 view .LVU352
	call	free@PLT
.LVL120:
	.loc 1 404 15 view .LVU353
	.loc 1 404 25 is_stmt 0 view .LVU354
	movq	8(%rsp), %r10
	movq	%r10, %rdi
	call	xmalloc@PLT
.LVL121:
	.loc 1 404 23 view .LVU355
	movq	24(%rsp), %r8
	movq	16(%rsp), %r9
	movq	%rax, hoststr.7966(%rip)
	.loc 1 404 25 view .LVU356
	movq	%rax, %rdi
	jmp	.L55
.LVL122:
.L83:
	.loc 1 404 25 view .LVU357
.LBE200:
.LBB201:
.LBB191:
	.loc 1 193 5 is_stmt 1 view .LVU358
	leaq	now.7923(%rip), %rdi
	call	time@PLT
.LVL123:
	jmp	.L45
.LVL124:
.L89:
	.loc 1 193 5 is_stmt 0 view .LVU359
	movq	%r8, 16(%rsp)
.LBE191:
.LBE201:
.LBB202:
	.loc 1 412 15 is_stmt 1 view .LVU360
	.loc 1 412 23 is_stmt 0 view .LVU361
	movq	%r9, hostlen.7967(%rip)
	movq	%r9, 8(%rsp)
	.loc 1 413 15 is_stmt 1 view .LVU362
	call	free@PLT
.LVL125:
	.loc 1 414 15 view .LVU363
	.loc 1 414 25 is_stmt 0 view .LVU364
	movq	8(%rsp), %r9
	movq	%r9, %rdi
	call	xmalloc@PLT
.LVL126:
	.loc 1 414 23 view .LVU365
	movq	16(%rsp), %r8
	movq	%rax, hoststr.7966(%rip)
	.loc 1 414 25 view .LVU366
	movq	%rax, %rdi
	jmp	.L57
.LVL127:
.L84:
	.loc 1 414 25 view .LVU367
.LBE202:
.LBB203:
.LBB192:
.LBB176:
	.loc 1 197 7 is_stmt 1 view .LVU368
	.loc 1 197 30 is_stmt 0 view .LVU369
	subl	%r15d, %eax
.LVL128:
	.loc 1 198 7 is_stmt 1 view .LVU370
	.loc 1 198 10 is_stmt 0 view .LVU371
	cmpl	$59, %eax
	jle	.L69
.LBB177:
	.loc 1 202 11 is_stmt 1 view .LVU372
	.loc 1 205 11 view .LVU373
	cmpl	$86399, %eax
	jg	.L90
	.loc 1 206 11 view .LVU374
.LVL129:
.LBB178:
.LBI178:
	.loc 2 34 1 view .LVU375
.LBB179:
	.loc 2 36 3 view .LVU376
.LBE179:
.LBE178:
	.loc 1 208 34 is_stmt 0 view .LVU377
	movslq	%eax, %r8
	cltd
	.loc 1 206 11 view .LVU378
	movl	$2290649225, %r9d
.LBB184:
.LBB180:
	.loc 2 36 10 view .LVU379
	movl	$1, %esi
.LBE180:
.LBE184:
	.loc 1 208 34 view .LVU380
	imulq	$-1851608123, %r8, %r8
.LBB185:
.LBB181:
	.loc 2 36 10 view .LVU381
	leaq	.LC11(%rip), %rcx
	leaq	idle_hhmm.7925(%rip), %rdi
.LBE181:
.LBE185:
	.loc 1 208 34 view .LVU382
	shrq	$32, %r8
	addl	%eax, %r8d
	sarl	$11, %r8d
	subl	%edx, %r8d
	imull	$3600, %r8d, %edx
	.loc 1 206 11 view .LVU383
	subl	%edx, %eax
.LVL130:
.LBB186:
.LBB182:
	.loc 2 36 10 view .LVU384
	movl	$6, %edx
.LBE182:
.LBE186:
	.loc 1 206 11 view .LVU385
	imulq	%rax, %r9
.LBB187:
.LBB183:
	.loc 2 36 10 view .LVU386
	xorl	%eax, %eax
	shrq	$37, %r9
	call	__sprintf_chk@PLT
.LVL131:
	.loc 2 36 10 view .LVU387
.LBE183:
.LBE187:
	.loc 1 209 11 is_stmt 1 view .LVU388
	.loc 1 209 18 is_stmt 0 view .LVU389
	leaq	idle_hhmm.7925(%rip), %r9
	jmp	.L47
.LVL132:
.L62:
	.loc 1 209 18 view .LVU390
.LBE177:
.LBE176:
.LBE192:
.LBE203:
.LBB204:
	.loc 1 392 11 is_stmt 1 view .LVU391
	.loc 1 392 18 is_stmt 0 view .LVU392
	movq	%rbp, %rdi
	call	canon_host@PLT
.LVL133:
	movq	%rax, %r8
.LVL134:
	.loc 1 395 7 is_stmt 1 view .LVU393
	.loc 1 396 14 is_stmt 0 view .LVU394
	testq	%rax, %rax
	cmove	%rbp, %r8
	jmp	.L61
.LVL135:
.L69:
	.loc 1 396 14 view .LVU395
.LBE204:
.LBB205:
.LBB193:
.LBB189:
	.loc 1 199 16 view .LVU396
	leaq	.LC7(%rip), %r9
	jmp	.L47
.LVL136:
.L88:
	.loc 1 199 16 view .LVU397
.LBE189:
.LBE193:
.LBE205:
	.loc 1 438 1 view .LVU398
	call	__stack_chk_fail@PLT
.LVL137:
.L90:
.LBB206:
.LBB194:
.LBB190:
.LBB188:
	.loc 1 205 11 is_stmt 1 view .LVU399
	leaq	__PRETTY_FUNCTION__.7926(%rip), %rcx
	movl	$205, %edx
	leaq	.LC9(%rip), %rsi
	leaq	.LC10(%rip), %rdi
	call	__assert_fail@PLT
.LVL138:
	.loc 1 205 11 is_stmt 0 view .LVU400
.LBE188:
.LBE190:
.LBE194:
.LBE206:
	.cfi_endproc
.LFE154:
	.size	print_user, .-print_user
	.section	.rodata.str1.1
.LC16:
	.string	" "
.LC17:
	.string	"%s"
.LC18:
	.string	"%s%s"
.LC19:
	.string	"\n# users=%lu\n"
.LC20:
	.string	"EXIT"
.LC21:
	.string	"COMMENT"
.LC22:
	.string	"PID"
.LC23:
	.string	"IDLE"
.LC24:
	.string	"TIME"
.LC25:
	.string	"LINE"
.LC26:
	.string	"NAME"
.LC27:
	.string	"/dev/"
.LC28:
	.string	"run-level"
.LC29:
	.string	"%s %c"
.LC30:
	.string	"last="
.LC31:
	.string	"%s%c"
.LC32:
	.string	"system boot"
.LC33:
	.string	"clock change"
.LC34:
	.string	"LOGIN"
.LC35:
	.string	"term="
.LC36:
	.string	"exit="
.LC37:
	.string	"%s%d %s%d"
	.text
	.p2align 4
	.type	who, @function
who:
.LVL139:
.LFB165:
	.loc 1 622 1 is_stmt 1 view -0
	.cfi_startproc
	.loc 1 622 1 is_stmt 0 view .LVU402
	pushq	%r15
	.cfi_def_cfa_offset 16
	.cfi_offset 15, -16
	movl	%esi, %ecx
	pushq	%r14
	.cfi_def_cfa_offset 24
	.cfi_offset 14, -24
	pushq	%r13
	.cfi_def_cfa_offset 32
	.cfi_offset 13, -32
	pushq	%r12
	.cfi_def_cfa_offset 40
	.cfi_offset 12, -40
	movq	%rdi, %r12
	pushq	%rbp
	.cfi_def_cfa_offset 48
	.cfi_offset 6, -48
	pushq	%rbx
	.cfi_def_cfa_offset 56
	.cfi_offset 3, -56
	subq	$88, %rsp
	.cfi_def_cfa_offset 144
	.loc 1 622 1 view .LVU403
	movq	%fs:40, %rax
	movq	%rax, 72(%rsp)
	xorl	%eax, %eax
	.loc 1 623 3 is_stmt 1 view .LVU404
	.loc 1 624 3 view .LVU405
	.loc 1 626 3 view .LVU406
	.loc 1 626 7 is_stmt 0 view .LVU407
	leaq	48(%rsp), %rdx
	leaq	40(%rsp), %rsi
.LVL140:
	.loc 1 626 7 view .LVU408
	call	read_utmp@PLT
.LVL141:
	.loc 1 626 6 view .LVU409
	testl	%eax, %eax
	jne	.L131
	.loc 1 629 3 is_stmt 1 view .LVU410
	.loc 1 629 6 is_stmt 0 view .LVU411
	cmpb	$0, short_list(%rip)
	movq	48(%rsp), %r13
	movq	40(%rsp), %r14
	jne	.L132
	.loc 1 632 5 is_stmt 1 view .LVU412
.LVL142:
.LBB248:
.LBI248:
	.loc 1 569 1 view .LVU413
.LBB249:
	.loc 1 571 3 view .LVU414
	.loc 1 572 3 view .LVU415
	.loc 1 574 3 view .LVU416
	.loc 1 574 6 is_stmt 0 view .LVU417
	cmpb	$0, include_heading(%rip)
	jne	.L133
.LVL143:
.L98:
	.loc 1 577 3 is_stmt 1 view .LVU418
	.loc 1 571 9 is_stmt 0 view .LVU419
	xorl	%r12d, %r12d
	.loc 1 577 6 view .LVU420
	cmpb	$0, my_line_only(%rip)
	jne	.L134
.LVL144:
.L99:
	.loc 1 586 9 is_stmt 1 view .LVU421
	movl	$1, %eax
	.loc 1 586 11 is_stmt 0 view .LVU422
	leaq	-1(%r14), %rbp
.LVL145:
.LBB250:
.LBB251:
	.loc 1 476 3 view .LVU423
	leaq	.LC0(%rip), %rbx
.LBE251:
.LBE250:
	.loc 1 586 9 view .LVU424
	salq	$63, %rax
	movq	%rax, (%rsp)
	testq	%r14, %r14
	je	.L97
.LVL146:
	.p2align 4,,10
	.p2align 3
.L115:
	.loc 1 588 7 is_stmt 1 view .LVU425
	.loc 1 588 10 is_stmt 0 view .LVU426
	cmpb	$0, my_line_only(%rip)
	movzwl	0(%r13), %r14d
	je	.L101
	.loc 1 589 14 view .LVU427
	leaq	8(%r13), %rsi
	movl	$32, %edx
	movq	%r12, %rdi
	call	strncmp@PLT
.LVL147:
	.loc 1 589 11 view .LVU428
	testl	%eax, %eax
	jne	.L102
.L101:
	.loc 1 592 11 is_stmt 1 view .LVU429
	.loc 1 592 14 is_stmt 0 view .LVU430
	cmpb	$0, need_users(%rip)
	je	.L103
	.loc 1 592 26 view .LVU431
	cmpb	$0, 44(%r13)
	je	.L103
	.loc 1 592 29 view .LVU432
	cmpw	$7, %r14w
	je	.L135
.L103:
	.loc 1 594 16 is_stmt 1 view .LVU433
	.loc 1 594 19 is_stmt 0 view .LVU434
	cmpb	$0, need_runlevel(%rip)
	je	.L104
	.loc 1 594 34 view .LVU435
	cmpw	$1, %r14w
	je	.L136
.L104:
	.loc 1 596 16 is_stmt 1 view .LVU436
	.loc 1 596 19 is_stmt 0 view .LVU437
	cmpb	$0, need_boottime(%rip)
	je	.L109
	.loc 1 596 34 view .LVU438
	cmpw	$2, %r14w
	je	.L137
.L109:
	.loc 1 601 16 is_stmt 1 view .LVU439
	.loc 1 601 19 is_stmt 0 view .LVU440
	cmpb	$0, need_clockchange(%rip)
	je	.L110
	.loc 1 601 37 view .LVU441
	cmpw	$3, %r14w
	je	.L138
.L110:
	.loc 1 603 16 is_stmt 1 view .LVU442
	.loc 1 603 19 is_stmt 0 view .LVU443
	cmpb	$0, need_initspawn(%rip)
	je	.L111
	.loc 1 603 35 view .LVU444
	cmpw	$5, %r14w
	je	.L139
.L111:
	.loc 1 605 16 is_stmt 1 view .LVU445
	.loc 1 605 19 is_stmt 0 view .LVU446
	cmpb	$0, need_login(%rip)
	je	.L112
	.loc 1 605 31 view .LVU447
	cmpw	$6, %r14w
	je	.L140
.L112:
	.loc 1 607 16 is_stmt 1 view .LVU448
	.loc 1 607 19 is_stmt 0 view .LVU449
	cmpb	$0, need_deadprocs(%rip)
	je	.L102
	.loc 1 607 35 view .LVU450
	cmpw	$8, %r14w
	je	.L141
	.p2align 4,,10
	.p2align 3
.L102:
	.loc 1 611 7 is_stmt 1 view .LVU451
	.loc 1 611 10 is_stmt 0 view .LVU452
	cmpw	$2, %r14w
	jne	.L114
	.loc 1 612 9 is_stmt 1 view .LVU453
	.loc 1 612 18 is_stmt 0 view .LVU454
	movslq	340(%r13), %rax
	movq	%rax, (%rsp)
.LVL148:
.L114:
	.loc 1 614 7 is_stmt 1 view .LVU455
	.loc 1 586 11 is_stmt 0 view .LVU456
	subq	$1, %rbp
.LVL149:
	.loc 1 614 15 view .LVU457
	addq	$384, %r13
.LVL150:
	.loc 1 586 9 is_stmt 1 view .LVU458
	.loc 1 586 9 is_stmt 0 view .LVU459
	cmpq	$-1, %rbp
	jne	.L115
	jmp	.L97
.LVL151:
.L132:
	.loc 1 586 9 view .LVU460
.LBE249:
.LBE248:
	.loc 1 630 5 is_stmt 1 view .LVU461
.LBB313:
.LBI313:
	.loc 1 537 1 view .LVU462
.LBB314:
	.loc 1 539 3 view .LVU463
	.loc 1 540 3 view .LVU464
	.loc 1 542 3 view .LVU465
	.loc 1 542 9 view .LVU466
	.loc 1 542 11 is_stmt 0 view .LVU467
	leaq	-1(%r14), %rbx
.LVL152:
	.loc 1 542 9 view .LVU468
	testq	%r14, %r14
	je	.L94
	.loc 1 539 21 view .LVU469
	xorl	%r14d, %r14d
	.loc 1 540 15 view .LVU470
	leaq	.LC0(%rip), %r15
.LBB315:
	.loc 1 552 21 view .LVU471
	leaq	.LC16(%rip), %r12
.LVL153:
	.p2align 4,,10
	.p2align 3
.L96:
	.loc 1 552 21 view .LVU472
.LBE315:
	.loc 1 544 7 is_stmt 1 view .LVU473
	.loc 1 544 10 is_stmt 0 view .LVU474
	cmpb	$0, 44(%r13)
	je	.L95
	.loc 1 544 11 view .LVU475
	cmpw	$7, 0(%r13)
	je	.L142
.LVL154:
.L95:
	.loc 1 555 7 is_stmt 1 view .LVU476
	.loc 1 542 11 is_stmt 0 view .LVU477
	subq	$1, %rbx
.LVL155:
	.loc 1 555 15 view .LVU478
	addq	$384, %r13
.LVL156:
	.loc 1 542 9 is_stmt 1 view .LVU479
	.loc 1 542 9 is_stmt 0 view .LVU480
	cmpq	$-1, %rbx
	jne	.L96
.LVL157:
.L94:
	.loc 1 557 3 is_stmt 1 view .LVU481
	.loc 1 557 11 is_stmt 0 view .LVU482
	movl	$5, %edx
	leaq	.LC19(%rip), %rsi
	xorl	%edi, %edi
	call	dcgettext@PLT
.LVL158:
.LBB322:
.LBB323:
	.loc 2 107 10 view .LVU483
	movq	%r14, %rdx
	movl	$1, %edi
.LBE323:
.LBE322:
	.loc 1 557 11 view .LVU484
	movq	%rax, %rsi
.LVL159:
.LBB325:
.LBI322:
	.loc 2 105 1 is_stmt 1 view .LVU485
.LBB324:
	.loc 2 107 3 view .LVU486
	.loc 2 107 10 is_stmt 0 view .LVU487
	xorl	%eax, %eax
.LVL160:
	.loc 2 107 10 view .LVU488
	call	__printf_chk@PLT
.LVL161:
.L97:
	.loc 2 107 10 view .LVU489
.LBE324:
.LBE325:
.LBE314:
.LBE313:
	.loc 1 634 3 is_stmt 1 view .LVU490
	movq	48(%rsp), %rdi
	call	free@PLT
.LVL162:
	.loc 1 635 1 is_stmt 0 view .LVU491
	movq	72(%rsp), %rax
	xorq	%fs:40, %rax
	jne	.L143
	addq	$88, %rsp
	.cfi_remember_state
	.cfi_def_cfa_offset 56
	popq	%rbx
	.cfi_def_cfa_offset 48
	popq	%rbp
	.cfi_def_cfa_offset 40
	popq	%r12
	.cfi_def_cfa_offset 32
	popq	%r13
	.cfi_def_cfa_offset 24
	popq	%r14
	.cfi_def_cfa_offset 16
	popq	%r15
	.cfi_def_cfa_offset 8
	ret
.LVL163:
.L142:
	.cfi_restore_state
.LBB328:
.LBB327:
.LBB326:
	.loc 1 546 11 is_stmt 1 view .LVU492
	.loc 1 548 11 view .LVU493
	.loc 1 548 26 is_stmt 0 view .LVU494
	movq	%r13, %rdi
	.loc 1 553 18 view .LVU495
	addq	$1, %r14
.LVL164:
	.loc 1 548 26 view .LVU496
	call	extract_trimmed_name@PLT
.LVL165:
.LBB316:
.LBB317:
	.loc 2 107 10 view .LVU497
	movq	%r15, %rdx
	movl	$1, %edi
.LBE317:
.LBE316:
	.loc 1 552 21 view .LVU498
	movq	%r12, %r15
.LVL166:
.LBB320:
.LBB318:
	.loc 2 107 10 view .LVU499
	movq	%rax, %rcx
.LBE318:
.LBE320:
	.loc 1 548 26 view .LVU500
	movq	%rax, %rbp
.LVL167:
	.loc 1 550 11 is_stmt 1 view .LVU501
.LBB321:
.LBI316:
	.loc 2 105 1 view .LVU502
.LBB319:
	.loc 2 107 3 view .LVU503
	.loc 2 107 10 is_stmt 0 view .LVU504
	leaq	.LC18(%rip), %rsi
	xorl	%eax, %eax
.LVL168:
	.loc 2 107 10 view .LVU505
	call	__printf_chk@PLT
.LVL169:
	.loc 2 107 10 view .LVU506
.LBE319:
.LBE321:
	.loc 1 551 11 is_stmt 1 view .LVU507
	movq	%rbp, %rdi
	call	free@PLT
.LVL170:
	.loc 1 552 11 view .LVU508
	.loc 1 553 11 view .LVU509
	.loc 1 553 11 is_stmt 0 view .LVU510
	jmp	.L95
.LVL171:
.L136:
	.loc 1 553 11 view .LVU511
.LBE326:
.LBE327:
.LBE328:
.LBB329:
.LBB312:
	.loc 1 595 13 is_stmt 1 view .LVU512
.LBB264:
.LBI264:
	.loc 1 514 1 view .LVU513
.LBB265:
	.loc 1 516 3 view .LVU514
	.loc 1 517 3 view .LVU515
	.loc 1 517 24 is_stmt 0 view .LVU516
	movl	4(%r13), %eax
	.loc 1 517 42 view .LVU517
	movl	$256, %ecx
	cltd
	idivl	%ecx
	.loc 1 520 6 view .LVU518
	cmpq	$0, runlevline.8005(%rip)
	.loc 1 517 42 view .LVU519
	movl	%edx, %r15d
	movl	%eax, %r14d
.LVL172:
	.loc 1 518 3 is_stmt 1 view .LVU520
	.loc 1 520 3 view .LVU521
	.loc 1 520 6 is_stmt 0 view .LVU522
	je	.L144
.L105:
	.loc 1 522 3 is_stmt 1 view .LVU523
	xorl	%edi, %edi
	movl	$5, %edx
	leaq	.LC28(%rip), %rsi
	call	dcgettext@PLT
.LVL173:
.LBB266:
.LBI266:
	.loc 2 34 1 view .LVU524
.LBB267:
	.loc 2 36 3 view .LVU525
	.loc 2 36 10 is_stmt 0 view .LVU526
	movq	runlevline.8005(%rip), %rdi
	orq	$-1, %rdx
	movzbl	%r15b, %r9d
.LBE267:
.LBE266:
	.loc 1 522 3 view .LVU527
	movq	%rax, %r8
.LBB269:
.LBB268:
	.loc 2 36 10 view .LVU528
	leaq	.LC29(%rip), %rcx
	xorl	%eax, %eax
	movl	$1, %esi
	call	__sprintf_chk@PLT
.LVL174:
	.loc 2 36 10 view .LVU529
.LBE268:
.LBE269:
	.loc 1 524 3 is_stmt 1 view .LVU530
	.loc 1 524 6 is_stmt 0 view .LVU531
	cmpq	$0, comment.8006(%rip)
	je	.L145
.L106:
	.loc 1 526 3 is_stmt 1 view .LVU532
	cmpb	$78, %r14b
	movzbl	%r14b, %r15d
.LVL175:
	.loc 1 526 3 is_stmt 0 view .LVU533
	movl	$83, %r14d
.LVL176:
	.loc 1 526 3 view .LVU534
	movl	$5, %edx
	cmovne	%r15d, %r14d
	leaq	.LC30(%rip), %rsi
	xorl	%edi, %edi
.LBB270:
.LBB271:
	.file 6 "./lib/c-ctype.h"
	.loc 6 274 3 view .LVU535
	subl	$32, %r15d
.LVL177:
	.loc 6 274 3 view .LVU536
.LBE271:
.LBE270:
	.loc 1 526 3 view .LVU537
	call	dcgettext@PLT
.LVL178:
.LBB274:
.LBI274:
	.loc 2 34 1 is_stmt 1 view .LVU538
.LBB275:
	.loc 2 36 3 view .LVU539
	.loc 2 36 10 is_stmt 0 view .LVU540
	movq	comment.8006(%rip), %rdi
	orq	$-1, %rdx
	leaq	.LC31(%rip), %rcx
.LBE275:
.LBE274:
	.loc 1 526 3 view .LVU541
	movq	%rax, %r8
.LBB277:
.LBB276:
	.loc 2 36 10 view .LVU542
	movl	%r14d, %r9d
	movl	$1, %esi
	xorl	%eax, %eax
	call	__sprintf_chk@PLT
.LVL179:
	.loc 2 36 10 view .LVU543
.LBE276:
.LBE277:
	.loc 1 528 3 is_stmt 1 view .LVU544
.LBB278:
.LBI270:
	.loc 6 272 1 view .LVU545
.LBB272:
	.loc 6 274 3 view .LVU546
.LBE272:
.LBE278:
	.loc 1 528 3 is_stmt 0 view .LVU547
	leaq	.LC0(%rip), %r14
.LBB279:
.LBB273:
	.loc 6 274 3 view .LVU548
	cmpl	$94, %r15d
	jbe	.L146
.L108:
	.loc 6 274 3 view .LVU549
.LBE273:
.LBE279:
	.loc 1 528 3 view .LVU550
	movl	340(%r13), %edi
	call	time_string.isra.0
.LVL180:
	pushq	%rbx
	.cfi_def_cfa_offset 152
.LVL181:
	.loc 1 528 3 view .LVU551
	movq	runlevline.8005(%rip), %r8
	orl	$-1, %ecx
	pushq	%r14
	.cfi_def_cfa_offset 160
	movq	%rax, %r9
	movl	$32, %edx
	movq	%rbx, %rsi
	pushq	%rbx
	.cfi_def_cfa_offset 168
	orl	$-1, %edi
	pushq	%rbx
	.cfi_def_cfa_offset 176
	call	print_line
.LVL182:
	.loc 1 531 3 is_stmt 1 view .LVU552
	movzwl	0(%r13), %r14d
	addq	$32, %rsp
	.cfi_def_cfa_offset 144
.LVL183:
	.loc 1 531 3 is_stmt 0 view .LVU553
	jmp	.L102
.LVL184:
.L137:
	.loc 1 531 3 view .LVU554
.LBE265:
.LBE264:
	.loc 1 597 13 is_stmt 1 view .LVU555
.LBB282:
.LBI282:
	.loc 1 441 1 view .LVU556
.LBB283:
	.loc 1 443 3 view .LVU557
	movl	340(%r13), %edi
	call	time_string.isra.0
.LVL185:
	.loc 1 443 32 is_stmt 0 view .LVU558
	movl	$5, %edx
	leaq	.LC32(%rip), %rsi
	.loc 1 443 3 view .LVU559
	movq	%rax, %r14
.LVL186:
.L129:
	.loc 1 443 3 view .LVU560
.LBE283:
.LBE282:
.LBB284:
.LBB285:
	.loc 1 509 32 view .LVU561
	xorl	%edi, %edi
	call	dcgettext@PLT
.LVL187:
	.loc 1 509 3 view .LVU562
	pushq	%rbx
	.cfi_def_cfa_offset 152
.LVL188:
	.loc 1 509 3 view .LVU563
	movq	%r14, %r9
	orl	$-1, %ecx
	pushq	%rbx
	.cfi_def_cfa_offset 160
	.loc 1 509 32 view .LVU564
	movq	%rax, %r8
	.loc 1 509 3 view .LVU565
	movl	$32, %edx
	leaq	.LC0(%rip), %rsi
	pushq	%rbx
	.cfi_def_cfa_offset 168
	orl	$-1, %edi
	pushq	%rbx
	.cfi_def_cfa_offset 176
	call	print_line
.LVL189:
	movzwl	0(%r13), %r14d
	.loc 1 511 1 view .LVU566
	addq	$32, %rsp
	.cfi_def_cfa_offset 144
.LVL190:
	.loc 1 511 1 view .LVU567
	jmp	.L102
.L138:
	.loc 1 511 1 view .LVU568
.LBE285:
.LBE284:
	.loc 1 602 13 is_stmt 1 view .LVU569
.LVL191:
.LBB287:
.LBI284:
	.loc 1 506 1 view .LVU570
.LBB286:
	.loc 1 509 3 view .LVU571
	movl	340(%r13), %edi
	call	time_string.isra.0
.LVL192:
	.loc 1 509 32 is_stmt 0 view .LVU572
	movl	$5, %edx
	leaq	.LC33(%rip), %rsi
	.loc 1 509 3 view .LVU573
	movq	%rax, %r14
	jmp	.L129
.LVL193:
.L146:
	.loc 1 509 3 view .LVU574
.LBE286:
.LBE287:
.LBB288:
.LBB280:
	.loc 1 528 3 view .LVU575
	movq	comment.8006(%rip), %r14
	jmp	.L108
.LVL194:
.L139:
	.loc 1 528 3 view .LVU576
.LBE280:
.LBE288:
	.loc 1 604 13 is_stmt 1 view .LVU577
.LBB289:
.LBI289:
	.loc 1 495 1 view .LVU578
.LBB290:
	.loc 1 497 3 view .LVU579
	.loc 1 497 19 is_stmt 0 view .LVU580
	movq	%r13, %rdi
.LBB291:
.LBB292:
	.loc 2 36 10 view .LVU581
	leaq	60(%rsp), %r15
.LBE292:
.LBE291:
	.loc 1 497 19 view .LVU582
	call	make_id_equals_comment
.LVL195:
.LBB295:
.LBB293:
	.loc 2 36 10 view .LVU583
	movslq	4(%r13), %r8
	movl	$12, %edx
	movq	%r15, %rdi
	leaq	.LC8(%rip), %rcx
	movl	$1, %esi
.LBE293:
.LBE295:
	.loc 1 497 19 view .LVU584
	movq	%rax, %r14
.LVL196:
	.loc 1 498 3 is_stmt 1 view .LVU585
	.loc 1 498 3 view .LVU586
.LBB296:
.LBI291:
	.loc 2 34 1 view .LVU587
.LBB294:
	.loc 2 36 3 view .LVU588
	.loc 2 36 10 is_stmt 0 view .LVU589
	xorl	%eax, %eax
.LVL197:
	.loc 2 36 10 view .LVU590
	call	__sprintf_chk@PLT
.LVL198:
	.loc 2 36 10 view .LVU591
.LBE294:
.LBE296:
	.loc 1 500 3 is_stmt 1 view .LVU592
	movl	340(%r13), %edi
	call	time_string.isra.0
.LVL199:
	pushq	%rbx
	.cfi_def_cfa_offset 152
.LVL200:
	.loc 1 500 3 is_stmt 0 view .LVU593
	leaq	8(%r13), %r8
	movl	$32, %ecx
	pushq	%r14
	.cfi_def_cfa_offset 160
	movq	%rax, %r9
	movl	$32, %edx
	leaq	.LC0(%rip), %rsi
	pushq	%r15
	.cfi_def_cfa_offset 168
	pushq	%rbx
	.cfi_def_cfa_offset 176
.LVL201:
.L130:
	.loc 1 500 3 view .LVU594
.LBE290:
.LBE289:
.LBB297:
.LBB298:
	.loc 1 489 3 view .LVU595
	orl	$-1, %edi
	call	print_line
.LVL202:
	.loc 1 491 3 is_stmt 1 view .LVU596
	movq	%r14, %rdi
	addq	$32, %rsp
	.cfi_def_cfa_offset 144
.LVL203:
	.loc 1 491 3 is_stmt 0 view .LVU597
	call	free@PLT
.LVL204:
	movzwl	0(%r13), %r14d
	.loc 1 492 1 view .LVU598
	jmp	.L102
.L140:
	.loc 1 492 1 view .LVU599
.LBE298:
.LBE297:
	.loc 1 606 13 is_stmt 1 view .LVU600
.LVL205:
.LBB306:
.LBI297:
	.loc 1 482 1 view .LVU601
.LBB305:
	.loc 1 484 3 view .LVU602
	.loc 1 484 19 is_stmt 0 view .LVU603
	movq	%r13, %rdi
.LBB299:
.LBB300:
	.loc 2 36 10 view .LVU604
	leaq	60(%rsp), %r15
.LBE300:
.LBE299:
	.loc 1 484 19 view .LVU605
	call	make_id_equals_comment
.LVL206:
.LBB303:
.LBB301:
	.loc 2 36 10 view .LVU606
	movslq	4(%r13), %r8
	movl	$12, %edx
	movq	%r15, %rdi
	leaq	.LC8(%rip), %rcx
	movl	$1, %esi
.LBE301:
.LBE303:
	.loc 1 484 19 view .LVU607
	movq	%rax, %r14
.LVL207:
	.loc 1 485 3 is_stmt 1 view .LVU608
	.loc 1 485 3 view .LVU609
.LBB304:
.LBI299:
	.loc 2 34 1 view .LVU610
.LBB302:
	.loc 2 36 3 view .LVU611
	.loc 2 36 10 is_stmt 0 view .LVU612
	xorl	%eax, %eax
.LVL208:
	.loc 2 36 10 view .LVU613
	call	__sprintf_chk@PLT
.LVL209:
	.loc 2 36 10 view .LVU614
.LBE302:
.LBE304:
	.loc 1 489 3 is_stmt 1 view .LVU615
	movl	340(%r13), %edi
	call	time_string.isra.0
.LVL210:
	.loc 1 489 19 is_stmt 0 view .LVU616
	movl	$5, %edx
	leaq	.LC34(%rip), %rsi
	xorl	%edi, %edi
	.loc 1 489 3 view .LVU617
	movq	%rax, 8(%rsp)
	.loc 1 489 19 view .LVU618
	call	dcgettext@PLT
.LVL211:
	.loc 1 489 3 view .LVU619
	pushq	%rbx
	.cfi_remember_state
	.cfi_def_cfa_offset 152
.LVL212:
	.loc 1 489 3 view .LVU620
	leaq	8(%r13), %r8
	movl	$32, %ecx
	pushq	%r14
	.cfi_def_cfa_offset 160
	.loc 1 489 19 view .LVU621
	movq	%rax, %rsi
	.loc 1 489 3 view .LVU622
	movl	$32, %edx
	pushq	%r15
	.cfi_def_cfa_offset 168
	pushq	%rbx
	.cfi_def_cfa_offset 176
	movq	40(%rsp), %r9
	jmp	.L130
.LVL213:
.L134:
	.cfi_restore_state
	.loc 1 489 3 view .LVU623
.LBE305:
.LBE306:
	.loc 1 579 7 is_stmt 1 view .LVU624
	.loc 1 579 19 is_stmt 0 view .LVU625
	xorl	%edi, %edi
	call	ttyname@PLT
.LVL214:
	movq	%rax, %r12
.LVL215:
	.loc 1 580 7 is_stmt 1 view .LVU626
	.loc 1 580 10 is_stmt 0 view .LVU627
	testq	%rax, %rax
	je	.L97
	.loc 1 582 7 is_stmt 1 view .LVU628
	.loc 1 582 11 is_stmt 0 view .LVU629
	movl	$5, %edx
	leaq	.LC27(%rip), %rsi
	movq	%rax, %rdi
	call	strncmp@PLT
.LVL216:
	.loc 1 582 10 view .LVU630
	testl	%eax, %eax
	jne	.L99
	.loc 1 583 9 is_stmt 1 view .LVU631
	.loc 1 583 19 is_stmt 0 view .LVU632
	addq	$5, %r12
.LVL217:
	.loc 1 583 19 view .LVU633
	jmp	.L99
.LVL218:
.L133:
	.loc 1 575 5 is_stmt 1 view .LVU634
.LBB307:
.LBI307:
	.loc 1 561 1 view .LVU635
.LBB308:
	.loc 1 563 3 view .LVU636
	.loc 1 564 39 is_stmt 0 view .LVU637
	movl	$5, %edx
	leaq	.LC20(%rip), %rsi
	xorl	%edi, %edi
	call	dcgettext@PLT
.LVL219:
	.loc 1 564 25 view .LVU638
	movl	$5, %edx
	leaq	.LC21(%rip), %rsi
	xorl	%edi, %edi
	.loc 1 564 39 view .LVU639
	movq	%rax, 8(%rsp)
	.loc 1 564 25 view .LVU640
	call	dcgettext@PLT
.LVL220:
	.loc 1 564 15 view .LVU641
	movl	$5, %edx
	leaq	.LC22(%rip), %rsi
	xorl	%edi, %edi
	.loc 1 564 25 view .LVU642
	movq	%rax, %r15
	.loc 1 564 15 view .LVU643
	call	dcgettext@PLT
.LVL221:
	.loc 1 563 61 view .LVU644
	movl	$5, %edx
	leaq	.LC23(%rip), %rsi
	xorl	%edi, %edi
	.loc 1 564 15 view .LVU645
	movq	%rax, (%rsp)
	.loc 1 563 61 view .LVU646
	call	dcgettext@PLT
.LVL222:
	.loc 1 563 50 view .LVU647
	movl	$5, %edx
	leaq	.LC24(%rip), %rsi
	xorl	%edi, %edi
	.loc 1 563 61 view .LVU648
	movq	%rax, %r12
.LVL223:
	.loc 1 563 50 view .LVU649
	call	dcgettext@PLT
.LVL224:
	.loc 1 563 39 view .LVU650
	movl	$5, %edx
	leaq	.LC25(%rip), %rsi
	xorl	%edi, %edi
	.loc 1 563 50 view .LVU651
	movq	%rax, %rbp
	.loc 1 563 39 view .LVU652
	call	dcgettext@PLT
.LVL225:
	.loc 1 563 19 view .LVU653
	movl	$5, %edx
	leaq	.LC26(%rip), %rsi
	xorl	%edi, %edi
	.loc 1 563 39 view .LVU654
	movq	%rax, %rbx
	.loc 1 563 19 view .LVU655
	call	dcgettext@PLT
.LVL226:
	.loc 1 563 3 view .LVU656
	movq	8(%rsp), %rcx
	movq	%rbp, %r9
	orl	$-1, %edi
	.loc 1 563 19 view .LVU657
	movq	%rax, %rsi
	.loc 1 563 3 view .LVU658
	movl	$32, %edx
	pushq	%rcx
	.cfi_def_cfa_offset 152
	orl	$-1, %ecx
	pushq	%r15
	.cfi_def_cfa_offset 160
	movq	16(%rsp), %r8
	pushq	%r8
	.cfi_def_cfa_offset 168
	movq	%rbx, %r8
	pushq	%r12
	.cfi_def_cfa_offset 176
	call	print_line
.LVL227:
	.loc 1 565 1 view .LVU659
	addq	$32, %rsp
	.cfi_def_cfa_offset 144
	jmp	.L98
.LVL228:
.L141:
	.loc 1 565 1 view .LVU660
.LBE308:
.LBE307:
	.loc 1 608 13 is_stmt 1 view .LVU661
.LBB309:
.LBI250:
	.loc 1 459 1 view .LVU662
.LBB262:
	.loc 1 461 3 view .LVU663
	.loc 1 462 3 view .LVU664
	.loc 1 462 19 is_stmt 0 view .LVU665
	movq	%r13, %rdi
.LBB252:
.LBB253:
	.loc 2 36 10 view .LVU666
	leaq	60(%rsp), %r15
.LBE253:
.LBE252:
	.loc 1 462 19 view .LVU667
	call	make_id_equals_comment
.LVL229:
.LBB256:
.LBB254:
	.loc 2 36 10 view .LVU668
	movslq	4(%r13), %r8
	movl	$12, %edx
	movq	%r15, %rdi
.LBE254:
.LBE256:
	.loc 1 462 19 view .LVU669
	movq	%rax, %r14
.LVL230:
	.loc 1 463 3 is_stmt 1 view .LVU670
	.loc 1 463 3 view .LVU671
.LBB257:
.LBI252:
	.loc 2 34 1 view .LVU672
.LBB255:
	.loc 2 36 3 view .LVU673
	.loc 2 36 10 is_stmt 0 view .LVU674
	leaq	.LC8(%rip), %rcx
	xorl	%eax, %eax
.LVL231:
	.loc 2 36 10 view .LVU675
	movl	$1, %esi
	call	__sprintf_chk@PLT
.LVL232:
	.loc 2 36 10 view .LVU676
.LBE255:
.LBE257:
	.loc 1 465 3 is_stmt 1 view .LVU677
	.loc 1 465 6 is_stmt 0 view .LVU678
	cmpq	$0, exitstr.7986(%rip)
	je	.L147
.L113:
	.loc 1 471 3 is_stmt 1 view .LVU679
	movswl	334(%r13), %r11d
	movl	$5, %edx
	leaq	.LC36(%rip), %rsi
	xorl	%edi, %edi
	movl	%r11d, 28(%rsp)
	call	dcgettext@PLT
.LVL233:
	movswl	332(%r13), %r9d
	movl	$5, %edx
	xorl	%edi, %edi
	leaq	.LC35(%rip), %rsi
	movq	%rax, 16(%rsp)
	movl	%r9d, 8(%rsp)
	call	dcgettext@PLT
.LVL234:
.LBB258:
.LBI258:
	.loc 2 34 1 view .LVU680
.LBB259:
	.loc 2 36 3 view .LVU681
	.loc 2 36 10 is_stmt 0 view .LVU682
	movl	28(%rsp), %r11d
	movq	exitstr.7986(%rip), %rdi
	movl	$1, %esi
.LBE259:
.LBE258:
	.loc 1 471 3 view .LVU683
	movq	%rax, %r8
.LBB261:
.LBB260:
	.loc 2 36 10 view .LVU684
	orq	$-1, %rdx
	xorl	%eax, %eax
	pushq	%r11
	.cfi_def_cfa_offset 152
.LVL235:
	.loc 2 36 10 view .LVU685
	movq	24(%rsp), %rcx
	pushq	%rcx
	.cfi_def_cfa_offset 160
	movl	24(%rsp), %r9d
	leaq	.LC37(%rip), %rcx
	call	__sprintf_chk@PLT
.LVL236:
	.loc 2 36 10 view .LVU686
.LBE260:
.LBE261:
	.loc 1 476 3 is_stmt 1 view .LVU687
	movq	exitstr.7986(%rip), %rdx
	movl	340(%r13), %edi
	movq	%rdx, 24(%rsp)
	call	time_string.isra.0
.LVL237:
	movq	24(%rsp), %rdx
	leaq	8(%r13), %r8
	movl	$32, %ecx
	movq	%rax, %r9
	leaq	.LC0(%rip), %rsi
	orl	$-1, %edi
	pushq	%rdx
	.cfi_def_cfa_offset 168
	movl	$32, %edx
	pushq	%r14
	.cfi_def_cfa_offset 176
	pushq	%r15
	.cfi_def_cfa_offset 184
	pushq	%rbx
	.cfi_def_cfa_offset 192
	call	print_line
.LVL238:
	.loc 1 478 3 view .LVU688
	movq	%r14, %rdi
	addq	$48, %rsp
	.cfi_def_cfa_offset 144
.LVL239:
	.loc 1 478 3 is_stmt 0 view .LVU689
	call	free@PLT
.LVL240:
	movzwl	0(%r13), %r14d
.LVL241:
	.loc 1 479 1 view .LVU690
	jmp	.L102
.LVL242:
.L135:
	.loc 1 479 1 view .LVU691
.LBE262:
.LBE309:
	.loc 1 593 13 is_stmt 1 view .LVU692
	movq	(%rsp), %rsi
	movq	%r13, %rdi
	call	print_user
.LVL243:
	movzwl	0(%r13), %r14d
	jmp	.L102
.LVL244:
.L145:
.LBB310:
.LBB281:
	.loc 1 525 5 view .LVU693
	.loc 1 525 32 is_stmt 0 view .LVU694
	movl	$5, %edx
	leaq	.LC30(%rip), %rsi
	xorl	%edi, %edi
	call	dcgettext@PLT
.LVL245:
	.loc 1 525 24 view .LVU695
	orq	$-1, %rcx
	.loc 1 525 32 view .LVU696
	movq	%rax, %rdi
	.loc 1 525 24 view .LVU697
	xorl	%eax, %eax
	repnz scasb
	.loc 1 525 15 view .LVU698
	negq	%rcx
	movq	%rcx, %rdi
	call	xmalloc@PLT
.LVL246:
	.loc 1 525 13 view .LVU699
	movq	%rax, comment.8006(%rip)
	jmp	.L106
.L144:
	.loc 1 521 5 is_stmt 1 view .LVU700
	.loc 1 521 35 is_stmt 0 view .LVU701
	movl	$5, %edx
	leaq	.LC28(%rip), %rsi
	xorl	%edi, %edi
	call	dcgettext@PLT
.LVL247:
	.loc 1 521 27 view .LVU702
	orq	$-1, %rcx
	.loc 1 521 35 view .LVU703
	movq	%rax, %rdi
	.loc 1 521 27 view .LVU704
	xorl	%eax, %eax
	repnz scasb
	notq	%rcx
	.loc 1 521 18 view .LVU705
	leaq	2(%rcx), %rdi
	call	xmalloc@PLT
.LVL248:
	.loc 1 521 16 view .LVU706
	movq	%rax, runlevline.8005(%rip)
	jmp	.L105
.LVL249:
.L147:
	.loc 1 521 16 view .LVU707
.LBE281:
.LBE310:
.LBB311:
.LBB263:
	.loc 1 466 5 is_stmt 1 view .LVU708
	.loc 1 466 32 is_stmt 0 view .LVU709
	movl	$5, %edx
	leaq	.LC35(%rip), %rsi
	xorl	%edi, %edi
	call	dcgettext@PLT
.LVL250:
	.loc 1 466 24 view .LVU710
	orq	$-1, %r9
	xorl	%r8d, %r8d
	.loc 1 468 34 view .LVU711
	movl	$5, %edx
	.loc 1 466 32 view .LVU712
	movq	%rax, %rdi
	.loc 1 466 24 view .LVU713
	movq	%r9, %rcx
	.loc 1 468 34 view .LVU714
	leaq	.LC36(%rip), %rsi
	.loc 1 466 24 view .LVU715
	movl	%r8d, %eax
	repnz scasb
	.loc 1 468 34 view .LVU716
	xorl	%edi, %edi
	.loc 1 466 24 view .LVU717
	notq	%rcx
	leaq	-1(%rcx), %rax
	movq	%rax, 8(%rsp)
	.loc 1 468 34 view .LVU718
	call	dcgettext@PLT
.LVL251:
	.loc 1 468 26 view .LVU719
	orq	$-1, %r9
	xorl	%r8d, %r8d
	.loc 1 468 34 view .LVU720
	movq	%rax, %rdi
	.loc 1 468 26 view .LVU721
	movq	%r9, %rcx
	movl	%r8d, %eax
	repnz scasb
	.loc 1 466 15 view .LVU722
	movq	8(%rsp), %rax
	.loc 1 468 26 view .LVU723
	notq	%rcx
	.loc 1 466 15 view .LVU724
	leaq	13(%rax,%rcx), %rdi
	call	xmalloc@PLT
.LVL252:
	.loc 1 466 13 view .LVU725
	movq	%rax, exitstr.7986(%rip)
	jmp	.L113
.LVL253:
.L143:
	.loc 1 466 13 view .LVU726
.LBE263:
.LBE311:
.LBE312:
.LBE329:
	.loc 1 635 1 view .LVU727
	call	__stack_chk_fail@PLT
.LVL254:
.L131:
.LBB330:
.LBI330:
	.loc 1 621 1 is_stmt 1 view .LVU728
.LBB331:
.LBB332:
	.loc 1 627 5 view .LVU729
	movq	%r12, %rdx
	movl	$3, %esi
	xorl	%edi, %edi
	call	quotearg_n_style_colon@PLT
.LVL255:
	movq	%rax, %r12
.LVL256:
	.loc 1 627 5 is_stmt 0 view .LVU730
	call	__errno_location@PLT
.LVL257:
	movq	%r12, %rcx
	movl	$1, %edi
	leaq	.LC17(%rip), %rdx
	movl	(%rax), %esi
	xorl	%eax, %eax
	call	error@PLT
.LVL258:
.LBE332:
.LBE331:
.LBE330:
	.cfi_endproc
.LFE165:
	.size	who, .-who
	.section	.rodata.str1.1
.LC38:
	.string	"who"
.LC39:
	.string	" invocation"
	.section	.rodata.str1.8
	.align 8
.LC40:
	.string	"Try '%s --help' for more information.\n"
	.align 8
.LC41:
	.string	"Usage: %s [OPTION]... [ FILE | ARG1 ARG2 ]\n"
	.align 8
.LC42:
	.string	"Print information about users who are currently logged in.\n"
	.align 8
.LC43:
	.string	"\n  -a, --all         same as -b -d --login -p -r -t -T -u\n  -b, --boot        time of last system boot\n  -d, --dead        print dead processes\n  -H, --heading     print line of column headings\n"
	.align 8
.LC44:
	.string	"  -l, --login       print system login processes\n"
	.align 8
.LC45:
	.string	"      --lookup      attempt to canonicalize hostnames via DNS\n  -m                only hostname and user associated with stdin\n  -p, --process     print active processes spawned by init\n"
	.align 8
.LC46:
	.string	"  -q, --count       all login names and number of users logged on\n  -r, --runlevel    print current runlevel\n  -s, --short       print only name, line, and time (default)\n  -t, --time        print last system clock change\n"
	.align 8
.LC47:
	.string	"  -T, -w, --mesg    add user's message status as +, - or ?\n  -u, --users       list users logged in\n      --message     same as -T\n      --writable    same as -T\n"
	.align 8
.LC48:
	.string	"      --help     display this help and exit\n"
	.align 8
.LC49:
	.string	"      --version  output version information and exit\n"
	.align 8
.LC50:
	.string	"\nIf FILE is not specified, use %s.  %s as FILE is common.\nIf ARG1 ARG2 given, -m presumed: 'am i' or 'mom likes' are usual.\n"
	.section	.rodata.str1.1
.LC51:
	.string	"/var/log/wtmp"
.LC52:
	.string	"/var/run/utmp"
.LC53:
	.string	"["
.LC54:
	.string	"test invocation"
.LC55:
	.string	"coreutils"
.LC56:
	.string	"Multi-call invocation"
.LC57:
	.string	"sha224sum"
.LC58:
	.string	"sha2 utilities"
.LC59:
	.string	"sha256sum"
.LC60:
	.string	"sha384sum"
.LC61:
	.string	"sha512sum"
.LC62:
	.string	"\n%s online help: <%s>\n"
	.section	.rodata.str1.8
	.align 8
.LC63:
	.string	"https://www.gnu.org/software/coreutils/"
	.section	.rodata.str1.1
.LC64:
	.string	"GNU coreutils"
.LC65:
	.string	"en_"
	.section	.rodata.str1.8
	.align 8
.LC66:
	.string	"Report any translation bugs to <https://translationproject.org/team/>\n"
	.section	.rodata.str1.1
.LC67:
	.string	"Full documentation <%s%s>\n"
	.section	.rodata.str1.8
	.align 8
.LC68:
	.string	"or available locally via: info '(coreutils) %s%s'\n"
	.text
	.p2align 4
	.globl	usage
	.type	usage, @function
usage:
.LVL259:
.LFB166:
	.loc 1 639 1 is_stmt 1 view -0
	.cfi_startproc
	.loc 1 639 1 is_stmt 0 view .LVU732
	endbr64
	pushq	%r13
	.cfi_def_cfa_offset 16
	.cfi_offset 13, -16
	.loc 1 641 5 view .LVU733
	movl	$5, %edx
	.loc 1 639 1 view .LVU734
	pushq	%r12
	.cfi_def_cfa_offset 24
	.cfi_offset 12, -24
	pushq	%rbp
	.cfi_def_cfa_offset 32
	.cfi_offset 6, -32
	movl	%edi, %ebp
	pushq	%rbx
	.cfi_def_cfa_offset 40
	.cfi_offset 3, -40
	subq	$136, %rsp
	.cfi_def_cfa_offset 176
	movq	program_name(%rip), %r12
	.loc 1 639 1 view .LVU735
	movq	%fs:40, %rax
	movq	%rax, 120(%rsp)
	xorl	%eax, %eax
	.loc 1 640 3 is_stmt 1 view .LVU736
	.loc 1 640 6 is_stmt 0 view .LVU737
	testl	%edi, %edi
	je	.L149
	.loc 1 641 5 is_stmt 1 view .LVU738
	.loc 1 641 5 view .LVU739
	leaq	.LC40(%rip), %rsi
	xorl	%edi, %edi
.LVL260:
	.loc 1 641 5 is_stmt 0 view .LVU740
	call	dcgettext@PLT
.LVL261:
.LBB347:
.LBB348:
	.loc 2 100 10 view .LVU741
	movq	stderr(%rip), %rdi
	movq	%r12, %rcx
	movl	$1, %esi
.LBE348:
.LBE347:
	.loc 1 641 5 view .LVU742
	movq	%rax, %rdx
.LVL262:
.LBB350:
.LBI347:
	.loc 2 98 1 is_stmt 1 view .LVU743
.LBB349:
	.loc 2 100 3 view .LVU744
	.loc 2 100 10 is_stmt 0 view .LVU745
	xorl	%eax, %eax
.LVL263:
	.loc 2 100 10 view .LVU746
	call	__fprintf_chk@PLT
.LVL264:
.L150:
	.loc 2 100 10 view .LVU747
.LBE349:
.LBE350:
	.loc 1 684 3 is_stmt 1 view .LVU748
	movl	%ebp, %edi
	call	exit@PLT
.LVL265:
.L149:
	.loc 1 644 7 view .LVU749
	.loc 1 644 15 is_stmt 0 view .LVU750
	leaq	.LC41(%rip), %rsi
	xorl	%edi, %edi
.LVL266:
.LBB351:
.LBB352:
	.loc 4 636 67 view .LVU751
	leaq	.LC59(%rip), %rbx
.LBE352:
.LBE351:
	.loc 1 644 15 view .LVU752
	call	dcgettext@PLT
.LVL267:
.LBB378:
.LBB379:
	.loc 2 107 10 view .LVU753
	movq	%r12, %rdx
	movl	$1, %edi
.LBE379:
.LBE378:
	.loc 1 644 15 view .LVU754
	movq	%rax, %rsi
.LVL268:
.LBB381:
.LBI378:
	.loc 2 105 1 is_stmt 1 view .LVU755
.LBB380:
	.loc 2 107 3 view .LVU756
	.loc 2 107 10 is_stmt 0 view .LVU757
	xorl	%eax, %eax
.LVL269:
	.loc 2 107 10 view .LVU758
	call	__printf_chk@PLT
.LVL270:
	.loc 2 107 10 view .LVU759
.LBE380:
.LBE381:
	.loc 1 645 7 is_stmt 1 view .LVU760
	movq	stdout(%rip), %r12
	movl	$5, %edx
	xorl	%edi, %edi
	leaq	.LC42(%rip), %rsi
	call	dcgettext@PLT
.LVL271:
	movq	%r12, %rsi
	movq	%rax, %rdi
	call	fputs_unlocked@PLT
.LVL272:
	.loc 1 648 7 view .LVU761
	movq	stdout(%rip), %r12
	movl	$5, %edx
	xorl	%edi, %edi
	leaq	.LC43(%rip), %rsi
	call	dcgettext@PLT
.LVL273:
	movq	%r12, %rsi
	movq	%rax, %rdi
	call	fputs_unlocked@PLT
.LVL274:
	.loc 1 655 7 view .LVU762
	movq	stdout(%rip), %r12
	movl	$5, %edx
	xorl	%edi, %edi
	leaq	.LC44(%rip), %rsi
	call	dcgettext@PLT
.LVL275:
	movq	%r12, %rsi
	movq	%rax, %rdi
	call	fputs_unlocked@PLT
.LVL276:
	.loc 1 658 7 view .LVU763
	movq	stdout(%rip), %r12
	movl	$5, %edx
	xorl	%edi, %edi
	leaq	.LC45(%rip), %rsi
	call	dcgettext@PLT
.LVL277:
	movq	%r12, %rsi
	movq	%rax, %rdi
	call	fputs_unlocked@PLT
.LVL278:
	.loc 1 663 7 view .LVU764
	movq	stdout(%rip), %r12
	movl	$5, %edx
	xorl	%edi, %edi
	leaq	.LC46(%rip), %rsi
	call	dcgettext@PLT
.LVL279:
	movq	%r12, %rsi
	movq	%rax, %rdi
	call	fputs_unlocked@PLT
.LVL280:
	.loc 1 669 7 view .LVU765
	movq	stdout(%rip), %r12
	movl	$5, %edx
	xorl	%edi, %edi
	leaq	.LC47(%rip), %rsi
	call	dcgettext@PLT
.LVL281:
	movq	%r12, %rsi
	movq	%rax, %rdi
	call	fputs_unlocked@PLT
.LVL282:
	.loc 1 675 7 view .LVU766
	movq	stdout(%rip), %r12
	movl	$5, %edx
	xorl	%edi, %edi
	leaq	.LC48(%rip), %rsi
	call	dcgettext@PLT
.LVL283:
	movq	%r12, %rsi
	movq	%rax, %rdi
	call	fputs_unlocked@PLT
.LVL284:
	.loc 1 676 7 view .LVU767
	movl	$5, %edx
	movq	stdout(%rip), %r12
	xorl	%edi, %edi
	leaq	.LC49(%rip), %rsi
	call	dcgettext@PLT
.LVL285:
	movq	%r12, %rsi
	movq	%rax, %rdi
	call	fputs_unlocked@PLT
.LVL286:
	.loc 1 677 7 view .LVU768
	.loc 1 677 15 is_stmt 0 view .LVU769
	movl	$5, %edx
	leaq	.LC50(%rip), %rsi
	xorl	%edi, %edi
	call	dcgettext@PLT
.LVL287:
.LBB382:
.LBB383:
	.loc 2 107 10 view .LVU770
	leaq	.LC51(%rip), %rcx
	movl	$1, %edi
	leaq	.LC52(%rip), %rdx
.LBE383:
.LBE382:
	.loc 1 677 15 view .LVU771
	movq	%rax, %rsi
.LVL288:
.LBB385:
.LBI382:
	.loc 2 105 1 is_stmt 1 view .LVU772
.LBB384:
	.loc 2 107 3 view .LVU773
	.loc 2 107 10 is_stmt 0 view .LVU774
	xorl	%eax, %eax
.LVL289:
	.loc 2 107 10 view .LVU775
	call	__printf_chk@PLT
.LVL290:
	.loc 2 107 10 view .LVU776
.LBE384:
.LBE385:
	.loc 1 682 7 is_stmt 1 view .LVU777
.LBB386:
.LBI351:
	.loc 4 634 1 view .LVU778
.LBB377:
	.loc 4 636 3 view .LVU779
	.loc 4 636 67 is_stmt 0 view .LVU780
	leaq	.LC53(%rip), %rax
	movq	%rbx, 48(%rsp)
	leaq	.LC60(%rip), %rbx
	movq	%rax, (%rsp)
	leaq	.LC54(%rip), %rax
	movq	%rax, 8(%rsp)
	leaq	.LC55(%rip), %rax
	movq	%rax, 16(%rsp)
	leaq	.LC56(%rip), %rax
	movq	%rax, 24(%rsp)
	leaq	.LC57(%rip), %rax
	movq	$0, 96(%rsp)
	movq	$0, 104(%rsp)
	.loc 4 646 3 is_stmt 1 view .LVU781
.LVL291:
	.loc 4 647 3 view .LVU782
	.loc 4 649 3 view .LVU783
	.loc 4 649 9 view .LVU784
	.loc 4 636 67 is_stmt 0 view .LVU785
	movq	%rax, 32(%rsp)
	leaq	.LC58(%rip), %rax
	movq	%rbx, 64(%rsp)
	leaq	.LC61(%rip), %rbx
	movq	%rax, 40(%rsp)
	movq	%rax, 56(%rsp)
	movq	%rax, 72(%rsp)
	movq	%rbx, 80(%rsp)
	leaq	.LC38(%rip), %rbx
	movq	%rax, 88(%rsp)
	.loc 4 647 25 view .LVU786
	movq	%rsp, %rax
.LVL292:
	.p2align 4,,10
	.p2align 3
.L152:
	.loc 4 650 5 is_stmt 1 view .LVU787
	.loc 4 649 18 is_stmt 0 view .LVU788
	movq	16(%rax), %rdi
	.loc 4 650 13 view .LVU789
	addq	$16, %rax
.LVL293:
	.loc 4 649 9 is_stmt 1 view .LVU790
	testq	%rdi, %rdi
	je	.L151
	.loc 4 649 33 is_stmt 0 view .LVU791
	movl	$4, %ecx
	movq	%rbx, %rsi
	repz cmpsb
	seta	%dl
	sbbb	$0, %dl
	.loc 4 649 28 view .LVU792
	testb	%dl, %dl
	jne	.L152
.L151:
	.loc 4 652 3 is_stmt 1 view .LVU793
	.loc 4 652 15 is_stmt 0 view .LVU794
	movq	8(%rax), %r12
	.loc 4 655 11 view .LVU795
	movl	$5, %edx
	leaq	.LC62(%rip), %rsi
	xorl	%edi, %edi
	.loc 4 652 6 view .LVU796
	testq	%r12, %r12
	je	.L153
	.loc 4 653 5 is_stmt 1 view .LVU797
.LVL294:
	.loc 4 655 3 view .LVU798
	.loc 4 655 11 is_stmt 0 view .LVU799
	call	dcgettext@PLT
.LVL295:
.LBB353:
.LBB354:
	.loc 2 107 10 view .LVU800
	leaq	.LC63(%rip), %rcx
	movl	$1, %edi
	leaq	.LC64(%rip), %rdx
.LBE354:
.LBE353:
	.loc 4 655 11 view .LVU801
	movq	%rax, %rsi
.LVL296:
.LBB358:
.LBI353:
	.loc 2 105 1 is_stmt 1 view .LVU802
.LBB355:
	.loc 2 107 3 view .LVU803
	.loc 2 107 10 is_stmt 0 view .LVU804
	xorl	%eax, %eax
.LVL297:
	.loc 2 107 10 view .LVU805
	call	__printf_chk@PLT
.LVL298:
	.loc 2 107 10 view .LVU806
.LBE355:
.LBE358:
	.loc 4 659 3 is_stmt 1 view .LVU807
	.loc 4 659 29 is_stmt 0 view .LVU808
	movl	$5, %edi
	xorl	%esi, %esi
	call	setlocale@PLT
.LVL299:
	movq	%rax, %rdi
.LVL300:
	.loc 4 660 3 is_stmt 1 view .LVU809
	.loc 4 660 6 is_stmt 0 view .LVU810
	testq	%rax, %rax
	je	.L154
	.loc 4 660 22 view .LVU811
	movl	$3, %edx
	leaq	.LC65(%rip), %rsi
	call	strncmp@PLT
.LVL301:
	.loc 4 660 19 view .LVU812
	testl	%eax, %eax
	jne	.L157
.LVL302:
.L154:
	.loc 4 669 3 is_stmt 1 view .LVU813
	.loc 4 669 11 is_stmt 0 view .LVU814
	xorl	%edi, %edi
	movl	$5, %edx
	leaq	.LC67(%rip), %rsi
	call	dcgettext@PLT
.LVL303:
.LBB359:
.LBB360:
	.loc 2 107 10 view .LVU815
	leaq	.LC38(%rip), %rcx
	leaq	.LC63(%rip), %rdx
	movl	$1, %edi
.LBE360:
.LBE359:
	.loc 4 669 11 view .LVU816
	movq	%rax, %rsi
.LVL304:
.LBB366:
.LBI359:
	.loc 2 105 1 is_stmt 1 view .LVU817
.LBB361:
	.loc 2 107 3 view .LVU818
	.loc 2 107 10 is_stmt 0 view .LVU819
	xorl	%eax, %eax
.LVL305:
	.loc 2 107 10 view .LVU820
.LBE361:
.LBE366:
	.loc 4 671 3 view .LVU821
	leaq	.LC39(%rip), %r13
.LBB367:
.LBB362:
	.loc 2 107 10 view .LVU822
	call	__printf_chk@PLT
.LVL306:
	.loc 2 107 10 view .LVU823
.LBE362:
.LBE367:
	.loc 4 671 3 is_stmt 1 view .LVU824
	cmpq	%rbx, %r12
	leaq	.LC0(%rip), %rcx
	cmovne	%rcx, %r13
.L155:
	.loc 4 671 11 is_stmt 0 view .LVU825
	xorl	%edi, %edi
	leaq	.LC68(%rip), %rsi
	movl	$5, %edx
	call	dcgettext@PLT
.LVL307:
.LBB368:
.LBB369:
	.loc 2 107 10 view .LVU826
	movq	%r13, %rcx
	movq	%r12, %rdx
	movl	$1, %edi
.LBE369:
.LBE368:
	.loc 4 671 11 view .LVU827
	movq	%rax, %rsi
.LVL308:
.LBB371:
.LBI368:
	.loc 2 105 1 is_stmt 1 view .LVU828
.LBB370:
	.loc 2 107 3 view .LVU829
	.loc 2 107 10 is_stmt 0 view .LVU830
	xorl	%eax, %eax
.LVL309:
	.loc 2 107 10 view .LVU831
	call	__printf_chk@PLT
.LVL310:
	.loc 2 107 10 view .LVU832
.LBE370:
.LBE371:
	.loc 4 673 1 view .LVU833
	jmp	.L150
.LVL311:
.L153:
	.loc 4 655 3 is_stmt 1 view .LVU834
	.loc 4 655 11 is_stmt 0 view .LVU835
	call	dcgettext@PLT
.LVL312:
.LBB372:
.LBB356:
	.loc 2 107 10 view .LVU836
	leaq	.LC63(%rip), %rcx
	movl	$1, %edi
	leaq	.LC64(%rip), %rdx
.LBE356:
.LBE372:
	.loc 4 655 11 view .LVU837
	movq	%rax, %rsi
.LVL313:
.LBB373:
	.loc 2 105 1 is_stmt 1 view .LVU838
.LBB357:
	.loc 2 107 3 view .LVU839
	.loc 2 107 10 is_stmt 0 view .LVU840
	xorl	%eax, %eax
.LVL314:
	.loc 2 107 10 view .LVU841
	call	__printf_chk@PLT
.LVL315:
	.loc 2 107 10 view .LVU842
.LBE357:
.LBE373:
	.loc 4 659 3 is_stmt 1 view .LVU843
	.loc 4 659 29 is_stmt 0 view .LVU844
	movl	$5, %edi
	xorl	%esi, %esi
	call	setlocale@PLT
.LVL316:
	movq	%rax, %rdi
.LVL317:
	.loc 4 660 3 is_stmt 1 view .LVU845
	.loc 4 660 6 is_stmt 0 view .LVU846
	testq	%rax, %rax
	je	.L156
	.loc 4 660 22 view .LVU847
	movl	$3, %edx
	leaq	.LC65(%rip), %rsi
	call	strncmp@PLT
.LVL318:
	.loc 4 660 19 view .LVU848
	testl	%eax, %eax
	jne	.L175
.L156:
	.loc 4 669 3 is_stmt 1 view .LVU849
	.loc 4 669 11 is_stmt 0 view .LVU850
	movl	$5, %edx
	leaq	.LC67(%rip), %rsi
	xorl	%edi, %edi
	call	dcgettext@PLT
.LVL319:
.LBB374:
.LBB363:
	.loc 2 107 10 view .LVU851
	leaq	.LC38(%rip), %rcx
	leaq	.LC63(%rip), %rdx
	movl	$1, %edi
.LBE363:
.LBE374:
	.loc 4 669 11 view .LVU852
	movq	%rax, %rsi
.LVL320:
.LBB375:
	.loc 2 105 1 is_stmt 1 view .LVU853
.LBB364:
	.loc 2 107 3 view .LVU854
	.loc 2 107 10 is_stmt 0 view .LVU855
	xorl	%eax, %eax
.LVL321:
	.loc 2 107 10 view .LVU856
.LBE364:
.LBE375:
	.loc 4 646 15 view .LVU857
	leaq	.LC38(%rip), %r12
.LBB376:
.LBB365:
	.loc 2 107 10 view .LVU858
	call	__printf_chk@PLT
.LVL322:
	.loc 2 107 10 view .LVU859
.LBE365:
.LBE376:
	.loc 4 671 3 is_stmt 1 view .LVU860
	leaq	.LC39(%rip), %r13
	jmp	.L155
.L175:
	.loc 4 646 15 is_stmt 0 view .LVU861
	leaq	.LC38(%rip), %r12
.LVL323:
.L157:
	.loc 4 666 7 is_stmt 1 view .LVU862
	movq	stdout(%rip), %r13
	xorl	%edi, %edi
	movl	$5, %edx
	leaq	.LC66(%rip), %rsi
	call	dcgettext@PLT
.LVL324:
	movq	%rax, %rdi
	movq	%r13, %rsi
	call	fputs_unlocked@PLT
.LVL325:
	jmp	.L154
.LBE377:
.LBE386:
	.cfi_endproc
.LFE166:
	.size	usage, .-usage
	.section	.rodata.str1.1
.LC69:
	.string	"/usr/local/share/locale"
.LC70:
	.string	"David MacKenzie"
.LC71:
	.string	"Joseph Arceneaux"
.LC72:
	.string	"Michael Stone"
.LC73:
	.string	"abdlmpqrstuwHT"
.LC74:
	.string	"%Y-%m-%d %H:%M"
.LC75:
	.string	"%b %e %H:%M"
.LC76:
	.string	"extra operand %s"
	.section	.text.startup,"ax",@progbits
	.p2align 4
	.globl	main
	.type	main, @function
main:
.LVL326:
.LFB167:
	.loc 1 689 1 view -0
	.cfi_startproc
	.loc 1 689 1 is_stmt 0 view .LVU864
	endbr64
	.loc 1 690 3 is_stmt 1 view .LVU865
	.loc 1 691 3 view .LVU866
.LVL327:
	.loc 1 693 33 view .LVU867
	.loc 1 694 3 view .LVU868
	.loc 1 689 1 is_stmt 0 view .LVU869
	pushq	%r13
	.cfi_def_cfa_offset 16
	.cfi_offset 13, -16
	.loc 1 691 8 view .LVU870
	movl	$1, %r13d
	.loc 1 689 1 view .LVU871
	pushq	%r12
	.cfi_def_cfa_offset 24
	.cfi_offset 12, -24
	movq	%rsi, %r12
	pushq	%rbp
	.cfi_def_cfa_offset 32
	.cfi_offset 6, -32
	movl	%edi, %ebp
	pushq	%rbx
	.cfi_def_cfa_offset 40
	.cfi_offset 3, -40
	leaq	.L183(%rip), %rbx
	subq	$8, %rsp
	.cfi_def_cfa_offset 48
	.loc 1 694 3 view .LVU872
	movq	(%rsi), %rdi
.LVL328:
	.loc 1 694 3 view .LVU873
	call	set_program_name@PLT
.LVL329:
	.loc 1 695 3 is_stmt 1 view .LVU874
	leaq	.LC0(%rip), %rsi
	movl	$6, %edi
	call	setlocale@PLT
.LVL330:
	.loc 1 696 3 view .LVU875
	leaq	.LC69(%rip), %rsi
	leaq	.LC55(%rip), %rdi
	call	bindtextdomain@PLT
.LVL331:
	.loc 1 697 3 view .LVU876
	leaq	.LC55(%rip), %rdi
	call	textdomain@PLT
.LVL332:
	.loc 1 699 3 view .LVU877
	movq	close_stdout@GOTPCREL(%rip), %rdi
	call	atexit@PLT
.LVL333:
	.loc 1 701 3 view .LVU878
	.p2align 4,,10
	.p2align 3
.L177:
	.loc 1 701 9 view .LVU879
	.loc 1 701 18 is_stmt 0 view .LVU880
	xorl	%r8d, %r8d
	leaq	longopts(%rip), %rcx
	movq	%r12, %rsi
	movl	%ebp, %edi
	leaq	.LC73(%rip), %rdx
	call	getopt_long@PLT
.LVL334:
	.loc 1 701 9 view .LVU881
	cmpl	$-1, %eax
	je	.L213
	.loc 1 704 7 is_stmt 1 view .LVU882
	cmpl	$128, %eax
	jg	.L212
	cmpl	$71, %eax
	jle	.L214
	subl	$72, %eax
.LVL335:
	.loc 1 704 7 is_stmt 0 view .LVU883
	cmpl	$56, %eax
	ja	.L212
	movslq	(%rbx,%rax,4), %rax
	addq	%rbx, %rax
	notrack jmp	*%rax
	.section	.rodata
	.align 4
	.align 4
.L183:
	.long	.L196-.L183
	.long	.L212-.L183
	.long	.L212-.L183
	.long	.L212-.L183
	.long	.L212-.L183
	.long	.L212-.L183
	.long	.L212-.L183
	.long	.L212-.L183
	.long	.L212-.L183
	.long	.L212-.L183
	.long	.L212-.L183
	.long	.L212-.L183
	.long	.L184-.L183
	.long	.L212-.L183
	.long	.L212-.L183
	.long	.L212-.L183
	.long	.L212-.L183
	.long	.L212-.L183
	.long	.L212-.L183
	.long	.L212-.L183
	.long	.L212-.L183
	.long	.L212-.L183
	.long	.L212-.L183
	.long	.L212-.L183
	.long	.L212-.L183
	.long	.L195-.L183
	.long	.L194-.L183
	.long	.L212-.L183
	.long	.L193-.L183
	.long	.L212-.L183
	.long	.L212-.L183
	.long	.L212-.L183
	.long	.L212-.L183
	.long	.L212-.L183
	.long	.L212-.L183
	.long	.L212-.L183
	.long	.L192-.L183
	.long	.L191-.L183
	.long	.L212-.L183
	.long	.L212-.L183
	.long	.L190-.L183
	.long	.L189-.L183
	.long	.L188-.L183
	.long	.L187-.L183
	.long	.L186-.L183
	.long	.L185-.L183
	.long	.L212-.L183
	.long	.L184-.L183
	.long	.L212-.L183
	.long	.L212-.L183
	.long	.L212-.L183
	.long	.L212-.L183
	.long	.L212-.L183
	.long	.L212-.L183
	.long	.L212-.L183
	.long	.L212-.L183
	.long	.L182-.L183
	.section	.text.startup
.L182:
	.loc 1 782 11 is_stmt 1 view .LVU884
	.loc 1 782 21 is_stmt 0 view .LVU885
	movb	$1, do_lookup(%rip)
	.loc 1 783 11 is_stmt 1 view .LVU886
	jmp	.L177
.L185:
	.loc 1 776 11 view .LVU887
	.loc 1 776 22 is_stmt 0 view .LVU888
	movb	$1, need_users(%rip)
	.loc 1 777 11 is_stmt 1 view .LVU889
	.loc 1 778 23 is_stmt 0 view .LVU890
	xorl	%r13d, %r13d
.LVL336:
	.loc 1 777 24 view .LVU891
	movb	$1, include_idle(%rip)
	.loc 1 778 11 is_stmt 1 view .LVU892
.LVL337:
	.loc 1 779 11 view .LVU893
	jmp	.L177
.LVL338:
.L186:
	.loc 1 766 11 view .LVU894
	.loc 1 766 28 is_stmt 0 view .LVU895
	movb	$1, need_clockchange(%rip)
	.loc 1 767 11 is_stmt 1 view .LVU896
.LVL339:
	.loc 1 768 11 view .LVU897
	.loc 1 767 23 is_stmt 0 view .LVU898
	xorl	%r13d, %r13d
	.loc 1 768 11 view .LVU899
	jmp	.L177
.LVL340:
.L187:
	.loc 1 762 11 is_stmt 1 view .LVU900
	.loc 1 762 24 is_stmt 0 view .LVU901
	movb	$1, short_output(%rip)
	.loc 1 763 11 is_stmt 1 view .LVU902
	jmp	.L177
.L188:
	.loc 1 756 11 view .LVU903
	.loc 1 756 25 is_stmt 0 view .LVU904
	movb	$1, need_runlevel(%rip)
	.loc 1 757 11 is_stmt 1 view .LVU905
	.loc 1 758 23 is_stmt 0 view .LVU906
	xorl	%r13d, %r13d
.LVL341:
	.loc 1 757 24 view .LVU907
	movb	$1, include_idle(%rip)
	.loc 1 758 11 is_stmt 1 view .LVU908
.LVL342:
	.loc 1 759 11 view .LVU909
	jmp	.L177
.LVL343:
.L189:
	.loc 1 752 11 view .LVU910
	.loc 1 752 22 is_stmt 0 view .LVU911
	movb	$1, short_list(%rip)
	.loc 1 753 11 is_stmt 1 view .LVU912
	jmp	.L177
.L190:
	.loc 1 747 11 view .LVU913
	.loc 1 747 26 is_stmt 0 view .LVU914
	movb	$1, need_initspawn(%rip)
	.loc 1 748 11 is_stmt 1 view .LVU915
.LVL344:
	.loc 1 749 11 view .LVU916
	.loc 1 748 23 is_stmt 0 view .LVU917
	xorl	%r13d, %r13d
	.loc 1 749 11 view .LVU918
	jmp	.L177
.LVL345:
.L191:
	.loc 1 743 11 is_stmt 1 view .LVU919
	.loc 1 743 24 is_stmt 0 view .LVU920
	movb	$1, my_line_only(%rip)
	.loc 1 744 11 is_stmt 1 view .LVU921
	jmp	.L177
.L192:
	.loc 1 737 11 view .LVU922
	.loc 1 737 22 is_stmt 0 view .LVU923
	movb	$1, need_login(%rip)
	.loc 1 738 11 is_stmt 1 view .LVU924
	.loc 1 739 23 is_stmt 0 view .LVU925
	xorl	%r13d, %r13d
.LVL346:
	.loc 1 738 24 view .LVU926
	movb	$1, include_idle(%rip)
	.loc 1 739 11 is_stmt 1 view .LVU927
.LVL347:
	.loc 1 740 11 view .LVU928
	jmp	.L177
.LVL348:
.L193:
	.loc 1 726 11 view .LVU929
	.loc 1 726 26 is_stmt 0 view .LVU930
	movb	$1, need_deadprocs(%rip)
	.loc 1 727 11 is_stmt 1 view .LVU931
	.loc 1 729 23 is_stmt 0 view .LVU932
	xorl	%r13d, %r13d
.LVL349:
	.loc 1 727 24 view .LVU933
	movb	$1, include_idle(%rip)
	.loc 1 728 11 is_stmt 1 view .LVU934
	.loc 1 728 24 is_stmt 0 view .LVU935
	movb	$1, include_exit(%rip)
	.loc 1 729 11 is_stmt 1 view .LVU936
.LVL350:
	.loc 1 730 11 view .LVU937
	jmp	.L177
.LVL351:
.L194:
	.loc 1 721 11 view .LVU938
	.loc 1 721 25 is_stmt 0 view .LVU939
	movb	$1, need_boottime(%rip)
	.loc 1 722 11 is_stmt 1 view .LVU940
.LVL352:
	.loc 1 723 11 view .LVU941
	.loc 1 722 23 is_stmt 0 view .LVU942
	xorl	%r13d, %r13d
	.loc 1 723 11 view .LVU943
	jmp	.L177
.LVL353:
.L195:
	.loc 1 707 11 is_stmt 1 view .LVU944
	.loc 1 707 25 is_stmt 0 view .LVU945
	movb	$1, need_boottime(%rip)
	.loc 1 708 11 is_stmt 1 view .LVU946
	.loc 1 717 23 is_stmt 0 view .LVU947
	xorl	%r13d, %r13d
.LVL354:
	.loc 1 708 26 view .LVU948
	movb	$1, need_deadprocs(%rip)
	.loc 1 709 11 is_stmt 1 view .LVU949
	.loc 1 709 22 is_stmt 0 view .LVU950
	movb	$1, need_login(%rip)
	.loc 1 710 11 is_stmt 1 view .LVU951
	.loc 1 710 26 is_stmt 0 view .LVU952
	movb	$1, need_initspawn(%rip)
	.loc 1 711 11 is_stmt 1 view .LVU953
	.loc 1 711 25 is_stmt 0 view .LVU954
	movb	$1, need_runlevel(%rip)
	.loc 1 712 11 is_stmt 1 view .LVU955
	.loc 1 712 28 is_stmt 0 view .LVU956
	movb	$1, need_clockchange(%rip)
	.loc 1 713 11 is_stmt 1 view .LVU957
	.loc 1 713 22 is_stmt 0 view .LVU958
	movb	$1, need_users(%rip)
	.loc 1 714 11 is_stmt 1 view .LVU959
	.loc 1 714 24 is_stmt 0 view .LVU960
	movb	$1, include_mesg(%rip)
	.loc 1 715 11 is_stmt 1 view .LVU961
	.loc 1 715 24 is_stmt 0 view .LVU962
	movb	$1, include_idle(%rip)
	.loc 1 716 11 is_stmt 1 view .LVU963
	.loc 1 716 24 is_stmt 0 view .LVU964
	movb	$1, include_exit(%rip)
	.loc 1 717 11 is_stmt 1 view .LVU965
.LVL355:
	.loc 1 718 11 view .LVU966
	jmp	.L177
.LVL356:
.L184:
	.loc 1 772 11 view .LVU967
	.loc 1 772 24 is_stmt 0 view .LVU968
	movb	$1, include_mesg(%rip)
	.loc 1 773 11 is_stmt 1 view .LVU969
	jmp	.L177
.L196:
	.loc 1 733 11 view .LVU970
	.loc 1 733 27 is_stmt 0 view .LVU971
	movb	$1, include_heading(%rip)
	.loc 1 734 11 is_stmt 1 view .LVU972
	jmp	.L177
.LVL357:
	.p2align 4,,10
	.p2align 3
.L214:
	.loc 1 704 7 is_stmt 0 view .LVU973
	cmpl	$-131, %eax
	jne	.L215
	.loc 1 785 9 is_stmt 1 view .LVU974
	.loc 1 785 30 view .LVU975
	.loc 1 787 9 view .LVU976
	leaq	.LC72(%rip), %rax
.LVL358:
	.loc 1 787 9 is_stmt 0 view .LVU977
	pushq	$0
	.cfi_remember_state
	.cfi_def_cfa_offset 56
	movq	stdout(%rip), %rdi
	leaq	.LC70(%rip), %r9
	pushq	%rax
	.cfi_def_cfa_offset 64
	movq	Version(%rip), %rcx
	xorl	%eax, %eax
	leaq	.LC71(%rip), %r8
	leaq	.LC64(%rip), %rdx
	leaq	.LC38(%rip), %rsi
	call	version_etc@PLT
.LVL359:
	.loc 1 787 9 is_stmt 1 view .LVU978
	xorl	%edi, %edi
	call	exit@PLT
.LVL360:
	.p2align 4,,10
	.p2align 3
.L215:
	.cfi_restore_state
	.loc 1 704 7 is_stmt 0 view .LVU979
	cmpl	$-130, %eax
	jne	.L212
	.loc 1 785 9 is_stmt 1 view .LVU980
	xorl	%edi, %edi
	call	usage
.LVL361:
.L213:
	.loc 1 794 3 view .LVU981
	.loc 1 794 6 is_stmt 0 view .LVU982
	testb	%r13b, %r13b
	je	.L199
	.loc 1 796 7 is_stmt 1 view .LVU983
	.loc 1 796 18 is_stmt 0 view .LVU984
	movb	$1, need_users(%rip)
	.loc 1 797 7 is_stmt 1 view .LVU985
	.loc 1 797 20 is_stmt 0 view .LVU986
	movb	$1, short_output(%rip)
.L199:
	.loc 1 800 3 is_stmt 1 view .LVU987
	.loc 1 800 6 is_stmt 0 view .LVU988
	cmpb	$0, include_exit(%rip)
	je	.L200
	.loc 1 802 7 is_stmt 1 view .LVU989
	.loc 1 802 20 is_stmt 0 view .LVU990
	movb	$0, short_output(%rip)
.L200:
	.loc 1 805 3 is_stmt 1 view .LVU991
	.loc 1 805 7 is_stmt 0 view .LVU992
	movl	$2, %edi
	call	hard_locale@PLT
.LVL362:
	.loc 1 805 6 view .LVU993
	testb	%al, %al
	jne	.L216
	.loc 1 812 7 is_stmt 1 view .LVU994
	.loc 1 812 19 is_stmt 0 view .LVU995
	leaq	.LC75(%rip), %rax
	.loc 1 813 25 view .LVU996
	movl	$12, time_format_width(%rip)
	.loc 1 812 19 view .LVU997
	movq	%rax, time_format(%rip)
	.loc 1 813 7 is_stmt 1 view .LVU998
.L202:
	.loc 1 816 3 view .LVU999
	.loc 1 816 16 is_stmt 0 view .LVU1000
	movslq	optind(%rip), %rax
	subl	%eax, %ebp
.LVL363:
	.loc 1 816 3 view .LVU1001
	cmpl	$1, %ebp
	je	.L203
	jg	.L204
	addl	$1, %ebp
	cmpl	$1, %ebp
	ja	.L205
.L206:
	.loc 1 820 7 is_stmt 1 view .LVU1002
	.loc 1 823 7 view .LVU1003
	movl	$1, %esi
	leaq	.LC52(%rip), %rdi
	call	who
.LVL364:
	.loc 1 824 7 view .LVU1004
.L207:
	.loc 1 835 3 view .LVU1005
	.loc 1 836 1 is_stmt 0 view .LVU1006
	popq	%rdx
	.cfi_remember_state
	.cfi_def_cfa_offset 40
	xorl	%eax, %eax
	popq	%rbx
	.cfi_def_cfa_offset 32
	popq	%rbp
	.cfi_def_cfa_offset 24
	popq	%r12
	.cfi_def_cfa_offset 16
.LVL365:
	.loc 1 836 1 view .LVU1007
	popq	%r13
	.cfi_def_cfa_offset 8
.LVL366:
	.loc 1 836 1 view .LVU1008
	ret
.LVL367:
.L216:
	.cfi_restore_state
	.loc 1 807 7 is_stmt 1 view .LVU1009
	.loc 1 807 19 is_stmt 0 view .LVU1010
	leaq	.LC74(%rip), %rax
	.loc 1 808 25 view .LVU1011
	movl	$16, time_format_width(%rip)
	.loc 1 807 19 view .LVU1012
	movq	%rax, time_format(%rip)
	.loc 1 808 7 is_stmt 1 view .LVU1013
	jmp	.L202
.LVL368:
.L204:
	.loc 1 816 3 is_stmt 0 view .LVU1014
	cmpl	$2, %ebp
	jne	.L205
	.loc 1 819 7 is_stmt 1 view .LVU1015
	.loc 1 819 20 is_stmt 0 view .LVU1016
	movb	$1, my_line_only(%rip)
	jmp	.L206
.L203:
	.loc 1 827 7 is_stmt 1 view .LVU1017
	movq	(%r12,%rax,8), %rdi
	xorl	%esi, %esi
	call	who
.LVL369:
	.loc 1 828 7 view .LVU1018
	jmp	.L207
.L205:
	.loc 1 831 7 view .LVU1019
	movq	16(%r12,%rax,8), %rdi
	call	quote@PLT
.LVL370:
	.loc 1 831 20 is_stmt 0 view .LVU1020
	movl	$5, %edx
	leaq	.LC76(%rip), %rsi
	xorl	%edi, %edi
	.loc 1 831 7 view .LVU1021
	movq	%rax, %r12
.LVL371:
	.loc 1 831 20 view .LVU1022
	call	dcgettext@PLT
.LVL372:
	.loc 1 831 7 view .LVU1023
	movq	%r12, %rcx
	xorl	%esi, %esi
	xorl	%edi, %edi
	.loc 1 831 20 view .LVU1024
	movq	%rax, %rdx
	.loc 1 831 7 view .LVU1025
	xorl	%eax, %eax
	call	error@PLT
.LVL373:
.L212:
	.loc 1 832 7 is_stmt 1 view .LVU1026
	movl	$1, %edi
	call	usage
.LVL374:
	.cfi_endproc
.LFE167:
	.size	main, .-main
	.local	exitstr.7986
	.comm	exitstr.7986,8,8
	.local	comment.8006
	.comm	comment.8006,8,8
	.local	runlevline.8005
	.comm	runlevline.8005,8,8
	.local	buf.7930
	.comm	buf.7930,33,32
	.local	idle_hhmm.7925
	.comm	idle_hhmm.7925,6,1
	.section	.rodata
	.align 8
	.type	__PRETTY_FUNCTION__.7926, @object
	.size	__PRETTY_FUNCTION__.7926, 12
__PRETTY_FUNCTION__.7926:
	.string	"idle_string"
	.data
	.align 8
	.type	now.7923, @object
	.size	now.7923, 8
now.7923:
	.quad	-9223372036854775808
	.local	hoststr.7966
	.comm	hoststr.7966,8,8
	.local	hostlen.7967
	.comm	hostlen.7967,8,8
	.type	mesg.7945, @object
	.size	mesg.7945, 3
mesg.7945:
	.string	" x"
	.section	.rodata.str1.1
.LC77:
	.string	"all"
.LC78:
	.string	"boot"
.LC79:
	.string	"count"
.LC80:
	.string	"dead"
.LC81:
	.string	"heading"
.LC82:
	.string	"login"
.LC83:
	.string	"lookup"
.LC84:
	.string	"message"
.LC85:
	.string	"mesg"
.LC86:
	.string	"process"
.LC87:
	.string	"runlevel"
.LC88:
	.string	"short"
.LC89:
	.string	"time"
.LC90:
	.string	"users"
.LC91:
	.string	"writable"
.LC92:
	.string	"help"
.LC93:
	.string	"version"
	.section	.data.rel.ro.local,"aw"
	.align 32
	.type	longopts, @object
	.size	longopts, 576
longopts:
	.quad	.LC77
	.long	0
	.zero	4
	.quad	0
	.long	97
	.zero	4
	.quad	.LC78
	.long	0
	.zero	4
	.quad	0
	.long	98
	.zero	4
	.quad	.LC79
	.long	0
	.zero	4
	.quad	0
	.long	113
	.zero	4
	.quad	.LC80
	.long	0
	.zero	4
	.quad	0
	.long	100
	.zero	4
	.quad	.LC81
	.long	0
	.zero	4
	.quad	0
	.long	72
	.zero	4
	.quad	.LC82
	.long	0
	.zero	4
	.quad	0
	.long	108
	.zero	4
	.quad	.LC83
	.long	0
	.zero	4
	.quad	0
	.long	128
	.zero	4
	.quad	.LC84
	.long	0
	.zero	4
	.quad	0
	.long	84
	.zero	4
	.quad	.LC85
	.long	0
	.zero	4
	.quad	0
	.long	84
	.zero	4
	.quad	.LC86
	.long	0
	.zero	4
	.quad	0
	.long	112
	.zero	4
	.quad	.LC87
	.long	0
	.zero	4
	.quad	0
	.long	114
	.zero	4
	.quad	.LC88
	.long	0
	.zero	4
	.quad	0
	.long	115
	.zero	4
	.quad	.LC89
	.long	0
	.zero	4
	.quad	0
	.long	116
	.zero	4
	.quad	.LC90
	.long	0
	.zero	4
	.quad	0
	.long	117
	.zero	4
	.quad	.LC91
	.long	0
	.zero	4
	.quad	0
	.long	84
	.zero	4
	.quad	.LC92
	.long	0
	.zero	4
	.quad	0
	.long	-130
	.zero	4
	.quad	.LC93
	.long	0
	.zero	4
	.quad	0
	.long	-131
	.zero	4
	.quad	0
	.long	0
	.zero	4
	.quad	0
	.long	0
	.zero	4
	.local	time_format_width
	.comm	time_format_width,4,4
	.local	time_format
	.comm	time_format,8,8
	.local	my_line_only
	.comm	my_line_only,1,1
	.local	need_users
	.comm	need_users,1,1
	.local	need_runlevel
	.comm	need_runlevel,1,1
	.local	need_clockchange
	.comm	need_clockchange,1,1
	.local	need_initspawn
	.comm	need_initspawn,1,1
	.local	need_login
	.comm	need_login,1,1
	.local	need_deadprocs
	.comm	need_deadprocs,1,1
	.local	need_boottime
	.comm	need_boottime,1,1
	.local	include_exit
	.comm	include_exit,1,1
	.local	include_mesg
	.comm	include_mesg,1,1
	.local	include_heading
	.comm	include_heading,1,1
	.local	include_idle
	.comm	include_idle,1,1
	.local	short_output
	.comm	short_output,1,1
	.local	short_list
	.comm	short_list,1,1
	.local	do_lookup
	.comm	do_lookup,1,1
	.text
.Letext0:
	.file 7 "/usr/include/x86_64-linux-gnu/bits/getopt_core.h"
	.file 8 "/usr/include/x86_64-linux-gnu/bits/getopt_ext.h"
	.file 9 "/usr/lib/gcc/x86_64-linux-gnu/9/include/stddef.h"
	.file 10 "/usr/include/x86_64-linux-gnu/bits/types.h"
	.file 11 "/usr/include/x86_64-linux-gnu/bits/types/struct_FILE.h"
	.file 12 "/usr/include/x86_64-linux-gnu/bits/types/FILE.h"
	.file 13 "/usr/include/stdio.h"
	.file 14 "/usr/include/x86_64-linux-gnu/bits/sys_errlist.h"
	.file 15 "/usr/include/x86_64-linux-gnu/sys/types.h"
	.file 16 "/usr/include/x86_64-linux-gnu/bits/types/time_t.h"
	.file 17 "/usr/include/x86_64-linux-gnu/bits/types/struct_timespec.h"
	.file 18 "./lib/sys/select.h"
	.file 19 "/usr/include/x86_64-linux-gnu/bits/types/struct_tm.h"
	.file 20 "/usr/include/time.h"
	.file 21 "/usr/include/x86_64-linux-gnu/bits/stat.h"
	.file 22 "/usr/include/signal.h"
	.file 23 "/usr/include/unistd.h"
	.file 24 "/usr/include/errno.h"
	.file 25 "src/version.h"
	.file 26 "./lib/exitfail.h"
	.file 27 "/usr/include/stdint.h"
	.file 28 "./lib/timespec.h"
	.file 29 "./lib/version-etc.h"
	.file 30 "./lib/progname.h"
	.file 31 "./lib/quotearg.h"
	.file 32 "/usr/include/x86_64-linux-gnu/bits/utmpx.h"
	.file 33 "./lib/readutmp.h"
	.file 34 "./lib/error.h"
	.file 35 "./lib/quote.h"
	.file 36 "/usr/include/locale.h"
	.file 37 "/usr/include/libintl.h"
	.file 38 "/usr/include/stdlib.h"
	.file 39 "./lib/hard-locale.h"
	.file 40 "/usr/include/string.h"
	.file 41 "./lib/xalloc.h"
	.file 42 "<built-in>"
	.file 43 "./lib/canon-host.h"
	.file 44 "/usr/include/assert.h"
	.file 45 "./lib/stdio.h"
	.file 46 "./lib/inttostr.h"
	.section	.note.GNU-stack,"",@progbits
	.section	.note.gnu.property,"a"
	.align 8
	.long	 1f - 0f
	.long	 4f - 1f
	.long	 5
0:
	.string	 "GNU"
1:
	.align 8
	.long	 0xc0000002
	.long	 3f - 2f
2:
	.long	 0x3
3:
	.align 8
4:
