	.file	"chcon.c"
	.text
.Ltext0:
	.section	.rodata
	.align 8
.LC0:
	.string	"\nMandatory arguments to long options are mandatory for short options too.\n"
	.text
	.type	emit_mandatory_arg_note, @function
emit_mandatory_arg_note:
.LFB36:
	.file 1 "src/system.h"
	.loc 1 589 1
	.cfi_startproc
	pushq	%rbp
	.cfi_def_cfa_offset 16
	.cfi_offset 6, -16
	movq	%rsp, %rbp
	.cfi_def_cfa_register 6
	pushq	%rbx
	subq	$8, %rsp
	.cfi_offset 3, -24
	.loc 1 590 3
	movq	stdout(%rip), %rbx
	leaq	.LC0(%rip), %rdi
	call	gettext@PLT
	movq	%rbx, %rsi
	movq	%rax, %rdi
	call	fputs_unlocked@PLT
	.loc 1 593 1
	nop
	addq	$8, %rsp
	popq	%rbx
	popq	%rbp
	.cfi_def_cfa 7, 8
	ret
	.cfi_endproc
.LFE36:
	.size	emit_mandatory_arg_note, .-emit_mandatory_arg_note
	.section	.rodata
.LC1:
	.string	"["
.LC2:
	.string	"test invocation"
.LC3:
	.string	"coreutils"
.LC4:
	.string	"Multi-call invocation"
.LC5:
	.string	"sha224sum"
.LC6:
	.string	"sha2 utilities"
.LC7:
	.string	"sha256sum"
.LC8:
	.string	"sha384sum"
.LC9:
	.string	"sha512sum"
.LC10:
	.string	"\n%s online help: <%s>\n"
	.align 8
.LC11:
	.string	"https://www.gnu.org/software/coreutils/"
.LC12:
	.string	"GNU coreutils"
.LC13:
	.string	"en_"
	.align 8
.LC14:
	.string	"Report any translation bugs to <https://translationproject.org/team/>\n"
.LC15:
	.string	"Full documentation <%s%s>\n"
.LC16:
	.string	" invocation"
.LC17:
	.string	""
	.align 8
.LC18:
	.string	"or available locally via: info '(coreutils) %s%s'\n"
	.text
	.type	emit_ancillary_info, @function
emit_ancillary_info:
.LFB40:
	.loc 1 635 1
	.cfi_startproc
	pushq	%rbp
	.cfi_def_cfa_offset 16
	.cfi_offset 6, -16
	movq	%rsp, %rbp
	.cfi_def_cfa_register 6
	pushq	%rbx
	subq	$184, %rsp
	.cfi_offset 3, -24
	movq	%rdi, -184(%rbp)
	.loc 1 635 1
	movq	%fs:40, %rax
	movq	%rax, -24(%rbp)
	xorl	%eax, %eax
	.loc 1 636 67
	leaq	.LC1(%rip), %rax
	movq	%rax, -144(%rbp)
	leaq	.LC2(%rip), %rax
	movq	%rax, -136(%rbp)
	leaq	.LC3(%rip), %rax
	movq	%rax, -128(%rbp)
	leaq	.LC4(%rip), %rax
	movq	%rax, -120(%rbp)
	leaq	.LC5(%rip), %rax
	movq	%rax, -112(%rbp)
	leaq	.LC6(%rip), %rax
	movq	%rax, -104(%rbp)
	leaq	.LC7(%rip), %rax
	movq	%rax, -96(%rbp)
	leaq	.LC6(%rip), %rax
	movq	%rax, -88(%rbp)
	leaq	.LC8(%rip), %rax
	movq	%rax, -80(%rbp)
	leaq	.LC6(%rip), %rax
	movq	%rax, -72(%rbp)
	leaq	.LC9(%rip), %rax
	movq	%rax, -64(%rbp)
	leaq	.LC6(%rip), %rax
	movq	%rax, -56(%rbp)
	movq	$0, -48(%rbp)
	movq	$0, -40(%rbp)
	.loc 1 646 15
	movq	-184(%rbp), %rax
	movq	%rax, -168(%rbp)
	.loc 1 647 25
	leaq	-144(%rbp), %rax
	movq	%rax, -160(%rbp)
	.loc 1 649 9
	jmp	.L3
.L5:
	.loc 1 650 13
	addq	$16, -160(%rbp)
.L3:
	.loc 1 649 18
	movq	-160(%rbp), %rax
	movq	(%rax), %rax
	.loc 1 649 9
	testq	%rax, %rax
	je	.L4
	.loc 1 649 33 discriminator 1
	movq	-160(%rbp), %rax
	movq	(%rax), %rdx
	movq	-184(%rbp), %rax
	movq	%rdx, %rsi
	movq	%rax, %rdi
	call	strcmp@PLT
	.loc 1 649 28 discriminator 1
	testl	%eax, %eax
	jne	.L5
.L4:
	.loc 1 652 15
	movq	-160(%rbp), %rax
	movq	8(%rax), %rax
	.loc 1 652 6
	testq	%rax, %rax
	je	.L6
	.loc 1 653 10
	movq	-160(%rbp), %rax
	movq	8(%rax), %rax
	movq	%rax, -168(%rbp)
.L6:
	.loc 1 655 11
	leaq	.LC10(%rip), %rdi
	call	gettext@PLT
	.loc 1 655 3
	leaq	.LC11(%rip), %rdx
	leaq	.LC12(%rip), %rsi
	movq	%rax, %rdi
	movl	$0, %eax
	call	printf@PLT
	.loc 1 659 29
	movl	$0, %esi
	movl	$5, %edi
	call	setlocale@PLT
	movq	%rax, -152(%rbp)
	.loc 1 660 6
	cmpq	$0, -152(%rbp)
	je	.L7
	.loc 1 660 22 discriminator 1
	movq	-152(%rbp), %rax
	movl	$3, %edx
	leaq	.LC13(%rip), %rsi
	movq	%rax, %rdi
	call	strncmp@PLT
	.loc 1 660 19 discriminator 1
	testl	%eax, %eax
	je	.L7
	.loc 1 666 7
	movq	stdout(%rip), %rbx
	leaq	.LC14(%rip), %rdi
	call	gettext@PLT
	movq	%rbx, %rsi
	movq	%rax, %rdi
	call	fputs_unlocked@PLT
.L7:
	.loc 1 669 11
	leaq	.LC15(%rip), %rdi
	call	gettext@PLT
	movq	%rax, %rcx
	.loc 1 669 3
	movq	-184(%rbp), %rax
	movq	%rax, %rdx
	leaq	.LC11(%rip), %rsi
	movq	%rcx, %rdi
	movl	$0, %eax
	call	printf@PLT
	.loc 1 671 3
	movq	-168(%rbp), %rax
	cmpq	-184(%rbp), %rax
	jne	.L8
	.loc 1 671 3 is_stmt 0 discriminator 1
	leaq	.LC16(%rip), %rbx
	jmp	.L9
.L8:
	.loc 1 671 3 discriminator 2
	leaq	.LC17(%rip), %rbx
.L9:
	.loc 1 671 11 is_stmt 1 discriminator 4
	leaq	.LC18(%rip), %rdi
	call	gettext@PLT
	movq	%rax, %rcx
	.loc 1 671 3 discriminator 4
	movq	-168(%rbp), %rax
	movq	%rbx, %rdx
	movq	%rax, %rsi
	movq	%rcx, %rdi
	movl	$0, %eax
	call	printf@PLT
	.loc 1 673 1 discriminator 4
	nop
	movq	-24(%rbp), %rax
	xorq	%fs:40, %rax
	je	.L10
	.loc 1 673 1 is_stmt 0
	call	__stack_chk_fail@PLT
.L10:
	addq	$184, %rsp
	popq	%rbx
	popq	%rbp
	.cfi_def_cfa 7, 8
	ret
	.cfi_endproc
.LFE40:
	.size	emit_ancillary_info, .-emit_ancillary_info
	.local	affect_symlink_referent
	.comm	affect_symlink_referent,1,1
	.local	recurse
	.comm	recurse,1,1
	.local	verbose
	.comm	verbose,1,1
	.local	root_dev_ino
	.comm	root_dev_ino,8,8
	.local	specified_context
	.comm	specified_context,8,8
	.local	specified_user
	.comm	specified_user,8,8
	.local	specified_role
	.comm	specified_role,8,8
	.local	specified_range
	.comm	specified_range,8,8
	.local	specified_type
	.comm	specified_type,8,8
	.section	.rodata
.LC19:
	.string	"recursive"
.LC20:
	.string	"dereference"
.LC21:
	.string	"no-dereference"
.LC22:
	.string	"no-preserve-root"
.LC23:
	.string	"preserve-root"
.LC24:
	.string	"reference"
.LC25:
	.string	"user"
.LC26:
	.string	"role"
.LC27:
	.string	"type"
.LC28:
	.string	"range"
.LC29:
	.string	"verbose"
.LC30:
	.string	"help"
.LC31:
	.string	"version"
	.section	.data.rel.ro.local,"aw"
	.align 32
	.type	long_options, @object
	.size	long_options, 448
long_options:
	.quad	.LC19
	.long	0
	.zero	4
	.quad	0
	.long	82
	.zero	4
	.quad	.LC20
	.long	0
	.zero	4
	.quad	0
	.long	128
	.zero	4
	.quad	.LC21
	.long	0
	.zero	4
	.quad	0
	.long	104
	.zero	4
	.quad	.LC22
	.long	0
	.zero	4
	.quad	0
	.long	129
	.zero	4
	.quad	.LC23
	.long	0
	.zero	4
	.quad	0
	.long	130
	.zero	4
	.quad	.LC24
	.long	1
	.zero	4
	.quad	0
	.long	131
	.zero	4
	.quad	.LC25
	.long	1
	.zero	4
	.quad	0
	.long	117
	.zero	4
	.quad	.LC26
	.long	1
	.zero	4
	.quad	0
	.long	114
	.zero	4
	.quad	.LC27
	.long	1
	.zero	4
	.quad	0
	.long	116
	.zero	4
	.quad	.LC28
	.long	1
	.zero	4
	.quad	0
	.long	108
	.zero	4
	.quad	.LC29
	.long	0
	.zero	4
	.quad	0
	.long	118
	.zero	4
	.quad	.LC30
	.long	0
	.zero	4
	.quad	0
	.long	-130
	.zero	4
	.quad	.LC31
	.long	0
	.zero	4
	.quad	0
	.long	-131
	.zero	4
	.quad	0
	.long	0
	.zero	4
	.quad	0
	.long	0
	.zero	4
	.section	.rodata
	.align 8
.LC32:
	.string	"failed to create security context: %s"
	.align 8
.LC33:
	.string	"failed to set %s security context component to %s"
	.text
	.type	compute_context_from_mask, @function
compute_context_from_mask:
.LFB46:
	.file 2 "src/chcon.c"
	.loc 2 96 1 is_stmt 1
	.cfi_startproc
	endbr64
	pushq	%rbp
	.cfi_def_cfa_offset 16
	.cfi_offset 6, -16
	movq	%rsp, %rbp
	.cfi_def_cfa_register 6
	pushq	%r12
	pushq	%rbx
	subq	$32, %rsp
	.cfi_offset 12, -24
	.cfi_offset 3, -32
	movq	%rdi, -40(%rbp)
	movq	%rsi, -48(%rbp)
	.loc 2 97 8
	movb	$1, -29(%rbp)
	.loc 2 98 27
	movq	-40(%rbp), %rax
	movq	%rax, %rdi
	call	context_new@PLT
	movq	%rax, -24(%rbp)
	.loc 2 99 6
	cmpq	$0, -24(%rbp)
	jne	.L12
	.loc 2 101 7
	movq	-40(%rbp), %rax
	movq	%rax, %rdi
	call	quote@PLT
	movq	%rax, %r12
	.loc 2 101 24
	leaq	.LC32(%rip), %rdi
	call	gettext@PLT
	movq	%rax, %rbx
	.loc 2 101 17
	call	__errno_location@PLT
	.loc 2 101 7
	movl	(%rax), %eax
	movq	%r12, %rcx
	movq	%rbx, %rdx
	movl	%eax, %esi
	movl	$0, %edi
	movl	$0, %eax
	call	error@PLT
	.loc 2 103 14
	movl	$1, %eax
	jmp	.L13
.L12:
	.loc 2 120 3
	movq	specified_user(%rip), %rax
	testq	%rax, %rax
	je	.L14
	.loc 2 120 3 is_stmt 0 discriminator 1
	movq	specified_user(%rip), %rdx
	movq	-24(%rbp), %rax
	movq	%rdx, %rsi
	movq	%rax, %rdi
	call	context_user_set@PLT
	testl	%eax, %eax
	je	.L14
	.loc 2 120 3 discriminator 2
	movq	specified_user(%rip), %rax
	movq	%rax, %rdi
	call	quote@PLT
	movq	%rax, %r12
	leaq	.LC33(%rip), %rdi
	call	gettext@PLT
	movq	%rax, %rbx
	call	__errno_location@PLT
	movl	(%rax), %eax
	movq	%r12, %r8
	leaq	.LC25(%rip), %rcx
	movq	%rbx, %rdx
	movl	%eax, %esi
	movl	$0, %edi
	movl	$0, %eax
	call	error@PLT
	movb	$0, -29(%rbp)
.L14:
	.loc 2 121 3 is_stmt 1
	movq	specified_range(%rip), %rax
	testq	%rax, %rax
	je	.L15
	.loc 2 121 3 is_stmt 0 discriminator 1
	movq	specified_range(%rip), %rdx
	movq	-24(%rbp), %rax
	movq	%rdx, %rsi
	movq	%rax, %rdi
	call	context_range_set@PLT
	testl	%eax, %eax
	je	.L15
	.loc 2 121 3 discriminator 2
	movq	specified_range(%rip), %rax
	movq	%rax, %rdi
	call	quote@PLT
	movq	%rax, %r12
	leaq	.LC33(%rip), %rdi
	call	gettext@PLT
	movq	%rax, %rbx
	call	__errno_location@PLT
	movl	(%rax), %eax
	movq	%r12, %r8
	leaq	.LC28(%rip), %rcx
	movq	%rbx, %rdx
	movl	%eax, %esi
	movl	$0, %edi
	movl	$0, %eax
	call	error@PLT
	movb	$0, -29(%rbp)
.L15:
	.loc 2 122 3 is_stmt 1
	movq	specified_role(%rip), %rax
	testq	%rax, %rax
	je	.L16
	.loc 2 122 3 is_stmt 0 discriminator 1
	movq	specified_role(%rip), %rdx
	movq	-24(%rbp), %rax
	movq	%rdx, %rsi
	movq	%rax, %rdi
	call	context_role_set@PLT
	testl	%eax, %eax
	je	.L16
	.loc 2 122 3 discriminator 2
	movq	specified_role(%rip), %rax
	movq	%rax, %rdi
	call	quote@PLT
	movq	%rax, %r12
	leaq	.LC33(%rip), %rdi
	call	gettext@PLT
	movq	%rax, %rbx
	call	__errno_location@PLT
	movl	(%rax), %eax
	movq	%r12, %r8
	leaq	.LC26(%rip), %rcx
	movq	%rbx, %rdx
	movl	%eax, %esi
	movl	$0, %edi
	movl	$0, %eax
	call	error@PLT
	movb	$0, -29(%rbp)
.L16:
	.loc 2 123 3 is_stmt 1
	movq	specified_type(%rip), %rax
	testq	%rax, %rax
	je	.L17
	.loc 2 123 3 is_stmt 0 discriminator 1
	movq	specified_type(%rip), %rdx
	movq	-24(%rbp), %rax
	movq	%rdx, %rsi
	movq	%rax, %rdi
	call	context_type_set@PLT
	testl	%eax, %eax
	je	.L17
	.loc 2 123 3 discriminator 2
	movq	specified_type(%rip), %rax
	movq	%rax, %rdi
	call	quote@PLT
	movq	%rax, %r12
	leaq	.LC33(%rip), %rdi
	call	gettext@PLT
	movq	%rax, %rbx
	call	__errno_location@PLT
	movl	(%rax), %eax
	movq	%r12, %r8
	leaq	.LC27(%rip), %rcx
	movq	%rbx, %rdx
	movl	%eax, %esi
	movl	$0, %edi
	movl	$0, %eax
	call	error@PLT
	movb	$0, -29(%rbp)
.L17:
	.loc 2 125 7 is_stmt 1
	movzbl	-29(%rbp), %eax
	xorl	$1, %eax
	.loc 2 125 6
	testb	%al, %al
	je	.L18
.LBB2:
	.loc 2 127 25
	call	__errno_location@PLT
	.loc 2 127 11
	movl	(%rax), %eax
	movl	%eax, -28(%rbp)
	.loc 2 128 7
	movq	-24(%rbp), %rax
	movq	%rax, %rdi
	call	context_free@PLT
	.loc 2 129 7
	call	__errno_location@PLT
	.loc 2 129 13
	movl	-28(%rbp), %edx
	movl	%edx, (%rax)
	.loc 2 130 14
	movl	$1, %eax
	jmp	.L13
.L18:
.LBE2:
	.loc 2 133 8
	movq	-48(%rbp), %rax
	movq	-24(%rbp), %rdx
	movq	%rdx, (%rax)
	.loc 2 134 10
	movl	$0, %eax
.L13:
	.loc 2 135 1
	addq	$32, %rsp
	popq	%rbx
	popq	%r12
	popq	%rbp
	.cfi_def_cfa 7, 8
	ret
	.cfi_endproc
.LFE46:
	.size	compute_context_from_mask, .-compute_context_from_mask
	.section	.rodata
	.align 8
.LC34:
	.string	"failed to get security context of %s"
	.align 8
.LC35:
	.string	"can't apply partial context to unlabeled file %s"
	.align 8
.LC36:
	.string	"failed to change context of %s to %s"
	.text
	.type	change_file_context, @function
change_file_context:
.LFB47:
	.loc 2 143 1
	.cfi_startproc
	endbr64
	pushq	%rbp
	.cfi_def_cfa_offset 16
	.cfi_offset 6, -16
	movq	%rsp, %rbp
	.cfi_def_cfa_register 6
	pushq	%r13
	pushq	%r12
	pushq	%rbx
	subq	$72, %rsp
	.cfi_offset 13, -24
	.cfi_offset 12, -32
	.cfi_offset 3, -40
	movl	%edi, -84(%rbp)
	movq	%rsi, -96(%rbp)
	.loc 2 143 1
	movq	%fs:40, %rax
	movq	%rax, -40(%rbp)
	xorl	%eax, %eax
	.loc 2 144 9
	movq	$0, -64(%rbp)
	.loc 2 145 13
	movq	$0, -56(%rbp)
	.loc 2 147 7
	movl	$0, -76(%rbp)
	.loc 2 149 25
	movq	specified_context(%rip), %rax
	.loc 2 149 6
	testq	%rax, %rax
	jne	.L20
.LBB3:
	.loc 2 152 21
	movzbl	affect_symlink_referent(%rip), %eax
	.loc 2 153 21
	testb	%al, %al
	je	.L21
	.loc 2 152 23
	leaq	-64(%rbp), %rdx
	movq	-96(%rbp), %rcx
	movl	-84(%rbp), %eax
	movq	%rcx, %rsi
	movl	%eax, %edi
	call	getfileconat@PLT
	jmp	.L22
.L21:
	.loc 2 153 23 discriminator 1
	leaq	-64(%rbp), %rdx
	movq	-96(%rbp), %rcx
	movl	-84(%rbp), %eax
	movq	%rcx, %rsi
	movl	%eax, %edi
	call	lgetfileconat@PLT
.L22:
	.loc 2 151 11
	movl	%eax, -72(%rbp)
	.loc 2 155 10
	cmpl	$0, -72(%rbp)
	jns	.L23
	.loc 2 155 25 discriminator 1
	call	__errno_location@PLT
	movl	(%rax), %eax
	.loc 2 155 22 discriminator 1
	cmpl	$61, %eax
	je	.L23
	.loc 2 157 11
	movq	-96(%rbp), %rax
	movq	%rax, %rsi
	movl	$4, %edi
	call	quotearg_style@PLT
	movq	%rax, %r12
	.loc 2 157 28
	leaq	.LC34(%rip), %rdi
	call	gettext@PLT
	movq	%rax, %rbx
	.loc 2 157 21
	call	__errno_location@PLT
	.loc 2 157 11
	movl	(%rax), %eax
	movq	%r12, %rcx
	movq	%rbx, %rdx
	movl	%eax, %esi
	movl	$0, %edi
	movl	$0, %eax
	call	error@PLT
	.loc 2 159 18
	movl	$1, %eax
	jmp	.L33
.L23:
	.loc 2 165 24
	movq	-64(%rbp), %rax
	.loc 2 165 10
	testq	%rax, %rax
	jne	.L25
	.loc 2 167 11
	movq	-96(%rbp), %rax
	movq	%rax, %rsi
	movl	$4, %edi
	call	quotearg_style@PLT
	movq	%rax, %rbx
	.loc 2 167 24
	leaq	.LC35(%rip), %rdi
	call	gettext@PLT
	.loc 2 167 11
	movq	%rbx, %rcx
	movq	%rax, %rdx
	movl	$0, %esi
	movl	$0, %edi
	movl	$0, %eax
	call	error@PLT
	.loc 2 169 18
	movl	$1, %eax
	jmp	.L33
.L25:
	.loc 2 172 11
	movq	-64(%rbp), %rax
	leaq	-56(%rbp), %rdx
	movq	%rdx, %rsi
	movq	%rax, %rdi
	call	compute_context_from_mask
	.loc 2 172 10
	testl	%eax, %eax
	je	.L26
	.loc 2 173 16
	movl	$1, %eax
	jmp	.L33
.L26:
	.loc 2 175 24
	movq	-56(%rbp), %rax
	movq	%rax, %rdi
	call	context_str@PLT
	movq	%rax, -48(%rbp)
.LBE3:
	jmp	.L27
.L20:
	.loc 2 179 22
	movq	specified_context(%rip), %rax
	movq	%rax, -48(%rbp)
.L27:
	.loc 2 182 20
	movq	-64(%rbp), %rax
	.loc 2 182 6
	testq	%rax, %rax
	je	.L28
	.loc 2 182 33 discriminator 1
	movq	-64(%rbp), %rdx
	movq	-48(%rbp), %rax
	movq	%rdx, %rsi
	movq	%rax, %rdi
	call	strcmp@PLT
	.loc 2 182 28 discriminator 1
	testl	%eax, %eax
	je	.L29
.L28:
.LBB4:
	.loc 2 185 19
	movzbl	affect_symlink_referent(%rip), %eax
	.loc 2 186 19
	testb	%al, %al
	je	.L30
	.loc 2 185 22
	movq	-48(%rbp), %rdx
	movq	-96(%rbp), %rcx
	movl	-84(%rbp), %eax
	movq	%rcx, %rsi
	movl	%eax, %edi
	call	setfileconat@PLT
	jmp	.L31
.L30:
	.loc 2 186 21 discriminator 1
	movq	-48(%rbp), %rdx
	movq	-96(%rbp), %rcx
	movl	-84(%rbp), %eax
	movq	%rcx, %rsi
	movl	%eax, %edi
	call	lsetfileconat@PLT
.L31:
	.loc 2 184 11
	movl	%eax, -68(%rbp)
	.loc 2 188 10
	cmpl	$0, -68(%rbp)
	je	.L29
	.loc 2 190 18
	movl	$1, -76(%rbp)
	.loc 2 191 11
	movq	-48(%rbp), %rax
	movq	%rax, %rsi
	movl	$1, %edi
	call	quote_n@PLT
	movq	%rax, %r13
	movq	-96(%rbp), %rax
	movq	%rax, %rdx
	movl	$4, %esi
	movl	$0, %edi
	call	quotearg_n_style@PLT
	movq	%rax, %r12
	.loc 2 191 28
	leaq	.LC36(%rip), %rdi
	call	gettext@PLT
	movq	%rax, %rbx
	.loc 2 191 21
	call	__errno_location@PLT
	.loc 2 191 11
	movl	(%rax), %eax
	movq	%r13, %r8
	movq	%r12, %rcx
	movq	%rbx, %rdx
	movl	%eax, %esi
	movl	$0, %edi
	movl	$0, %eax
	call	error@PLT
.L29:
.LBE4:
	.loc 2 196 25
	movq	specified_context(%rip), %rax
	.loc 2 196 6
	testq	%rax, %rax
	jne	.L32
	.loc 2 198 7
	movq	-56(%rbp), %rax
	movq	%rax, %rdi
	call	context_free@PLT
	.loc 2 199 7
	movq	-64(%rbp), %rax
	movq	%rax, %rdi
	call	freecon@PLT
.L32:
	.loc 2 202 10
	movl	-76(%rbp), %eax
.L33:
	.loc 2 203 1 discriminator 1
	movq	-40(%rbp), %rbx
	xorq	%fs:40, %rbx
	je	.L34
	.loc 2 203 1 is_stmt 0
	call	__stack_chk_fail@PLT
.L34:
	addq	$72, %rsp
	popq	%rbx
	popq	%r12
	popq	%r13
	popq	%rbp
	.cfi_def_cfa 7, 8
	ret
	.cfi_endproc
.LFE47:
	.size	change_file_context, .-change_file_context
	.section	.rodata
.LC37:
	.string	"/"
	.align 8
.LC38:
	.string	"it is dangerous to operate recursively on %s"
	.align 8
.LC39:
	.string	"it is dangerous to operate recursively on %s (same as %s)"
	.align 8
.LC40:
	.string	"use --no-preserve-root to override this failsafe"
.LC41:
	.string	"cannot access %s"
.LC42:
	.string	"%s"
.LC43:
	.string	"cannot read directory %s"
	.align 8
.LC44:
	.string	"WARNING: Circular directory structure.\nThis almost certainly means that you have a corrupted file system.\nNOTIFY YOUR SYSTEM MANAGER.\nThe following directory is part of the cycle:\n  %s\n"
	.align 8
.LC45:
	.string	"changing security context of %s\n"
	.text
	.type	process_file, @function
process_file:
.LFB48:
	.loc 2 211 1 is_stmt 1
	.cfi_startproc
	endbr64
	pushq	%rbp
	.cfi_def_cfa_offset 16
	.cfi_offset 6, -16
	movq	%rsp, %rbp
	.cfi_def_cfa_register 6
	pushq	%r12
	pushq	%rbx
	subq	$64, %rsp
	.cfi_offset 12, -24
	.cfi_offset 3, -32
	movq	%rdi, -72(%rbp)
	movq	%rsi, -80(%rbp)
	.loc 2 212 15
	movq	-80(%rbp), %rax
	movq	56(%rax), %rax
	movq	%rax, -48(%rbp)
	.loc 2 213 15
	movq	-80(%rbp), %rax
	movq	48(%rax), %rax
	movq	%rax, -40(%rbp)
	.loc 2 214 22
	movq	-80(%rbp), %rax
	addq	$112, %rax
	movq	%rax, -32(%rbp)
	.loc 2 215 8
	movb	$1, -49(%rbp)
	.loc 2 217 14
	movq	-80(%rbp), %rax
	movzwl	104(%rax), %eax
	movzwl	%ax, %eax
	cmpl	$10, %eax
	ja	.L59
	movl	%eax, %eax
	leaq	0(,%rax,4), %rdx
	leaq	.L38(%rip), %rax
	movl	(%rdx,%rax), %eax
	cltq
	leaq	.L38(%rip), %rdx
	addq	%rdx, %rax
	notrack jmp	*%rax
	.section	.rodata
	.align 4
	.align 4
.L38:
	.long	.L59-.L38
	.long	.L43-.L38
	.long	.L42-.L38
	.long	.L59-.L38
	.long	.L41-.L38
	.long	.L59-.L38
	.long	.L40-.L38
	.long	.L39-.L38
	.long	.L59-.L38
	.long	.L59-.L38
	.long	.L37-.L38
	.text
.L43:
	.loc 2 220 11
	movzbl	recurse(%rip), %eax
	.loc 2 220 10
	testb	%al, %al
	je	.L60
	.loc 2 222 15
	movq	root_dev_ino(%rip), %rax
	.loc 2 222 14
	testq	%rax, %rax
	je	.L45
	.loc 2 222 15 discriminator 1
	movq	-80(%rbp), %rax
	movq	120(%rax), %rdx
	movq	root_dev_ino(%rip), %rax
	movq	(%rax), %rax
	cmpq	%rax, %rdx
	jne	.L45
	.loc 2 222 15 is_stmt 0 discriminator 2
	movq	-80(%rbp), %rax
	movq	112(%rax), %rdx
	movq	root_dev_ino(%rip), %rax
	movq	8(%rax), %rax
	cmpq	%rax, %rdx
	jne	.L45
	.loc 2 226 15 is_stmt 1
	movq	-48(%rbp), %rax
	leaq	.LC37(%rip), %rsi
	movq	%rax, %rdi
	call	strcmp@PLT
	testl	%eax, %eax
	jne	.L46
	.loc 2 226 15 is_stmt 0 discriminator 1
	movq	-48(%rbp), %rax
	movq	%rax, %rsi
	movl	$4, %edi
	call	quotearg_style@PLT
	movq	%rax, %rbx
	leaq	.LC38(%rip), %rdi
	call	gettext@PLT
	movq	%rbx, %rcx
	movq	%rax, %rdx
	movl	$0, %esi
	movl	$0, %edi
	movl	$0, %eax
	call	error@PLT
	jmp	.L47
.L46:
	.loc 2 226 15 discriminator 2
	leaq	.LC37(%rip), %rdx
	movl	$4, %esi
	movl	$1, %edi
	call	quotearg_n_style@PLT
	movq	%rax, %r12
	movq	-48(%rbp), %rax
	movq	%rax, %rdx
	movl	$4, %esi
	movl	$0, %edi
	call	quotearg_n_style@PLT
	movq	%rax, %rbx
	leaq	.LC39(%rip), %rdi
	call	gettext@PLT
	movq	%r12, %r8
	movq	%rbx, %rcx
	movq	%rax, %rdx
	movl	$0, %esi
	movl	$0, %edi
	movl	$0, %eax
	call	error@PLT
.L47:
	.loc 2 226 15 discriminator 4
	leaq	.LC40(%rip), %rdi
	call	gettext@PLT
	movq	%rax, %rdx
	movl	$0, %esi
	movl	$0, %edi
	movl	$0, %eax
	call	error@PLT
	.loc 2 228 15 is_stmt 1 discriminator 4
	movq	-80(%rbp), %rcx
	movq	-72(%rbp), %rax
	movl	$4, %edx
	movq	%rcx, %rsi
	movq	%rax, %rdi
	call	rpl_fts_set@PLT
.LBB5:
	.loc 2 230 15 discriminator 4
	movq	-72(%rbp), %rax
	movq	%rax, %rdi
	call	rpl_fts_read@PLT
	movq	%rax, -24(%rbp)
.LBE5:
	.loc 2 231 22 discriminator 4
	movl	$0, %eax
	jmp	.L48
.L45:
	.loc 2 233 18
	movl	$1, %eax
	jmp	.L48
.L40:
	.loc 2 238 11
	movzbl	recurse(%rip), %eax
	xorl	$1, %eax
	.loc 2 238 10
	testb	%al, %al
	je	.L61
	.loc 2 239 16
	movl	$1, %eax
	jmp	.L48
.L37:
	.loc 2 250 14
	movq	-80(%rbp), %rax
	movq	88(%rax), %rax
	.loc 2 250 10
	testq	%rax, %rax
	jne	.L51
	.loc 2 250 37 discriminator 1
	movq	-80(%rbp), %rax
	movq	32(%rax), %rax
	.loc 2 250 31 discriminator 1
	testq	%rax, %rax
	jne	.L51
	.loc 2 252 27
	movq	-80(%rbp), %rax
	movq	$1, 32(%rax)
	.loc 2 253 11
	movq	-80(%rbp), %rcx
	movq	-72(%rbp), %rax
	movl	$1, %edx
	movq	%rcx, %rsi
	movq	%rax, %rdi
	call	rpl_fts_set@PLT
	.loc 2 254 18
	movl	$1, %eax
	jmp	.L48
.L51:
	.loc 2 256 7
	movq	-48(%rbp), %rax
	movq	%rax, %rsi
	movl	$4, %edi
	call	quotearg_style@PLT
	movq	%rax, %rbx
	.loc 2 256 33
	leaq	.LC41(%rip), %rdi
	call	gettext@PLT
	movq	%rax, %rdx
	.loc 2 256 7
	movq	-80(%rbp), %rax
	movl	64(%rax), %eax
	movq	%rbx, %rcx
	movl	%eax, %esi
	movl	$0, %edi
	movl	$0, %eax
	call	error@PLT
	.loc 2 258 10
	movb	$0, -49(%rbp)
	.loc 2 259 7
	jmp	.L49
.L39:
	.loc 2 262 7
	movq	-48(%rbp), %rax
	movq	%rax, %rdx
	movl	$3, %esi
	movl	$0, %edi
	call	quotearg_n_style_colon@PLT
	movq	%rax, %rdx
	movq	-80(%rbp), %rax
	movl	64(%rax), %eax
	movq	%rdx, %rcx
	leaq	.LC42(%rip), %rdx
	movl	%eax, %esi
	movl	$0, %edi
	movl	$0, %eax
	call	error@PLT
	.loc 2 263 10
	movb	$0, -49(%rbp)
	.loc 2 264 7
	jmp	.L49
.L41:
	.loc 2 267 7
	movq	-48(%rbp), %rax
	movq	%rax, %rsi
	movl	$4, %edi
	call	quotearg_style@PLT
	movq	%rax, %rbx
	.loc 2 267 33
	leaq	.LC43(%rip), %rdi
	call	gettext@PLT
	movq	%rax, %rdx
	.loc 2 267 7
	movq	-80(%rbp), %rax
	movl	64(%rax), %eax
	movq	%rbx, %rcx
	movl	%eax, %esi
	movl	$0, %edi
	movl	$0, %eax
	call	error@PLT
	.loc 2 269 10
	movb	$0, -49(%rbp)
	.loc 2 270 7
	jmp	.L49
.L42:
	.loc 2 273 11
	movq	-80(%rbp), %rdx
	movq	-72(%rbp), %rax
	movq	%rdx, %rsi
	movq	%rax, %rdi
	call	cycle_warning_required@PLT
	.loc 2 273 10
	testb	%al, %al
	je	.L62
	.loc 2 275 11
	movq	-48(%rbp), %rax
	movq	%rax, %rdx
	movl	$3, %esi
	movl	$0, %edi
	call	quotearg_n_style_colon@PLT
	movq	%rax, %rbx
	leaq	.LC44(%rip), %rdi
	call	gettext@PLT
	movq	%rbx, %rcx
	movq	%rax, %rdx
	movl	$0, %esi
	movl	$0, %edi
	movl	$0, %eax
	call	error@PLT
	.loc 2 276 18
	movl	$0, %eax
	jmp	.L48
.L59:
	.loc 2 281 7
	nop
	jmp	.L49
.L60:
	.loc 2 235 7
	nop
	jmp	.L49
.L61:
	.loc 2 240 7
	nop
	jmp	.L49
.L62:
	.loc 2 278 7
	nop
.L49:
	.loc 2 284 10
	movq	-80(%rbp), %rax
	movzwl	104(%rax), %eax
	.loc 2 284 6
	cmpw	$6, %ax
	jne	.L53
	.loc 2 285 7
	cmpb	$0, -49(%rbp)
	je	.L53
	.loc 2 285 16 discriminator 1
	movq	root_dev_ino(%rip), %rax
	.loc 2 285 13 discriminator 1
	testq	%rax, %rax
	je	.L53
	.loc 2 285 16 discriminator 2
	movq	-32(%rbp), %rax
	movq	8(%rax), %rdx
	movq	root_dev_ino(%rip), %rax
	movq	(%rax), %rax
	cmpq	%rax, %rdx
	jne	.L53
	.loc 2 285 16 is_stmt 0 discriminator 3
	movq	-32(%rbp), %rax
	movq	(%rax), %rdx
	movq	root_dev_ino(%rip), %rax
	movq	8(%rax), %rax
	cmpq	%rax, %rdx
	jne	.L53
	.loc 2 287 7 is_stmt 1
	movq	-48(%rbp), %rax
	leaq	.LC37(%rip), %rsi
	movq	%rax, %rdi
	call	strcmp@PLT
	testl	%eax, %eax
	jne	.L54
	.loc 2 287 7 is_stmt 0 discriminator 1
	movq	-48(%rbp), %rax
	movq	%rax, %rsi
	movl	$4, %edi
	call	quotearg_style@PLT
	movq	%rax, %rbx
	leaq	.LC38(%rip), %rdi
	call	gettext@PLT
	movq	%rbx, %rcx
	movq	%rax, %rdx
	movl	$0, %esi
	movl	$0, %edi
	movl	$0, %eax
	call	error@PLT
	jmp	.L55
.L54:
	.loc 2 287 7 discriminator 2
	leaq	.LC37(%rip), %rdx
	movl	$4, %esi
	movl	$1, %edi
	call	quotearg_n_style@PLT
	movq	%rax, %r12
	movq	-48(%rbp), %rax
	movq	%rax, %rdx
	movl	$4, %esi
	movl	$0, %edi
	call	quotearg_n_style@PLT
	movq	%rax, %rbx
	leaq	.LC39(%rip), %rdi
	call	gettext@PLT
	movq	%r12, %r8
	movq	%rbx, %rcx
	movq	%rax, %rdx
	movl	$0, %esi
	movl	$0, %edi
	movl	$0, %eax
	call	error@PLT
.L55:
	.loc 2 287 7 discriminator 4
	leaq	.LC40(%rip), %rdi
	call	gettext@PLT
	movq	%rax, %rdx
	movl	$0, %esi
	movl	$0, %edi
	movl	$0, %eax
	call	error@PLT
	.loc 2 288 10 is_stmt 1 discriminator 4
	movb	$0, -49(%rbp)
.L53:
	.loc 2 291 6
	cmpb	$0, -49(%rbp)
	je	.L56
	.loc 2 293 11
	movzbl	verbose(%rip), %eax
	.loc 2 293 10
	testb	%al, %al
	je	.L57
	.loc 2 294 9
	movq	-48(%rbp), %rax
	movq	%rax, %rsi
	movl	$4, %edi
	call	quotearg_style@PLT
	movq	%rax, %rbx
	.loc 2 294 17
	leaq	.LC45(%rip), %rdi
	call	gettext@PLT
	.loc 2 294 9
	movq	%rbx, %rsi
	movq	%rax, %rdi
	movl	$0, %eax
	call	printf@PLT
.L57:
	.loc 2 297 11
	movq	-72(%rbp), %rax
	movl	44(%rax), %eax
	movq	-40(%rbp), %rdx
	movq	%rdx, %rsi
	movl	%eax, %edi
	call	change_file_context
	.loc 2 297 10
	testl	%eax, %eax
	je	.L56
	.loc 2 298 12
	movb	$0, -49(%rbp)
.L56:
	.loc 2 301 8
	movzbl	recurse(%rip), %eax
	xorl	$1, %eax
	.loc 2 301 6
	testb	%al, %al
	je	.L58
	.loc 2 302 5
	movq	-80(%rbp), %rcx
	movq	-72(%rbp), %rax
	movl	$4, %edx
	movq	%rcx, %rsi
	movq	%rax, %rdi
	call	rpl_fts_set@PLT
.L58:
	.loc 2 304 10
	movzbl	-49(%rbp), %eax
.L48:
	.loc 2 305 1
	addq	$64, %rsp
	popq	%rbx
	popq	%r12
	popq	%rbp
	.cfi_def_cfa 7, 8
	ret
	.cfi_endproc
.LFE48:
	.size	process_file, .-process_file
	.section	.rodata
.LC46:
	.string	"fts_read failed"
.LC47:
	.string	"fts_close failed"
	.text
	.type	process_files, @function
process_files:
.LFB49:
	.loc 2 313 1
	.cfi_startproc
	endbr64
	pushq	%rbp
	.cfi_def_cfa_offset 16
	.cfi_offset 6, -16
	movq	%rsp, %rbp
	.cfi_def_cfa_register 6
	pushq	%rbx
	subq	$56, %rsp
	.cfi_offset 3, -24
	movq	%rdi, -56(%rbp)
	movl	%esi, -60(%rbp)
	.loc 2 314 8
	movb	$1, -33(%rbp)
	.loc 2 316 14
	movl	-60(%rbp), %ecx
	movq	-56(%rbp), %rax
	movl	$0, %edx
	movl	%ecx, %esi
	movq	%rax, %rdi
	call	xfts_open@PLT
	movq	%rax, -32(%rbp)
.L67:
.LBB6:
	.loc 2 322 13
	movq	-32(%rbp), %rax
	movq	%rax, %rdi
	call	rpl_fts_read@PLT
	movq	%rax, -24(%rbp)
	.loc 2 323 10
	cmpq	$0, -24(%rbp)
	jne	.L64
	.loc 2 325 15
	call	__errno_location@PLT
	movl	(%rax), %eax
	.loc 2 325 14
	testl	%eax, %eax
	je	.L70
	.loc 2 328 32
	leaq	.LC46(%rip), %rdi
	call	gettext@PLT
	movq	%rax, %rbx
	.loc 2 328 25
	call	__errno_location@PLT
	.loc 2 328 15
	movl	(%rax), %eax
	movq	%rbx, %rdx
	movl	%eax, %esi
	movl	$0, %edi
	movl	$0, %eax
	call	error@PLT
	.loc 2 329 18
	movb	$0, -33(%rbp)
	.loc 2 331 11
	jmp	.L70
.L64:
	.loc 2 334 13
	movq	-24(%rbp), %rdx
	movq	-32(%rbp), %rax
	movq	%rdx, %rsi
	movq	%rax, %rdi
	call	process_file
	.loc 2 334 10
	movzbl	-33(%rbp), %edx
	.loc 2 334 13
	movzbl	%al, %eax
	.loc 2 334 10
	andl	%edx, %eax
	testl	%eax, %eax
	setne	%al
	movb	%al, -33(%rbp)
.LBE6:
	.loc 2 319 5
	jmp	.L67
.L70:
.LBB7:
	.loc 2 331 11
	nop
.LBE7:
	.loc 2 337 7
	movq	-32(%rbp), %rax
	movq	%rax, %rdi
	call	rpl_fts_close@PLT
	.loc 2 337 6
	testl	%eax, %eax
	je	.L68
	.loc 2 339 24
	leaq	.LC47(%rip), %rdi
	call	gettext@PLT
	movq	%rax, %rbx
	.loc 2 339 17
	call	__errno_location@PLT
	.loc 2 339 7
	movl	(%rax), %eax
	movq	%rbx, %rdx
	movl	%eax, %esi
	movl	$0, %edi
	movl	$0, %eax
	call	error@PLT
	.loc 2 340 10
	movb	$0, -33(%rbp)
.L68:
	.loc 2 343 10
	movzbl	-33(%rbp), %eax
	.loc 2 344 1
	addq	$56, %rsp
	popq	%rbx
	popq	%rbp
	.cfi_def_cfa 7, 8
	ret
	.cfi_endproc
.LFE49:
	.size	process_files, .-process_files
	.section	.rodata
	.align 8
.LC48:
	.string	"Try '%s --help' for more information.\n"
	.align 8
.LC49:
	.string	"Usage: %s [OPTION]... CONTEXT FILE...\n  or:  %s [OPTION]... [-u USER] [-r ROLE] [-l RANGE] [-t TYPE] FILE...\n  or:  %s [OPTION]... --reference=RFILE FILE...\n"
	.align 8
.LC50:
	.string	"Change the SELinux security context of each FILE to CONTEXT.\nWith --reference, change the security context of each FILE to that of RFILE.\n"
	.align 8
.LC51:
	.string	"      --dereference      affect the referent of each symbolic link (this is\n                         the default), rather than the symbolic link itself\n  -h, --no-dereference   affect symbolic links instead of any referenced file\n"
	.align 8
.LC52:
	.ascii	"  -u, --user=USER        s"
	.string	"et user USER in the target security context\n  -r, --role=ROLE        set role ROLE in the target security context\n  -t, --type=TYPE        set type TYPE in the target security context\n  -l, --range=RANGE      set range RANGE in the target security context\n"
	.align 8
.LC53:
	.string	"      --no-preserve-root  do not treat '/' specially (the default)\n      --preserve-root    fail to operate recursively on '/'\n"
	.align 8
.LC54:
	.string	"      --reference=RFILE  use RFILE's security context rather than specifying\n                         a CONTEXT value\n"
	.align 8
.LC55:
	.string	"  -R, --recursive        operate on files and directories recursively\n"
	.align 8
.LC56:
	.string	"  -v, --verbose          output a diagnostic for every file processed\n"
	.align 8
.LC57:
	.ascii	"\nThe following options modify how a hierarchy is traversed "
	.ascii	"when the -R\noption is also specified.  If more than one is "
	.ascii	"specified, only the final\none takes effect.\n\n  -H        "
	.ascii	"             if a command line ar"
	.string	"gument is a symbolic link\n                         to a directory, traverse it\n  -L                     traverse every symbolic link to a directory\n                         encountered\n  -P                     do not traverse any symbolic links (default)\n\n"
	.align 8
.LC58:
	.string	"      --help     display this help and exit\n"
	.align 8
.LC59:
	.string	"      --version  output version information and exit\n"
.LC60:
	.string	"chcon"
	.text
	.globl	usage
	.type	usage, @function
usage:
.LFB50:
	.loc 2 348 1
	.cfi_startproc
	endbr64
	pushq	%rbp
	.cfi_def_cfa_offset 16
	.cfi_offset 6, -16
	movq	%rsp, %rbp
	.cfi_def_cfa_register 6
	pushq	%r13
	pushq	%r12
	pushq	%rbx
	subq	$24, %rsp
	.cfi_offset 13, -24
	.cfi_offset 12, -32
	.cfi_offset 3, -40
	movl	%edi, -36(%rbp)
	.loc 2 349 6
	cmpl	$0, -36(%rbp)
	je	.L72
	.loc 2 350 5
	movq	program_name(%rip), %rbx
	leaq	.LC48(%rip), %rdi
	call	gettext@PLT
	movq	%rax, %rcx
	movq	stderr(%rip), %rax
	movq	%rbx, %rdx
	movq	%rcx, %rsi
	movq	%rax, %rdi
	movl	$0, %eax
	call	fprintf@PLT
	jmp	.L73
.L72:
	.loc 2 353 7
	movq	program_name(%rip), %r13
	movq	program_name(%rip), %r12
	movq	program_name(%rip), %rbx
	.loc 2 353 15
	leaq	.LC49(%rip), %rdi
	call	gettext@PLT
	.loc 2 353 7
	movq	%r13, %rcx
	movq	%r12, %rdx
	movq	%rbx, %rsi
	movq	%rax, %rdi
	movl	$0, %eax
	call	printf@PLT
	.loc 2 359 7
	movq	stdout(%rip), %rbx
	leaq	.LC50(%rip), %rdi
	call	gettext@PLT
	movq	%rbx, %rsi
	movq	%rax, %rdi
	call	fputs_unlocked@PLT
	.loc 2 364 7
	call	emit_mandatory_arg_note
	.loc 2 366 7
	movq	stdout(%rip), %rbx
	leaq	.LC51(%rip), %rdi
	call	gettext@PLT
	movq	%rbx, %rsi
	movq	%rax, %rdi
	call	fputs_unlocked@PLT
	.loc 2 371 7
	movq	stdout(%rip), %rbx
	leaq	.LC52(%rip), %rdi
	call	gettext@PLT
	movq	%rbx, %rsi
	movq	%rax, %rdi
	call	fputs_unlocked@PLT
	.loc 2 377 7
	movq	stdout(%rip), %rbx
	leaq	.LC53(%rip), %rdi
	call	gettext@PLT
	movq	%rbx, %rsi
	movq	%rax, %rdi
	call	fputs_unlocked@PLT
	.loc 2 381 7
	movq	stdout(%rip), %rbx
	leaq	.LC54(%rip), %rdi
	call	gettext@PLT
	movq	%rbx, %rsi
	movq	%rax, %rdi
	call	fputs_unlocked@PLT
	.loc 2 385 7
	movq	stdout(%rip), %rbx
	leaq	.LC55(%rip), %rdi
	call	gettext@PLT
	movq	%rbx, %rsi
	movq	%rax, %rdi
	call	fputs_unlocked@PLT
	.loc 2 388 7
	movq	stdout(%rip), %rbx
	leaq	.LC56(%rip), %rdi
	call	gettext@PLT
	movq	%rbx, %rsi
	movq	%rax, %rdi
	call	fputs_unlocked@PLT
	.loc 2 391 7
	movq	stdout(%rip), %rbx
	leaq	.LC57(%rip), %rdi
	call	gettext@PLT
	movq	%rbx, %rsi
	movq	%rax, %rdi
	call	fputs_unlocked@PLT
	.loc 2 404 7
	movq	stdout(%rip), %rbx
	leaq	.LC58(%rip), %rdi
	call	gettext@PLT
	movq	%rbx, %rsi
	movq	%rax, %rdi
	call	fputs_unlocked@PLT
	.loc 2 405 7
	movq	stdout(%rip), %rbx
	leaq	.LC59(%rip), %rdi
	call	gettext@PLT
	movq	%rbx, %rsi
	movq	%rax, %rdi
	call	fputs_unlocked@PLT
	.loc 2 406 7
	leaq	.LC60(%rip), %rdi
	call	emit_ancillary_info
.L73:
	.loc 2 408 3
	movl	-36(%rbp), %eax
	movl	%eax, %edi
	call	exit@PLT
	.cfi_endproc
.LFE50:
	.size	usage, .-usage
	.section	.rodata
.LC61:
	.string	"/usr/local/share/locale"
.LC62:
	.string	"Jim Meyering"
.LC63:
	.string	"Russell Coker"
.LC64:
	.string	"HLPRhvu:r:t:l:"
	.align 8
.LC65:
	.string	"-R --dereference requires either -H or -L"
.LC66:
	.string	"-R -h requires -P"
.LC67:
	.string	"missing operand"
.LC68:
	.string	"missing operand after %s"
.LC69:
	.string	"invalid context: %s"
	.align 8
.LC70:
	.string	"conflicting security context specifiers given"
	.align 8
.LC71:
	.string	"failed to get attributes of %s"
	.text
	.globl	main
	.type	main, @function
main:
.LFB51:
	.loc 2 413 1
	.cfi_startproc
	endbr64
	pushq	%rbp
	.cfi_def_cfa_offset 16
	.cfi_offset 6, -16
	movq	%rsp, %rbp
	.cfi_def_cfa_register 6
	pushq	%r12
	pushq	%rbx
	subq	$64, %rsp
	.cfi_offset 12, -24
	.cfi_offset 3, -32
	movl	%edi, -68(%rbp)
	movq	%rsi, -80(%rbp)
	.loc 2 413 1
	movq	%fs:40, %rax
	movq	%rax, -24(%rbp)
	xorl	%eax, %eax
	.loc 2 415 7
	movl	$16, -52(%rbp)
	.loc 2 419 7
	movl	$-1, -48(%rbp)
	.loc 2 422 8
	movb	$0, -55(%rbp)
	.loc 2 423 8
	movb	$0, -54(%rbp)
	.loc 2 424 9
	movq	$0, -32(%rbp)
	.loc 2 428 3
	movq	-80(%rbp), %rax
	movq	(%rax), %rax
	movq	%rax, %rdi
	call	set_program_name@PLT
	.loc 2 429 3
	leaq	.LC17(%rip), %rsi
	movl	$6, %edi
	call	setlocale@PLT
	.loc 2 430 3
	leaq	.LC61(%rip), %rsi
	leaq	.LC3(%rip), %rdi
	call	bindtextdomain@PLT
	.loc 2 431 3
	leaq	.LC3(%rip), %rdi
	call	textdomain@PLT
	.loc 2 433 3
	movq	close_stdout@GOTPCREL(%rip), %rax
	movq	%rax, %rdi
	call	atexit@PLT
	.loc 2 435 9
	jmp	.L75
.L96:
	.loc 2 438 7
	cmpl	$131, -44(%rbp)
	jg	.L76
	cmpl	$72, -44(%rbp)
	jge	.L77
	cmpl	$-131, -44(%rbp)
	je	.L78
	cmpl	$-130, -44(%rbp)
	je	.L79
	jmp	.L76
.L77:
	movl	-44(%rbp), %eax
	subl	$72, %eax
	cmpl	$59, %eax
	ja	.L76
	movl	%eax, %eax
	leaq	0(,%rax,4), %rdx
	leaq	.L81(%rip), %rax
	movl	(%rdx,%rax), %eax
	cltq
	leaq	.L81(%rip), %rdx
	addq	%rdx, %rax
	notrack jmp	*%rax
	.section	.rodata
	.align 4
	.align 4
.L81:
	.long	.L95-.L81
	.long	.L76-.L81
	.long	.L76-.L81
	.long	.L76-.L81
	.long	.L94-.L81
	.long	.L76-.L81
	.long	.L76-.L81
	.long	.L76-.L81
	.long	.L93-.L81
	.long	.L76-.L81
	.long	.L92-.L81
	.long	.L76-.L81
	.long	.L76-.L81
	.long	.L76-.L81
	.long	.L76-.L81
	.long	.L76-.L81
	.long	.L76-.L81
	.long	.L76-.L81
	.long	.L76-.L81
	.long	.L76-.L81
	.long	.L76-.L81
	.long	.L76-.L81
	.long	.L76-.L81
	.long	.L76-.L81
	.long	.L76-.L81
	.long	.L76-.L81
	.long	.L76-.L81
	.long	.L76-.L81
	.long	.L76-.L81
	.long	.L76-.L81
	.long	.L75-.L81
	.long	.L76-.L81
	.long	.L90-.L81
	.long	.L76-.L81
	.long	.L76-.L81
	.long	.L76-.L81
	.long	.L89-.L81
	.long	.L76-.L81
	.long	.L76-.L81
	.long	.L76-.L81
	.long	.L76-.L81
	.long	.L76-.L81
	.long	.L88-.L81
	.long	.L76-.L81
	.long	.L87-.L81
	.long	.L86-.L81
	.long	.L85-.L81
	.long	.L76-.L81
	.long	.L76-.L81
	.long	.L76-.L81
	.long	.L76-.L81
	.long	.L76-.L81
	.long	.L76-.L81
	.long	.L76-.L81
	.long	.L76-.L81
	.long	.L76-.L81
	.long	.L84-.L81
	.long	.L83-.L81
	.long	.L82-.L81
	.long	.L80-.L81
	.text
.L95:
	.loc 2 441 21
	movl	$17, -52(%rbp)
	.loc 2 442 11
	jmp	.L75
.L94:
	.loc 2 445 21
	movl	$2, -52(%rbp)
	.loc 2 446 11
	jmp	.L75
.L93:
	.loc 2 449 21
	movl	$16, -52(%rbp)
	.loc 2 450 11
	jmp	.L75
.L90:
	.loc 2 453 23
	movl	$0, -48(%rbp)
	.loc 2 454 11
	jmp	.L75
.L84:
	.loc 2 458 23
	movl	$1, -48(%rbp)
	.loc 2 459 11
	jmp	.L75
.L83:
	.loc 2 462 25
	movb	$0, -55(%rbp)
	.loc 2 463 11
	jmp	.L75
.L82:
	.loc 2 466 25
	movb	$1, -55(%rbp)
	.loc 2 467 11
	jmp	.L75
.L80:
	.loc 2 470 26
	movq	optarg(%rip), %rax
	movq	%rax, -32(%rbp)
	.loc 2 471 11
	jmp	.L75
.L92:
	.loc 2 474 19
	movb	$1, recurse(%rip)
	.loc 2 475 11
	jmp	.L75
.L85:
	.loc 2 482 19
	movb	$1, verbose(%rip)
	.loc 2 483 11
	jmp	.L75
.L86:
	.loc 2 486 26
	movq	optarg(%rip), %rax
	movq	%rax, specified_user(%rip)
	.loc 2 487 31
	movb	$1, -54(%rbp)
	.loc 2 488 11
	jmp	.L75
.L88:
	.loc 2 491 26
	movq	optarg(%rip), %rax
	movq	%rax, specified_role(%rip)
	.loc 2 492 31
	movb	$1, -54(%rbp)
	.loc 2 493 11
	jmp	.L75
.L87:
	.loc 2 496 26
	movq	optarg(%rip), %rax
	movq	%rax, specified_type(%rip)
	.loc 2 497 31
	movb	$1, -54(%rbp)
	.loc 2 498 11
	jmp	.L75
.L89:
	.loc 2 501 27
	movq	optarg(%rip), %rax
	movq	%rax, specified_range(%rip)
	.loc 2 502 31
	movb	$1, -54(%rbp)
	.loc 2 503 11
	jmp	.L75
.L79:
	.loc 2 505 9
	movl	$0, %edi
	call	usage
.L78:
	.loc 2 506 9
	movq	Version(%rip), %rdx
	movq	stdout(%rip), %rax
	subq	$8, %rsp
	pushq	$0
	leaq	.LC62(%rip), %r9
	leaq	.LC63(%rip), %r8
	movq	%rdx, %rcx
	leaq	.LC12(%rip), %rdx
	leaq	.LC60(%rip), %rsi
	movq	%rax, %rdi
	movl	$0, %eax
	call	version_etc@PLT
	addq	$16, %rsp
	movl	$0, %edi
	call	exit@PLT
.L76:
	.loc 2 508 11
	movl	$1, %edi
	call	usage
.L75:
	.loc 2 435 18
	movq	-80(%rbp), %rsi
	movl	-68(%rbp), %eax
	movl	$0, %r8d
	leaq	long_options(%rip), %rcx
	leaq	.LC64(%rip), %rdx
	movl	%eax, %edi
	call	getopt_long@PLT
	movl	%eax, -44(%rbp)
	.loc 2 435 9
	cmpl	$-1, -44(%rbp)
	jne	.L96
	.loc 2 512 7
	movzbl	recurse(%rip), %eax
	.loc 2 512 6
	testb	%al, %al
	je	.L97
	.loc 2 514 10
	cmpl	$16, -52(%rbp)
	jne	.L98
	.loc 2 516 14
	cmpl	$1, -48(%rbp)
	jne	.L99
.LBB8:
	.loc 2 517 13
	leaq	.LC65(%rip), %rdi
	call	gettext@PLT
	movq	%rax, %rdx
	movl	$0, %esi
	movl	$1, %edi
	movl	$0, %eax
	call	error@PLT
.L99:
.LBE8:
	.loc 2 519 35
	movb	$0, affect_symlink_referent(%rip)
	jmp	.L100
.L98:
	.loc 2 523 14
	cmpl	$0, -48(%rbp)
	jne	.L101
.LBB9:
	.loc 2 524 13
	leaq	.LC66(%rip), %rdi
	call	gettext@PLT
	movq	%rax, %rdx
	movl	$0, %esi
	movl	$1, %edi
	movl	$0, %eax
	call	error@PLT
.L101:
.LBE9:
	.loc 2 525 35
	movb	$1, affect_symlink_referent(%rip)
	jmp	.L100
.L97:
	.loc 2 530 17
	movl	$16, -52(%rbp)
	.loc 2 531 46
	cmpl	$0, -48(%rbp)
	setne	%al
	.loc 2 531 31
	movb	%al, affect_symlink_referent(%rip)
.L100:
	.loc 2 534 12
	movl	optind(%rip), %eax
	movl	-68(%rbp), %edx
	subl	%eax, %edx
	movl	%edx, %eax
	.loc 2 534 66
	cmpq	$0, -32(%rbp)
	jne	.L102
	.loc 2 534 39 discriminator 2
	cmpb	$0, -54(%rbp)
	je	.L103
.L102:
	.loc 2 534 66 discriminator 3
	movl	$1, %edx
	jmp	.L104
.L103:
	.loc 2 534 66 is_stmt 0 discriminator 4
	movl	$2, %edx
.L104:
	.loc 2 534 6 is_stmt 1 discriminator 6
	cmpl	%eax, %edx
	jle	.L105
	.loc 2 536 16
	movl	optind(%rip), %eax
	.loc 2 536 10
	cmpl	%eax, -68(%rbp)
	jg	.L106
	.loc 2 537 22
	leaq	.LC67(%rip), %rdi
	call	gettext@PLT
	.loc 2 537 9
	movq	%rax, %rdx
	movl	$0, %esi
	movl	$0, %edi
	movl	$0, %eax
	call	error@PLT
	jmp	.L107
.L106:
	.loc 2 539 64
	movl	-68(%rbp), %eax
	cltq
	salq	$3, %rax
	leaq	-8(%rax), %rdx
	movq	-80(%rbp), %rax
	addq	%rdx, %rax
	.loc 2 539 9
	movq	(%rax), %rax
	movq	%rax, %rdi
	call	quote@PLT
	movq	%rax, %rbx
	.loc 2 539 22
	leaq	.LC68(%rip), %rdi
	call	gettext@PLT
	.loc 2 539 9
	movq	%rbx, %rcx
	movq	%rax, %rdx
	movl	$0, %esi
	movl	$0, %edi
	movl	$0, %eax
	call	error@PLT
.L107:
	.loc 2 540 7
	movl	$1, %edi
	call	usage
.L105:
	.loc 2 543 6
	cmpq	$0, -32(%rbp)
	je	.L108
.LBB10:
	.loc 2 545 13
	movq	$0, -40(%rbp)
	.loc 2 547 11
	leaq	-40(%rbp), %rdx
	movq	-32(%rbp), %rax
	movq	%rdx, %rsi
	movq	%rax, %rdi
	call	rpl_getfilecon@PLT
	.loc 2 547 10
	testl	%eax, %eax
	jns	.L109
.LBB11:
	.loc 2 548 9
	movq	-32(%rbp), %rax
	movq	%rax, %rsi
	movl	$4, %edi
	call	quotearg_style@PLT
	movq	%rax, %r12
	leaq	.LC34(%rip), %rdi
	call	gettext@PLT
	movq	%rax, %rbx
	call	__errno_location@PLT
	movl	(%rax), %eax
	movq	%r12, %rcx
	movq	%rbx, %rdx
	movl	%eax, %esi
	movl	$1, %edi
	movl	$0, %eax
	call	error@PLT
.L109:
.LBE11:
	.loc 2 551 25
	movq	-40(%rbp), %rax
	movq	%rax, specified_context(%rip)
.LBE10:
	jmp	.L110
.L108:
	.loc 2 553 11
	cmpb	$0, -54(%rbp)
	je	.L111
	.loc 2 556 25
	movq	$0, specified_context(%rip)
	jmp	.L110
.L111:
	.loc 2 560 38
	movl	optind(%rip), %eax
	leal	1(%rax), %edx
	movl	%edx, optind(%rip)
	cltq
	.loc 2 560 31
	leaq	0(,%rax,8), %rdx
	movq	-80(%rbp), %rax
	addq	%rdx, %rax
	movq	(%rax), %rax
	.loc 2 560 25
	movq	%rax, specified_context(%rip)
	.loc 2 561 15
	call	is_selinux_enabled@PLT
	.loc 2 561 10
	testl	%eax, %eax
	jle	.L110
	.loc 2 562 14
	movq	specified_context(%rip), %rax
	movq	%rax, %rdi
	call	security_check_context@PLT
	.loc 2 562 11
	testl	%eax, %eax
	jns	.L110
.LBB12:
	.loc 2 563 9
	movq	specified_context(%rip), %rax
	movq	%rax, %rdi
	call	quote@PLT
	movq	%rax, %r12
	leaq	.LC69(%rip), %rdi
	call	gettext@PLT
	movq	%rax, %rbx
	call	__errno_location@PLT
	movl	(%rax), %eax
	movq	%r12, %rcx
	movq	%rbx, %rdx
	movl	%eax, %esi
	movl	$1, %edi
	movl	$0, %eax
	call	error@PLT
.L110:
.LBE12:
	.loc 2 567 6
	cmpq	$0, -32(%rbp)
	je	.L112
	.loc 2 567 22 discriminator 1
	cmpb	$0, -54(%rbp)
	je	.L112
	.loc 2 569 20
	leaq	.LC70(%rip), %rdi
	call	gettext@PLT
	.loc 2 569 7
	movq	%rax, %rdx
	movl	$0, %esi
	movl	$0, %edi
	movl	$0, %eax
	call	error@PLT
	.loc 2 570 7
	movl	$1, %edi
	call	usage
.L112:
	.loc 2 573 7
	movzbl	recurse(%rip), %eax
	.loc 2 573 6
	testb	%al, %al
	je	.L113
	.loc 2 573 15 discriminator 1
	cmpb	$0, -55(%rbp)
	je	.L113
.LBB13:
	.loc 2 576 22
	leaq	dev_ino_buf.6942(%rip), %rdi
	call	get_root_dev_ino@PLT
	.loc 2 576 20
	movq	%rax, root_dev_ino(%rip)
	.loc 2 577 24
	movq	root_dev_ino(%rip), %rax
	.loc 2 577 10
	testq	%rax, %rax
	jne	.L118
.LBB14:
	.loc 2 578 9
	leaq	.LC37(%rip), %rsi
	movl	$4, %edi
	call	quotearg_style@PLT
	movq	%rax, %r12
	leaq	.LC71(%rip), %rdi
	call	gettext@PLT
	movq	%rax, %rbx
	call	__errno_location@PLT
	movl	(%rax), %eax
	movq	%r12, %rcx
	movq	%rbx, %rdx
	movl	%eax, %esi
	movl	$1, %edi
	movl	$0, %eax
	call	error@PLT
.L113:
.LBE14:
.LBE13:
	.loc 2 583 20
	movq	$0, root_dev_ino(%rip)
	jmp	.L115
.L118:
	.loc 2 574 5
	nop
.L115:
	.loc 2 586 8
	movl	-52(%rbp), %eax
	orl	$8, %eax
	movl	%eax, %edx
	.loc 2 586 28
	movl	optind(%rip), %eax
	cltq
	leaq	0(,%rax,8), %rcx
	.loc 2 586 8
	movq	-80(%rbp), %rax
	addq	%rcx, %rax
	movl	%edx, %esi
	movq	%rax, %rdi
	call	process_files
	movb	%al, -53(%rbp)
	.loc 2 588 28
	movzbl	-53(%rbp), %eax
	xorl	$1, %eax
	movzbl	%al, %eax
	.loc 2 589 1
	movq	-24(%rbp), %rcx
	xorq	%fs:40, %rcx
	je	.L117
	call	__stack_chk_fail@PLT
.L117:
	leaq	-16(%rbp), %rsp
	popq	%rbx
	popq	%r12
	popq	%rbp
	.cfi_def_cfa 7, 8
	ret
	.cfi_endproc
.LFE51:
	.size	main, .-main
	.local	dev_ino_buf.6942
	.comm	dev_ino_buf.6942,16,16
.Letext0:
	.file 3 "/usr/lib/gcc/x86_64-linux-gnu/9/include/stddef.h"
	.file 4 "/usr/include/x86_64-linux-gnu/bits/types.h"
	.file 5 "/usr/include/x86_64-linux-gnu/bits/types/struct_FILE.h"
	.file 6 "/usr/include/x86_64-linux-gnu/bits/types/FILE.h"
	.file 7 "/usr/include/stdio.h"
	.file 8 "/usr/include/x86_64-linux-gnu/bits/sys_errlist.h"
	.file 9 "/usr/include/x86_64-linux-gnu/sys/types.h"
	.file 10 "/usr/include/x86_64-linux-gnu/bits/types/time_t.h"
	.file 11 "/usr/include/x86_64-linux-gnu/bits/types/struct_timespec.h"
	.file 12 "./lib/sys/select.h"
	.file 13 "/usr/include/x86_64-linux-gnu/bits/getopt_core.h"
	.file 14 "/usr/include/x86_64-linux-gnu/bits/getopt_ext.h"
	.file 15 "/usr/include/time.h"
	.file 16 "/usr/include/x86_64-linux-gnu/bits/stat.h"
	.file 17 "/usr/include/signal.h"
	.file 18 "/usr/include/unistd.h"
	.file 19 "/usr/include/errno.h"
	.file 20 "src/version.h"
	.file 21 "./lib/exitfail.h"
	.file 22 "./lib/timespec.h"
	.file 23 "./lib/version-etc.h"
	.file 24 "./lib/progname.h"
	.file 25 "./lib/quotearg.h"
	.file 26 "./lib/dev-ino.h"
	.file 27 "./lib/error.h"
	.file 28 "./lib/quote.h"
	.file 29 "/usr/include/selinux/context.h"
	.file 30 "./lib/i-ring.h"
	.file 31 "./lib/fts_.h"
	.file 32 "/usr/include/dirent.h"
	.section	.note.GNU-stack,"",@progbits
	.section	.note.gnu.property,"a"
	.align 8
	.long	 1f - 0f
	.long	 4f - 1f
	.long	 5
0:
	.string	 "GNU"
1:
	.align 8
	.long	 0xc0000002
	.long	 3f - 2f
2:
	.long	 0x3
3:
	.align 8
4:
