	.file	"du.c"
	.text
.Ltext0:
	.section	.rodata
	.align 8
.LC0:
	.string	"\nMandatory arguments to long options are mandatory for short options too.\n"
	.text
	.type	emit_mandatory_arg_note, @function
emit_mandatory_arg_note:
.LFB36:
	.file 1 "src/system.h"
	.loc 1 589 1
	.cfi_startproc
	pushq	%rbp
	.cfi_def_cfa_offset 16
	.cfi_offset 6, -16
	movq	%rsp, %rbp
	.cfi_def_cfa_register 6
	pushq	%rbx
	subq	$8, %rsp
	.cfi_offset 3, -24
	.loc 1 590 3
	movq	stdout(%rip), %rbx
	leaq	.LC0(%rip), %rdi
	call	gettext@PLT
	movq	%rbx, %rsi
	movq	%rax, %rdi
	call	fputs_unlocked@PLT
	.loc 1 593 1
	nop
	addq	$8, %rsp
	popq	%rbx
	popq	%rbp
	.cfi_def_cfa 7, 8
	ret
	.cfi_endproc
.LFE36:
	.size	emit_mandatory_arg_note, .-emit_mandatory_arg_note
	.section	.rodata
	.align 8
.LC1:
	.string	"\nThe SIZE argument is an integer and optional unit (example: 10K is 10*1024).\nUnits are K,M,G,T,P,E,Z,Y (powers of 1024) or KB,MB,... (powers of 1000).\nBinary prefixes can be used, too: KiB=K, MiB=M, and so on.\n"
	.text
	.type	emit_size_note, @function
emit_size_note:
.LFB37:
	.loc 1 597 1
	.cfi_startproc
	pushq	%rbp
	.cfi_def_cfa_offset 16
	.cfi_offset 6, -16
	movq	%rsp, %rbp
	.cfi_def_cfa_register 6
	pushq	%rbx
	subq	$8, %rsp
	.cfi_offset 3, -24
	.loc 1 598 3
	movq	stdout(%rip), %rbx
	leaq	.LC1(%rip), %rdi
	call	gettext@PLT
	movq	%rbx, %rsi
	movq	%rax, %rdi
	call	fputs_unlocked@PLT
	.loc 1 603 1
	nop
	addq	$8, %rsp
	popq	%rbx
	popq	%rbp
	.cfi_def_cfa 7, 8
	ret
	.cfi_endproc
.LFE37:
	.size	emit_size_note, .-emit_size_note
	.section	.rodata
	.align 8
.LC2:
	.string	"\nDisplay values are in units of the first available SIZE from --block-size,\nand the %s_BLOCK_SIZE, BLOCK_SIZE and BLOCKSIZE environment variables.\nOtherwise, units default to 1024 bytes (or 512 if POSIXLY_CORRECT is set).\n"
	.text
	.type	emit_blocksize_note, @function
emit_blocksize_note:
.LFB38:
	.loc 1 607 1
	.cfi_startproc
	pushq	%rbp
	.cfi_def_cfa_offset 16
	.cfi_offset 6, -16
	movq	%rsp, %rbp
	.cfi_def_cfa_register 6
	subq	$16, %rsp
	movq	%rdi, -8(%rbp)
	.loc 1 608 11
	leaq	.LC2(%rip), %rdi
	call	gettext@PLT
	movq	%rax, %rdx
	.loc 1 608 3
	movq	-8(%rbp), %rax
	movq	%rax, %rsi
	movq	%rdx, %rdi
	movl	$0, %eax
	call	printf@PLT
	.loc 1 613 1
	nop
	leave
	.cfi_def_cfa 7, 8
	ret
	.cfi_endproc
.LFE38:
	.size	emit_blocksize_note, .-emit_blocksize_note
	.section	.rodata
.LC3:
	.string	"["
.LC4:
	.string	"test invocation"
.LC5:
	.string	"coreutils"
.LC6:
	.string	"Multi-call invocation"
.LC7:
	.string	"sha224sum"
.LC8:
	.string	"sha2 utilities"
.LC9:
	.string	"sha256sum"
.LC10:
	.string	"sha384sum"
.LC11:
	.string	"sha512sum"
.LC12:
	.string	"\n%s online help: <%s>\n"
	.align 8
.LC13:
	.string	"https://www.gnu.org/software/coreutils/"
.LC14:
	.string	"GNU coreutils"
.LC15:
	.string	"en_"
	.align 8
.LC16:
	.string	"Report any translation bugs to <https://translationproject.org/team/>\n"
.LC17:
	.string	"Full documentation <%s%s>\n"
.LC18:
	.string	" invocation"
.LC19:
	.string	""
	.align 8
.LC20:
	.string	"or available locally via: info '(coreutils) %s%s'\n"
	.text
	.type	emit_ancillary_info, @function
emit_ancillary_info:
.LFB40:
	.loc 1 635 1
	.cfi_startproc
	pushq	%rbp
	.cfi_def_cfa_offset 16
	.cfi_offset 6, -16
	movq	%rsp, %rbp
	.cfi_def_cfa_register 6
	pushq	%rbx
	subq	$184, %rsp
	.cfi_offset 3, -24
	movq	%rdi, -184(%rbp)
	.loc 1 635 1
	movq	%fs:40, %rax
	movq	%rax, -24(%rbp)
	xorl	%eax, %eax
	.loc 1 636 67
	leaq	.LC3(%rip), %rax
	movq	%rax, -144(%rbp)
	leaq	.LC4(%rip), %rax
	movq	%rax, -136(%rbp)
	leaq	.LC5(%rip), %rax
	movq	%rax, -128(%rbp)
	leaq	.LC6(%rip), %rax
	movq	%rax, -120(%rbp)
	leaq	.LC7(%rip), %rax
	movq	%rax, -112(%rbp)
	leaq	.LC8(%rip), %rax
	movq	%rax, -104(%rbp)
	leaq	.LC9(%rip), %rax
	movq	%rax, -96(%rbp)
	leaq	.LC8(%rip), %rax
	movq	%rax, -88(%rbp)
	leaq	.LC10(%rip), %rax
	movq	%rax, -80(%rbp)
	leaq	.LC8(%rip), %rax
	movq	%rax, -72(%rbp)
	leaq	.LC11(%rip), %rax
	movq	%rax, -64(%rbp)
	leaq	.LC8(%rip), %rax
	movq	%rax, -56(%rbp)
	movq	$0, -48(%rbp)
	movq	$0, -40(%rbp)
	.loc 1 646 15
	movq	-184(%rbp), %rax
	movq	%rax, -168(%rbp)
	.loc 1 647 25
	leaq	-144(%rbp), %rax
	movq	%rax, -160(%rbp)
	.loc 1 649 9
	jmp	.L5
.L7:
	.loc 1 650 13
	addq	$16, -160(%rbp)
.L5:
	.loc 1 649 18
	movq	-160(%rbp), %rax
	movq	(%rax), %rax
	.loc 1 649 9
	testq	%rax, %rax
	je	.L6
	.loc 1 649 33 discriminator 1
	movq	-160(%rbp), %rax
	movq	(%rax), %rdx
	movq	-184(%rbp), %rax
	movq	%rdx, %rsi
	movq	%rax, %rdi
	call	strcmp@PLT
	.loc 1 649 28 discriminator 1
	testl	%eax, %eax
	jne	.L7
.L6:
	.loc 1 652 15
	movq	-160(%rbp), %rax
	movq	8(%rax), %rax
	.loc 1 652 6
	testq	%rax, %rax
	je	.L8
	.loc 1 653 10
	movq	-160(%rbp), %rax
	movq	8(%rax), %rax
	movq	%rax, -168(%rbp)
.L8:
	.loc 1 655 11
	leaq	.LC12(%rip), %rdi
	call	gettext@PLT
	.loc 1 655 3
	leaq	.LC13(%rip), %rdx
	leaq	.LC14(%rip), %rsi
	movq	%rax, %rdi
	movl	$0, %eax
	call	printf@PLT
	.loc 1 659 29
	movl	$0, %esi
	movl	$5, %edi
	call	setlocale@PLT
	movq	%rax, -152(%rbp)
	.loc 1 660 6
	cmpq	$0, -152(%rbp)
	je	.L9
	.loc 1 660 22 discriminator 1
	movq	-152(%rbp), %rax
	movl	$3, %edx
	leaq	.LC15(%rip), %rsi
	movq	%rax, %rdi
	call	strncmp@PLT
	.loc 1 660 19 discriminator 1
	testl	%eax, %eax
	je	.L9
	.loc 1 666 7
	movq	stdout(%rip), %rbx
	leaq	.LC16(%rip), %rdi
	call	gettext@PLT
	movq	%rbx, %rsi
	movq	%rax, %rdi
	call	fputs_unlocked@PLT
.L9:
	.loc 1 669 11
	leaq	.LC17(%rip), %rdi
	call	gettext@PLT
	movq	%rax, %rcx
	.loc 1 669 3
	movq	-184(%rbp), %rax
	movq	%rax, %rdx
	leaq	.LC13(%rip), %rsi
	movq	%rcx, %rdi
	movl	$0, %eax
	call	printf@PLT
	.loc 1 671 3
	movq	-168(%rbp), %rax
	cmpq	-184(%rbp), %rax
	jne	.L10
	.loc 1 671 3 is_stmt 0 discriminator 1
	leaq	.LC18(%rip), %rbx
	jmp	.L11
.L10:
	.loc 1 671 3 discriminator 2
	leaq	.LC19(%rip), %rbx
.L11:
	.loc 1 671 11 is_stmt 1 discriminator 4
	leaq	.LC20(%rip), %rdi
	call	gettext@PLT
	movq	%rax, %rcx
	.loc 1 671 3 discriminator 4
	movq	-168(%rbp), %rax
	movq	%rbx, %rdx
	movq	%rax, %rsi
	movq	%rcx, %rdi
	movl	$0, %eax
	call	printf@PLT
	.loc 1 673 1 discriminator 4
	nop
	movq	-24(%rbp), %rax
	xorq	%fs:40, %rax
	je	.L12
	.loc 1 673 1 is_stmt 0
	call	__stack_chk_fail@PLT
.L12:
	addq	$184, %rsp
	popq	%rbx
	popq	%rbp
	.cfi_def_cfa 7, 8
	ret
	.cfi_endproc
.LFE40:
	.size	emit_ancillary_info, .-emit_ancillary_info
	.type	timetostr, @function
timetostr:
.LFB41:
	.loc 1 691 1 is_stmt 1
	.cfi_startproc
	pushq	%rbp
	.cfi_def_cfa_offset 16
	.cfi_offset 6, -16
	movq	%rsp, %rbp
	.cfi_def_cfa_register 6
	subq	$16, %rsp
	movq	%rdi, -8(%rbp)
	movq	%rsi, -16(%rbp)
	.loc 1 694 11
	movq	-16(%rbp), %rdx
	movq	-8(%rbp), %rax
	movq	%rdx, %rsi
	movq	%rax, %rdi
	call	imaxtostr@PLT
	.loc 1 695 1
	leave
	.cfi_def_cfa 7, 8
	ret
	.cfi_endproc
.LFE41:
	.size	timetostr, .-timetostr
	.type	bad_cast, @function
bad_cast:
.LFB42:
	.loc 1 699 1
	.cfi_startproc
	pushq	%rbp
	.cfi_def_cfa_offset 16
	.cfi_offset 6, -16
	movq	%rsp, %rbp
	.cfi_def_cfa_register 6
	movq	%rdi, -8(%rbp)
	.loc 1 700 10
	movq	-8(%rbp), %rax
	.loc 1 701 1
	popq	%rbp
	.cfi_def_cfa 7, 8
	ret
	.cfi_endproc
.LFE42:
	.size	bad_cast, .-bad_cast
	.local	di_files
	.comm	di_files,8,8
	.local	di_mnt
	.comm	di_mnt,8,8
	.local	prev_level
	.comm	prev_level,8,8
	.type	duinfo_init, @function
duinfo_init:
.LFB55:
	.file 2 "src/du.c"
	.loc 2 93 1
	.cfi_startproc
	pushq	%rbp
	.cfi_def_cfa_offset 16
	.cfi_offset 6, -16
	movq	%rsp, %rbp
	.cfi_def_cfa_register 6
	movq	%rdi, -8(%rbp)
	.loc 2 94 11
	movq	-8(%rbp), %rax
	movq	$0, (%rax)
	.loc 2 95 13
	movq	-8(%rbp), %rax
	movq	$0, 8(%rax)
	.loc 2 96 18
	movq	-8(%rbp), %rax
	movabsq	$-9223372036854775808, %rdx
	movq	%rdx, 16(%rax)
	.loc 2 97 19
	movq	-8(%rbp), %rax
	movq	$-1, 24(%rax)
	.loc 2 98 1
	nop
	popq	%rbp
	.cfi_def_cfa 7, 8
	ret
	.cfi_endproc
.LFE55:
	.size	duinfo_init, .-duinfo_init
	.type	duinfo_set, @function
duinfo_set:
.LFB56:
	.loc 2 103 1
	.cfi_startproc
	pushq	%rbp
	.cfi_def_cfa_offset 16
	.cfi_offset 6, -16
	movq	%rsp, %rbp
	.cfi_def_cfa_register 6
	movq	%rdi, -8(%rbp)
	movq	%rsi, -16(%rbp)
	movq	%rdx, -32(%rbp)
	movq	%rcx, -24(%rbp)
	.loc 2 104 11
	movq	-8(%rbp), %rax
	movq	-16(%rbp), %rdx
	movq	%rdx, (%rax)
	.loc 2 105 13
	movq	-8(%rbp), %rax
	movq	$1, 8(%rax)
	.loc 2 106 11
	movq	-8(%rbp), %rcx
	movq	-32(%rbp), %rax
	movq	-24(%rbp), %rdx
	movq	%rax, 16(%rcx)
	movq	%rdx, 24(%rcx)
	.loc 2 107 1
	nop
	popq	%rbp
	.cfi_def_cfa 7, 8
	ret
	.cfi_endproc
.LFE56:
	.size	duinfo_set, .-duinfo_set
	.type	duinfo_add, @function
duinfo_add:
.LFB57:
	.loc 2 112 1
	.cfi_startproc
	pushq	%rbp
	.cfi_def_cfa_offset 16
	.cfi_offset 6, -16
	movq	%rsp, %rbp
	.cfi_def_cfa_register 6
	subq	$32, %rsp
	movq	%rdi, -24(%rbp)
	movq	%rsi, -32(%rbp)
	.loc 2 113 20
	movq	-24(%rbp), %rax
	movq	(%rax), %rdx
	.loc 2 113 30
	movq	-32(%rbp), %rax
	movq	(%rax), %rax
	.loc 2 113 13
	addq	%rdx, %rax
	movq	%rax, -8(%rbp)
	.loc 2 114 14
	movq	-24(%rbp), %rax
	movq	(%rax), %rax
	.loc 2 114 34
	cmpq	%rax, -8(%rbp)
	jb	.L20
	.loc 2 114 34 is_stmt 0 discriminator 1
	movq	-8(%rbp), %rax
	jmp	.L21
.L20:
	.loc 2 114 34 discriminator 2
	movq	$-1, %rax
.L21:
	.loc 2 114 11 is_stmt 1 discriminator 4
	movq	-24(%rbp), %rdx
	movq	%rax, (%rdx)
	.loc 2 115 16 discriminator 4
	movq	-24(%rbp), %rax
	movq	8(%rax), %rdx
	.loc 2 115 28 discriminator 4
	movq	-32(%rbp), %rax
	movq	8(%rax), %rax
	.loc 2 115 25 discriminator 4
	addq	%rax, %rdx
	.loc 2 115 13 discriminator 4
	movq	-24(%rbp), %rax
	movq	%rdx, 8(%rax)
	.loc 2 116 7 discriminator 4
	movq	-32(%rbp), %rax
	movq	24(%rax), %rdx
	movq	16(%rax), %rax
	movq	-24(%rbp), %rcx
	movq	16(%rcx), %rdi
	movq	24(%rcx), %rsi
	movq	%rdx, %rcx
	movq	%rax, %rdx
	call	timespec_cmp@PLT
	.loc 2 116 6 discriminator 4
	testl	%eax, %eax
	jns	.L23
	.loc 2 117 13
	movq	-24(%rbp), %rcx
	movq	-32(%rbp), %rax
	movq	24(%rax), %rdx
	movq	16(%rax), %rax
	movq	%rax, 16(%rcx)
	movq	%rdx, 24(%rcx)
.L23:
	.loc 2 118 1
	nop
	leave
	.cfi_def_cfa 7, 8
	ret
	.cfi_endproc
.LFE57:
	.size	duinfo_add, .-duinfo_add
	.local	opt_all
	.comm	opt_all,1,1
	.local	apparent_size
	.comm	apparent_size,1,1
	.local	opt_count_all
	.comm	opt_count_all,1,1
	.local	hash_all
	.comm	hash_all,1,1
	.local	opt_nul_terminate_output
	.comm	opt_nul_terminate_output,1,1
	.local	print_grand_total
	.comm	print_grand_total,1,1
	.local	opt_separate_dirs
	.comm	opt_separate_dirs,1,1
	.data
	.align 8
	.type	max_depth, @object
	.size	max_depth, 8
max_depth:
	.quad	-1
	.local	opt_threshold
	.comm	opt_threshold,8,8
	.local	human_output_opts
	.comm	human_output_opts,4,4
	.local	opt_inodes
	.comm	opt_inodes,1,1
	.local	opt_time
	.comm	opt_time,1,1
	.local	time_type
	.comm	time_type,4,4
	.local	time_style
	.comm	time_style,8,8
	.local	time_format
	.comm	time_format,8,8
	.local	localtz
	.comm	localtz,8,8
	.local	output_block_size
	.comm	output_block_size,8,8
	.local	exclude
	.comm	exclude,8,8
	.local	tot_dui
	.comm	tot_dui,32,32
	.section	.rodata
.LC21:
	.string	"all"
.LC22:
	.string	"apparent-size"
.LC23:
	.string	"block-size"
.LC24:
	.string	"bytes"
.LC25:
	.string	"count-links"
.LC26:
	.string	"dereference"
.LC27:
	.string	"dereference-args"
.LC28:
	.string	"exclude"
.LC29:
	.string	"exclude-from"
.LC30:
	.string	"files0-from"
.LC31:
	.string	"human-readable"
.LC32:
	.string	"inodes"
.LC33:
	.string	"si"
.LC34:
	.string	"max-depth"
.LC35:
	.string	"null"
.LC36:
	.string	"no-dereference"
.LC37:
	.string	"one-file-system"
.LC38:
	.string	"separate-dirs"
.LC39:
	.string	"summarize"
.LC40:
	.string	"total"
.LC41:
	.string	"threshold"
.LC42:
	.string	"time"
.LC43:
	.string	"time-style"
.LC44:
	.string	"help"
.LC45:
	.string	"version"
	.section	.data.rel.ro.local,"aw"
	.align 32
	.type	long_options, @object
	.size	long_options, 832
long_options:
	.quad	.LC21
	.long	0
	.zero	4
	.quad	0
	.long	97
	.zero	4
	.quad	.LC22
	.long	0
	.zero	4
	.quad	0
	.long	128
	.zero	4
	.quad	.LC23
	.long	1
	.zero	4
	.quad	0
	.long	66
	.zero	4
	.quad	.LC24
	.long	0
	.zero	4
	.quad	0
	.long	98
	.zero	4
	.quad	.LC25
	.long	0
	.zero	4
	.quad	0
	.long	108
	.zero	4
	.quad	.LC26
	.long	0
	.zero	4
	.quad	0
	.long	76
	.zero	4
	.quad	.LC27
	.long	0
	.zero	4
	.quad	0
	.long	68
	.zero	4
	.quad	.LC28
	.long	1
	.zero	4
	.quad	0
	.long	129
	.zero	4
	.quad	.LC29
	.long	1
	.zero	4
	.quad	0
	.long	88
	.zero	4
	.quad	.LC30
	.long	1
	.zero	4
	.quad	0
	.long	130
	.zero	4
	.quad	.LC31
	.long	0
	.zero	4
	.quad	0
	.long	104
	.zero	4
	.quad	.LC32
	.long	0
	.zero	4
	.quad	0
	.long	135
	.zero	4
	.quad	.LC33
	.long	0
	.zero	4
	.quad	0
	.long	131
	.zero	4
	.quad	.LC34
	.long	1
	.zero	4
	.quad	0
	.long	100
	.zero	4
	.quad	.LC35
	.long	0
	.zero	4
	.quad	0
	.long	48
	.zero	4
	.quad	.LC36
	.long	0
	.zero	4
	.quad	0
	.long	80
	.zero	4
	.quad	.LC37
	.long	0
	.zero	4
	.quad	0
	.long	120
	.zero	4
	.quad	.LC38
	.long	0
	.zero	4
	.quad	0
	.long	83
	.zero	4
	.quad	.LC39
	.long	0
	.zero	4
	.quad	0
	.long	115
	.zero	4
	.quad	.LC40
	.long	0
	.zero	4
	.quad	0
	.long	99
	.zero	4
	.quad	.LC41
	.long	1
	.zero	4
	.quad	0
	.long	116
	.zero	4
	.quad	.LC42
	.long	2
	.zero	4
	.quad	0
	.long	133
	.zero	4
	.quad	.LC43
	.long	1
	.zero	4
	.quad	0
	.long	134
	.zero	4
	.quad	.LC44
	.long	0
	.zero	4
	.quad	0
	.long	-130
	.zero	4
	.quad	.LC45
	.long	0
	.zero	4
	.quad	0
	.long	-131
	.zero	4
	.quad	0
	.long	0
	.zero	4
	.quad	0
	.long	0
	.zero	4
	.section	.rodata
.LC46:
	.string	"atime"
.LC47:
	.string	"access"
.LC48:
	.string	"use"
.LC49:
	.string	"ctime"
.LC50:
	.string	"status"
	.section	.data.rel.ro.local
	.align 32
	.type	time_args, @object
	.size	time_args, 48
time_args:
	.quad	.LC46
	.quad	.LC47
	.quad	.LC48
	.quad	.LC49
	.quad	.LC50
	.quad	0
	.section	.rodata
	.align 16
	.type	time_types, @object
	.size	time_types, 20
time_types:
	.long	2
	.long	2
	.long	2
	.long	1
	.long	1
.LC51:
	.string	"full-iso"
.LC52:
	.string	"long-iso"
.LC53:
	.string	"iso"
	.section	.data.rel.ro.local
	.align 32
	.type	time_style_args, @object
	.size	time_style_args, 32
time_style_args:
	.quad	.LC51
	.quad	.LC52
	.quad	.LC53
	.quad	0
	.section	.rodata
	.align 8
	.type	time_style_types, @object
	.size	time_style_types, 12
time_style_types:
	.long	0
	.long	1
	.long	2
	.align 8
.LC54:
	.string	"Try '%s --help' for more information.\n"
	.align 8
.LC55:
	.string	"Usage: %s [OPTION]... [FILE]...\n  or:  %s [OPTION]... --files0-from=F\n"
	.align 8
.LC56:
	.string	"Summarize disk usage of the set of FILEs, recursively for directories.\n"
	.align 8
.LC57:
	.ascii	"  -0, --null            end each output line with NUL, not n"
	.ascii	"ewline\n  -a, --all             write counts for all files, "
	.ascii	"not just directories\n      --apparent-size   print apparent"
	.ascii	" sizes"
	.string	", rather than disk usage; although\n                          the apparent size is usually smaller, it may be\n                          larger due to holes in ('sparse') files, internal\n                          fragmentation, indirect blocks, and the like\n"
	.align 8
.LC58:
	.ascii	"  -B, --block-size=SIZE  scale sizes by SIZE before printing"
	.ascii	" them; e.g.,\n                           '-BM' prints sizes "
	.ascii	"in units of 1,048,576 bytes;\n                           see"
	.ascii	" SIZE format below\n  -b, --bytes           equivalent to '-"
	.ascii	"-apparent-size --block-size=1'\n  -c, --total           prod"
	.ascii	"uce a grand total\n  -D, --dereference-args  dereference onl"
	.ascii	"y symlinks that are listed on the\n                         "
	.ascii	" command line\n  -d, -"
	.string	"-max-depth=N     print the total for a directory (or file, with --all)\n                          only if it is N or fewer levels below the command\n                          line argument;  --max-depth=0 is the same as\n                          --summarize\n"
	.align 8
.LC59:
	.ascii	"      --files0-from=F   summarize disk usage of the\n       "
	.ascii	"                   NUL-terminated file names specified in fi"
	.ascii	"le F;\n                          if F is -"
	.string	", then read names from standard input\n  -H                    equivalent to --dereference-args (-D)\n  -h, --human-readable  print sizes in human readable format (e.g., 1K 234M 2G)\n      --inodes          list inode usage information instead of block usage\n"
	.align 8
.LC60:
	.string	"  -k                    like --block-size=1K\n  -L, --dereference     dereference all symbolic links\n  -l, --count-links     count sizes many times if hard linked\n  -m                    like --block-size=1M\n"
	.align 8
.LC61:
	.ascii	"  -P, --no-dereference  don'"
	.string	"t follow any symbolic links (this is the default)\n  -S, --separate-dirs   for directories do not include size of subdirectories\n      --si              like -h, but use powers of 1000 not 1024\n  -s, --summarize       display only a total for each argument\n"
	.align 8
.LC62:
	.ascii	"  -t, --threshold=SIZE  exclude entries smaller than SIZE if"
	.ascii	" positive,\n                          or entries greater tha"
	.ascii	"n SIZE if negative\n      --time            show time of the"
	.ascii	" last modification of any file in the\n                     "
	.ascii	"     directory, or any of its subdirectories\n      --time=W"
	.ascii	"ORD       show time as WORD instead of modification time:\n"
	.string	"                          atime, access, use, ctime or status\n      --time-style=STYLE  show times using STYLE, which can be:\n                            full-iso, long-iso, iso, or +FORMAT;\n                            FORMAT is interpreted like in 'date'\n"
	.align 8
.LC63:
	.string	"  -X, --exclude-from=FILE  exclude files that match any pattern in FILE\n      --exclude=PATTERN    exclude files that match PATTERN\n  -x, --one-file-system    skip directories on different file systems\n"
	.align 8
.LC64:
	.string	"      --help     display this help and exit\n"
	.align 8
.LC65:
	.string	"      --version  output version information and exit\n"
.LC66:
	.string	"DU"
.LC67:
	.string	"du"
	.text
	.globl	usage
	.type	usage, @function
usage:
.LFB58:
	.loc 2 280 1
	.cfi_startproc
	endbr64
	pushq	%rbp
	.cfi_def_cfa_offset 16
	.cfi_offset 6, -16
	movq	%rsp, %rbp
	.cfi_def_cfa_register 6
	pushq	%r12
	pushq	%rbx
	subq	$16, %rsp
	.cfi_offset 12, -24
	.cfi_offset 3, -32
	movl	%edi, -20(%rbp)
	.loc 2 281 6
	cmpl	$0, -20(%rbp)
	je	.L25
	.loc 2 282 5
	movq	program_name(%rip), %rbx
	leaq	.LC54(%rip), %rdi
	call	gettext@PLT
	movq	%rax, %rcx
	movq	stderr(%rip), %rax
	movq	%rbx, %rdx
	movq	%rcx, %rsi
	movq	%rax, %rdi
	movl	$0, %eax
	call	fprintf@PLT
	jmp	.L26
.L25:
	.loc 2 285 7
	movq	program_name(%rip), %r12
	movq	program_name(%rip), %rbx
	.loc 2 285 15
	leaq	.LC55(%rip), %rdi
	call	gettext@PLT
	.loc 2 285 7
	movq	%r12, %rdx
	movq	%rbx, %rsi
	movq	%rax, %rdi
	movl	$0, %eax
	call	printf@PLT
	.loc 2 289 7
	movq	stdout(%rip), %rbx
	leaq	.LC56(%rip), %rdi
	call	gettext@PLT
	movq	%rbx, %rsi
	movq	%rax, %rdi
	call	fputs_unlocked@PLT
	.loc 2 293 7
	call	emit_mandatory_arg_note
	.loc 2 295 7
	movq	stdout(%rip), %rbx
	leaq	.LC57(%rip), %rdi
	call	gettext@PLT
	movq	%rbx, %rsi
	movq	%rax, %rdi
	call	fputs_unlocked@PLT
	.loc 2 304 7
	movq	stdout(%rip), %rbx
	leaq	.LC58(%rip), %rdi
	call	gettext@PLT
	movq	%rbx, %rsi
	movq	%rax, %rdi
	call	fputs_unlocked@PLT
	.loc 2 317 7
	movq	stdout(%rip), %rbx
	leaq	.LC59(%rip), %rdi
	call	gettext@PLT
	movq	%rbx, %rsi
	movq	%rax, %rdi
	call	fputs_unlocked@PLT
	.loc 2 326 7
	movq	stdout(%rip), %rbx
	leaq	.LC60(%rip), %rdi
	call	gettext@PLT
	movq	%rbx, %rsi
	movq	%rax, %rdi
	call	fputs_unlocked@PLT
	.loc 2 332 7
	movq	stdout(%rip), %rbx
	leaq	.LC61(%rip), %rdi
	call	gettext@PLT
	movq	%rbx, %rsi
	movq	%rax, %rdi
	call	fputs_unlocked@PLT
	.loc 2 338 7
	movq	stdout(%rip), %rbx
	leaq	.LC62(%rip), %rdi
	call	gettext@PLT
	movq	%rbx, %rsi
	movq	%rax, %rdi
	call	fputs_unlocked@PLT
	.loc 2 349 7
	movq	stdout(%rip), %rbx
	leaq	.LC63(%rip), %rdi
	call	gettext@PLT
	movq	%rbx, %rsi
	movq	%rax, %rdi
	call	fputs_unlocked@PLT
	.loc 2 354 7
	movq	stdout(%rip), %rbx
	leaq	.LC64(%rip), %rdi
	call	gettext@PLT
	movq	%rbx, %rsi
	movq	%rax, %rdi
	call	fputs_unlocked@PLT
	.loc 2 355 7
	movq	stdout(%rip), %rbx
	leaq	.LC65(%rip), %rdi
	call	gettext@PLT
	movq	%rbx, %rsi
	movq	%rax, %rdi
	call	fputs_unlocked@PLT
	.loc 2 356 7
	leaq	.LC66(%rip), %rdi
	call	emit_blocksize_note
	.loc 2 357 7
	call	emit_size_note
	.loc 2 358 7
	leaq	.LC67(%rip), %rdi
	call	emit_ancillary_info
.L26:
	.loc 2 360 3
	movl	-20(%rbp), %eax
	movl	%eax, %edi
	call	exit@PLT
	.cfi_endproc
.LFE58:
	.size	usage, .-usage
	.type	hash_ins, @function
hash_ins:
.LFB59:
	.loc 2 368 1
	.cfi_startproc
	endbr64
	pushq	%rbp
	.cfi_def_cfa_offset 16
	.cfi_offset 6, -16
	movq	%rsp, %rbp
	.cfi_def_cfa_register 6
	subq	$48, %rsp
	movq	%rdi, -24(%rbp)
	movq	%rsi, -32(%rbp)
	movq	%rdx, -40(%rbp)
	.loc 2 369 18
	movq	-32(%rbp), %rdx
	movq	-40(%rbp), %rcx
	movq	-24(%rbp), %rax
	movq	%rcx, %rsi
	movq	%rax, %rdi
	call	di_set_insert@PLT
	movl	%eax, -4(%rbp)
	.loc 2 370 6
	cmpl	$0, -4(%rbp)
	jns	.L28
	.loc 2 371 5
	call	xalloc_die@PLT
.L28:
	.loc 2 372 10
	cmpl	$0, -4(%rbp)
	setne	%al
	.loc 2 373 1
	leave
	.cfi_def_cfa 7, 8
	ret
	.cfi_endproc
.LFE59:
	.size	hash_ins, .-hash_ins
	.section	.rodata
.LC68:
	.string	"time %s is out of range"
	.text
	.type	show_date, @function
show_date:
.LFB60:
	.loc 2 381 1
	.cfi_startproc
	endbr64
	pushq	%rbp
	.cfi_def_cfa_offset 16
	.cfi_offset 6, -16
	movq	%rsp, %rbp
	.cfi_def_cfa_register 6
	pushq	%rbx
	subq	$152, %rsp
	.cfi_offset 3, -24
	movq	%rdi, -136(%rbp)
	movq	%rsi, %rax
	movq	%rdx, %rsi
	movq	%rsi, %rdx
	movq	%rax, -160(%rbp)
	movq	%rdx, -152(%rbp)
	movq	%rcx, -144(%rbp)
	.loc 2 381 1
	movq	%fs:40, %rax
	movq	%rax, -24(%rbp)
	xorl	%eax, %eax
	.loc 2 383 7
	leaq	-112(%rbp), %rdx
	leaq	-160(%rbp), %rcx
	movq	-144(%rbp), %rax
	movq	%rcx, %rsi
	movq	%rax, %rdi
	call	localtime_rz@PLT
	.loc 2 383 6
	testq	%rax, %rax
	je	.L31
	.loc 2 384 47
	movq	-152(%rbp), %rax
	.loc 2 384 5
	movl	%eax, %edi
	movq	stdout(%rip), %rax
	movq	-144(%rbp), %rcx
	leaq	-112(%rbp), %rdx
	movq	-136(%rbp), %rsi
	movl	%edi, %r8d
	movq	%rax, %rdi
	call	fprintftime@PLT
	.loc 2 392 1
	jmp	.L34
.L31:
.LBB2:
	.loc 2 388 24
	movq	-160(%rbp), %rax
	leaq	-48(%rbp), %rdx
	movq	%rdx, %rsi
	movq	%rax, %rdi
	call	timetostr
	movq	%rax, -120(%rbp)
	.loc 2 389 7
	movq	-120(%rbp), %rax
	movq	%rax, %rdi
	call	quote@PLT
	movq	%rax, %rbx
	.loc 2 389 20
	leaq	.LC68(%rip), %rdi
	call	gettext@PLT
	.loc 2 389 7
	movq	%rbx, %rcx
	movq	%rax, %rdx
	movl	$0, %esi
	movl	$0, %edi
	movl	$0, %eax
	call	error@PLT
	.loc 2 390 7
	movq	stdout(%rip), %rdx
	movq	-120(%rbp), %rax
	movq	%rdx, %rsi
	movq	%rax, %rdi
	call	fputs_unlocked@PLT
.L34:
.LBE2:
	.loc 2 392 1
	nop
	movq	-24(%rbp), %rax
	xorq	%fs:40, %rax
	je	.L33
	call	__stack_chk_fail@PLT
.L33:
	addq	$152, %rsp
	popq	%rbx
	popq	%rbp
	.cfi_def_cfa 7, 8
	ret
	.cfi_endproc
.LFE60:
	.size	show_date, .-show_date
	.section	.rodata
.LC69:
	.string	"Infinity"
	.text
	.type	print_only_size, @function
print_only_size:
.LFB61:
	.loc 2 398 1
	.cfi_startproc
	endbr64
	pushq	%rbp
	.cfi_def_cfa_offset 16
	.cfi_offset 6, -16
	movq	%rsp, %rbp
	.cfi_def_cfa_register 6
	pushq	%rbx
	subq	$696, %rsp
	.cfi_offset 3, -24
	movq	%rdi, -696(%rbp)
	.loc 2 398 1
	movq	%fs:40, %rax
	movq	%rax, -24(%rbp)
	xorl	%eax, %eax
	.loc 2 400 3
	movq	stdout(%rip), %rbx
	cmpq	$-1, -696(%rbp)
	jne	.L36
	.loc 2 400 3 is_stmt 0 discriminator 1
	leaq	.LC69(%rip), %rdi
	call	gettext@PLT
	jmp	.L37
.L36:
	.loc 2 400 3 discriminator 2
	movq	output_block_size(%rip), %rcx
	movl	human_output_opts(%rip), %edx
	leaq	-688(%rbp), %rsi
	movq	-696(%rbp), %rax
	movq	%rcx, %r8
	movl	$1, %ecx
	movq	%rax, %rdi
	call	human_readable@PLT
.L37:
	.loc 2 400 3 discriminator 4
	movq	%rbx, %rsi
	movq	%rax, %rdi
	call	fputs_unlocked@PLT
	.loc 2 405 1 is_stmt 1 discriminator 4
	nop
	movq	-24(%rbp), %rax
	xorq	%fs:40, %rax
	je	.L38
	.loc 2 405 1 is_stmt 0
	call	__stack_chk_fail@PLT
.L38:
	addq	$696, %rsp
	popq	%rbx
	popq	%rbp
	.cfi_def_cfa 7, 8
	ret
	.cfi_endproc
.LFE61:
	.size	print_only_size, .-print_only_size
	.section	.rodata
.LC70:
	.string	"\t%s%c"
	.text
	.type	print_size, @function
print_size:
.LFB62:
	.loc 2 411 1 is_stmt 1
	.cfi_startproc
	endbr64
	pushq	%rbp
	.cfi_def_cfa_offset 16
	.cfi_offset 6, -16
	movq	%rsp, %rbp
	.cfi_def_cfa_register 6
	subq	$16, %rsp
	movq	%rdi, -8(%rbp)
	movq	%rsi, -16(%rbp)
	.loc 2 413 20
	movzbl	opt_inodes(%rip), %eax
	.loc 2 412 3
	testb	%al, %al
	je	.L40
	.loc 2 412 3 is_stmt 0 discriminator 1
	movq	-8(%rbp), %rax
	movq	8(%rax), %rax
	jmp	.L41
.L40:
	.loc 2 412 3 discriminator 2
	movq	-8(%rbp), %rax
	movq	(%rax), %rax
.L41:
	.loc 2 412 3 discriminator 4
	movq	%rax, %rdi
	call	print_only_size
	.loc 2 416 7 is_stmt 1 discriminator 4
	movzbl	opt_time(%rip), %eax
	.loc 2 416 6 discriminator 4
	testb	%al, %al
	je	.L42
	.loc 2 418 7
	movl	$9, %edi
	call	putchar_unlocked@PLT
	.loc 2 419 7
	movq	localtz(%rip), %rcx
	movq	time_format(%rip), %rdi
	movq	-8(%rbp), %rax
	movq	16(%rax), %rdx
	movq	24(%rax), %rax
	movq	%rdx, %rsi
	movq	%rax, %rdx
	call	show_date
.L42:
	.loc 2 421 54
	movzbl	opt_nul_terminate_output(%rip), %eax
	.loc 2 421 3
	testb	%al, %al
	je	.L43
	.loc 2 421 3 is_stmt 0 discriminator 1
	movl	$0, %edx
	jmp	.L44
.L43:
	.loc 2 421 3 discriminator 2
	movl	$10, %edx
.L44:
	.loc 2 421 3 discriminator 4
	movq	-16(%rbp), %rax
	movq	%rax, %rsi
	leaq	.LC70(%rip), %rdi
	movl	$0, %eax
	call	printf@PLT
	.loc 2 422 3 is_stmt 1 discriminator 4
	movq	stdout(%rip), %rax
	movq	%rax, %rdi
	call	fflush_unlocked@PLT
	.loc 2 423 1 discriminator 4
	nop
	leave
	.cfi_def_cfa 7, 8
	ret
	.cfi_endproc
.LFE62:
	.size	print_size, .-print_size
	.type	fill_mount_table, @function
fill_mount_table:
.LFB63:
	.loc 2 429 1
	.cfi_startproc
	endbr64
	pushq	%rbp
	.cfi_def_cfa_offset 16
	.cfi_offset 6, -16
	movq	%rsp, %rbp
	.cfi_def_cfa_register 6
	subq	$176, %rsp
	.loc 2 429 1
	movq	%fs:40, %rax
	movq	%rax, -8(%rbp)
	xorl	%eax, %eax
	.loc 2 430 33
	movl	$0, %edi
	call	read_file_system_list@PLT
	movq	%rax, -176(%rbp)
	.loc 2 431 9
	jmp	.L46
.L49:
.LBB3:
	.loc 2 434 11
	movq	-176(%rbp), %rax
	movzbl	40(%rax), %eax
	andl	$2, %eax
	.loc 2 434 10
	testb	%al, %al
	jne	.L47
	.loc 2 434 34 discriminator 1
	movq	-176(%rbp), %rax
	movzbl	40(%rax), %eax
	andl	$1, %eax
	.loc 2 434 31 discriminator 1
	testb	%al, %al
	jne	.L47
.LBB4:
	.loc 2 437 29
	movq	-176(%rbp), %rax
	movq	8(%rax), %rax
	.loc 2 437 16
	leaq	-160(%rbp), %rdx
	movq	%rdx, %rsi
	movq	%rax, %rdi
	call	stat@PLT
	.loc 2 437 14
	testl	%eax, %eax
	jne	.L47
	.loc 2 438 13
	movq	-160(%rbp), %rdx
	movq	-152(%rbp), %rcx
	movq	di_mnt(%rip), %rax
	movq	%rcx, %rsi
	movq	%rax, %rdi
	call	hash_ins
.L47:
.LBE4:
	.loc 2 446 16
	movq	-176(%rbp), %rax
	movq	%rax, -168(%rbp)
	.loc 2 447 15
	movq	-176(%rbp), %rax
	movq	48(%rax), %rax
	movq	%rax, -176(%rbp)
	.loc 2 448 7
	movq	-168(%rbp), %rax
	movq	%rax, %rdi
	call	free_mount_entry@PLT
.L46:
.LBE3:
	.loc 2 431 9
	cmpq	$0, -176(%rbp)
	jne	.L49
	.loc 2 450 1
	nop
	movq	-8(%rbp), %rax
	xorq	%fs:40, %rax
	je	.L50
	call	__stack_chk_fail@PLT
.L50:
	leave
	.cfi_def_cfa 7, 8
	ret
	.cfi_endproc
.LFE63:
	.size	fill_mount_table, .-fill_mount_table
	.type	mount_point_in_fts_cycle, @function
mount_point_in_fts_cycle:
.LFB64:
	.loc 2 457 1
	.cfi_startproc
	endbr64
	pushq	%rbp
	.cfi_def_cfa_offset 16
	.cfi_offset 6, -16
	movq	%rsp, %rbp
	.cfi_def_cfa_register 6
	subq	$32, %rsp
	movq	%rdi, -24(%rbp)
	.loc 2 458 17
	movq	-24(%rbp), %rax
	movq	(%rax), %rax
	movq	%rax, -8(%rbp)
	.loc 2 460 7
	movq	di_mnt(%rip), %rax
	.loc 2 460 6
	testq	%rax, %rax
	jne	.L54
	.loc 2 463 16
	call	di_set_alloc@PLT
	.loc 2 463 14
	movq	%rax, di_mnt(%rip)
	.loc 2 464 11
	movq	di_mnt(%rip), %rax
	.loc 2 464 10
	testq	%rax, %rax
	jne	.L53
	.loc 2 465 9
	call	xalloc_die@PLT
.L53:
	.loc 2 467 7
	call	fill_mount_table
	.loc 2 470 9
	jmp	.L54
.L58:
	.loc 2 472 11
	movq	-24(%rbp), %rax
	movq	120(%rax), %rdx
	movq	-24(%rbp), %rax
	movq	112(%rax), %rcx
	movq	di_mnt(%rip), %rax
	movq	%rcx, %rsi
	movq	%rax, %rdi
	call	di_set_lookup@PLT
	.loc 2 472 10
	testl	%eax, %eax
	jle	.L55
	.loc 2 475 18
	movl	$1, %eax
	jmp	.L56
.L55:
	.loc 2 477 11
	movq	-24(%rbp), %rax
	movq	8(%rax), %rax
	movq	%rax, -24(%rbp)
.L54:
	.loc 2 470 9
	cmpq	$0, -24(%rbp)
	je	.L57
	.loc 2 470 14 discriminator 1
	movq	-24(%rbp), %rax
	cmpq	-8(%rbp), %rax
	jne	.L58
.L57:
	.loc 2 480 10
	movl	$0, %eax
.L56:
	.loc 2 481 1
	leave
	.cfi_def_cfa 7, 8
	ret
	.cfi_endproc
.LFE64:
	.size	mount_point_in_fts_cycle, .-mount_point_in_fts_cycle
	.section	.rodata
.LC71:
	.string	"cannot read directory %s"
.LC72:
	.string	"src/du.c"
.LC73:
	.string	"e == ent"
.LC74:
	.string	"cannot access %s"
.LC75:
	.string	"%s"
	.align 8
.LC76:
	.string	"WARNING: Circular directory structure.\nThis almost certainly means that you have a corrupted file system.\nNOTIFY YOUR SYSTEM MANAGER.\nThe following directory is part of the cycle:\n  %s\n"
.LC77:
	.string	"level == prev_level - 1"
	.text
	.type	process_file, @function
process_file:
.LFB65:
	.loc 2 490 1
	.cfi_startproc
	endbr64
	pushq	%rbp
	.cfi_def_cfa_offset 16
	.cfi_offset 6, -16
	movq	%rsp, %rbp
	.cfi_def_cfa_register 6
	pushq	%rbx
	subq	$168, %rsp
	.cfi_offset 3, -24
	movq	%rdi, -168(%rbp)
	movq	%rsi, -176(%rbp)
	.loc 2 490 1
	movq	%fs:40, %rax
	movq	%rax, -24(%rbp)
	xorl	%eax, %eax
	.loc 2 491 8
	movb	$1, -158(%rbp)
	.loc 2 506 15
	movq	-176(%rbp), %rax
	movq	56(%rax), %rax
	movq	%rax, -144(%rbp)
	.loc 2 507 22
	movq	-176(%rbp), %rax
	addq	$112, %rax
	movq	%rax, -136(%rbp)
	.loc 2 508 17
	movq	-176(%rbp), %rax
	movzwl	104(%rax), %eax
	.loc 2 508 7
	movzwl	%ax, %eax
	movl	%eax, -156(%rbp)
	.loc 2 510 6
	cmpl	$4, -156(%rbp)
	jne	.L60
	.loc 2 513 7
	movq	-144(%rbp), %rax
	movq	%rax, %rsi
	movl	$4, %edi
	call	quotearg_style@PLT
	movq	%rax, %rbx
	.loc 2 513 33
	leaq	.LC71(%rip), %rdi
	call	gettext@PLT
	movq	%rax, %rdx
	.loc 2 513 7
	movq	-176(%rbp), %rax
	movl	64(%rax), %eax
	movq	%rbx, %rcx
	movl	%eax, %esi
	movl	$0, %edi
	movl	$0, %eax
	call	error@PLT
	.loc 2 514 10
	movb	$0, -158(%rbp)
	jmp	.L61
.L60:
	.loc 2 516 11
	cmpl	$6, -156(%rbp)
	je	.L102
.LBB5:
	.loc 2 518 23
	movq	exclude(%rip), %rax
	movq	-144(%rbp), %rdx
	movq	%rdx, %rsi
	movq	%rax, %rdi
	call	excluded_file_name@PLT
	movb	%al, -157(%rbp)
	.loc 2 519 11
	movzbl	-157(%rbp), %eax
	xorl	$1, %eax
	.loc 2 519 10
	testb	%al, %al
	je	.L62
	.loc 2 523 14
	cmpl	$11, -156(%rbp)
	jne	.L63
.LBB6:
	.loc 2 525 15
	movq	-176(%rbp), %rcx
	movq	-168(%rbp), %rax
	movl	$1, %edx
	movq	%rcx, %rsi
	movq	%rax, %rdi
	call	rpl_fts_set@PLT
	.loc 2 526 33
	movq	-168(%rbp), %rax
	movq	%rax, %rdi
	call	rpl_fts_read@PLT
	movq	%rax, -128(%rbp)
	.loc 2 527 15
	movq	-128(%rbp), %rax
	cmpq	-176(%rbp), %rax
	je	.L64
	.loc 2 527 15 is_stmt 0 discriminator 1
	leaq	__PRETTY_FUNCTION__.6672(%rip), %rcx
	movl	$527, %edx
	leaq	.LC72(%rip), %rsi
	leaq	.LC73(%rip), %rdi
	call	__assert_fail@PLT
.L64:
	.loc 2 528 25 is_stmt 1
	movq	-176(%rbp), %rax
	movzwl	104(%rax), %eax
	.loc 2 528 20
	movzwl	%ax, %eax
	movl	%eax, -156(%rbp)
.L63:
.LBE6:
	.loc 2 531 14
	cmpl	$10, -156(%rbp)
	je	.L65
	.loc 2 531 30 discriminator 1
	cmpl	$13, -156(%rbp)
	jne	.L66
.L65:
	.loc 2 533 15
	movq	-144(%rbp), %rax
	movq	%rax, %rsi
	movl	$4, %edi
	call	quotearg_style@PLT
	movq	%rax, %rbx
	.loc 2 533 41
	leaq	.LC74(%rip), %rdi
	call	gettext@PLT
	movq	%rax, %rdx
	.loc 2 533 15
	movq	-176(%rbp), %rax
	movl	64(%rax), %eax
	movq	%rbx, %rcx
	movl	%eax, %esi
	movl	$0, %edi
	movl	$0, %eax
	call	error@PLT
	.loc 2 534 22
	movl	$0, %eax
	jmp	.L100
.L66:
	.loc 2 542 18
	movq	-168(%rbp), %rax
	movl	72(%rax), %eax
	.loc 2 542 32
	andl	$64, %eax
	.loc 2 542 14
	testl	%eax, %eax
	je	.L62
	.loc 2 543 37
	movq	-176(%rbp), %rax
	movq	88(%rax), %rax
	.loc 2 543 15
	testq	%rax, %rax
	jle	.L62
	.loc 2 544 21
	movq	-168(%rbp), %rax
	movq	24(%rax), %rdx
	.loc 2 544 36
	movq	-136(%rbp), %rax
	movq	(%rax), %rax
	.loc 2 544 15
	cmpq	%rax, %rdx
	je	.L62
	.loc 2 545 22
	movb	$1, -157(%rbp)
.L62:
	.loc 2 548 10
	cmpb	$0, -157(%rbp)
	jne	.L68
	.loc 2 549 15
	movzbl	opt_count_all(%rip), %eax
	xorl	$1, %eax
	.loc 2 549 11
	testb	%al, %al
	je	.L69
	.loc 2 550 19
	movzbl	hash_all(%rip), %eax
	.loc 2 550 15
	testb	%al, %al
	jne	.L70
	.loc 2 550 34 discriminator 1
	movq	-136(%rbp), %rax
	movl	24(%rax), %eax
	andl	$61440, %eax
	.loc 2 550 28 discriminator 1
	cmpl	$16384, %eax
	je	.L69
	.loc 2 550 65 discriminator 2
	movq	-136(%rbp), %rax
	movq	16(%rax), %rax
	.loc 2 550 56 discriminator 2
	cmpq	$1, %rax
	jbe	.L69
.L70:
	.loc 2 551 20
	movq	-136(%rbp), %rax
	movq	(%rax), %rdx
	movq	-136(%rbp), %rax
	movq	8(%rax), %rcx
	movq	di_files(%rip), %rax
	movq	%rcx, %rsi
	movq	%rax, %rdi
	call	hash_ins
	.loc 2 551 18
	xorl	$1, %eax
	.loc 2 551 15
	testb	%al, %al
	je	.L69
.L68:
	.loc 2 556 14
	cmpl	$1, -156(%rbp)
	jne	.L71
.LBB7:
	.loc 2 558 15
	movq	-176(%rbp), %rcx
	movq	-168(%rbp), %rax
	movl	$4, %edx
	movq	%rcx, %rsi
	movq	%rax, %rdi
	call	rpl_fts_set@PLT
	.loc 2 559 33
	movq	-168(%rbp), %rax
	movq	%rax, %rdi
	call	rpl_fts_read@PLT
	movq	%rax, -120(%rbp)
	.loc 2 560 15
	movq	-120(%rbp), %rax
	cmpq	-176(%rbp), %rax
	je	.L71
	.loc 2 560 15 is_stmt 0 discriminator 1
	leaq	__PRETTY_FUNCTION__.6672(%rip), %rcx
	movl	$560, %edx
	leaq	.LC72(%rip), %rsi
	leaq	.LC73(%rip), %rdi
	call	__assert_fail@PLT
.L71:
.LBE7:
	.loc 2 563 18 is_stmt 1
	movl	$1, %eax
	jmp	.L100
.L69:
	.loc 2 566 7
	cmpl	$7, -156(%rbp)
	je	.L72
	cmpl	$7, -156(%rbp)
	jg	.L61
	cmpl	$1, -156(%rbp)
	je	.L73
	cmpl	$2, -156(%rbp)
	je	.L74
	jmp	.L61
.L73:
	.loc 2 569 18
	movl	$1, %eax
	jmp	.L100
.L72:
	.loc 2 573 11
	movq	-144(%rbp), %rax
	movq	%rax, %rdx
	movl	$3, %esi
	movl	$0, %edi
	call	quotearg_n_style_colon@PLT
	movq	%rax, %rdx
	movq	-176(%rbp), %rax
	movl	64(%rax), %eax
	movq	%rdx, %rcx
	leaq	.LC75(%rip), %rdx
	movl	%eax, %esi
	movl	$0, %edi
	movl	$0, %eax
	call	error@PLT
	.loc 2 574 14
	movb	$0, -158(%rbp)
	.loc 2 575 11
	jmp	.L61
.L74:
	.loc 2 579 15
	movq	-176(%rbp), %rdx
	movq	-168(%rbp), %rax
	movq	%rdx, %rsi
	movq	%rax, %rdi
	call	cycle_warning_required@PLT
	.loc 2 579 14
	testb	%al, %al
	je	.L75
	.loc 2 580 20
	movq	-176(%rbp), %rax
	movq	%rax, %rdi
	call	mount_point_in_fts_cycle
	.loc 2 580 18
	xorl	$1, %eax
	.loc 2 580 15
	testb	%al, %al
	je	.L75
	.loc 2 582 15
	movq	-144(%rbp), %rax
	movq	%rax, %rdx
	movl	$3, %esi
	movl	$0, %edi
	call	quotearg_n_style_colon@PLT
	movq	%rax, %rbx
	leaq	.LC76(%rip), %rdi
	call	gettext@PLT
	movq	%rbx, %rcx
	movq	%rax, %rdx
	movl	$0, %esi
	movl	$0, %edi
	movl	$0, %eax
	call	error@PLT
	.loc 2 583 22
	movl	$0, %eax
	jmp	.L100
.L75:
	.loc 2 585 18
	movl	$1, %eax
	jmp	.L100
.L102:
	.loc 2 587 5
	nop
.L61:
.LBE5:
	.loc 2 593 26
	movl	time_type(%rip), %eax
	.loc 2 589 3
	testl	%eax, %eax
	jne	.L76
	.loc 2 593 42
	movq	-136(%rbp), %rax
	movq	%rax, %rdi
	call	get_stat_mtime@PLT
	jmp	.L77
.L76:
	.loc 2 594 28 discriminator 1
	movl	time_type(%rip), %eax
	.loc 2 589 3 discriminator 1
	cmpl	$2, %eax
	jne	.L78
	.loc 2 594 44
	movq	-136(%rbp), %rax
	movq	%rax, %rdi
	call	get_stat_atime@PLT
	jmp	.L77
.L78:
	.loc 2 595 18
	movq	-136(%rbp), %rax
	movq	%rax, %rdi
	call	get_stat_ctime@PLT
.L77:
	.loc 2 591 16
	movzbl	apparent_size(%rip), %ecx
	.loc 2 589 3
	testb	%cl, %cl
	je	.L79
	.loc 2 591 18 discriminator 2
	movq	-136(%rbp), %rcx
	movq	48(%rcx), %rcx
	movl	$0, %esi
	testq	%rcx, %rcx
	cmovs	%rsi, %rcx
	.loc 2 589 3 discriminator 2
	movq	%rcx, %rsi
	jmp	.L80
.L79:
	.loc 2 592 30 discriminator 3
	movq	-136(%rbp), %rcx
	movq	64(%rcx), %rcx
	.loc 2 589 3 discriminator 3
	movq	%rcx, %rsi
	salq	$9, %rsi
.L80:
	.loc 2 589 3 is_stmt 0 discriminator 5
	leaq	-96(%rbp), %rdi
	movq	%rdx, %rcx
	movq	%rax, %rdx
	call	duinfo_set
	.loc 2 597 14 is_stmt 1 discriminator 5
	movq	-176(%rbp), %rax
	movq	88(%rax), %rax
	.loc 2 597 9 discriminator 5
	movq	%rax, -112(%rbp)
	.loc 2 598 16 discriminator 5
	movq	-96(%rbp), %rax
	movq	-88(%rbp), %rdx
	movq	%rax, -64(%rbp)
	movq	%rdx, -56(%rbp)
	movq	-80(%rbp), %rax
	movq	-72(%rbp), %rdx
	movq	%rax, -48(%rbp)
	movq	%rdx, -40(%rbp)
	.loc 2 600 15 discriminator 5
	movq	n_alloc.6665(%rip), %rax
	.loc 2 600 6 discriminator 5
	testq	%rax, %rax
	jne	.L81
	.loc 2 602 23
	movq	-112(%rbp), %rax
	addq	$10, %rax
	.loc 2 602 15
	movq	%rax, n_alloc.6665(%rip)
	.loc 2 603 15
	movq	n_alloc.6665(%rip), %rax
	movl	$64, %esi
	movq	%rax, %rdi
	call	xcalloc@PLT
	.loc 2 603 13
	movq	%rax, dulvl.6666(%rip)
	jmp	.L82
.L81:
	.loc 2 607 17
	movq	prev_level(%rip), %rax
	.loc 2 607 10
	cmpq	%rax, -112(%rbp)
	je	.L82
	.loc 2 611 22
	movq	prev_level(%rip), %rax
	.loc 2 611 15
	cmpq	%rax, -112(%rbp)
	jbe	.L83
	.loc 2 618 23
	movq	n_alloc.6665(%rip), %rax
	.loc 2 618 14
	cmpq	%rax, -112(%rbp)
	jb	.L84
	.loc 2 620 23
	movq	dulvl.6666(%rip), %rax
	movq	-112(%rbp), %rcx
	movl	$128, %edx
	movq	%rcx, %rsi
	movq	%rax, %rdi
	call	xnrealloc@PLT
	.loc 2 620 21
	movq	%rax, dulvl.6666(%rip)
	.loc 2 621 31
	movq	-112(%rbp), %rax
	addq	%rax, %rax
	.loc 2 621 23
	movq	%rax, n_alloc.6665(%rip)
.L84:
.LBB8:
	.loc 2 624 38
	movq	prev_level(%rip), %rax
	.loc 2 624 23
	addq	$1, %rax
	movq	%rax, -152(%rbp)
	.loc 2 624 11
	jmp	.L85
.L86:
	.loc 2 626 34 discriminator 3
	movq	dulvl.6666(%rip), %rax
	movq	-152(%rbp), %rdx
	salq	$6, %rdx
	addq	%rdx, %rax
	.loc 2 626 15 discriminator 3
	movq	%rax, %rdi
	call	duinfo_init
	.loc 2 627 34 discriminator 3
	movq	dulvl.6666(%rip), %rax
	movq	-152(%rbp), %rdx
	salq	$6, %rdx
	addq	%rdx, %rax
	.loc 2 627 15 discriminator 3
	addq	$32, %rax
	movq	%rax, %rdi
	call	duinfo_init
	.loc 2 624 56 discriminator 3
	addq	$1, -152(%rbp)
.L85:
	.loc 2 624 11 discriminator 1
	movq	-152(%rbp), %rax
	cmpq	-112(%rbp), %rax
	jbe	.L86
	jmp	.L82
.L83:
.LBE8:
	.loc 2 638 11
	movq	prev_level(%rip), %rax
	subq	$1, %rax
	cmpq	%rax, -112(%rbp)
	je	.L87
	.loc 2 638 11 is_stmt 0 discriminator 1
	leaq	__PRETTY_FUNCTION__.6672(%rip), %rcx
	movl	$638, %edx
	leaq	.LC72(%rip), %rsi
	leaq	.LC77(%rip), %rdi
	call	__assert_fail@PLT
.L87:
	.loc 2 639 44 is_stmt 1
	movq	dulvl.6666(%rip), %rax
	movq	prev_level(%rip), %rdx
	salq	$6, %rdx
	addq	%rdx, %rax
	.loc 2 639 38
	movq	%rax, %rdx
	.loc 2 639 11
	leaq	-64(%rbp), %rax
	movq	%rdx, %rsi
	movq	%rax, %rdi
	call	duinfo_add
	.loc 2 640 15
	movzbl	opt_separate_dirs(%rip), %eax
	xorl	$1, %eax
	.loc 2 640 14
	testb	%al, %al
	je	.L88
	.loc 2 641 46
	movq	dulvl.6666(%rip), %rax
	movq	prev_level(%rip), %rdx
	salq	$6, %rdx
	addq	%rdx, %rax
	.loc 2 641 40
	leaq	32(%rax), %rdx
	.loc 2 641 13
	leaq	-64(%rbp), %rax
	movq	%rdx, %rsi
	movq	%rax, %rdi
	call	duinfo_add
.L88:
	.loc 2 642 51
	movq	dulvl.6666(%rip), %rax
	movq	prev_level(%rip), %rdx
	salq	$6, %rdx
	addq	%rdx, %rax
	.loc 2 642 45
	movq	%rax, %rcx
	.loc 2 642 29
	movq	dulvl.6666(%rip), %rax
	movq	-112(%rbp), %rdx
	salq	$6, %rdx
	addq	%rdx, %rax
	.loc 2 642 11
	addq	$32, %rax
	movq	%rcx, %rsi
	movq	%rax, %rdi
	call	duinfo_add
	.loc 2 643 51
	movq	dulvl.6666(%rip), %rax
	movq	prev_level(%rip), %rdx
	salq	$6, %rdx
	addq	%rdx, %rax
	.loc 2 643 45
	leaq	32(%rax), %rdx
	.loc 2 643 29
	movq	dulvl.6666(%rip), %rax
	movq	-112(%rbp), %rcx
	salq	$6, %rcx
	addq	%rcx, %rax
	.loc 2 643 11
	addq	$32, %rax
	movq	%rdx, %rsi
	movq	%rax, %rdi
	call	duinfo_add
.L82:
	.loc 2 647 14
	movq	-112(%rbp), %rax
	movq	%rax, prev_level(%rip)
	.loc 2 651 10
	movzbl	opt_separate_dirs(%rip), %eax
	xorl	$1, %eax
	.loc 2 651 6
	testb	%al, %al
	jne	.L89
	.loc 2 651 7 discriminator 1
	cmpl	$6, -156(%rbp)
	je	.L90
	.loc 2 651 31 discriminator 2
	cmpl	$4, -156(%rbp)
	je	.L90
.L89:
	.loc 2 652 23
	movq	dulvl.6666(%rip), %rax
	movq	-112(%rbp), %rdx
	salq	$6, %rdx
	addq	%rdx, %rax
	.loc 2 652 5
	movq	%rax, %rdx
	leaq	-96(%rbp), %rax
	movq	%rax, %rsi
	movq	%rdx, %rdi
	call	duinfo_add
.L90:
	.loc 2 656 3
	leaq	-96(%rbp), %rax
	movq	%rax, %rsi
	leaq	tot_dui(%rip), %rdi
	call	duinfo_add
	.loc 2 658 6
	cmpl	$6, -156(%rbp)
	je	.L91
	.loc 2 658 8 discriminator 2
	cmpl	$4, -156(%rbp)
	jne	.L92
.L91:
	.loc 2 658 36 discriminator 3
	movq	max_depth(%rip), %rax
	.loc 2 658 27 discriminator 3
	cmpq	%rax, -112(%rbp)
	jbe	.L93
.L92:
	.loc 2 659 11
	movzbl	opt_all(%rip), %eax
	.loc 2 659 7
	testb	%al, %al
	je	.L94
	.loc 2 659 28 discriminator 1
	movq	max_depth(%rip), %rax
	.loc 2 659 19 discriminator 1
	cmpq	%rax, -112(%rbp)
	jbe	.L93
.L94:
	.loc 2 660 7
	cmpq	$0, -112(%rbp)
	jne	.L95
.L93:
.LBB9:
	.loc 2 663 32
	movzbl	opt_inodes(%rip), %eax
	.loc 2 663 54
	testb	%al, %al
	je	.L96
	.loc 2 663 54 is_stmt 0 discriminator 1
	movq	-56(%rbp), %rax
	jmp	.L97
.L96:
	.loc 2 663 54 discriminator 2
	movq	-64(%rbp), %rax
.L97:
	.loc 2 663 17 is_stmt 1 discriminator 4
	movq	%rax, -104(%rbp)
	.loc 2 664 25 discriminator 4
	movq	opt_threshold(%rip), %rax
	.loc 2 664 11 discriminator 4
	testq	%rax, %rax
	jns	.L98
	.loc 2 665 18 discriminator 1
	movq	opt_threshold(%rip), %rax
	negq	%rax
	.loc 2 664 11 discriminator 1
	cmpq	%rax, -104(%rbp)
	setbe	%al
	jmp	.L99
.L98:
	.loc 2 666 15 discriminator 2
	movq	opt_threshold(%rip), %rax
	.loc 2 664 11 discriminator 2
	cmpq	%rax, -104(%rbp)
	setnb	%al
.L99:
	.loc 2 664 10 discriminator 4
	testb	%al, %al
	je	.L95
	.loc 2 667 9
	movq	-144(%rbp), %rdx
	leaq	-64(%rbp), %rax
	movq	%rdx, %rsi
	movq	%rax, %rdi
	call	print_size
.L95:
.LBE9:
	.loc 2 670 10
	movzbl	-158(%rbp), %eax
.L100:
	.loc 2 671 1 discriminator 1
	movq	-24(%rbp), %rbx
	xorq	%fs:40, %rbx
	je	.L101
	.loc 2 671 1 is_stmt 0
	call	__stack_chk_fail@PLT
.L101:
	addq	$168, %rsp
	popq	%rbx
	popq	%rbp
	.cfi_def_cfa 7, 8
	ret
	.cfi_endproc
.LFE65:
	.size	process_file, .-process_file
	.section	.rodata
.LC78:
	.string	"fts_read failed: %s"
.LC79:
	.string	"fts_close failed"
	.text
	.type	du_files, @function
du_files:
.LFB66:
	.loc 2 680 1 is_stmt 1
	.cfi_startproc
	endbr64
	pushq	%rbp
	.cfi_def_cfa_offset 16
	.cfi_offset 6, -16
	movq	%rsp, %rbp
	.cfi_def_cfa_register 6
	pushq	%r12
	pushq	%rbx
	subq	$48, %rsp
	.cfi_offset 12, -24
	.cfi_offset 3, -32
	movq	%rdi, -56(%rbp)
	movl	%esi, -60(%rbp)
	.loc 2 681 8
	movb	$1, -33(%rbp)
	.loc 2 683 7
	movq	-56(%rbp), %rax
	movq	(%rax), %rax
	.loc 2 683 6
	testq	%rax, %rax
	je	.L104
.LBB10:
	.loc 2 685 18
	movl	-60(%rbp), %ecx
	movq	-56(%rbp), %rax
	movl	$0, %edx
	movl	%ecx, %esi
	movq	%rax, %rdi
	call	xfts_open@PLT
	movq	%rax, -32(%rbp)
.L108:
.LBB11:
	.loc 2 691 17
	movq	-32(%rbp), %rax
	movq	%rax, %rdi
	call	rpl_fts_read@PLT
	movq	%rax, -24(%rbp)
	.loc 2 692 14
	cmpq	$0, -24(%rbp)
	jne	.L105
	.loc 2 694 19
	call	__errno_location@PLT
	movl	(%rax), %eax
	.loc 2 694 18
	testl	%eax, %eax
	je	.L106
	.loc 2 697 26
	movq	-32(%rbp), %rax
	movq	32(%rax), %rax
	.loc 2 696 19
	movq	%rax, %rdx
	movl	$3, %esi
	movl	$0, %edi
	call	quotearg_n_style_colon@PLT
	movq	%rax, %r12
	.loc 2 696 36
	leaq	.LC78(%rip), %rdi
	call	gettext@PLT
	movq	%rax, %rbx
	.loc 2 696 29
	call	__errno_location@PLT
	.loc 2 696 19
	movl	(%rax), %eax
	movq	%r12, %rcx
	movq	%rbx, %rdx
	movl	%eax, %esi
	movl	$0, %edi
	movl	$0, %eax
	call	error@PLT
	.loc 2 698 22
	movb	$0, -33(%rbp)
.L106:
	.loc 2 704 26
	movq	$0, prev_level(%rip)
	.loc 2 705 15
	nop
.LBE11:
	.loc 2 712 11
	movq	-32(%rbp), %rax
	movq	%rax, %rdi
	call	rpl_fts_close@PLT
	.loc 2 712 10
	testl	%eax, %eax
	je	.L104
	jmp	.L110
.L105:
.LBB12:
	.loc 2 709 17
	movq	-24(%rbp), %rdx
	movq	-32(%rbp), %rax
	movq	%rdx, %rsi
	movq	%rax, %rdi
	call	process_file
	.loc 2 709 14
	movzbl	-33(%rbp), %edx
	.loc 2 709 17
	movzbl	%al, %eax
	.loc 2 709 14
	andl	%edx, %eax
	testl	%eax, %eax
	setne	%al
	movb	%al, -33(%rbp)
.LBE12:
	.loc 2 688 9
	jmp	.L108
.L110:
	.loc 2 714 28
	leaq	.LC79(%rip), %rdi
	call	gettext@PLT
	movq	%rax, %rbx
	.loc 2 714 21
	call	__errno_location@PLT
	.loc 2 714 11
	movl	(%rax), %eax
	movq	%rbx, %rdx
	movl	%eax, %esi
	movl	$0, %edi
	movl	$0, %eax
	call	error@PLT
	.loc 2 715 14
	movb	$0, -33(%rbp)
.L104:
.LBE10:
	.loc 2 719 10
	movzbl	-33(%rbp), %eax
	.loc 2 720 1
	addq	$48, %rsp
	popq	%rbx
	popq	%r12
	popq	%rbp
	.cfi_def_cfa 7, 8
	ret
	.cfi_endproc
.LFE66:
	.size	du_files, .-du_files
	.section	.rodata
.LC80:
	.string	"."
.LC81:
	.string	"/usr/local/share/locale"
.LC82:
	.string	"DU_BLOCK_SIZE"
.LC83:
	.string	"0abd:chHklmst:xB:DLPSX:"
.LC84:
	.string	"invalid maximum depth %s"
.LC85:
	.string	"kKmMGTPEZY0"
	.align 8
.LC86:
	.string	"invalid --threshold argument '-0'"
.LC87:
	.string	"--time"
.LC88:
	.string	"TZ"
.LC89:
	.string	"David MacKenzie"
.LC90:
	.string	"Torbjorn Granlund"
.LC91:
	.string	"Jim Meyering"
.LC92:
	.string	"Paul Eggert"
	.align 8
.LC93:
	.string	"cannot both summarize and show all entries"
	.align 8
.LC94:
	.string	"warning: summarizing is the same as using --max-depth=0"
	.align 8
.LC95:
	.string	"warning: summarizing conflicts with --max-depth=%lu"
	.align 8
.LC96:
	.string	"warning: options --apparent-size and -b are ineffective with --inodes"
.LC97:
	.string	"TIME_STYLE"
.LC98:
	.string	"locale"
.LC99:
	.string	"time style"
.LC100:
	.string	"%Y-%m-%d %H:%M:%S.%N %z"
.LC101:
	.string	"%Y-%m-%d %H:%M"
.LC102:
	.string	"%Y-%m-%d"
.LC103:
	.string	"extra operand %s"
	.align 8
.LC104:
	.string	"file operands cannot be combined with --files0-from"
.LC105:
	.string	"%s\n"
.LC106:
	.string	"-"
.LC107:
	.string	"r"
.LC108:
	.string	"cannot open %s for reading"
.LC109:
	.string	"%s: read error"
	.align 8
.LC110:
	.string	"!\"unexpected error code from argv_iter\""
	.align 8
.LC111:
	.string	"when reading file names from stdin, no file name of %s allowed"
.LC112:
	.string	"invalid zero-length file name"
.LC113:
	.string	"%s:%lu: %s"
.LC114:
	.string	"error reading %s"
	.text
	.globl	main
	.type	main, @function
main:
.LFB67:
	.loc 2 724 1
	.cfi_startproc
	endbr64
	pushq	%rbp
	.cfi_def_cfa_offset 16
	.cfi_offset 6, -16
	movq	%rsp, %rbp
	.cfi_def_cfa_register 6
	pushq	%r12
	pushq	%rbx
	subq	$144, %rsp
	.cfi_offset 12, -24
	.cfi_offset 3, -32
	movl	%edi, -148(%rbp)
	movq	%rsi, -160(%rbp)
	.loc 2 724 1
	movq	%fs:40, %rax
	movq	%rax, -24(%rbp)
	xorl	%eax, %eax
	.loc 2 726 8
	movb	$0, -140(%rbp)
	.loc 2 727 8
	movb	$1, -139(%rbp)
	.loc 2 728 9
	movq	$0, -104(%rbp)
	.loc 2 731 7
	movl	$8, -132(%rbp)
	.loc 2 735 7
	movl	$16, -128(%rbp)
	.loc 2 738 8
	movb	$0, -138(%rbp)
	.loc 2 740 17
	leaq	.LC80(%rip), %rdi
	call	bad_cast
	.loc 2 740 15
	movq	%rax, -48(%rbp)
	.loc 2 741 15
	movq	$0, -40(%rbp)
	.loc 2 744 3
	movq	-160(%rbp), %rax
	movq	(%rax), %rax
	movq	%rax, %rdi
	call	set_program_name@PLT
	.loc 2 745 3
	leaq	.LC19(%rip), %rsi
	movl	$6, %edi
	call	setlocale@PLT
	.loc 2 746 3
	leaq	.LC81(%rip), %rsi
	leaq	.LC5(%rip), %rdi
	call	bindtextdomain@PLT
	.loc 2 747 3
	leaq	.LC5(%rip), %rdi
	call	textdomain@PLT
	.loc 2 749 3
	movq	close_stdout@GOTPCREL(%rip), %rax
	movq	%rax, %rdi
	call	atexit@PLT
	.loc 2 751 13
	call	new_exclude@PLT
	.loc 2 751 11
	movq	%rax, exclude(%rip)
	.loc 2 753 18
	leaq	.LC82(%rip), %rdi
	call	getenv@PLT
	.loc 2 753 3
	leaq	output_block_size(%rip), %rdx
	leaq	human_output_opts(%rip), %rsi
	movq	%rax, %rdi
	call	human_options@PLT
.L154:
.LBB13:
	.loc 2 758 11
	movl	$-1, -136(%rbp)
	.loc 2 759 15
	leaq	-136(%rbp), %rdx
	movq	-160(%rbp), %rsi
	movl	-148(%rbp), %eax
	movq	%rdx, %r8
	leaq	long_options(%rip), %rcx
	leaq	.LC83(%rip), %rdx
	movl	%eax, %edi
	call	getopt_long@PLT
	movl	%eax, -124(%rbp)
	.loc 2 761 10
	cmpl	$-1, -124(%rbp)
	jne	.L112
.LBE13:
	.loc 2 927 7
	movzbl	-139(%rbp), %eax
	xorl	$1, %eax
	.loc 2 927 6
	testb	%al, %al
	jne	.L113
	jmp	.L205
.L112:
.LBB19:
	.loc 2 764 7
	cmpl	$135, -124(%rbp)
	jg	.L115
	cmpl	$48, -124(%rbp)
	jge	.L116
	cmpl	$-131, -124(%rbp)
	je	.L117
	cmpl	$-130, -124(%rbp)
	je	.L118
	jmp	.L115
.L116:
	movl	-124(%rbp), %eax
	subl	$48, %eax
	cmpl	$87, %eax
	ja	.L115
	movl	%eax, %eax
	leaq	0(,%rax,4), %rdx
	leaq	.L120(%rip), %rax
	movl	(%rdx,%rax), %eax
	cltq
	leaq	.L120(%rip), %rdx
	addq	%rdx, %rax
	notrack jmp	*%rax
	.section	.rodata
	.align 4
	.align 4
.L120:
	.long	.L144-.L120
	.long	.L115-.L120
	.long	.L115-.L120
	.long	.L115-.L120
	.long	.L115-.L120
	.long	.L115-.L120
	.long	.L115-.L120
	.long	.L115-.L120
	.long	.L115-.L120
	.long	.L115-.L120
	.long	.L115-.L120
	.long	.L115-.L120
	.long	.L115-.L120
	.long	.L115-.L120
	.long	.L115-.L120
	.long	.L115-.L120
	.long	.L115-.L120
	.long	.L115-.L120
	.long	.L143-.L120
	.long	.L115-.L120
	.long	.L142-.L120
	.long	.L115-.L120
	.long	.L115-.L120
	.long	.L115-.L120
	.long	.L142-.L120
	.long	.L115-.L120
	.long	.L115-.L120
	.long	.L115-.L120
	.long	.L141-.L120
	.long	.L115-.L120
	.long	.L115-.L120
	.long	.L115-.L120
	.long	.L140-.L120
	.long	.L115-.L120
	.long	.L115-.L120
	.long	.L139-.L120
	.long	.L115-.L120
	.long	.L115-.L120
	.long	.L115-.L120
	.long	.L115-.L120
	.long	.L138-.L120
	.long	.L115-.L120
	.long	.L115-.L120
	.long	.L115-.L120
	.long	.L115-.L120
	.long	.L115-.L120
	.long	.L115-.L120
	.long	.L115-.L120
	.long	.L115-.L120
	.long	.L137-.L120
	.long	.L136-.L120
	.long	.L135-.L120
	.long	.L134-.L120
	.long	.L115-.L120
	.long	.L115-.L120
	.long	.L115-.L120
	.long	.L133-.L120
	.long	.L115-.L120
	.long	.L115-.L120
	.long	.L132-.L120
	.long	.L131-.L120
	.long	.L130-.L120
	.long	.L115-.L120
	.long	.L115-.L120
	.long	.L115-.L120
	.long	.L115-.L120
	.long	.L115-.L120
	.long	.L129-.L120
	.long	.L128-.L120
	.long	.L115-.L120
	.long	.L115-.L120
	.long	.L115-.L120
	.long	.L127-.L120
	.long	.L115-.L120
	.long	.L115-.L120
	.long	.L115-.L120
	.long	.L115-.L120
	.long	.L115-.L120
	.long	.L115-.L120
	.long	.L115-.L120
	.long	.L126-.L120
	.long	.L125-.L120
	.long	.L124-.L120
	.long	.L123-.L120
	.long	.L115-.L120
	.long	.L122-.L120
	.long	.L121-.L120
	.long	.L119-.L120
	.text
.L144:
	.loc 2 773 36
	movb	$1, opt_nul_terminate_output(%rip)
	.loc 2 774 11
	jmp	.L145
.L137:
	.loc 2 777 19
	movb	$1, opt_all(%rip)
	.loc 2 778 11
	jmp	.L145
.L126:
	.loc 2 781 25
	movb	$1, apparent_size(%rip)
	.loc 2 782 11
	jmp	.L145
.L136:
	.loc 2 785 25
	movb	$1, apparent_size(%rip)
	.loc 2 786 29
	movl	$0, human_output_opts(%rip)
	.loc 2 787 29
	movq	$1, output_block_size(%rip)
	.loc 2 788 11
	jmp	.L145
.L135:
	.loc 2 791 29
	movb	$1, print_grand_total(%rip)
	.loc 2 792 11
	jmp	.L145
.L133:
	.loc 2 795 29
	movl	$176, human_output_opts(%rip)
	.loc 2 796 29
	movq	$1, output_block_size(%rip)
	.loc 2 797 11
	jmp	.L145
.L123:
	.loc 2 800 29
	movl	$144, human_output_opts(%rip)
	.loc 2 801 29
	movq	$1, output_block_size(%rip)
	.loc 2 802 11
	jmp	.L145
.L132:
	.loc 2 805 29
	movl	$0, human_output_opts(%rip)
	.loc 2 806 29
	movq	$1024, output_block_size(%rip)
	.loc 2 807 11
	jmp	.L145
.L134:
.LBB14:
	.loc 2 812 17
	movq	optarg(%rip), %rax
	leaq	-112(%rbp), %rdx
	leaq	.LC19(%rip), %r8
	movq	%rdx, %rcx
	movl	$0, %edx
	movl	$0, %esi
	movq	%rax, %rdi
	call	xstrtoumax@PLT
	.loc 2 812 16
	testl	%eax, %eax
	jne	.L146
	.loc 2 815 37
	movb	$1, -140(%rbp)
	.loc 2 816 27
	movq	-112(%rbp), %rax
	movq	%rax, max_depth(%rip)
.LBE14:
	.loc 2 825 11
	jmp	.L145
.L146:
.LBB15:
	.loc 2 820 17
	movq	optarg(%rip), %rax
	movq	%rax, %rdi
	call	quote@PLT
	movq	%rax, %rbx
	.loc 2 820 30
	leaq	.LC84(%rip), %rdi
	call	gettext@PLT
	.loc 2 820 17
	movq	%rbx, %rcx
	movq	%rax, %rdx
	movl	$0, %esi
	movl	$0, %edi
	movl	$0, %eax
	call	error@PLT
	.loc 2 822 20
	movb	$0, -139(%rbp)
.LBE15:
	.loc 2 825 11
	jmp	.L145
.L130:
	.loc 2 828 29
	movl	$0, human_output_opts(%rip)
	.loc 2 829 29
	movq	$1048576, output_block_size(%rip)
	.loc 2 830 11
	jmp	.L145
.L131:
	.loc 2 833 25
	movb	$1, opt_count_all(%rip)
	.loc 2 834 11
	jmp	.L145
.L129:
	.loc 2 837 30
	movb	$1, -138(%rbp)
	.loc 2 838 11
	jmp	.L145
.L128:
.LBB16:
	.loc 2 843 17
	movq	optarg(%rip), %rax
	leaq	.LC85(%rip), %r8
	leaq	opt_threshold(%rip), %rcx
	movl	$0, %edx
	movl	$0, %esi
	movq	%rax, %rdi
	call	xstrtoimax@PLT
	movl	%eax, -120(%rbp)
	.loc 2 844 16
	cmpl	$0, -120(%rbp)
	je	.L148
	.loc 2 845 15
	movq	optarg(%rip), %rcx
	movl	-124(%rbp), %eax
	movsbl	%al, %edx
	movl	-136(%rbp), %esi
	movl	-120(%rbp), %eax
	movq	%rcx, %r8
	leaq	long_options(%rip), %rcx
	movl	%eax, %edi
	call	xstrtol_fatal@PLT
.L148:
	.loc 2 846 31
	movq	opt_threshold(%rip), %rax
	.loc 2 846 16
	testq	%rax, %rax
	jne	.L206
	.loc 2 846 39 discriminator 1
	movq	optarg(%rip), %rax
	movzbl	(%rax), %eax
	.loc 2 846 36 discriminator 1
	cmpb	$45, %al
	jne	.L206
.LBB17:
	.loc 2 849 17
	leaq	.LC86(%rip), %rdi
	call	gettext@PLT
	movq	%rax, %rdx
	movl	$0, %esi
	movl	$1, %edi
	movl	$0, %eax
	call	error@PLT
.L127:
.LBE17:
.LBE16:
	.loc 2 855 21
	orl	$64, -132(%rbp)
	.loc 2 856 11
	jmp	.L145
.L143:
.LBB18:
	.loc 2 860 35
	movq	optarg(%rip), %rax
	leaq	output_block_size(%rip), %rdx
	leaq	human_output_opts(%rip), %rsi
	movq	%rax, %rdi
	call	human_options@PLT
	movl	%eax, -116(%rbp)
	.loc 2 862 16
	cmpl	$0, -116(%rbp)
	je	.L207
	.loc 2 863 15
	movq	optarg(%rip), %rcx
	movl	-124(%rbp), %eax
	movsbl	%al, %edx
	movl	-136(%rbp), %esi
	movl	-116(%rbp), %eax
	movq	%rcx, %r8
	leaq	long_options(%rip), %rcx
	movl	%eax, %edi
	call	xstrtol_fatal@PLT
.L142:
.LBE18:
	.loc 2 869 30
	movl	$17, -128(%rbp)
	.loc 2 870 11
	jmp	.L145
.L141:
	.loc 2 873 30
	movl	$2, -128(%rbp)
	.loc 2 874 11
	jmp	.L145
.L140:
	.loc 2 877 30
	movl	$16, -128(%rbp)
	.loc 2 878 11
	jmp	.L145
.L139:
	.loc 2 881 29
	movb	$1, opt_separate_dirs(%rip)
	.loc 2 882 11
	jmp	.L145
.L138:
	.loc 2 885 15
	movq	optarg(%rip), %rdx
	movq	exclude(%rip), %rax
	movl	$10, %r8d
	movl	$268435456, %ecx
	movq	%rax, %rsi
	movq	add_exclude@GOTPCREL(%rip), %rax
	movq	%rax, %rdi
	call	add_exclude_file@PLT
	.loc 2 885 14
	testl	%eax, %eax
	je	.L208
	.loc 2 888 15
	movq	optarg(%rip), %rax
	movq	%rax, %rdx
	movl	$3, %esi
	movl	$0, %edi
	call	quotearg_n_style_colon@PLT
	movq	%rax, %rbx
	.loc 2 888 25
	call	__errno_location@PLT
	.loc 2 888 15
	movl	(%rax), %eax
	movq	%rbx, %rcx
	leaq	.LC75(%rip), %rdx
	movl	%eax, %esi
	movl	$0, %edi
	movl	$0, %eax
	call	error@PLT
	.loc 2 889 18
	movb	$0, -139(%rbp)
	.loc 2 891 11
	jmp	.L208
.L124:
	.loc 2 894 22
	movq	optarg(%rip), %rax
	movq	%rax, -104(%rbp)
	.loc 2 895 11
	jmp	.L145
.L125:
	.loc 2 898 11
	movq	optarg(%rip), %rcx
	movq	exclude(%rip), %rax
	movl	$268435456, %edx
	movq	%rcx, %rsi
	movq	%rax, %rdi
	call	add_exclude@PLT
	.loc 2 899 11
	jmp	.L145
.L119:
	.loc 2 902 22
	movb	$1, opt_inodes(%rip)
	.loc 2 903 11
	jmp	.L145
.L122:
	.loc 2 906 20
	movb	$1, opt_time(%rip)
	.loc 2 909 14
	movq	optarg(%rip), %rax
	.loc 2 910 14
	testq	%rax, %rax
	je	.L152
	.loc 2 909 16 discriminator 1
	movq	argmatch_die(%rip), %rdx
	movq	optarg(%rip), %rax
	movq	%rdx, %r9
	movl	$4, %r8d
	leaq	time_types(%rip), %rcx
	leaq	time_args(%rip), %rdx
	movq	%rax, %rsi
	leaq	.LC87(%rip), %rdi
	call	__xargmatch_internal@PLT
	.loc 2 910 14 discriminator 1
	leaq	0(,%rax,4), %rdx
	leaq	time_types(%rip), %rax
	movl	(%rdx,%rax), %eax
	jmp	.L153
.L152:
	.loc 2 910 14 is_stmt 0 discriminator 2
	movl	$0, %eax
.L153:
	.loc 2 907 21 is_stmt 1
	movl	%eax, time_type(%rip)
	.loc 2 911 30
	leaq	.LC88(%rip), %rdi
	call	getenv@PLT
	.loc 2 911 21
	movq	%rax, %rdi
	call	tzalloc@PLT
	.loc 2 911 19
	movq	%rax, localtz(%rip)
	.loc 2 912 11
	jmp	.L145
.L121:
	.loc 2 915 22
	movq	optarg(%rip), %rax
	movq	%rax, time_style(%rip)
	.loc 2 916 11
	jmp	.L145
.L118:
	.loc 2 918 9
	movl	$0, %edi
	call	usage
.L117:
	.loc 2 920 9
	movq	Version(%rip), %rdx
	movq	stdout(%rip), %rax
	subq	$8, %rsp
	pushq	$0
	leaq	.LC91(%rip), %rcx
	pushq	%rcx
	leaq	.LC92(%rip), %rcx
	pushq	%rcx
	leaq	.LC89(%rip), %r9
	leaq	.LC90(%rip), %r8
	movq	%rdx, %rcx
	leaq	.LC14(%rip), %rdx
	leaq	.LC67(%rip), %rsi
	movq	%rax, %rdi
	movl	$0, %eax
	call	version_etc@PLT
	addq	$32, %rsp
	movl	$0, %edi
	call	exit@PLT
.L115:
	.loc 2 923 14
	movb	$0, -139(%rbp)
	jmp	.L154
.L206:
	.loc 2 852 11
	nop
	jmp	.L154
.L207:
	.loc 2 865 11
	nop
	jmp	.L154
.L208:
	.loc 2 891 11
	nop
.L145:
.LBE19:
	.loc 2 757 5 discriminator 1
	jmp	.L154
.L113:
	.loc 2 928 5
	movl	$1, %edi
	call	usage
.L205:
	.loc 2 930 7
	movzbl	opt_all(%rip), %eax
	.loc 2 930 6
	testb	%al, %al
	je	.L155
	.loc 2 930 15 discriminator 1
	cmpb	$0, -138(%rbp)
	je	.L155
	.loc 2 932 20
	leaq	.LC93(%rip), %rdi
	call	gettext@PLT
	.loc 2 932 7
	movq	%rax, %rdx
	movl	$0, %esi
	movl	$0, %edi
	movl	$0, %eax
	call	error@PLT
	.loc 2 933 7
	movl	$1, %edi
	call	usage
.L155:
	.loc 2 936 6
	cmpb	$0, -138(%rbp)
	je	.L156
	.loc 2 936 26 discriminator 1
	cmpb	$0, -140(%rbp)
	je	.L156
	.loc 2 936 62 discriminator 2
	movq	max_depth(%rip), %rax
	.loc 2 936 49 discriminator 2
	testq	%rax, %rax
	jne	.L156
	.loc 2 939 14
	leaq	.LC94(%rip), %rdi
	call	gettext@PLT
	.loc 2 938 7
	movq	%rax, %rdx
	movl	$0, %esi
	movl	$0, %edi
	movl	$0, %eax
	call	error@PLT
.L156:
	.loc 2 942 6
	cmpb	$0, -138(%rbp)
	je	.L157
	.loc 2 942 26 discriminator 1
	cmpb	$0, -140(%rbp)
	je	.L157
	.loc 2 942 62 discriminator 2
	movq	max_depth(%rip), %rax
	.loc 2 942 49 discriminator 2
	testq	%rax, %rax
	je	.L157
.LBB20:
	.loc 2 944 25
	movq	max_depth(%rip), %rax
	movq	%rax, -88(%rbp)
	.loc 2 945 20
	leaq	.LC95(%rip), %rdi
	call	gettext@PLT
	movq	%rax, %rdx
	.loc 2 945 7
	movq	-88(%rbp), %rax
	movq	%rax, %rcx
	movl	$0, %esi
	movl	$0, %edi
	movl	$0, %eax
	call	error@PLT
	.loc 2 946 7
	movl	$1, %edi
	call	usage
.L157:
.LBE20:
	.loc 2 949 6
	cmpb	$0, -138(%rbp)
	je	.L158
	.loc 2 950 15
	movq	$0, max_depth(%rip)
.L158:
	.loc 2 952 7
	movzbl	opt_inodes(%rip), %eax
	.loc 2 952 6
	testb	%al, %al
	je	.L159
	.loc 2 954 11
	movzbl	apparent_size(%rip), %eax
	.loc 2 954 10
	testb	%al, %al
	je	.L160
	.loc 2 956 24
	leaq	.LC96(%rip), %rdi
	call	gettext@PLT
	.loc 2 956 11
	movq	%rax, %rdx
	movl	$0, %esi
	movl	$0, %edi
	movl	$0, %eax
	call	error@PLT
.L160:
	.loc 2 959 25
	movq	$1, output_block_size(%rip)
.L159:
	.loc 2 963 7
	movzbl	opt_time(%rip), %eax
	.loc 2 963 6
	testb	%al, %al
	je	.L209
	.loc 2 965 11
	movq	time_style(%rip), %rax
	.loc 2 965 10
	testq	%rax, %rax
	jne	.L162
	.loc 2 967 24
	leaq	.LC97(%rip), %rdi
	call	getenv@PLT
	.loc 2 967 22
	movq	%rax, time_style(%rip)
	.loc 2 970 15
	movq	time_style(%rip), %rax
	.loc 2 970 14
	testq	%rax, %rax
	je	.L163
	.loc 2 970 31 discriminator 1
	movq	time_style(%rip), %rax
	leaq	.LC98(%rip), %rsi
	movq	%rax, %rdi
	call	strcmp@PLT
	.loc 2 970 28 discriminator 1
	testl	%eax, %eax
	jne	.L164
.L163:
	.loc 2 971 24
	leaq	.LC52(%rip), %rax
	movq	%rax, time_style(%rip)
	jmp	.L162
.L164:
	.loc 2 972 20
	movq	time_style(%rip), %rax
	movzbl	(%rax), %eax
	.loc 2 972 19
	cmpb	$43, %al
	jne	.L166
.LBB21:
	.loc 2 976 25
	movq	time_style(%rip), %rax
	movl	$10, %esi
	movq	%rax, %rdi
	call	strchr@PLT
	movq	%rax, -80(%rbp)
	.loc 2 977 18
	cmpq	$0, -80(%rbp)
	je	.L162
	.loc 2 978 20
	movq	-80(%rbp), %rax
	movb	$0, (%rax)
	jmp	.L162
.L167:
.LBE21:
.LBB22:
	.loc 2 986 28
	movq	time_style(%rip), %rdx
	movq	prefix_len.6745(%rip), %rax
	addq	%rdx, %rax
	movq	%rax, time_style(%rip)
.L166:
	.loc 2 985 22
	movq	prefix_len.6745(%rip), %rdx
	movq	time_style(%rip), %rax
	leaq	posix_prefix.6744(%rip), %rsi
	movq	%rax, %rdi
	call	strncmp@PLT
	.loc 2 985 21
	testl	%eax, %eax
	je	.L167
.L162:
.LBE22:
	.loc 2 990 11
	movq	time_style(%rip), %rax
	movzbl	(%rax), %eax
	.loc 2 990 10
	cmpb	$43, %al
	jne	.L168
	.loc 2 991 34
	movq	time_style(%rip), %rax
	addq	$1, %rax
	.loc 2 991 21
	movq	%rax, time_format(%rip)
	jmp	.L161
.L168:
	.loc 2 994 19
	movq	argmatch_die(%rip), %rdx
	movq	time_style(%rip), %rax
	movq	%rdx, %r9
	movl	$4, %r8d
	leaq	time_style_types(%rip), %rcx
	leaq	time_style_args(%rip), %rdx
	movq	%rax, %rsi
	leaq	.LC99(%rip), %rdi
	call	__xargmatch_internal@PLT
	leaq	0(,%rax,4), %rdx
	leaq	time_style_types(%rip), %rax
	movl	(%rdx,%rax), %eax
	.loc 2 994 11
	cmpl	$2, %eax
	je	.L169
	cmpl	$2, %eax
	ja	.L161
	testl	%eax, %eax
	je	.L170
	cmpl	$1, %eax
	je	.L171
	jmp	.L161
.L170:
	.loc 2 998 27
	leaq	.LC100(%rip), %rax
	movq	%rax, time_format(%rip)
	.loc 2 999 15
	jmp	.L161
.L171:
	.loc 2 1002 27
	leaq	.LC101(%rip), %rax
	movq	%rax, time_format(%rip)
	.loc 2 1003 15
	jmp	.L161
.L169:
	.loc 2 1006 27
	leaq	.LC102(%rip), %rax
	movq	%rax, time_format(%rip)
	.loc 2 1007 15
	jmp	.L161
.L209:
	.loc 2 1009 9
	nop
.L161:
	.loc 2 1013 6
	cmpq	$0, -104(%rbp)
	je	.L172
	.loc 2 1017 18
	movl	optind(%rip), %eax
	.loc 2 1017 10
	cmpl	%eax, -148(%rbp)
	jle	.L173
	.loc 2 1019 58
	movl	optind(%rip), %eax
	cltq
	leaq	0(,%rax,8), %rdx
	movq	-160(%rbp), %rax
	addq	%rdx, %rax
	.loc 2 1019 11
	movq	(%rax), %rax
	movq	%rax, %rdi
	call	quote@PLT
	movq	%rax, %rbx
	.loc 2 1019 24
	leaq	.LC103(%rip), %rdi
	call	gettext@PLT
	.loc 2 1019 11
	movq	%rbx, %rcx
	movq	%rax, %rdx
	movl	$0, %esi
	movl	$0, %edi
	movl	$0, %eax
	call	error@PLT
	.loc 2 1020 11
	leaq	.LC104(%rip), %rdi
	call	gettext@PLT
	movq	%rax, %rdx
	movq	stderr(%rip), %rax
	leaq	.LC105(%rip), %rsi
	movq	%rax, %rdi
	movl	$0, %eax
	call	fprintf@PLT
	.loc 2 1022 11
	movl	$1, %edi
	call	usage
.L173:
	.loc 2 1025 14
	movq	-104(%rbp), %rax
	leaq	.LC106(%rip), %rsi
	movq	%rax, %rdi
	call	strcmp@PLT
	.loc 2 1025 10
	testl	%eax, %eax
	je	.L174
	.loc 2 1025 41 discriminator 1
	movq	stdin(%rip), %rdx
	movq	-104(%rbp), %rax
	leaq	.LC107(%rip), %rsi
	movq	%rax, %rdi
	call	freopen_safer@PLT
	.loc 2 1025 11 discriminator 1
	testq	%rax, %rax
	jne	.L174
.LBB23:
	.loc 2 1026 9
	movq	-104(%rbp), %rax
	movq	%rax, %rsi
	movl	$4, %edi
	call	quotearg_style@PLT
	movq	%rax, %r12
	leaq	.LC108(%rip), %rdi
	call	gettext@PLT
	movq	%rax, %rbx
	call	__errno_location@PLT
	movl	(%rax), %eax
	movq	%r12, %rcx
	movq	%rbx, %rdx
	movl	%eax, %esi
	movl	$1, %edi
	movl	$0, %eax
	call	error@PLT
.L174:
.LBE23:
	.loc 2 1029 12
	movq	stdin(%rip), %rax
	movq	%rax, %rdi
	call	argv_iter_init_stream@PLT
	movq	%rax, -96(%rbp)
	.loc 2 1033 16
	movb	$1, hash_all(%rip)
	jmp	.L175
.L172:
.LBB24:
	.loc 2 1037 30
	movl	optind(%rip), %eax
	.loc 2 1037 53
	cmpl	%eax, -148(%rbp)
	jle	.L176
	.loc 2 1037 44 discriminator 1
	movl	optind(%rip), %eax
	cltq
	leaq	0(,%rax,8), %rdx
	.loc 2 1037 53 discriminator 1
	movq	-160(%rbp), %rax
	addq	%rdx, %rax
	jmp	.L177
.L176:
	.loc 2 1037 53 is_stmt 0 discriminator 2
	leaq	-48(%rbp), %rax
.L177:
	.loc 2 1037 14 is_stmt 1 discriminator 4
	movq	%rax, -72(%rbp)
	.loc 2 1038 12 discriminator 4
	movq	-72(%rbp), %rax
	movq	%rax, %rdi
	call	argv_iter_init_argv@PLT
	movq	%rax, -96(%rbp)
	.loc 2 1043 26 discriminator 4
	movl	optind(%rip), %eax
	addl	$1, %eax
	.loc 2 1043 37 discriminator 4
	cmpl	%eax, -148(%rbp)
	jg	.L178
	.loc 2 1043 37 is_stmt 0 discriminator 2
	cmpl	$2, -128(%rbp)
	jne	.L179
.L178:
	.loc 2 1043 37 discriminator 3
	movl	$1, %eax
	jmp	.L180
.L179:
	.loc 2 1043 37 discriminator 4
	movl	$0, %eax
.L180:
	.loc 2 1043 37 discriminator 6
	andl	$1, %eax
	.loc 2 1043 16 is_stmt 1 discriminator 6
	movb	%al, hash_all(%rip)
.L175:
.LBE24:
	.loc 2 1046 6
	cmpq	$0, -96(%rbp)
	jne	.L181
	.loc 2 1047 5
	call	xalloc_die@PLT
.L181:
	.loc 2 1050 14
	call	di_set_alloc@PLT
	.loc 2 1050 12
	movq	%rax, di_files(%rip)
	.loc 2 1051 7
	movq	di_files(%rip), %rax
	.loc 2 1051 6
	testq	%rax, %rax
	jne	.L182
	.loc 2 1052 5
	call	xalloc_die@PLT
.L182:
	.loc 2 1056 7
	movzbl	opt_count_all(%rip), %eax
	.loc 2 1056 6
	testb	%al, %al
	jne	.L183
	.loc 2 1056 24 discriminator 1
	movzbl	hash_all(%rip), %eax
	xorl	$1, %eax
	.loc 2 1056 21 discriminator 1
	testb	%al, %al
	je	.L184
.L183:
	.loc 2 1057 15
	orl	$256, -132(%rbp)
.L184:
	.loc 2 1059 13
	movl	-128(%rbp), %eax
	orl	%eax, -132(%rbp)
.L197:
.LBB25:
	.loc 2 1064 12
	movb	$0, -137(%rbp)
	.loc 2 1066 25
	leaq	-112(%rbp), %rdx
	movq	-96(%rbp), %rax
	movq	%rdx, %rsi
	movq	%rax, %rdi
	call	argv_iter@PLT
	movq	%rax, -64(%rbp)
	.loc 2 1067 10
	cmpq	$0, -64(%rbp)
	jne	.L185
	.loc 2 1069 11
	movl	-112(%rbp), %eax
	cmpl	$4, %eax
	je	.L186
	cmpl	$4, %eax
	ja	.L187
	cmpl	$2, %eax
	je	.L210
	cmpl	$3, %eax
	je	.L189
	jmp	.L187
.L186:
	.loc 2 1074 15
	movq	-104(%rbp), %rax
	movq	%rax, %rdx
	movl	$3, %esi
	movl	$0, %edi
	call	quotearg_n_style_colon@PLT
	movq	%rax, %r12
	.loc 2 1074 32
	leaq	.LC109(%rip), %rdi
	call	gettext@PLT
	movq	%rax, %rbx
	.loc 2 1074 25
	call	__errno_location@PLT
	.loc 2 1074 15
	movl	(%rax), %eax
	movq	%r12, %rcx
	movq	%rbx, %rdx
	movl	%eax, %esi
	movl	$0, %edi
	movl	$0, %eax
	call	error@PLT
	.loc 2 1076 18
	movb	$0, -139(%rbp)
	.loc 2 1077 15
	jmp	.L198
.L189:
	.loc 2 1079 15
	call	xalloc_die@PLT
.L187:
	.loc 2 1081 15 discriminator 1
	leaq	__PRETTY_FUNCTION__.6766(%rip), %rcx
	movl	$1081, %edx
	leaq	.LC72(%rip), %rsi
	leaq	.LC110(%rip), %rdi
	call	__assert_fail@PLT
.L185:
	.loc 2 1084 10
	cmpq	$0, -104(%rbp)
	je	.L191
	.loc 2 1084 25 discriminator 1
	movq	-104(%rbp), %rax
	leaq	.LC106(%rip), %rsi
	movq	%rax, %rdi
	call	strcmp@PLT
	.loc 2 1084 22 discriminator 1
	testl	%eax, %eax
	jne	.L191
	.loc 2 1084 52 discriminator 2
	movq	-64(%rbp), %rax
	leaq	.LC106(%rip), %rsi
	movq	%rax, %rdi
	call	strcmp@PLT
	.loc 2 1084 49 discriminator 2
	testl	%eax, %eax
	jne	.L191
	.loc 2 1088 11
	movq	-64(%rbp), %rax
	movq	%rax, %rsi
	movl	$4, %edi
	call	quotearg_style@PLT
	movq	%rax, %rbx
	.loc 2 1088 24
	leaq	.LC111(%rip), %rdi
	call	gettext@PLT
	.loc 2 1088 11
	movq	%rbx, %rcx
	movq	%rax, %rdx
	movl	$0, %esi
	movl	$0, %edi
	movl	$0, %eax
	call	error@PLT
	.loc 2 1091 21
	movb	$1, -137(%rbp)
.L191:
	.loc 2 1098 21
	movq	-64(%rbp), %rax
	movzbl	(%rax), %eax
	.loc 2 1098 10
	testb	%al, %al
	jne	.L192
	.loc 2 1104 14
	cmpq	$0, -104(%rbp)
	jne	.L193
	.loc 2 1105 13
	leaq	.LC112(%rip), %rdi
	call	gettext@PLT
	movq	%rax, %rcx
	leaq	.LC75(%rip), %rdx
	movl	$0, %esi
	movl	$0, %edi
	movl	$0, %eax
	call	error@PLT
	jmp	.L194
.L193:
.LBB26:
	.loc 2 1111 47
	movq	-96(%rbp), %rax
	movq	%rax, %rdi
	call	argv_iter_n_args@PLT
	movq	%rax, -56(%rbp)
	.loc 2 1112 15
	leaq	.LC112(%rip), %rdi
	call	gettext@PLT
	movq	%rax, %rbx
	movq	-104(%rbp), %rax
	movq	%rax, %rdx
	movl	$3, %esi
	movl	$0, %edi
	call	quotearg_n_style_colon@PLT
	movq	-56(%rbp), %rdx
	movq	%rbx, %r9
	movq	%rdx, %r8
	movq	%rax, %rcx
	leaq	.LC113(%rip), %rdx
	movl	$0, %esi
	movl	$0, %edi
	movl	$0, %eax
	call	error@PLT
.L194:
.LBE26:
	.loc 2 1115 21
	movb	$1, -137(%rbp)
.L192:
	.loc 2 1118 10
	cmpb	$0, -137(%rbp)
	je	.L195
	.loc 2 1119 12
	movb	$0, -139(%rbp)
	jmp	.L197
.L195:
	.loc 2 1122 24
	movq	-64(%rbp), %rax
	movq	%rax, temp_argv.6757(%rip)
	.loc 2 1123 17
	movl	-132(%rbp), %eax
	movl	%eax, %esi
	leaq	temp_argv.6757(%rip), %rdi
	call	du_files
	.loc 2 1123 14
	movzbl	-139(%rbp), %edx
	.loc 2 1123 17
	movzbl	%al, %eax
	.loc 2 1123 14
	andl	%edx, %eax
	testl	%eax, %eax
	setne	%al
	movb	%al, -139(%rbp)
.LBE25:
	.loc 2 1063 5
	jmp	.L197
.L210:
.LBB27:
	.loc 2 1072 15
	nop
.L198:
.LBE27:
	.loc 2 1128 3
	movq	-96(%rbp), %rax
	movq	%rax, %rdi
	call	argv_iter_free@PLT
	.loc 2 1129 3
	movq	di_files(%rip), %rax
	movq	%rax, %rdi
	call	di_set_free@PLT
	.loc 2 1130 7
	movq	di_mnt(%rip), %rax
	.loc 2 1130 6
	testq	%rax, %rax
	je	.L199
	.loc 2 1131 5
	movq	di_mnt(%rip), %rax
	movq	%rax, %rdi
	call	di_set_free@PLT
.L199:
	.loc 2 1133 6
	cmpq	$0, -104(%rbp)
	je	.L200
	.loc 2 1133 22 discriminator 1
	movq	stdin(%rip), %rax
	movq	%rax, %rdi
	call	ferror_unlocked@PLT
	.loc 2 1133 18 discriminator 1
	testl	%eax, %eax
	jne	.L201
	.loc 2 1133 40 discriminator 3
	movq	stdin(%rip), %rax
	movq	%rax, %rdi
	call	rpl_fclose@PLT
	.loc 2 1133 37 discriminator 3
	testl	%eax, %eax
	je	.L200
.L201:
	.loc 2 1133 61 discriminator 4
	cmpb	$0, -139(%rbp)
	je	.L200
.LBB28:
	.loc 2 1134 5
	movq	-104(%rbp), %rax
	movq	%rax, %rsi
	movl	$4, %edi
	call	quotearg_style@PLT
	movq	%rax, %rbx
	leaq	.LC114(%rip), %rdi
	call	gettext@PLT
	movq	%rbx, %rcx
	movq	%rax, %rdx
	movl	$0, %esi
	movl	$1, %edi
	movl	$0, %eax
	call	error@PLT
.L200:
.LBE28:
	.loc 2 1136 7
	movzbl	print_grand_total(%rip), %eax
	.loc 2 1136 6
	testb	%al, %al
	je	.L202
	.loc 2 1137 27
	leaq	.LC40(%rip), %rdi
	call	gettext@PLT
	.loc 2 1137 5
	movq	%rax, %rsi
	leaq	tot_dui(%rip), %rdi
	call	print_size
.L202:
	.loc 2 1139 28
	movzbl	-139(%rbp), %eax
	xorl	$1, %eax
	movzbl	%al, %eax
	.loc 2 1140 1
	movq	-24(%rbp), %rbx
	xorq	%fs:40, %rbx
	je	.L204
	call	__stack_chk_fail@PLT
.L204:
	leaq	-16(%rbp), %rsp
	popq	%rbx
	popq	%r12
	popq	%rbp
	.cfi_def_cfa 7, 8
	ret
	.cfi_endproc
.LFE67:
	.size	main, .-main
	.section	.rodata
	.align 8
	.type	__PRETTY_FUNCTION__.6672, @object
	.size	__PRETTY_FUNCTION__.6672, 13
__PRETTY_FUNCTION__.6672:
	.string	"process_file"
	.local	n_alloc.6665
	.comm	n_alloc.6665,8,8
	.local	dulvl.6666
	.comm	dulvl.6666,8,8
	.align 8
	.type	prefix_len.6745, @object
	.size	prefix_len.6745, 8
prefix_len.6745:
	.quad	6
	.type	posix_prefix.6744, @object
	.size	posix_prefix.6744, 7
posix_prefix.6744:
	.string	"posix-"
	.type	__PRETTY_FUNCTION__.6766, @object
	.size	__PRETTY_FUNCTION__.6766, 5
__PRETTY_FUNCTION__.6766:
	.string	"main"
	.local	temp_argv.6757
	.comm	temp_argv.6757,16,16
	.text
.Letext0:
	.file 3 "/usr/include/x86_64-linux-gnu/bits/getopt_core.h"
	.file 4 "/usr/include/x86_64-linux-gnu/bits/getopt_ext.h"
	.file 5 "/usr/include/x86_64-linux-gnu/bits/types.h"
	.file 6 "/usr/include/x86_64-linux-gnu/sys/types.h"
	.file 7 "/usr/include/x86_64-linux-gnu/bits/types/time_t.h"
	.file 8 "/usr/lib/gcc/x86_64-linux-gnu/9/include/stddef.h"
	.file 9 "/usr/include/x86_64-linux-gnu/bits/types/struct_timespec.h"
	.file 10 "./lib/sys/select.h"
	.file 11 "/usr/include/x86_64-linux-gnu/bits/types/struct_tm.h"
	.file 12 "/usr/include/time.h"
	.file 13 "./lib/time.h"
	.file 14 "/usr/include/x86_64-linux-gnu/bits/stat.h"
	.file 15 "/usr/include/signal.h"
	.file 16 "/usr/include/unistd.h"
	.file 17 "/usr/include/errno.h"
	.file 18 "src/version.h"
	.file 19 "./lib/exitfail.h"
	.file 20 "/usr/include/stdint.h"
	.file 21 "./lib/timespec.h"
	.file 22 "/usr/include/x86_64-linux-gnu/bits/types/struct_FILE.h"
	.file 23 "/usr/include/x86_64-linux-gnu/bits/types/FILE.h"
	.file 24 "/usr/include/stdio.h"
	.file 25 "/usr/include/x86_64-linux-gnu/bits/sys_errlist.h"
	.file 26 "./lib/version-etc.h"
	.file 27 "./lib/progname.h"
	.file 28 "./lib/quotearg.h"
	.file 29 "./lib/quote.h"
	.file 30 "./lib/argmatch.h"
	.file 31 "./lib/argv-iter.h"
	.file 32 "./lib/error.h"
	.file 33 "./lib/xstrtol.h"
	.file 34 "./lib/human.h"
	.file 35 "./lib/mountlist.h"
	.file 36 "./lib/i-ring.h"
	.file 37 "./lib/fts_.h"
	.file 38 "/usr/include/dirent.h"
	.section	.note.GNU-stack,"",@progbits
	.section	.note.gnu.property,"a"
	.align 8
	.long	 1f - 0f
	.long	 4f - 1f
	.long	 5
0:
	.string	 "GNU"
1:
	.align 8
	.long	 0xc0000002
	.long	 3f - 2f
2:
	.long	 0x3
3:
	.align 8
4:
