	.file	"env.c"
	.text
.Ltext0:
	.type	initialize_exit_failure, @function
initialize_exit_failure:
.LFB21:
	.file 1 "src/system.h"
	.loc 1 100 1
	.cfi_startproc
	pushq	%rbp
	.cfi_def_cfa_offset 16
	.cfi_offset 6, -16
	movq	%rsp, %rbp
	.cfi_def_cfa_register 6
	movl	%edi, -4(%rbp)
	.loc 1 101 6
	cmpl	$1, -4(%rbp)
	je	.L3
	.loc 1 102 18
	movl	-4(%rbp), %eax
	movl	%eax, exit_failure(%rip)
.L3:
	.loc 1 103 1
	nop
	popq	%rbp
	.cfi_def_cfa 7, 8
	ret
	.cfi_endproc
.LFE21:
	.size	initialize_exit_failure, .-initialize_exit_failure
	.section	.rodata
	.align 8
.LC0:
	.string	"\nMandatory arguments to long options are mandatory for short options too.\n"
	.text
	.type	emit_mandatory_arg_note, @function
emit_mandatory_arg_note:
.LFB51:
	.loc 1 589 1
	.cfi_startproc
	pushq	%rbp
	.cfi_def_cfa_offset 16
	.cfi_offset 6, -16
	movq	%rsp, %rbp
	.cfi_def_cfa_register 6
	pushq	%rbx
	subq	$8, %rsp
	.cfi_offset 3, -24
	.loc 1 590 3
	movq	stdout(%rip), %rbx
	leaq	.LC0(%rip), %rdi
	call	gettext@PLT
	movq	%rbx, %rsi
	movq	%rax, %rdi
	call	fputs_unlocked@PLT
	.loc 1 593 1
	nop
	addq	$8, %rsp
	popq	%rbx
	popq	%rbp
	.cfi_def_cfa 7, 8
	ret
	.cfi_endproc
.LFE51:
	.size	emit_mandatory_arg_note, .-emit_mandatory_arg_note
	.section	.rodata
.LC1:
	.string	"["
.LC2:
	.string	"test invocation"
.LC3:
	.string	"coreutils"
.LC4:
	.string	"Multi-call invocation"
.LC5:
	.string	"sha224sum"
.LC6:
	.string	"sha2 utilities"
.LC7:
	.string	"sha256sum"
.LC8:
	.string	"sha384sum"
.LC9:
	.string	"sha512sum"
.LC10:
	.string	"\n%s online help: <%s>\n"
	.align 8
.LC11:
	.string	"https://www.gnu.org/software/coreutils/"
.LC12:
	.string	"GNU coreutils"
.LC13:
	.string	"en_"
	.align 8
.LC14:
	.string	"Report any translation bugs to <https://translationproject.org/team/>\n"
.LC15:
	.string	"Full documentation <%s%s>\n"
.LC16:
	.string	" invocation"
.LC17:
	.string	""
	.align 8
.LC18:
	.string	"or available locally via: info '(coreutils) %s%s'\n"
	.text
	.type	emit_ancillary_info, @function
emit_ancillary_info:
.LFB55:
	.loc 1 635 1
	.cfi_startproc
	pushq	%rbp
	.cfi_def_cfa_offset 16
	.cfi_offset 6, -16
	movq	%rsp, %rbp
	.cfi_def_cfa_register 6
	pushq	%rbx
	subq	$184, %rsp
	.cfi_offset 3, -24
	movq	%rdi, -184(%rbp)
	.loc 1 635 1
	movq	%fs:40, %rax
	movq	%rax, -24(%rbp)
	xorl	%eax, %eax
	.loc 1 636 67
	leaq	.LC1(%rip), %rax
	movq	%rax, -144(%rbp)
	leaq	.LC2(%rip), %rax
	movq	%rax, -136(%rbp)
	leaq	.LC3(%rip), %rax
	movq	%rax, -128(%rbp)
	leaq	.LC4(%rip), %rax
	movq	%rax, -120(%rbp)
	leaq	.LC5(%rip), %rax
	movq	%rax, -112(%rbp)
	leaq	.LC6(%rip), %rax
	movq	%rax, -104(%rbp)
	leaq	.LC7(%rip), %rax
	movq	%rax, -96(%rbp)
	leaq	.LC6(%rip), %rax
	movq	%rax, -88(%rbp)
	leaq	.LC8(%rip), %rax
	movq	%rax, -80(%rbp)
	leaq	.LC6(%rip), %rax
	movq	%rax, -72(%rbp)
	leaq	.LC9(%rip), %rax
	movq	%rax, -64(%rbp)
	leaq	.LC6(%rip), %rax
	movq	%rax, -56(%rbp)
	movq	$0, -48(%rbp)
	movq	$0, -40(%rbp)
	.loc 1 646 15
	movq	-184(%rbp), %rax
	movq	%rax, -168(%rbp)
	.loc 1 647 25
	leaq	-144(%rbp), %rax
	movq	%rax, -160(%rbp)
	.loc 1 649 9
	jmp	.L6
.L8:
	.loc 1 650 13
	addq	$16, -160(%rbp)
.L6:
	.loc 1 649 18
	movq	-160(%rbp), %rax
	movq	(%rax), %rax
	.loc 1 649 9
	testq	%rax, %rax
	je	.L7
	.loc 1 649 33 discriminator 1
	movq	-160(%rbp), %rax
	movq	(%rax), %rdx
	movq	-184(%rbp), %rax
	movq	%rdx, %rsi
	movq	%rax, %rdi
	call	strcmp@PLT
	.loc 1 649 28 discriminator 1
	testl	%eax, %eax
	jne	.L8
.L7:
	.loc 1 652 15
	movq	-160(%rbp), %rax
	movq	8(%rax), %rax
	.loc 1 652 6
	testq	%rax, %rax
	je	.L9
	.loc 1 653 10
	movq	-160(%rbp), %rax
	movq	8(%rax), %rax
	movq	%rax, -168(%rbp)
.L9:
	.loc 1 655 11
	leaq	.LC10(%rip), %rdi
	call	gettext@PLT
	.loc 1 655 3
	leaq	.LC11(%rip), %rdx
	leaq	.LC12(%rip), %rsi
	movq	%rax, %rdi
	movl	$0, %eax
	call	printf@PLT
	.loc 1 659 29
	movl	$0, %esi
	movl	$5, %edi
	call	setlocale@PLT
	movq	%rax, -152(%rbp)
	.loc 1 660 6
	cmpq	$0, -152(%rbp)
	je	.L10
	.loc 1 660 22 discriminator 1
	movq	-152(%rbp), %rax
	movl	$3, %edx
	leaq	.LC13(%rip), %rsi
	movq	%rax, %rdi
	call	strncmp@PLT
	.loc 1 660 19 discriminator 1
	testl	%eax, %eax
	je	.L10
	.loc 1 666 7
	movq	stdout(%rip), %rbx
	leaq	.LC14(%rip), %rdi
	call	gettext@PLT
	movq	%rbx, %rsi
	movq	%rax, %rdi
	call	fputs_unlocked@PLT
.L10:
	.loc 1 669 11
	leaq	.LC15(%rip), %rdi
	call	gettext@PLT
	movq	%rax, %rcx
	.loc 1 669 3
	movq	-184(%rbp), %rax
	movq	%rax, %rdx
	leaq	.LC11(%rip), %rsi
	movq	%rcx, %rdi
	movl	$0, %eax
	call	printf@PLT
	.loc 1 671 3
	movq	-168(%rbp), %rax
	cmpq	-184(%rbp), %rax
	jne	.L11
	.loc 1 671 3 is_stmt 0 discriminator 1
	leaq	.LC16(%rip), %rbx
	jmp	.L12
.L11:
	.loc 1 671 3 discriminator 2
	leaq	.LC17(%rip), %rbx
.L12:
	.loc 1 671 11 is_stmt 1 discriminator 4
	leaq	.LC18(%rip), %rdi
	call	gettext@PLT
	movq	%rax, %rcx
	.loc 1 671 3 discriminator 4
	movq	-168(%rbp), %rax
	movq	%rbx, %rdx
	movq	%rax, %rsi
	movq	%rcx, %rdi
	movl	$0, %eax
	call	printf@PLT
	.loc 1 673 1 discriminator 4
	nop
	movq	-24(%rbp), %rax
	xorq	%fs:40, %rax
	je	.L13
	.loc 1 673 1 is_stmt 0
	call	__stack_chk_fail@PLT
.L13:
	addq	$184, %rsp
	popq	%rbx
	popq	%rbp
	.cfi_def_cfa 7, 8
	ret
	.cfi_endproc
.LFE55:
	.size	emit_ancillary_info, .-emit_ancillary_info
	.local	usvars
	.comm	usvars,8,8
	.local	usvars_alloc
	.comm	usvars_alloc,8,8
	.local	usvars_used
	.comm	usvars_used,8,8
	.local	dev_debug
	.comm	dev_debug,1,1
	.local	varname
	.comm	varname,8,8
	.local	vnlen
	.comm	vnlen,8,8
	.local	signals
	.comm	signals,8,8
	.local	block_signals
	.comm	block_signals,128,32
	.local	unblock_signals
	.comm	unblock_signals,128,32
	.local	sig_mask_changed
	.comm	sig_mask_changed,1,1
	.local	report_signal_handling
	.comm	report_signal_handling,1,1
	.section	.rodata
	.align 8
	.type	shortopts, @object
	.size	shortopts, 13
shortopts:
	.string	"+C:iS:u:v0 \t"
.LC19:
	.string	"ignore-environment"
.LC20:
	.string	"null"
.LC21:
	.string	"unset"
.LC22:
	.string	"chdir"
.LC23:
	.string	"default-signal"
.LC24:
	.string	"ignore-signal"
.LC25:
	.string	"block-signal"
.LC26:
	.string	"list-signal-handling"
.LC27:
	.string	"debug"
.LC28:
	.string	"split-string"
.LC29:
	.string	"help"
.LC30:
	.string	"version"
	.section	.data.rel.ro.local,"aw"
	.align 32
	.type	longopts, @object
	.size	longopts, 416
longopts:
	.quad	.LC19
	.long	0
	.zero	4
	.quad	0
	.long	105
	.zero	4
	.quad	.LC20
	.long	0
	.zero	4
	.quad	0
	.long	48
	.zero	4
	.quad	.LC21
	.long	1
	.zero	4
	.quad	0
	.long	117
	.zero	4
	.quad	.LC22
	.long	1
	.zero	4
	.quad	0
	.long	67
	.zero	4
	.quad	.LC23
	.long	2
	.zero	4
	.quad	0
	.long	128
	.zero	4
	.quad	.LC24
	.long	2
	.zero	4
	.quad	0
	.long	129
	.zero	4
	.quad	.LC25
	.long	2
	.zero	4
	.quad	0
	.long	130
	.zero	4
	.quad	.LC26
	.long	0
	.zero	4
	.quad	0
	.long	131
	.zero	4
	.quad	.LC27
	.long	0
	.zero	4
	.quad	0
	.long	118
	.zero	4
	.quad	.LC28
	.long	1
	.zero	4
	.quad	0
	.long	83
	.zero	4
	.quad	.LC29
	.long	0
	.zero	4
	.quad	0
	.long	-130
	.zero	4
	.quad	.LC30
	.long	0
	.zero	4
	.quad	0
	.long	-131
	.zero	4
	.quad	0
	.long	0
	.zero	4
	.quad	0
	.long	0
	.zero	4
	.section	.rodata
	.align 8
.LC31:
	.string	"Try '%s --help' for more information.\n"
	.align 8
.LC32:
	.string	"Usage: %s [OPTION]... [-] [NAME=VALUE]... [COMMAND [ARG]...]\n"
	.align 8
.LC33:
	.string	"Set each NAME to VALUE in the environment and run COMMAND.\n"
	.align 8
.LC34:
	.string	"  -i, --ignore-environment  start with an empty environment\n  -0, --null           end each output line with NUL, not newline\n  -u, --unset=NAME     remove variable from the environment\n"
	.align 8
.LC35:
	.string	"  -C, --chdir=DIR      change working directory to DIR\n"
	.align 8
.LC36:
	.string	"  -S, --split-string=S  process and split S into separate arguments;\n                        used to pass multiple arguments on shebang lines\n"
	.align 8
.LC37:
	.string	"      --block-signal[=SIG]    block delivery of SIG signal(s) to COMMAND\n"
	.align 8
.LC38:
	.string	"      --default-signal[=SIG]  reset handling of SIG signal(s) to the default\n"
	.align 8
.LC39:
	.string	"      --ignore-signal[=SIG]   set handling of SIG signals(s) to do nothing\n"
	.align 8
.LC40:
	.string	"      --list-signal-handling  list non default signal handling to stderr\n"
	.align 8
.LC41:
	.string	"  -v, --debug          print verbose information for each processing step\n"
	.align 8
.LC42:
	.string	"      --help     display this help and exit\n"
	.align 8
.LC43:
	.string	"      --version  output version information and exit\n"
	.align 8
.LC44:
	.string	"\nA mere - implies -i.  If no COMMAND, print the resulting environment.\n"
	.align 8
.LC45:
	.string	"\nSIG may be a signal name like 'PIPE', or a signal number like '13'.\nWithout SIG, all known signals are included.  Multiple signals can be\ncomma-separated.\n"
.LC46:
	.string	"env"
	.text
	.globl	usage
	.type	usage, @function
usage:
.LFB61:
	.file 2 "src/env.c"
	.loc 2 107 1 is_stmt 1
	.cfi_startproc
	endbr64
	pushq	%rbp
	.cfi_def_cfa_offset 16
	.cfi_offset 6, -16
	movq	%rsp, %rbp
	.cfi_def_cfa_register 6
	pushq	%rbx
	subq	$24, %rsp
	.cfi_offset 3, -24
	movl	%edi, -20(%rbp)
	.loc 2 108 6
	cmpl	$0, -20(%rbp)
	je	.L15
	.loc 2 109 5
	movq	program_name(%rip), %rbx
	leaq	.LC31(%rip), %rdi
	call	gettext@PLT
	movq	%rax, %rcx
	movq	stderr(%rip), %rax
	movq	%rbx, %rdx
	movq	%rcx, %rsi
	movq	%rax, %rdi
	movl	$0, %eax
	call	fprintf@PLT
	jmp	.L16
.L15:
	.loc 2 112 7
	movq	program_name(%rip), %rbx
	.loc 2 112 15
	leaq	.LC32(%rip), %rdi
	call	gettext@PLT
	.loc 2 112 7
	movq	%rbx, %rsi
	movq	%rax, %rdi
	movl	$0, %eax
	call	printf@PLT
	.loc 2 115 7
	movq	stdout(%rip), %rbx
	leaq	.LC33(%rip), %rdi
	call	gettext@PLT
	movq	%rbx, %rsi
	movq	%rax, %rdi
	call	fputs_unlocked@PLT
	.loc 2 119 7
	call	emit_mandatory_arg_note
	.loc 2 121 7
	movq	stdout(%rip), %rbx
	leaq	.LC34(%rip), %rdi
	call	gettext@PLT
	movq	%rbx, %rsi
	movq	%rax, %rdi
	call	fputs_unlocked@PLT
	.loc 2 126 7
	movq	stdout(%rip), %rbx
	leaq	.LC35(%rip), %rdi
	call	gettext@PLT
	movq	%rbx, %rsi
	movq	%rax, %rdi
	call	fputs_unlocked@PLT
	.loc 2 129 7
	movq	stdout(%rip), %rbx
	leaq	.LC36(%rip), %rdi
	call	gettext@PLT
	movq	%rbx, %rsi
	movq	%rax, %rdi
	call	fputs_unlocked@PLT
	.loc 2 133 7
	movq	stdout(%rip), %rbx
	leaq	.LC37(%rip), %rdi
	call	gettext@PLT
	movq	%rbx, %rsi
	movq	%rax, %rdi
	call	fputs_unlocked@PLT
	.loc 2 136 7
	movq	stdout(%rip), %rbx
	leaq	.LC38(%rip), %rdi
	call	gettext@PLT
	movq	%rbx, %rsi
	movq	%rax, %rdi
	call	fputs_unlocked@PLT
	.loc 2 139 7
	movq	stdout(%rip), %rbx
	leaq	.LC39(%rip), %rdi
	call	gettext@PLT
	movq	%rbx, %rsi
	movq	%rax, %rdi
	call	fputs_unlocked@PLT
	.loc 2 142 7
	movq	stdout(%rip), %rbx
	leaq	.LC40(%rip), %rdi
	call	gettext@PLT
	movq	%rbx, %rsi
	movq	%rax, %rdi
	call	fputs_unlocked@PLT
	.loc 2 145 7
	movq	stdout(%rip), %rbx
	leaq	.LC41(%rip), %rdi
	call	gettext@PLT
	movq	%rbx, %rsi
	movq	%rax, %rdi
	call	fputs_unlocked@PLT
	.loc 2 148 7
	movq	stdout(%rip), %rbx
	leaq	.LC42(%rip), %rdi
	call	gettext@PLT
	movq	%rbx, %rsi
	movq	%rax, %rdi
	call	fputs_unlocked@PLT
	.loc 2 149 7
	movq	stdout(%rip), %rbx
	leaq	.LC43(%rip), %rdi
	call	gettext@PLT
	movq	%rbx, %rsi
	movq	%rax, %rdi
	call	fputs_unlocked@PLT
	.loc 2 150 7
	movq	stdout(%rip), %rbx
	leaq	.LC44(%rip), %rdi
	call	gettext@PLT
	movq	%rbx, %rsi
	movq	%rax, %rdi
	call	fputs_unlocked@PLT
	.loc 2 154 7
	movq	stdout(%rip), %rbx
	leaq	.LC45(%rip), %rdi
	call	gettext@PLT
	movq	%rbx, %rsi
	movq	%rax, %rdi
	call	fputs_unlocked@PLT
	.loc 2 160 7
	leaq	.LC46(%rip), %rdi
	call	emit_ancillary_info
.L16:
	.loc 2 162 3
	movl	-20(%rbp), %eax
	movl	%eax, %edi
	call	exit@PLT
	.cfi_endproc
.LFE61:
	.size	usage, .-usage
	.type	append_unset_var, @function
append_unset_var:
.LFB62:
	.loc 2 167 1
	.cfi_startproc
	endbr64
	pushq	%rbp
	.cfi_def_cfa_offset 16
	.cfi_offset 6, -16
	movq	%rsp, %rbp
	.cfi_def_cfa_register 6
	subq	$16, %rsp
	movq	%rdi, -8(%rbp)
	.loc 2 168 19
	movq	usvars_used(%rip), %rdx
	movq	usvars_alloc(%rip), %rax
	.loc 2 168 6
	cmpq	%rax, %rdx
	jne	.L18
	.loc 2 169 14
	movq	usvars(%rip), %rax
	movl	$8, %edx
	leaq	usvars_alloc(%rip), %rsi
	movq	%rax, %rdi
	call	x2nrealloc@PLT
	.loc 2 169 12
	movq	%rax, usvars(%rip)
.L18:
	.loc 2 170 9
	movq	usvars(%rip), %rcx
	.loc 2 170 21
	movq	usvars_used(%rip), %rax
	leaq	1(%rax), %rdx
	movq	%rdx, usvars_used(%rip)
	.loc 2 170 9
	salq	$3, %rax
	leaq	(%rcx,%rax), %rdx
	.loc 2 170 25
	movq	-8(%rbp), %rax
	movq	%rax, (%rdx)
	.loc 2 171 1
	nop
	leave
	.cfi_def_cfa 7, 8
	ret
	.cfi_endproc
.LFE62:
	.size	append_unset_var, .-append_unset_var
	.section	.rodata
.LC47:
	.string	"unset:    %s\n"
.LC48:
	.string	"cannot unset %s"
	.text
	.type	unset_envvars, @function
unset_envvars:
.LFB63:
	.loc 2 175 1
	.cfi_startproc
	endbr64
	pushq	%rbp
	.cfi_def_cfa_offset 16
	.cfi_offset 6, -16
	movq	%rsp, %rbp
	.cfi_def_cfa_register 6
	pushq	%r12
	pushq	%rbx
	subq	$16, %rsp
	.cfi_offset 12, -24
	.cfi_offset 3, -32
.LBB2:
	.loc 2 176 15
	movq	$0, -24(%rbp)
	.loc 2 176 3
	jmp	.L20
.L23:
	.loc 2 178 7
	movzbl	dev_debug(%rip), %eax
	testb	%al, %al
	je	.L21
	.loc 2 178 7 is_stmt 0 discriminator 1
	movq	usvars(%rip), %rax
	movq	-24(%rbp), %rdx
	salq	$3, %rdx
	addq	%rdx, %rax
	movq	(%rax), %rdx
	movq	stderr(%rip), %rax
	leaq	.LC47(%rip), %rsi
	movq	%rax, %rdi
	movl	$0, %eax
	call	fprintf@PLT
.L21:
	.loc 2 180 27 is_stmt 1
	movq	usvars(%rip), %rax
	movq	-24(%rbp), %rdx
	salq	$3, %rdx
	addq	%rdx, %rax
	.loc 2 180 11
	movq	(%rax), %rax
	movq	%rax, %rdi
	call	unsetenv@PLT
	.loc 2 180 10
	testl	%eax, %eax
	je	.L22
.LBB3:
	.loc 2 181 9
	movq	usvars(%rip), %rax
	movq	-24(%rbp), %rdx
	salq	$3, %rdx
	addq	%rdx, %rax
	movq	(%rax), %rax
	movq	%rax, %rdi
	call	quote@PLT
	movq	%rax, %r12
	leaq	.LC48(%rip), %rdi
	call	gettext@PLT
	movq	%rax, %rbx
	call	__errno_location@PLT
	movl	(%rax), %eax
	movq	%r12, %rcx
	movq	%rbx, %rdx
	movl	%eax, %esi
	movl	$125, %edi
	movl	$0, %eax
	call	error@PLT
.L22:
.LBE3:
	.loc 2 176 39 discriminator 2
	addq	$1, -24(%rbp)
.L20:
	.loc 2 176 24 discriminator 1
	movq	usvars_used(%rip), %rax
	.loc 2 176 3 discriminator 1
	cmpq	%rax, -24(%rbp)
	jb	.L23
.LBE2:
	.loc 2 185 3
	movq	usvars(%rip), %rax
	movq	%rax, %rdi
	call	free@PLT
	.loc 2 186 3
	movq	$0, usvars(%rip)
	.loc 2 187 3
	movq	$0, usvars_used(%rip)
	.loc 2 188 3
	movq	$0, usvars_alloc(%rip)
	.loc 2 189 1
	nop
	addq	$16, %rsp
	popq	%rbx
	popq	%r12
	popq	%rbp
	.cfi_def_cfa 7, 8
	ret
	.cfi_endproc
.LFE63:
	.size	unset_envvars, .-unset_envvars
	.type	valid_escape_sequence, @function
valid_escape_sequence:
.LFB64:
	.loc 2 193 1
	.cfi_startproc
	endbr64
	pushq	%rbp
	.cfi_def_cfa_offset 16
	.cfi_offset 6, -16
	movq	%rsp, %rbp
	.cfi_def_cfa_register 6
	movl	%edi, %eax
	movb	%al, -4(%rbp)
	.loc 2 196 11
	cmpb	$99, -4(%rbp)
	je	.L25
	.loc 2 194 20
	cmpb	$102, -4(%rbp)
	je	.L25
	.loc 2 194 32 discriminator 1
	cmpb	$110, -4(%rbp)
	je	.L25
	.loc 2 194 44 discriminator 2
	cmpb	$114, -4(%rbp)
	je	.L25
	.loc 2 194 56 discriminator 3
	cmpb	$116, -4(%rbp)
	je	.L25
	.loc 2 194 68 discriminator 4
	cmpb	$118, -4(%rbp)
	je	.L25
	.loc 2 195 11
	cmpb	$35, -4(%rbp)
	je	.L25
	.loc 2 195 23 discriminator 1
	cmpb	$36, -4(%rbp)
	je	.L25
	.loc 2 195 35 discriminator 2
	cmpb	$95, -4(%rbp)
	je	.L25
	.loc 2 195 47 discriminator 3
	cmpb	$34, -4(%rbp)
	je	.L25
	.loc 2 195 59 discriminator 4
	cmpb	$39, -4(%rbp)
	je	.L25
	.loc 2 196 11 discriminator 2
	cmpb	$92, -4(%rbp)
	jne	.L26
.L25:
	.loc 2 196 11 is_stmt 0 discriminator 1
	movl	$1, %eax
	jmp	.L27
.L26:
	.loc 2 196 11 discriminator 3
	movl	$0, %eax
.L27:
	.loc 2 196 11 discriminator 5
	andl	$1, %eax
	.loc 2 197 1 is_stmt 1 discriminator 5
	popq	%rbp
	.cfi_def_cfa 7, 8
	ret
	.cfi_endproc
.LFE64:
	.size	valid_escape_sequence, .-valid_escape_sequence
	.section	.rodata
.LC49:
	.string	"src/env.c"
.LC50:
	.string	"0"
	.text
	.type	escape_char, @function
escape_char:
.LFB65:
	.loc 2 201 1
	.cfi_startproc
	endbr64
	pushq	%rbp
	.cfi_def_cfa_offset 16
	.cfi_offset 6, -16
	movq	%rsp, %rbp
	.cfi_def_cfa_register 6
	subq	$16, %rsp
	movl	%edi, %eax
	movb	%al, -4(%rbp)
	.loc 2 202 3
	movsbl	-4(%rbp), %eax
	subl	$102, %eax
	cmpl	$16, %eax
	ja	.L38
	movl	%eax, %eax
	leaq	0(,%rax,4), %rdx
	leaq	.L32(%rip), %rax
	movl	(%rdx,%rax), %eax
	cltq
	leaq	.L32(%rip), %rdx
	addq	%rdx, %rax
	notrack jmp	*%rax
	.section	.rodata
	.align 4
	.align 4
.L32:
	.long	.L36-.L32
	.long	.L38-.L32
	.long	.L38-.L32
	.long	.L38-.L32
	.long	.L38-.L32
	.long	.L38-.L32
	.long	.L38-.L32
	.long	.L38-.L32
	.long	.L35-.L32
	.long	.L38-.L32
	.long	.L38-.L32
	.long	.L38-.L32
	.long	.L34-.L32
	.long	.L38-.L32
	.long	.L33-.L32
	.long	.L38-.L32
	.long	.L31-.L32
	.text
.L36:
	.loc 2 205 22
	movl	$12, %eax
	jmp	.L37
.L35:
	.loc 2 206 22
	movl	$10, %eax
	jmp	.L37
.L34:
	.loc 2 207 22
	movl	$13, %eax
	jmp	.L37
.L33:
	.loc 2 208 22
	movl	$9, %eax
	jmp	.L37
.L31:
	.loc 2 209 22
	movl	$11, %eax
	jmp	.L37
.L38:
	.loc 2 210 15 discriminator 1
	leaq	__PRETTY_FUNCTION__.6992(%rip), %rcx
	movl	$210, %edx
	leaq	.LC49(%rip), %rsi
	leaq	.LC50(%rip), %rdi
	call	__assert_fail@PLT
.L37:
	.loc 2 212 1
	leave
	.cfi_def_cfa 7, 8
	ret
	.cfi_endproc
.LFE65:
	.size	escape_char, .-escape_char
	.section	.rodata
.LC51:
	.string	"str && *str == '$'"
	.text
	.type	scan_varname, @function
scan_varname:
.LFB66:
	.loc 2 220 1
	.cfi_startproc
	endbr64
	pushq	%rbp
	.cfi_def_cfa_offset 16
	.cfi_offset 6, -16
	movq	%rsp, %rbp
	.cfi_def_cfa_register 6
	subq	$32, %rsp
	movq	%rdi, -24(%rbp)
	.loc 2 221 3
	cmpq	$0, -24(%rbp)
	je	.L40
	.loc 2 221 3 is_stmt 0 discriminator 1
	movq	-24(%rbp), %rax
	movzbl	(%rax), %eax
	cmpb	$36, %al
	je	.L47
.L40:
	.loc 2 221 3 discriminator 3
	leaq	__PRETTY_FUNCTION__.6996(%rip), %rcx
	movl	$221, %edx
	leaq	.LC49(%rip), %rsi
	leaq	.LC51(%rip), %rdi
	call	__assert_fail@PLT
.L47:
	.loc 2 222 13 is_stmt 1
	movq	-24(%rbp), %rax
	addq	$1, %rax
	.loc 2 222 8
	movzbl	(%rax), %eax
	.loc 2 222 6
	cmpb	$123, %al
	jne	.L42
	.loc 2 222 44 discriminator 1
	movq	-24(%rbp), %rax
	addq	$2, %rax
	.loc 2 222 39 discriminator 1
	movzbl	(%rax), %eax
	.loc 2 222 28 discriminator 1
	movsbl	%al, %eax
	movl	%eax, %edi
	call	c_isalpha@PLT
	.loc 2 222 24 discriminator 1
	testb	%al, %al
	jne	.L43
	.loc 2 222 57 discriminator 2
	movq	-24(%rbp), %rax
	addq	$2, %rax
	.loc 2 222 52 discriminator 2
	movzbl	(%rax), %eax
	.loc 2 222 49 discriminator 2
	cmpb	$95, %al
	jne	.L42
.L43:
.LBB4:
	.loc 2 224 19
	movq	-24(%rbp), %rax
	addq	$3, %rax
	movq	%rax, -8(%rbp)
	.loc 2 225 13
	jmp	.L44
.L45:
	.loc 2 226 9
	addq	$1, -8(%rbp)
.L44:
	.loc 2 225 25
	movq	-8(%rbp), %rax
	movzbl	(%rax), %eax
	.loc 2 225 14
	movsbl	%al, %eax
	movl	%eax, %edi
	call	c_isalnum@PLT
	.loc 2 225 13
	testb	%al, %al
	jne	.L45
	.loc 2 225 34 discriminator 1
	movq	-8(%rbp), %rax
	movzbl	(%rax), %eax
	.loc 2 225 31 discriminator 1
	cmpb	$95, %al
	je	.L45
	.loc 2 227 11
	movq	-8(%rbp), %rax
	movzbl	(%rax), %eax
	.loc 2 227 10
	cmpb	$125, %al
	jne	.L42
	.loc 2 228 16
	movq	-8(%rbp), %rax
	jmp	.L46
.L42:
.LBE4:
	.loc 2 231 10
	movl	$0, %eax
.L46:
	.loc 2 232 1
	leave
	.cfi_def_cfa 7, 8
	ret
	.cfi_endproc
.LFE66:
	.size	scan_varname, .-scan_varname
	.type	extract_varname, @function
extract_varname:
.LFB67:
	.loc 2 241 1
	.cfi_startproc
	endbr64
	pushq	%rbp
	.cfi_def_cfa_offset 16
	.cfi_offset 6, -16
	movq	%rsp, %rbp
	.cfi_def_cfa_register 6
	subq	$32, %rsp
	movq	%rdi, -24(%rbp)
	.loc 2 245 7
	movq	-24(%rbp), %rax
	movq	%rax, %rdi
	call	scan_varname
	movq	%rax, -16(%rbp)
	.loc 2 246 6
	cmpq	$0, -16(%rbp)
	jne	.L49
	.loc 2 247 12
	movl	$0, %eax
	jmp	.L50
.L49:
	.loc 2 250 9
	movq	-16(%rbp), %rax
	subq	-24(%rbp), %rax
	.loc 2 250 5
	subq	$2, %rax
	movq	%rax, -8(%rbp)
	.loc 2 252 9
	movq	-8(%rbp), %rdx
	movq	vnlen(%rip), %rax
	.loc 2 252 6
	cmpq	%rax, %rdx
	jb	.L51
	.loc 2 254 17
	movq	-8(%rbp), %rax
	addq	$1, %rax
	.loc 2 254 13
	movq	%rax, vnlen(%rip)
	.loc 2 255 17
	movq	vnlen(%rip), %rdx
	movq	varname(%rip), %rax
	movq	%rdx, %rsi
	movq	%rax, %rdi
	call	xrealloc@PLT
	.loc 2 255 15
	movq	%rax, varname(%rip)
.L51:
	.loc 2 258 3
	movq	-8(%rbp), %rdx
	.loc 2 258 23
	movq	-24(%rbp), %rax
	leaq	2(%rax), %rcx
	.loc 2 258 3
	movq	varname(%rip), %rax
	movq	%rcx, %rsi
	movq	%rax, %rdi
	call	memcpy@PLT
	.loc 2 259 10
	movq	varname(%rip), %rdx
	movq	-8(%rbp), %rax
	addq	%rdx, %rax
	.loc 2 259 13
	movb	$0, (%rax)
	.loc 2 261 10
	movq	varname(%rip), %rax
.L50:
	.loc 2 262 1
	leave
	.cfi_def_cfa 7, 8
	ret
	.cfi_endproc
.LFE67:
	.size	extract_varname, .-extract_varname
	.section	.rodata
	.align 8
.LC52:
	.string	"str && str[0] && !isspace (str[0])"
.LC53:
	.string	"!(sq && dq)"
	.align 8
.LC54:
	.string	"'\\c' must not appear in double-quoted -S string"
	.align 8
.LC55:
	.string	"invalid backslash at end of string in -S"
.LC56:
	.string	"invalid sequence '\\%c' in -S"
	.align 8
.LC57:
	.string	"only ${VARNAME} expansion is supported, error at: %s"
	.align 8
.LC58:
	.string	"no terminating quote in -S string"
	.text
	.type	validate_split_str, @function
validate_split_str:
.LFB68:
	.loc 2 274 1
	.cfi_startproc
	endbr64
	pushq	%rbp
	.cfi_def_cfa_offset 16
	.cfi_offset 6, -16
	movq	%rsp, %rbp
	.cfi_def_cfa_register 6
	pushq	%rbx
	subq	$72, %rsp
	.cfi_offset 3, -24
	movq	%rdi, -56(%rbp)
	movq	%rsi, -64(%rbp)
	movq	%rdx, -72(%rbp)
	.loc 2 278 7
	movl	$1, -36(%rbp)
	.loc 2 280 3
	cmpq	$0, -56(%rbp)
	je	.L53
	.loc 2 280 3 is_stmt 0 discriminator 1
	movq	-56(%rbp), %rax
	movzbl	(%rax), %eax
	testb	%al, %al
	je	.L53
	.loc 2 280 3 discriminator 3
	call	__ctype_b_loc@PLT
	movq	(%rax), %rdx
	movq	-56(%rbp), %rax
	movzbl	(%rax), %eax
	movsbq	%al, %rax
	addq	%rax, %rax
	addq	%rdx, %rax
	movzwl	(%rax), %eax
	movzwl	%ax, %eax
	andl	$8192, %eax
	testl	%eax, %eax
	je	.L80
.L53:
	.loc 2 280 3 discriminator 5
	leaq	__PRETTY_FUNCTION__.7017(%rip), %rcx
	movl	$280, %edx
	leaq	.LC49(%rip), %rsi
	leaq	.LC52(%rip), %rdi
	call	__assert_fail@PLT
.L80:
	.loc 2 282 16 is_stmt 1
	movb	$0, -38(%rbp)
	.loc 2 282 11
	movzbl	-38(%rbp), %eax
	movb	%al, -39(%rbp)
	.loc 2 282 6
	movzbl	-39(%rbp), %eax
	movb	%al, -40(%rbp)
	.loc 2 283 12
	movq	-56(%rbp), %rax
	movq	%rax, %rdi
	call	strlen@PLT
	.loc 2 283 10
	addq	$1, %rax
	movq	%rax, -32(%rbp)
	.loc 2 285 9
	jmp	.L55
.L77:
.LBB5:
	.loc 2 287 18
	movq	-56(%rbp), %rax
	movzbl	1(%rax), %eax
	movb	%al, -37(%rbp)
	.loc 2 289 11
	call	__ctype_b_loc@PLT
	movq	(%rax), %rdx
	movq	-56(%rbp), %rax
	movzbl	(%rax), %eax
	movsbq	%al, %rax
	addq	%rax, %rax
	addq	%rdx, %rax
	movzwl	(%rax), %eax
	movzwl	%ax, %eax
	andl	$8192, %eax
	.loc 2 289 10
	testl	%eax, %eax
	je	.L56
	.loc 2 289 29 discriminator 1
	movzbl	-40(%rbp), %eax
	xorl	$1, %eax
	.loc 2 289 26 discriminator 1
	testb	%al, %al
	je	.L56
	.loc 2 289 36 discriminator 2
	movzbl	-39(%rbp), %eax
	xorl	$1, %eax
	.loc 2 289 33 discriminator 2
	testb	%al, %al
	je	.L56
	.loc 2 291 14
	movb	$1, -38(%rbp)
	jmp	.L57
.L56:
	.loc 2 295 14
	cmpb	$0, -38(%rbp)
	je	.L58
	.loc 2 296 13
	addl	$1, -36(%rbp)
.L58:
	.loc 2 297 14
	movb	$0, -38(%rbp)
.L57:
	.loc 2 300 15
	movq	-56(%rbp), %rax
	movzbl	(%rax), %eax
	movsbl	%al, %eax
	.loc 2 300 7
	cmpl	$92, %eax
	je	.L59
	cmpl	$92, %eax
	jg	.L60
	cmpl	$39, %eax
	je	.L61
	cmpl	$39, %eax
	jg	.L60
	cmpl	$34, %eax
	je	.L62
	cmpl	$36, %eax
	je	.L63
	jmp	.L60
.L61:
	.loc 2 303 11
	movzbl	-39(%rbp), %eax
	xorl	$1, %eax
	testb	%al, %al
	jne	.L64
	.loc 2 303 11 is_stmt 0 discriminator 1
	movzbl	-40(%rbp), %eax
	xorl	$1, %eax
	testb	%al, %al
	jne	.L64
	.loc 2 303 11 discriminator 2
	leaq	__PRETTY_FUNCTION__.7017(%rip), %rcx
	movl	$303, %edx
	leaq	.LC49(%rip), %rsi
	leaq	.LC53(%rip), %rdi
	call	__assert_fail@PLT
.L64:
	.loc 2 304 16 is_stmt 1
	movzbl	-39(%rbp), %eax
	xorl	$1, %eax
	.loc 2 304 20
	testb	%al, %al
	je	.L65
	.loc 2 304 23 discriminator 1
	movzbl	-40(%rbp), %eax
	xorl	$1, %eax
	.loc 2 304 20 discriminator 1
	testb	%al, %al
	je	.L65
	.loc 2 304 20 is_stmt 0 discriminator 3
	movl	$1, %eax
	jmp	.L66
.L65:
	.loc 2 304 20 discriminator 4
	movl	$0, %eax
.L66:
	.loc 2 304 14 is_stmt 1 discriminator 6
	movb	%al, -39(%rbp)
	andb	$1, -39(%rbp)
	.loc 2 305 11 discriminator 6
	jmp	.L60
.L62:
	.loc 2 308 11
	movzbl	-39(%rbp), %eax
	xorl	$1, %eax
	testb	%al, %al
	jne	.L67
	.loc 2 308 11 is_stmt 0 discriminator 1
	movzbl	-40(%rbp), %eax
	xorl	$1, %eax
	testb	%al, %al
	jne	.L67
	.loc 2 308 11 discriminator 2
	leaq	__PRETTY_FUNCTION__.7017(%rip), %rcx
	movl	$308, %edx
	leaq	.LC49(%rip), %rsi
	leaq	.LC53(%rip), %rdi
	call	__assert_fail@PLT
.L67:
	.loc 2 309 16 is_stmt 1
	movzbl	-39(%rbp), %eax
	xorl	$1, %eax
	.loc 2 309 20
	testb	%al, %al
	je	.L68
	.loc 2 309 23 discriminator 1
	movzbl	-40(%rbp), %eax
	xorl	$1, %eax
	.loc 2 309 20 discriminator 1
	testb	%al, %al
	je	.L68
	.loc 2 309 20 is_stmt 0 discriminator 3
	movl	$1, %eax
	jmp	.L69
.L68:
	.loc 2 309 20 discriminator 4
	movl	$0, %eax
.L69:
	.loc 2 309 14 is_stmt 1 discriminator 6
	movb	%al, -40(%rbp)
	andb	$1, -40(%rbp)
	.loc 2 310 11 discriminator 6
	jmp	.L60
.L59:
	.loc 2 313 14
	cmpb	$0, -40(%rbp)
	je	.L70
	.loc 2 313 18 discriminator 1
	cmpb	$99, -37(%rbp)
	jne	.L70
.LBB6:
	.loc 2 314 13
	leaq	.LC54(%rip), %rdi
	call	gettext@PLT
	movq	%rax, %rdx
	movl	$0, %esi
	movl	$125, %edi
	movl	$0, %eax
	call	error@PLT
.L70:
.LBE6:
	.loc 2 317 14
	cmpb	$0, -37(%rbp)
	jne	.L71
.LBB7:
	.loc 2 318 13
	leaq	.LC55(%rip), %rdi
	call	gettext@PLT
	movq	%rax, %rdx
	movl	$0, %esi
	movl	$125, %edi
	movl	$0, %eax
	call	error@PLT
.L71:
.LBE7:
	.loc 2 321 16
	movsbl	-37(%rbp), %eax
	movl	%eax, %edi
	call	valid_escape_sequence
	.loc 2 321 15
	xorl	$1, %eax
	.loc 2 321 14
	testb	%al, %al
	je	.L72
.LBB8:
	.loc 2 322 13
	movsbl	-37(%rbp), %ebx
	leaq	.LC56(%rip), %rdi
	call	gettext@PLT
	movl	%ebx, %ecx
	movq	%rax, %rdx
	movl	$0, %esi
	movl	$125, %edi
	movl	$0, %eax
	call	error@PLT
.L72:
.LBE8:
	.loc 2 324 14
	cmpb	$95, -37(%rbp)
	jne	.L73
	.loc 2 325 13
	addl	$1, -36(%rbp)
.L73:
	.loc 2 327 11
	addq	$1, -56(%rbp)
	.loc 2 328 11
	jmp	.L60
.L63:
	.loc 2 332 14
	cmpb	$0, -39(%rbp)
	jne	.L81
	.loc 2 335 23
	movq	-56(%rbp), %rax
	movq	%rax, %rdi
	call	extract_varname
	movq	%rax, -24(%rbp)
	.loc 2 335 14
	cmpq	$0, -24(%rbp)
	jne	.L75
.LBB9:
	.loc 2 336 13
	leaq	.LC57(%rip), %rdi
	call	gettext@PLT
	movq	%rax, %rdx
	movq	-56(%rbp), %rax
	movq	%rax, %rcx
	movl	$0, %esi
	movl	$125, %edi
	movl	$0, %eax
	call	error@PLT
.L75:
.LBE9:
	.loc 2 339 22
	movq	-24(%rbp), %rax
	movq	%rax, %rdi
	call	getenv@PLT
	movq	%rax, -24(%rbp)
	.loc 2 339 14
	cmpq	$0, -24(%rbp)
	je	.L82
	.loc 2 340 23
	movq	-24(%rbp), %rax
	movq	%rax, %rdi
	call	strlen@PLT
	.loc 2 340 20
	addq	%rax, -32(%rbp)
	.loc 2 341 11
	jmp	.L82
.L81:
	.loc 2 333 13
	nop
	jmp	.L60
.L82:
	.loc 2 341 11
	nop
.L60:
	.loc 2 343 7
	addq	$1, -56(%rbp)
.L55:
.LBE5:
	.loc 2 285 10
	movq	-56(%rbp), %rax
	movzbl	(%rax), %eax
	.loc 2 285 9
	testb	%al, %al
	jne	.L77
	.loc 2 346 6
	cmpb	$0, -40(%rbp)
	jne	.L78
	.loc 2 346 10 discriminator 1
	cmpb	$0, -39(%rbp)
	je	.L79
.L78:
.LBB10:
	.loc 2 347 5
	leaq	.LC58(%rip), %rdi
	call	gettext@PLT
	movq	%rax, %rdx
	movl	$0, %esi
	movl	$125, %edi
	movl	$0, %eax
	call	error@PLT
.L79:
.LBE10:
	.loc 2 349 12
	movq	-72(%rbp), %rax
	movl	-36(%rbp), %edx
	movl	%edx, (%rax)
	.loc 2 350 12
	movq	-64(%rbp), %rax
	movq	-32(%rbp), %rdx
	movq	%rdx, (%rax)
	.loc 2 351 1
	nop
	addq	$72, %rsp
	popq	%rbx
	popq	%rbp
	.cfi_def_cfa 7, 8
	ret
	.cfi_endproc
.LFE68:
	.size	validate_split_str, .-validate_split_str
	.section	.rodata
.LC59:
	.string	" \t"
.LC60:
	.string	"n"
.LC61:
	.string	"expanding ${%s} into %s\n"
	.align 8
.LC62:
	.string	"replacing ${%s} with null string\n"
	.text
	.type	build_argv, @function
build_argv:
.LFB69:
	.loc 2 374 1
	.cfi_startproc
	endbr64
	pushq	%rbp
	.cfi_def_cfa_offset 16
	.cfi_offset 6, -16
	movq	%rsp, %rbp
	.cfi_def_cfa_register 6
	subq	$80, %rsp
	movq	%rdi, -72(%rbp)
	movl	%esi, -76(%rbp)
	.loc 2 374 1
	movq	%fs:40, %rax
	movq	%rax, -8(%rbp)
	xorl	%eax, %eax
	.loc 2 375 8
	movb	$0, -64(%rbp)
	.loc 2 375 20
	movb	$0, -63(%rbp)
	.loc 2 375 32
	movb	$1, -62(%rbp)
	.loc 2 379 7
	movl	$0, -60(%rbp)
	.loc 2 380 10
	movq	$0, -56(%rbp)
	.loc 2 395 3
	cmpq	$0, -72(%rbp)
	je	.L84
	.loc 2 395 3 is_stmt 0 discriminator 1
	movq	-72(%rbp), %rax
	movzbl	(%rax), %eax
	testb	%al, %al
	je	.L84
	.loc 2 395 3 discriminator 3
	call	__ctype_b_loc@PLT
	movq	(%rax), %rdx
	movq	-72(%rbp), %rax
	movzbl	(%rax), %eax
	movsbq	%al, %rax
	addq	%rax, %rax
	addq	%rdx, %rax
	movzwl	(%rax), %eax
	movzwl	%ax, %eax
	andl	$8192, %eax
	testl	%eax, %eax
	je	.L119
.L84:
	.loc 2 395 3 discriminator 5
	leaq	__PRETTY_FUNCTION__.7049(%rip), %rcx
	movl	$395, %edx
	leaq	.LC49(%rip), %rsi
	leaq	.LC52(%rip), %rdi
	call	__assert_fail@PLT
.L119:
	.loc 2 397 3 is_stmt 1
	leaq	-60(%rbp), %rdx
	leaq	-56(%rbp), %rcx
	movq	-72(%rbp), %rax
	movq	%rcx, %rsi
	movq	%rax, %rdi
	call	validate_split_str
	.loc 2 400 10
	movq	-56(%rbp), %rax
	addq	$7, %rax
	movq	%rax, %rdi
	call	xmalloc@PLT
	movq	%rax, -48(%rbp)
	.loc 2 404 42
	movl	-60(%rbp), %edx
	movl	-76(%rbp), %eax
	addl	%edx, %eax
	.loc 2 404 55
	addl	$2, %eax
	cltq
	.loc 2 404 24
	salq	$3, %rax
	movq	%rax, %rdi
	call	xmalloc@PLT
	movq	%rax, -32(%rbp)
	.loc 2 404 12
	movq	-32(%rbp), %rax
	movq	%rax, -40(%rbp)
	.loc 2 407 3
	movq	-48(%rbp), %rax
	movl	$1296913732, (%rax)
	movw	$89, 4(%rax)
	.loc 2 408 12
	movq	-40(%rbp), %rax
	leaq	8(%rax), %rdx
	movq	%rdx, -40(%rbp)
	.loc 2 408 15
	movq	-48(%rbp), %rdx
	movq	%rdx, (%rax)
	.loc 2 409 8
	addq	$6, -48(%rbp)
	.loc 2 414 9
	jmp	.L86
.L116:
.LBB11:
	.loc 2 416 12
	movq	-72(%rbp), %rax
	movzbl	(%rax), %eax
	movb	%al, -61(%rbp)
	.loc 2 418 15
	movq	-72(%rbp), %rax
	movzbl	(%rax), %eax
	movsbl	%al, %eax
	.loc 2 418 7
	cmpl	$39, %eax
	jg	.L87
	cmpl	$9, %eax
	jl	.L88
	subl	$9, %eax
	cmpl	$30, %eax
	ja	.L88
	movl	%eax, %eax
	leaq	0(,%rax,4), %rdx
	leaq	.L90(%rip), %rax
	movl	(%rdx,%rax), %eax
	cltq
	leaq	.L90(%rip), %rdx
	addq	%rdx, %rax
	notrack jmp	*%rax
	.section	.rodata
	.align 4
	.align 4
.L90:
	.long	.L94-.L90
	.long	.L88-.L90
	.long	.L88-.L90
	.long	.L88-.L90
	.long	.L88-.L90
	.long	.L88-.L90
	.long	.L88-.L90
	.long	.L88-.L90
	.long	.L88-.L90
	.long	.L88-.L90
	.long	.L88-.L90
	.long	.L88-.L90
	.long	.L88-.L90
	.long	.L88-.L90
	.long	.L88-.L90
	.long	.L88-.L90
	.long	.L88-.L90
	.long	.L88-.L90
	.long	.L88-.L90
	.long	.L88-.L90
	.long	.L88-.L90
	.long	.L88-.L90
	.long	.L88-.L90
	.long	.L94-.L90
	.long	.L88-.L90
	.long	.L93-.L90
	.long	.L92-.L90
	.long	.L91-.L90
	.long	.L88-.L90
	.long	.L88-.L90
	.long	.L89-.L90
	.text
.L87:
	cmpl	$92, %eax
	je	.L95
	jmp	.L88
.L89:
	.loc 2 421 14
	cmpb	$0, -64(%rbp)
	jne	.L120
	.loc 2 423 11
	movzbl	-63(%rbp), %eax
	testl	%eax, %eax
	setne	%al
	xorl	$1, %eax
	movzbl	%al, %eax
	.loc 2 423 14
	movb	%al, -63(%rbp)
	andb	$1, -63(%rbp)
	.loc 2 424 11
	cmpb	$0, -62(%rbp)
	je	.L97
	.loc 2 424 11 is_stmt 0 discriminator 1
	movq	-48(%rbp), %rax
	leaq	1(%rax), %rdx
	movq	%rdx, -48(%rbp)
	movb	$0, (%rax)
	movq	-40(%rbp), %rax
	leaq	8(%rax), %rdx
	movq	%rdx, -40(%rbp)
	movq	-48(%rbp), %rdx
	movq	%rdx, (%rax)
	movb	$0, -62(%rbp)
.L97:
	.loc 2 425 11 is_stmt 1
	addq	$1, -72(%rbp)
	.loc 2 426 11
	jmp	.L86
.L93:
	.loc 2 429 14
	cmpb	$0, -63(%rbp)
	jne	.L121
	.loc 2 431 11
	movzbl	-64(%rbp), %eax
	testl	%eax, %eax
	setne	%al
	xorl	$1, %eax
	movzbl	%al, %eax
	.loc 2 431 14
	movb	%al, -64(%rbp)
	andb	$1, -64(%rbp)
	.loc 2 432 11
	cmpb	$0, -62(%rbp)
	je	.L99
	.loc 2 432 11 is_stmt 0 discriminator 1
	movq	-48(%rbp), %rax
	leaq	1(%rax), %rdx
	movq	%rdx, -48(%rbp)
	movb	$0, (%rax)
	movq	-40(%rbp), %rax
	leaq	8(%rax), %rdx
	movq	%rdx, -40(%rbp)
	movq	-48(%rbp), %rdx
	movq	%rdx, (%rax)
	movb	$0, -62(%rbp)
.L99:
	.loc 2 433 11 is_stmt 1
	addq	$1, -72(%rbp)
	.loc 2 434 11
	jmp	.L86
.L94:
	.loc 2 439 14
	cmpb	$0, -63(%rbp)
	jne	.L122
	.loc 2 439 18 discriminator 1
	cmpb	$0, -64(%rbp)
	jne	.L122
	.loc 2 441 15
	movb	$1, -62(%rbp)
	.loc 2 442 18
	movq	-72(%rbp), %rax
	leaq	.LC59(%rip), %rsi
	movq	%rax, %rdi
	call	strspn@PLT
	.loc 2 442 15
	addq	%rax, -72(%rbp)
	.loc 2 443 11
	jmp	.L86
.L92:
	.loc 2 446 15
	movzbl	-62(%rbp), %eax
	xorl	$1, %eax
	.loc 2 446 14
	testb	%al, %al
	je	.L123
	.loc 2 447 13
	jmp	.L88
.L95:
	.loc 2 452 14
	cmpb	$0, -63(%rbp)
	je	.L102
	.loc 2 452 26 discriminator 1
	movq	-72(%rbp), %rax
	addq	$1, %rax
	.loc 2 452 21 discriminator 1
	movzbl	(%rax), %eax
	.loc 2 452 18 discriminator 1
	cmpb	$92, %al
	je	.L102
	.loc 2 452 46 discriminator 2
	movq	-72(%rbp), %rax
	addq	$1, %rax
	.loc 2 452 41 discriminator 2
	movzbl	(%rax), %eax
	.loc 2 452 38 discriminator 2
	cmpb	$39, %al
	jne	.L124
.L102:
	.loc 2 456 16
	addq	$1, -72(%rbp)
	movq	-72(%rbp), %rax
	movzbl	(%rax), %eax
	movb	%al, -61(%rbp)
	.loc 2 457 14
	cmpb	$92, -61(%rbp)
	je	.L125
	.loc 2 457 29 discriminator 1
	cmpb	$39, -61(%rbp)
	je	.L125
	.loc 2 458 19
	movzbl	-63(%rbp), %eax
	xorl	$1, %eax
	.loc 2 458 15
	testb	%al, %al
	je	.L104
	.loc 2 458 23 discriminator 1
	cmpb	$35, -61(%rbp)
	je	.L126
	.loc 2 458 39 discriminator 2
	cmpb	$36, -61(%rbp)
	je	.L126
	.loc 2 458 54 discriminator 3
	cmpb	$34, -61(%rbp)
	je	.L126
.L104:
	.loc 2 462 19
	cmpb	$95, -61(%rbp)
	jne	.L106
	.loc 2 464 19
	movzbl	-64(%rbp), %eax
	xorl	$1, %eax
	.loc 2 464 18
	testb	%al, %al
	je	.L107
	.loc 2 466 19
	addq	$1, -72(%rbp)
	.loc 2 467 23
	movb	$1, -62(%rbp)
	.loc 2 468 19
	jmp	.L86
.L107:
	.loc 2 471 24
	movb	$32, -61(%rbp)
	.loc 2 477 11
	jmp	.L125
.L106:
	.loc 2 473 19
	cmpb	$99, -61(%rbp)
	je	.L127
	.loc 2 476 22
	movsbl	-61(%rbp), %eax
	movl	%eax, %edi
	call	escape_char
	movb	%al, -61(%rbp)
	.loc 2 477 11
	jmp	.L125
.L126:
	.loc 2 457 29
	nop
	.loc 2 477 11
	jmp	.L125
.L91:
	.loc 2 481 14
	cmpb	$0, -63(%rbp)
	jne	.L128
.LBB12:
	.loc 2 486 23
	movq	-72(%rbp), %rax
	movq	%rax, %rdi
	call	extract_varname
	movq	%rax, -24(%rbp)
	.loc 2 487 13
	cmpq	$0, -24(%rbp)
	jne	.L110
	.loc 2 487 13 is_stmt 0 discriminator 1
	leaq	__PRETTY_FUNCTION__.7049(%rip), %rcx
	movl	$487, %edx
	leaq	.LC49(%rip), %rsi
	leaq	.LC60(%rip), %rdi
	call	__assert_fail@PLT
.L110:
	.loc 2 488 23 is_stmt 1
	movq	-24(%rbp), %rax
	movq	%rax, %rdi
	call	getenv@PLT
	movq	%rax, -16(%rbp)
	.loc 2 489 16
	cmpq	$0, -16(%rbp)
	je	.L111
	.loc 2 491 17
	cmpb	$0, -62(%rbp)
	je	.L112
	.loc 2 491 17 is_stmt 0 discriminator 1
	movq	-48(%rbp), %rax
	leaq	1(%rax), %rdx
	movq	%rdx, -48(%rbp)
	movb	$0, (%rax)
	movq	-40(%rbp), %rax
	leaq	8(%rax), %rdx
	movq	%rdx, -40(%rbp)
	movq	-48(%rbp), %rdx
	movq	%rdx, (%rax)
	movb	$0, -62(%rbp)
.L112:
	.loc 2 492 17 is_stmt 1
	movzbl	dev_debug(%rip), %eax
	testb	%al, %al
	je	.L113
	.loc 2 492 17 is_stmt 0 discriminator 1
	movq	-16(%rbp), %rax
	movq	%rax, %rdi
	call	quote@PLT
	movq	%rax, %rcx
	movq	stderr(%rip), %rax
	movq	-24(%rbp), %rdx
	leaq	.LC61(%rip), %rsi
	movq	%rax, %rdi
	movl	$0, %eax
	call	fprintf@PLT
.L113:
	.loc 2 493 24 is_stmt 1
	movq	-16(%rbp), %rdx
	movq	-48(%rbp), %rax
	movq	%rdx, %rsi
	movq	%rax, %rdi
	call	stpcpy@PLT
	movq	%rax, -48(%rbp)
	jmp	.L114
.L111:
	.loc 2 496 15
	movzbl	dev_debug(%rip), %eax
	testb	%al, %al
	je	.L114
	.loc 2 496 15 is_stmt 0 discriminator 1
	movq	stderr(%rip), %rax
	movq	-24(%rbp), %rdx
	leaq	.LC62(%rip), %rsi
	movq	%rax, %rdi
	movl	$0, %eax
	call	fprintf@PLT
.L114:
	.loc 2 498 19 is_stmt 1
	movq	-72(%rbp), %rax
	movl	$125, %esi
	movq	%rax, %rdi
	call	strchr@PLT
	.loc 2 498 17
	addq	$1, %rax
	movq	%rax, -72(%rbp)
	.loc 2 499 13
	jmp	.L86
.L120:
.LBE12:
	.loc 2 422 13
	nop
	jmp	.L88
.L121:
	.loc 2 430 13
	nop
	jmp	.L88
.L122:
	.loc 2 504 7
	nop
	jmp	.L88
.L124:
	.loc 2 453 13
	nop
	jmp	.L88
.L125:
	.loc 2 477 11
	nop
	jmp	.L88
.L128:
	.loc 2 482 13
	nop
.L88:
	.loc 2 504 7
	cmpb	$0, -62(%rbp)
	je	.L115
	.loc 2 504 7 is_stmt 0 discriminator 1
	movq	-48(%rbp), %rax
	leaq	1(%rax), %rdx
	movq	%rdx, -48(%rbp)
	movb	$0, (%rax)
	movq	-40(%rbp), %rax
	leaq	8(%rax), %rdx
	movq	%rdx, -40(%rbp)
	movq	-48(%rbp), %rdx
	movq	%rdx, (%rax)
	movb	$0, -62(%rbp)
.L115:
	.loc 2 505 12 is_stmt 1
	movq	-48(%rbp), %rax
	leaq	1(%rax), %rdx
	movq	%rdx, -48(%rbp)
	.loc 2 505 15
	movzbl	-61(%rbp), %edx
	movb	%dl, (%rax)
	.loc 2 506 7
	addq	$1, -72(%rbp)
.L86:
.LBE11:
	.loc 2 414 10
	movq	-72(%rbp), %rax
	movzbl	(%rax), %eax
	.loc 2 414 9
	testb	%al, %al
	jne	.L116
	.loc 2 509 2
	jmp	.L101
.L123:
.LBB13:
	.loc 2 448 11
	nop
	jmp	.L101
.L127:
	.loc 2 474 15
	nop
.L101:
.LBE13:
	.loc 2 510 9
	movq	-48(%rbp), %rax
	movb	$0, (%rax)
	.loc 2 511 13
	movq	-40(%rbp), %rax
	movq	$0, (%rax)
	.loc 2 513 10
	movq	-32(%rbp), %rax
	.loc 2 514 1
	movq	-8(%rbp), %rcx
	xorq	%fs:40, %rcx
	je	.L118
	call	__stack_chk_fail@PLT
.L118:
	leave
	.cfi_def_cfa 7, 8
	ret
	.cfi_endproc
.LFE69:
	.size	build_argv, .-build_argv
	.section	.rodata
.LC63:
	.string	"split -S:  %s\n"
.LC64:
	.string	" into:    %s\n"
.LC65:
	.string	"     &    %s\n"
	.text
	.type	parse_split_string, @function
parse_split_string:
.LFB70:
	.loc 2 538 1
	.cfi_startproc
	endbr64
	pushq	%rbp
	.cfi_def_cfa_offset 16
	.cfi_offset 6, -16
	movq	%rsp, %rbp
	.cfi_def_cfa_register 6
	subq	$64, %rsp
	movq	%rdi, -40(%rbp)
	movq	%rsi, -48(%rbp)
	movq	%rdx, -56(%rbp)
	movq	%rcx, -64(%rbp)
	.loc 2 543 9
	jmp	.L130
.L131:
	.loc 2 544 8
	addq	$1, -40(%rbp)
.L130:
	.loc 2 543 10
	call	__ctype_b_loc@PLT
	movq	(%rax), %rdx
	movq	-40(%rbp), %rax
	movzbl	(%rax), %eax
	movsbq	%al, %rax
	addq	%rax, %rax
	addq	%rdx, %rax
	movzwl	(%rax), %eax
	movzwl	%ax, %eax
	andl	$8192, %eax
	.loc 2 543 9
	testl	%eax, %eax
	jne	.L131
	.loc 2 545 7
	movq	-40(%rbp), %rax
	movzbl	(%rax), %eax
	.loc 2 545 6
	testb	%al, %al
	je	.L146
	.loc 2 548 30
	movq	-56(%rbp), %rax
	movl	(%rax), %edx
	.loc 2 548 43
	movq	-48(%rbp), %rax
	movl	(%rax), %eax
	.loc 2 548 13
	subl	%eax, %edx
	movq	-40(%rbp), %rax
	movl	%edx, %esi
	movq	%rax, %rdi
	call	build_argv
	movq	%rax, -8(%rbp)
	.loc 2 551 15
	movq	-64(%rbp), %rax
	movq	(%rax), %rax
	.loc 2 551 26
	movq	(%rax), %rdx
	.loc 2 551 12
	movq	-8(%rbp), %rax
	movq	%rdx, (%rax)
	.loc 2 554 12
	movq	-8(%rbp), %rax
	addq	$8, %rax
	movq	%rax, -16(%rbp)
	.loc 2 557 7
	movzbl	dev_debug(%rip), %eax
	.loc 2 557 6
	testb	%al, %al
	je	.L140
	.loc 2 557 20 discriminator 1
	movq	-16(%rbp), %rax
	movq	(%rax), %rax
	.loc 2 557 17 discriminator 1
	testq	%rax, %rax
	je	.L140
	.loc 2 559 7
	movzbl	dev_debug(%rip), %eax
	testb	%al, %al
	je	.L135
	.loc 2 559 7 is_stmt 0 discriminator 1
	movq	-40(%rbp), %rax
	movq	%rax, %rdi
	call	quote@PLT
	movq	%rax, %rdx
	movq	stderr(%rip), %rax
	leaq	.LC63(%rip), %rsi
	movq	%rax, %rdi
	movl	$0, %eax
	call	fprintf@PLT
.L135:
	.loc 2 560 7 is_stmt 1
	movzbl	dev_debug(%rip), %eax
	testb	%al, %al
	je	.L137
	.loc 2 560 7 is_stmt 0 discriminator 1
	movq	-16(%rbp), %rax
	leaq	8(%rax), %rdx
	movq	%rdx, -16(%rbp)
	movq	(%rax), %rax
	movq	%rax, %rdi
	call	quote@PLT
	movq	%rax, %rdx
	movq	stderr(%rip), %rax
	leaq	.LC64(%rip), %rsi
	movq	%rax, %rdi
	movl	$0, %eax
	call	fprintf@PLT
	.loc 2 561 13 is_stmt 1 discriminator 1
	jmp	.L137
.L138:
	.loc 2 562 9
	movzbl	dev_debug(%rip), %eax
	testb	%al, %al
	je	.L137
	.loc 2 562 9 is_stmt 0 discriminator 1
	movq	-16(%rbp), %rax
	leaq	8(%rax), %rdx
	movq	%rdx, -16(%rbp)
	movq	(%rax), %rax
	movq	%rax, %rdi
	call	quote@PLT
	movq	%rax, %rdx
	movq	stderr(%rip), %rax
	leaq	.LC65(%rip), %rsi
	movq	%rax, %rdi
	movl	$0, %eax
	call	fprintf@PLT
.L137:
	.loc 2 561 14 is_stmt 1
	movq	-16(%rbp), %rax
	movq	(%rax), %rax
	.loc 2 561 13
	testq	%rax, %rax
	jne	.L138
	.loc 2 557 6
	jmp	.L139
.L141:
	.loc 2 568 9
	addq	$8, -16(%rbp)
.L140:
	.loc 2 567 14
	movq	-16(%rbp), %rax
	movq	(%rax), %rax
	.loc 2 567 13
	testq	%rax, %rax
	jne	.L141
.L139:
	.loc 2 572 10
	movq	-48(%rbp), %rax
	movl	(%rax), %eax
	movl	%eax, -24(%rbp)
	.loc 2 572 3
	jmp	.L142
.L143:
	.loc 2 573 20 discriminator 3
	movq	-64(%rbp), %rax
	movq	(%rax), %rax
	.loc 2 573 31 discriminator 3
	movl	-24(%rbp), %edx
	movslq	%edx, %rdx
	salq	$3, %rdx
	leaq	(%rax,%rdx), %rcx
	.loc 2 573 14 discriminator 3
	movq	-16(%rbp), %rax
	leaq	8(%rax), %rdx
	movq	%rdx, -16(%rbp)
	.loc 2 573 31 discriminator 3
	movq	(%rcx), %rdx
	.loc 2 573 17 discriminator 3
	movq	%rdx, (%rax)
	.loc 2 572 42 discriminator 3
	addl	$1, -24(%rbp)
.L142:
	.loc 2 572 30 discriminator 1
	movq	-56(%rbp), %rax
	movl	(%rax), %eax
	.loc 2 572 3 discriminator 1
	cmpl	%eax, -24(%rbp)
	jl	.L143
	.loc 2 574 13
	movq	-16(%rbp), %rax
	movq	$0, (%rax)
	.loc 2 577 11
	movl	$0, -20(%rbp)
	.loc 2 578 17
	movq	-8(%rbp), %rax
	movq	%rax, -16(%rbp)
	.loc 2 578 3
	jmp	.L144
.L145:
	.loc 2 579 5 discriminator 3
	addl	$1, -20(%rbp)
	.loc 2 578 39 discriminator 3
	addq	$8, -16(%rbp)
.L144:
	.loc 2 578 28 discriminator 1
	movq	-16(%rbp), %rax
	movq	(%rax), %rax
	.loc 2 578 3 discriminator 1
	testq	%rax, %rax
	jne	.L145
	.loc 2 582 14
	movq	-56(%rbp), %rax
	movl	-20(%rbp), %edx
	movl	%edx, (%rax)
	.loc 2 583 14
	movq	-64(%rbp), %rax
	movq	-8(%rbp), %rdx
	movq	%rdx, (%rax)
	.loc 2 584 16
	movq	-48(%rbp), %rax
	movl	$0, (%rax)
	jmp	.L129
.L146:
	.loc 2 546 5
	nop
.L129:
	.loc 2 585 1
	leave
	.cfi_def_cfa 7, 8
	ret
	.cfi_endproc
.LFE70:
	.size	parse_split_string, .-parse_split_string
	.section	.rodata
.LC66:
	.string	","
.LC67:
	.string	"%s: invalid signal"
	.text
	.type	parse_signal_action_params, @function
parse_signal_action_params:
.LFB71:
	.loc 2 589 1
	.cfi_startproc
	endbr64
	pushq	%rbp
	.cfi_def_cfa_offset 16
	.cfi_offset 6, -16
	movq	%rsp, %rbp
	.cfi_def_cfa_register 6
	pushq	%rbx
	subq	$88, %rsp
	.cfi_offset 3, -24
	movq	%rdi, -88(%rbp)
	movl	%esi, %eax
	movb	%al, -92(%rbp)
	.loc 2 589 1
	movq	%fs:40, %rax
	movq	%rax, -24(%rbp)
	xorl	%eax, %eax
	.loc 2 594 6
	cmpq	$0, -88(%rbp)
	jne	.L148
.LBB14:
	.loc 2 599 16
	movl	$1, -72(%rbp)
	.loc 2 599 7
	jmp	.L149
.L153:
	.loc 2 600 13
	leaq	-48(%rbp), %rdx
	movl	-72(%rbp), %eax
	movq	%rdx, %rsi
	movl	%eax, %edi
	call	sig2str@PLT
	.loc 2 600 12
	testl	%eax, %eax
	jne	.L150
	.loc 2 601 52
	cmpb	$0, -92(%rbp)
	je	.L151
	.loc 2 601 52 is_stmt 0 discriminator 1
	movl	$2, %ecx
	jmp	.L152
.L151:
	.loc 2 601 52 discriminator 2
	movl	$4, %ecx
.L152:
	.loc 2 601 18 is_stmt 1 discriminator 4
	movq	signals(%rip), %rax
	movl	-72(%rbp), %edx
	movslq	%edx, %rdx
	salq	$2, %rdx
	addq	%rdx, %rax
	.loc 2 601 22 discriminator 4
	movl	%ecx, (%rax)
.L150:
	.loc 2 599 44 discriminator 2
	addl	$1, -72(%rbp)
.L149:
	.loc 2 599 7 discriminator 1
	cmpl	$64, -72(%rbp)
	jle	.L153
.LBE14:
	.loc 2 602 7
	jmp	.L147
.L148:
	.loc 2 605 21
	movq	-88(%rbp), %rax
	movq	%rax, %rdi
	call	xstrdup@PLT
	movq	%rax, -56(%rbp)
	.loc 2 607 13
	movq	-56(%rbp), %rax
	leaq	.LC66(%rip), %rsi
	movq	%rax, %rdi
	call	strtok@PLT
	movq	%rax, -64(%rbp)
	.loc 2 608 9
	jmp	.L155
.L160:
.LBB15:
	.loc 2 610 20
	leaq	-48(%rbp), %rdx
	movq	-64(%rbp), %rax
	movq	%rdx, %rsi
	movq	%rax, %rdi
	call	operand2sig@PLT
	movl	%eax, -68(%rbp)
	.loc 2 612 10
	cmpl	$0, -68(%rbp)
	jne	.L156
	.loc 2 613 9
	movq	-64(%rbp), %rax
	movq	%rax, %rdi
	call	quote@PLT
	movq	%rax, %rbx
	.loc 2 613 22
	leaq	.LC67(%rip), %rdi
	call	gettext@PLT
	.loc 2 613 9
	movq	%rbx, %rcx
	movq	%rax, %rdx
	movl	$0, %esi
	movl	$0, %edi
	movl	$0, %eax
	call	error@PLT
.L156:
	.loc 2 614 10
	cmpl	$0, -68(%rbp)
	jg	.L157
	.loc 2 615 9
	movl	exit_failure(%rip), %eax
	movl	%eax, %edi
	call	usage
.L157:
	.loc 2 617 47
	cmpb	$0, -92(%rbp)
	je	.L158
	.loc 2 617 47 is_stmt 0 discriminator 1
	movl	$1, %ecx
	jmp	.L159
.L158:
	.loc 2 617 47 discriminator 2
	movl	$3, %ecx
.L159:
	.loc 2 617 14 is_stmt 1 discriminator 4
	movq	signals(%rip), %rax
	movl	-68(%rbp), %edx
	movslq	%edx, %rdx
	salq	$2, %rdx
	addq	%rdx, %rax
	.loc 2 617 23 discriminator 4
	movl	%ecx, (%rax)
	.loc 2 619 17 discriminator 4
	leaq	.LC66(%rip), %rsi
	movl	$0, %edi
	call	strtok@PLT
	movq	%rax, -64(%rbp)
.L155:
.LBE15:
	.loc 2 608 9
	cmpq	$0, -64(%rbp)
	jne	.L160
	.loc 2 622 3
	movq	-56(%rbp), %rax
	movq	%rax, %rdi
	call	free@PLT
.L147:
	.loc 2 623 1
	movq	-24(%rbp), %rax
	xorq	%fs:40, %rax
	je	.L161
	call	__stack_chk_fail@PLT
.L161:
	addq	$88, %rsp
	popq	%rbx
	popq	%rbp
	.cfi_def_cfa 7, 8
	ret
	.cfi_endproc
.LFE71:
	.size	parse_signal_action_params, .-parse_signal_action_params
	.section	.rodata
	.align 8
.LC68:
	.string	"failed to get signal action for signal %d"
	.align 8
.LC69:
	.string	"failed to set signal action for signal %d"
.LC70:
	.string	" (failure ignored)"
.LC71:
	.string	"DEFAULT"
.LC72:
	.string	"IGNORE"
.LC73:
	.string	"Reset signal %s (%d) to %s%s\n"
	.text
	.type	reset_signal_handlers, @function
reset_signal_handlers:
.LFB72:
	.loc 2 627 1
	.cfi_startproc
	endbr64
	pushq	%rbp
	.cfi_def_cfa_offset 16
	.cfi_offset 6, -16
	movq	%rsp, %rbp
	.cfi_def_cfa_register 6
	pushq	%rbx
	subq	$216, %rsp
	.cfi_offset 3, -24
	.loc 2 627 1
	movq	%fs:40, %rax
	movq	%rax, -24(%rbp)
	xorl	%eax, %eax
.LBB16:
	.loc 2 628 12
	movl	$1, -216(%rbp)
	.loc 2 628 3
	jmp	.L163
.L182:
.LBB17:
	.loc 2 632 18
	movq	signals(%rip), %rax
	movl	-216(%rbp), %edx
	movslq	%edx, %rdx
	salq	$2, %rdx
	addq	%rdx, %rax
	movl	(%rax), %eax
	.loc 2 632 10
	testl	%eax, %eax
	je	.L184
	.loc 2 635 36
	movq	signals(%rip), %rax
	movl	-216(%rbp), %edx
	movslq	%edx, %rdx
	salq	$2, %rdx
	addq	%rdx, %rax
	movl	(%rax), %eax
	.loc 2 636 29
	cmpl	$2, %eax
	je	.L166
	.loc 2 636 39 discriminator 2
	movq	signals(%rip), %rax
	movl	-216(%rbp), %edx
	movslq	%edx, %rdx
	salq	$2, %rdx
	addq	%rdx, %rax
	movl	(%rax), %eax
	.loc 2 636 29 discriminator 2
	cmpl	$4, %eax
	jne	.L167
.L166:
	.loc 2 636 29 is_stmt 0 discriminator 3
	movl	$1, %eax
	jmp	.L168
.L167:
	.loc 2 636 29 discriminator 4
	movl	$0, %eax
.L168:
	.loc 2 635 12 is_stmt 1
	movb	%al, -218(%rbp)
	andb	$1, -218(%rbp)
	.loc 2 638 37
	movq	signals(%rip), %rax
	movl	-216(%rbp), %edx
	movslq	%edx, %rdx
	salq	$2, %rdx
	addq	%rdx, %rax
	movl	(%rax), %eax
	.loc 2 639 30
	cmpl	$1, %eax
	je	.L169
	.loc 2 639 40 discriminator 2
	movq	signals(%rip), %rax
	movl	-216(%rbp), %edx
	movslq	%edx, %rdx
	salq	$2, %rdx
	addq	%rdx, %rax
	movl	(%rax), %eax
	.loc 2 639 30 discriminator 2
	cmpl	$2, %eax
	jne	.L170
.L169:
	.loc 2 639 30 is_stmt 0 discriminator 3
	movl	$1, %eax
	jmp	.L171
.L170:
	.loc 2 639 30 discriminator 4
	movl	$0, %eax
.L171:
	.loc 2 638 12 is_stmt 1
	movb	%al, -217(%rbp)
	andb	$1, -217(%rbp)
	.loc 2 641 21
	leaq	-208(%rbp), %rdx
	movl	-216(%rbp), %eax
	movl	$0, %esi
	movl	%eax, %edi
	call	sigaction@PLT
	movl	%eax, -212(%rbp)
	.loc 2 643 10
	cmpl	$0, -212(%rbp)
	je	.L172
	.loc 2 643 22 discriminator 1
	movzbl	-218(%rbp), %eax
	xorl	$1, %eax
	.loc 2 643 19 discriminator 1
	testb	%al, %al
	je	.L172
.LBB18:
	.loc 2 644 9
	leaq	.LC68(%rip), %rdi
	call	gettext@PLT
	movq	%rax, %rbx
	call	__errno_location@PLT
	movl	(%rax), %eax
	movl	-216(%rbp), %edx
	movl	%edx, %ecx
	movq	%rbx, %rdx
	movl	%eax, %esi
	movl	$125, %edi
	movl	$0, %eax
	call	error@PLT
.L172:
.LBE18:
	.loc 2 647 10
	cmpl	$0, -212(%rbp)
	jne	.L173
	.loc 2 649 53
	cmpb	$0, -217(%rbp)
	jne	.L174
	.loc 2 649 53 is_stmt 0 discriminator 1
	movl	$1, %eax
	jmp	.L175
.L174:
	.loc 2 649 53 discriminator 2
	movl	$0, %eax
.L175:
	.loc 2 649 26 is_stmt 1 discriminator 4
	movq	%rax, -208(%rbp)
	.loc 2 651 26 discriminator 4
	leaq	-208(%rbp), %rcx
	movl	-216(%rbp), %eax
	movl	$0, %edx
	movq	%rcx, %rsi
	movl	%eax, %edi
	call	sigaction@PLT
	movl	%eax, -212(%rbp)
	.loc 2 651 14 discriminator 4
	cmpl	$0, -212(%rbp)
	je	.L173
	.loc 2 651 56 discriminator 1
	movzbl	-218(%rbp), %eax
	xorl	$1, %eax
	.loc 2 651 53 discriminator 1
	testb	%al, %al
	je	.L173
.LBB19:
	.loc 2 652 13
	leaq	.LC69(%rip), %rdi
	call	gettext@PLT
	movq	%rax, %rbx
	call	__errno_location@PLT
	movl	(%rax), %eax
	movl	-216(%rbp), %edx
	movl	%edx, %ecx
	movq	%rbx, %rdx
	movl	%eax, %esi
	movl	$125, %edi
	movl	$0, %eax
	call	error@PLT
.L173:
.LBE19:
	.loc 2 656 11
	movzbl	dev_debug(%rip), %eax
	.loc 2 656 10
	testb	%al, %al
	je	.L165
.LBB20:
	.loc 2 659 11
	leaq	-48(%rbp), %rdx
	movl	-216(%rbp), %eax
	movq	%rdx, %rsi
	movl	%eax, %edi
	call	sig2str@PLT
	.loc 2 660 11
	movzbl	dev_debug(%rip), %eax
	testb	%al, %al
	je	.L165
	.loc 2 660 11 is_stmt 0 discriminator 1
	cmpl	$0, -212(%rbp)
	je	.L178
	.loc 2 660 11 discriminator 2
	leaq	.LC70(%rip), %rdx
	jmp	.L179
.L178:
	.loc 2 660 11 discriminator 3
	leaq	.LC17(%rip), %rdx
.L179:
	.loc 2 660 11 discriminator 5
	cmpb	$0, -217(%rbp)
	je	.L180
	.loc 2 660 11 discriminator 6
	leaq	.LC71(%rip), %rax
	jmp	.L181
.L180:
	.loc 2 660 11 discriminator 7
	leaq	.LC72(%rip), %rax
.L181:
	.loc 2 660 11 discriminator 9
	movq	stderr(%rip), %rdi
	movl	-216(%rbp), %ecx
	leaq	-48(%rbp), %rsi
	movq	%rdx, %r9
	movq	%rax, %r8
	movq	%rsi, %rdx
	leaq	.LC73(%rip), %rsi
	movl	$0, %eax
	call	fprintf@PLT
	jmp	.L165
.L184:
.LBE20:
	.loc 2 633 9 is_stmt 1
	nop
.L165:
.LBE17:
	.loc 2 628 39 discriminator 2
	addl	$1, -216(%rbp)
.L163:
	.loc 2 628 3 discriminator 1
	cmpl	$64, -216(%rbp)
	jle	.L182
.LBE16:
	.loc 2 666 1
	nop
	movq	-24(%rbp), %rax
	xorq	%fs:40, %rax
	je	.L183
	call	__stack_chk_fail@PLT
.L183:
	addq	$216, %rsp
	popq	%rbx
	popq	%rbp
	.cfi_def_cfa 7, 8
	ret
	.cfi_endproc
.LFE72:
	.size	reset_signal_handlers, .-reset_signal_handlers
	.type	parse_block_signal_params, @function
parse_block_signal_params:
.LFB73:
	.loc 2 671 1
	.cfi_startproc
	endbr64
	pushq	%rbp
	.cfi_def_cfa_offset 16
	.cfi_offset 6, -16
	movq	%rsp, %rbp
	.cfi_def_cfa_register 6
	pushq	%rbx
	subq	$88, %rsp
	.cfi_offset 3, -24
	movq	%rdi, -88(%rbp)
	movl	%esi, %eax
	movb	%al, -92(%rbp)
	.loc 2 671 1
	movq	%fs:40, %rax
	movq	%rax, -24(%rbp)
	xorl	%eax, %eax
	.loc 2 676 6
	cmpq	$0, -88(%rbp)
	jne	.L186
	.loc 2 679 7
	cmpb	$0, -92(%rbp)
	je	.L187
	.loc 2 679 7 is_stmt 0 discriminator 1
	leaq	block_signals(%rip), %rax
	jmp	.L188
.L187:
	.loc 2 679 7 discriminator 2
	leaq	unblock_signals(%rip), %rax
.L188:
	.loc 2 679 7 discriminator 4
	movq	%rax, %rdi
	call	sigfillset@PLT
	.loc 2 680 7 is_stmt 1 discriminator 4
	cmpb	$0, -92(%rbp)
	je	.L189
	.loc 2 680 7 is_stmt 0 discriminator 1
	leaq	unblock_signals(%rip), %rax
	jmp	.L190
.L189:
	.loc 2 680 7 discriminator 2
	leaq	block_signals(%rip), %rax
.L190:
	.loc 2 680 7 discriminator 4
	movq	%rax, %rdi
	call	sigemptyset@PLT
	jmp	.L191
.L186:
	.loc 2 682 12 is_stmt 1
	movzbl	sig_mask_changed(%rip), %eax
	xorl	$1, %eax
	.loc 2 682 11
	testb	%al, %al
	je	.L191
	.loc 2 685 7
	leaq	block_signals(%rip), %rdi
	call	sigemptyset@PLT
	.loc 2 686 7
	leaq	unblock_signals(%rip), %rdi
	call	sigemptyset@PLT
.L191:
	.loc 2 689 20
	movb	$1, sig_mask_changed(%rip)
	.loc 2 691 6
	cmpq	$0, -88(%rbp)
	je	.L203
	.loc 2 694 21
	movq	-88(%rbp), %rax
	movq	%rax, %rdi
	call	xstrdup@PLT
	movq	%rax, -56(%rbp)
	.loc 2 696 13
	movq	-56(%rbp), %rax
	leaq	.LC66(%rip), %rsi
	movq	%rax, %rdi
	call	strtok@PLT
	movq	%rax, -64(%rbp)
	.loc 2 697 9
	jmp	.L194
.L201:
.LBB21:
	.loc 2 699 20
	leaq	-48(%rbp), %rdx
	movq	-64(%rbp), %rax
	movq	%rdx, %rsi
	movq	%rax, %rdi
	call	operand2sig@PLT
	movl	%eax, -68(%rbp)
	.loc 2 701 10
	cmpl	$0, -68(%rbp)
	jne	.L195
	.loc 2 702 9
	movq	-64(%rbp), %rax
	movq	%rax, %rdi
	call	quote@PLT
	movq	%rax, %rbx
	.loc 2 702 22
	leaq	.LC67(%rip), %rdi
	call	gettext@PLT
	.loc 2 702 9
	movq	%rbx, %rcx
	movq	%rax, %rdx
	movl	$0, %esi
	movl	$0, %edi
	movl	$0, %eax
	call	error@PLT
.L195:
	.loc 2 703 10
	cmpl	$0, -68(%rbp)
	jg	.L196
	.loc 2 704 9
	movl	exit_failure(%rip), %eax
	movl	%eax, %edi
	call	usage
.L196:
	.loc 2 706 7
	cmpb	$0, -92(%rbp)
	je	.L197
	.loc 2 706 7 is_stmt 0 discriminator 1
	leaq	block_signals(%rip), %rax
	jmp	.L198
.L197:
	.loc 2 706 7 discriminator 2
	leaq	unblock_signals(%rip), %rax
.L198:
	.loc 2 706 7 discriminator 4
	movl	-68(%rbp), %edx
	movl	%edx, %esi
	movq	%rax, %rdi
	call	sigaddset@PLT
	.loc 2 707 7 is_stmt 1 discriminator 4
	cmpb	$0, -92(%rbp)
	je	.L199
	.loc 2 707 7 is_stmt 0 discriminator 1
	leaq	unblock_signals(%rip), %rax
	jmp	.L200
.L199:
	.loc 2 707 7 discriminator 2
	leaq	block_signals(%rip), %rax
.L200:
	.loc 2 707 7 discriminator 4
	movl	-68(%rbp), %edx
	movl	%edx, %esi
	movq	%rax, %rdi
	call	sigdelset@PLT
	.loc 2 709 17 is_stmt 1 discriminator 4
	leaq	.LC66(%rip), %rsi
	movl	$0, %edi
	call	strtok@PLT
	movq	%rax, -64(%rbp)
.L194:
.LBE21:
	.loc 2 697 9
	cmpq	$0, -64(%rbp)
	jne	.L201
	.loc 2 712 3
	movq	-56(%rbp), %rax
	movq	%rax, %rdi
	call	free@PLT
	jmp	.L185
.L203:
	.loc 2 692 5
	nop
.L185:
	.loc 2 713 1
	movq	-24(%rbp), %rax
	xorq	%fs:40, %rax
	je	.L202
	call	__stack_chk_fail@PLT
.L202:
	addq	$88, %rsp
	popq	%rbx
	popq	%rbp
	.cfi_def_cfa 7, 8
	ret
	.cfi_endproc
.LFE73:
	.size	parse_block_signal_params, .-parse_block_signal_params
	.section	.rodata
	.align 8
.LC74:
	.string	"failed to get signal process mask"
.LC75:
	.string	"BLOCK"
.LC76:
	.string	"UNBLOCK"
	.align 8
.LC77:
	.string	"signal %s (%d) mask set to %s\n"
	.align 8
.LC78:
	.string	"failed to set signal process mask"
	.text
	.type	set_signal_proc_mask, @function
set_signal_proc_mask:
.LFB74:
	.loc 2 717 1
	.cfi_startproc
	endbr64
	pushq	%rbp
	.cfi_def_cfa_offset 16
	.cfi_offset 6, -16
	movq	%rsp, %rbp
	.cfi_def_cfa_register 6
	pushq	%rbx
	subq	$184, %rsp
	.cfi_offset 3, -24
	.loc 2 717 1
	movq	%fs:40, %rax
	movq	%rax, -24(%rbp)
	xorl	%eax, %eax
	.loc 2 722 3
	leaq	-176(%rbp), %rax
	movq	%rax, %rdi
	call	sigemptyset@PLT
	.loc 2 724 7
	leaq	-176(%rbp), %rax
	movq	%rax, %rdx
	movl	$0, %esi
	movl	$0, %edi
	call	sigprocmask@PLT
	.loc 2 724 6
	testl	%eax, %eax
	je	.L205
.LBB22:
	.loc 2 725 5
	leaq	.LC74(%rip), %rdi
	call	gettext@PLT
	movq	%rax, %rbx
	call	__errno_location@PLT
	movl	(%rax), %eax
	movq	%rbx, %rdx
	movl	%eax, %esi
	movl	$125, %edi
	movl	$0, %eax
	call	error@PLT
.L205:
.LBE22:
.LBB23:
	.loc 2 727 12
	movl	$1, -188(%rbp)
	.loc 2 727 3
	jmp	.L206
.L212:
	.loc 2 729 11
	movl	-188(%rbp), %eax
	movl	%eax, %esi
	leaq	block_signals(%rip), %rdi
	call	sigismember@PLT
	.loc 2 729 10
	testl	%eax, %eax
	je	.L207
	.loc 2 731 11
	movl	-188(%rbp), %edx
	leaq	-176(%rbp), %rax
	movl	%edx, %esi
	movq	%rax, %rdi
	call	sigaddset@PLT
	.loc 2 732 21
	leaq	.LC75(%rip), %rax
	movq	%rax, -184(%rbp)
	jmp	.L208
.L207:
	.loc 2 734 16
	movl	-188(%rbp), %eax
	movl	%eax, %esi
	leaq	unblock_signals(%rip), %rdi
	call	sigismember@PLT
	.loc 2 734 15
	testl	%eax, %eax
	je	.L209
	.loc 2 736 11
	movl	-188(%rbp), %edx
	leaq	-176(%rbp), %rax
	movl	%edx, %esi
	movq	%rax, %rdi
	call	sigdelset@PLT
	.loc 2 737 21
	leaq	.LC76(%rip), %rax
	movq	%rax, -184(%rbp)
	jmp	.L208
.L209:
	.loc 2 741 21
	movq	$0, -184(%rbp)
.L208:
	.loc 2 744 11
	movzbl	dev_debug(%rip), %eax
	.loc 2 744 10
	testb	%al, %al
	je	.L210
	.loc 2 744 21 discriminator 1
	cmpq	$0, -184(%rbp)
	je	.L210
.LBB24:
	.loc 2 747 11
	leaq	-48(%rbp), %rdx
	movl	-188(%rbp), %eax
	movq	%rdx, %rsi
	movl	%eax, %edi
	call	sig2str@PLT
	.loc 2 748 11
	movzbl	dev_debug(%rip), %eax
	testb	%al, %al
	je	.L210
	.loc 2 748 11 is_stmt 0 discriminator 1
	movq	stderr(%rip), %rax
	movq	-184(%rbp), %rsi
	movl	-188(%rbp), %ecx
	leaq	-48(%rbp), %rdx
	movq	%rsi, %r8
	leaq	.LC77(%rip), %rsi
	movq	%rax, %rdi
	movl	$0, %eax
	call	fprintf@PLT
.L210:
.LBE24:
	.loc 2 727 39 is_stmt 1 discriminator 2
	addl	$1, -188(%rbp)
.L206:
	.loc 2 727 3 discriminator 1
	cmpl	$64, -188(%rbp)
	jle	.L212
.LBE23:
	.loc 2 753 7
	leaq	-176(%rbp), %rax
	movl	$0, %edx
	movq	%rax, %rsi
	movl	$2, %edi
	call	sigprocmask@PLT
	.loc 2 753 6
	testl	%eax, %eax
	je	.L215
.LBB25:
	.loc 2 754 5
	leaq	.LC78(%rip), %rdi
	call	gettext@PLT
	movq	%rax, %rbx
	call	__errno_location@PLT
	movl	(%rax), %eax
	movq	%rbx, %rdx
	movl	%eax, %esi
	movl	$125, %edi
	movl	$0, %eax
	call	error@PLT
.L215:
.LBE25:
	.loc 2 755 1
	nop
	movq	-24(%rbp), %rax
	xorq	%fs:40, %rax
	je	.L214
	call	__stack_chk_fail@PLT
.L214:
	addq	$184, %rsp
	popq	%rbx
	popq	%rbp
	.cfi_def_cfa 7, 8
	ret
	.cfi_endproc
.LFE74:
	.size	set_signal_proc_mask, .-set_signal_proc_mask
	.section	.rodata
.LC79:
	.string	"%-10s (%2d): %s%s%s\n"
	.text
	.type	list_signal_handling, @function
list_signal_handling:
.LFB75:
	.loc 2 759 1
	.cfi_startproc
	endbr64
	pushq	%rbp
	.cfi_def_cfa_offset 16
	.cfi_offset 6, -16
	movq	%rsp, %rbp
	.cfi_def_cfa_register 6
	pushq	%rbx
	subq	$360, %rsp
	.cfi_offset 3, -24
	.loc 2 759 1
	movq	%fs:40, %rax
	movq	%rax, -24(%rbp)
	xorl	%eax, %eax
	.loc 2 763 3
	leaq	-336(%rbp), %rax
	movq	%rax, %rdi
	call	sigemptyset@PLT
	.loc 2 764 7
	leaq	-336(%rbp), %rax
	movq	%rax, %rdx
	movl	$0, %esi
	movl	$0, %edi
	call	sigprocmask@PLT
	.loc 2 764 6
	testl	%eax, %eax
	je	.L217
.LBB26:
	.loc 2 765 5
	leaq	.LC74(%rip), %rdi
	call	gettext@PLT
	movq	%rax, %rbx
	call	__errno_location@PLT
	movl	(%rax), %eax
	movq	%rbx, %rdx
	movl	%eax, %esi
	movl	$125, %edi
	movl	$0, %eax
	call	error@PLT
.L217:
.LBE26:
.LBB27:
	.loc 2 767 12
	movl	$1, -364(%rbp)
	.loc 2 767 3
	jmp	.L218
.L229:
.LBB28:
	.loc 2 770 11
	leaq	-208(%rbp), %rdx
	movl	-364(%rbp), %eax
	movl	$0, %esi
	movl	%eax, %edi
	call	sigaction@PLT
	.loc 2 770 10
	testl	%eax, %eax
	jne	.L231
	.loc 2 773 33
	movq	-208(%rbp), %rax
	.loc 2 773 66
	cmpq	$1, %rax
	jne	.L221
	.loc 2 773 66 is_stmt 0 discriminator 1
	leaq	.LC72(%rip), %rax
	jmp	.L222
.L221:
	.loc 2 773 66 discriminator 2
	leaq	.LC17(%rip), %rax
.L222:
	.loc 2 773 19 is_stmt 1 discriminator 4
	movq	%rax, -360(%rbp)
	.loc 2 774 29 discriminator 4
	movl	-364(%rbp), %edx
	leaq	-336(%rbp), %rax
	movl	%edx, %esi
	movq	%rax, %rdi
	call	sigismember@PLT
	.loc 2 774 61 discriminator 4
	testl	%eax, %eax
	je	.L223
	.loc 2 774 61 is_stmt 0 discriminator 1
	leaq	.LC75(%rip), %rax
	jmp	.L224
.L223:
	.loc 2 774 61 discriminator 2
	leaq	.LC17(%rip), %rax
.L224:
	.loc 2 774 19 is_stmt 1 discriminator 4
	movq	%rax, -352(%rbp)
	.loc 2 775 29 discriminator 4
	movq	-360(%rbp), %rax
	movzbl	(%rax), %eax
	.loc 2 775 56 discriminator 4
	testb	%al, %al
	je	.L225
	.loc 2 775 41 discriminator 1
	movq	-352(%rbp), %rax
	movzbl	(%rax), %eax
	.loc 2 775 38 discriminator 1
	testb	%al, %al
	je	.L225
	.loc 2 775 56 discriminator 3
	leaq	.LC66(%rip), %rax
	jmp	.L226
.L225:
	.loc 2 775 56 is_stmt 0 discriminator 4
	leaq	.LC17(%rip), %rax
.L226:
	.loc 2 775 19 is_stmt 1 discriminator 6
	movq	%rax, -344(%rbp)
	.loc 2 777 13 discriminator 6
	movq	-360(%rbp), %rax
	movzbl	(%rax), %eax
	.loc 2 777 10 discriminator 6
	testb	%al, %al
	jne	.L227
	.loc 2 777 27 discriminator 1
	movq	-352(%rbp), %rax
	movzbl	(%rax), %eax
	.loc 2 777 22 discriminator 1
	testb	%al, %al
	je	.L232
.L227:
	.loc 2 780 7
	leaq	-48(%rbp), %rdx
	movl	-364(%rbp), %eax
	movq	%rdx, %rsi
	movl	%eax, %edi
	call	sig2str@PLT
	.loc 2 781 7
	movq	stderr(%rip), %rax
	movq	-344(%rbp), %rdi
	movq	-352(%rbp), %rsi
	movl	-364(%rbp), %ecx
	leaq	-48(%rbp), %rdx
	subq	$8, %rsp
	pushq	-360(%rbp)
	movq	%rdi, %r9
	movq	%rsi, %r8
	leaq	.LC79(%rip), %rsi
	movq	%rax, %rdi
	movl	$0, %eax
	call	fprintf@PLT
	addq	$16, %rsp
	jmp	.L228
.L231:
	.loc 2 771 9
	nop
	jmp	.L228
.L232:
	.loc 2 778 9
	nop
.L228:
.LBE28:
	.loc 2 767 39 discriminator 2
	addl	$1, -364(%rbp)
.L218:
	.loc 2 767 3 discriminator 1
	cmpl	$64, -364(%rbp)
	jle	.L229
.LBE27:
	.loc 2 784 1
	nop
	movq	-24(%rbp), %rax
	xorq	%fs:40, %rax
	je	.L230
	call	__stack_chk_fail@PLT
.L230:
	movq	-8(%rbp), %rbx
	leave
	.cfi_def_cfa 7, 8
	ret
	.cfi_endproc
.LFE75:
	.size	list_signal_handling, .-list_signal_handling
	.type	initialize_signals, @function
initialize_signals:
.LFB76:
	.loc 2 788 1
	.cfi_startproc
	endbr64
	pushq	%rbp
	.cfi_def_cfa_offset 16
	.cfi_offset 6, -16
	movq	%rsp, %rbp
	.cfi_def_cfa_register 6
	subq	$16, %rsp
	.loc 2 789 13
	movl	$260, %edi
	call	xmalloc@PLT
	.loc 2 789 11
	movq	%rax, signals(%rip)
.LBB29:
	.loc 2 791 12
	movl	$0, -4(%rbp)
	.loc 2 791 3
	jmp	.L234
.L235:
	.loc 2 792 12 discriminator 3
	movq	signals(%rip), %rax
	movl	-4(%rbp), %edx
	movslq	%edx, %rdx
	salq	$2, %rdx
	addq	%rdx, %rax
	.loc 2 792 16 discriminator 3
	movl	$0, (%rax)
	.loc 2 791 40 discriminator 3
	addl	$1, -4(%rbp)
.L234:
	.loc 2 791 3 discriminator 1
	cmpl	$64, -4(%rbp)
	jle	.L235
.LBE29:
	.loc 2 794 3
	nop
	.loc 2 795 1
	leave
	.cfi_def_cfa 7, 8
	ret
	.cfi_endproc
.LFE76:
	.size	initialize_signals, .-initialize_signals
	.section	.rodata
.LC80:
	.string	"/usr/local/share/locale"
.LC81:
	.string	"invalid option -- '%c'"
	.align 8
.LC82:
	.string	"use -[v]S to pass options in shebang lines"
.LC83:
	.string	"David MacKenzie"
.LC84:
	.string	"Richard Mlynarik"
.LC85:
	.string	"Assaf Gordon"
.LC86:
	.string	"-"
.LC87:
	.string	"cleaning environ\n"
.LC88:
	.string	"setenv:   %s\n"
.LC89:
	.string	"cannot set %s"
	.align 8
.LC90:
	.string	"cannot specify --null (-0) with command"
	.align 8
.LC91:
	.string	"must specify command with --chdir (-C)"
.LC92:
	.string	"%s%c"
.LC93:
	.string	"chdir:    %s\n"
.LC94:
	.string	"cannot change directory to %s"
.LC95:
	.string	"executing: %s\n"
.LC96:
	.string	"   arg[%d]= %s\n"
.LC97:
	.string	"%s"
	.text
	.globl	main
	.type	main, @function
main:
.LFB77:
	.loc 2 799 1
	.cfi_startproc
	endbr64
	pushq	%rbp
	.cfi_def_cfa_offset 16
	.cfi_offset 6, -16
	movq	%rsp, %rbp
	.cfi_def_cfa_register 6
	pushq	%r12
	pushq	%rbx
	subq	$64, %rsp
	.cfi_offset 12, -24
	.cfi_offset 3, -32
	movl	%edi, -68(%rbp)
	movq	%rsi, -80(%rbp)
	.loc 2 801 8
	movb	$0, -55(%rbp)
	.loc 2 802 8
	movb	$0, -54(%rbp)
	.loc 2 803 15
	movq	$0, -40(%rbp)
	.loc 2 806 3
	movq	-80(%rbp), %rax
	movq	(%rax), %rax
	movq	%rax, %rdi
	call	set_program_name@PLT
	.loc 2 807 3
	leaq	.LC17(%rip), %rsi
	movl	$6, %edi
	call	setlocale@PLT
	.loc 2 808 3
	leaq	.LC80(%rip), %rsi
	leaq	.LC3(%rip), %rdi
	call	bindtextdomain@PLT
	.loc 2 809 3
	leaq	.LC3(%rip), %rdi
	call	textdomain@PLT
	.loc 2 811 3
	movl	$125, %edi
	call	initialize_exit_failure
	.loc 2 812 3
	movq	close_stdout@GOTPCREL(%rip), %rax
	movq	%rax, %rdi
	call	atexit@PLT
	.loc 2 814 3
	call	initialize_signals
	.loc 2 816 9
	jmp	.L238
.L255:
	.loc 2 818 7
	cmpl	$131, -48(%rbp)
	jg	.L239
	cmpl	$67, -48(%rbp)
	jge	.L240
	cmpl	$48, -48(%rbp)
	je	.L241
	cmpl	$48, -48(%rbp)
	jg	.L239
	cmpl	$32, -48(%rbp)
	je	.L242
	cmpl	$32, -48(%rbp)
	jg	.L239
	cmpl	$9, -48(%rbp)
	je	.L242
	cmpl	$9, -48(%rbp)
	jg	.L239
	cmpl	$-131, -48(%rbp)
	je	.L243
	cmpl	$-130, -48(%rbp)
	je	.L244
	jmp	.L239
.L240:
	movl	-48(%rbp), %eax
	subl	$67, %eax
	cmpl	$64, %eax
	ja	.L239
	movl	%eax, %eax
	leaq	0(,%rax,4), %rdx
	leaq	.L246(%rip), %rax
	movl	(%rdx,%rax), %eax
	cltq
	leaq	.L246(%rip), %rdx
	addq	%rdx, %rax
	notrack jmp	*%rax
	.section	.rodata
	.align 4
	.align 4
.L246:
	.long	.L254-.L246
	.long	.L239-.L246
	.long	.L239-.L246
	.long	.L239-.L246
	.long	.L239-.L246
	.long	.L239-.L246
	.long	.L239-.L246
	.long	.L239-.L246
	.long	.L239-.L246
	.long	.L239-.L246
	.long	.L239-.L246
	.long	.L239-.L246
	.long	.L239-.L246
	.long	.L239-.L246
	.long	.L239-.L246
	.long	.L239-.L246
	.long	.L253-.L246
	.long	.L239-.L246
	.long	.L239-.L246
	.long	.L239-.L246
	.long	.L239-.L246
	.long	.L239-.L246
	.long	.L239-.L246
	.long	.L239-.L246
	.long	.L239-.L246
	.long	.L239-.L246
	.long	.L239-.L246
	.long	.L239-.L246
	.long	.L239-.L246
	.long	.L239-.L246
	.long	.L239-.L246
	.long	.L239-.L246
	.long	.L239-.L246
	.long	.L239-.L246
	.long	.L239-.L246
	.long	.L239-.L246
	.long	.L239-.L246
	.long	.L239-.L246
	.long	.L252-.L246
	.long	.L239-.L246
	.long	.L239-.L246
	.long	.L239-.L246
	.long	.L239-.L246
	.long	.L239-.L246
	.long	.L239-.L246
	.long	.L239-.L246
	.long	.L239-.L246
	.long	.L239-.L246
	.long	.L239-.L246
	.long	.L239-.L246
	.long	.L251-.L246
	.long	.L250-.L246
	.long	.L239-.L246
	.long	.L239-.L246
	.long	.L239-.L246
	.long	.L239-.L246
	.long	.L239-.L246
	.long	.L239-.L246
	.long	.L239-.L246
	.long	.L239-.L246
	.long	.L239-.L246
	.long	.L249-.L246
	.long	.L248-.L246
	.long	.L247-.L246
	.long	.L245-.L246
	.text
.L252:
	.loc 2 821 30
	movb	$1, -55(%rbp)
	.loc 2 822 11
	jmp	.L238
.L251:
	.loc 2 824 11
	movq	optarg(%rip), %rax
	movq	%rax, %rdi
	call	append_unset_var
	.loc 2 825 11
	jmp	.L238
.L250:
	.loc 2 827 21
	movb	$1, dev_debug(%rip)
	.loc 2 828 11
	jmp	.L238
.L241:
	.loc 2 830 36
	movb	$1, -54(%rbp)
	.loc 2 831 11
	jmp	.L238
.L249:
	.loc 2 833 11
	movq	optarg(%rip), %rax
	movl	$1, %esi
	movq	%rax, %rdi
	call	parse_signal_action_params
	.loc 2 834 11
	movq	optarg(%rip), %rax
	movl	$0, %esi
	movq	%rax, %rdi
	call	parse_block_signal_params
	.loc 2 835 11
	jmp	.L238
.L248:
	.loc 2 837 11
	movq	optarg(%rip), %rax
	movl	$0, %esi
	movq	%rax, %rdi
	call	parse_signal_action_params
	.loc 2 838 11
	jmp	.L238
.L247:
	.loc 2 840 11
	movq	optarg(%rip), %rax
	movl	$1, %esi
	movq	%rax, %rdi
	call	parse_block_signal_params
	.loc 2 841 11
	jmp	.L238
.L245:
	.loc 2 843 34
	movb	$1, report_signal_handling(%rip)
	.loc 2 844 11
	jmp	.L238
.L254:
	.loc 2 846 18
	movq	optarg(%rip), %rax
	movq	%rax, -40(%rbp)
	.loc 2 847 11
	jmp	.L238
.L253:
	.loc 2 849 11
	movq	optarg(%rip), %rax
	leaq	-80(%rbp), %rcx
	leaq	-68(%rbp), %rdx
	leaq	optind(%rip), %rsi
	movq	%rax, %rdi
	call	parse_split_string
	.loc 2 850 11
	jmp	.L238
.L242:
	.loc 2 857 24
	leaq	.LC81(%rip), %rdi
	call	gettext@PLT
	movq	%rax, %rdx
	.loc 2 857 11
	movl	-48(%rbp), %eax
	movl	%eax, %ecx
	movl	$0, %esi
	movl	$0, %edi
	movl	$0, %eax
	call	error@PLT
	.loc 2 858 24
	leaq	.LC82(%rip), %rdi
	call	gettext@PLT
	.loc 2 858 11
	movq	%rax, %rdx
	movl	$0, %esi
	movl	$0, %edi
	movl	$0, %eax
	call	error@PLT
	.loc 2 859 11
	movl	$125, %edi
	call	usage
.L244:
	.loc 2 861 9
	movl	$0, %edi
	call	usage
.L243:
	.loc 2 862 9
	movq	Version(%rip), %rdx
	movq	stdout(%rip), %rax
	pushq	$0
	leaq	.LC85(%rip), %rcx
	pushq	%rcx
	leaq	.LC83(%rip), %r9
	leaq	.LC84(%rip), %r8
	movq	%rdx, %rcx
	leaq	.LC12(%rip), %rdx
	leaq	.LC46(%rip), %rsi
	movq	%rax, %rdi
	movl	$0, %eax
	call	version_etc@PLT
	addq	$16, %rsp
	movl	$0, %edi
	call	exit@PLT
.L239:
	.loc 2 864 11
	movl	$125, %edi
	call	usage
.L238:
	.loc 2 816 18
	movq	-80(%rbp), %rsi
	movl	-68(%rbp), %eax
	movl	$0, %r8d
	leaq	longopts(%rip), %rcx
	leaq	shortopts(%rip), %rdx
	movl	%eax, %edi
	call	getopt_long@PLT
	movl	%eax, -48(%rbp)
	.loc 2 816 9
	cmpl	$-1, -48(%rbp)
	jne	.L255
	.loc 2 868 14
	movl	optind(%rip), %edx
	movl	-68(%rbp), %eax
	.loc 2 868 6
	cmpl	%eax, %edx
	jge	.L256
	.loc 2 868 24 discriminator 1
	movq	-80(%rbp), %rax
	movl	optind(%rip), %edx
	movslq	%edx, %rdx
	salq	$3, %rdx
	addq	%rdx, %rax
	movq	(%rax), %rax
	leaq	.LC86(%rip), %rsi
	movq	%rax, %rdi
	call	strcmp@PLT
	.loc 2 868 21 discriminator 1
	testl	%eax, %eax
	jne	.L256
	.loc 2 870 26
	movb	$1, -55(%rbp)
	.loc 2 871 7
	movl	optind(%rip), %eax
	addl	$1, %eax
	movl	%eax, optind(%rip)
.L256:
	.loc 2 874 6
	cmpb	$0, -55(%rbp)
	je	.L257
.LBB30:
	.loc 2 876 7
	movzbl	dev_debug(%rip), %eax
	testb	%al, %al
	je	.L258
	.loc 2 876 7 is_stmt 0 discriminator 1
	movq	stderr(%rip), %rax
	movq	%rax, %rcx
	movl	$17, %edx
	movl	$1, %esi
	leaq	.LC87(%rip), %rdi
	call	fwrite@PLT
.L258:
	.loc 2 878 15 is_stmt 1
	leaq	dummy_environ.7197(%rip), %rax
	movq	%rax, environ(%rip)
.LBE30:
	jmp	.L260
.L257:
	.loc 2 881 5
	call	unset_envvars
	.loc 2 884 9
	jmp	.L260
.L264:
	.loc 2 886 7
	movzbl	dev_debug(%rip), %eax
	testb	%al, %al
	je	.L261
	.loc 2 886 7 is_stmt 0 discriminator 1
	movq	-80(%rbp), %rax
	movl	optind(%rip), %edx
	movslq	%edx, %rdx
	salq	$3, %rdx
	addq	%rdx, %rax
	movq	(%rax), %rdx
	movq	stderr(%rip), %rax
	leaq	.LC88(%rip), %rsi
	movq	%rax, %rdi
	movl	$0, %eax
	call	fprintf@PLT
.L261:
	.loc 2 888 23 is_stmt 1
	movq	-80(%rbp), %rax
	movl	optind(%rip), %edx
	movslq	%edx, %rdx
	salq	$3, %rdx
	addq	%rdx, %rax
	.loc 2 888 11
	movq	(%rax), %rax
	movq	%rax, %rdi
	call	putenv@PLT
	.loc 2 888 10
	testl	%eax, %eax
	je	.L262
.LBB31:
	.loc 2 890 15
	movq	-24(%rbp), %rax
	movb	$0, (%rax)
	.loc 2 891 11
	movq	-80(%rbp), %rax
	movl	optind(%rip), %edx
	movslq	%edx, %rdx
	salq	$3, %rdx
	addq	%rdx, %rax
	movq	(%rax), %rax
	movq	%rax, %rdi
	call	quote@PLT
	movq	%rax, %r12
	leaq	.LC89(%rip), %rdi
	call	gettext@PLT
	movq	%rax, %rbx
	call	__errno_location@PLT
	movl	(%rax), %eax
	movq	%r12, %rcx
	movq	%rbx, %rdx
	movl	%eax, %esi
	movl	$125, %edi
	movl	$0, %eax
	call	error@PLT
.L262:
.LBE31:
	.loc 2 894 13
	movl	optind(%rip), %eax
	addl	$1, %eax
	movl	%eax, optind(%rip)
.L260:
	.loc 2 884 17
	movl	optind(%rip), %edx
	movl	-68(%rbp), %eax
	.loc 2 884 9
	cmpl	%eax, %edx
	jge	.L263
	.loc 2 884 45 discriminator 1
	movq	-80(%rbp), %rax
	movl	optind(%rip), %edx
	movslq	%edx, %rdx
	salq	$3, %rdx
	addq	%rdx, %rax
	.loc 2 884 33 discriminator 1
	movq	(%rax), %rax
	movl	$61, %esi
	movq	%rax, %rdi
	call	strchr@PLT
	movq	%rax, -24(%rbp)
	.loc 2 884 24 discriminator 1
	cmpq	$0, -24(%rbp)
	jne	.L264
.L263:
	.loc 2 897 35
	movl	optind(%rip), %edx
	movl	-68(%rbp), %eax
	.loc 2 897 8
	cmpl	%eax, %edx
	setl	%al
	movb	%al, -53(%rbp)
	.loc 2 899 6
	cmpb	$0, -54(%rbp)
	je	.L265
	.loc 2 899 32 discriminator 1
	cmpb	$0, -53(%rbp)
	je	.L265
	.loc 2 901 20
	leaq	.LC90(%rip), %rdi
	call	gettext@PLT
	.loc 2 901 7
	movq	%rax, %rdx
	movl	$0, %esi
	movl	$0, %edi
	movl	$0, %eax
	call	error@PLT
	.loc 2 902 7
	movl	$125, %edi
	call	usage
.L265:
	.loc 2 905 6
	cmpq	$0, -40(%rbp)
	je	.L266
	.loc 2 905 17 discriminator 1
	movzbl	-53(%rbp), %eax
	xorl	$1, %eax
	.loc 2 905 14 discriminator 1
	testb	%al, %al
	je	.L266
	.loc 2 907 20
	leaq	.LC91(%rip), %rdi
	call	gettext@PLT
	.loc 2 907 7
	movq	%rax, %rdx
	movl	$0, %esi
	movl	$0, %edi
	movl	$0, %eax
	call	error@PLT
	.loc 2 908 7
	movl	$125, %edi
	call	usage
.L266:
	.loc 2 911 7
	movzbl	-53(%rbp), %eax
	xorl	$1, %eax
	.loc 2 911 6
	testb	%al, %al
	je	.L267
.LBB32:
	.loc 2 914 20
	movq	environ(%rip), %rax
	movq	%rax, -32(%rbp)
	.loc 2 915 13
	jmp	.L268
.L271:
	.loc 2 916 9
	cmpb	$0, -54(%rbp)
	je	.L269
	.loc 2 916 9 is_stmt 0 discriminator 1
	movl	$0, %ecx
	jmp	.L270
.L269:
	.loc 2 916 9 discriminator 2
	movl	$10, %ecx
.L270:
	.loc 2 916 27 is_stmt 1 discriminator 4
	movq	-32(%rbp), %rax
	leaq	8(%rax), %rdx
	movq	%rdx, -32(%rbp)
	.loc 2 916 9 discriminator 4
	movq	(%rax), %rax
	movl	%ecx, %edx
	movq	%rax, %rsi
	leaq	.LC92(%rip), %rdi
	movl	$0, %eax
	call	printf@PLT
.L268:
	.loc 2 915 14
	movq	-32(%rbp), %rax
	movq	(%rax), %rax
	.loc 2 915 13
	testq	%rax, %rax
	jne	.L271
	.loc 2 917 14
	movl	$0, %eax
	jmp	.L272
.L267:
.LBE32:
	.loc 2 920 3
	call	reset_signal_handlers
	.loc 2 921 7
	movzbl	sig_mask_changed(%rip), %eax
	.loc 2 921 6
	testb	%al, %al
	je	.L273
	.loc 2 922 5
	call	set_signal_proc_mask
.L273:
	.loc 2 924 7
	movzbl	report_signal_handling(%rip), %eax
	.loc 2 924 6
	testb	%al, %al
	je	.L274
	.loc 2 925 5
	call	list_signal_handling
.L274:
	.loc 2 927 6
	cmpq	$0, -40(%rbp)
	je	.L275
	.loc 2 929 7
	movzbl	dev_debug(%rip), %eax
	testb	%al, %al
	je	.L276
	.loc 2 929 7 is_stmt 0 discriminator 1
	movq	-40(%rbp), %rax
	movq	%rax, %rsi
	movl	$4, %edi
	call	quotearg_style@PLT
	movq	%rax, %rdx
	movq	stderr(%rip), %rax
	leaq	.LC93(%rip), %rsi
	movq	%rax, %rdi
	movl	$0, %eax
	call	fprintf@PLT
.L276:
	.loc 2 931 11 is_stmt 1
	movq	-40(%rbp), %rax
	movq	%rax, %rdi
	call	chdir@PLT
	.loc 2 931 10
	testl	%eax, %eax
	je	.L275
.LBB33:
	.loc 2 932 9
	movq	-40(%rbp), %rax
	movq	%rax, %rsi
	movl	$4, %edi
	call	quotearg_style@PLT
	movq	%rax, %r12
	leaq	.LC94(%rip), %rdi
	call	gettext@PLT
	movq	%rax, %rbx
	call	__errno_location@PLT
	movl	(%rax), %eax
	movq	%r12, %rcx
	movq	%rbx, %rdx
	movl	%eax, %esi
	movl	$125, %edi
	movl	$0, %eax
	call	error@PLT
.L275:
.LBE33:
	.loc 2 936 7
	movzbl	dev_debug(%rip), %eax
	.loc 2 936 6
	testb	%al, %al
	je	.L277
	.loc 2 938 7
	movzbl	dev_debug(%rip), %eax
	testb	%al, %al
	je	.L278
	.loc 2 938 7 is_stmt 0 discriminator 1
	movq	-80(%rbp), %rax
	movl	optind(%rip), %edx
	movslq	%edx, %rdx
	salq	$3, %rdx
	addq	%rdx, %rax
	movq	(%rax), %rdx
	movq	stderr(%rip), %rax
	leaq	.LC95(%rip), %rsi
	movq	%rax, %rdi
	movl	$0, %eax
	call	fprintf@PLT
.L278:
.LBB34:
	.loc 2 939 16 is_stmt 1
	movl	optind(%rip), %eax
	movl	%eax, -52(%rbp)
	.loc 2 939 7
	jmp	.L279
.L281:
	.loc 2 940 9
	movzbl	dev_debug(%rip), %eax
	testb	%al, %al
	je	.L280
	.loc 2 940 9 is_stmt 0 discriminator 1
	movq	-80(%rbp), %rax
	movl	-52(%rbp), %edx
	movslq	%edx, %rdx
	salq	$3, %rdx
	addq	%rdx, %rax
	movq	(%rax), %rax
	movq	%rax, %rdi
	call	quote@PLT
	movq	%rax, %rcx
	movl	optind(%rip), %eax
	movl	-52(%rbp), %edx
	subl	%eax, %edx
	movq	stderr(%rip), %rax
	leaq	.LC96(%rip), %rsi
	movq	%rax, %rdi
	movl	$0, %eax
	call	fprintf@PLT
.L280:
	.loc 2 939 34 is_stmt 1 discriminator 2
	addl	$1, -52(%rbp)
.L279:
	.loc 2 939 27 discriminator 1
	movl	-68(%rbp), %eax
	.loc 2 939 7 discriminator 1
	cmpl	%eax, -52(%rbp)
	jl	.L281
.L277:
.LBE34:
	.loc 2 943 3
	movq	-80(%rbp), %rax
	.loc 2 943 30
	movl	optind(%rip), %edx
	movslq	%edx, %rdx
	salq	$3, %rdx
	.loc 2 943 25
	addq	%rax, %rdx
	.loc 2 943 15
	movq	-80(%rbp), %rax
	movl	optind(%rip), %ecx
	movslq	%ecx, %rcx
	salq	$3, %rcx
	addq	%rcx, %rax
	.loc 2 943 3
	movq	(%rax), %rax
	movq	%rdx, %rsi
	movq	%rax, %rdi
	call	execvp@PLT
	.loc 2 945 21
	call	__errno_location@PLT
	movl	(%rax), %eax
	.loc 2 945 51
	cmpl	$2, %eax
	jne	.L282
	.loc 2 945 51 is_stmt 0 discriminator 1
	movl	$127, %eax
	jmp	.L283
.L282:
	.loc 2 945 51 discriminator 2
	movl	$126, %eax
.L283:
	.loc 2 945 7 is_stmt 1 discriminator 4
	movl	%eax, -44(%rbp)
	.loc 2 946 37 discriminator 4
	movq	-80(%rbp), %rax
	movl	optind(%rip), %edx
	movslq	%edx, %rdx
	salq	$3, %rdx
	addq	%rdx, %rax
	.loc 2 946 3 discriminator 4
	movq	(%rax), %rax
	movq	%rax, %rdi
	call	quote@PLT
	movq	%rax, %rbx
	.loc 2 946 13 discriminator 4
	call	__errno_location@PLT
	.loc 2 946 3 discriminator 4
	movl	(%rax), %eax
	movq	%rbx, %rcx
	leaq	.LC97(%rip), %rdx
	movl	%eax, %esi
	movl	$0, %edi
	movl	$0, %eax
	call	error@PLT
	.loc 2 948 6 discriminator 4
	cmpl	$127, -44(%rbp)
	jne	.L284
	.loc 2 948 49 discriminator 1
	movq	-80(%rbp), %rax
	movl	optind(%rip), %edx
	movslq	%edx, %rdx
	salq	$3, %rdx
	addq	%rdx, %rax
	.loc 2 948 37 discriminator 1
	movq	(%rax), %rax
	movl	$32, %esi
	movq	%rax, %rdi
	call	strchr@PLT
	.loc 2 948 34 discriminator 1
	testq	%rax, %rax
	je	.L284
	.loc 2 949 18
	leaq	.LC82(%rip), %rdi
	call	gettext@PLT
	.loc 2 949 5
	movq	%rax, %rdx
	movl	$0, %esi
	movl	$0, %edi
	movl	$0, %eax
	call	error@PLT
.L284:
	.loc 2 951 10
	movl	-44(%rbp), %eax
.L272:
	.loc 2 952 1
	leaq	-16(%rbp), %rsp
	popq	%rbx
	popq	%r12
	popq	%rbp
	.cfi_def_cfa 7, 8
	ret
	.cfi_endproc
.LFE77:
	.size	main, .-main
	.section	.rodata
	.align 8
	.type	__PRETTY_FUNCTION__.6992, @object
	.size	__PRETTY_FUNCTION__.6992, 12
__PRETTY_FUNCTION__.6992:
	.string	"escape_char"
	.align 8
	.type	__PRETTY_FUNCTION__.6996, @object
	.size	__PRETTY_FUNCTION__.6996, 13
__PRETTY_FUNCTION__.6996:
	.string	"scan_varname"
	.align 16
	.type	__PRETTY_FUNCTION__.7017, @object
	.size	__PRETTY_FUNCTION__.7017, 19
__PRETTY_FUNCTION__.7017:
	.string	"validate_split_str"
	.align 8
	.type	__PRETTY_FUNCTION__.7049, @object
	.size	__PRETTY_FUNCTION__.7049, 11
__PRETTY_FUNCTION__.7049:
	.string	"build_argv"
	.local	dummy_environ.7197
	.comm	dummy_environ.7197,8,8
	.text
.Letext0:
	.file 3 "/usr/lib/gcc/x86_64-linux-gnu/9/include/stddef.h"
	.file 4 "/usr/include/x86_64-linux-gnu/bits/types.h"
	.file 5 "/usr/include/x86_64-linux-gnu/bits/types/struct_FILE.h"
	.file 6 "/usr/include/x86_64-linux-gnu/bits/types/FILE.h"
	.file 7 "/usr/include/stdio.h"
	.file 8 "/usr/include/x86_64-linux-gnu/bits/sys_errlist.h"
	.file 9 "/usr/include/x86_64-linux-gnu/bits/types/time_t.h"
	.file 10 "/usr/include/x86_64-linux-gnu/bits/types/__sigset_t.h"
	.file 11 "/usr/include/x86_64-linux-gnu/bits/types/sigset_t.h"
	.file 12 "./lib/sys/select.h"
	.file 13 "/usr/include/x86_64-linux-gnu/bits/getopt_core.h"
	.file 14 "/usr/include/x86_64-linux-gnu/bits/getopt_ext.h"
	.file 15 "/usr/include/x86_64-linux-gnu/bits/types/__sigval_t.h"
	.file 16 "/usr/include/x86_64-linux-gnu/bits/types/siginfo_t.h"
	.file 17 "/usr/include/signal.h"
	.file 18 "/usr/include/x86_64-linux-gnu/bits/sigaction.h"
	.file 19 "/usr/include/time.h"
	.file 20 "/usr/include/unistd.h"
	.file 21 "/usr/include/errno.h"
	.file 22 "src/version.h"
	.file 23 "./lib/exitfail.h"
	.file 24 "./lib/timespec.h"
	.file 25 "/usr/include/ctype.h"
	.file 26 "./lib/version-etc.h"
	.file 27 "./lib/progname.h"
	.file 28 "./lib/quotearg.h"
	.file 29 "./lib/error.h"
	.file 30 "./lib/quote.h"
	.section	.note.GNU-stack,"",@progbits
	.section	.note.gnu.property,"a"
	.align 8
	.long	 1f - 0f
	.long	 4f - 1f
	.long	 5
0:
	.string	 "GNU"
1:
	.align 8
	.long	 0xc0000002
	.long	 3f - 2f
2:
	.long	 0x3
3:
	.align 8
4:
