	.file	"expand-common.c"
	.text
.Ltext0:
	.type	to_uchar, @function
to_uchar:
.LFB11:
	.file 1 "src/system.h"
	.loc 1 156 48
	.cfi_startproc
	pushq	%rbp
	.cfi_def_cfa_offset 16
	.cfi_offset 6, -16
	movq	%rsp, %rbp
	.cfi_def_cfa_register 6
	movl	%edi, %eax
	movb	%al, -4(%rbp)
	.loc 1 156 57
	movzbl	-4(%rbp), %eax
	.loc 1 156 61
	popq	%rbp
	.cfi_def_cfa 7, 8
	ret
	.cfi_endproc
.LFE11:
	.size	to_uchar, .-to_uchar
	.globl	convert_entire_line
	.bss
	.type	convert_entire_line, @object
	.size	convert_entire_line, 1
convert_entire_line:
	.zero	1
	.local	tab_size
	.comm	tab_size,8,8
	.local	extend_size
	.comm	extend_size,8,8
	.local	increment_size
	.comm	increment_size,8,8
	.globl	max_column_width
	.align 8
	.type	max_column_width, @object
	.size	max_column_width, 8
max_column_width:
	.zero	8
	.local	tab_list
	.comm	tab_list,8,8
	.local	n_tabs_allocated
	.comm	n_tabs_allocated,8,8
	.local	first_free_tab
	.comm	first_free_tab,8,8
	.local	file_list
	.comm	file_list,8,8
	.section	.rodata
.LC0:
	.string	"-"
	.section	.data.rel.local,"aw"
	.align 16
	.type	stdin_argv, @object
	.size	stdin_argv, 16
stdin_argv:
	.quad	.LC0
	.quad	0
	.local	have_read_stdin
	.comm	have_read_stdin,1,1
	.globl	exit_status
	.bss
	.align 4
	.type	exit_status, @object
	.size	exit_status, 4
exit_status:
	.zero	4
	.text
	.globl	add_tab_stop
	.type	add_tab_stop, @function
add_tab_stop:
.LFB46:
	.file 2 "src/expand-common.c"
	.loc 2 79 1
	.cfi_startproc
	endbr64
	pushq	%rbp
	.cfi_def_cfa_offset 16
	.cfi_offset 6, -16
	movq	%rsp, %rbp
	.cfi_def_cfa_register 6
	subq	$32, %rsp
	movq	%rdi, -24(%rbp)
	.loc 2 80 42
	movq	first_free_tab(%rip), %rax
	.loc 2 80 73
	testq	%rax, %rax
	je	.L4
	.loc 2 80 52 discriminator 1
	movq	tab_list(%rip), %rax
	movq	first_free_tab(%rip), %rdx
	salq	$3, %rdx
	subq	$8, %rdx
	addq	%rdx, %rax
	.loc 2 80 73 discriminator 1
	movq	(%rax), %rax
	jmp	.L5
.L4:
	.loc 2 80 73 is_stmt 0 discriminator 2
	movl	$0, %eax
.L5:
	.loc 2 80 13 is_stmt 1 discriminator 4
	movq	%rax, -16(%rbp)
	.loc 2 81 73 discriminator 4
	movq	-16(%rbp), %rax
	cmpq	-24(%rbp), %rax
	ja	.L6
	.loc 2 81 73 is_stmt 0 discriminator 1
	movq	-24(%rbp), %rax
	subq	-16(%rbp), %rax
	jmp	.L7
.L6:
	.loc 2 81 73 discriminator 2
	movl	$0, %eax
.L7:
	.loc 2 81 13 is_stmt 1 discriminator 4
	movq	%rax, -8(%rbp)
	.loc 2 83 22 discriminator 4
	movq	first_free_tab(%rip), %rdx
	movq	n_tabs_allocated(%rip), %rax
	.loc 2 83 6 discriminator 4
	cmpq	%rax, %rdx
	jne	.L8
.LBB2:
	.loc 2 84 16
	movq	tab_list(%rip), %rax
	movl	$8, %edx
	leaq	n_tabs_allocated(%rip), %rsi
	movq	%rax, %rdi
	call	x2nrealloc@PLT
	.loc 2 84 14
	movq	%rax, tab_list(%rip)
.L8:
.LBE2:
	.loc 2 85 11
	movq	tab_list(%rip), %rcx
	.loc 2 85 26
	movq	first_free_tab(%rip), %rax
	leaq	1(%rax), %rdx
	movq	%rdx, first_free_tab(%rip)
	.loc 2 85 11
	salq	$3, %rax
	leaq	(%rcx,%rax), %rdx
	.loc 2 85 30
	movq	-24(%rbp), %rax
	movq	%rax, (%rdx)
	.loc 2 87 24
	movq	max_column_width(%rip), %rax
	.loc 2 87 6
	cmpq	%rax, -8(%rbp)
	jbe	.L10
	.loc 2 91 24
	movq	-8(%rbp), %rax
	movq	%rax, max_column_width(%rip)
.L10:
	.loc 2 93 1
	nop
	leave
	.cfi_def_cfa 7, 8
	ret
	.cfi_endproc
.LFE46:
	.size	add_tab_stop, .-add_tab_stop
	.section	.rodata
	.align 8
.LC1:
	.string	"'/' specifier only allowed with the last value"
	.text
	.type	set_extend_size, @function
set_extend_size:
.LFB47:
	.loc 2 97 1
	.cfi_startproc
	endbr64
	pushq	%rbp
	.cfi_def_cfa_offset 16
	.cfi_offset 6, -16
	movq	%rsp, %rbp
	.cfi_def_cfa_register 6
	subq	$32, %rsp
	movq	%rdi, -24(%rbp)
	.loc 2 98 8
	movb	$1, -1(%rbp)
	.loc 2 100 7
	movq	extend_size(%rip), %rax
	.loc 2 100 6
	testq	%rax, %rax
	je	.L12
	.loc 2 103 14
	leaq	.LC1(%rip), %rdi
	call	gettext@PLT
	.loc 2 102 7
	movq	%rax, %rdx
	movl	$0, %esi
	movl	$0, %edi
	movl	$0, %eax
	call	error@PLT
	.loc 2 105 10
	movb	$0, -1(%rbp)
.L12:
	.loc 2 107 15
	movq	-24(%rbp), %rax
	movq	%rax, extend_size(%rip)
	.loc 2 109 10
	movzbl	-1(%rbp), %eax
	.loc 2 110 1
	leave
	.cfi_def_cfa 7, 8
	ret
	.cfi_endproc
.LFE47:
	.size	set_extend_size, .-set_extend_size
	.section	.rodata
	.align 8
.LC2:
	.string	"'+' specifier only allowed with the last value"
	.text
	.type	set_increment_size, @function
set_increment_size:
.LFB48:
	.loc 2 114 1
	.cfi_startproc
	endbr64
	pushq	%rbp
	.cfi_def_cfa_offset 16
	.cfi_offset 6, -16
	movq	%rsp, %rbp
	.cfi_def_cfa_register 6
	subq	$32, %rsp
	movq	%rdi, -24(%rbp)
	.loc 2 115 8
	movb	$1, -1(%rbp)
	.loc 2 117 7
	movq	increment_size(%rip), %rax
	.loc 2 117 6
	testq	%rax, %rax
	je	.L15
	.loc 2 120 14
	leaq	.LC2(%rip), %rdi
	call	gettext@PLT
	.loc 2 119 7
	movq	%rax, %rdx
	movl	$0, %esi
	movl	$0, %edi
	movl	$0, %eax
	call	error@PLT
	.loc 2 122 10
	movb	$0, -1(%rbp)
.L15:
	.loc 2 124 18
	movq	-24(%rbp), %rax
	movq	%rax, increment_size(%rip)
	.loc 2 126 10
	movzbl	-1(%rbp), %eax
	.loc 2 127 1
	leave
	.cfi_def_cfa 7, 8
	ret
	.cfi_endproc
.LFE48:
	.size	set_increment_size, .-set_increment_size
	.section	.rodata
	.align 8
.LC3:
	.string	"'/' specifier not at start of number: %s"
	.align 8
.LC4:
	.string	"'+' specifier not at start of number: %s"
.LC5:
	.string	"0123456789"
.LC6:
	.string	"tab stop is too large %s"
	.align 8
.LC7:
	.string	"tab size contains invalid character(s): %s"
	.text
	.globl	parse_tab_stops
	.type	parse_tab_stops, @function
parse_tab_stops:
.LFB49:
	.loc 2 133 1
	.cfi_startproc
	endbr64
	pushq	%rbp
	.cfi_def_cfa_offset 16
	.cfi_offset 6, -16
	movq	%rsp, %rbp
	.cfi_def_cfa_register 6
	pushq	%rbx
	subq	$72, %rsp
	.cfi_offset 3, -24
	movq	%rdi, -72(%rbp)
	.loc 2 133 1
	movq	%fs:40, %rax
	movq	%rax, -24(%rbp)
	xorl	%eax, %eax
	.loc 2 134 8
	movb	$0, -60(%rbp)
	.loc 2 135 13
	movq	$0, -56(%rbp)
	.loc 2 136 8
	movb	$0, -59(%rbp)
	.loc 2 137 8
	movb	$0, -58(%rbp)
	.loc 2 138 15
	movq	$0, -48(%rbp)
	.loc 2 139 8
	movb	$1, -57(%rbp)
	.loc 2 141 3
	jmp	.L18
.L34:
	.loc 2 143 11
	movq	-72(%rbp), %rax
	movzbl	(%rax), %eax
	.loc 2 143 10
	cmpb	$44, %al
	je	.L19
	.loc 2 143 28 discriminator 1
	call	__ctype_b_loc@PLT
	movq	(%rax), %rbx
	movq	-72(%rbp), %rax
	movzbl	(%rax), %eax
	movsbl	%al, %eax
	movl	%eax, %edi
	call	to_uchar
	movzbl	%al, %eax
	addq	%rax, %rax
	addq	%rbx, %rax
	movzwl	(%rax), %eax
	movzwl	%ax, %eax
	andl	$1, %eax
	.loc 2 143 25 discriminator 1
	testl	%eax, %eax
	je	.L20
.L19:
	.loc 2 145 14
	cmpb	$0, -60(%rbp)
	je	.L21
	.loc 2 147 18
	cmpb	$0, -59(%rbp)
	je	.L22
	.loc 2 149 25
	movq	-56(%rbp), %rax
	movq	%rax, %rdi
	call	set_extend_size
	.loc 2 149 23
	xorl	$1, %eax
	.loc 2 149 22
	testb	%al, %al
	je	.L21
	.loc 2 151 26
	movb	$0, -57(%rbp)
	.loc 2 152 23
	jmp	.L23
.L22:
	.loc 2 155 23
	cmpb	$0, -58(%rbp)
	je	.L24
	.loc 2 157 25
	movq	-56(%rbp), %rax
	movq	%rax, %rdi
	call	set_increment_size
	.loc 2 157 23
	xorl	$1, %eax
	.loc 2 157 22
	testb	%al, %al
	je	.L21
	.loc 2 159 26
	movb	$0, -57(%rbp)
	.loc 2 160 23
	jmp	.L23
.L24:
	.loc 2 164 17
	movq	-56(%rbp), %rax
	movq	%rax, %rdi
	call	add_tab_stop
.L21:
	.loc 2 166 23
	movb	$0, -60(%rbp)
	jmp	.L25
.L20:
	.loc 2 168 16
	movq	-72(%rbp), %rax
	movzbl	(%rax), %eax
	.loc 2 168 15
	cmpb	$47, %al
	jne	.L26
	.loc 2 170 14
	cmpb	$0, -60(%rbp)
	je	.L27
	.loc 2 172 15
	movq	-72(%rbp), %rax
	movq	%rax, %rdi
	call	quote@PLT
	movq	%rax, %rbx
	.loc 2 172 28
	leaq	.LC3(%rip), %rdi
	call	gettext@PLT
	.loc 2 172 15
	movq	%rbx, %rcx
	movq	%rax, %rdx
	movl	$0, %esi
	movl	$0, %edi
	movl	$0, %eax
	call	error@PLT
	.loc 2 174 18
	movb	$0, -57(%rbp)
.L27:
	.loc 2 176 25
	movb	$1, -59(%rbp)
	.loc 2 177 28
	movb	$0, -58(%rbp)
	jmp	.L25
.L26:
	.loc 2 179 16
	movq	-72(%rbp), %rax
	movzbl	(%rax), %eax
	.loc 2 179 15
	cmpb	$43, %al
	jne	.L28
	.loc 2 181 14
	cmpb	$0, -60(%rbp)
	je	.L29
	.loc 2 183 15
	movq	-72(%rbp), %rax
	movq	%rax, %rdi
	call	quote@PLT
	movq	%rax, %rbx
	.loc 2 183 28
	leaq	.LC4(%rip), %rdi
	call	gettext@PLT
	.loc 2 183 15
	movq	%rbx, %rcx
	movq	%rax, %rdx
	movl	$0, %esi
	movl	$0, %edi
	movl	$0, %eax
	call	error@PLT
	.loc 2 185 18
	movb	$0, -57(%rbp)
.L29:
	.loc 2 187 28
	movb	$1, -58(%rbp)
	.loc 2 188 25
	movb	$0, -59(%rbp)
	jmp	.L25
.L28:
	.loc 2 190 16
	movq	-72(%rbp), %rax
	movzbl	(%rax), %eax
	movsbl	%al, %eax
	subl	$48, %eax
	.loc 2 190 15
	cmpl	$9, %eax
	ja	.L30
	.loc 2 192 15
	movzbl	-60(%rbp), %eax
	xorl	$1, %eax
	.loc 2 192 14
	testb	%al, %al
	je	.L31
	.loc 2 194 22
	movq	$0, -56(%rbp)
	.loc 2 195 27
	movb	$1, -60(%rbp)
	.loc 2 196 25
	movq	-72(%rbp), %rax
	movq	%rax, -48(%rbp)
.L31:
.LBB3:
	.loc 2 200 16
	movq	-56(%rbp), %rax
	.loc 2 200 15
	movabsq	$1844674407370955161, %rdx
	cmpq	%rdx, %rax
	ja	.L32
	.loc 2 200 16 discriminator 1
	movq	-56(%rbp), %rdx
	movq	%rdx, %rax
	salq	$2, %rax
	addq	%rdx, %rax
	addq	%rax, %rax
	movq	%rax, %rdx
	movq	-72(%rbp), %rax
	movzbl	(%rax), %eax
	movsbl	%al, %eax
	subl	$48, %eax
	cltq
	addq	%rax, %rdx
	movq	-56(%rbp), %rax
	cmpq	%rax, %rdx
	jb	.L32
	.loc 2 200 16 is_stmt 0 discriminator 3
	movq	-56(%rbp), %rdx
	movq	%rdx, %rax
	salq	$2, %rax
	addq	%rdx, %rax
	addq	%rax, %rax
	movq	%rax, %rdx
	movq	-72(%rbp), %rax
	movzbl	(%rax), %eax
	movsbl	%al, %eax
	subl	$48, %eax
	cltq
	addq	%rdx, %rax
	movq	%rax, -56(%rbp)
	.loc 2 200 15 is_stmt 1 discriminator 3
	movl	$0, %eax
	jmp	.L33
.L32:
	.loc 2 200 15 is_stmt 0 discriminator 4
	movl	$1, %eax
.L33:
	.loc 2 200 14 is_stmt 1 discriminator 6
	testb	%al, %al
	je	.L25
.LBB4:
	.loc 2 202 28
	movq	-48(%rbp), %rax
	leaq	.LC5(%rip), %rsi
	movq	%rax, %rdi
	call	strspn@PLT
	movq	%rax, -40(%rbp)
	.loc 2 203 31
	movq	-40(%rbp), %rdx
	movq	-48(%rbp), %rax
	movq	%rdx, %rsi
	movq	%rax, %rdi
	call	xstrndup@PLT
	movq	%rax, -32(%rbp)
	.loc 2 204 15
	movq	-32(%rbp), %rax
	movq	%rax, %rdi
	call	quote@PLT
	movq	%rax, %rbx
	.loc 2 204 28
	leaq	.LC6(%rip), %rdi
	call	gettext@PLT
	.loc 2 204 15
	movq	%rbx, %rcx
	movq	%rax, %rdx
	movl	$0, %esi
	movl	$0, %edi
	movl	$0, %eax
	call	error@PLT
	.loc 2 205 15
	movq	-32(%rbp), %rax
	movq	%rax, %rdi
	call	free@PLT
	.loc 2 206 18
	movb	$0, -57(%rbp)
	.loc 2 207 39
	movq	-40(%rbp), %rax
	leaq	-1(%rax), %rdx
	.loc 2 207 21
	movq	-48(%rbp), %rax
	addq	%rdx, %rax
	movq	%rax, -72(%rbp)
	jmp	.L25
.L30:
.LBE4:
.LBE3:
	.loc 2 212 11
	movq	-72(%rbp), %rax
	movq	%rax, %rdi
	call	quote@PLT
	movq	%rax, %rbx
	.loc 2 212 24
	leaq	.LC7(%rip), %rdi
	call	gettext@PLT
	.loc 2 212 11
	movq	%rbx, %rcx
	movq	%rax, %rdx
	movl	$0, %esi
	movl	$0, %edi
	movl	$0, %eax
	call	error@PLT
	.loc 2 214 14
	movb	$0, -57(%rbp)
	.loc 2 215 11
	jmp	.L23
.L25:
	.loc 2 141 23
	addq	$1, -72(%rbp)
.L18:
	.loc 2 141 10 discriminator 1
	movq	-72(%rbp), %rax
	movzbl	(%rax), %eax
	.loc 2 141 3 discriminator 1
	testb	%al, %al
	jne	.L34
.L23:
	.loc 2 219 6
	cmpb	$0, -57(%rbp)
	je	.L35
	.loc 2 219 10 discriminator 1
	cmpb	$0, -60(%rbp)
	je	.L35
	.loc 2 221 10
	cmpb	$0, -59(%rbp)
	je	.L36
	.loc 2 222 15
	movq	-56(%rbp), %rax
	movq	%rax, %rdi
	call	set_extend_size
	.loc 2 222 12
	movzbl	-57(%rbp), %edx
	.loc 2 222 15
	movzbl	%al, %eax
	.loc 2 222 12
	andl	%edx, %eax
	testl	%eax, %eax
	setne	%al
	movb	%al, -57(%rbp)
	jmp	.L35
.L36:
	.loc 2 223 15
	cmpb	$0, -58(%rbp)
	je	.L37
	.loc 2 224 15
	movq	-56(%rbp), %rax
	movq	%rax, %rdi
	call	set_increment_size
	.loc 2 224 12
	movzbl	-57(%rbp), %edx
	.loc 2 224 15
	movzbl	%al, %eax
	.loc 2 224 12
	andl	%edx, %eax
	testl	%eax, %eax
	setne	%al
	movb	%al, -57(%rbp)
	jmp	.L35
.L37:
	.loc 2 226 9
	movq	-56(%rbp), %rax
	movq	%rax, %rdi
	call	add_tab_stop
.L35:
	.loc 2 229 7
	movzbl	-57(%rbp), %eax
	xorl	$1, %eax
	.loc 2 229 6
	testb	%al, %al
	je	.L40
	.loc 2 230 5
	movl	$1, %edi
	call	exit@PLT
.L40:
	.loc 2 231 1
	nop
	movq	-24(%rbp), %rax
	xorq	%fs:40, %rax
	je	.L39
	call	__stack_chk_fail@PLT
.L39:
	addq	$72, %rsp
	popq	%rbx
	popq	%rbp
	.cfi_def_cfa 7, 8
	ret
	.cfi_endproc
.LFE49:
	.size	parse_tab_stops, .-parse_tab_stops
	.section	.rodata
.LC8:
	.string	"tab size cannot be 0"
.LC9:
	.string	"tab sizes must be ascending"
	.align 8
.LC10:
	.string	"'/' specifier is mutually exclusive with '+'"
	.text
	.type	validate_tab_stops, @function
validate_tab_stops:
.LFB50:
	.loc 2 238 1
	.cfi_startproc
	endbr64
	pushq	%rbp
	.cfi_def_cfa_offset 16
	.cfi_offset 6, -16
	movq	%rsp, %rbp
	.cfi_def_cfa_register 6
	subq	$32, %rsp
	movq	%rdi, -24(%rbp)
	movq	%rsi, -32(%rbp)
	.loc 2 239 13
	movq	$0, -16(%rbp)
.LBB5:
	.loc 2 241 15
	movq	$0, -8(%rbp)
	.loc 2 241 3
	jmp	.L42
.L45:
	.loc 2 243 15
	movq	-8(%rbp), %rax
	leaq	0(,%rax,8), %rdx
	movq	-24(%rbp), %rax
	addq	%rdx, %rax
	movq	(%rax), %rax
	.loc 2 243 10
	testq	%rax, %rax
	jne	.L43
.LBB6:
	.loc 2 244 9
	leaq	.LC8(%rip), %rdi
	call	gettext@PLT
	movq	%rax, %rdx
	movl	$0, %esi
	movl	$1, %edi
	movl	$0, %eax
	call	error@PLT
.L43:
.LBE6:
	.loc 2 245 15
	movq	-8(%rbp), %rax
	leaq	0(,%rax,8), %rdx
	movq	-24(%rbp), %rax
	addq	%rdx, %rax
	movq	(%rax), %rax
	.loc 2 245 10
	cmpq	%rax, -16(%rbp)
	jb	.L44
.LBB7:
	.loc 2 246 9
	leaq	.LC9(%rip), %rdi
	call	gettext@PLT
	movq	%rax, %rdx
	movl	$0, %esi
	movl	$1, %edi
	movl	$0, %eax
	call	error@PLT
.L44:
.LBE7:
	.loc 2 247 22 discriminator 2
	movq	-8(%rbp), %rax
	leaq	0(,%rax,8), %rdx
	movq	-24(%rbp), %rax
	addq	%rdx, %rax
	.loc 2 247 16 discriminator 2
	movq	(%rax), %rax
	movq	%rax, -16(%rbp)
	.loc 2 241 36 discriminator 2
	addq	$1, -8(%rbp)
.L42:
	.loc 2 241 3 discriminator 1
	movq	-8(%rbp), %rax
	cmpq	-32(%rbp), %rax
	jb	.L45
.LBE5:
	.loc 2 250 7
	movq	increment_size(%rip), %rax
	.loc 2 250 6
	testq	%rax, %rax
	je	.L47
	.loc 2 250 22 discriminator 1
	movq	extend_size(%rip), %rax
	testq	%rax, %rax
	je	.L47
.LBB8:
	.loc 2 251 5
	leaq	.LC10(%rip), %rdi
	call	gettext@PLT
	movq	%rax, %rdx
	movl	$0, %esi
	movl	$1, %edi
	movl	$0, %eax
	call	error@PLT
.L47:
.LBE8:
	.loc 2 252 1
	nop
	leave
	.cfi_def_cfa 7, 8
	ret
	.cfi_endproc
.LFE50:
	.size	validate_tab_stops, .-validate_tab_stops
	.globl	finalize_tab_stops
	.type	finalize_tab_stops, @function
finalize_tab_stops:
.LFB51:
	.loc 2 264 1
	.cfi_startproc
	endbr64
	pushq	%rbp
	.cfi_def_cfa_offset 16
	.cfi_offset 6, -16
	movq	%rsp, %rbp
	.cfi_def_cfa_register 6
	.loc 2 265 3
	movq	first_free_tab(%rip), %rdx
	movq	tab_list(%rip), %rax
	movq	%rdx, %rsi
	movq	%rax, %rdi
	call	validate_tab_stops
	.loc 2 267 22
	movq	first_free_tab(%rip), %rax
	.loc 2 267 6
	testq	%rax, %rax
	jne	.L49
	.loc 2 269 35
	movq	extend_size(%rip), %rax
	.loc 2 269 49
	testq	%rax, %rax
	jne	.L50
	.loc 2 270 51
	movq	increment_size(%rip), %rax
	.loc 2 270 68
	testq	%rax, %rax
	je	.L51
	.loc 2 270 68 is_stmt 0 discriminator 1
	movq	increment_size(%rip), %rax
	jmp	.L53
.L51:
	.loc 2 270 68 discriminator 2
	movl	$8, %eax
	jmp	.L53
.L50:
	.loc 2 269 49 is_stmt 1 discriminator 1
	movq	extend_size(%rip), %rax
.L53:
	.loc 2 268 33
	movq	%rax, max_column_width(%rip)
	.loc 2 268 14
	movq	max_column_width(%rip), %rax
	movq	%rax, tab_size(%rip)
	.loc 2 275 1
	jmp	.L56
.L49:
	.loc 2 271 27
	movq	first_free_tab(%rip), %rax
	.loc 2 271 11
	cmpq	$1, %rax
	jne	.L55
	.loc 2 271 35 discriminator 1
	movq	extend_size(%rip), %rax
	.loc 2 271 32 discriminator 1
	testq	%rax, %rax
	jne	.L55
	.loc 2 271 52 discriminator 2
	movq	increment_size(%rip), %rax
	.loc 2 271 49 discriminator 2
	testq	%rax, %rax
	jne	.L55
	.loc 2 272 24
	movq	tab_list(%rip), %rax
	movq	(%rax), %rax
	.loc 2 272 14
	movq	%rax, tab_size(%rip)
	.loc 2 275 1
	jmp	.L56
.L55:
	.loc 2 274 14
	movq	$0, tab_size(%rip)
.L56:
	.loc 2 275 1
	nop
	popq	%rbp
	.cfi_def_cfa 7, 8
	ret
	.cfi_endproc
.LFE51:
	.size	finalize_tab_stops, .-finalize_tab_stops
	.globl	get_next_tab_column
	.type	get_next_tab_column, @function
get_next_tab_column:
.LFB52:
	.loc 2 281 1
	.cfi_startproc
	endbr64
	pushq	%rbp
	.cfi_def_cfa_offset 16
	.cfi_offset 6, -16
	movq	%rsp, %rbp
	.cfi_def_cfa_register 6
	movq	%rdi, -24(%rbp)
	movq	%rsi, -32(%rbp)
	movq	%rdx, -40(%rbp)
	.loc 2 282 13
	movq	-40(%rbp), %rax
	movb	$0, (%rax)
	.loc 2 285 7
	movq	tab_size(%rip), %rax
	.loc 2 285 6
	testq	%rax, %rax
	je	.L60
	.loc 2 286 31
	movq	tab_size(%rip), %rcx
	.loc 2 286 40
	movq	tab_size(%rip), %rsi
	movq	-24(%rbp), %rax
	movl	$0, %edx
	divq	%rsi
	movq	%rdx, %rax
	.loc 2 286 31
	subq	%rax, %rcx
	movq	%rcx, %rdx
	.loc 2 286 19
	movq	-24(%rbp), %rax
	addq	%rdx, %rax
	jmp	.L59
.L62:
.LBB9:
	.loc 2 292 33
	movq	tab_list(%rip), %rdx
	.loc 2 292 34
	movq	-32(%rbp), %rax
	movq	(%rax), %rax
	.loc 2 292 33
	salq	$3, %rax
	addq	%rdx, %rax
	.loc 2 292 19
	movq	(%rax), %rax
	movq	%rax, -8(%rbp)
	.loc 2 293 12
	movq	-24(%rbp), %rax
	cmpq	-8(%rbp), %rax
	jnb	.L61
	.loc 2 294 20
	movq	-8(%rbp), %rax
	jmp	.L59
.L61:
.LBE9:
	.loc 2 290 42
	movq	-32(%rbp), %rax
	movq	(%rax), %rax
	.loc 2 290 53
	leaq	1(%rax), %rdx
	movq	-32(%rbp), %rax
	movq	%rdx, (%rax)
.L60:
	.loc 2 290 11 discriminator 1
	movq	-32(%rbp), %rax
	movq	(%rax), %rdx
	.loc 2 290 22 discriminator 1
	movq	first_free_tab(%rip), %rax
	.loc 2 290 3 discriminator 1
	cmpq	%rax, %rdx
	jb	.L62
	.loc 2 298 7
	movq	extend_size(%rip), %rax
	.loc 2 298 6
	testq	%rax, %rax
	je	.L63
	.loc 2 299 34
	movq	extend_size(%rip), %rcx
	.loc 2 299 43
	movq	extend_size(%rip), %rsi
	movq	-24(%rbp), %rax
	movl	$0, %edx
	divq	%rsi
	movq	%rdx, %rax
	.loc 2 299 34
	subq	%rax, %rcx
	movq	%rcx, %rdx
	.loc 2 299 19
	movq	-24(%rbp), %rax
	addq	%rdx, %rax
	jmp	.L59
.L63:
	.loc 2 302 7
	movq	increment_size(%rip), %rax
	.loc 2 302 6
	testq	%rax, %rax
	je	.L64
.LBB10:
	.loc 2 304 35
	movq	tab_list(%rip), %rax
	movq	first_free_tab(%rip), %rdx
	salq	$3, %rdx
	subq	$8, %rdx
	addq	%rdx, %rax
	.loc 2 304 17
	movq	(%rax), %rax
	movq	%rax, -16(%rbp)
	.loc 2 306 39
	movq	increment_size(%rip), %rcx
	.loc 2 306 50
	movq	-24(%rbp), %rax
	subq	-16(%rbp), %rax
	.loc 2 306 61
	movq	increment_size(%rip), %rsi
	movl	$0, %edx
	divq	%rsi
	movq	%rdx, %rax
	.loc 2 306 39
	subq	%rax, %rcx
	movq	%rcx, %rdx
	.loc 2 306 21
	movq	-24(%rbp), %rax
	addq	%rdx, %rax
	jmp	.L59
.L64:
.LBE10:
	.loc 2 309 13
	movq	-40(%rbp), %rax
	movb	$1, (%rax)
	.loc 2 310 10
	movl	$0, %eax
.L59:
	.loc 2 311 1
	popq	%rbp
	.cfi_def_cfa 7, 8
	ret
	.cfi_endproc
.LFE52:
	.size	get_next_tab_column, .-get_next_tab_column
	.globl	set_file_list
	.type	set_file_list, @function
set_file_list:
.LFB53:
	.loc 2 319 1
	.cfi_startproc
	endbr64
	pushq	%rbp
	.cfi_def_cfa_offset 16
	.cfi_offset 6, -16
	movq	%rsp, %rbp
	.cfi_def_cfa_register 6
	movq	%rdi, -8(%rbp)
	.loc 2 320 19
	movb	$0, have_read_stdin(%rip)
	.loc 2 322 6
	cmpq	$0, -8(%rbp)
	jne	.L66
	.loc 2 323 15
	leaq	stdin_argv(%rip), %rax
	movq	%rax, file_list(%rip)
	.loc 2 326 1
	jmp	.L68
.L66:
	.loc 2 325 15
	movq	-8(%rbp), %rax
	movq	%rax, file_list(%rip)
.L68:
	.loc 2 326 1
	nop
	popq	%rbp
	.cfi_def_cfa 7, 8
	ret
	.cfi_endproc
.LFE53:
	.size	set_file_list, .-set_file_list
	.section	.rodata
.LC11:
	.string	"src/expand-common.c"
.LC12:
	.string	"prev_file"
.LC13:
	.string	"%s"
.LC14:
	.string	"r"
	.text
	.globl	next_file
	.type	next_file, @function
next_file:
.LFB54:
	.loc 2 335 1
	.cfi_startproc
	endbr64
	pushq	%rbp
	.cfi_def_cfa_offset 16
	.cfi_offset 6, -16
	movq	%rsp, %rbp
	.cfi_def_cfa_register 6
	pushq	%rbx
	subq	$40, %rsp
	.cfi_offset 3, -24
	movq	%rdi, -40(%rbp)
	.loc 2 339 6
	cmpq	$0, -40(%rbp)
	je	.L74
	.loc 2 341 7
	movq	prev_file.6337(%rip), %rax
	testq	%rax, %rax
	jne	.L71
	.loc 2 341 7 is_stmt 0 discriminator 1
	leaq	__PRETTY_FUNCTION__.6339(%rip), %rcx
	movl	$341, %edx
	leaq	.LC11(%rip), %rsi
	leaq	.LC12(%rip), %rdi
	call	__assert_fail@PLT
.L71:
	.loc 2 342 11 is_stmt 1
	movq	-40(%rbp), %rax
	movq	%rax, %rdi
	call	ferror_unlocked@PLT
	.loc 2 342 10
	testl	%eax, %eax
	je	.L72
	.loc 2 344 11
	movq	prev_file.6337(%rip), %rax
	movq	%rax, %rdx
	movl	$3, %esi
	movl	$0, %edi
	call	quotearg_n_style_colon@PLT
	movq	%rax, %rbx
	.loc 2 344 21
	call	__errno_location@PLT
	.loc 2 344 11
	movl	(%rax), %eax
	movq	%rbx, %rcx
	leaq	.LC13(%rip), %rdx
	movl	%eax, %esi
	movl	$0, %edi
	movl	$0, %eax
	call	error@PLT
	.loc 2 345 23
	movl	$1, exit_status(%rip)
.L72:
	.loc 2 347 11
	movq	prev_file.6337(%rip), %rax
	leaq	.LC0(%rip), %rsi
	movq	%rax, %rdi
	call	strcmp@PLT
	.loc 2 347 10
	testl	%eax, %eax
	jne	.L73
	.loc 2 348 9
	movq	-40(%rbp), %rax
	movq	%rax, %rdi
	call	clearerr_unlocked@PLT
	jmp	.L74
.L73:
	.loc 2 349 16
	movq	-40(%rbp), %rax
	movq	%rax, %rdi
	call	rpl_fclose@PLT
	.loc 2 349 15
	testl	%eax, %eax
	je	.L74
	.loc 2 351 11
	movq	prev_file.6337(%rip), %rax
	movq	%rax, %rdx
	movl	$3, %esi
	movl	$0, %edi
	call	quotearg_n_style_colon@PLT
	movq	%rax, %rbx
	.loc 2 351 21
	call	__errno_location@PLT
	.loc 2 351 11
	movl	(%rax), %eax
	movq	%rbx, %rcx
	leaq	.LC13(%rip), %rdx
	movl	%eax, %esi
	movl	$0, %edi
	movl	$0, %eax
	call	error@PLT
	.loc 2 352 23
	movl	$1, exit_status(%rip)
	.loc 2 356 9
	jmp	.L74
.L79:
	.loc 2 358 11
	movq	-24(%rbp), %rax
	leaq	.LC0(%rip), %rsi
	movq	%rax, %rdi
	call	strcmp@PLT
	.loc 2 358 10
	testl	%eax, %eax
	jne	.L75
	.loc 2 360 27
	movb	$1, have_read_stdin(%rip)
	.loc 2 361 14
	movq	stdin(%rip), %rax
	movq	%rax, -40(%rbp)
	jmp	.L76
.L75:
	.loc 2 364 14
	movq	-24(%rbp), %rax
	leaq	.LC14(%rip), %rsi
	movq	%rax, %rdi
	call	fopen@PLT
	movq	%rax, -40(%rbp)
.L76:
	.loc 2 365 10
	cmpq	$0, -40(%rbp)
	je	.L77
	.loc 2 367 21
	movq	-24(%rbp), %rax
	movq	%rax, prev_file.6337(%rip)
	.loc 2 368 11
	movq	-40(%rbp), %rax
	movl	$2, %esi
	movq	%rax, %rdi
	call	fadvise@PLT
	.loc 2 369 18
	movq	-40(%rbp), %rax
	jmp	.L78
.L77:
	.loc 2 371 7
	movq	-24(%rbp), %rax
	movq	%rax, %rdx
	movl	$3, %esi
	movl	$0, %edi
	call	quotearg_n_style_colon@PLT
	movq	%rax, %rbx
	.loc 2 371 17
	call	__errno_location@PLT
	.loc 2 371 7
	movl	(%rax), %eax
	movq	%rbx, %rcx
	leaq	.LC13(%rip), %rdx
	movl	%eax, %esi
	movl	$0, %edi
	movl	$0, %eax
	call	error@PLT
	.loc 2 372 19
	movl	$1, exit_status(%rip)
.L74:
	.loc 2 356 28
	movq	file_list(%rip), %rax
	leaq	8(%rax), %rdx
	movq	%rdx, file_list(%rip)
	.loc 2 356 16
	movq	(%rax), %rax
	movq	%rax, -24(%rbp)
	.loc 2 356 9
	cmpq	$0, -24(%rbp)
	jne	.L79
	.loc 2 374 10
	movl	$0, %eax
.L78:
	.loc 2 375 1
	addq	$40, %rsp
	popq	%rbx
	popq	%rbp
	.cfi_def_cfa 7, 8
	ret
	.cfi_endproc
.LFE54:
	.size	next_file, .-next_file
	.globl	cleanup_file_list_stdin
	.type	cleanup_file_list_stdin, @function
cleanup_file_list_stdin:
.LFB55:
	.loc 2 380 1
	.cfi_startproc
	endbr64
	pushq	%rbp
	.cfi_def_cfa_offset 16
	.cfi_offset 6, -16
	movq	%rsp, %rbp
	.cfi_def_cfa_register 6
	.loc 2 381 9
	movzbl	have_read_stdin(%rip), %eax
	.loc 2 381 8
	testb	%al, %al
	je	.L82
	.loc 2 381 28 discriminator 1
	movq	stdin(%rip), %rax
	movq	%rax, %rdi
	call	rpl_fclose@PLT
	.loc 2 381 25 discriminator 1
	testl	%eax, %eax
	je	.L82
.LBB11:
	.loc 2 382 7
	call	__errno_location@PLT
	movl	(%rax), %eax
	leaq	.LC0(%rip), %rdx
	movl	%eax, %esi
	movl	$1, %edi
	movl	$0, %eax
	call	error@PLT
.L82:
.LBE11:
	.loc 2 383 1
	nop
	popq	%rbp
	.cfi_def_cfa 7, 8
	ret
	.cfi_endproc
.LFE55:
	.size	cleanup_file_list_stdin, .-cleanup_file_list_stdin
	.section	.rodata
	.align 8
.LC15:
	.string	"  -t, --tabs=LIST  use comma separated list of tab positions.\n"
	.align 8
.LC16:
	.ascii	"                     The last specified position can be pref"
	.ascii	"ixed with '/'\n                     to specify a "
	.string	"tab size to use after the last\n                     explicitly specified tab stop.  Also a prefix of '+'\n                     can be used to align remaining tab stops relative to\n                     the last specified tab stop instead of the first column\n"
	.text
	.globl	emit_tab_list_info
	.type	emit_tab_list_info, @function
emit_tab_list_info:
.LFB56:
	.loc 2 388 1
	.cfi_startproc
	endbr64
	pushq	%rbp
	.cfi_def_cfa_offset 16
	.cfi_offset 6, -16
	movq	%rsp, %rbp
	.cfi_def_cfa_register 6
	pushq	%rbx
	subq	$8, %rsp
	.cfi_offset 3, -24
	.loc 2 390 3
	movq	stdout(%rip), %rbx
	leaq	.LC15(%rip), %rdi
	call	gettext@PLT
	movq	%rbx, %rsi
	movq	%rax, %rdi
	call	fputs_unlocked@PLT
	.loc 2 393 3
	movq	stdout(%rip), %rbx
	leaq	.LC16(%rip), %rdi
	call	gettext@PLT
	movq	%rbx, %rsi
	movq	%rax, %rdi
	call	fputs_unlocked@PLT
	.loc 2 400 1
	nop
	addq	$8, %rsp
	popq	%rbx
	popq	%rbp
	.cfi_def_cfa 7, 8
	ret
	.cfi_endproc
.LFE56:
	.size	emit_tab_list_info, .-emit_tab_list_info
	.local	prev_file.6337
	.comm	prev_file.6337,8,8
	.section	.rodata
	.align 8
	.type	__PRETTY_FUNCTION__.6339, @object
	.size	__PRETTY_FUNCTION__.6339, 10
__PRETTY_FUNCTION__.6339:
	.string	"next_file"
	.text
.Letext0:
	.file 3 "/usr/lib/gcc/x86_64-linux-gnu/9/include/stddef.h"
	.file 4 "/usr/include/x86_64-linux-gnu/bits/types.h"
	.file 5 "/usr/include/x86_64-linux-gnu/bits/types/struct_FILE.h"
	.file 6 "/usr/include/x86_64-linux-gnu/bits/types/FILE.h"
	.file 7 "/usr/include/stdio.h"
	.file 8 "/usr/include/x86_64-linux-gnu/bits/sys_errlist.h"
	.file 9 "/usr/include/x86_64-linux-gnu/bits/types/time_t.h"
	.file 10 "./lib/sys/select.h"
	.file 11 "/usr/include/time.h"
	.file 12 "/usr/include/signal.h"
	.file 13 "/usr/include/unistd.h"
	.file 14 "/usr/include/x86_64-linux-gnu/bits/getopt_core.h"
	.file 15 "/usr/include/errno.h"
	.file 16 "src/version.h"
	.file 17 "./lib/exitfail.h"
	.file 18 "/usr/include/stdint.h"
	.file 19 "./lib/timespec.h"
	.file 20 "/usr/include/ctype.h"
	.file 21 "./lib/version-etc.h"
	.file 22 "./lib/progname.h"
	.file 23 "./lib/quotearg.h"
	.file 24 "./lib/error.h"
	.file 25 "./lib/fadvise.h"
	.file 26 "./lib/quote.h"
	.file 27 "src/expand-common.h"
	.section	.note.GNU-stack,"",@progbits
	.section	.note.gnu.property,"a"
	.align 8
	.long	 1f - 0f
	.long	 4f - 1f
	.long	 5
0:
	.string	 "GNU"
1:
	.align 8
	.long	 0xc0000002
	.long	 3f - 2f
2:
	.long	 0x3
3:
	.align 8
4:
