	.file	"expand.c"
	.text
.Ltext0:
	.section	.rodata
	.align 8
.LC0:
	.string	"\nWith no FILE, or when FILE is -, read standard input.\n"
	.text
	.type	emit_stdin_note, @function
emit_stdin_note:
.LFB35:
	.file 1 "src/system.h"
	.loc 1 582 1
	.cfi_startproc
	pushq	%rbp
	.cfi_def_cfa_offset 16
	.cfi_offset 6, -16
	movq	%rsp, %rbp
	.cfi_def_cfa_register 6
	pushq	%rbx
	subq	$8, %rsp
	.cfi_offset 3, -24
	.loc 1 583 3
	movq	stdout(%rip), %rbx
	leaq	.LC0(%rip), %rdi
	call	gettext@PLT
	movq	%rbx, %rsi
	movq	%rax, %rdi
	call	fputs_unlocked@PLT
	.loc 1 586 1
	nop
	addq	$8, %rsp
	popq	%rbx
	popq	%rbp
	.cfi_def_cfa 7, 8
	ret
	.cfi_endproc
.LFE35:
	.size	emit_stdin_note, .-emit_stdin_note
	.section	.rodata
	.align 8
.LC1:
	.string	"\nMandatory arguments to long options are mandatory for short options too.\n"
	.text
	.type	emit_mandatory_arg_note, @function
emit_mandatory_arg_note:
.LFB36:
	.loc 1 589 1
	.cfi_startproc
	pushq	%rbp
	.cfi_def_cfa_offset 16
	.cfi_offset 6, -16
	movq	%rsp, %rbp
	.cfi_def_cfa_register 6
	pushq	%rbx
	subq	$8, %rsp
	.cfi_offset 3, -24
	.loc 1 590 3
	movq	stdout(%rip), %rbx
	leaq	.LC1(%rip), %rdi
	call	gettext@PLT
	movq	%rbx, %rsi
	movq	%rax, %rdi
	call	fputs_unlocked@PLT
	.loc 1 593 1
	nop
	addq	$8, %rsp
	popq	%rbx
	popq	%rbp
	.cfi_def_cfa 7, 8
	ret
	.cfi_endproc
.LFE36:
	.size	emit_mandatory_arg_note, .-emit_mandatory_arg_note
	.section	.rodata
.LC2:
	.string	"["
.LC3:
	.string	"test invocation"
.LC4:
	.string	"coreutils"
.LC5:
	.string	"Multi-call invocation"
.LC6:
	.string	"sha224sum"
.LC7:
	.string	"sha2 utilities"
.LC8:
	.string	"sha256sum"
.LC9:
	.string	"sha384sum"
.LC10:
	.string	"sha512sum"
.LC11:
	.string	"\n%s online help: <%s>\n"
	.align 8
.LC12:
	.string	"https://www.gnu.org/software/coreutils/"
.LC13:
	.string	"GNU coreutils"
.LC14:
	.string	"en_"
	.align 8
.LC15:
	.string	"Report any translation bugs to <https://translationproject.org/team/>\n"
.LC16:
	.string	"Full documentation <%s%s>\n"
.LC17:
	.string	" invocation"
.LC18:
	.string	""
	.align 8
.LC19:
	.string	"or available locally via: info '(coreutils) %s%s'\n"
	.text
	.type	emit_ancillary_info, @function
emit_ancillary_info:
.LFB40:
	.loc 1 635 1
	.cfi_startproc
	pushq	%rbp
	.cfi_def_cfa_offset 16
	.cfi_offset 6, -16
	movq	%rsp, %rbp
	.cfi_def_cfa_register 6
	pushq	%rbx
	subq	$184, %rsp
	.cfi_offset 3, -24
	movq	%rdi, -184(%rbp)
	.loc 1 635 1
	movq	%fs:40, %rax
	movq	%rax, -24(%rbp)
	xorl	%eax, %eax
	.loc 1 636 67
	leaq	.LC2(%rip), %rax
	movq	%rax, -144(%rbp)
	leaq	.LC3(%rip), %rax
	movq	%rax, -136(%rbp)
	leaq	.LC4(%rip), %rax
	movq	%rax, -128(%rbp)
	leaq	.LC5(%rip), %rax
	movq	%rax, -120(%rbp)
	leaq	.LC6(%rip), %rax
	movq	%rax, -112(%rbp)
	leaq	.LC7(%rip), %rax
	movq	%rax, -104(%rbp)
	leaq	.LC8(%rip), %rax
	movq	%rax, -96(%rbp)
	leaq	.LC7(%rip), %rax
	movq	%rax, -88(%rbp)
	leaq	.LC9(%rip), %rax
	movq	%rax, -80(%rbp)
	leaq	.LC7(%rip), %rax
	movq	%rax, -72(%rbp)
	leaq	.LC10(%rip), %rax
	movq	%rax, -64(%rbp)
	leaq	.LC7(%rip), %rax
	movq	%rax, -56(%rbp)
	movq	$0, -48(%rbp)
	movq	$0, -40(%rbp)
	.loc 1 646 15
	movq	-184(%rbp), %rax
	movq	%rax, -168(%rbp)
	.loc 1 647 25
	leaq	-144(%rbp), %rax
	movq	%rax, -160(%rbp)
	.loc 1 649 9
	jmp	.L4
.L6:
	.loc 1 650 13
	addq	$16, -160(%rbp)
.L4:
	.loc 1 649 18
	movq	-160(%rbp), %rax
	movq	(%rax), %rax
	.loc 1 649 9
	testq	%rax, %rax
	je	.L5
	.loc 1 649 33 discriminator 1
	movq	-160(%rbp), %rax
	movq	(%rax), %rdx
	movq	-184(%rbp), %rax
	movq	%rdx, %rsi
	movq	%rax, %rdi
	call	strcmp@PLT
	.loc 1 649 28 discriminator 1
	testl	%eax, %eax
	jne	.L6
.L5:
	.loc 1 652 15
	movq	-160(%rbp), %rax
	movq	8(%rax), %rax
	.loc 1 652 6
	testq	%rax, %rax
	je	.L7
	.loc 1 653 10
	movq	-160(%rbp), %rax
	movq	8(%rax), %rax
	movq	%rax, -168(%rbp)
.L7:
	.loc 1 655 11
	leaq	.LC11(%rip), %rdi
	call	gettext@PLT
	.loc 1 655 3
	leaq	.LC12(%rip), %rdx
	leaq	.LC13(%rip), %rsi
	movq	%rax, %rdi
	movl	$0, %eax
	call	printf@PLT
	.loc 1 659 29
	movl	$0, %esi
	movl	$5, %edi
	call	setlocale@PLT
	movq	%rax, -152(%rbp)
	.loc 1 660 6
	cmpq	$0, -152(%rbp)
	je	.L8
	.loc 1 660 22 discriminator 1
	movq	-152(%rbp), %rax
	movl	$3, %edx
	leaq	.LC14(%rip), %rsi
	movq	%rax, %rdi
	call	strncmp@PLT
	.loc 1 660 19 discriminator 1
	testl	%eax, %eax
	je	.L8
	.loc 1 666 7
	movq	stdout(%rip), %rbx
	leaq	.LC15(%rip), %rdi
	call	gettext@PLT
	movq	%rbx, %rsi
	movq	%rax, %rdi
	call	fputs_unlocked@PLT
.L8:
	.loc 1 669 11
	leaq	.LC16(%rip), %rdi
	call	gettext@PLT
	movq	%rax, %rcx
	.loc 1 669 3
	movq	-184(%rbp), %rax
	movq	%rax, %rdx
	leaq	.LC12(%rip), %rsi
	movq	%rcx, %rdi
	movl	$0, %eax
	call	printf@PLT
	.loc 1 671 3
	movq	-168(%rbp), %rax
	cmpq	-184(%rbp), %rax
	jne	.L9
	.loc 1 671 3 is_stmt 0 discriminator 1
	leaq	.LC17(%rip), %rbx
	jmp	.L10
.L9:
	.loc 1 671 3 discriminator 2
	leaq	.LC18(%rip), %rbx
.L10:
	.loc 1 671 11 is_stmt 1 discriminator 4
	leaq	.LC19(%rip), %rdi
	call	gettext@PLT
	movq	%rax, %rcx
	.loc 1 671 3 discriminator 4
	movq	-168(%rbp), %rax
	movq	%rbx, %rdx
	movq	%rax, %rsi
	movq	%rcx, %rdi
	movl	$0, %eax
	call	printf@PLT
	.loc 1 673 1 discriminator 4
	nop
	movq	-24(%rbp), %rax
	xorq	%fs:40, %rax
	je	.L11
	.loc 1 673 1 is_stmt 0
	call	__stack_chk_fail@PLT
.L11:
	addq	$184, %rsp
	popq	%rbx
	popq	%rbp
	.cfi_def_cfa 7, 8
	ret
	.cfi_endproc
.LFE40:
	.size	emit_ancillary_info, .-emit_ancillary_info
	.section	.rodata
	.align 32
	.type	shortopts, @object
	.size	shortopts, 34
shortopts:
	.string	"it:0::1::2::3::4::5::6::7::8::9::"
.LC20:
	.string	"tabs"
.LC21:
	.string	"initial"
.LC22:
	.string	"help"
.LC23:
	.string	"version"
	.section	.data.rel.ro.local,"aw"
	.align 32
	.type	longopts, @object
	.size	longopts, 160
longopts:
	.quad	.LC20
	.long	1
	.zero	4
	.quad	0
	.long	116
	.zero	4
	.quad	.LC21
	.long	0
	.zero	4
	.quad	0
	.long	105
	.zero	4
	.quad	.LC22
	.long	0
	.zero	4
	.quad	0
	.long	-130
	.zero	4
	.quad	.LC23
	.long	0
	.zero	4
	.quad	0
	.long	-131
	.zero	4
	.quad	0
	.long	0
	.zero	4
	.quad	0
	.long	0
	.zero	4
	.section	.rodata
	.align 8
.LC24:
	.string	"Try '%s --help' for more information.\n"
	.align 8
.LC25:
	.string	"Usage: %s [OPTION]... [FILE]...\n"
	.align 8
.LC26:
	.string	"Convert tabs in each FILE to spaces, writing to standard output.\n"
	.align 8
.LC27:
	.string	"  -i, --initial    do not convert tabs after non blanks\n  -t, --tabs=N     have tabs N characters apart, not 8\n"
	.align 8
.LC28:
	.string	"      --help     display this help and exit\n"
	.align 8
.LC29:
	.string	"      --version  output version information and exit\n"
.LC30:
	.string	"expand"
	.text
	.globl	usage
	.type	usage, @function
usage:
.LFB46:
	.file 2 "src/expand.c"
	.loc 2 64 1 is_stmt 1
	.cfi_startproc
	endbr64
	pushq	%rbp
	.cfi_def_cfa_offset 16
	.cfi_offset 6, -16
	movq	%rsp, %rbp
	.cfi_def_cfa_register 6
	pushq	%rbx
	subq	$24, %rsp
	.cfi_offset 3, -24
	movl	%edi, -20(%rbp)
	.loc 2 65 6
	cmpl	$0, -20(%rbp)
	je	.L13
	.loc 2 66 5
	movq	program_name(%rip), %rbx
	leaq	.LC24(%rip), %rdi
	call	gettext@PLT
	movq	%rax, %rcx
	movq	stderr(%rip), %rax
	movq	%rbx, %rdx
	movq	%rcx, %rsi
	movq	%rax, %rdi
	movl	$0, %eax
	call	fprintf@PLT
	jmp	.L14
.L13:
	.loc 2 69 7
	movq	program_name(%rip), %rbx
	.loc 2 69 15
	leaq	.LC25(%rip), %rdi
	call	gettext@PLT
	.loc 2 69 7
	movq	%rbx, %rsi
	movq	%rax, %rdi
	movl	$0, %eax
	call	printf@PLT
	.loc 2 73 7
	movq	stdout(%rip), %rbx
	leaq	.LC26(%rip), %rdi
	call	gettext@PLT
	movq	%rbx, %rsi
	movq	%rax, %rdi
	call	fputs_unlocked@PLT
	.loc 2 77 7
	call	emit_stdin_note
	.loc 2 78 7
	call	emit_mandatory_arg_note
	.loc 2 80 7
	movq	stdout(%rip), %rbx
	leaq	.LC27(%rip), %rdi
	call	gettext@PLT
	movq	%rbx, %rsi
	movq	%rax, %rdi
	call	fputs_unlocked@PLT
	.loc 2 84 7
	call	emit_tab_list_info@PLT
	.loc 2 85 7
	movq	stdout(%rip), %rbx
	leaq	.LC28(%rip), %rdi
	call	gettext@PLT
	movq	%rbx, %rsi
	movq	%rax, %rdi
	call	fputs_unlocked@PLT
	.loc 2 86 7
	movq	stdout(%rip), %rbx
	leaq	.LC29(%rip), %rdi
	call	gettext@PLT
	movq	%rbx, %rsi
	movq	%rax, %rdi
	call	fputs_unlocked@PLT
	.loc 2 87 7
	leaq	.LC30(%rip), %rdi
	call	emit_ancillary_info
.L14:
	.loc 2 89 3
	movl	-20(%rbp), %eax
	movl	%eax, %edi
	call	exit@PLT
	.cfi_endproc
.LFE46:
	.size	usage, .-usage
	.section	.rodata
.LC31:
	.string	"input line is too long"
.LC32:
	.string	"write error"
	.text
	.type	expand, @function
expand:
.LFB47:
	.loc 2 98 1
	.cfi_startproc
	endbr64
	pushq	%rbp
	.cfi_def_cfa_offset 16
	.cfi_offset 6, -16
	movq	%rsp, %rbp
	.cfi_def_cfa_register 6
	pushq	%rbx
	subq	$56, %rsp
	.cfi_offset 3, -24
	.loc 2 98 1
	movq	%fs:40, %rax
	movq	%rax, -24(%rbp)
	xorl	%eax, %eax
	.loc 2 100 14
	movl	$0, %edi
	call	next_file@PLT
	movq	%rax, -48(%rbp)
	.loc 2 102 6
	cmpq	$0, -48(%rbp)
	je	.L36
.L16:
.LBB2:
	.loc 2 111 12
	movb	$1, -61(%rbp)
	.loc 2 118 17
	movq	$0, -40(%rbp)
	.loc 2 121 14
	movq	$0, -56(%rbp)
	.loc 2 128 17
	jmp	.L18
.L20:
	.loc 2 129 13
	nop
.L18:
	.loc 2 128 23
	movq	-48(%rbp), %rax
	movq	%rax, %rdi
	call	getc_unlocked@PLT
	movl	%eax, -60(%rbp)
	.loc 2 128 17
	cmpl	$0, -60(%rbp)
	jns	.L19
	.loc 2 128 47 discriminator 1
	movq	-48(%rbp), %rax
	movq	%rax, %rdi
	call	next_file@PLT
	movq	%rax, -48(%rbp)
	.loc 2 128 38 discriminator 1
	cmpq	$0, -48(%rbp)
	jne	.L20
.L19:
	.loc 2 131 14
	cmpb	$0, -61(%rbp)
	je	.L21
	.loc 2 133 18
	cmpl	$9, -60(%rbp)
	jne	.L22
.LBB3:
	.loc 2 137 24
	movb	$0, -62(%rbp)
	.loc 2 139 37
	leaq	-62(%rbp), %rdx
	leaq	-56(%rbp), %rcx
	movq	-40(%rbp), %rax
	movq	%rcx, %rsi
	movq	%rax, %rdi
	call	get_next_tab_column@PLT
	movq	%rax, -32(%rbp)
	.loc 2 142 23
	movzbl	-62(%rbp), %eax
	.loc 2 142 22
	testb	%al, %al
	je	.L23
	.loc 2 143 37
	movq	-40(%rbp), %rax
	addq	$1, %rax
	movq	%rax, -32(%rbp)
.L23:
	.loc 2 145 22
	movq	-32(%rbp), %rax
	cmpq	-40(%rbp), %rax
	jnb	.L25
.LBB4:
	.loc 2 146 21
	leaq	.LC31(%rip), %rdi
	call	gettext@PLT
	movq	%rax, %rdx
	movl	$0, %esi
	movl	$1, %edi
	movl	$0, %eax
	call	error@PLT
.L26:
.LBE4:
	.loc 2 149 25
	movl	$32, %edi
	call	putchar_unlocked@PLT
	.loc 2 149 24
	testl	%eax, %eax
	jns	.L25
.LBB5:
	.loc 2 150 23
	leaq	.LC32(%rip), %rdi
	call	gettext@PLT
	movq	%rax, %rbx
	call	__errno_location@PLT
	movl	(%rax), %eax
	movq	%rbx, %rdx
	movl	%eax, %esi
	movl	$1, %edi
	movl	$0, %eax
	call	error@PLT
.L25:
.LBE5:
	.loc 2 148 25
	addq	$1, -40(%rbp)
	movq	-40(%rbp), %rax
	cmpq	-32(%rbp), %rax
	jb	.L26
	.loc 2 152 21
	movl	$32, -60(%rbp)
.LBE3:
	jmp	.L27
.L22:
	.loc 2 154 23
	cmpl	$8, -60(%rbp)
	jne	.L28
	.loc 2 158 29
	cmpq	$0, -40(%rbp)
	setne	%al
	movzbl	%al, %eax
	.loc 2 158 26
	subq	%rax, -40(%rbp)
	.loc 2 159 29
	movq	-56(%rbp), %rdx
	.loc 2 159 32
	movq	-56(%rbp), %rax
	testq	%rax, %rax
	setne	%al
	movzbl	%al, %eax
	.loc 2 159 29
	subq	%rax, %rdx
	movq	%rdx, %rax
	movq	%rax, -56(%rbp)
	jmp	.L27
.L28:
	.loc 2 163 25
	addq	$1, -40(%rbp)
	.loc 2 164 22
	cmpq	$0, -40(%rbp)
	jne	.L27
.LBB6:
	.loc 2 165 21
	leaq	.LC31(%rip), %rdi
	call	gettext@PLT
	movq	%rax, %rdx
	movl	$0, %esi
	movl	$1, %edi
	movl	$0, %eax
	call	error@PLT
.L27:
.LBE6:
	.loc 2 168 23
	movzbl	-61(%rbp), %ebx
	.loc 2 168 26
	movzbl	convert_entire_line(%rip), %eax
	.loc 2 168 46
	testb	%al, %al
	jne	.L29
	.loc 2 168 52 discriminator 2
	call	__ctype_b_loc@PLT
	movq	(%rax), %rax
	movl	-60(%rbp), %edx
	movslq	%edx, %rdx
	addq	%rdx, %rdx
	addq	%rdx, %rax
	movzwl	(%rax), %eax
	movzwl	%ax, %eax
	andl	$1, %eax
	.loc 2 168 46 discriminator 2
	testl	%eax, %eax
	je	.L30
.L29:
	.loc 2 168 46 is_stmt 0 discriminator 3
	movl	$1, %eax
	jmp	.L31
.L30:
	.loc 2 168 46 discriminator 4
	movl	$0, %eax
.L31:
	.loc 2 168 23 is_stmt 1 discriminator 6
	andl	%ebx, %eax
	testl	%eax, %eax
	setne	%al
	movb	%al, -61(%rbp)
.L21:
	.loc 2 171 14
	cmpl	$0, -60(%rbp)
	js	.L37
	.loc 2 174 15
	movl	-60(%rbp), %eax
	movl	%eax, %edi
	call	putchar_unlocked@PLT
	.loc 2 174 14
	testl	%eax, %eax
	jns	.L33
.LBB7:
	.loc 2 175 13
	leaq	.LC32(%rip), %rdi
	call	gettext@PLT
	movq	%rax, %rbx
	call	__errno_location@PLT
	movl	(%rax), %eax
	movq	%rbx, %rdx
	movl	%eax, %esi
	movl	$1, %edi
	movl	$0, %eax
	call	error@PLT
.L33:
.LBE7:
	.loc 2 177 7
	cmpl	$10, -60(%rbp)
	jne	.L18
.LBE2:
	.loc 2 106 5
	jmp	.L16
.L36:
	.loc 2 103 5
	nop
	jmp	.L15
.L37:
.LBB8:
	.loc 2 172 13
	nop
.L15:
.LBE8:
	.loc 2 179 1
	movq	-24(%rbp), %rax
	xorq	%fs:40, %rax
	je	.L35
	call	__stack_chk_fail@PLT
.L35:
	addq	$56, %rsp
	popq	%rbx
	popq	%rbp
	.cfi_def_cfa 7, 8
	ret
	.cfi_endproc
.LFE47:
	.size	expand, .-expand
	.section	.rodata
.LC33:
	.string	"/usr/local/share/locale"
.LC34:
	.string	"David MacKenzie"
	.text
	.globl	main
	.type	main, @function
main:
.LFB48:
	.loc 2 183 1
	.cfi_startproc
	endbr64
	pushq	%rbp
	.cfi_def_cfa_offset 16
	.cfi_offset 6, -16
	movq	%rsp, %rbp
	.cfi_def_cfa_register 6
	subq	$32, %rsp
	movl	%edi, -20(%rbp)
	movq	%rsi, -32(%rbp)
	.loc 2 183 1
	movq	%fs:40, %rax
	movq	%rax, -8(%rbp)
	xorl	%eax, %eax
	.loc 2 187 3
	movq	-32(%rbp), %rax
	movq	(%rax), %rax
	movq	%rax, %rdi
	call	set_program_name@PLT
	.loc 2 188 3
	leaq	.LC18(%rip), %rsi
	movl	$6, %edi
	call	setlocale@PLT
	.loc 2 189 3
	leaq	.LC33(%rip), %rsi
	leaq	.LC4(%rip), %rdi
	call	bindtextdomain@PLT
	.loc 2 190 3
	leaq	.LC4(%rip), %rdi
	call	textdomain@PLT
	.loc 2 192 3
	movq	close_stdout@GOTPCREL(%rip), %rax
	movq	%rax, %rdi
	call	atexit@PLT
	.loc 2 193 23
	movb	$1, convert_entire_line(%rip)
	.loc 2 195 9
	jmp	.L39
.L48:
	.loc 2 197 7
	cmpl	$116, -16(%rbp)
	je	.L40
	cmpl	$116, -16(%rbp)
	jg	.L41
	cmpl	$105, -16(%rbp)
	je	.L42
	cmpl	$105, -16(%rbp)
	jg	.L41
	cmpl	$57, -16(%rbp)
	jg	.L41
	cmpl	$48, -16(%rbp)
	jge	.L43
	cmpl	$-131, -16(%rbp)
	je	.L44
	cmpl	$-130, -16(%rbp)
	je	.L45
	jmp	.L41
.L42:
	.loc 2 200 31
	movb	$0, convert_entire_line(%rip)
	.loc 2 201 11
	jmp	.L39
.L40:
	.loc 2 204 11
	movq	optarg(%rip), %rax
	movq	%rax, %rdi
	call	parse_tab_stops@PLT
	.loc 2 205 11
	jmp	.L39
.L43:
	.loc 2 209 15
	movq	optarg(%rip), %rax
	.loc 2 209 14
	testq	%rax, %rax
	je	.L46
	.loc 2 210 13
	movq	optarg(%rip), %rax
	.loc 2 210 37
	subq	$1, %rax
	.loc 2 210 13
	movq	%rax, %rdi
	call	parse_tab_stops@PLT
	jmp	.L39
.L46:
.LBB9:
	.loc 2 214 27
	movl	-16(%rbp), %eax
	movb	%al, -10(%rbp)
	.loc 2 215 27
	movb	$0, -9(%rbp)
	.loc 2 216 15
	leaq	-10(%rbp), %rax
	movq	%rax, %rdi
	call	parse_tab_stops@PLT
.LBE9:
	.loc 2 218 11
	jmp	.L39
.L45:
	.loc 2 220 9
	movl	$0, %edi
	call	usage
.L44:
	.loc 2 222 9
	movq	Version(%rip), %rdx
	movq	stdout(%rip), %rax
	movl	$0, %r9d
	leaq	.LC34(%rip), %r8
	movq	%rdx, %rcx
	leaq	.LC13(%rip), %rdx
	leaq	.LC30(%rip), %rsi
	movq	%rax, %rdi
	movl	$0, %eax
	call	version_etc@PLT
	movl	$0, %edi
	call	exit@PLT
.L41:
	.loc 2 225 11
	movl	$1, %edi
	call	usage
.L39:
	.loc 2 195 15
	movq	-32(%rbp), %rsi
	movl	-20(%rbp), %eax
	movl	$0, %r8d
	leaq	longopts(%rip), %rcx
	leaq	shortopts(%rip), %rdx
	movl	%eax, %edi
	call	getopt_long@PLT
	movl	%eax, -16(%rbp)
	.loc 2 195 9
	cmpl	$-1, -16(%rbp)
	jne	.L48
	.loc 2 229 3
	call	finalize_tab_stops@PLT
	.loc 2 231 27
	movl	optind(%rip), %eax
	.loc 2 231 3
	cmpl	%eax, -20(%rbp)
	jle	.L49
	.loc 2 231 42 discriminator 1
	movl	optind(%rip), %eax
	cltq
	leaq	0(,%rax,8), %rdx
	.loc 2 231 3 discriminator 1
	movq	-32(%rbp), %rax
	addq	%rdx, %rax
	jmp	.L50
.L49:
	.loc 2 231 3 is_stmt 0 discriminator 2
	movl	$0, %eax
.L50:
	.loc 2 231 3 discriminator 4
	movq	%rax, %rdi
	call	set_file_list@PLT
	.loc 2 233 3 is_stmt 1 discriminator 4
	call	expand
	.loc 2 235 3 discriminator 4
	call	cleanup_file_list_stdin@PLT
	.loc 2 237 10 discriminator 4
	movl	exit_status(%rip), %eax
	.loc 2 238 1 discriminator 4
	movq	-8(%rbp), %rcx
	xorq	%fs:40, %rcx
	je	.L52
	.loc 2 238 1 is_stmt 0
	call	__stack_chk_fail@PLT
.L52:
	leave
	.cfi_def_cfa 7, 8
	ret
	.cfi_endproc
.LFE48:
	.size	main, .-main
.Letext0:
	.file 3 "/usr/lib/gcc/x86_64-linux-gnu/9/include/stddef.h"
	.file 4 "/usr/include/x86_64-linux-gnu/bits/types.h"
	.file 5 "/usr/include/x86_64-linux-gnu/bits/types/struct_FILE.h"
	.file 6 "/usr/include/x86_64-linux-gnu/bits/types/FILE.h"
	.file 7 "/usr/include/stdio.h"
	.file 8 "/usr/include/x86_64-linux-gnu/bits/sys_errlist.h"
	.file 9 "/usr/include/x86_64-linux-gnu/bits/types/time_t.h"
	.file 10 "./lib/sys/select.h"
	.file 11 "/usr/include/x86_64-linux-gnu/bits/getopt_core.h"
	.file 12 "/usr/include/x86_64-linux-gnu/bits/getopt_ext.h"
	.file 13 "/usr/include/time.h"
	.file 14 "/usr/include/signal.h"
	.file 15 "/usr/include/unistd.h"
	.file 16 "/usr/include/errno.h"
	.file 17 "src/version.h"
	.file 18 "./lib/exitfail.h"
	.file 19 "/usr/include/stdint.h"
	.file 20 "./lib/timespec.h"
	.file 21 "/usr/include/ctype.h"
	.file 22 "./lib/version-etc.h"
	.file 23 "./lib/progname.h"
	.file 24 "./lib/quotearg.h"
	.file 25 "./lib/error.h"
	.file 26 "src/expand-common.h"
	.section	.note.GNU-stack,"",@progbits
	.section	.note.gnu.property,"a"
	.align 8
	.long	 1f - 0f
	.long	 4f - 1f
	.long	 5
0:
	.string	 "GNU"
1:
	.align 8
	.long	 0xc0000002
	.long	 3f - 2f
2:
	.long	 0x3
3:
	.align 8
4:
