	.file	"find-mount-point.c"
	.text
.Ltext0:
	.section	.rodata
.LC0:
	.string	"cannot get current directory"
.LC1:
	.string	"cannot change to directory %s"
.LC2:
	.string	"."
	.align 8
.LC3:
	.string	"cannot stat current directory (now %s)"
.LC4:
	.string	".."
.LC5:
	.string	"cannot stat %s"
	.align 8
.LC6:
	.string	"failed to return to initial working directory"
	.text
	.globl	find_mount_point
	.type	find_mount_point, @function
find_mount_point:
.LFB46:
	.file 1 "src/find-mount-point.c"
	.loc 1 33 1
	.cfi_startproc
	endbr64
	pushq	%rbp
	.cfi_def_cfa_offset 16
	.cfi_offset 6, -16
	movq	%rsp, %rbp
	.cfi_def_cfa_register 6
	pushq	%r12
	pushq	%rbx
	subq	$400, %rsp
	.cfi_offset 12, -24
	.cfi_offset 3, -32
	movq	%rdi, -408(%rbp)
	movq	%rsi, -416(%rbp)
	.loc 1 33 1
	movq	%fs:40, %rax
	movq	%rax, -24(%rbp)
	xorl	%eax, %eax
	.loc 1 36 9
	movq	$0, -384(%rbp)
	.loc 1 38 7
	leaq	-336(%rbp), %rax
	movq	%rax, %rdi
	call	save_cwd@PLT
	.loc 1 38 6
	testl	%eax, %eax
	je	.L2
	.loc 1 40 24
	leaq	.LC0(%rip), %rdi
	call	gettext@PLT
	movq	%rax, %rbx
	.loc 1 40 17
	call	__errno_location@PLT
	.loc 1 40 7
	movl	(%rax), %eax
	movq	%rbx, %rdx
	movl	%eax, %esi
	movl	$0, %edi
	movl	$0, %eax
	call	error@PLT
	.loc 1 41 14
	movl	$0, %eax
	jmp	.L17
.L2:
	.loc 1 44 7
	movq	-416(%rbp), %rax
	movl	24(%rax), %eax
	andl	$61440, %eax
	.loc 1 44 6
	cmpl	$16384, %eax
	jne	.L4
	.loc 1 47 17
	movq	-416(%rbp), %rax
	movq	(%rax), %rcx
	movq	8(%rax), %rbx
	movq	%rcx, -320(%rbp)
	movq	%rbx, -312(%rbp)
	movq	16(%rax), %rcx
	movq	24(%rax), %rbx
	movq	%rcx, -304(%rbp)
	movq	%rbx, -296(%rbp)
	movq	32(%rax), %rcx
	movq	40(%rax), %rbx
	movq	%rcx, -288(%rbp)
	movq	%rbx, -280(%rbp)
	movq	48(%rax), %rcx
	movq	56(%rax), %rbx
	movq	%rcx, -272(%rbp)
	movq	%rbx, -264(%rbp)
	movq	64(%rax), %rcx
	movq	72(%rax), %rbx
	movq	%rcx, -256(%rbp)
	movq	%rbx, -248(%rbp)
	movq	80(%rax), %rcx
	movq	88(%rax), %rbx
	movq	%rcx, -240(%rbp)
	movq	%rbx, -232(%rbp)
	movq	96(%rax), %rcx
	movq	104(%rax), %rbx
	movq	%rcx, -224(%rbp)
	movq	%rbx, -216(%rbp)
	movq	112(%rax), %rcx
	movq	120(%rax), %rbx
	movq	%rcx, -208(%rbp)
	movq	%rbx, -200(%rbp)
	movq	136(%rax), %rdx
	movq	128(%rax), %rax
	movq	%rax, -192(%rbp)
	movq	%rdx, -184(%rbp)
	.loc 1 48 11
	movq	-408(%rbp), %rax
	movq	%rax, %rdi
	call	chdir@PLT
	.loc 1 48 10
	testl	%eax, %eax
	jns	.L15
	.loc 1 50 11
	movq	-408(%rbp), %rax
	movq	%rax, %rsi
	movl	$4, %edi
	call	quotearg_style@PLT
	movq	%rax, %r12
	.loc 1 50 28
	leaq	.LC1(%rip), %rdi
	call	gettext@PLT
	movq	%rax, %rbx
	.loc 1 50 21
	call	__errno_location@PLT
	.loc 1 50 11
	movl	(%rax), %eax
	movq	%r12, %rcx
	movq	%rbx, %rdx
	movl	%eax, %esi
	movl	$0, %edi
	movl	$0, %eax
	call	error@PLT
	.loc 1 51 18
	movl	$0, %eax
	jmp	.L17
.L4:
.LBB2:
	.loc 1 57 20
	movq	-408(%rbp), %rax
	movq	%rax, %rdi
	call	dir_name@PLT
	movq	%rax, -376(%rbp)
.LBB3:
	.loc 1 59 7
	movq	-376(%rbp), %rax
	movq	%rax, -368(%rbp)
	movq	-368(%rbp), %rax
	movq	%rax, %rdi
	call	strlen@PLT
	addq	$1, %rax
	movq	%rax, -360(%rbp)
	movq	-360(%rbp), %rax
	leaq	8(%rax), %rdx
	movl	$16, %eax
	subq	$1, %rax
	addq	%rdx, %rax
	movl	$16, %esi
	movl	$0, %edx
	divq	%rsi
	imulq	$16, %rax, %rax
	movq	%rax, %rdx
	andq	$-4096, %rdx
	movq	%rsp, %rbx
	subq	%rdx, %rbx
	movq	%rbx, %rdx
.L6:
	cmpq	%rdx, %rsp
	je	.L7
	subq	$4096, %rsp
	orq	$0, 4088(%rsp)
	jmp	.L6
.L7:
	movq	%rax, %rdx
	andl	$4095, %edx
	subq	%rdx, %rsp
	movq	%rax, %rdx
	andl	$4095, %edx
	testq	%rdx, %rdx
	je	.L8
	andl	$4095, %eax
	subq	$8, %rax
	addq	%rsp, %rax
	orq	$0, (%rax)
.L8:
	movq	%rsp, %rax
	addq	$15, %rax
	shrq	$4, %rax
	salq	$4, %rax
	movq	%rax, -352(%rbp)
	movq	-360(%rbp), %rdx
	movq	-368(%rbp), %rcx
	movq	-352(%rbp), %rax
	movq	%rcx, %rsi
	movq	%rax, %rdi
	call	memcpy@PLT
.LBE3:
	movq	%rax, -344(%rbp)
	.loc 1 60 7
	movq	-376(%rbp), %rax
	movq	%rax, %rdi
	call	free@PLT
	.loc 1 62 11
	movq	-344(%rbp), %rax
	movq	%rax, %rdi
	call	chdir@PLT
	.loc 1 62 10
	testl	%eax, %eax
	jns	.L9
	.loc 1 64 11
	movq	-344(%rbp), %rax
	movq	%rax, %rsi
	movl	$4, %edi
	call	quotearg_style@PLT
	movq	%rax, %r12
	.loc 1 64 28
	leaq	.LC1(%rip), %rdi
	call	gettext@PLT
	movq	%rax, %rbx
	.loc 1 64 21
	call	__errno_location@PLT
	.loc 1 64 11
	movl	(%rax), %eax
	movq	%r12, %rcx
	movq	%rbx, %rdx
	movl	%eax, %esi
	movl	$0, %edi
	movl	$0, %eax
	call	error@PLT
	.loc 1 65 18
	movl	$0, %eax
	jmp	.L17
.L9:
	.loc 1 68 11
	leaq	-320(%rbp), %rax
	movq	%rax, %rsi
	leaq	.LC2(%rip), %rdi
	call	stat@PLT
	.loc 1 68 10
	testl	%eax, %eax
	jns	.L15
	.loc 1 70 11
	movq	-344(%rbp), %rax
	movq	%rax, %rsi
	movl	$4, %edi
	call	quotearg_style@PLT
	movq	%rax, %r12
	.loc 1 70 28
	leaq	.LC3(%rip), %rdi
	call	gettext@PLT
	movq	%rax, %rbx
	.loc 1 70 21
	call	__errno_location@PLT
	.loc 1 70 11
	movl	(%rax), %eax
	movq	%r12, %rcx
	movq	%rbx, %rdx
	movl	%eax, %esi
	movl	$0, %edi
	movl	$0, %eax
	call	error@PLT
	.loc 1 72 11
	jmp	.L10
.L15:
.LBE2:
.LBB4:
	.loc 1 82 11
	leaq	-176(%rbp), %rax
	movq	%rax, %rsi
	leaq	.LC4(%rip), %rdi
	call	stat@PLT
	.loc 1 82 10
	testl	%eax, %eax
	jns	.L11
	.loc 1 84 11
	leaq	.LC4(%rip), %rsi
	movl	$4, %edi
	call	quotearg_style@PLT
	movq	%rax, %r12
	.loc 1 84 28
	leaq	.LC5(%rip), %rdi
	call	gettext@PLT
	movq	%rax, %rbx
	.loc 1 84 21
	call	__errno_location@PLT
	.loc 1 84 11
	movl	(%rax), %eax
	movq	%r12, %rcx
	movq	%rbx, %rdx
	movl	%eax, %esi
	movl	$0, %edi
	movl	$0, %eax
	call	error@PLT
	.loc 1 85 11
	jmp	.L10
.L11:
	.loc 1 87 13
	movq	-176(%rbp), %rdx
	.loc 1 87 33
	movq	-320(%rbp), %rax
	.loc 1 87 10
	cmpq	%rax, %rdx
	jne	.L13
	.loc 1 87 46 discriminator 1
	movq	-168(%rbp), %rdx
	.loc 1 87 66 discriminator 1
	movq	-312(%rbp), %rax
	.loc 1 87 41 discriminator 1
	cmpq	%rax, %rdx
	je	.L13
	.loc 1 90 11
	leaq	.LC4(%rip), %rdi
	call	chdir@PLT
	.loc 1 90 10
	testl	%eax, %eax
	jns	.L14
	.loc 1 92 11
	leaq	.LC4(%rip), %rsi
	movl	$4, %edi
	call	quotearg_style@PLT
	movq	%rax, %r12
	.loc 1 92 28
	leaq	.LC1(%rip), %rdi
	call	gettext@PLT
	movq	%rax, %rbx
	.loc 1 92 21
	call	__errno_location@PLT
	.loc 1 92 11
	movl	(%rax), %eax
	movq	%r12, %rcx
	movq	%rbx, %rdx
	movl	%eax, %esi
	movl	$0, %edi
	movl	$0, %eax
	call	error@PLT
	.loc 1 93 11
	jmp	.L10
.L14:
	.loc 1 95 17
	movq	-176(%rbp), %rax
	movq	-168(%rbp), %rdx
	movq	%rax, -320(%rbp)
	movq	%rdx, -312(%rbp)
	movq	-160(%rbp), %rax
	movq	-152(%rbp), %rdx
	movq	%rax, -304(%rbp)
	movq	%rdx, -296(%rbp)
	movq	-144(%rbp), %rax
	movq	-136(%rbp), %rdx
	movq	%rax, -288(%rbp)
	movq	%rdx, -280(%rbp)
	movq	-128(%rbp), %rax
	movq	-120(%rbp), %rdx
	movq	%rax, -272(%rbp)
	movq	%rdx, -264(%rbp)
	movq	-112(%rbp), %rax
	movq	-104(%rbp), %rdx
	movq	%rax, -256(%rbp)
	movq	%rdx, -248(%rbp)
	movq	-96(%rbp), %rax
	movq	-88(%rbp), %rdx
	movq	%rax, -240(%rbp)
	movq	%rdx, -232(%rbp)
	movq	-80(%rbp), %rax
	movq	-72(%rbp), %rdx
	movq	%rax, -224(%rbp)
	movq	%rdx, -216(%rbp)
	movq	-64(%rbp), %rax
	movq	-56(%rbp), %rdx
	movq	%rax, -208(%rbp)
	movq	%rdx, -200(%rbp)
	movq	-48(%rbp), %rax
	movq	-40(%rbp), %rdx
	movq	%rax, -192(%rbp)
	movq	%rdx, -184(%rbp)
.LBE4:
	.loc 1 80 5
	jmp	.L15
.L13:
	.loc 1 99 8
	call	xgetcwd@PLT
	movq	%rax, -384(%rbp)
.L10:
.LBB5:
	.loc 1 104 22
	call	__errno_location@PLT
	.loc 1 104 9
	movl	(%rax), %eax
	movl	%eax, -388(%rbp)
	.loc 1 105 9
	leaq	-336(%rbp), %rax
	movq	%rax, %rdi
	call	restore_cwd@PLT
	.loc 1 105 8
	testl	%eax, %eax
	je	.L16
.LBB6:
	.loc 1 106 7
	leaq	.LC6(%rip), %rdi
	call	gettext@PLT
	movq	%rax, %rbx
	call	__errno_location@PLT
	movl	(%rax), %eax
	movq	%rbx, %rdx
	movl	%eax, %esi
	movl	$1, %edi
	movl	$0, %eax
	call	error@PLT
.L16:
.LBE6:
	.loc 1 108 5
	leaq	-336(%rbp), %rax
	movq	%rax, %rdi
	call	free_cwd@PLT
	.loc 1 109 5
	call	__errno_location@PLT
	.loc 1 109 11
	movl	-388(%rbp), %edx
	movl	%edx, (%rax)
.LBE5:
	.loc 1 112 10
	movq	-384(%rbp), %rax
.L17:
	.loc 1 113 1 discriminator 2
	movq	-24(%rbp), %rsi
	xorq	%fs:40, %rsi
	je	.L18
	.loc 1 113 1 is_stmt 0
	call	__stack_chk_fail@PLT
.L18:
	leaq	-16(%rbp), %rsp
	popq	%rbx
	popq	%r12
	popq	%rbp
	.cfi_def_cfa 7, 8
	ret
	.cfi_endproc
.LFE46:
	.size	find_mount_point, .-find_mount_point
.Letext0:
	.file 2 "/usr/include/x86_64-linux-gnu/bits/types.h"
	.file 3 "/usr/lib/gcc/x86_64-linux-gnu/9/include/stddef.h"
	.file 4 "/usr/include/x86_64-linux-gnu/bits/types/struct_timespec.h"
	.file 5 "./lib/sys/select.h"
	.file 6 "/usr/include/time.h"
	.file 7 "/usr/include/x86_64-linux-gnu/bits/stat.h"
	.file 8 "/usr/include/signal.h"
	.file 9 "/usr/include/unistd.h"
	.file 10 "/usr/include/x86_64-linux-gnu/bits/getopt_core.h"
	.file 11 "/usr/include/errno.h"
	.file 12 "src/version.h"
	.file 13 "./lib/exitfail.h"
	.file 14 "/usr/include/x86_64-linux-gnu/bits/types/struct_FILE.h"
	.file 15 "/usr/include/x86_64-linux-gnu/bits/types/FILE.h"
	.file 16 "/usr/include/stdio.h"
	.file 17 "/usr/include/x86_64-linux-gnu/bits/sys_errlist.h"
	.file 18 "./lib/version-etc.h"
	.file 19 "./lib/progname.h"
	.file 20 "./lib/quotearg.h"
	.file 21 "./lib/error.h"
	.file 22 "./lib/save-cwd.h"
	.section	.note.GNU-stack,"",@progbits
	.section	.note.gnu.property,"a"
	.align 8
	.long	 1f - 0f
	.long	 4f - 1f
	.long	 5
0:
	.string	 "GNU"
1:
	.align 8
	.long	 0xc0000002
	.long	 3f - 2f
2:
	.long	 0x3
3:
	.align 8
4:
