	.file	"id.c"
	.text
.Ltext0:
	.section	.rodata
.LC0:
	.string	"["
.LC1:
	.string	"test invocation"
.LC2:
	.string	"coreutils"
.LC3:
	.string	"Multi-call invocation"
.LC4:
	.string	"sha224sum"
.LC5:
	.string	"sha2 utilities"
.LC6:
	.string	"sha256sum"
.LC7:
	.string	"sha384sum"
.LC8:
	.string	"sha512sum"
.LC9:
	.string	"\n%s online help: <%s>\n"
	.align 8
.LC10:
	.string	"https://www.gnu.org/software/coreutils/"
.LC11:
	.string	"GNU coreutils"
.LC12:
	.string	"en_"
	.align 8
.LC13:
	.string	"Report any translation bugs to <https://translationproject.org/team/>\n"
.LC14:
	.string	"Full documentation <%s%s>\n"
.LC15:
	.string	" invocation"
.LC16:
	.string	""
	.align 8
.LC17:
	.string	"or available locally via: info '(coreutils) %s%s'\n"
	.text
	.type	emit_ancillary_info, @function
emit_ancillary_info:
.LFB40:
	.file 1 "src/system.h"
	.loc 1 635 1
	.cfi_startproc
	pushq	%rbp
	.cfi_def_cfa_offset 16
	.cfi_offset 6, -16
	movq	%rsp, %rbp
	.cfi_def_cfa_register 6
	pushq	%rbx
	subq	$184, %rsp
	.cfi_offset 3, -24
	movq	%rdi, -184(%rbp)
	.loc 1 635 1
	movq	%fs:40, %rax
	movq	%rax, -24(%rbp)
	xorl	%eax, %eax
	.loc 1 636 67
	leaq	.LC0(%rip), %rax
	movq	%rax, -144(%rbp)
	leaq	.LC1(%rip), %rax
	movq	%rax, -136(%rbp)
	leaq	.LC2(%rip), %rax
	movq	%rax, -128(%rbp)
	leaq	.LC3(%rip), %rax
	movq	%rax, -120(%rbp)
	leaq	.LC4(%rip), %rax
	movq	%rax, -112(%rbp)
	leaq	.LC5(%rip), %rax
	movq	%rax, -104(%rbp)
	leaq	.LC6(%rip), %rax
	movq	%rax, -96(%rbp)
	leaq	.LC5(%rip), %rax
	movq	%rax, -88(%rbp)
	leaq	.LC7(%rip), %rax
	movq	%rax, -80(%rbp)
	leaq	.LC5(%rip), %rax
	movq	%rax, -72(%rbp)
	leaq	.LC8(%rip), %rax
	movq	%rax, -64(%rbp)
	leaq	.LC5(%rip), %rax
	movq	%rax, -56(%rbp)
	movq	$0, -48(%rbp)
	movq	$0, -40(%rbp)
	.loc 1 646 15
	movq	-184(%rbp), %rax
	movq	%rax, -168(%rbp)
	.loc 1 647 25
	leaq	-144(%rbp), %rax
	movq	%rax, -160(%rbp)
	.loc 1 649 9
	jmp	.L2
.L4:
	.loc 1 650 13
	addq	$16, -160(%rbp)
.L2:
	.loc 1 649 18
	movq	-160(%rbp), %rax
	movq	(%rax), %rax
	.loc 1 649 9
	testq	%rax, %rax
	je	.L3
	.loc 1 649 33 discriminator 1
	movq	-160(%rbp), %rax
	movq	(%rax), %rdx
	movq	-184(%rbp), %rax
	movq	%rdx, %rsi
	movq	%rax, %rdi
	call	strcmp@PLT
	.loc 1 649 28 discriminator 1
	testl	%eax, %eax
	jne	.L4
.L3:
	.loc 1 652 15
	movq	-160(%rbp), %rax
	movq	8(%rax), %rax
	.loc 1 652 6
	testq	%rax, %rax
	je	.L5
	.loc 1 653 10
	movq	-160(%rbp), %rax
	movq	8(%rax), %rax
	movq	%rax, -168(%rbp)
.L5:
	.loc 1 655 11
	leaq	.LC9(%rip), %rdi
	call	gettext@PLT
	.loc 1 655 3
	leaq	.LC10(%rip), %rdx
	leaq	.LC11(%rip), %rsi
	movq	%rax, %rdi
	movl	$0, %eax
	call	printf@PLT
	.loc 1 659 29
	movl	$0, %esi
	movl	$5, %edi
	call	setlocale@PLT
	movq	%rax, -152(%rbp)
	.loc 1 660 6
	cmpq	$0, -152(%rbp)
	je	.L6
	.loc 1 660 22 discriminator 1
	movq	-152(%rbp), %rax
	movl	$3, %edx
	leaq	.LC12(%rip), %rsi
	movq	%rax, %rdi
	call	strncmp@PLT
	.loc 1 660 19 discriminator 1
	testl	%eax, %eax
	je	.L6
	.loc 1 666 7
	movq	stdout(%rip), %rbx
	leaq	.LC13(%rip), %rdi
	call	gettext@PLT
	movq	%rbx, %rsi
	movq	%rax, %rdi
	call	fputs_unlocked@PLT
.L6:
	.loc 1 669 11
	leaq	.LC14(%rip), %rdi
	call	gettext@PLT
	movq	%rax, %rcx
	.loc 1 669 3
	movq	-184(%rbp), %rax
	movq	%rax, %rdx
	leaq	.LC10(%rip), %rsi
	movq	%rcx, %rdi
	movl	$0, %eax
	call	printf@PLT
	.loc 1 671 3
	movq	-168(%rbp), %rax
	cmpq	-184(%rbp), %rax
	jne	.L7
	.loc 1 671 3 is_stmt 0 discriminator 1
	leaq	.LC15(%rip), %rbx
	jmp	.L8
.L7:
	.loc 1 671 3 discriminator 2
	leaq	.LC16(%rip), %rbx
.L8:
	.loc 1 671 11 is_stmt 1 discriminator 4
	leaq	.LC17(%rip), %rdi
	call	gettext@PLT
	movq	%rax, %rcx
	.loc 1 671 3 discriminator 4
	movq	-168(%rbp), %rax
	movq	%rbx, %rdx
	movq	%rax, %rsi
	movq	%rcx, %rdi
	movl	$0, %eax
	call	printf@PLT
	.loc 1 673 1 discriminator 4
	nop
	movq	-24(%rbp), %rax
	xorq	%fs:40, %rax
	je	.L9
	.loc 1 673 1 is_stmt 0
	call	__stack_chk_fail@PLT
.L9:
	addq	$184, %rsp
	popq	%rbx
	popq	%rbp
	.cfi_def_cfa 7, 8
	ret
	.cfi_endproc
.LFE40:
	.size	emit_ancillary_info, .-emit_ancillary_info
	.type	smack_new_label_from_self, @function
smack_new_label_from_self:
.LFB46:
	.file 2 "./lib/smack.h"
	.loc 2 27 1 is_stmt 1
	.cfi_startproc
	pushq	%rbp
	.cfi_def_cfa_offset 16
	.cfi_offset 6, -16
	movq	%rsp, %rbp
	.cfi_def_cfa_register 6
	movq	%rdi, -8(%rbp)
	.loc 2 28 10
	movq	$-1, %rax
	.loc 2 29 1
	popq	%rbp
	.cfi_def_cfa 7, 8
	ret
	.cfi_endproc
.LFE46:
	.size	smack_new_label_from_self, .-smack_new_label_from_self
	.type	is_smack_enabled, @function
is_smack_enabled:
.LFB48:
	.loc 2 40 1
	.cfi_startproc
	pushq	%rbp
	.cfi_def_cfa_offset 16
	.cfi_offset 6, -16
	movq	%rsp, %rbp
	.cfi_def_cfa_register 6
	.loc 2 44 10
	movl	$0, %eax
	.loc 2 46 1
	popq	%rbp
	.cfi_def_cfa 7, 8
	ret
	.cfi_endproc
.LFE48:
	.size	is_smack_enabled, .-is_smack_enabled
	.local	just_context
	.comm	just_context,1,1
	.local	opt_zero
	.comm	opt_zero,1,1
	.local	just_group_list
	.comm	just_group_list,1,1
	.local	just_group
	.comm	just_group,1,1
	.local	use_real
	.comm	use_real,1,1
	.local	just_user
	.comm	just_user,1,1
	.data
	.type	ok, @object
	.size	ok, 1
ok:
	.byte	1
	.local	multiple_users
	.comm	multiple_users,1,1
	.local	use_name
	.comm	use_name,1,1
	.local	ruid
	.comm	ruid,4,4
	.local	euid
	.comm	euid,4,4
	.local	rgid
	.comm	rgid,4,4
	.local	egid
	.comm	egid,4,4
	.local	context
	.comm	context,8,8
	.section	.rodata
.LC18:
	.string	"context"
.LC19:
	.string	"group"
.LC20:
	.string	"groups"
.LC21:
	.string	"name"
.LC22:
	.string	"real"
.LC23:
	.string	"user"
.LC24:
	.string	"zero"
.LC25:
	.string	"help"
.LC26:
	.string	"version"
	.section	.data.rel.ro.local,"aw"
	.align 32
	.type	longopts, @object
	.size	longopts, 320
longopts:
	.quad	.LC18
	.long	0
	.zero	4
	.quad	0
	.long	90
	.zero	4
	.quad	.LC19
	.long	0
	.zero	4
	.quad	0
	.long	103
	.zero	4
	.quad	.LC20
	.long	0
	.zero	4
	.quad	0
	.long	71
	.zero	4
	.quad	.LC21
	.long	0
	.zero	4
	.quad	0
	.long	110
	.zero	4
	.quad	.LC22
	.long	0
	.zero	4
	.quad	0
	.long	114
	.zero	4
	.quad	.LC23
	.long	0
	.zero	4
	.quad	0
	.long	117
	.zero	4
	.quad	.LC24
	.long	0
	.zero	4
	.quad	0
	.long	122
	.zero	4
	.quad	.LC25
	.long	0
	.zero	4
	.quad	0
	.long	-130
	.zero	4
	.quad	.LC26
	.long	0
	.zero	4
	.quad	0
	.long	-131
	.zero	4
	.quad	0
	.long	0
	.zero	4
	.quad	0
	.long	0
	.zero	4
	.section	.rodata
	.align 8
.LC27:
	.string	"Try '%s --help' for more information.\n"
	.align 8
.LC28:
	.string	"Usage: %s [OPTION]... [USER]...\n"
	.align 8
.LC29:
	.string	"Print user and group information for each specified USER,\nor (when USER omitted) for the current user.\n\n"
	.align 8
.LC30:
	.ascii	"  -a             ignore, for compatibility with other versio"
	.ascii	"ns\n  -Z, --context  print only the security context of the "
	.ascii	"process\n  -g, --group    print only the effective group ID\n"
	.ascii	"  -G, --groups   print all group IDs\n  -n, --name     print"
	.ascii	" a name instead of a number"
	.string	", for -ugG\n  -r, --real     print the real ID instead of the effective ID, with -ugG\n  -u, --user     print only the effective user ID\n  -z, --zero     delimit entries with NUL characters, not whitespace;\n                   not permitted in default format\n"
	.align 8
.LC31:
	.string	"      --help     display this help and exit\n"
	.align 8
.LC32:
	.string	"      --version  output version information and exit\n"
	.align 8
.LC33:
	.string	"\nWithout any OPTION, print some useful set of identified information.\n"
.LC34:
	.string	"id"
	.text
	.globl	usage
	.type	usage, @function
usage:
.LFB49:
	.file 3 "src/id.c"
	.loc 3 91 1
	.cfi_startproc
	endbr64
	pushq	%rbp
	.cfi_def_cfa_offset 16
	.cfi_offset 6, -16
	movq	%rsp, %rbp
	.cfi_def_cfa_register 6
	pushq	%rbx
	subq	$24, %rsp
	.cfi_offset 3, -24
	movl	%edi, -20(%rbp)
	.loc 3 92 6
	cmpl	$0, -20(%rbp)
	je	.L15
	.loc 3 93 5
	movq	program_name(%rip), %rbx
	leaq	.LC27(%rip), %rdi
	call	gettext@PLT
	movq	%rax, %rcx
	movq	stderr(%rip), %rax
	movq	%rbx, %rdx
	movq	%rcx, %rsi
	movq	%rax, %rdi
	movl	$0, %eax
	call	fprintf@PLT
	jmp	.L16
.L15:
	.loc 3 96 7
	movq	program_name(%rip), %rbx
	.loc 3 96 15
	leaq	.LC28(%rip), %rdi
	call	gettext@PLT
	.loc 3 96 7
	movq	%rbx, %rsi
	movq	%rax, %rdi
	movl	$0, %eax
	call	printf@PLT
	.loc 3 97 7
	movq	stdout(%rip), %rbx
	leaq	.LC29(%rip), %rdi
	call	gettext@PLT
	movq	%rbx, %rsi
	movq	%rax, %rdi
	call	fputs_unlocked@PLT
	.loc 3 102 7
	movq	stdout(%rip), %rbx
	leaq	.LC30(%rip), %rdi
	call	gettext@PLT
	movq	%rbx, %rsi
	movq	%rax, %rdi
	call	fputs_unlocked@PLT
	.loc 3 113 7
	movq	stdout(%rip), %rbx
	leaq	.LC31(%rip), %rdi
	call	gettext@PLT
	movq	%rbx, %rsi
	movq	%rax, %rdi
	call	fputs_unlocked@PLT
	.loc 3 114 7
	movq	stdout(%rip), %rbx
	leaq	.LC32(%rip), %rdi
	call	gettext@PLT
	movq	%rbx, %rsi
	movq	%rax, %rdi
	call	fputs_unlocked@PLT
	.loc 3 115 7
	movq	stdout(%rip), %rbx
	leaq	.LC33(%rip), %rdi
	call	gettext@PLT
	movq	%rbx, %rsi
	movq	%rax, %rdi
	call	fputs_unlocked@PLT
	.loc 3 119 7
	leaq	.LC34(%rip), %rdi
	call	emit_ancillary_info
.L16:
	.loc 3 121 3
	movl	-20(%rbp), %eax
	movl	%eax, %edi
	call	exit@PLT
	.cfi_endproc
.LFE49:
	.size	usage, .-usage
	.section	.rodata
.LC35:
	.string	"/usr/local/share/locale"
	.align 8
.LC36:
	.string	"--context (-Z) works only on an SELinux-enabled kernel"
.LC37:
	.string	"David MacKenzie"
.LC38:
	.string	"Arnold Robbins"
.LC39:
	.string	"agnruzGZ"
	.align 8
.LC40:
	.string	"cannot print security context when user specified"
	.align 8
.LC41:
	.string	"cannot print \"only\" of more than one choice"
	.align 8
.LC42:
	.string	"cannot print only names or real IDs in default format"
	.align 8
.LC43:
	.string	"option --zero not permitted in default format"
.LC44:
	.string	"POSIXLY_CORRECT"
.LC45:
	.string	"can't get process context"
.LC46:
	.string	"%s: no such user"
.LC47:
	.string	"cannot get effective UID"
.LC48:
	.string	"cannot get real UID"
.LC49:
	.string	"cannot get effective GID"
.LC50:
	.string	"cannot get real GID"
	.text
	.globl	main
	.type	main, @function
main:
.LFB50:
	.loc 3 126 1
	.cfi_startproc
	endbr64
	pushq	%rbp
	.cfi_def_cfa_offset 16
	.cfi_offset 6, -16
	movq	%rsp, %rbp
	.cfi_def_cfa_register 6
	pushq	%r12
	pushq	%rbx
	subq	$80, %rsp
	.cfi_offset 12, -24
	.cfi_offset 3, -32
	movl	%edi, -84(%rbp)
	movq	%rsi, -96(%rbp)
	.loc 3 128 26
	call	is_selinux_enabled@PLT
	.loc 3 128 48
	testl	%eax, %eax
	setg	%al
	.loc 3 128 7
	movzbl	%al, %eax
	movl	%eax, -64(%rbp)
	.loc 3 129 24
	call	is_smack_enabled
	movb	%al, -66(%rbp)
	.loc 3 130 9
	movq	$0, -40(%rbp)
	.loc 3 133 3
	movq	-96(%rbp), %rax
	movq	(%rax), %rax
	movq	%rax, %rdi
	call	set_program_name@PLT
	.loc 3 134 3
	leaq	.LC16(%rip), %rsi
	movl	$6, %edi
	call	setlocale@PLT
	.loc 3 135 3
	leaq	.LC35(%rip), %rsi
	leaq	.LC2(%rip), %rdi
	call	bindtextdomain@PLT
	.loc 3 136 3
	leaq	.LC2(%rip), %rdi
	call	textdomain@PLT
	.loc 3 138 3
	movq	close_stdout@GOTPCREL(%rip), %rax
	movq	%rax, %rdi
	call	atexit@PLT
	.loc 3 140 9
	jmp	.L18
.L33:
	.loc 3 142 7
	cmpl	$122, -60(%rbp)
	jg	.L19
	cmpl	$71, -60(%rbp)
	jge	.L20
	cmpl	$-131, -60(%rbp)
	je	.L21
	cmpl	$-130, -60(%rbp)
	je	.L22
	jmp	.L19
.L20:
	movl	-60(%rbp), %eax
	subl	$71, %eax
	cmpl	$51, %eax
	ja	.L19
	movl	%eax, %eax
	leaq	0(,%rax,4), %rdx
	leaq	.L24(%rip), %rax
	movl	(%rdx,%rax), %eax
	cltq
	leaq	.L24(%rip), %rdx
	addq	%rdx, %rax
	notrack jmp	*%rax
	.section	.rodata
	.align 4
	.align 4
.L24:
	.long	.L31-.L24
	.long	.L19-.L24
	.long	.L19-.L24
	.long	.L19-.L24
	.long	.L19-.L24
	.long	.L19-.L24
	.long	.L19-.L24
	.long	.L19-.L24
	.long	.L19-.L24
	.long	.L19-.L24
	.long	.L19-.L24
	.long	.L19-.L24
	.long	.L19-.L24
	.long	.L19-.L24
	.long	.L19-.L24
	.long	.L19-.L24
	.long	.L19-.L24
	.long	.L19-.L24
	.long	.L19-.L24
	.long	.L30-.L24
	.long	.L19-.L24
	.long	.L19-.L24
	.long	.L19-.L24
	.long	.L19-.L24
	.long	.L19-.L24
	.long	.L19-.L24
	.long	.L18-.L24
	.long	.L19-.L24
	.long	.L19-.L24
	.long	.L19-.L24
	.long	.L19-.L24
	.long	.L19-.L24
	.long	.L28-.L24
	.long	.L19-.L24
	.long	.L19-.L24
	.long	.L19-.L24
	.long	.L19-.L24
	.long	.L19-.L24
	.long	.L19-.L24
	.long	.L27-.L24
	.long	.L19-.L24
	.long	.L19-.L24
	.long	.L19-.L24
	.long	.L26-.L24
	.long	.L19-.L24
	.long	.L19-.L24
	.long	.L25-.L24
	.long	.L19-.L24
	.long	.L19-.L24
	.long	.L19-.L24
	.long	.L19-.L24
	.long	.L23-.L24
	.text
.L30:
	.loc 3 156 14
	cmpl	$0, -64(%rbp)
	jne	.L32
.LBB2:
	.loc 3 157 13
	leaq	.LC36(%rip), %rdi
	call	gettext@PLT
	movq	%rax, %rdx
	movl	$0, %esi
	movl	$1, %edi
	movl	$0, %eax
	call	error@PLT
.L32:
.LBE2:
	.loc 3 160 24
	movb	$1, just_context(%rip)
	.loc 3 161 11
	jmp	.L18
.L28:
	.loc 3 164 22
	movb	$1, just_group(%rip)
	.loc 3 165 11
	jmp	.L18
.L27:
	.loc 3 167 20
	movb	$1, use_name(%rip)
	.loc 3 168 11
	jmp	.L18
.L26:
	.loc 3 170 20
	movb	$1, use_real(%rip)
	.loc 3 171 11
	jmp	.L18
.L25:
	.loc 3 173 21
	movb	$1, just_user(%rip)
	.loc 3 174 11
	jmp	.L18
.L23:
	.loc 3 176 20
	movb	$1, opt_zero(%rip)
	.loc 3 177 11
	jmp	.L18
.L31:
	.loc 3 179 27
	movb	$1, just_group_list(%rip)
	.loc 3 180 11
	jmp	.L18
.L22:
	.loc 3 181 9
	movl	$0, %edi
	call	usage
.L21:
	.loc 3 182 9
	movq	Version(%rip), %rdx
	movq	stdout(%rip), %rax
	subq	$8, %rsp
	pushq	$0
	leaq	.LC37(%rip), %r9
	leaq	.LC38(%rip), %r8
	movq	%rdx, %rcx
	leaq	.LC11(%rip), %rdx
	leaq	.LC34(%rip), %rsi
	movq	%rax, %rdi
	movl	$0, %eax
	call	version_etc@PLT
	addq	$16, %rsp
	movl	$0, %edi
	call	exit@PLT
.L19:
	.loc 3 184 11
	movl	$1, %edi
	call	usage
.L18:
	.loc 3 140 18
	movq	-96(%rbp), %rsi
	movl	-84(%rbp), %eax
	movl	$0, %r8d
	leaq	longopts(%rip), %rcx
	leaq	.LC39(%rip), %rdx
	movl	%eax, %edi
	call	getopt_long@PLT
	movl	%eax, -60(%rbp)
	.loc 3 140 9
	cmpl	$-1, -60(%rbp)
	jne	.L33
	.loc 3 188 23
	movl	optind(%rip), %eax
	movl	-84(%rbp), %edx
	subl	%eax, %edx
	movl	%edx, %eax
	.loc 3 188 10
	cltq
	movq	%rax, -32(%rbp)
	.loc 3 190 6
	cmpq	$0, -32(%rbp)
	je	.L34
	.loc 3 190 13 discriminator 1
	movzbl	just_context(%rip), %eax
	testb	%al, %al
	je	.L34
.LBB3:
	.loc 3 191 5
	leaq	.LC40(%rip), %rdi
	call	gettext@PLT
	movq	%rax, %rdx
	movl	$0, %esi
	movl	$1, %edi
	movl	$0, %eax
	call	error@PLT
.L34:
.LBE3:
	.loc 3 194 17
	movzbl	just_user(%rip), %eax
	movzbl	%al, %edx
	movzbl	just_group(%rip), %eax
	movzbl	%al, %eax
	addl	%eax, %edx
	.loc 3 194 30
	movzbl	just_group_list(%rip), %eax
	movzbl	%al, %eax
	addl	%eax, %edx
	.loc 3 194 48
	movzbl	just_context(%rip), %eax
	movzbl	%al, %eax
	addl	%edx, %eax
	.loc 3 194 6
	cmpl	$1, %eax
	jle	.L35
.LBB4:
	.loc 3 195 5
	leaq	.LC41(%rip), %rdi
	call	gettext@PLT
	movq	%rax, %rdx
	movl	$0, %esi
	movl	$1, %edi
	movl	$0, %eax
	call	error@PLT
.L35:
.LBE4:
	.loc 3 197 28
	movzbl	just_user(%rip), %eax
	xorl	$1, %eax
	.loc 3 197 25
	testb	%al, %al
	je	.L36
	.loc 3 198 28
	movzbl	just_group(%rip), %eax
	xorl	$1, %eax
	testb	%al, %al
	je	.L36
	.loc 3 199 28
	movzbl	just_group_list(%rip), %eax
	xorl	$1, %eax
	testb	%al, %al
	je	.L36
	.loc 3 200 28 discriminator 3
	movzbl	just_context(%rip), %eax
	xorl	$1, %eax
	.loc 3 197 25 discriminator 3
	testb	%al, %al
	je	.L36
	.loc 3 197 25 is_stmt 0 discriminator 2
	movl	$1, %eax
	jmp	.L37
.L36:
	.loc 3 197 25 discriminator 1
	movl	$0, %eax
.L37:
	.loc 3 197 8 is_stmt 1 discriminator 5
	movb	%al, -65(%rbp)
	andb	$1, -65(%rbp)
	.loc 3 202 6 discriminator 5
	cmpb	$0, -65(%rbp)
	je	.L38
	.loc 3 202 26 discriminator 1
	movzbl	use_real(%rip), %eax
	.loc 3 202 22 discriminator 1
	testb	%al, %al
	jne	.L39
	.loc 3 202 35 discriminator 2
	movzbl	use_name(%rip), %eax
	testb	%al, %al
	je	.L38
.L39:
.LBB5:
	.loc 3 203 5
	leaq	.LC42(%rip), %rdi
	call	gettext@PLT
	movq	%rax, %rdx
	movl	$0, %esi
	movl	$1, %edi
	movl	$0, %eax
	call	error@PLT
.L38:
.LBE5:
	.loc 3 206 6
	cmpb	$0, -65(%rbp)
	je	.L40
	.loc 3 206 22 discriminator 1
	movzbl	opt_zero(%rip), %eax
	testb	%al, %al
	je	.L40
.LBB6:
	.loc 3 207 5
	leaq	.LC43(%rip), %rdi
	call	gettext@PLT
	movq	%rax, %rdx
	movl	$0, %esi
	movl	$1, %edi
	movl	$0, %eax
	call	error@PLT
.L40:
.LBE6:
	.loc 3 215 6
	cmpq	$0, -32(%rbp)
	jne	.L41
	.loc 3 216 11
	movzbl	just_context(%rip), %eax
	.loc 3 216 7
	testb	%al, %al
	jne	.L42
	.loc 3 217 11
	cmpb	$0, -65(%rbp)
	je	.L41
	.loc 3 217 35 discriminator 1
	leaq	.LC44(%rip), %rdi
	call	getenv@PLT
	.loc 3 217 30 discriminator 1
	testq	%rax, %rax
	jne	.L41
.L42:
	.loc 3 220 10
	cmpl	$0, -64(%rbp)
	je	.L43
	.loc 3 220 31 discriminator 1
	leaq	context(%rip), %rdi
	call	getcon@PLT
	.loc 3 220 28 discriminator 1
	testl	%eax, %eax
	je	.L43
	.loc 3 220 49 discriminator 2
	movzbl	just_context(%rip), %eax
	testb	%al, %al
	jne	.L44
.L43:
	.loc 3 221 11
	cmpb	$0, -66(%rbp)
	je	.L41
	.loc 3 222 18
	leaq	context(%rip), %rdi
	call	smack_new_label_from_self
	.loc 3 222 15
	testq	%rax, %rax
	jns	.L41
	.loc 3 223 15
	movzbl	just_context(%rip), %eax
	testb	%al, %al
	je	.L41
.L44:
.LBB7:
	.loc 3 224 9
	leaq	.LC45(%rip), %rdi
	call	gettext@PLT
	movq	%rax, %rdx
	movl	$0, %esi
	movl	$1, %edi
	movl	$0, %eax
	call	error@PLT
.L41:
.LBE7:
	.loc 3 227 6
	cmpq	$0, -32(%rbp)
	je	.L45
	.loc 3 229 41
	cmpq	$1, -32(%rbp)
	seta	%al
	.loc 3 229 22
	movb	%al, multiple_users(%rip)
	.loc 3 234 13
	movl	optind(%rip), %eax
	cltq
	addq	%rax, -32(%rbp)
	.loc 3 236 7
	jmp	.L46
.L50:
.LBB8:
	.loc 3 238 26
	movq	$0, -48(%rbp)
	.loc 3 239 34
	movl	optind(%rip), %eax
	cltq
	leaq	0(,%rax,8), %rdx
	movq	-96(%rbp), %rax
	addq	%rdx, %rax
	.loc 3 239 23
	movq	(%rax), %rax
	movq	%rax, -24(%rbp)
	.loc 3 243 15
	movq	-24(%rbp), %rax
	movzbl	(%rax), %eax
	.loc 3 243 14
	testb	%al, %al
	je	.L47
	.loc 3 245 19
	movq	-24(%rbp), %rax
	movl	$0, %r8d
	movl	$0, %ecx
	movl	$0, %edx
	leaq	euid(%rip), %rsi
	movq	%rax, %rdi
	call	parse_user_spec@PLT
	.loc 3 245 18
	testq	%rax, %rax
	jne	.L47
	.loc 3 250 25
	movl	euid(%rip), %eax
	movl	%eax, %edi
	call	getpwuid@PLT
	movq	%rax, -48(%rbp)
.L47:
	.loc 3 253 14
	cmpq	$0, -48(%rbp)
	jne	.L48
	.loc 3 255 66
	movl	optind(%rip), %eax
	cltq
	leaq	0(,%rax,8), %rdx
	movq	-96(%rbp), %rax
	addq	%rdx, %rax
	.loc 3 255 15
	movq	(%rax), %rax
	movq	%rax, %rdi
	call	quote@PLT
	movq	%rax, %r12
	.loc 3 255 32
	leaq	.LC46(%rip), %rdi
	call	gettext@PLT
	movq	%rax, %rbx
	.loc 3 255 25
	call	__errno_location@PLT
	.loc 3 255 15
	movl	(%rax), %eax
	movq	%r12, %rcx
	movq	%rbx, %rdx
	movl	%eax, %esi
	movl	$0, %edi
	movl	$0, %eax
	call	error@PLT
	.loc 3 256 18
	movb	$0, ok(%rip)
	.loc 3 257 15
	jmp	.L49
.L48:
	.loc 3 259 33
	movq	-48(%rbp), %rax
	movq	(%rax), %rax
	.loc 3 259 21
	movq	%rax, %rdi
	call	xstrdup@PLT
	movq	%rax, -40(%rbp)
	.loc 3 260 28
	movq	-48(%rbp), %rax
	movl	16(%rax), %eax
	.loc 3 260 23
	movl	%eax, euid(%rip)
	.loc 3 260 16
	movl	euid(%rip), %eax
	movl	%eax, ruid(%rip)
	.loc 3 261 28
	movq	-48(%rbp), %rax
	movl	20(%rax), %eax
	.loc 3 261 23
	movl	%eax, egid(%rip)
	.loc 3 261 16
	movl	egid(%rip), %eax
	movl	%eax, rgid(%rip)
	.loc 3 262 11
	movq	-40(%rbp), %rax
	movq	%rax, %rdi
	call	print_stuff
	.loc 3 263 11
	movq	-40(%rbp), %rax
	movq	%rax, %rdi
	call	free@PLT
.L49:
.LBE8:
	.loc 3 236 36
	movl	optind(%rip), %eax
	addl	$1, %eax
	movl	%eax, optind(%rip)
.L46:
	.loc 3 236 21 discriminator 1
	movl	optind(%rip), %eax
	cltq
	.loc 3 236 7 discriminator 1
	cmpq	%rax, -32(%rbp)
	ja	.L50
	jmp	.L51
.L45:
.LBB9:
	.loc 3 271 13
	movl	$-1, -56(%rbp)
	.loc 3 272 13
	movl	$-1, -52(%rbp)
	.loc 3 274 21
	movzbl	just_user(%rip), %eax
	.loc 3 274 11
	testb	%al, %al
	je	.L52
	.loc 3 274 23 discriminator 1
	movzbl	use_real(%rip), %eax
	.loc 3 274 11 discriminator 1
	xorl	$1, %eax
	jmp	.L53
.L52:
	.loc 3 275 13
	movzbl	just_group(%rip), %eax
	xorl	$1, %eax
	.loc 3 275 45
	testb	%al, %al
	je	.L54
	.loc 3 275 28 discriminator 1
	movzbl	just_group_list(%rip), %eax
	xorl	$1, %eax
	.loc 3 275 25 discriminator 1
	testb	%al, %al
	je	.L54
	.loc 3 275 48 discriminator 3
	movzbl	just_context(%rip), %eax
	xorl	$1, %eax
	.loc 3 275 45 discriminator 3
	testb	%al, %al
	je	.L54
	.loc 3 275 45 is_stmt 0 discriminator 5
	movl	$1, %eax
	jmp	.L55
.L54:
	.loc 3 275 45 discriminator 6
	movl	$0, %eax
.L55:
	.loc 3 274 11 is_stmt 1 discriminator 3
	andl	$1, %eax
.L53:
	.loc 3 274 10 discriminator 2
	testb	%al, %al
	je	.L56
	.loc 3 277 11
	call	__errno_location@PLT
	.loc 3 277 17
	movl	$0, (%rax)
	.loc 3 278 18
	call	geteuid@PLT
	.loc 3 278 16
	movl	%eax, euid(%rip)
	.loc 3 279 20
	movl	euid(%rip), %eax
	.loc 3 279 14
	cmpl	%eax, -56(%rbp)
	jne	.L56
	.loc 3 279 33 discriminator 1
	call	__errno_location@PLT
	movl	(%rax), %eax
	.loc 3 279 30 discriminator 1
	testl	%eax, %eax
	je	.L56
.LBB10:
	.loc 3 280 13
	leaq	.LC47(%rip), %rdi
	call	gettext@PLT
	movq	%rax, %rbx
	call	__errno_location@PLT
	movl	(%rax), %eax
	movq	%rbx, %rdx
	movl	%eax, %esi
	movl	$1, %edi
	movl	$0, %eax
	call	error@PLT
.L56:
.LBE10:
	.loc 3 283 21
	movzbl	just_user(%rip), %eax
	.loc 3 283 11
	testb	%al, %al
	je	.L57
	.loc 3 283 11 is_stmt 0 discriminator 1
	movzbl	use_real(%rip), %eax
	jmp	.L58
.L57:
	.loc 3 284 13 is_stmt 1
	movzbl	just_group(%rip), %eax
	xorl	$1, %eax
	.loc 3 284 25
	testb	%al, %al
	je	.L59
	.loc 3 284 29 discriminator 1
	movzbl	just_group_list(%rip), %eax
	.loc 3 284 25 discriminator 1
	testb	%al, %al
	jne	.L60
	.loc 3 284 48 discriminator 4
	movzbl	just_context(%rip), %eax
	xorl	$1, %eax
	.loc 3 284 45 discriminator 4
	testb	%al, %al
	je	.L59
.L60:
	.loc 3 284 25 discriminator 5
	movl	$1, %eax
	jmp	.L61
.L59:
	.loc 3 284 25 is_stmt 0 discriminator 6
	movl	$0, %eax
.L61:
	.loc 3 283 11 is_stmt 1 discriminator 3
	andl	$1, %eax
.L58:
	.loc 3 283 10 discriminator 2
	testb	%al, %al
	je	.L62
	.loc 3 286 11
	call	__errno_location@PLT
	.loc 3 286 17
	movl	$0, (%rax)
	.loc 3 287 18
	call	getuid@PLT
	.loc 3 287 16
	movl	%eax, ruid(%rip)
	.loc 3 288 20
	movl	ruid(%rip), %eax
	.loc 3 288 14
	cmpl	%eax, -56(%rbp)
	jne	.L62
	.loc 3 288 33 discriminator 1
	call	__errno_location@PLT
	movl	(%rax), %eax
	.loc 3 288 30 discriminator 1
	testl	%eax, %eax
	je	.L62
.LBB11:
	.loc 3 289 13
	leaq	.LC48(%rip), %rdi
	call	gettext@PLT
	movq	%rax, %rbx
	call	__errno_location@PLT
	movl	(%rax), %eax
	movq	%rbx, %rdx
	movl	%eax, %esi
	movl	$1, %edi
	movl	$0, %eax
	call	error@PLT
.L62:
.LBE11:
	.loc 3 292 11
	movzbl	just_user(%rip), %eax
	xorl	$1, %eax
	.loc 3 292 10
	testb	%al, %al
	je	.L63
	.loc 3 292 26 discriminator 1
	movzbl	just_group(%rip), %eax
	.loc 3 292 22 discriminator 1
	testb	%al, %al
	jne	.L64
	.loc 3 292 37 discriminator 2
	movzbl	just_group_list(%rip), %eax
	testb	%al, %al
	jne	.L64
	.loc 3 292 59 discriminator 3
	movzbl	just_context(%rip), %eax
	xorl	$1, %eax
	.loc 3 292 56 discriminator 3
	testb	%al, %al
	je	.L63
.L64:
	.loc 3 294 11
	call	__errno_location@PLT
	.loc 3 294 17
	movl	$0, (%rax)
	.loc 3 295 18
	call	getegid@PLT
	.loc 3 295 16
	movl	%eax, egid(%rip)
	.loc 3 296 20
	movl	egid(%rip), %eax
	.loc 3 296 14
	cmpl	%eax, -52(%rbp)
	jne	.L65
	.loc 3 296 33 discriminator 1
	call	__errno_location@PLT
	movl	(%rax), %eax
	.loc 3 296 30 discriminator 1
	testl	%eax, %eax
	je	.L65
.LBB12:
	.loc 3 297 13
	leaq	.LC49(%rip), %rdi
	call	gettext@PLT
	movq	%rax, %rbx
	call	__errno_location@PLT
	movl	(%rax), %eax
	movq	%rbx, %rdx
	movl	%eax, %esi
	movl	$1, %edi
	movl	$0, %eax
	call	error@PLT
.L65:
.LBE12:
	.loc 3 299 11
	call	__errno_location@PLT
	.loc 3 299 17
	movl	$0, (%rax)
	.loc 3 300 18
	call	getgid@PLT
	.loc 3 300 16
	movl	%eax, rgid(%rip)
	.loc 3 301 20
	movl	rgid(%rip), %eax
	.loc 3 301 14
	cmpl	%eax, -52(%rbp)
	jne	.L63
	.loc 3 301 33 discriminator 1
	call	__errno_location@PLT
	movl	(%rax), %eax
	.loc 3 301 30 discriminator 1
	testl	%eax, %eax
	je	.L63
.LBB13:
	.loc 3 302 13
	leaq	.LC50(%rip), %rdi
	call	gettext@PLT
	movq	%rax, %rbx
	call	__errno_location@PLT
	movl	(%rax), %eax
	movq	%rbx, %rdx
	movl	%eax, %esi
	movl	$1, %edi
	movl	$0, %eax
	call	error@PLT
.L63:
.LBE13:
	.loc 3 304 9
	movq	-40(%rbp), %rax
	movq	%rax, %rdi
	call	print_stuff
.L51:
.LBE9:
	.loc 3 307 28
	movzbl	ok(%rip), %eax
	xorl	$1, %eax
	movzbl	%al, %eax
	.loc 3 308 1
	leaq	-16(%rbp), %rsp
	popq	%rbx
	popq	%r12
	popq	%rbp
	.cfi_def_cfa 7, 8
	ret
	.cfi_endproc
.LFE50:
	.size	main, .-main
	.type	gidtostr_ptr, @function
gidtostr_ptr:
.LFB51:
	.loc 3 315 1
	.cfi_startproc
	endbr64
	pushq	%rbp
	.cfi_def_cfa_offset 16
	.cfi_offset 6, -16
	movq	%rsp, %rbp
	.cfi_def_cfa_register 6
	subq	$16, %rsp
	movq	%rdi, -8(%rbp)
	.loc 3 317 21
	movq	-8(%rbp), %rax
	movl	(%rax), %eax
	.loc 3 317 10
	movl	%eax, %eax
	leaq	buf.6915(%rip), %rsi
	movq	%rax, %rdi
	call	umaxtostr@PLT
	.loc 3 318 1
	leave
	.cfi_def_cfa 7, 8
	ret
	.cfi_endproc
.LFE51:
	.size	gidtostr_ptr, .-gidtostr_ptr
	.type	uidtostr_ptr, @function
uidtostr_ptr:
.LFB52:
	.loc 3 326 1
	.cfi_startproc
	endbr64
	pushq	%rbp
	.cfi_def_cfa_offset 16
	.cfi_offset 6, -16
	movq	%rsp, %rbp
	.cfi_def_cfa_register 6
	subq	$16, %rsp
	movq	%rdi, -8(%rbp)
	.loc 3 328 21
	movq	-8(%rbp), %rax
	movl	(%rax), %eax
	.loc 3 328 10
	movl	%eax, %eax
	leaq	buf.6919(%rip), %rsi
	movq	%rax, %rdi
	call	umaxtostr@PLT
	.loc 3 329 1
	leave
	.cfi_def_cfa 7, 8
	ret
	.cfi_endproc
.LFE52:
	.size	uidtostr_ptr, .-uidtostr_ptr
	.section	.rodata
	.align 8
.LC51:
	.string	"cannot find name for user ID %s"
	.text
	.type	print_user, @function
print_user:
.LFB53:
	.loc 3 336 1
	.cfi_startproc
	endbr64
	pushq	%rbp
	.cfi_def_cfa_offset 16
	.cfi_offset 6, -16
	movq	%rsp, %rbp
	.cfi_def_cfa_register 6
	pushq	%rbx
	subq	$40, %rsp
	.cfi_offset 3, -24
	movl	%edi, -36(%rbp)
	.loc 3 337 18
	movq	$0, -32(%rbp)
	.loc 3 339 7
	movzbl	use_name(%rip), %eax
	.loc 3 339 6
	testb	%al, %al
	je	.L72
	.loc 3 341 13
	movl	-36(%rbp), %eax
	movl	%eax, %edi
	call	getpwuid@PLT
	movq	%rax, -32(%rbp)
	.loc 3 342 10
	cmpq	$0, -32(%rbp)
	jne	.L72
	.loc 3 344 11
	leaq	-36(%rbp), %rax
	movq	%rax, %rdi
	call	uidtostr_ptr
	movq	%rax, %rbx
	.loc 3 344 24
	leaq	.LC51(%rip), %rdi
	call	gettext@PLT
	.loc 3 344 11
	movq	%rbx, %rcx
	movq	%rax, %rdx
	movl	$0, %esi
	movl	$0, %edi
	movl	$0, %eax
	call	error@PLT
	.loc 3 346 14
	movb	$0, ok(%rip)
.L72:
	.loc 3 350 32
	cmpq	$0, -32(%rbp)
	je	.L73
	.loc 3 350 32 is_stmt 0 discriminator 1
	movq	-32(%rbp), %rax
	movq	(%rax), %rax
	jmp	.L74
.L73:
	.loc 3 350 34 is_stmt 1 discriminator 2
	leaq	-36(%rbp), %rax
	movq	%rax, %rdi
	call	uidtostr_ptr
.L74:
	.loc 3 350 9 discriminator 4
	movq	%rax, -24(%rbp)
	.loc 3 351 3 discriminator 4
	movq	stdout(%rip), %rdx
	movq	-24(%rbp), %rax
	movq	%rdx, %rsi
	movq	%rax, %rdi
	call	fputs_unlocked@PLT
	.loc 3 352 1 discriminator 4
	nop
	addq	$40, %rsp
	popq	%rbx
	popq	%rbp
	.cfi_def_cfa 7, 8
	ret
	.cfi_endproc
.LFE53:
	.size	print_user, .-print_user
	.section	.rodata
.LC52:
	.string	"uid=%s"
.LC53:
	.string	"(%s)"
.LC54:
	.string	" gid=%s"
.LC55:
	.string	" euid=%s"
.LC56:
	.string	" egid=%s"
	.align 8
.LC57:
	.string	"failed to get groups for user %s"
	.align 8
.LC58:
	.string	"failed to get groups for the current process"
.LC59:
	.string	" groups="
.LC60:
	.string	" context=%s"
	.text
	.type	print_full_info, @function
print_full_info:
.LFB54:
	.loc 3 358 1
	.cfi_startproc
	endbr64
	pushq	%rbp
	.cfi_def_cfa_offset 16
	.cfi_offset 6, -16
	movq	%rsp, %rbp
	.cfi_def_cfa_register 6
	pushq	%r12
	pushq	%rbx
	subq	$64, %rsp
	.cfi_offset 12, -24
	.cfi_offset 3, -32
	movq	%rdi, -72(%rbp)
	.loc 3 358 1
	movq	%fs:40, %rax
	movq	%rax, -24(%rbp)
	xorl	%eax, %eax
	.loc 3 362 3
	leaq	ruid(%rip), %rdi
	call	uidtostr_ptr
	movq	%rax, %rbx
	.loc 3 362 11
	leaq	.LC52(%rip), %rdi
	call	gettext@PLT
	.loc 3 362 3
	movq	%rbx, %rsi
	movq	%rax, %rdi
	movl	$0, %eax
	call	printf@PLT
	.loc 3 363 9
	movl	ruid(%rip), %eax
	movl	%eax, %edi
	call	getpwuid@PLT
	movq	%rax, -40(%rbp)
	.loc 3 364 6
	cmpq	$0, -40(%rbp)
	je	.L76
	.loc 3 365 5
	movq	-40(%rbp), %rax
	movq	(%rax), %rax
	movq	%rax, %rsi
	leaq	.LC53(%rip), %rdi
	movl	$0, %eax
	call	printf@PLT
.L76:
	.loc 3 367 3
	leaq	rgid(%rip), %rdi
	call	gidtostr_ptr
	movq	%rax, %rbx
	.loc 3 367 11
	leaq	.LC54(%rip), %rdi
	call	gettext@PLT
	.loc 3 367 3
	movq	%rbx, %rsi
	movq	%rax, %rdi
	movl	$0, %eax
	call	printf@PLT
	.loc 3 368 9
	movl	rgid(%rip), %eax
	movl	%eax, %edi
	call	getgrgid@PLT
	movq	%rax, -32(%rbp)
	.loc 3 369 6
	cmpq	$0, -32(%rbp)
	je	.L77
	.loc 3 370 5
	movq	-32(%rbp), %rax
	movq	(%rax), %rax
	movq	%rax, %rsi
	leaq	.LC53(%rip), %rdi
	movl	$0, %eax
	call	printf@PLT
.L77:
	.loc 3 372 12
	movl	euid(%rip), %edx
	movl	ruid(%rip), %eax
	.loc 3 372 6
	cmpl	%eax, %edx
	je	.L78
	.loc 3 374 7
	leaq	euid(%rip), %rdi
	call	uidtostr_ptr
	movq	%rax, %rbx
	.loc 3 374 15
	leaq	.LC55(%rip), %rdi
	call	gettext@PLT
	.loc 3 374 7
	movq	%rbx, %rsi
	movq	%rax, %rdi
	movl	$0, %eax
	call	printf@PLT
	.loc 3 375 13
	movl	euid(%rip), %eax
	movl	%eax, %edi
	call	getpwuid@PLT
	movq	%rax, -40(%rbp)
	.loc 3 376 10
	cmpq	$0, -40(%rbp)
	je	.L78
	.loc 3 377 9
	movq	-40(%rbp), %rax
	movq	(%rax), %rax
	movq	%rax, %rsi
	leaq	.LC53(%rip), %rdi
	movl	$0, %eax
	call	printf@PLT
.L78:
	.loc 3 380 12
	movl	egid(%rip), %edx
	movl	rgid(%rip), %eax
	.loc 3 380 6
	cmpl	%eax, %edx
	je	.L79
	.loc 3 382 7
	leaq	egid(%rip), %rdi
	call	gidtostr_ptr
	movq	%rax, %rbx
	.loc 3 382 15
	leaq	.LC56(%rip), %rdi
	call	gettext@PLT
	.loc 3 382 7
	movq	%rbx, %rsi
	movq	%rax, %rdi
	movl	$0, %eax
	call	printf@PLT
	.loc 3 383 13
	movl	egid(%rip), %eax
	movl	%eax, %edi
	call	getgrgid@PLT
	movq	%rax, -32(%rbp)
	.loc 3 384 10
	cmpq	$0, -32(%rbp)
	je	.L79
	.loc 3 385 9
	movq	-32(%rbp), %rax
	movq	(%rax), %rax
	movq	%rax, %rsi
	leaq	.LC53(%rip), %rdi
	movl	$0, %eax
	call	printf@PLT
.L79:
.LBB14:
	.loc 3 392 8
	cmpq	$0, -72(%rbp)
	je	.L80
	.loc 3 393 41
	cmpq	$0, -40(%rbp)
	je	.L81
	.loc 3 393 41 is_stmt 0 discriminator 1
	movq	-40(%rbp), %rax
	movl	20(%rax), %eax
	jmp	.L82
.L81:
	.loc 3 393 41 discriminator 2
	movl	$-1, %eax
.L82:
	.loc 3 393 21 is_stmt 1 discriminator 4
	movl	%eax, -60(%rbp)
	jmp	.L83
.L80:
	.loc 3 395 21
	movl	egid(%rip), %eax
	movl	%eax, -60(%rbp)
.L83:
	.loc 3 397 20
	leaq	-48(%rbp), %rdx
	movl	-60(%rbp), %ecx
	movq	-72(%rbp), %rax
	movl	%ecx, %esi
	movq	%rax, %rdi
	call	xgetgroups@PLT
	movl	%eax, -52(%rbp)
	.loc 3 398 8
	cmpl	$0, -52(%rbp)
	jns	.L84
	.loc 3 400 12
	cmpq	$0, -72(%rbp)
	je	.L85
	.loc 3 401 11
	movq	-72(%rbp), %rax
	movq	%rax, %rdi
	call	quote@PLT
	movq	%rax, %r12
	.loc 3 401 28
	leaq	.LC57(%rip), %rdi
	call	gettext@PLT
	movq	%rax, %rbx
	.loc 3 401 21
	call	__errno_location@PLT
	.loc 3 401 11
	movl	(%rax), %eax
	movq	%r12, %rcx
	movq	%rbx, %rdx
	movl	%eax, %esi
	movl	$0, %edi
	movl	$0, %eax
	call	error@PLT
	jmp	.L86
.L85:
	.loc 3 404 28
	leaq	.LC58(%rip), %rdi
	call	gettext@PLT
	movq	%rax, %rbx
	.loc 3 404 21
	call	__errno_location@PLT
	.loc 3 404 11
	movl	(%rax), %eax
	movq	%rbx, %rdx
	movl	%eax, %esi
	movl	$0, %edi
	movl	$0, %eax
	call	error@PLT
.L86:
	.loc 3 405 12
	movb	$0, ok(%rip)
	jmp	.L75
.L84:
	.loc 3 409 8
	cmpl	$0, -52(%rbp)
	jle	.L88
	.loc 3 410 7
	movq	stdout(%rip), %rbx
	leaq	.LC59(%rip), %rdi
	call	gettext@PLT
	movq	%rbx, %rsi
	movq	%rax, %rdi
	call	fputs_unlocked@PLT
.L88:
.LBB15:
	.loc 3 411 14
	movl	$0, -56(%rbp)
	.loc 3 411 5
	jmp	.L89
.L92:
	.loc 3 413 12
	cmpl	$0, -56(%rbp)
	jle	.L90
	.loc 3 414 11
	movl	$44, %edi
	call	putchar_unlocked@PLT
.L90:
	.loc 3 415 9
	movq	stdout(%rip), %rbx
	movq	-48(%rbp), %rax
	movl	-56(%rbp), %edx
	movslq	%edx, %rdx
	salq	$2, %rdx
	addq	%rdx, %rax
	movq	%rax, %rdi
	call	gidtostr_ptr
	movq	%rbx, %rsi
	movq	%rax, %rdi
	call	fputs_unlocked@PLT
	.loc 3 416 31
	movq	-48(%rbp), %rax
	movl	-56(%rbp), %edx
	movslq	%edx, %rdx
	salq	$2, %rdx
	addq	%rdx, %rax
	.loc 3 416 15
	movl	(%rax), %eax
	movl	%eax, %edi
	call	getgrgid@PLT
	movq	%rax, -32(%rbp)
	.loc 3 417 12
	cmpq	$0, -32(%rbp)
	je	.L91
	.loc 3 418 11
	movq	-32(%rbp), %rax
	movq	(%rax), %rax
	movq	%rax, %rsi
	leaq	.LC53(%rip), %rdi
	movl	$0, %eax
	call	printf@PLT
.L91:
	.loc 3 411 36 discriminator 2
	addl	$1, -56(%rbp)
.L89:
	.loc 3 411 5 discriminator 1
	movl	-56(%rbp), %eax
	cmpl	-52(%rbp), %eax
	jl	.L92
.LBE15:
	.loc 3 420 5
	movq	-48(%rbp), %rax
	movq	%rax, %rdi
	call	free@PLT
.LBE14:
	.loc 3 425 7
	movq	context(%rip), %rax
	.loc 3 425 6
	testq	%rax, %rax
	je	.L75
	.loc 3 426 5
	movq	context(%rip), %rbx
	.loc 3 426 13
	leaq	.LC60(%rip), %rdi
	call	gettext@PLT
	.loc 3 426 5
	movq	%rbx, %rsi
	movq	%rax, %rdi
	movl	$0, %eax
	call	printf@PLT
.L75:
	.loc 3 427 1
	movq	-24(%rbp), %rax
	xorq	%fs:40, %rax
	je	.L93
	call	__stack_chk_fail@PLT
.L93:
	addq	$64, %rsp
	popq	%rbx
	popq	%r12
	popq	%rbp
	.cfi_def_cfa 7, 8
	ret
	.cfi_endproc
.LFE54:
	.size	print_full_info, .-print_full_info
	.type	print_stuff, @function
print_stuff:
.LFB55:
	.loc 3 433 1
	.cfi_startproc
	endbr64
	pushq	%rbp
	.cfi_def_cfa_offset 16
	.cfi_offset 6, -16
	movq	%rsp, %rbp
	.cfi_def_cfa_register 6
	subq	$16, %rsp
	movq	%rdi, -8(%rbp)
	.loc 3 434 7
	movzbl	just_user(%rip), %eax
	.loc 3 434 6
	testb	%al, %al
	je	.L95
	.loc 3 435 28
	movzbl	use_real(%rip), %eax
	.loc 3 435 7
	testb	%al, %al
	je	.L96
	.loc 3 435 7 is_stmt 0 discriminator 1
	movl	ruid(%rip), %eax
	jmp	.L97
.L96:
	.loc 3 435 7 discriminator 2
	movl	euid(%rip), %eax
.L97:
	.loc 3 435 7 discriminator 4
	movl	%eax, %edi
	call	print_user
	jmp	.L98
.L95:
	.loc 3 442 12 is_stmt 1
	movzbl	just_group(%rip), %eax
	.loc 3 442 11
	testb	%al, %al
	je	.L99
	.loc 3 443 11
	movzbl	use_name(%rip), %eax
	movzbl	%al, %edx
	.loc 3 443 33
	movzbl	use_real(%rip), %eax
	.loc 3 443 11
	testb	%al, %al
	je	.L100
	.loc 3 443 11 is_stmt 0 discriminator 1
	movl	rgid(%rip), %eax
	jmp	.L101
.L100:
	.loc 3 443 11 discriminator 2
	movl	egid(%rip), %eax
.L101:
	.loc 3 443 11 discriminator 4
	movl	%edx, %esi
	movl	%eax, %edi
	call	print_group@PLT
	.loc 3 443 8 is_stmt 1 discriminator 4
	movzbl	ok(%rip), %edx
	movzbl	%dl, %edx
	.loc 3 443 11 discriminator 4
	movzbl	%al, %eax
	.loc 3 443 8 discriminator 4
	andl	%edx, %eax
	testl	%eax, %eax
	setne	%al
	movb	%al, ok(%rip)
	jmp	.L98
.L99:
	.loc 3 444 12
	movzbl	just_group_list(%rip), %eax
	.loc 3 444 11
	testb	%al, %al
	je	.L102
	.loc 3 446 48
	movzbl	opt_zero(%rip), %eax
	.loc 3 445 11
	testb	%al, %al
	je	.L103
	.loc 3 445 11 is_stmt 0 discriminator 1
	movl	$0, %r8d
	jmp	.L104
.L103:
	.loc 3 445 11 discriminator 2
	movl	$32, %r8d
.L104:
	.loc 3 445 11 discriminator 4
	movzbl	use_name(%rip), %eax
	movzbl	%al, %edi
	movl	egid(%rip), %ecx
	movl	rgid(%rip), %edx
	movl	ruid(%rip), %esi
	movq	-8(%rbp), %rax
	movl	%r8d, %r9d
	movl	%edi, %r8d
	movq	%rax, %rdi
	call	print_group_list@PLT
	.loc 3 445 8 is_stmt 1 discriminator 4
	movzbl	ok(%rip), %edx
	movzbl	%dl, %edx
	.loc 3 445 11 discriminator 4
	movzbl	%al, %eax
	.loc 3 445 8 discriminator 4
	andl	%edx, %eax
	testl	%eax, %eax
	setne	%al
	movb	%al, ok(%rip)
	jmp	.L98
.L102:
	.loc 3 447 12
	movzbl	just_context(%rip), %eax
	.loc 3 447 11
	testb	%al, %al
	je	.L105
	.loc 3 448 5
	movq	stdout(%rip), %rdx
	movq	context(%rip), %rax
	movq	%rdx, %rsi
	movq	%rax, %rdi
	call	fputs_unlocked@PLT
	jmp	.L98
.L105:
	.loc 3 450 5
	movq	-8(%rbp), %rax
	movq	%rax, %rdi
	call	print_full_info
.L98:
	.loc 3 455 7
	movzbl	opt_zero(%rip), %eax
	.loc 3 455 6
	testb	%al, %al
	je	.L106
	.loc 3 455 16 discriminator 1
	movzbl	just_group_list(%rip), %eax
	testb	%al, %al
	je	.L106
	.loc 3 455 35 discriminator 2
	movzbl	multiple_users(%rip), %eax
	testb	%al, %al
	je	.L106
	.loc 3 457 7
	movl	$0, %edi
	call	putchar_unlocked@PLT
	.loc 3 458 7
	movl	$0, %edi
	call	putchar_unlocked@PLT
	jmp	.L107
.L106:
	.loc 3 462 7
	movzbl	opt_zero(%rip), %eax
	testb	%al, %al
	je	.L108
	.loc 3 462 7 is_stmt 0 discriminator 1
	movl	$0, %eax
	jmp	.L109
.L108:
	.loc 3 462 7 discriminator 2
	movl	$10, %eax
.L109:
	.loc 3 462 7 discriminator 4
	movl	%eax, %edi
	call	putchar_unlocked@PLT
	.loc 3 464 1 is_stmt 1 discriminator 4
	nop
.L107:
	.loc 3 464 1 is_stmt 0
	nop
	leave
	.cfi_def_cfa 7, 8
	ret
	.cfi_endproc
.LFE55:
	.size	print_stuff, .-print_stuff
	.local	buf.6915
	.comm	buf.6915,21,16
	.local	buf.6919
	.comm	buf.6919,21,16
.Letext0:
	.file 4 "/usr/lib/gcc/x86_64-linux-gnu/9/include/stddef.h"
	.file 5 "/usr/include/x86_64-linux-gnu/bits/types.h"
	.file 6 "/usr/include/x86_64-linux-gnu/bits/types/struct_FILE.h"
	.file 7 "/usr/include/x86_64-linux-gnu/bits/types/FILE.h"
	.file 8 "/usr/include/stdio.h"
	.file 9 "/usr/include/x86_64-linux-gnu/bits/sys_errlist.h"
	.file 10 "/usr/include/x86_64-linux-gnu/sys/types.h"
	.file 11 "/usr/include/x86_64-linux-gnu/bits/types/time_t.h"
	.file 12 "./lib/sys/select.h"
	.file 13 "/usr/include/pwd.h"
	.file 14 "/usr/include/grp.h"
	.file 15 "/usr/include/x86_64-linux-gnu/bits/getopt_core.h"
	.file 16 "/usr/include/x86_64-linux-gnu/bits/getopt_ext.h"
	.file 17 "/usr/include/time.h"
	.file 18 "/usr/include/signal.h"
	.file 19 "/usr/include/unistd.h"
	.file 20 "/usr/include/errno.h"
	.file 21 "src/version.h"
	.file 22 "./lib/exitfail.h"
	.file 23 "/usr/include/stdint.h"
	.file 24 "./lib/timespec.h"
	.file 25 "./lib/version-etc.h"
	.file 26 "./lib/progname.h"
	.file 27 "./lib/quotearg.h"
	.file 28 "./lib/error.h"
	.file 29 "./lib/quote.h"
	.section	.note.GNU-stack,"",@progbits
	.section	.note.gnu.property,"a"
	.align 8
	.long	 1f - 0f
	.long	 4f - 1f
	.long	 5
0:
	.string	 "GNU"
1:
	.align 8
	.long	 0xc0000002
	.long	 3f - 2f
2:
	.long	 0x3
3:
	.align 8
4:
