	.file	"kill.c"
	.text
.Ltext0:
	.section	.rodata
	.align 8
.LC0:
	.string	"\nMandatory arguments to long options are mandatory for short options too.\n"
	.text
	.type	emit_mandatory_arg_note, @function
emit_mandatory_arg_note:
.LFB36:
	.file 1 "src/system.h"
	.loc 1 589 1
	.cfi_startproc
	pushq	%rbp
	.cfi_def_cfa_offset 16
	.cfi_offset 6, -16
	movq	%rsp, %rbp
	.cfi_def_cfa_register 6
	pushq	%rbx
	subq	$8, %rsp
	.cfi_offset 3, -24
	.loc 1 590 3
	movq	stdout(%rip), %rbx
	leaq	.LC0(%rip), %rdi
	call	gettext@PLT
	movq	%rbx, %rsi
	movq	%rax, %rdi
	call	fputs_unlocked@PLT
	.loc 1 593 1
	nop
	addq	$8, %rsp
	popq	%rbx
	popq	%rbp
	.cfi_def_cfa 7, 8
	ret
	.cfi_endproc
.LFE36:
	.size	emit_mandatory_arg_note, .-emit_mandatory_arg_note
	.section	.rodata
.LC1:
	.string	"["
.LC2:
	.string	"test invocation"
.LC3:
	.string	"coreutils"
.LC4:
	.string	"Multi-call invocation"
.LC5:
	.string	"sha224sum"
.LC6:
	.string	"sha2 utilities"
.LC7:
	.string	"sha256sum"
.LC8:
	.string	"sha384sum"
.LC9:
	.string	"sha512sum"
.LC10:
	.string	"\n%s online help: <%s>\n"
	.align 8
.LC11:
	.string	"https://www.gnu.org/software/coreutils/"
.LC12:
	.string	"GNU coreutils"
.LC13:
	.string	"en_"
	.align 8
.LC14:
	.string	"Report any translation bugs to <https://translationproject.org/team/>\n"
.LC15:
	.string	"Full documentation <%s%s>\n"
.LC16:
	.string	" invocation"
.LC17:
	.string	""
	.align 8
.LC18:
	.string	"or available locally via: info '(coreutils) %s%s'\n"
	.text
	.type	emit_ancillary_info, @function
emit_ancillary_info:
.LFB40:
	.loc 1 635 1
	.cfi_startproc
	pushq	%rbp
	.cfi_def_cfa_offset 16
	.cfi_offset 6, -16
	movq	%rsp, %rbp
	.cfi_def_cfa_register 6
	pushq	%rbx
	subq	$184, %rsp
	.cfi_offset 3, -24
	movq	%rdi, -184(%rbp)
	.loc 1 635 1
	movq	%fs:40, %rax
	movq	%rax, -24(%rbp)
	xorl	%eax, %eax
	.loc 1 636 67
	leaq	.LC1(%rip), %rax
	movq	%rax, -144(%rbp)
	leaq	.LC2(%rip), %rax
	movq	%rax, -136(%rbp)
	leaq	.LC3(%rip), %rax
	movq	%rax, -128(%rbp)
	leaq	.LC4(%rip), %rax
	movq	%rax, -120(%rbp)
	leaq	.LC5(%rip), %rax
	movq	%rax, -112(%rbp)
	leaq	.LC6(%rip), %rax
	movq	%rax, -104(%rbp)
	leaq	.LC7(%rip), %rax
	movq	%rax, -96(%rbp)
	leaq	.LC6(%rip), %rax
	movq	%rax, -88(%rbp)
	leaq	.LC8(%rip), %rax
	movq	%rax, -80(%rbp)
	leaq	.LC6(%rip), %rax
	movq	%rax, -72(%rbp)
	leaq	.LC9(%rip), %rax
	movq	%rax, -64(%rbp)
	leaq	.LC6(%rip), %rax
	movq	%rax, -56(%rbp)
	movq	$0, -48(%rbp)
	movq	$0, -40(%rbp)
	.loc 1 646 15
	movq	-184(%rbp), %rax
	movq	%rax, -168(%rbp)
	.loc 1 647 25
	leaq	-144(%rbp), %rax
	movq	%rax, -160(%rbp)
	.loc 1 649 9
	jmp	.L3
.L5:
	.loc 1 650 13
	addq	$16, -160(%rbp)
.L3:
	.loc 1 649 18
	movq	-160(%rbp), %rax
	movq	(%rax), %rax
	.loc 1 649 9
	testq	%rax, %rax
	je	.L4
	.loc 1 649 33 discriminator 1
	movq	-160(%rbp), %rax
	movq	(%rax), %rdx
	movq	-184(%rbp), %rax
	movq	%rdx, %rsi
	movq	%rax, %rdi
	call	strcmp@PLT
	.loc 1 649 28 discriminator 1
	testl	%eax, %eax
	jne	.L5
.L4:
	.loc 1 652 15
	movq	-160(%rbp), %rax
	movq	8(%rax), %rax
	.loc 1 652 6
	testq	%rax, %rax
	je	.L6
	.loc 1 653 10
	movq	-160(%rbp), %rax
	movq	8(%rax), %rax
	movq	%rax, -168(%rbp)
.L6:
	.loc 1 655 11
	leaq	.LC10(%rip), %rdi
	call	gettext@PLT
	.loc 1 655 3
	leaq	.LC11(%rip), %rdx
	leaq	.LC12(%rip), %rsi
	movq	%rax, %rdi
	movl	$0, %eax
	call	printf@PLT
	.loc 1 659 29
	movl	$0, %esi
	movl	$5, %edi
	call	setlocale@PLT
	movq	%rax, -152(%rbp)
	.loc 1 660 6
	cmpq	$0, -152(%rbp)
	je	.L7
	.loc 1 660 22 discriminator 1
	movq	-152(%rbp), %rax
	movl	$3, %edx
	leaq	.LC13(%rip), %rsi
	movq	%rax, %rdi
	call	strncmp@PLT
	.loc 1 660 19 discriminator 1
	testl	%eax, %eax
	je	.L7
	.loc 1 666 7
	movq	stdout(%rip), %rbx
	leaq	.LC14(%rip), %rdi
	call	gettext@PLT
	movq	%rbx, %rsi
	movq	%rax, %rdi
	call	fputs_unlocked@PLT
.L7:
	.loc 1 669 11
	leaq	.LC15(%rip), %rdi
	call	gettext@PLT
	movq	%rax, %rcx
	.loc 1 669 3
	movq	-184(%rbp), %rax
	movq	%rax, %rdx
	leaq	.LC11(%rip), %rsi
	movq	%rcx, %rdi
	movl	$0, %eax
	call	printf@PLT
	.loc 1 671 3
	movq	-168(%rbp), %rax
	cmpq	-184(%rbp), %rax
	jne	.L8
	.loc 1 671 3 is_stmt 0 discriminator 1
	leaq	.LC16(%rip), %rbx
	jmp	.L9
.L8:
	.loc 1 671 3 discriminator 2
	leaq	.LC17(%rip), %rbx
.L9:
	.loc 1 671 11 is_stmt 1 discriminator 4
	leaq	.LC18(%rip), %rdi
	call	gettext@PLT
	movq	%rax, %rcx
	.loc 1 671 3 discriminator 4
	movq	-168(%rbp), %rax
	movq	%rbx, %rdx
	movq	%rax, %rsi
	movq	%rcx, %rdi
	movl	$0, %eax
	call	printf@PLT
	.loc 1 673 1 discriminator 4
	nop
	movq	-24(%rbp), %rax
	xorq	%fs:40, %rax
	je	.L10
	.loc 1 673 1 is_stmt 0
	call	__stack_chk_fail@PLT
.L10:
	addq	$184, %rsp
	popq	%rbx
	popq	%rbp
	.cfi_def_cfa 7, 8
	ret
	.cfi_endproc
.LFE40:
	.size	emit_ancillary_info, .-emit_ancillary_info
	.section	.rodata
	.align 32
	.type	short_options, @object
	.size	short_options, 113
short_options:
	.string	"0::1::2::3::4::5::6::7::8::9::A::B::C::D::E::F::G::H::I::J::K::M::N::O::P::Q::R::S::T::U::V::W::X::Y::Z::Lln:s:t"
.LC19:
	.string	"list"
.LC20:
	.string	"signal"
.LC21:
	.string	"table"
.LC22:
	.string	"help"
.LC23:
	.string	"version"
	.section	.data.rel.ro.local,"aw"
	.align 32
	.type	long_options, @object
	.size	long_options, 192
long_options:
	.quad	.LC19
	.long	0
	.zero	4
	.quad	0
	.long	108
	.zero	4
	.quad	.LC20
	.long	1
	.zero	4
	.quad	0
	.long	115
	.zero	4
	.quad	.LC21
	.long	0
	.zero	4
	.quad	0
	.long	116
	.zero	4
	.quad	.LC22
	.long	0
	.zero	4
	.quad	0
	.long	-130
	.zero	4
	.quad	.LC23
	.long	0
	.zero	4
	.quad	0
	.long	-131
	.zero	4
	.quad	0
	.long	0
	.zero	4
	.quad	0
	.long	0
	.zero	4
	.section	.rodata
	.align 8
.LC24:
	.string	"Try '%s --help' for more information.\n"
	.align 8
.LC25:
	.string	"Usage: %s [-s SIGNAL | -SIGNAL] PID...\n  or:  %s -l [SIGNAL]...\n  or:  %s -t [SIGNAL]...\n"
	.align 8
.LC26:
	.string	"Send signals to processes, or list signals.\n"
	.align 8
.LC27:
	.string	"  -s, --signal=SIGNAL, -SIGNAL\n                   specify the name or number of the signal to be sent\n  -l, --list       list signal names, or convert signal names to/from numbers\n  -t, --table      print a table of signal information\n"
	.align 8
.LC28:
	.string	"      --help     display this help and exit\n"
	.align 8
.LC29:
	.string	"      --version  output version information and exit\n"
	.align 8
.LC30:
	.string	"\nSIGNAL may be a signal name like 'HUP', or a signal number like '1',\nor the exit status of a process terminated by a signal.\nPID is an integer; if negative it identifies a process group.\n"
	.align 8
.LC31:
	.string	"\nNOTE: your shell may have its own version of %s, which usually supersedes\nthe version described here.  Please refer to your shell's documentation\nfor details about the options it supports.\n"
.LC32:
	.string	"kill"
	.text
	.globl	usage
	.type	usage, @function
usage:
.LFB46:
	.file 2 "src/kill.c"
	.loc 2 72 1 is_stmt 1
	.cfi_startproc
	endbr64
	pushq	%rbp
	.cfi_def_cfa_offset 16
	.cfi_offset 6, -16
	movq	%rsp, %rbp
	.cfi_def_cfa_register 6
	pushq	%r13
	pushq	%r12
	pushq	%rbx
	subq	$24, %rsp
	.cfi_offset 13, -24
	.cfi_offset 12, -32
	.cfi_offset 3, -40
	movl	%edi, -36(%rbp)
	.loc 2 73 6
	cmpl	$0, -36(%rbp)
	je	.L12
	.loc 2 74 5
	movq	program_name(%rip), %rbx
	leaq	.LC24(%rip), %rdi
	call	gettext@PLT
	movq	%rax, %rcx
	movq	stderr(%rip), %rax
	movq	%rbx, %rdx
	movq	%rcx, %rsi
	movq	%rax, %rdi
	movl	$0, %eax
	call	fprintf@PLT
	jmp	.L13
.L12:
	.loc 2 77 7
	movq	program_name(%rip), %r13
	movq	program_name(%rip), %r12
	movq	program_name(%rip), %rbx
	.loc 2 77 15
	leaq	.LC25(%rip), %rdi
	call	gettext@PLT
	.loc 2 77 7
	movq	%r13, %rcx
	movq	%r12, %rdx
	movq	%rbx, %rsi
	movq	%rax, %rdi
	movl	$0, %eax
	call	printf@PLT
	.loc 2 83 7
	movq	stdout(%rip), %rbx
	leaq	.LC26(%rip), %rdi
	call	gettext@PLT
	movq	%rbx, %rsi
	movq	%rax, %rdi
	call	fputs_unlocked@PLT
	.loc 2 87 7
	call	emit_mandatory_arg_note
	.loc 2 89 7
	movq	stdout(%rip), %rbx
	leaq	.LC27(%rip), %rdi
	call	gettext@PLT
	movq	%rbx, %rsi
	movq	%rax, %rdi
	call	fputs_unlocked@PLT
	.loc 2 95 7
	movq	stdout(%rip), %rbx
	leaq	.LC28(%rip), %rdi
	call	gettext@PLT
	movq	%rbx, %rsi
	movq	%rax, %rdi
	call	fputs_unlocked@PLT
	.loc 2 96 7
	movq	stdout(%rip), %rbx
	leaq	.LC29(%rip), %rdi
	call	gettext@PLT
	movq	%rbx, %rsi
	movq	%rax, %rdi
	call	fputs_unlocked@PLT
	.loc 2 97 7
	movq	stdout(%rip), %rbx
	leaq	.LC30(%rip), %rdi
	call	gettext@PLT
	movq	%rbx, %rsi
	movq	%rax, %rdi
	call	fputs_unlocked@PLT
	.loc 2 102 15
	leaq	.LC31(%rip), %rdi
	call	gettext@PLT
	.loc 2 102 7
	leaq	.LC32(%rip), %rsi
	movq	%rax, %rdi
	movl	$0, %eax
	call	printf@PLT
	.loc 2 103 7
	leaq	.LC32(%rip), %rdi
	call	emit_ancillary_info
.L13:
	.loc 2 105 3
	movl	-36(%rbp), %eax
	movl	%eax, %edi
	call	exit@PLT
	.cfi_endproc
.LFE46:
	.size	usage, .-usage
	.section	.rodata
.LC33:
	.string	"?"
.LC34:
	.string	"%*d %-*s %s\n"
	.text
	.type	print_table_row, @function
print_table_row:
.LFB47:
	.loc 2 115 1
	.cfi_startproc
	endbr64
	pushq	%rbp
	.cfi_def_cfa_offset 16
	.cfi_offset 6, -16
	movq	%rsp, %rbp
	.cfi_def_cfa_register 6
	subq	$48, %rsp
	movl	%edi, -20(%rbp)
	movl	%esi, -24(%rbp)
	movl	%edx, -28(%rbp)
	movq	%rcx, -40(%rbp)
	.loc 2 116 29
	movl	-24(%rbp), %eax
	movl	%eax, %edi
	call	strsignal@PLT
	movq	%rax, -8(%rbp)
	.loc 2 117 3
	cmpq	$0, -8(%rbp)
	je	.L15
	.loc 2 117 3 is_stmt 0 discriminator 1
	movq	-8(%rbp), %rax
	jmp	.L16
.L15:
	.loc 2 117 3 discriminator 2
	leaq	.LC33(%rip), %rax
.L16:
	.loc 2 117 3 discriminator 4
	movq	-40(%rbp), %rdi
	movl	-28(%rbp), %ecx
	movl	-24(%rbp), %edx
	movl	-20(%rbp), %esi
	movq	%rax, %r9
	movq	%rdi, %r8
	leaq	.LC34(%rip), %rdi
	movl	$0, %eax
	call	printf@PLT
	.loc 2 119 1 is_stmt 1 discriminator 4
	nop
	leave
	.cfi_def_cfa 7, 8
	ret
	.cfi_endproc
.LFE47:
	.size	print_table_row, .-print_table_row
	.section	.rodata
.LC35:
	.string	"%d\n"
	.text
	.type	list_signals, @function
list_signals:
.LFB48:
	.loc 2 127 1
	.cfi_startproc
	endbr64
	pushq	%rbp
	.cfi_def_cfa_offset 16
	.cfi_offset 6, -16
	movq	%rsp, %rbp
	.cfi_def_cfa_register 6
	subq	$80, %rsp
	movl	%edi, %eax
	movq	%rsi, -80(%rbp)
	movb	%al, -68(%rbp)
	.loc 2 127 1
	movq	%fs:40, %rax
	movq	%rax, -8(%rbp)
	xorl	%eax, %eax
	.loc 2 129 7
	movl	$0, -52(%rbp)
	.loc 2 132 6
	cmpb	$0, -68(%rbp)
	je	.L18
.LBB2:
	.loc 2 134 20
	movl	$0, -48(%rbp)
	.loc 2 137 20
	movl	$1, -44(%rbp)
	.loc 2 138 19
	movl	$1, -56(%rbp)
	.loc 2 138 7
	jmp	.L19
.L20:
	.loc 2 139 18 discriminator 3
	addl	$1, -44(%rbp)
	.loc 2 138 60 discriminator 3
	movl	-56(%rbp), %edx
	movl	%edx, %eax
	sall	$2, %eax
	addl	%edx, %eax
	addl	%eax, %eax
	movl	%eax, -56(%rbp)
.L19:
	.loc 2 138 7 discriminator 1
	cmpl	$6, -56(%rbp)
	jle	.L20
	.loc 2 142 19
	movl	$1, -56(%rbp)
	.loc 2 142 7
	jmp	.L21
.L23:
	.loc 2 143 13
	leaq	-32(%rbp), %rdx
	movl	-56(%rbp), %eax
	movq	%rdx, %rsi
	movl	%eax, %edi
	call	sig2str@PLT
	.loc 2 143 12
	testl	%eax, %eax
	jne	.L22
.LBB3:
	.loc 2 145 26
	leaq	-32(%rbp), %rax
	movq	%rax, %rdi
	call	strlen@PLT
	movq	%rax, -40(%rbp)
	.loc 2 146 28
	movl	-48(%rbp), %eax
	.loc 2 146 16
	cmpq	%rax, -40(%rbp)
	jbe	.L22
	.loc 2 147 26
	movq	-40(%rbp), %rax
	movl	%eax, -48(%rbp)
.L22:
.LBE3:
	.loc 2 142 54 discriminator 2
	addl	$1, -56(%rbp)
.L21:
	.loc 2 142 7 discriminator 1
	cmpl	$64, -56(%rbp)
	jle	.L23
	.loc 2 150 10
	cmpq	$0, -80(%rbp)
	je	.L24
	.loc 2 151 9
	jmp	.L25
.L28:
	.loc 2 153 22
	movq	-80(%rbp), %rax
	movq	(%rax), %rax
	leaq	-32(%rbp), %rdx
	movq	%rdx, %rsi
	movq	%rax, %rdi
	call	operand2sig@PLT
	movl	%eax, -56(%rbp)
	.loc 2 154 16
	cmpl	$0, -56(%rbp)
	jns	.L26
	.loc 2 155 22
	movl	$1, -52(%rbp)
	jmp	.L27
.L26:
	.loc 2 157 15
	movl	-48(%rbp), %edx
	movl	-44(%rbp), %eax
	leaq	-32(%rbp), %rcx
	movl	-56(%rbp), %esi
	movl	%eax, %edi
	call	print_table_row
.L27:
	.loc 2 151 27
	addq	$8, -80(%rbp)
.L25:
	.loc 2 151 16 discriminator 1
	movq	-80(%rbp), %rax
	movq	(%rax), %rax
	.loc 2 151 9 discriminator 1
	testq	%rax, %rax
	jne	.L28
	jmp	.L29
.L24:
	.loc 2 160 21
	movl	$1, -56(%rbp)
	.loc 2 160 9
	jmp	.L30
.L32:
	.loc 2 161 15
	leaq	-32(%rbp), %rdx
	movl	-56(%rbp), %eax
	movq	%rdx, %rsi
	movl	%eax, %edi
	call	sig2str@PLT
	.loc 2 161 14
	testl	%eax, %eax
	jne	.L31
	.loc 2 162 13
	movl	-48(%rbp), %edx
	movl	-44(%rbp), %eax
	leaq	-32(%rbp), %rcx
	movl	-56(%rbp), %esi
	movl	%eax, %edi
	call	print_table_row
.L31:
	.loc 2 160 56 discriminator 2
	addl	$1, -56(%rbp)
.L30:
	.loc 2 160 9 discriminator 1
	cmpl	$64, -56(%rbp)
	jle	.L32
	jmp	.L29
.L18:
.LBE2:
	.loc 2 166 10
	cmpq	$0, -80(%rbp)
	je	.L33
	.loc 2 167 9
	jmp	.L34
.L38:
	.loc 2 169 22
	movq	-80(%rbp), %rax
	movq	(%rax), %rax
	leaq	-32(%rbp), %rdx
	movq	%rdx, %rsi
	movq	%rax, %rdi
	call	operand2sig@PLT
	movl	%eax, -56(%rbp)
	.loc 2 170 16
	cmpl	$0, -56(%rbp)
	jns	.L35
	.loc 2 171 22
	movl	$1, -52(%rbp)
	jmp	.L36
.L35:
	.loc 2 174 21
	movq	-80(%rbp), %rax
	movq	(%rax), %rax
	movzbl	(%rax), %eax
	movsbl	%al, %eax
	subl	$48, %eax
	.loc 2 174 20
	cmpl	$9, %eax
	ja	.L37
	.loc 2 175 19
	leaq	-32(%rbp), %rax
	movq	%rax, %rdi
	call	puts@PLT
	jmp	.L36
.L37:
	.loc 2 177 19
	movl	-56(%rbp), %eax
	movl	%eax, %esi
	leaq	.LC35(%rip), %rdi
	movl	$0, %eax
	call	printf@PLT
.L36:
	.loc 2 167 27
	addq	$8, -80(%rbp)
.L34:
	.loc 2 167 16 discriminator 1
	movq	-80(%rbp), %rax
	movq	(%rax), %rax
	.loc 2 167 9 discriminator 1
	testq	%rax, %rax
	jne	.L38
	jmp	.L29
.L33:
	.loc 2 181 21
	movl	$1, -56(%rbp)
	.loc 2 181 9
	jmp	.L39
.L41:
	.loc 2 182 15
	leaq	-32(%rbp), %rdx
	movl	-56(%rbp), %eax
	movq	%rdx, %rsi
	movl	%eax, %edi
	call	sig2str@PLT
	.loc 2 182 14
	testl	%eax, %eax
	jne	.L40
	.loc 2 183 13
	leaq	-32(%rbp), %rax
	movq	%rax, %rdi
	call	puts@PLT
.L40:
	.loc 2 181 56 discriminator 2
	addl	$1, -56(%rbp)
.L39:
	.loc 2 181 9 discriminator 1
	cmpl	$64, -56(%rbp)
	jle	.L41
.L29:
	.loc 2 186 10
	movl	-52(%rbp), %eax
	.loc 2 187 1
	movq	-8(%rbp), %rcx
	xorq	%fs:40, %rcx
	je	.L43
	call	__stack_chk_fail@PLT
.L43:
	leave
	.cfi_def_cfa 7, 8
	ret
	.cfi_endproc
.LFE48:
	.size	list_signals, .-list_signals
	.section	.rodata
.LC36:
	.string	"%s: invalid process id"
.LC37:
	.string	"%s"
	.text
	.type	send_signals, @function
send_signals:
.LFB49:
	.loc 2 194 1
	.cfi_startproc
	endbr64
	pushq	%rbp
	.cfi_def_cfa_offset 16
	.cfi_offset 6, -16
	movq	%rsp, %rbp
	.cfi_def_cfa_register 6
	pushq	%rbx
	subq	$72, %rsp
	.cfi_offset 3, -24
	movl	%edi, -68(%rbp)
	movq	%rsi, -80(%rbp)
	.loc 2 194 1
	movq	%fs:40, %rax
	movq	%rax, -24(%rbp)
	xorl	%eax, %eax
	.loc 2 195 7
	movl	$0, -56(%rbp)
	.loc 2 196 15
	movq	-80(%rbp), %rax
	movq	(%rax), %rax
	movq	%rax, -40(%rbp)
.L48:
.LBB4:
	.loc 2 201 21
	call	__errno_location@PLT
	.loc 2 201 27
	movl	$0, (%rax)
	.loc 2 201 32
	leaq	-48(%rbp), %rcx
	movq	-40(%rbp), %rax
	movl	$10, %edx
	movq	%rcx, %rsi
	movq	%rax, %rdi
	call	strtoimax@PLT
	movq	%rax, -32(%rbp)
	.loc 2 202 13
	movq	-32(%rbp), %rax
	movl	%eax, -52(%rbp)
	.loc 2 204 11
	call	__errno_location@PLT
	movl	(%rax), %eax
	.loc 2 204 10
	cmpl	$34, %eax
	je	.L45
	.loc 2 204 34 discriminator 1
	movl	-52(%rbp), %eax
	cltq
	.loc 2 204 27 discriminator 1
	cmpq	%rax, -32(%rbp)
	jne	.L45
	.loc 2 204 46 discriminator 2
	movq	-48(%rbp), %rax
	.loc 2 204 39 discriminator 2
	cmpq	%rax, -40(%rbp)
	je	.L45
	.loc 2 204 57 discriminator 3
	movq	-48(%rbp), %rax
	movzbl	(%rax), %eax
	.loc 2 204 54 discriminator 3
	testb	%al, %al
	je	.L46
.L45:
	.loc 2 206 11
	movq	-40(%rbp), %rax
	movq	%rax, %rdi
	call	quote@PLT
	movq	%rax, %rbx
	.loc 2 206 24
	leaq	.LC36(%rip), %rdi
	call	gettext@PLT
	.loc 2 206 11
	movq	%rbx, %rcx
	movq	%rax, %rdx
	movl	$0, %esi
	movl	$0, %edi
	movl	$0, %eax
	call	error@PLT
	.loc 2 207 18
	movl	$1, -56(%rbp)
	jmp	.L47
.L46:
	.loc 2 209 16
	movl	-68(%rbp), %edx
	movl	-52(%rbp), %eax
	movl	%edx, %esi
	movl	%eax, %edi
	call	kill@PLT
	.loc 2 209 15
	testl	%eax, %eax
	je	.L47
	.loc 2 211 11
	movq	-40(%rbp), %rax
	movq	%rax, %rdi
	call	quote@PLT
	movq	%rax, %rbx
	.loc 2 211 21
	call	__errno_location@PLT
	.loc 2 211 11
	movl	(%rax), %eax
	movq	%rbx, %rcx
	leaq	.LC37(%rip), %rdx
	movl	%eax, %esi
	movl	$0, %edi
	movl	$0, %eax
	call	error@PLT
	.loc 2 212 18
	movl	$1, -56(%rbp)
.L47:
.LBE4:
	.loc 2 215 3
	addq	$8, -80(%rbp)
	.loc 2 215 15
	movq	-80(%rbp), %rax
	movq	(%rax), %rax
	movq	%rax, -40(%rbp)
	.loc 2 215 3
	cmpq	$0, -40(%rbp)
	jne	.L48
	.loc 2 217 10
	movl	-56(%rbp), %eax
	.loc 2 218 1
	movq	-24(%rbp), %rcx
	xorq	%fs:40, %rcx
	je	.L50
	call	__stack_chk_fail@PLT
.L50:
	addq	$72, %rsp
	popq	%rbx
	popq	%rbp
	.cfi_def_cfa 7, 8
	ret
	.cfi_endproc
.LFE49:
	.size	send_signals, .-send_signals
	.section	.rodata
.LC38:
	.string	"/usr/local/share/locale"
.LC39:
	.string	"invalid option -- %c"
	.align 8
.LC40:
	.string	"%s: multiple signals specified"
	.align 8
.LC41:
	.string	"multiple -l or -t options specified"
.LC42:
	.string	"Paul Eggert"
	.align 8
.LC43:
	.string	"cannot combine signal with -l or -t"
.LC44:
	.string	"no process ID specified"
	.text
	.globl	main
	.type	main, @function
main:
.LFB50:
	.loc 2 222 1
	.cfi_startproc
	endbr64
	pushq	%rbp
	.cfi_def_cfa_offset 16
	.cfi_offset 6, -16
	movq	%rsp, %rbp
	.cfi_def_cfa_register 6
	pushq	%rbx
	subq	$72, %rsp
	.cfi_offset 3, -24
	movl	%edi, -68(%rbp)
	movq	%rsi, -80(%rbp)
	.loc 2 222 1
	movq	%fs:40, %rax
	movq	%rax, -24(%rbp)
	xorl	%eax, %eax
	.loc 2 224 8
	movb	$0, -58(%rbp)
	.loc 2 225 8
	movb	$0, -57(%rbp)
	.loc 2 226 7
	movl	$-1, -56(%rbp)
	.loc 2 230 3
	movq	-80(%rbp), %rax
	movq	(%rax), %rax
	movq	%rax, %rdi
	call	set_program_name@PLT
	.loc 2 231 3
	leaq	.LC17(%rip), %rsi
	movl	$6, %edi
	call	setlocale@PLT
	.loc 2 232 3
	leaq	.LC38(%rip), %rsi
	leaq	.LC3(%rip), %rdi
	call	bindtextdomain@PLT
	.loc 2 233 3
	leaq	.LC3(%rip), %rdi
	call	textdomain@PLT
	.loc 2 235 3
	movq	close_stdout@GOTPCREL(%rip), %rax
	movq	%rax, %rdi
	call	atexit@PLT
	.loc 2 237 9
	jmp	.L52
.L69:
	.loc 2 239 5
	cmpl	$116, -52(%rbp)
	jg	.L53
	cmpl	$48, -52(%rbp)
	jge	.L54
	cmpl	$-131, -52(%rbp)
	je	.L55
	cmpl	$-130, -52(%rbp)
	je	.L56
	jmp	.L53
.L54:
	movl	-52(%rbp), %eax
	subl	$48, %eax
	cmpl	$68, %eax
	ja	.L53
	movl	%eax, %eax
	leaq	0(,%rax,4), %rdx
	leaq	.L58(%rip), %rax
	movl	(%rdx,%rax), %eax
	cltq
	leaq	.L58(%rip), %rdx
	addq	%rdx, %rax
	notrack jmp	*%rax
	.section	.rodata
	.align 4
	.align 4
.L58:
	.long	.L62-.L58
	.long	.L62-.L58
	.long	.L62-.L58
	.long	.L62-.L58
	.long	.L62-.L58
	.long	.L62-.L58
	.long	.L62-.L58
	.long	.L62-.L58
	.long	.L62-.L58
	.long	.L62-.L58
	.long	.L53-.L58
	.long	.L53-.L58
	.long	.L53-.L58
	.long	.L53-.L58
	.long	.L53-.L58
	.long	.L53-.L58
	.long	.L53-.L58
	.long	.L61-.L58
	.long	.L61-.L58
	.long	.L61-.L58
	.long	.L61-.L58
	.long	.L61-.L58
	.long	.L61-.L58
	.long	.L61-.L58
	.long	.L61-.L58
	.long	.L61-.L58
	.long	.L61-.L58
	.long	.L61-.L58
	.long	.L57-.L58
	.long	.L61-.L58
	.long	.L61-.L58
	.long	.L61-.L58
	.long	.L61-.L58
	.long	.L61-.L58
	.long	.L61-.L58
	.long	.L61-.L58
	.long	.L61-.L58
	.long	.L61-.L58
	.long	.L61-.L58
	.long	.L61-.L58
	.long	.L61-.L58
	.long	.L61-.L58
	.long	.L61-.L58
	.long	.L53-.L58
	.long	.L53-.L58
	.long	.L53-.L58
	.long	.L53-.L58
	.long	.L53-.L58
	.long	.L53-.L58
	.long	.L53-.L58
	.long	.L53-.L58
	.long	.L53-.L58
	.long	.L53-.L58
	.long	.L53-.L58
	.long	.L53-.L58
	.long	.L53-.L58
	.long	.L53-.L58
	.long	.L53-.L58
	.long	.L53-.L58
	.long	.L53-.L58
	.long	.L60-.L58
	.long	.L53-.L58
	.long	.L59-.L58
	.long	.L53-.L58
	.long	.L53-.L58
	.long	.L53-.L58
	.long	.L53-.L58
	.long	.L59-.L58
	.long	.L57-.L58
	.text
.L62:
	.loc 2 243 20
	movl	optind(%rip), %eax
	.loc 2 243 12
	cmpl	$2, %eax
	je	.L61
	.loc 2 246 19
	movl	optind(%rip), %eax
	subl	$1, %eax
	movl	%eax, optind(%rip)
	.loc 2 247 13
	jmp	.L63
.L61:
	.loc 2 256 13
	movq	optarg(%rip), %rax
	.loc 2 256 12
	testq	%rax, %rax
	jne	.L64
	.loc 2 257 24
	movl	optind(%rip), %eax
	cltq
	salq	$3, %rax
	leaq	-8(%rax), %rdx
	movq	-80(%rbp), %rax
	addq	%rdx, %rax
	movq	(%rax), %rbx
	.loc 2 257 51
	movl	optind(%rip), %eax
	cltq
	salq	$3, %rax
	leaq	-8(%rax), %rdx
	movq	-80(%rbp), %rax
	addq	%rdx, %rax
	.loc 2 257 39
	movq	(%rax), %rax
	movq	%rax, %rdi
	call	strlen@PLT
	.loc 2 257 37
	addq	%rbx, %rax
	.loc 2 257 18
	movq	%rax, optarg(%rip)
.L64:
	.loc 2 258 27
	movl	optind(%rip), %eax
	cltq
	salq	$3, %rax
	leaq	-8(%rax), %rdx
	movq	-80(%rbp), %rax
	addq	%rdx, %rax
	movq	(%rax), %rax
	.loc 2 258 40
	leaq	2(%rax), %rdx
	.loc 2 258 20
	movq	optarg(%rip), %rax
	.loc 2 258 12
	cmpq	%rax, %rdx
	je	.L65
	.loc 2 260 26
	leaq	.LC39(%rip), %rdi
	call	gettext@PLT
	movq	%rax, %rdx
	.loc 2 260 13
	movl	-52(%rbp), %eax
	movl	%eax, %ecx
	movl	$0, %esi
	movl	$0, %edi
	movl	$0, %eax
	call	error@PLT
	.loc 2 261 13
	movl	$1, %edi
	call	usage
.L65:
	.loc 2 263 15
	movq	optarg(%rip), %rax
	subq	$1, %rax
	movq	%rax, optarg(%rip)
.L59:
	.loc 2 267 12
	cmpl	$0, -56(%rbp)
	js	.L66
	.loc 2 269 13
	movq	optarg(%rip), %rax
	movq	%rax, %rdi
	call	quote@PLT
	movq	%rax, %rbx
	.loc 2 269 26
	leaq	.LC40(%rip), %rdi
	call	gettext@PLT
	.loc 2 269 13
	movq	%rbx, %rcx
	movq	%rax, %rdx
	movl	$0, %esi
	movl	$0, %edi
	movl	$0, %eax
	call	error@PLT
	.loc 2 270 13
	movl	$1, %edi
	call	usage
.L66:
	.loc 2 272 18
	movq	optarg(%rip), %rax
	leaq	-48(%rbp), %rdx
	movq	%rdx, %rsi
	movq	%rax, %rdi
	call	operand2sig@PLT
	movl	%eax, -56(%rbp)
	.loc 2 273 12
	cmpl	$0, -56(%rbp)
	jns	.L52
	.loc 2 274 11
	movl	$1, %edi
	call	usage
.L57:
	.loc 2 279 15
	movb	$1, -57(%rbp)
.L60:
	.loc 2 282 12
	cmpb	$0, -58(%rbp)
	je	.L68
	.loc 2 284 26
	leaq	.LC41(%rip), %rdi
	call	gettext@PLT
	.loc 2 284 13
	movq	%rax, %rdx
	movl	$0, %esi
	movl	$0, %edi
	movl	$0, %eax
	call	error@PLT
	.loc 2 285 13
	movl	$1, %edi
	call	usage
.L68:
	.loc 2 287 14
	movb	$1, -58(%rbp)
	.loc 2 288 9
	jmp	.L52
.L56:
	.loc 2 290 7
	movl	$0, %edi
	call	usage
.L55:
	.loc 2 291 7
	movq	Version(%rip), %rdx
	movq	stdout(%rip), %rax
	movl	$0, %r9d
	leaq	.LC42(%rip), %r8
	movq	%rdx, %rcx
	leaq	.LC12(%rip), %rdx
	leaq	.LC32(%rip), %rsi
	movq	%rax, %rdi
	movl	$0, %eax
	call	version_etc@PLT
	movl	$0, %edi
	call	exit@PLT
.L53:
	.loc 2 293 9
	movl	$1, %edi
	call	usage
.L52:
	.loc 2 237 18
	movq	-80(%rbp), %rsi
	movl	-68(%rbp), %eax
	movl	$0, %r8d
	leaq	long_options(%rip), %rcx
	leaq	short_options(%rip), %rdx
	movl	%eax, %edi
	call	getopt_long@PLT
	movl	%eax, -52(%rbp)
	.loc 2 237 9
	cmpl	$-1, -52(%rbp)
	jne	.L69
	.loc 2 295 2
	nop
.L63:
	.loc 2 297 6
	cmpl	$0, -56(%rbp)
	jns	.L70
	.loc 2 298 12
	movl	$15, -56(%rbp)
	jmp	.L71
.L70:
	.loc 2 299 11
	cmpb	$0, -58(%rbp)
	je	.L71
	.loc 2 301 20
	leaq	.LC43(%rip), %rdi
	call	gettext@PLT
	.loc 2 301 7
	movq	%rax, %rdx
	movl	$0, %esi
	movl	$0, %edi
	movl	$0, %eax
	call	error@PLT
	.loc 2 302 7
	movl	$1, %edi
	call	usage
.L71:
	.loc 2 305 8
	movzbl	-58(%rbp), %eax
	xorl	$1, %eax
	.loc 2 305 6
	testb	%al, %al
	je	.L72
	.loc 2 305 23 discriminator 1
	movl	optind(%rip), %eax
	.loc 2 305 15 discriminator 1
	cmpl	%eax, -68(%rbp)
	jg	.L72
	.loc 2 307 20
	leaq	.LC44(%rip), %rdi
	call	gettext@PLT
	.loc 2 307 7
	movq	%rax, %rdx
	movl	$0, %esi
	movl	$0, %edi
	movl	$0, %eax
	call	error@PLT
	.loc 2 308 7
	movl	$1, %edi
	call	usage
.L72:
	.loc 2 313 11
	cmpb	$0, -58(%rbp)
	je	.L73
	.loc 2 312 41
	movl	optind(%rip), %eax
	.loc 2 312 13
	cmpl	%eax, -68(%rbp)
	jle	.L74
	.loc 2 312 55 discriminator 1
	movl	optind(%rip), %eax
	cltq
	leaq	0(,%rax,8), %rdx
	.loc 2 312 13 discriminator 1
	movq	-80(%rbp), %rax
	addq	%rax, %rdx
	jmp	.L75
.L74:
	.loc 2 312 13 is_stmt 0 discriminator 2
	movl	$0, %edx
.L75:
	.loc 2 312 13 discriminator 4
	movzbl	-57(%rbp), %eax
	movq	%rdx, %rsi
	movl	%eax, %edi
	call	list_signals
	jmp	.L77
.L73:
	.loc 2 313 40 is_stmt 1 discriminator 1
	movl	optind(%rip), %eax
	cltq
	leaq	0(,%rax,8), %rdx
	movq	-80(%rbp), %rax
	addq	%rax, %rdx
	.loc 2 313 13 discriminator 1
	movl	-56(%rbp), %eax
	movq	%rdx, %rsi
	movl	%eax, %edi
	call	send_signals
.L77:
	.loc 2 314 1 discriminator 1
	movq	-24(%rbp), %rcx
	xorq	%fs:40, %rcx
	je	.L78
	.loc 2 314 1 is_stmt 0
	call	__stack_chk_fail@PLT
.L78:
	addq	$72, %rsp
	popq	%rbx
	popq	%rbp
	.cfi_def_cfa 7, 8
	ret
	.cfi_endproc
.LFE50:
	.size	main, .-main
.Letext0:
	.file 3 "/usr/lib/gcc/x86_64-linux-gnu/9/include/stddef.h"
	.file 4 "/usr/include/x86_64-linux-gnu/bits/types.h"
	.file 5 "/usr/include/x86_64-linux-gnu/bits/types/struct_FILE.h"
	.file 6 "/usr/include/x86_64-linux-gnu/bits/types/FILE.h"
	.file 7 "/usr/include/stdio.h"
	.file 8 "/usr/include/x86_64-linux-gnu/bits/sys_errlist.h"
	.file 9 "/usr/include/x86_64-linux-gnu/sys/types.h"
	.file 10 "/usr/include/x86_64-linux-gnu/bits/types/time_t.h"
	.file 11 "./lib/sys/select.h"
	.file 12 "/usr/include/x86_64-linux-gnu/bits/getopt_core.h"
	.file 13 "/usr/include/x86_64-linux-gnu/bits/getopt_ext.h"
	.file 14 "/usr/include/signal.h"
	.file 15 "/usr/include/time.h"
	.file 16 "/usr/include/unistd.h"
	.file 17 "/usr/include/errno.h"
	.file 18 "src/version.h"
	.file 19 "./lib/exitfail.h"
	.file 20 "/usr/include/stdint.h"
	.file 21 "./lib/timespec.h"
	.file 22 "./lib/version-etc.h"
	.file 23 "./lib/progname.h"
	.file 24 "./lib/quotearg.h"
	.file 25 "./lib/error.h"
	.file 26 "./lib/quote.h"
	.section	.note.GNU-stack,"",@progbits
	.section	.note.gnu.property,"a"
	.align 8
	.long	 1f - 0f
	.long	 4f - 1f
	.long	 5
0:
	.string	 "GNU"
1:
	.align 8
	.long	 0xc0000002
	.long	 3f - 2f
2:
	.long	 0x3
3:
	.align 8
4:
