	.file	"ls.c"
	.text
.Ltext0:
	.type	initialize_exit_failure, @function
initialize_exit_failure:
.LFB6:
	.file 1 "src/system.h"
	.loc 1 100 1
	.cfi_startproc
	pushq	%rbp
	.cfi_def_cfa_offset 16
	.cfi_offset 6, -16
	movq	%rsp, %rbp
	.cfi_def_cfa_register 6
	movl	%edi, -4(%rbp)
	.loc 1 101 6
	cmpl	$1, -4(%rbp)
	je	.L3
	.loc 1 102 18
	movl	-4(%rbp), %eax
	movl	%eax, exit_failure(%rip)
.L3:
	.loc 1 103 1
	nop
	popq	%rbp
	.cfi_def_cfa 7, 8
	ret
	.cfi_endproc
.LFE6:
	.size	initialize_exit_failure, .-initialize_exit_failure
	.type	to_uchar, @function
to_uchar:
.LFB11:
	.loc 1 156 48
	.cfi_startproc
	pushq	%rbp
	.cfi_def_cfa_offset 16
	.cfi_offset 6, -16
	movq	%rsp, %rbp
	.cfi_def_cfa_register 6
	movl	%edi, %eax
	movb	%al, -4(%rbp)
	.loc 1 156 57
	movzbl	-4(%rbp), %eax
	.loc 1 156 61
	popq	%rbp
	.cfi_def_cfa 7, 8
	ret
	.cfi_endproc
.LFE11:
	.size	to_uchar, .-to_uchar
	.type	dot_or_dotdot, @function
dot_or_dotdot:
.LFB28:
	.loc 1 266 1
	.cfi_startproc
	pushq	%rbp
	.cfi_def_cfa_offset 16
	.cfi_offset 6, -16
	movq	%rsp, %rbp
	.cfi_def_cfa_register 6
	movq	%rdi, -24(%rbp)
	.loc 1 267 16
	movq	-24(%rbp), %rax
	movzbl	(%rax), %eax
	.loc 1 267 6
	cmpb	$46, %al
	jne	.L7
.LBB2:
	.loc 1 269 38
	movq	-24(%rbp), %rax
	addq	$1, %rax
	movzbl	(%rax), %eax
	.loc 1 269 27
	cmpb	$46, %al
	jne	.L8
	.loc 1 269 27 is_stmt 0 discriminator 1
	movl	$2, %edx
	jmp	.L9
.L8:
	.loc 1 269 27 discriminator 2
	movl	$1, %edx
.L9:
	.loc 1 269 27 discriminator 4
	movq	-24(%rbp), %rax
	addq	%rdx, %rax
	.loc 1 269 12 is_stmt 1 discriminator 4
	movzbl	(%rax), %eax
	movb	%al, -1(%rbp)
	.loc 1 270 21 discriminator 4
	cmpb	$0, -1(%rbp)
	je	.L10
	.loc 1 270 21 is_stmt 0 discriminator 2
	cmpb	$47, -1(%rbp)
	jne	.L11
.L10:
	.loc 1 270 21 discriminator 3
	movl	$1, %eax
	jmp	.L12
.L11:
	.loc 1 270 21 discriminator 4
	movl	$0, %eax
.L12:
	.loc 1 270 21 discriminator 6
	andl	$1, %eax
	jmp	.L13
.L7:
.LBE2:
	.loc 1 273 12 is_stmt 1
	movl	$0, %eax
.L13:
	.loc 1 274 1
	popq	%rbp
	.cfi_def_cfa 7, 8
	ret
	.cfi_endproc
.LFE28:
	.size	dot_or_dotdot, .-dot_or_dotdot
	.section	.rodata
	.align 8
.LC0:
	.string	"\nMandatory arguments to long options are mandatory for short options too.\n"
	.text
	.type	emit_mandatory_arg_note, @function
emit_mandatory_arg_note:
.LFB36:
	.loc 1 589 1
	.cfi_startproc
	pushq	%rbp
	.cfi_def_cfa_offset 16
	.cfi_offset 6, -16
	movq	%rsp, %rbp
	.cfi_def_cfa_register 6
	pushq	%rbx
	subq	$8, %rsp
	.cfi_offset 3, -24
	.loc 1 590 3
	movq	stdout(%rip), %rbx
	leaq	.LC0(%rip), %rdi
	call	gettext@PLT
	movq	%rbx, %rsi
	movq	%rax, %rdi
	call	fputs_unlocked@PLT
	.loc 1 593 1
	nop
	addq	$8, %rsp
	popq	%rbx
	popq	%rbp
	.cfi_def_cfa 7, 8
	ret
	.cfi_endproc
.LFE36:
	.size	emit_mandatory_arg_note, .-emit_mandatory_arg_note
	.section	.rodata
	.align 8
.LC1:
	.string	"\nThe SIZE argument is an integer and optional unit (example: 10K is 10*1024).\nUnits are K,M,G,T,P,E,Z,Y (powers of 1024) or KB,MB,... (powers of 1000).\nBinary prefixes can be used, too: KiB=K, MiB=M, and so on.\n"
	.text
	.type	emit_size_note, @function
emit_size_note:
.LFB37:
	.loc 1 597 1
	.cfi_startproc
	pushq	%rbp
	.cfi_def_cfa_offset 16
	.cfi_offset 6, -16
	movq	%rsp, %rbp
	.cfi_def_cfa_register 6
	pushq	%rbx
	subq	$8, %rsp
	.cfi_offset 3, -24
	.loc 1 598 3
	movq	stdout(%rip), %rbx
	leaq	.LC1(%rip), %rdi
	call	gettext@PLT
	movq	%rbx, %rsi
	movq	%rax, %rdi
	call	fputs_unlocked@PLT
	.loc 1 603 1
	nop
	addq	$8, %rsp
	popq	%rbx
	popq	%rbp
	.cfi_def_cfa 7, 8
	ret
	.cfi_endproc
.LFE37:
	.size	emit_size_note, .-emit_size_note
	.section	.rodata
.LC2:
	.string	"["
.LC3:
	.string	"test invocation"
.LC4:
	.string	"coreutils"
.LC5:
	.string	"Multi-call invocation"
.LC6:
	.string	"sha224sum"
.LC7:
	.string	"sha2 utilities"
.LC8:
	.string	"sha256sum"
.LC9:
	.string	"sha384sum"
.LC10:
	.string	"sha512sum"
.LC11:
	.string	"\n%s online help: <%s>\n"
	.align 8
.LC12:
	.string	"https://www.gnu.org/software/coreutils/"
.LC13:
	.string	"GNU coreutils"
.LC14:
	.string	"en_"
	.align 8
.LC15:
	.string	"Report any translation bugs to <https://translationproject.org/team/>\n"
.LC16:
	.string	"Full documentation <%s%s>\n"
.LC17:
	.string	" invocation"
.LC18:
	.string	""
	.align 8
.LC19:
	.string	"or available locally via: info '(coreutils) %s%s'\n"
	.text
	.type	emit_ancillary_info, @function
emit_ancillary_info:
.LFB40:
	.loc 1 635 1
	.cfi_startproc
	pushq	%rbp
	.cfi_def_cfa_offset 16
	.cfi_offset 6, -16
	movq	%rsp, %rbp
	.cfi_def_cfa_register 6
	pushq	%rbx
	subq	$184, %rsp
	.cfi_offset 3, -24
	movq	%rdi, -184(%rbp)
	.loc 1 635 1
	movq	%fs:40, %rax
	movq	%rax, -24(%rbp)
	xorl	%eax, %eax
	.loc 1 636 67
	leaq	.LC2(%rip), %rax
	movq	%rax, -144(%rbp)
	leaq	.LC3(%rip), %rax
	movq	%rax, -136(%rbp)
	leaq	.LC4(%rip), %rax
	movq	%rax, -128(%rbp)
	leaq	.LC5(%rip), %rax
	movq	%rax, -120(%rbp)
	leaq	.LC6(%rip), %rax
	movq	%rax, -112(%rbp)
	leaq	.LC7(%rip), %rax
	movq	%rax, -104(%rbp)
	leaq	.LC8(%rip), %rax
	movq	%rax, -96(%rbp)
	leaq	.LC7(%rip), %rax
	movq	%rax, -88(%rbp)
	leaq	.LC9(%rip), %rax
	movq	%rax, -80(%rbp)
	leaq	.LC7(%rip), %rax
	movq	%rax, -72(%rbp)
	leaq	.LC10(%rip), %rax
	movq	%rax, -64(%rbp)
	leaq	.LC7(%rip), %rax
	movq	%rax, -56(%rbp)
	movq	$0, -48(%rbp)
	movq	$0, -40(%rbp)
	.loc 1 646 15
	movq	-184(%rbp), %rax
	movq	%rax, -168(%rbp)
	.loc 1 647 25
	leaq	-144(%rbp), %rax
	movq	%rax, -160(%rbp)
	.loc 1 649 9
	jmp	.L17
.L19:
	.loc 1 650 13
	addq	$16, -160(%rbp)
.L17:
	.loc 1 649 18
	movq	-160(%rbp), %rax
	movq	(%rax), %rax
	.loc 1 649 9
	testq	%rax, %rax
	je	.L18
	.loc 1 649 33 discriminator 1
	movq	-160(%rbp), %rax
	movq	(%rax), %rdx
	movq	-184(%rbp), %rax
	movq	%rdx, %rsi
	movq	%rax, %rdi
	call	strcmp@PLT
	.loc 1 649 28 discriminator 1
	testl	%eax, %eax
	jne	.L19
.L18:
	.loc 1 652 15
	movq	-160(%rbp), %rax
	movq	8(%rax), %rax
	.loc 1 652 6
	testq	%rax, %rax
	je	.L20
	.loc 1 653 10
	movq	-160(%rbp), %rax
	movq	8(%rax), %rax
	movq	%rax, -168(%rbp)
.L20:
	.loc 1 655 11
	leaq	.LC11(%rip), %rdi
	call	gettext@PLT
	.loc 1 655 3
	leaq	.LC12(%rip), %rdx
	leaq	.LC13(%rip), %rsi
	movq	%rax, %rdi
	movl	$0, %eax
	call	printf@PLT
	.loc 1 659 29
	movl	$0, %esi
	movl	$5, %edi
	call	setlocale@PLT
	movq	%rax, -152(%rbp)
	.loc 1 660 6
	cmpq	$0, -152(%rbp)
	je	.L21
	.loc 1 660 22 discriminator 1
	movq	-152(%rbp), %rax
	movl	$3, %edx
	leaq	.LC14(%rip), %rsi
	movq	%rax, %rdi
	call	strncmp@PLT
	.loc 1 660 19 discriminator 1
	testl	%eax, %eax
	je	.L21
	.loc 1 666 7
	movq	stdout(%rip), %rbx
	leaq	.LC15(%rip), %rdi
	call	gettext@PLT
	movq	%rbx, %rsi
	movq	%rax, %rdi
	call	fputs_unlocked@PLT
.L21:
	.loc 1 669 11
	leaq	.LC16(%rip), %rdi
	call	gettext@PLT
	movq	%rax, %rcx
	.loc 1 669 3
	movq	-184(%rbp), %rax
	movq	%rax, %rdx
	leaq	.LC12(%rip), %rsi
	movq	%rcx, %rdi
	movl	$0, %eax
	call	printf@PLT
	.loc 1 671 3
	movq	-168(%rbp), %rax
	cmpq	-184(%rbp), %rax
	jne	.L22
	.loc 1 671 3 is_stmt 0 discriminator 1
	leaq	.LC17(%rip), %rbx
	jmp	.L23
.L22:
	.loc 1 671 3 discriminator 2
	leaq	.LC18(%rip), %rbx
.L23:
	.loc 1 671 11 is_stmt 1 discriminator 4
	leaq	.LC19(%rip), %rdi
	call	gettext@PLT
	movq	%rax, %rcx
	.loc 1 671 3 discriminator 4
	movq	-168(%rbp), %rax
	movq	%rbx, %rdx
	movq	%rax, %rsi
	movq	%rcx, %rdi
	movl	$0, %eax
	call	printf@PLT
	.loc 1 673 1 discriminator 4
	nop
	movq	-24(%rbp), %rax
	xorq	%fs:40, %rax
	je	.L24
	.loc 1 673 1 is_stmt 0
	call	__stack_chk_fail@PLT
.L24:
	addq	$184, %rsp
	popq	%rbx
	popq	%rbp
	.cfi_def_cfa 7, 8
	ret
	.cfi_endproc
.LFE40:
	.size	emit_ancillary_info, .-emit_ancillary_info
	.type	timetostr, @function
timetostr:
.LFB41:
	.loc 1 691 1 is_stmt 1
	.cfi_startproc
	pushq	%rbp
	.cfi_def_cfa_offset 16
	.cfi_offset 6, -16
	movq	%rsp, %rbp
	.cfi_def_cfa_register 6
	subq	$16, %rsp
	movq	%rdi, -8(%rbp)
	movq	%rsi, -16(%rbp)
	.loc 1 694 11
	movq	-16(%rbp), %rdx
	movq	-8(%rbp), %rax
	movq	%rdx, %rsi
	movq	%rax, %rdi
	call	imaxtostr@PLT
	.loc 1 695 1
	leave
	.cfi_def_cfa 7, 8
	ret
	.cfi_endproc
.LFE41:
	.size	timetostr, .-timetostr
	.type	bad_cast, @function
bad_cast:
.LFB42:
	.loc 1 699 1
	.cfi_startproc
	pushq	%rbp
	.cfi_def_cfa_offset 16
	.cfi_offset 6, -16
	movq	%rsp, %rbp
	.cfi_def_cfa_register 6
	movq	%rdi, -8(%rbp)
	.loc 1 700 10
	movq	-8(%rbp), %rax
	.loc 1 701 1
	popq	%rbp
	.cfi_def_cfa 7, 8
	ret
	.cfi_endproc
.LFE42:
	.size	bad_cast, .-bad_cast
	.type	is_ENOTSUP, @function
is_ENOTSUP:
.LFB45:
	.loc 1 760 1
	.cfi_startproc
	pushq	%rbp
	.cfi_def_cfa_offset 16
	.cfi_offset 6, -16
	movq	%rsp, %rbp
	.cfi_def_cfa_register 6
	movl	%edi, -4(%rbp)
	.loc 1 761 28
	cmpl	$95, -4(%rbp)
	sete	%al
	.loc 1 762 1
	popq	%rbp
	.cfi_def_cfa 7, 8
	ret
	.cfi_endproc
.LFE45:
	.size	is_ENOTSUP, .-is_ENOTSUP
	.type	is_smack_enabled, @function
is_smack_enabled:
.LFB48:
	.file 2 "./lib/smack.h"
	.loc 2 40 1
	.cfi_startproc
	pushq	%rbp
	.cfi_def_cfa_offset 16
	.cfi_offset 6, -16
	movq	%rsp, %rbp
	.cfi_def_cfa_register 6
	.loc 2 44 10
	movl	$0, %eax
	.loc 2 46 1
	popq	%rbp
	.cfi_def_cfa 7, 8
	ret
	.cfi_endproc
.LFE48:
	.size	is_smack_enabled, .-is_smack_enabled
	.section	.rodata
	.align 32
	.type	G_line, @object
	.size	G_line, 4304
G_line:
	.string	"# Configuration file for dircolors, a utility to help you set the"
	.string	"# LS_COLORS environment variable used by GNU ls with the --color option."
	.string	"# Copyright (C) 1996-2020 Free Software Foundation, Inc."
	.string	"# Copying and distribution of this file, with or without modification,"
	.string	"# are permitted provided the copyright notice and this notice are preserved."
	.string	"# The keywords COLOR, OPTIONS, and EIGHTBIT (honored by the"
	.string	"# slackware version of dircolors) are recognized but ignored."
	.string	"# Below are TERM entries, which can be a glob patterns, to match"
	.string	"# against the TERM environment variable to determine if it is colorizable."
	.string	"TERM Eterm"
	.string	"TERM ansi"
	.string	"TERM *color*"
	.string	"TERM con[0-9]*x[0-9]*"
	.string	"TERM cons25"
	.string	"TERM console"
	.string	"TERM cygwin"
	.string	"TERM dtterm"
	.string	"TERM gnome"
	.string	"TERM hurd"
	.string	"TERM jfbterm"
	.string	"TERM konsole"
	.string	"TERM kterm"
	.string	"TERM linux"
	.string	"TERM linux-c"
	.string	"TERM mlterm"
	.string	"TERM putty"
	.string	"TERM rxvt*"
	.string	"TERM screen*"
	.string	"TERM st"
	.string	"TERM terminator"
	.string	"TERM tmux*"
	.string	"TERM vt100"
	.string	"TERM xterm*"
	.string	"# Below are the color init strings for the basic file types."
	.string	"# One can use codes for 256 or more colors supported by modern terminals."
	.string	"# The default color codes use the capabilities of an 8 color terminal"
	.string	"# with some additional attributes as per the following codes:"
	.string	"# Attribute codes:"
	.string	"# 00=none 01=bold 04=underscore 05=blink 07=reverse 08=concealed"
	.string	"# Text color codes:"
	.string	"# 30=black 31=red 32=green 33=yellow 34=blue 35=magenta 36=cyan 37=white"
	.string	"# Background color codes:"
	.string	"# 40=black 41=red 42=green 43=yellow 44=blue 45=magenta 46=cyan 47=white"
	.string	"#NORMAL 00 # no color code at all"
	.string	"#FILE 00 # regular file: use no color at all"
	.string	"RESET 0 # reset to \"normal\" color"
	.string	"DIR 01;34 # directory"
	.string	"LINK 01;36 # symbolic link. (If you set this to 'target' instead of a"
	.string	" # numerical value, the color is as for the file pointed to.)"
	.string	"MULTIHARDLINK 00 # regular file with more than one link"
	.string	"FIFO 40;33 # pipe"
	.string	"SOCK 01;35 # socket"
	.string	"DOOR 01;35 # door"
	.string	"BLK 40;33;01 # block device driver"
	.string	"CHR 40;33;01 # character device driver"
	.string	"ORPHAN 40;31;01 # symlink to nonexistent file, or non-stat'able file ..."
	.ascii	"MISSING 00 # ... and the files th"
	.string	"ey point to"
	.string	"SETUID 37;41 # file that is setuid (u+s)"
	.string	"SETGID 30;43 # file that is setgid (g+s)"
	.string	"CAPABILITY 30;41 # file with capability"
	.string	"STICKY_OTHER_WRITABLE 30;42 # dir that is sticky and other-writable (+t,o+w)"
	.string	"OTHER_WRITABLE 34;42 # dir that is other-writable (o+w) and not sticky"
	.string	"STICKY 37;44 # dir with the sticky bit set (+t) and not other-writable"
	.string	"# This is for files with execute permission:"
	.string	"EXEC 01;32"
	.string	"# List any file extensions like '.gz' or '.tar' that you would like ls"
	.string	"# to colorize below. Put the extension, a space, and the color init string."
	.string	"# (and any comments you want to add after a '#')"
	.string	"# If you use DOS-style suffixes, you may want to uncomment the following:"
	.string	"#.cmd 01;32 # executables (bright green)"
	.string	"#.exe 01;32"
	.string	"#.com 01;32"
	.string	"#.btm 01;32"
	.string	"#.bat 01;32"
	.string	"# Or if you want to colorize scripts even if they do not have the"
	.string	"# executable bit actually set."
	.string	"#.sh 01;32"
	.string	"#.csh 01;32"
	.string	" # archives or compressed (bright red)"
	.string	".tar 01;31"
	.string	".tgz 01;31"
	.string	".arc 01;31"
	.string	".arj 01;31"
	.string	".taz 01;31"
	.string	".lha 01;31"
	.string	".lz4 01;31"
	.string	".lzh 01;31"
	.string	".lzma 01;31"
	.string	".tlz 01;31"
	.string	".txz 01;31"
	.string	".tzo 01;31"
	.string	".t7z 01;31"
	.string	".zip 01;31"
	.string	".z 01;31"
	.string	".dz 01;31"
	.string	".gz 01;31"
	.string	".lrz 01;31"
	.string	".lz 01;31"
	.string	".lzo 01;31"
	.string	".xz 01;31"
	.string	".zst 01;31"
	.string	".tzst 01;31"
	.string	".bz2 01;31"
	.string	".bz 01;31"
	.string	".tbz 01;31"
	.string	".tbz2 01;31"
	.string	".tz 01;31"
	.string	".deb 01;31"
	.string	".rpm 01;31"
	.string	".jar 01;31"
	.string	".war 01;31"
	.string	".ear 01;31"
	.string	".sar 01;31"
	.string	".rar 01;31"
	.string	".alz 01;31"
	.string	".ace 01;31"
	.string	".zoo 01;31"
	.string	".cpio 01;31"
	.string	".7z 01;31"
	.string	".rz 01;31"
	.string	".cab 01;31"
	.string	".wim 01;31"
	.string	".swm 01;31"
	.string	".dwm 01;31"
	.string	".esd 01;31"
	.string	"# image formats"
	.string	".jpg 01;35"
	.string	".jpeg 01;35"
	.string	".mjpg 01;35"
	.string	".mjpeg 01;35"
	.string	".gif 01;35"
	.string	".bmp 01;35"
	.string	".pbm 01;35"
	.string	".pgm 01;35"
	.string	".ppm 01;35"
	.string	".tga 01;35"
	.string	".xbm 01;35"
	.string	".xpm 01;35"
	.string	".tif 01;35"
	.string	".tiff 01;35"
	.string	".png 01;35"
	.string	".svg 01;35"
	.string	".svgz 01;35"
	.string	".mng 01;35"
	.string	".pcx 01;35"
	.string	".mov 01;35"
	.string	".mpg 01;35"
	.string	".mpeg 01;35"
	.string	".m2v 01;35"
	.string	".mkv 01;35"
	.string	".webm 01;35"
	.string	".webp 01;35"
	.string	".ogm 01;35"
	.string	".mp4 01;35"
	.string	".m4v 01;35"
	.string	".mp4v 01;35"
	.string	".vob 01;35"
	.string	".qt 01;35"
	.string	".nuv 01;35"
	.string	".wmv 01;35"
	.string	".asf 01;35"
	.string	".rm 01;35"
	.string	".rmvb 01;35"
	.string	".flc 01;35"
	.string	".avi 01;35"
	.string	".fli 01;35"
	.string	".flv 01;35"
	.string	".gl 01;35"
	.string	".dl 01;35"
	.string	".xcf 01;35"
	.string	".xwd 01;35"
	.string	".yuv 01;35"
	.string	".cgm 01;35"
	.string	".emf 01;35"
	.ascii	"# https://wiki.xiph.or"
	.string	"g/MIME_Types_and_File_Extensions"
	.string	".ogv 01;35"
	.string	".ogx 01;35"
	.string	"# audio formats"
	.string	".aac 00;36"
	.string	".au 00;36"
	.string	".flac 00;36"
	.string	".m4a 00;36"
	.string	".mid 00;36"
	.string	".midi 00;36"
	.string	".mka 00;36"
	.string	".mp3 00;36"
	.string	".mpc 00;36"
	.string	".ogg 00;36"
	.string	".ra 00;36"
	.string	".wav 00;36"
	.string	"# https://wiki.xiph.org/MIME_Types_and_File_Extensions"
	.string	".oga 00;36"
	.string	".opus 00;36"
	.string	".spx 00;36"
	.string	".xspf 00;36"
	.text
	.type	statx_timestamp_to_timespec, @function
statx_timestamp_to_timespec:
.LFB73:
	.file 3 "src/statx.h"
	.loc 3 24 1
	.cfi_startproc
	pushq	%rbp
	.cfi_def_cfa_offset 16
	.cfi_offset 6, -16
	movq	%rsp, %rbp
	.cfi_def_cfa_register 6
	movq	%rdi, %rax
	movq	%rsi, %rcx
	movq	%rcx, %rdx
	movq	%rax, -32(%rbp)
	movq	%rdx, -24(%rbp)
	.loc 3 27 18
	movq	-32(%rbp), %rax
	.loc 3 27 13
	movq	%rax, -16(%rbp)
	.loc 3 28 19
	movl	-24(%rbp), %eax
	movl	%eax, %eax
	.loc 3 28 14
	movq	%rax, -8(%rbp)
	.loc 3 29 10
	movq	-16(%rbp), %rax
	movq	-8(%rbp), %rdx
	.loc 3 30 1
	popq	%rbp
	.cfi_def_cfa 7, 8
	ret
	.cfi_endproc
.LFE73:
	.size	statx_timestamp_to_timespec, .-statx_timestamp_to_timespec
	.type	statx_to_stat, @function
statx_to_stat:
.LFB74:
	.loc 3 34 1
	.cfi_startproc
	pushq	%rbp
	.cfi_def_cfa_offset 16
	.cfi_offset 6, -16
	movq	%rsp, %rbp
	.cfi_def_cfa_register 6
	pushq	%rbx
	subq	$24, %rsp
	.cfi_offset 3, -24
	movq	%rdi, -24(%rbp)
	movq	%rsi, -32(%rbp)
	.loc 3 35 18
	movq	-24(%rbp), %rax
	movl	140(%rax), %edx
	movq	-24(%rbp), %rax
	movl	136(%rax), %eax
	movl	%edx, %esi
	movl	%eax, %edi
	call	gnu_dev_makedev@PLT
	.loc 3 35 16
	movq	-32(%rbp), %rdx
	movq	%rax, (%rdx)
	.loc 3 36 21
	movq	-24(%rbp), %rax
	movq	32(%rax), %rdx
	.loc 3 36 16
	movq	-32(%rbp), %rax
	movq	%rdx, 8(%rax)
	.loc 3 37 22
	movq	-24(%rbp), %rax
	movzwl	28(%rax), %eax
	movzwl	%ax, %edx
	.loc 3 37 17
	movq	-32(%rbp), %rax
	movl	%edx, 24(%rax)
	.loc 3 38 23
	movq	-24(%rbp), %rax
	movl	16(%rax), %eax
	movl	%eax, %edx
	.loc 3 38 18
	movq	-32(%rbp), %rax
	movq	%rdx, 16(%rax)
	.loc 3 39 21
	movq	-24(%rbp), %rax
	movl	20(%rax), %edx
	.loc 3 39 16
	movq	-32(%rbp), %rax
	movl	%edx, 28(%rax)
	.loc 3 40 21
	movq	-24(%rbp), %rax
	movl	24(%rax), %edx
	.loc 3 40 16
	movq	-32(%rbp), %rax
	movl	%edx, 32(%rax)
	.loc 3 41 19
	movq	-24(%rbp), %rax
	movl	132(%rax), %edx
	movq	-24(%rbp), %rax
	movl	128(%rax), %eax
	movl	%edx, %esi
	movl	%eax, %edi
	call	gnu_dev_makedev@PLT
	.loc 3 41 17
	movq	-32(%rbp), %rdx
	movq	%rax, 40(%rdx)
	.loc 3 42 22
	movq	-24(%rbp), %rax
	movq	40(%rax), %rax
	movq	%rax, %rdx
	.loc 3 42 17
	movq	-32(%rbp), %rax
	movq	%rdx, 48(%rax)
	.loc 3 43 25
	movq	-24(%rbp), %rax
	movl	4(%rax), %eax
	movl	%eax, %edx
	.loc 3 43 20
	movq	-32(%rbp), %rax
	movq	%rdx, 56(%rax)
	.loc 3 46 27
	movq	-24(%rbp), %rax
	movq	48(%rax), %rax
	movq	%rax, %rdx
	.loc 3 46 22
	movq	-32(%rbp), %rax
	movq	%rdx, 64(%rax)
	.loc 3 47 19
	movq	-32(%rbp), %rbx
	movq	-24(%rbp), %rax
	movq	64(%rax), %rdx
	movq	72(%rax), %rax
	movq	%rdx, %rdi
	movq	%rax, %rsi
	call	statx_timestamp_to_timespec
	movq	%rax, 72(%rbx)
	movq	%rdx, 80(%rbx)
	.loc 3 48 19
	movq	-32(%rbp), %rbx
	movq	-24(%rbp), %rax
	movq	112(%rax), %rdx
	movq	120(%rax), %rax
	movq	%rdx, %rdi
	movq	%rax, %rsi
	call	statx_timestamp_to_timespec
	movq	%rax, 88(%rbx)
	movq	%rdx, 96(%rbx)
	.loc 3 49 19
	movq	-32(%rbp), %rbx
	movq	-24(%rbp), %rax
	movq	96(%rax), %rdx
	movq	104(%rax), %rax
	movq	%rdx, %rdi
	movq	%rax, %rsi
	call	statx_timestamp_to_timespec
	movq	%rax, 104(%rbx)
	movq	%rdx, 112(%rbx)
	.loc 3 50 1
	nop
	addq	$24, %rsp
	popq	%rbx
	popq	%rbp
	.cfi_def_cfa 7, 8
	ret
	.cfi_endproc
.LFE74:
	.size	statx_to_stat, .-statx_to_stat
	.section	.rodata
	.align 8
	.type	filetype_letter, @object
	.size	filetype_letter, 11
filetype_letter:
	.string	"?pcdb-lswd"
	.local	active_dir_set
	.comm	active_dir_set,8,8
	.local	cwd_file
	.comm	cwd_file,8,8
	.local	cwd_n_alloc
	.comm	cwd_n_alloc,8,8
	.local	cwd_n_used
	.comm	cwd_n_used,8,8
	.local	cwd_some_quoted
	.comm	cwd_some_quoted,1,1
	.local	align_variable_outer_quotes
	.comm	align_variable_outer_quotes,1,1
	.local	sorted_file
	.comm	sorted_file,8,8
	.local	sorted_file_alloc
	.comm	sorted_file_alloc,8,8
	.local	color_symlink_as_referent
	.comm	color_symlink_as_referent,1,1
	.local	hostname
	.comm	hostname,8,8
	.local	pending_dirs
	.comm	pending_dirs,8,8
	.local	current_time
	.comm	current_time,16,16
	.local	print_scontext
	.comm	print_scontext,1,1
	.data
	.type	UNKNOWN_SECURITY_CONTEXT, @object
	.size	UNKNOWN_SECURITY_CONTEXT, 2
UNKNOWN_SECURITY_CONTEXT:
	.string	"?"
	.local	any_has_acl
	.comm	any_has_acl,1,1
	.local	inode_number_width
	.comm	inode_number_width,4,4
	.local	block_size_width
	.comm	block_size_width,4,4
	.local	nlink_width
	.comm	nlink_width,4,4
	.local	scontext_width
	.comm	scontext_width,4,4
	.local	owner_width
	.comm	owner_width,4,4
	.local	group_width
	.comm	group_width,4,4
	.local	author_width
	.comm	author_width,4,4
	.local	major_device_number_width
	.comm	major_device_number_width,4,4
	.local	minor_device_number_width
	.comm	minor_device_number_width,4,4
	.local	file_size_width
	.comm	file_size_width,4,4
	.local	format
	.comm	format,4,4
	.section	.rodata
.LC20:
	.string	"full-iso"
.LC21:
	.string	"long-iso"
.LC22:
	.string	"iso"
.LC23:
	.string	"locale"
	.section	.data.rel.ro.local,"aw"
	.align 32
	.type	time_style_args, @object
	.size	time_style_args, 40
time_style_args:
	.quad	.LC20
	.quad	.LC21
	.quad	.LC22
	.quad	.LC23
	.quad	0
	.section	.rodata
	.align 16
	.type	time_style_types, @object
	.size	time_style_types, 16
time_style_types:
	.long	0
	.long	1
	.long	2
	.long	3
	.local	time_type
	.comm	time_type,4,4
	.local	sort_type
	.comm	sort_type,4,4
	.local	sort_reverse
	.comm	sort_reverse,1,1
	.data
	.type	print_owner, @object
	.size	print_owner, 1
print_owner:
	.byte	1
	.local	print_author
	.comm	print_author,1,1
	.type	print_group, @object
	.size	print_group, 1
print_group:
	.byte	1
	.local	numeric_ids
	.comm	numeric_ids,1,1
	.local	print_block_size
	.comm	print_block_size,1,1
	.local	human_output_opts
	.comm	human_output_opts,4,4
	.local	output_block_size
	.comm	output_block_size,8,8
	.local	file_human_output_opts
	.comm	file_human_output_opts,4,4
	.align 8
	.type	file_output_block_size, @object
	.size	file_output_block_size, 8
file_output_block_size:
	.quad	1
	.local	dired
	.comm	dired,1,1
	.local	indicator_style
	.comm	indicator_style,4,4
	.section	.rodata
.LC24:
	.string	"none"
.LC25:
	.string	"slash"
.LC26:
	.string	"file-type"
.LC27:
	.string	"classify"
	.section	.data.rel.ro.local
	.align 32
	.type	indicator_style_args, @object
	.size	indicator_style_args, 40
indicator_style_args:
	.quad	.LC24
	.quad	.LC25
	.quad	.LC26
	.quad	.LC27
	.quad	0
	.section	.rodata
	.align 16
	.type	indicator_style_types, @object
	.size	indicator_style_types, 16
indicator_style_types:
	.long	0
	.long	1
	.long	2
	.long	3
	.local	print_with_color
	.comm	print_with_color,1,1
	.local	print_hyperlink
	.comm	print_hyperlink,1,1
	.local	used_color
	.comm	used_color,1,1
.LC28:
	.string	"lc"
.LC29:
	.string	"rc"
.LC30:
	.string	"ec"
.LC31:
	.string	"rs"
.LC32:
	.string	"no"
.LC33:
	.string	"fi"
.LC34:
	.string	"di"
.LC35:
	.string	"ln"
.LC36:
	.string	"pi"
.LC37:
	.string	"so"
.LC38:
	.string	"bd"
.LC39:
	.string	"cd"
.LC40:
	.string	"mi"
.LC41:
	.string	"or"
.LC42:
	.string	"ex"
.LC43:
	.string	"do"
.LC44:
	.string	"su"
.LC45:
	.string	"sg"
.LC46:
	.string	"st"
.LC47:
	.string	"ow"
.LC48:
	.string	"tw"
.LC49:
	.string	"ca"
.LC50:
	.string	"mh"
.LC51:
	.string	"cl"
	.section	.data.rel.ro.local
	.align 32
	.type	indicator_name, @object
	.size	indicator_name, 200
indicator_name:
	.quad	.LC28
	.quad	.LC29
	.quad	.LC30
	.quad	.LC31
	.quad	.LC32
	.quad	.LC33
	.quad	.LC34
	.quad	.LC35
	.quad	.LC36
	.quad	.LC37
	.quad	.LC38
	.quad	.LC39
	.quad	.LC40
	.quad	.LC41
	.quad	.LC42
	.quad	.LC43
	.quad	.LC44
	.quad	.LC45
	.quad	.LC46
	.quad	.LC47
	.quad	.LC48
	.quad	.LC49
	.quad	.LC50
	.quad	.LC51
	.quad	0
	.section	.rodata
.LC52:
	.string	"\033["
.LC53:
	.string	"m"
.LC54:
	.string	"0"
.LC55:
	.string	"01;34"
.LC56:
	.string	"01;36"
.LC57:
	.string	"33"
.LC58:
	.string	"01;35"
.LC59:
	.string	"01;33"
.LC60:
	.string	"01;32"
.LC61:
	.string	"37;41"
.LC62:
	.string	"30;43"
.LC63:
	.string	"37;44"
.LC64:
	.string	"34;42"
.LC65:
	.string	"30;42"
.LC66:
	.string	"30;41"
.LC67:
	.string	"\033[K"
	.section	.data.rel.local,"aw"
	.align 32
	.type	color_indicator, @object
	.size	color_indicator, 384
color_indicator:
	.quad	2
	.quad	.LC52
	.quad	1
	.quad	.LC53
	.quad	0
	.quad	0
	.quad	1
	.quad	.LC54
	.quad	0
	.quad	0
	.quad	0
	.quad	0
	.quad	5
	.quad	.LC55
	.quad	5
	.quad	.LC56
	.quad	2
	.quad	.LC57
	.quad	5
	.quad	.LC58
	.quad	5
	.quad	.LC59
	.quad	5
	.quad	.LC59
	.quad	0
	.quad	0
	.quad	0
	.quad	0
	.quad	5
	.quad	.LC60
	.quad	5
	.quad	.LC58
	.quad	5
	.quad	.LC61
	.quad	5
	.quad	.LC62
	.quad	5
	.quad	.LC63
	.quad	5
	.quad	.LC64
	.quad	5
	.quad	.LC65
	.quad	5
	.quad	.LC66
	.quad	0
	.quad	0
	.quad	3
	.quad	.LC67
	.local	color_ext_list
	.comm	color_ext_list,8,8
	.local	color_buf
	.comm	color_buf,8,8
	.local	check_symlink_mode
	.comm	check_symlink_mode,1,1
	.local	print_inode
	.comm	print_inode,1,1
	.local	dereference
	.comm	dereference,4,4
	.local	recursive
	.comm	recursive,1,1
	.local	immediate_dirs
	.comm	immediate_dirs,1,1
	.local	directories_first
	.comm	directories_first,1,1
	.local	ignore_mode
	.comm	ignore_mode,4,4
	.local	ignore_patterns
	.comm	ignore_patterns,8,8
	.local	hide_patterns
	.comm	hide_patterns,8,8
	.local	qmark_funny_chars
	.comm	qmark_funny_chars,1,1
	.local	filename_quoting_options
	.comm	filename_quoting_options,8,8
	.local	dirname_quoting_options
	.comm	dirname_quoting_options,8,8
	.local	tabsize
	.comm	tabsize,8,8
	.local	print_dir_name
	.comm	print_dir_name,1,1
	.local	line_length
	.comm	line_length,8,8
	.local	localtz
	.comm	localtz,8,8
	.local	format_needs_stat
	.comm	format_needs_stat,1,1
	.local	format_needs_type
	.comm	format_needs_type,1,1
	.section	.rodata
.LC68:
	.string	"%b %e  %Y"
.LC69:
	.string	"%b %e %H:%M"
	.section	.data.rel.local
	.align 16
	.type	long_time_format, @object
	.size	long_time_format, 16
long_time_format:
	.quad	.LC68
	.quad	.LC69
	.local	caught_signals
	.comm	caught_signals,128,32
	.local	interrupt_signal
	.comm	interrupt_signal,4,4
	.local	stop_signal_count
	.comm	stop_signal_count,4,4
	.local	exit_status
	.comm	exit_status,4,4
	.section	.rodata
.LC70:
	.string	"all"
.LC71:
	.string	"escape"
.LC72:
	.string	"directory"
.LC73:
	.string	"dired"
.LC74:
	.string	"full-time"
.LC75:
	.string	"group-directories-first"
.LC76:
	.string	"human-readable"
.LC77:
	.string	"inode"
.LC78:
	.string	"kibibytes"
.LC79:
	.string	"numeric-uid-gid"
.LC80:
	.string	"no-group"
.LC81:
	.string	"hide-control-chars"
.LC82:
	.string	"reverse"
.LC83:
	.string	"size"
.LC84:
	.string	"width"
.LC85:
	.string	"almost-all"
.LC86:
	.string	"ignore-backups"
.LC87:
	.string	"si"
.LC88:
	.string	"dereference-command-line"
	.align 8
.LC89:
	.string	"dereference-command-line-symlink-to-dir"
.LC90:
	.string	"hide"
.LC91:
	.string	"ignore"
.LC92:
	.string	"indicator-style"
.LC93:
	.string	"dereference"
.LC94:
	.string	"literal"
.LC95:
	.string	"quote-name"
.LC96:
	.string	"quoting-style"
.LC97:
	.string	"recursive"
.LC98:
	.string	"format"
.LC99:
	.string	"show-control-chars"
.LC100:
	.string	"sort"
.LC101:
	.string	"tabsize"
.LC102:
	.string	"time"
.LC103:
	.string	"time-style"
.LC104:
	.string	"color"
.LC105:
	.string	"hyperlink"
.LC106:
	.string	"block-size"
.LC107:
	.string	"context"
.LC108:
	.string	"author"
.LC109:
	.string	"help"
.LC110:
	.string	"version"
	.section	.data.rel.ro.local
	.align 32
	.type	long_options, @object
	.size	long_options, 1408
long_options:
	.quad	.LC70
	.long	0
	.zero	4
	.quad	0
	.long	97
	.zero	4
	.quad	.LC71
	.long	0
	.zero	4
	.quad	0
	.long	98
	.zero	4
	.quad	.LC72
	.long	0
	.zero	4
	.quad	0
	.long	100
	.zero	4
	.quad	.LC73
	.long	0
	.zero	4
	.quad	0
	.long	68
	.zero	4
	.quad	.LC74
	.long	0
	.zero	4
	.quad	0
	.long	134
	.zero	4
	.quad	.LC75
	.long	0
	.zero	4
	.quad	0
	.long	135
	.zero	4
	.quad	.LC76
	.long	0
	.zero	4
	.quad	0
	.long	104
	.zero	4
	.quad	.LC77
	.long	0
	.zero	4
	.quad	0
	.long	105
	.zero	4
	.quad	.LC78
	.long	0
	.zero	4
	.quad	0
	.long	107
	.zero	4
	.quad	.LC79
	.long	0
	.zero	4
	.quad	0
	.long	110
	.zero	4
	.quad	.LC80
	.long	0
	.zero	4
	.quad	0
	.long	71
	.zero	4
	.quad	.LC81
	.long	0
	.zero	4
	.quad	0
	.long	113
	.zero	4
	.quad	.LC82
	.long	0
	.zero	4
	.quad	0
	.long	114
	.zero	4
	.quad	.LC83
	.long	0
	.zero	4
	.quad	0
	.long	115
	.zero	4
	.quad	.LC84
	.long	1
	.zero	4
	.quad	0
	.long	119
	.zero	4
	.quad	.LC85
	.long	0
	.zero	4
	.quad	0
	.long	65
	.zero	4
	.quad	.LC86
	.long	0
	.zero	4
	.quad	0
	.long	66
	.zero	4
	.quad	.LC27
	.long	2
	.zero	4
	.quad	0
	.long	70
	.zero	4
	.quad	.LC26
	.long	0
	.zero	4
	.quad	0
	.long	132
	.zero	4
	.quad	.LC87
	.long	0
	.zero	4
	.quad	0
	.long	141
	.zero	4
	.quad	.LC88
	.long	0
	.zero	4
	.quad	0
	.long	72
	.zero	4
	.quad	.LC89
	.long	0
	.zero	4
	.quad	0
	.long	131
	.zero	4
	.quad	.LC90
	.long	1
	.zero	4
	.quad	0
	.long	136
	.zero	4
	.quad	.LC91
	.long	1
	.zero	4
	.quad	0
	.long	73
	.zero	4
	.quad	.LC92
	.long	1
	.zero	4
	.quad	0
	.long	138
	.zero	4
	.quad	.LC93
	.long	0
	.zero	4
	.quad	0
	.long	76
	.zero	4
	.quad	.LC94
	.long	0
	.zero	4
	.quad	0
	.long	78
	.zero	4
	.quad	.LC95
	.long	0
	.zero	4
	.quad	0
	.long	81
	.zero	4
	.quad	.LC96
	.long	1
	.zero	4
	.quad	0
	.long	139
	.zero	4
	.quad	.LC97
	.long	0
	.zero	4
	.quad	0
	.long	82
	.zero	4
	.quad	.LC98
	.long	1
	.zero	4
	.quad	0
	.long	133
	.zero	4
	.quad	.LC99
	.long	0
	.zero	4
	.quad	0
	.long	140
	.zero	4
	.quad	.LC100
	.long	1
	.zero	4
	.quad	0
	.long	142
	.zero	4
	.quad	.LC101
	.long	1
	.zero	4
	.quad	0
	.long	84
	.zero	4
	.quad	.LC102
	.long	1
	.zero	4
	.quad	0
	.long	143
	.zero	4
	.quad	.LC103
	.long	1
	.zero	4
	.quad	0
	.long	144
	.zero	4
	.quad	.LC104
	.long	2
	.zero	4
	.quad	0
	.long	130
	.zero	4
	.quad	.LC105
	.long	2
	.zero	4
	.quad	0
	.long	137
	.zero	4
	.quad	.LC106
	.long	1
	.zero	4
	.quad	0
	.long	129
	.zero	4
	.quad	.LC107
	.long	0
	.zero	4
	.quad	0
	.long	90
	.zero	4
	.quad	.LC108
	.long	0
	.zero	4
	.quad	0
	.long	128
	.zero	4
	.quad	.LC109
	.long	0
	.zero	4
	.quad	0
	.long	-130
	.zero	4
	.quad	.LC110
	.long	0
	.zero	4
	.quad	0
	.long	-131
	.zero	4
	.quad	0
	.long	0
	.zero	4
	.quad	0
	.long	0
	.zero	4
	.section	.rodata
.LC111:
	.string	"verbose"
.LC112:
	.string	"long"
.LC113:
	.string	"commas"
.LC114:
	.string	"horizontal"
.LC115:
	.string	"across"
.LC116:
	.string	"vertical"
.LC117:
	.string	"single-column"
	.section	.data.rel.ro.local
	.align 32
	.type	format_args, @object
	.size	format_args, 64
format_args:
	.quad	.LC111
	.quad	.LC112
	.quad	.LC113
	.quad	.LC114
	.quad	.LC115
	.quad	.LC116
	.quad	.LC117
	.quad	0
	.section	.rodata
	.align 16
	.type	format_types, @object
	.size	format_types, 28
format_types:
	.long	0
	.long	0
	.long	4
	.long	3
	.long	3
	.long	2
	.long	1
.LC118:
	.string	"extension"
	.section	.data.rel.ro.local
	.align 32
	.type	sort_args, @object
	.size	sort_args, 48
sort_args:
	.quad	.LC24
	.quad	.LC102
	.quad	.LC83
	.quad	.LC118
	.quad	.LC110
	.quad	0
	.section	.rodata
	.align 16
	.type	sort_types, @object
	.size	sort_types, 20
sort_types:
	.long	-1
	.long	4
	.long	2
	.long	1
	.long	3
.LC119:
	.string	"atime"
.LC120:
	.string	"access"
.LC121:
	.string	"use"
.LC122:
	.string	"ctime"
.LC123:
	.string	"status"
.LC124:
	.string	"birth"
.LC125:
	.string	"creation"
	.section	.data.rel.ro.local
	.align 32
	.type	time_args, @object
	.size	time_args, 64
time_args:
	.quad	.LC119
	.quad	.LC120
	.quad	.LC121
	.quad	.LC122
	.quad	.LC123
	.quad	.LC124
	.quad	.LC125
	.quad	0
	.section	.rodata
	.align 16
	.type	time_types, @object
	.size	time_types, 28
time_types:
	.long	2
	.long	2
	.long	2
	.long	1
	.long	1
	.long	3
	.long	3
.LC126:
	.string	"always"
.LC127:
	.string	"yes"
.LC128:
	.string	"force"
.LC129:
	.string	"never"
.LC130:
	.string	"auto"
.LC131:
	.string	"tty"
.LC132:
	.string	"if-tty"
	.section	.data.rel.ro.local
	.align 32
	.type	when_args, @object
	.size	when_args, 80
when_args:
	.quad	.LC126
	.quad	.LC127
	.quad	.LC128
	.quad	.LC129
	.quad	.LC32
	.quad	.LC24
	.quad	.LC130
	.quad	.LC131
	.quad	.LC132
	.quad	0
	.section	.rodata
	.align 32
	.type	when_types, @object
	.size	when_types, 36
when_types:
	.long	1
	.long	1
	.long	1
	.long	0
	.long	0
	.long	0
	.long	2
	.long	2
	.long	2
	.local	column_info
	.comm	column_info,8,8
	.local	max_idx
	.comm	max_idx,8,8
	.local	dired_pos
	.comm	dired_pos,8,8
	.local	dired_obstack
	.comm	dired_obstack,88,32
	.local	subdired_obstack
	.comm	subdired_obstack,88,32
	.local	dev_ino_obstack
	.comm	dev_ino_obstack,88,32
	.text
	.type	dev_ino_push, @function
dev_ino_push:
.LFB75:
	.file 4 "src/ls.c"
	.loc 4 1015 1
	.cfi_startproc
	endbr64
	pushq	%rbp
	.cfi_def_cfa_offset 16
	.cfi_offset 6, -16
	movq	%rsp, %rbp
	.cfi_def_cfa_register 6
	subq	$64, %rsp
	movq	%rdi, -56(%rbp)
	movq	%rsi, -64(%rbp)
	.loc 4 1018 7
	movl	$16, -44(%rbp)
.LBB3:
	.loc 4 1019 3
	leaq	dev_ino_obstack(%rip), %rax
	movq	%rax, -40(%rbp)
	movl	-44(%rbp), %eax
	cltq
	movq	%rax, -32(%rbp)
.LBB4:
	movq	-40(%rbp), %rax
	movq	%rax, -24(%rbp)
	movq	-24(%rbp), %rax
	movq	32(%rax), %rdx
	movq	-24(%rbp), %rax
	movq	24(%rax), %rax
	subq	%rax, %rdx
	movq	%rdx, %rax
.LBE4:
	cmpq	-32(%rbp), %rax
	jnb	.L37
	.loc 4 1019 3 is_stmt 0 discriminator 1
	movq	-32(%rbp), %rdx
	movq	-40(%rbp), %rax
	movq	%rdx, %rsi
	movq	%rax, %rdi
	call	_obstack_newchunk@PLT
.L37:
	.loc 4 1019 3 discriminator 3
	movq	-40(%rbp), %rax
	movq	24(%rax), %rdx
	movq	-32(%rbp), %rax
	addq	%rax, %rdx
	movq	-40(%rbp), %rax
	movq	%rdx, 24(%rax)
.LBE3:
	.loc 4 1020 7 is_stmt 1 discriminator 3
	movq	24+dev_ino_obstack(%rip), %rax
	movq	%rax, -16(%rbp)
	.loc 4 1021 6 discriminator 3
	movq	-16(%rbp), %rax
	movq	%rax, -8(%rbp)
	.loc 4 1022 5 discriminator 3
	subq	$16, -8(%rbp)
	.loc 4 1023 14 discriminator 3
	movq	-8(%rbp), %rax
	movq	-56(%rbp), %rdx
	movq	%rdx, 8(%rax)
	.loc 4 1024 14 discriminator 3
	movq	-8(%rbp), %rax
	movq	-64(%rbp), %rdx
	movq	%rdx, (%rax)
	.loc 4 1025 1 discriminator 3
	nop
	leave
	.cfi_def_cfa 7, 8
	ret
	.cfi_endproc
.LFE75:
	.size	dev_ino_push, .-dev_ino_push
	.section	.rodata
.LC133:
	.string	"src/ls.c"
	.align 8
.LC134:
	.string	"dev_ino_size <= obstack_object_size (&dev_ino_obstack)"
	.text
	.type	dev_ino_pop, @function
dev_ino_pop:
.LFB76:
	.loc 4 1031 1
	.cfi_startproc
	endbr64
	pushq	%rbp
	.cfi_def_cfa_offset 16
	.cfi_offset 6, -16
	movq	%rsp, %rbp
	.cfi_def_cfa_register 6
	subq	$32, %rsp
	.loc 4 1034 7
	movl	$16, -28(%rbp)
	.loc 4 1035 3
	movl	-28(%rbp), %eax
	movslq	%eax, %rdx
.LBB5:
	leaq	dev_ino_obstack(%rip), %rax
	movq	%rax, -24(%rbp)
	movq	-24(%rbp), %rax
	movq	24(%rax), %rcx
	movq	-24(%rbp), %rax
	movq	16(%rax), %rax
	subq	%rax, %rcx
	movq	%rcx, %rax
.LBE5:
	cmpq	%rdx, %rax
	jnb	.L39
	.loc 4 1035 3 is_stmt 0 discriminator 1
	leaq	__PRETTY_FUNCTION__.9190(%rip), %rcx
	movl	$1035, %edx
	leaq	.LC133(%rip), %rsi
	leaq	.LC134(%rip), %rdi
	call	__assert_fail@PLT
.L39:
	.loc 4 1036 3 is_stmt 1
	movq	24+dev_ino_obstack(%rip), %rdx
	movl	-28(%rbp), %eax
	negl	%eax
	cltq
	addq	%rdx, %rax
	movq	%rax, 24+dev_ino_obstack(%rip)
	.loc 4 1037 7
	movq	24+dev_ino_obstack(%rip), %rax
	movq	%rax, -16(%rbp)
	.loc 4 1038 6
	movq	-16(%rbp), %rax
	movq	%rax, -8(%rbp)
	.loc 4 1039 10
	movq	-8(%rbp), %rax
	movq	8(%rax), %rdx
	movq	(%rax), %rax
	.loc 4 1040 1
	leave
	.cfi_def_cfa 7, 8
	ret
	.cfi_endproc
.LFE76:
	.size	dev_ino_pop, .-dev_ino_pop
	.section	.rodata
.LC135:
	.string	" %lu"
	.text
	.type	dired_dump_obstack, @function
dired_dump_obstack:
.LFB77:
	.loc 4 1060 1
	.cfi_startproc
	endbr64
	pushq	%rbp
	.cfi_def_cfa_offset 16
	.cfi_offset 6, -16
	movq	%rsp, %rbp
	.cfi_def_cfa_register 6
	subq	$64, %rsp
	movq	%rdi, -56(%rbp)
	movq	%rsi, -64(%rbp)
.LBB6:
	.loc 4 1063 11
	movq	-64(%rbp), %rax
	movq	%rax, -40(%rbp)
	movq	-40(%rbp), %rax
	movq	24(%rax), %rdx
	movq	-40(%rbp), %rax
	movq	16(%rax), %rax
	subq	%rax, %rdx
	movq	%rdx, %rax
.LBE6:
	.loc 4 1063 9
	shrq	$3, %rax
	movq	%rax, -32(%rbp)
	.loc 4 1064 6
	cmpq	$0, -32(%rbp)
	je	.L47
.LBB7:
.LBB8:
	.loc 4 1066 32
	movq	-64(%rbp), %rax
	movq	%rax, -24(%rbp)
	movq	-24(%rbp), %rax
	movq	16(%rax), %rax
	movq	%rax, -16(%rbp)
	movq	-24(%rbp), %rax
	movq	24(%rax), %rax
	cmpq	%rax, -16(%rbp)
	jne	.L43
	.loc 4 1066 32 is_stmt 0 discriminator 1
	movq	-24(%rbp), %rax
	movzbl	80(%rax), %edx
	orl	$2, %edx
	movb	%dl, 80(%rax)
.L43:
	.loc 4 1066 32 discriminator 3
	movq	-24(%rbp), %rax
	movq	24(%rax), %rax
	movq	%rax, %rdx
	movq	-24(%rbp), %rax
	movq	48(%rax), %rax
	addq	%rax, %rdx
	movq	-24(%rbp), %rax
	movq	48(%rax), %rax
	notq	%rax
	andq	%rdx, %rax
	movq	%rax, %rdx
	movq	-24(%rbp), %rax
	movq	%rdx, 24(%rax)
	movq	-24(%rbp), %rax
	movq	24(%rax), %rdx
	movq	-24(%rbp), %rax
	movq	8(%rax), %rax
	subq	%rax, %rdx
	movq	%rdx, %rax
	movq	%rax, %rcx
	movq	-24(%rbp), %rax
	movq	32(%rax), %rdx
	movq	-24(%rbp), %rax
	movq	8(%rax), %rax
	subq	%rax, %rdx
	movq	%rdx, %rax
	cmpq	%rax, %rcx
	jbe	.L44
	.loc 4 1066 32 discriminator 4
	movq	-24(%rbp), %rax
	movq	32(%rax), %rdx
	movq	-24(%rbp), %rax
	movq	%rdx, 24(%rax)
.L44:
	.loc 4 1066 32 discriminator 6
	movq	-24(%rbp), %rax
	movq	24(%rax), %rdx
	movq	-24(%rbp), %rax
	movq	%rdx, 16(%rax)
	movq	-16(%rbp), %rax
.LBE8:
	.loc 4 1066 15 is_stmt 1 discriminator 6
	movq	%rax, -8(%rbp)
	.loc 4 1067 7 discriminator 6
	movq	stdout(%rip), %rdx
	movq	-56(%rbp), %rax
	movq	%rdx, %rsi
	movq	%rax, %rdi
	call	fputs_unlocked@PLT
.LBB9:
	.loc 4 1068 19 discriminator 6
	movq	$0, -48(%rbp)
	.loc 4 1068 7 discriminator 6
	jmp	.L45
.L46:
	.loc 4 1069 48 discriminator 3
	movq	-48(%rbp), %rax
	leaq	0(,%rax,8), %rdx
	movq	-8(%rbp), %rax
	addq	%rdx, %rax
	.loc 4 1069 9 discriminator 3
	movq	(%rax), %rax
	movq	%rax, %rsi
	leaq	.LC135(%rip), %rdi
	movl	$0, %eax
	call	printf@PLT
	.loc 4 1068 38 discriminator 3
	addq	$1, -48(%rbp)
.L45:
	.loc 4 1068 7 discriminator 1
	movq	-48(%rbp), %rax
	cmpq	-32(%rbp), %rax
	jb	.L46
.LBE9:
	.loc 4 1070 7
	movl	$10, %edi
	call	putchar_unlocked@PLT
.L47:
.LBE7:
	.loc 4 1072 1
	nop
	leave
	.cfi_def_cfa 7, 8
	ret
	.cfi_endproc
.LFE77:
	.size	dired_dump_obstack, .-dired_dump_obstack
	.type	get_stat_btime, @function
get_stat_btime:
.LFB78:
	.loc 4 1080 1
	.cfi_startproc
	endbr64
	pushq	%rbp
	.cfi_def_cfa_offset 16
	.cfi_offset 6, -16
	movq	%rsp, %rbp
	.cfi_def_cfa_register 6
	subq	$32, %rsp
	movq	%rdi, -24(%rbp)
	.loc 4 1084 15
	movq	-24(%rbp), %rax
	movq	%rax, %rdi
	call	get_stat_mtime@PLT
	movq	%rax, -16(%rbp)
	movq	%rdx, -8(%rbp)
	.loc 4 1089 10
	movq	-16(%rbp), %rax
	movq	-8(%rbp), %rdx
	.loc 4 1090 1
	leave
	.cfi_def_cfa 7, 8
	ret
	.cfi_endproc
.LFE78:
	.size	get_stat_btime, .-get_stat_btime
	.type	time_type_to_statx, @function
time_type_to_statx:
.LFB79:
	.loc 4 1095 1
	.cfi_startproc
	endbr64
	pushq	%rbp
	.cfi_def_cfa_offset 16
	.cfi_offset 6, -16
	movq	%rsp, %rbp
	.cfi_def_cfa_register 6
	.loc 4 1096 3
	movl	time_type(%rip), %eax
	cmpl	$3, %eax
	je	.L51
	cmpl	$3, %eax
	ja	.L52
	cmpl	$2, %eax
	je	.L53
	cmpl	$2, %eax
	ja	.L52
	testl	%eax, %eax
	je	.L54
	cmpl	$1, %eax
	jne	.L52
	.loc 4 1099 14
	movl	$128, %eax
	jmp	.L55
.L54:
	.loc 4 1101 14
	movl	$64, %eax
	jmp	.L55
.L53:
	.loc 4 1103 14
	movl	$32, %eax
	jmp	.L55
.L51:
	.loc 4 1105 14
	movl	$2048, %eax
	jmp	.L55
.L52:
	.loc 4 1107 7
	call	abort@PLT
.L55:
	.loc 4 1110 1
	popq	%rbp
	.cfi_def_cfa 7, 8
	ret
	.cfi_endproc
.LFE79:
	.size	time_type_to_statx, .-time_type_to_statx
	.type	calc_req_mask, @function
calc_req_mask:
.LFB80:
	.loc 4 1114 1
	.cfi_startproc
	endbr64
	pushq	%rbp
	.cfi_def_cfa_offset 16
	.cfi_offset 6, -16
	movq	%rsp, %rbp
	.cfi_def_cfa_register 6
	subq	$16, %rsp
	.loc 4 1115 16
	movl	$2, -4(%rbp)
	.loc 4 1117 7
	movzbl	print_inode(%rip), %eax
	.loc 4 1117 6
	testb	%al, %al
	je	.L57
	.loc 4 1118 10
	orl	$256, -4(%rbp)
.L57:
	.loc 4 1120 7
	movzbl	print_block_size(%rip), %eax
	.loc 4 1120 6
	testb	%al, %al
	je	.L58
	.loc 4 1121 10
	orl	$1024, -4(%rbp)
.L58:
	.loc 4 1123 14
	movl	format(%rip), %eax
	.loc 4 1123 6
	testl	%eax, %eax
	jne	.L59
	.loc 4 1124 40
	call	time_type_to_statx
	.loc 4 1124 10
	orl	-4(%rbp), %eax
	orl	$516, %eax
	movl	%eax, -4(%rbp)
	.loc 4 1125 9
	movzbl	print_owner(%rip), %eax
	.loc 4 1125 8
	testb	%al, %al
	jne	.L60
	.loc 4 1125 21 discriminator 1
	movzbl	print_author(%rip), %eax
	testb	%al, %al
	je	.L61
.L60:
	.loc 4 1126 12
	orl	$8, -4(%rbp)
.L61:
	.loc 4 1127 9
	movzbl	print_group(%rip), %eax
	.loc 4 1127 8
	testb	%al, %al
	je	.L59
	.loc 4 1128 12
	orl	$16, -4(%rbp)
.L59:
	.loc 4 1131 3
	movl	sort_type(%rip), %eax
	cmpl	$4, %eax
	je	.L62
	cmpl	$4, %eax
	jg	.L63
	cmpl	$3, %eax
	je	.L69
	cmpl	$3, %eax
	jg	.L63
	cmpl	$1, %eax
	jg	.L65
	cmpl	$-1, %eax
	jge	.L69
	jmp	.L63
.L65:
	cmpl	$2, %eax
	je	.L66
	jmp	.L63
.L62:
	.loc 4 1139 15
	call	time_type_to_statx
	.loc 4 1139 12
	orl	%eax, -4(%rbp)
	.loc 4 1140 7
	jmp	.L67
.L66:
	.loc 4 1142 12
	orl	$512, -4(%rbp)
	.loc 4 1143 7
	jmp	.L67
.L63:
	.loc 4 1145 7
	call	abort@PLT
.L69:
	.loc 4 1137 7
	nop
.L67:
	.loc 4 1148 10
	movl	-4(%rbp), %eax
	.loc 4 1149 1
	leave
	.cfi_def_cfa 7, 8
	ret
	.cfi_endproc
.LFE80:
	.size	calc_req_mask, .-calc_req_mask
	.type	do_statx, @function
do_statx:
.LFB81:
	.loc 4 1154 1
	.cfi_startproc
	endbr64
	pushq	%rbp
	.cfi_def_cfa_offset 16
	.cfi_offset 6, -16
	movq	%rsp, %rbp
	.cfi_def_cfa_register 6
	pushq	%rbx
	subq	$328, %rsp
	.cfi_offset 3, -24
	movl	%edi, -308(%rbp)
	movq	%rsi, -320(%rbp)
	movq	%rdx, -328(%rbp)
	movl	%ecx, -312(%rbp)
	movl	%r8d, -332(%rbp)
	.loc 4 1154 1
	movq	%fs:40, %rax
	movq	%rax, -24(%rbp)
	xorl	%eax, %eax
	.loc 4 1156 26
	movl	-332(%rbp), %eax
	andl	$2048, %eax
	.loc 4 1156 8
	testl	%eax, %eax
	setne	%al
	movb	%al, -293(%rbp)
	.loc 4 1157 13
	leaq	-288(%rbp), %rdi
	movl	-332(%rbp), %ecx
	movl	-312(%rbp), %edx
	movq	-320(%rbp), %rsi
	movl	-308(%rbp), %eax
	movq	%rdi, %r8
	movl	%eax, %edi
	call	statx@PLT
	movl	%eax, -292(%rbp)
	.loc 4 1158 6
	cmpl	$0, -292(%rbp)
	js	.L71
	.loc 4 1160 7
	movq	-328(%rbp), %rdx
	leaq	-288(%rbp), %rax
	movq	%rdx, %rsi
	movq	%rax, %rdi
	call	statx_to_stat
	.loc 4 1163 10
	cmpb	$0, -293(%rbp)
	je	.L71
	.loc 4 1165 18
	movl	-288(%rbp), %eax
	.loc 4 1165 28
	andl	$2048, %eax
	.loc 4 1165 14
	testl	%eax, %eax
	je	.L72
	.loc 4 1166 27
	movq	-328(%rbp), %rbx
	movq	-208(%rbp), %rdx
	movq	-200(%rbp), %rax
	movq	%rdx, %rdi
	movq	%rax, %rsi
	call	statx_timestamp_to_timespec
	movq	%rax, 88(%rbx)
	movq	%rdx, 96(%rbx)
	jmp	.L71
.L72:
	.loc 4 1168 54
	movq	-328(%rbp), %rax
	movq	$-1, 96(%rax)
	.loc 4 1168 45
	movq	-328(%rbp), %rax
	movq	96(%rax), %rdx
	.loc 4 1168 32
	movq	-328(%rbp), %rax
	movq	%rdx, 88(%rax)
.L71:
	.loc 4 1172 10
	movl	-292(%rbp), %eax
	.loc 4 1173 1
	movq	-24(%rbp), %rbx
	xorq	%fs:40, %rbx
	je	.L74
	call	__stack_chk_fail@PLT
.L74:
	addq	$328, %rsp
	popq	%rbx
	popq	%rbp
	.cfi_def_cfa 7, 8
	ret
	.cfi_endproc
.LFE81:
	.size	do_statx, .-do_statx
	.type	do_stat, @function
do_stat:
.LFB82:
	.loc 4 1177 1
	.cfi_startproc
	pushq	%rbp
	.cfi_def_cfa_offset 16
	.cfi_offset 6, -16
	movq	%rsp, %rbp
	.cfi_def_cfa_register 6
	subq	$16, %rsp
	movq	%rdi, -8(%rbp)
	movq	%rsi, -16(%rbp)
	.loc 4 1178 10
	call	calc_req_mask
	movl	%eax, %ecx
	movq	-16(%rbp), %rdx
	movq	-8(%rbp), %rax
	movl	%ecx, %r8d
	movl	$0, %ecx
	movq	%rax, %rsi
	movl	$-100, %edi
	call	do_statx
	.loc 4 1179 1
	leave
	.cfi_def_cfa 7, 8
	ret
	.cfi_endproc
.LFE82:
	.size	do_stat, .-do_stat
	.type	do_lstat, @function
do_lstat:
.LFB83:
	.loc 4 1183 1
	.cfi_startproc
	pushq	%rbp
	.cfi_def_cfa_offset 16
	.cfi_offset 6, -16
	movq	%rsp, %rbp
	.cfi_def_cfa_register 6
	subq	$16, %rsp
	movq	%rdi, -8(%rbp)
	movq	%rsi, -16(%rbp)
	.loc 4 1184 10
	call	calc_req_mask
	movl	%eax, %ecx
	movq	-16(%rbp), %rdx
	movq	-8(%rbp), %rax
	movl	%ecx, %r8d
	movl	$256, %ecx
	movq	%rax, %rsi
	movl	$-100, %edi
	call	do_statx
	.loc 4 1185 1
	leave
	.cfi_def_cfa 7, 8
	ret
	.cfi_endproc
.LFE83:
	.size	do_lstat, .-do_lstat
	.type	stat_for_mode, @function
stat_for_mode:
.LFB84:
	.loc 4 1189 1
	.cfi_startproc
	pushq	%rbp
	.cfi_def_cfa_offset 16
	.cfi_offset 6, -16
	movq	%rsp, %rbp
	.cfi_def_cfa_register 6
	subq	$16, %rsp
	movq	%rdi, -8(%rbp)
	movq	%rsi, -16(%rbp)
	.loc 4 1190 10
	movq	-16(%rbp), %rdx
	movq	-8(%rbp), %rax
	movl	$2, %r8d
	movl	$0, %ecx
	movq	%rax, %rsi
	movl	$-100, %edi
	call	do_statx
	.loc 4 1191 1
	leave
	.cfi_def_cfa 7, 8
	ret
	.cfi_endproc
.LFE84:
	.size	stat_for_mode, .-stat_for_mode
	.type	stat_for_ino, @function
stat_for_ino:
.LFB85:
	.loc 4 1196 1
	.cfi_startproc
	pushq	%rbp
	.cfi_def_cfa_offset 16
	.cfi_offset 6, -16
	movq	%rsp, %rbp
	.cfi_def_cfa_register 6
	subq	$16, %rsp
	movq	%rdi, -8(%rbp)
	movq	%rsi, -16(%rbp)
	.loc 4 1197 10
	movq	-16(%rbp), %rdx
	movq	-8(%rbp), %rax
	movl	$256, %r8d
	movl	$0, %ecx
	movq	%rax, %rsi
	movl	$-100, %edi
	call	do_statx
	.loc 4 1198 1
	leave
	.cfi_def_cfa 7, 8
	ret
	.cfi_endproc
.LFE85:
	.size	stat_for_ino, .-stat_for_ino
	.type	fstat_for_ino, @function
fstat_for_ino:
.LFB86:
	.loc 4 1202 1
	.cfi_startproc
	pushq	%rbp
	.cfi_def_cfa_offset 16
	.cfi_offset 6, -16
	movq	%rsp, %rbp
	.cfi_def_cfa_register 6
	subq	$16, %rsp
	movl	%edi, -4(%rbp)
	movq	%rsi, -16(%rbp)
	.loc 4 1203 10
	movq	-16(%rbp), %rdx
	movl	-4(%rbp), %eax
	movl	$256, %r8d
	movl	$4096, %ecx
	leaq	.LC18(%rip), %rsi
	movl	%eax, %edi
	call	do_statx
	.loc 4 1204 1
	leave
	.cfi_def_cfa 7, 8
	ret
	.cfi_endproc
.LFE86:
	.size	fstat_for_ino, .-fstat_for_ino
	.type	first_percent_b, @function
first_percent_b:
.LFB87:
	.loc 4 1243 1
	.cfi_startproc
	endbr64
	pushq	%rbp
	.cfi_def_cfa_offset 16
	.cfi_offset 6, -16
	movq	%rsp, %rbp
	.cfi_def_cfa_register 6
	movq	%rdi, -8(%rbp)
	.loc 4 1244 3
	jmp	.L86
.L90:
	.loc 4 1245 12
	movq	-8(%rbp), %rax
	movzbl	(%rax), %eax
	.loc 4 1245 8
	cmpb	$37, %al
	jne	.L91
	.loc 4 1246 18
	movq	-8(%rbp), %rax
	addq	$1, %rax
	movzbl	(%rax), %eax
	movsbl	%al, %eax
	.loc 4 1246 7
	cmpl	$37, %eax
	je	.L88
	cmpl	$98, %eax
	jne	.L87
	.loc 4 1248 26
	movq	-8(%rbp), %rax
	jmp	.L89
.L88:
	.loc 4 1249 22
	addq	$1, -8(%rbp)
	.loc 4 1249 9
	jmp	.L87
.L91:
	.loc 4 1251 3
	nop
.L87:
	.loc 4 1244 19
	addq	$1, -8(%rbp)
.L86:
	.loc 4 1244 10 discriminator 1
	movq	-8(%rbp), %rax
	movzbl	(%rax), %eax
	.loc 4 1244 3 discriminator 1
	testb	%al, %al
	jne	.L90
	.loc 4 1251 10
	movl	$0, %eax
.L89:
	.loc 4 1252 1
	popq	%rbp
	.cfi_def_cfa 7, 8
	ret
	.cfi_endproc
.LFE87:
	.size	first_percent_b, .-first_percent_b
	.local	RFC3986
	.comm	RFC3986,256,32
	.type	file_escape_init, @function
file_escape_init:
.LFB88:
	.loc 4 1257 1
	.cfi_startproc
	endbr64
	pushq	%rbp
	.cfi_def_cfa_offset 16
	.cfi_offset 6, -16
	movq	%rsp, %rbp
	.cfi_def_cfa_register 6
	subq	$16, %rsp
.LBB10:
	.loc 4 1258 12
	movl	$0, -4(%rbp)
	.loc 4 1258 3
	jmp	.L93
.L97:
	.loc 4 1259 19
	movl	-4(%rbp), %eax
	movl	%eax, %edi
	call	c_isalnum@PLT
	.loc 4 1259 69
	testb	%al, %al
	jne	.L94
	.loc 4 1259 33 discriminator 2
	cmpl	$126, -4(%rbp)
	je	.L94
	.loc 4 1259 45 discriminator 4
	cmpl	$45, -4(%rbp)
	je	.L94
	.loc 4 1259 57 discriminator 6
	cmpl	$46, -4(%rbp)
	je	.L94
	.loc 4 1259 69 discriminator 8
	cmpl	$95, -4(%rbp)
	jne	.L95
.L94:
	.loc 4 1259 69 is_stmt 0 discriminator 9
	movl	$1, %ecx
	jmp	.L96
.L95:
	.loc 4 1259 69 discriminator 10
	movl	$0, %ecx
.L96:
	.loc 4 1259 16 is_stmt 1 discriminator 12
	movl	-4(%rbp), %eax
	cltq
	leaq	RFC3986(%rip), %rdx
	movzbl	(%rax,%rdx), %eax
	movl	%ecx, %edx
	orl	%edx, %eax
	movl	%eax, %ecx
	movl	-4(%rbp), %eax
	cltq
	leaq	RFC3986(%rip), %rdx
	movb	%cl, (%rax,%rdx)
	.loc 4 1258 29 discriminator 12
	addl	$1, -4(%rbp)
.L93:
	.loc 4 1258 3 discriminator 2
	cmpl	$255, -4(%rbp)
	jle	.L97
.LBE10:
	.loc 4 1260 1
	nop
	nop
	leave
	.cfi_def_cfa 7, 8
	ret
	.cfi_endproc
.LFE88:
	.size	file_escape_init, .-file_escape_init
	.local	abformat
	.comm	abformat,3072,32
	.local	use_abformat
	.comm	use_abformat,1,1
	.type	abmon_init, @function
abmon_init:
.LFB89:
	.loc 4 1289 1
	.cfi_startproc
	endbr64
	pushq	%rbp
	.cfi_def_cfa_offset 16
	.cfi_offset 6, -16
	movq	%rsp, %rbp
	.cfi_def_cfa_register 6
	pushq	%rbx
	subq	$88, %rsp
	.cfi_offset 3, -24
	movq	%rdi, -88(%rbp)
	.loc 4 1289 1
	movq	%fs:40, %rax
	movq	%rax, -24(%rbp)
	xorl	%eax, %eax
	.loc 4 1293 10
	movq	$12, -56(%rbp)
.L105:
	.loc 4 1297 22
	movq	-56(%rbp), %rax
	movq	%rax, -48(%rbp)
	.loc 4 1298 26
	movq	$0, -56(%rbp)
.LBB11:
	.loc 4 1299 16
	movl	$0, -72(%rbp)
	.loc 4 1299 7
	jmp	.L99
.L104:
.LBB12:
	.loc 4 1301 18
	movq	-48(%rbp), %rax
	movq	%rax, -64(%rbp)
	.loc 4 1302 30
	movl	-72(%rbp), %eax
	addl	$131086, %eax
	movl	%eax, %edi
	call	nl_langinfo@PLT
	movq	%rax, -40(%rbp)
	.loc 4 1303 15
	movq	-40(%rbp), %rax
	movl	$37, %esi
	movq	%rax, %rdi
	call	strchr@PLT
	.loc 4 1303 14
	testq	%rax, %rax
	je	.L100
	.loc 4 1304 20
	movl	$0, %eax
	jmp	.L103
.L100:
	.loc 4 1305 35
	call	__ctype_b_loc@PLT
	movq	(%rax), %rbx
	movq	-40(%rbp), %rax
	movzbl	(%rax), %eax
	movsbl	%al, %eax
	movl	%eax, %edi
	call	to_uchar
	movzbl	%al, %eax
	addq	%rax, %rax
	addq	%rbx, %rax
	movzwl	(%rax), %eax
	movzwl	%ax, %eax
	andl	$2048, %eax
	.loc 4 1306 53
	testl	%eax, %eax
	setne	%al
	.loc 4 1305 23
	movzbl	%al, %eax
	movl	%eax, -68(%rbp)
	.loc 4 1307 45
	movl	-72(%rbp), %eax
	cltq
	salq	$7, %rax
	movq	%rax, %rdx
	movq	-88(%rbp), %rax
	leaq	(%rdx,%rax), %rsi
	.loc 4 1307 24
	movl	-68(%rbp), %ecx
	leaq	-64(%rbp), %rdx
	movq	-40(%rbp), %rax
	movl	$0, %r9d
	movl	%ecx, %r8d
	movq	%rdx, %rcx
	movl	$128, %edx
	movq	%rax, %rdi
	call	mbsalign@PLT
	movq	%rax, -32(%rbp)
	.loc 4 1309 14
	cmpq	$127, -32(%rbp)
	jbe	.L102
	.loc 4 1310 20
	movl	$0, %eax
	jmp	.L103
.L102:
	.loc 4 1311 32
	movq	-64(%rbp), %rax
	.loc 4 1311 30
	cmpq	%rax, -56(%rbp)
	cmovnb	-56(%rbp), %rax
	movq	%rax, -56(%rbp)
.LBE12:
	.loc 4 1299 32
	addl	$1, -72(%rbp)
.L99:
	.loc 4 1299 7 discriminator 1
	cmpl	$11, -72(%rbp)
	jle	.L104
.LBE11:
	.loc 4 1314 3
	movq	-48(%rbp), %rax
	cmpq	-56(%rbp), %rax
	ja	.L105
	.loc 4 1316 10
	movl	$1, %eax
.L103:
	.loc 4 1318 1
	movq	-24(%rbp), %rbx
	xorq	%fs:40, %rbx
	je	.L106
	call	__stack_chk_fail@PLT
.L106:
	addq	$88, %rsp
	popq	%rbx
	popq	%rbp
	.cfi_def_cfa 7, 8
	ret
	.cfi_endproc
.LFE89:
	.size	abmon_init, .-abmon_init
	.section	.rodata
.LC136:
	.string	"%s"
.LC137:
	.string	"%.*s%s%s"
	.text
	.type	abformat_init, @function
abformat_init:
.LFB90:
	.loc 4 1324 1
	.cfi_startproc
	endbr64
	pushq	%rbp
	.cfi_def_cfa_offset 16
	.cfi_offset 6, -16
	movq	%rsp, %rbp
	.cfi_def_cfa_register 6
	subq	$1616, %rsp
	.loc 4 1324 1
	movq	%fs:40, %rax
	movq	%rax, -8(%rbp)
	xorl	%eax, %eax
.LBB13:
	.loc 4 1326 12
	movl	$0, -1604(%rbp)
	.loc 4 1326 3
	jmp	.L108
.L109:
	.loc 4 1327 18 discriminator 3
	movl	-1604(%rbp), %eax
	cltq
	leaq	0(,%rax,8), %rdx
	leaq	long_time_format(%rip), %rax
	movq	(%rdx,%rax), %rax
	movq	%rax, %rdi
	call	first_percent_b
	.loc 4 1327 16 discriminator 3
	movl	-1604(%rbp), %edx
	movslq	%edx, %rdx
	movq	%rax, -1568(%rbp,%rdx,8)
	.loc 4 1326 42 discriminator 3
	addl	$1, -1604(%rbp)
.L108:
	.loc 4 1326 3 discriminator 1
	cmpl	$1, -1604(%rbp)
	jle	.L109
.LBE13:
	.loc 4 1328 12
	movq	-1568(%rbp), %rax
	.loc 4 1328 6
	testq	%rax, %rax
	jne	.L110
	.loc 4 1328 21 discriminator 1
	movq	-1560(%rbp), %rax
	.loc 4 1328 7 discriminator 1
	testq	%rax, %rax
	je	.L124
.L110:
	.loc 4 1332 9
	leaq	-1552(%rbp), %rax
	movq	%rax, %rdi
	call	abmon_init
	.loc 4 1332 7
	xorl	$1, %eax
	.loc 4 1332 6
	testb	%al, %al
	jne	.L125
.LBB14:
	.loc 4 1335 12
	movl	$0, -1600(%rbp)
	.loc 4 1335 3
	jmp	.L113
.L121:
.LBB15:
	.loc 4 1337 19
	movl	-1600(%rbp), %eax
	cltq
	leaq	0(,%rax,8), %rdx
	leaq	long_time_format(%rip), %rax
	movq	(%rdx,%rax), %rax
	movq	%rax, -1584(%rbp)
.LBB16:
	.loc 4 1338 16
	movl	$0, -1596(%rbp)
	.loc 4 1338 7
	jmp	.L114
.L120:
.LBB17:
	.loc 4 1340 17
	movl	-1596(%rbp), %eax
	movslq	%eax, %rcx
	movl	-1600(%rbp), %eax
	movslq	%eax, %rdx
	movq	%rdx, %rax
	addq	%rax, %rax
	addq	%rdx, %rax
	salq	$2, %rax
	addq	%rcx, %rax
	salq	$7, %rax
	movq	%rax, %rdx
	leaq	abformat(%rip), %rax
	addq	%rdx, %rax
	movq	%rax, -1576(%rbp)
	.loc 4 1343 19
	movl	-1600(%rbp), %eax
	cltq
	movq	-1568(%rbp,%rax,8), %rax
	.loc 4 1343 14
	testq	%rax, %rax
	jne	.L115
	.loc 4 1344 22
	movq	-1584(%rbp), %rdx
	movq	-1576(%rbp), %rax
	movq	%rdx, %rcx
	leaq	.LC136(%rip), %rdx
	movl	$128, %esi
	movq	%rax, %rdi
	movl	$0, %eax
	call	snprintf@PLT
	movl	%eax, -1592(%rbp)
	jmp	.L116
.L115:
.LBB18:
	.loc 4 1347 24
	movl	-1600(%rbp), %eax
	cltq
	movq	-1568(%rbp,%rax,8), %rax
	.loc 4 1347 33
	subq	-1584(%rbp), %rax
	.loc 4 1347 18
	cmpq	$128, %rax
	jg	.L126
	.loc 4 1349 34
	movl	-1600(%rbp), %eax
	cltq
	movq	-1568(%rbp,%rax,8), %rax
	.loc 4 1349 43
	subq	-1584(%rbp), %rax
	.loc 4 1349 19
	movl	%eax, -1588(%rbp)
	.loc 4 1351 63
	movl	-1600(%rbp), %eax
	cltq
	movq	-1568(%rbp,%rax,8), %rax
	.loc 4 1350 24
	leaq	2(%rax), %rcx
	.loc 4 1351 56
	leaq	-1552(%rbp), %rax
	movl	-1596(%rbp), %edx
	movslq	%edx, %rdx
	salq	$7, %rdx
	leaq	(%rax,%rdx), %rdi
	.loc 4 1350 24
	movq	-1584(%rbp), %rsi
	movl	-1588(%rbp), %edx
	movq	-1576(%rbp), %rax
	subq	$8, %rsp
	pushq	%rcx
	movq	%rdi, %r9
	movq	%rsi, %r8
	movl	%edx, %ecx
	leaq	.LC137(%rip), %rdx
	movl	$128, %esi
	movq	%rax, %rdi
	movl	$0, %eax
	call	snprintf@PLT
	addq	$16, %rsp
	movl	%eax, -1592(%rbp)
.L116:
.LBE18:
	.loc 4 1354 14
	cmpl	$0, -1592(%rbp)
	js	.L127
	.loc 4 1354 15 discriminator 1
	cmpl	$127, -1592(%rbp)
	jg	.L127
.LBE17:
	.loc 4 1338 32 discriminator 2
	addl	$1, -1596(%rbp)
.L114:
	.loc 4 1338 7 discriminator 1
	cmpl	$11, -1596(%rbp)
	jle	.L120
.LBE16:
.LBE15:
	.loc 4 1335 42 discriminator 2
	addl	$1, -1600(%rbp)
.L113:
	.loc 4 1335 3 discriminator 1
	cmpl	$1, -1600(%rbp)
	jle	.L121
.LBE14:
	.loc 4 1359 16
	movb	$1, use_abformat(%rip)
	jmp	.L107
.L124:
	.loc 4 1329 5
	nop
	jmp	.L107
.L125:
	.loc 4 1333 5
	nop
	jmp	.L107
.L126:
.LBB23:
.LBB22:
.LBB21:
.LBB20:
.LBB19:
	.loc 4 1348 17
	nop
	jmp	.L107
.L127:
.LBE19:
	.loc 4 1355 13
	nop
.L107:
.LBE20:
.LBE21:
.LBE22:
.LBE23:
	.loc 4 1360 1
	movq	-8(%rbp), %rax
	xorq	%fs:40, %rax
	je	.L123
	call	__stack_chk_fail@PLT
.L123:
	leave
	.cfi_def_cfa 7, 8
	ret
	.cfi_endproc
.LFE90:
	.size	abformat_init, .-abformat_init
	.type	dev_ino_hash, @function
dev_ino_hash:
.LFB91:
	.loc 4 1364 1
	.cfi_startproc
	endbr64
	pushq	%rbp
	.cfi_def_cfa_offset 16
	.cfi_offset 6, -16
	movq	%rsp, %rbp
	.cfi_def_cfa_register 6
	movq	%rdi, -24(%rbp)
	movq	%rsi, -32(%rbp)
	.loc 4 1365 25
	movq	-24(%rbp), %rax
	movq	%rax, -8(%rbp)
	.loc 4 1366 23
	movq	-8(%rbp), %rax
	movq	(%rax), %rax
	.loc 4 1366 32
	movl	$0, %edx
	divq	-32(%rbp)
	movq	%rdx, %rax
	.loc 4 1367 1
	popq	%rbp
	.cfi_def_cfa 7, 8
	ret
	.cfi_endproc
.LFE91:
	.size	dev_ino_hash, .-dev_ino_hash
	.type	dev_ino_compare, @function
dev_ino_compare:
.LFB92:
	.loc 4 1371 1
	.cfi_startproc
	endbr64
	pushq	%rbp
	.cfi_def_cfa_offset 16
	.cfi_offset 6, -16
	movq	%rsp, %rbp
	.cfi_def_cfa_register 6
	movq	%rdi, -24(%rbp)
	movq	%rsi, -32(%rbp)
	.loc 4 1372 25
	movq	-24(%rbp), %rax
	movq	%rax, -16(%rbp)
	.loc 4 1373 25
	movq	-32(%rbp), %rax
	movq	%rax, -8(%rbp)
	.loc 4 1374 10
	movq	-16(%rbp), %rax
	movq	(%rax), %rdx
	movq	-8(%rbp), %rax
	movq	(%rax), %rax
	.loc 4 1374 37
	cmpq	%rax, %rdx
	jne	.L131
	.loc 4 1374 10 discriminator 1
	movq	-16(%rbp), %rax
	movq	8(%rax), %rdx
	movq	-8(%rbp), %rax
	movq	8(%rax), %rax
	.loc 4 1374 37 discriminator 1
	cmpq	%rax, %rdx
	jne	.L131
	.loc 4 1374 37 is_stmt 0 discriminator 3
	movl	$1, %eax
	jmp	.L132
.L131:
	.loc 4 1374 37 discriminator 4
	movl	$0, %eax
.L132:
	.loc 4 1374 37 discriminator 6
	andl	$1, %eax
	.loc 4 1375 1 is_stmt 1 discriminator 6
	popq	%rbp
	.cfi_def_cfa 7, 8
	ret
	.cfi_endproc
.LFE92:
	.size	dev_ino_compare, .-dev_ino_compare
	.type	dev_ino_free, @function
dev_ino_free:
.LFB93:
	.loc 4 1379 1
	.cfi_startproc
	endbr64
	pushq	%rbp
	.cfi_def_cfa_offset 16
	.cfi_offset 6, -16
	movq	%rsp, %rbp
	.cfi_def_cfa_register 6
	subq	$16, %rsp
	movq	%rdi, -8(%rbp)
	.loc 4 1380 3
	movq	-8(%rbp), %rax
	movq	%rax, %rdi
	call	free@PLT
	.loc 4 1381 1
	nop
	leave
	.cfi_def_cfa 7, 8
	ret
	.cfi_endproc
.LFE93:
	.size	dev_ino_free, .-dev_ino_free
	.type	visit_dir, @function
visit_dir:
.LFB94:
	.loc 4 1389 1
	.cfi_startproc
	endbr64
	pushq	%rbp
	.cfi_def_cfa_offset 16
	.cfi_offset 6, -16
	movq	%rsp, %rbp
	.cfi_def_cfa_register 6
	subq	$48, %rsp
	movq	%rdi, -40(%rbp)
	movq	%rsi, -48(%rbp)
	.loc 4 1394 9
	movl	$16, %edi
	call	xmalloc@PLT
	movq	%rax, -16(%rbp)
	.loc 4 1395 15
	movq	-16(%rbp), %rax
	movq	-48(%rbp), %rdx
	movq	%rdx, (%rax)
	.loc 4 1396 15
	movq	-16(%rbp), %rax
	movq	-40(%rbp), %rdx
	movq	%rdx, 8(%rax)
	.loc 4 1399 20
	movq	active_dir_set(%rip), %rax
	movq	-16(%rbp), %rdx
	movq	%rdx, %rsi
	movq	%rax, %rdi
	call	hash_insert@PLT
	movq	%rax, -8(%rbp)
	.loc 4 1401 6
	cmpq	$0, -8(%rbp)
	jne	.L136
	.loc 4 1404 7
	call	xalloc_die@PLT
.L136:
	.loc 4 1407 15
	movq	-8(%rbp), %rax
	cmpq	-16(%rbp), %rax
	setne	%al
	movb	%al, -17(%rbp)
	.loc 4 1409 6
	cmpb	$0, -17(%rbp)
	je	.L137
	.loc 4 1412 7
	movq	-16(%rbp), %rax
	movq	%rax, %rdi
	call	free@PLT
.L137:
	.loc 4 1415 10
	movzbl	-17(%rbp), %eax
	.loc 4 1416 1
	leave
	.cfi_def_cfa 7, 8
	ret
	.cfi_endproc
.LFE94:
	.size	visit_dir, .-visit_dir
	.type	free_pending_ent, @function
free_pending_ent:
.LFB95:
	.loc 4 1420 1
	.cfi_startproc
	endbr64
	pushq	%rbp
	.cfi_def_cfa_offset 16
	.cfi_offset 6, -16
	movq	%rsp, %rbp
	.cfi_def_cfa_register 6
	subq	$16, %rsp
	movq	%rdi, -8(%rbp)
	.loc 4 1421 10
	movq	-8(%rbp), %rax
	movq	(%rax), %rax
	.loc 4 1421 3
	movq	%rax, %rdi
	call	free@PLT
	.loc 4 1422 10
	movq	-8(%rbp), %rax
	movq	8(%rax), %rax
	.loc 4 1422 3
	movq	%rax, %rdi
	call	free@PLT
	.loc 4 1423 3
	movq	-8(%rbp), %rax
	movq	%rax, %rdi
	call	free@PLT
	.loc 4 1424 1
	nop
	leave
	.cfi_def_cfa 7, 8
	ret
	.cfi_endproc
.LFE95:
	.size	free_pending_ent, .-free_pending_ent
	.section	.rodata
.LC138:
	.string	"00"
	.text
	.type	is_colored, @function
is_colored:
.LFB96:
	.loc 4 1428 1
	.cfi_startproc
	endbr64
	pushq	%rbp
	.cfi_def_cfa_offset 16
	.cfi_offset 6, -16
	movq	%rsp, %rbp
	.cfi_def_cfa_register 6
	subq	$32, %rsp
	movl	%edi, -20(%rbp)
	.loc 4 1429 10
	movl	-20(%rbp), %eax
	salq	$4, %rax
	movq	%rax, %rdx
	leaq	color_indicator(%rip), %rax
	movq	(%rdx,%rax), %rax
	movq	%rax, -16(%rbp)
	.loc 4 1430 15
	movl	-20(%rbp), %eax
	salq	$4, %rax
	movq	%rax, %rdx
	leaq	8+color_indicator(%rip), %rax
	movq	(%rdx,%rax), %rax
	movq	%rax, -8(%rbp)
	.loc 4 1431 10
	cmpq	$0, -16(%rbp)
	je	.L141
	.loc 4 1432 13
	cmpq	$1, -16(%rbp)
	jne	.L142
	.loc 4 1432 29 discriminator 1
	movq	-8(%rbp), %rax
	movzbl	(%rax), %edx
	movzbl	.LC54(%rip), %eax
	movzbl	%dl, %edx
	movzbl	%al, %eax
	subl	%eax, %edx
	movl	%edx, %eax
	.loc 4 1432 26 discriminator 1
	testl	%eax, %eax
	je	.L141
.L142:
	.loc 4 1431 10
	cmpq	$2, -16(%rbp)
	jne	.L143
	.loc 4 1433 29
	movq	-8(%rbp), %rax
	movl	$2, %edx
	leaq	.LC138(%rip), %rsi
	movq	%rax, %rdi
	call	strncmp@PLT
	.loc 4 1433 26
	testl	%eax, %eax
	je	.L141
.L143:
	.loc 4 1431 10 discriminator 2
	movl	$1, %eax
	jmp	.L144
.L141:
	.loc 4 1431 10 is_stmt 0 discriminator 1
	movl	$0, %eax
.L144:
	.loc 4 1431 10 discriminator 4
	andl	$1, %eax
	.loc 4 1434 1 is_stmt 1 discriminator 4
	leave
	.cfi_def_cfa 7, 8
	ret
	.cfi_endproc
.LFE96:
	.size	is_colored, .-is_colored
	.type	restore_default_color, @function
restore_default_color:
.LFB97:
	.loc 4 1438 1
	.cfi_startproc
	endbr64
	pushq	%rbp
	.cfi_def_cfa_offset 16
	.cfi_offset 6, -16
	movq	%rsp, %rbp
	.cfi_def_cfa_register 6
	.loc 4 1439 3
	leaq	color_indicator(%rip), %rdi
	call	put_indicator
	.loc 4 1440 3
	leaq	16+color_indicator(%rip), %rdi
	call	put_indicator
	.loc 4 1441 1
	nop
	popq	%rbp
	.cfi_def_cfa 7, 8
	ret
	.cfi_endproc
.LFE97:
	.size	restore_default_color, .-restore_default_color
	.type	set_normal_color, @function
set_normal_color:
.LFB98:
	.loc 4 1445 1
	.cfi_startproc
	endbr64
	pushq	%rbp
	.cfi_def_cfa_offset 16
	.cfi_offset 6, -16
	movq	%rsp, %rbp
	.cfi_def_cfa_register 6
	.loc 4 1446 7
	movzbl	print_with_color(%rip), %eax
	.loc 4 1446 6
	testb	%al, %al
	je	.L149
	.loc 4 1446 27 discriminator 1
	movl	$4, %edi
	call	is_colored
	.loc 4 1446 24 discriminator 1
	testb	%al, %al
	je	.L149
	.loc 4 1448 7
	leaq	color_indicator(%rip), %rdi
	call	put_indicator
	.loc 4 1449 7
	leaq	64+color_indicator(%rip), %rdi
	call	put_indicator
	.loc 4 1450 7
	leaq	16+color_indicator(%rip), %rdi
	call	put_indicator
.L149:
	.loc 4 1452 1
	nop
	popq	%rbp
	.cfi_def_cfa 7, 8
	ret
	.cfi_endproc
.LFE98:
	.size	set_normal_color, .-set_normal_color
	.type	sighandler, @function
sighandler:
.LFB99:
	.loc 4 1458 1
	.cfi_startproc
	endbr64
	pushq	%rbp
	.cfi_def_cfa_offset 16
	.cfi_offset 6, -16
	movq	%rsp, %rbp
	.cfi_def_cfa_register 6
	movl	%edi, -4(%rbp)
	.loc 4 1461 7
	movl	interrupt_signal(%rip), %eax
	.loc 4 1461 6
	testl	%eax, %eax
	jne	.L152
	.loc 4 1462 22
	movl	-4(%rbp), %eax
	movl	%eax, interrupt_signal(%rip)
.L152:
	.loc 4 1463 1
	nop
	popq	%rbp
	.cfi_def_cfa 7, 8
	ret
	.cfi_endproc
.LFE99:
	.size	sighandler, .-sighandler
	.type	stophandler, @function
stophandler:
.LFB100:
	.loc 4 1469 1
	.cfi_startproc
	endbr64
	pushq	%rbp
	.cfi_def_cfa_offset 16
	.cfi_offset 6, -16
	movq	%rsp, %rbp
	.cfi_def_cfa_register 6
	movl	%edi, -4(%rbp)
	.loc 4 1472 7
	movl	interrupt_signal(%rip), %eax
	.loc 4 1472 6
	testl	%eax, %eax
	jne	.L155
	.loc 4 1473 22
	movl	stop_signal_count(%rip), %eax
	addl	$1, %eax
	movl	%eax, stop_signal_count(%rip)
.L155:
	.loc 4 1474 1
	nop
	popq	%rbp
	.cfi_def_cfa 7, 8
	ret
	.cfi_endproc
.LFE100:
	.size	stophandler, .-stophandler
	.type	process_signals, @function
process_signals:
.LFB101:
	.loc 4 1484 1
	.cfi_startproc
	endbr64
	pushq	%rbp
	.cfi_def_cfa_offset 16
	.cfi_offset 6, -16
	movq	%rsp, %rbp
	.cfi_def_cfa_register 6
	subq	$160, %rsp
	.loc 4 1484 1
	movq	%fs:40, %rax
	movq	%rax, -8(%rbp)
	xorl	%eax, %eax
	.loc 4 1485 9
	jmp	.L157
.L161:
.LBB24:
	.loc 4 1491 11
	movzbl	used_color(%rip), %eax
	.loc 4 1491 10
	testb	%al, %al
	je	.L158
	.loc 4 1492 9
	call	restore_default_color
.L158:
	.loc 4 1493 7
	movq	stdout(%rip), %rax
	movq	%rax, %rdi
	call	fflush_unlocked@PLT
	.loc 4 1495 7
	leaq	-144(%rbp), %rax
	movq	%rax, %rdx
	leaq	caught_signals(%rip), %rsi
	movl	$0, %edi
	call	sigprocmask@PLT
	.loc 4 1499 11
	movl	interrupt_signal(%rip), %eax
	movl	%eax, -152(%rbp)
	.loc 4 1500 13
	movl	stop_signal_count(%rip), %eax
	movl	%eax, -148(%rbp)
	.loc 4 1505 10
	cmpl	$0, -148(%rbp)
	je	.L159
	.loc 4 1507 37
	movl	-148(%rbp), %eax
	subl	$1, %eax
	.loc 4 1507 29
	movl	%eax, stop_signal_count(%rip)
	.loc 4 1508 15
	movl	$19, -152(%rbp)
	jmp	.L160
.L159:
	.loc 4 1511 9
	movl	-152(%rbp), %eax
	movl	$0, %esi
	movl	%eax, %edi
	call	signal@PLT
.L160:
	.loc 4 1514 7
	movl	-152(%rbp), %eax
	movl	%eax, %edi
	call	raise@PLT
	.loc 4 1515 7
	leaq	-144(%rbp), %rax
	movl	$0, %edx
	movq	%rax, %rsi
	movl	$2, %edi
	call	sigprocmask@PLT
.L157:
.LBE24:
	.loc 4 1485 10
	movl	interrupt_signal(%rip), %eax
	.loc 4 1485 9
	testl	%eax, %eax
	jne	.L161
	.loc 4 1485 27 discriminator 1
	movl	stop_signal_count(%rip), %eax
	testl	%eax, %eax
	jne	.L161
	.loc 4 1520 1
	nop
	movq	-8(%rbp), %rax
	xorq	%fs:40, %rax
	je	.L162
	call	__stack_chk_fail@PLT
.L162:
	leave
	.cfi_def_cfa 7, 8
	ret
	.cfi_endproc
.LFE101:
	.size	process_signals, .-process_signals
	.type	signal_setup, @function
signal_setup:
.LFB102:
	.loc 4 1527 1
	.cfi_startproc
	endbr64
	pushq	%rbp
	.cfi_def_cfa_offset 16
	.cfi_offset 6, -16
	movq	%rsp, %rbp
	.cfi_def_cfa_register 6
	subq	$192, %rsp
	movl	%edi, %eax
	movb	%al, -180(%rbp)
	.loc 4 1527 1
	movq	%fs:40, %rax
	movq	%rax, -8(%rbp)
	xorl	%eax, %eax
	.loc 4 1560 6
	cmpb	$0, -180(%rbp)
	je	.L164
.LBB25:
	.loc 4 1565 7
	leaq	caught_signals(%rip), %rdi
	call	sigemptyset@PLT
	.loc 4 1566 14
	movl	$0, -164(%rbp)
	.loc 4 1566 7
	jmp	.L165
.L167:
	.loc 4 1568 11
	movl	-164(%rbp), %eax
	cltq
	leaq	0(,%rax,4), %rdx
	leaq	sig.9372(%rip), %rax
	movl	(%rdx,%rax), %eax
	leaq	-160(%rbp), %rdx
	movl	$0, %esi
	movl	%eax, %edi
	call	sigaction@PLT
	.loc 4 1569 19
	movq	-160(%rbp), %rax
	.loc 4 1569 14
	cmpq	$1, %rax
	je	.L166
	.loc 4 1570 13
	movl	-164(%rbp), %eax
	cltq
	leaq	0(,%rax,4), %rdx
	leaq	sig.9372(%rip), %rax
	movl	(%rdx,%rax), %eax
	movl	%eax, %esi
	leaq	caught_signals(%rip), %rdi
	call	sigaddset@PLT
.L166:
	.loc 4 1566 31 discriminator 2
	addl	$1, -164(%rbp)
.L165:
	.loc 4 1566 7 discriminator 1
	cmpl	$11, -164(%rbp)
	jle	.L167
	.loc 4 1573 19
	movq	caught_signals(%rip), %rax
	movq	8+caught_signals(%rip), %rdx
	movq	%rax, -152(%rbp)
	movq	%rdx, -144(%rbp)
	movq	16+caught_signals(%rip), %rax
	movq	24+caught_signals(%rip), %rdx
	movq	%rax, -136(%rbp)
	movq	%rdx, -128(%rbp)
	movq	32+caught_signals(%rip), %rax
	movq	40+caught_signals(%rip), %rdx
	movq	%rax, -120(%rbp)
	movq	%rdx, -112(%rbp)
	movq	48+caught_signals(%rip), %rax
	movq	56+caught_signals(%rip), %rdx
	movq	%rax, -104(%rbp)
	movq	%rdx, -96(%rbp)
	movq	64+caught_signals(%rip), %rax
	movq	72+caught_signals(%rip), %rdx
	movq	%rax, -88(%rbp)
	movq	%rdx, -80(%rbp)
	movq	80+caught_signals(%rip), %rax
	movq	88+caught_signals(%rip), %rdx
	movq	%rax, -72(%rbp)
	movq	%rdx, -64(%rbp)
	movq	96+caught_signals(%rip), %rax
	movq	104+caught_signals(%rip), %rdx
	movq	%rax, -56(%rbp)
	movq	%rdx, -48(%rbp)
	movq	112+caught_signals(%rip), %rax
	movq	120+caught_signals(%rip), %rdx
	movq	%rax, -40(%rbp)
	movq	%rdx, -32(%rbp)
	.loc 4 1574 20
	movl	$268435456, -24(%rbp)
	.loc 4 1576 14
	movl	$0, -164(%rbp)
	.loc 4 1576 7
	jmp	.L168
.L172:
	.loc 4 1577 13
	movl	-164(%rbp), %eax
	cltq
	leaq	0(,%rax,4), %rdx
	leaq	sig.9372(%rip), %rax
	movl	(%rdx,%rax), %eax
	movl	%eax, %esi
	leaq	caught_signals(%rip), %rdi
	call	sigismember@PLT
	.loc 4 1577 12
	testl	%eax, %eax
	je	.L169
	.loc 4 1579 33
	movl	-164(%rbp), %eax
	cltq
	leaq	0(,%rax,4), %rdx
	leaq	sig.9372(%rip), %rax
	movl	(%rdx,%rax), %eax
	.loc 4 1579 62
	cmpl	$20, %eax
	jne	.L170
	.loc 4 1579 62 is_stmt 0 discriminator 1
	leaq	stophandler(%rip), %rax
	jmp	.L171
.L170:
	.loc 4 1579 62 discriminator 2
	leaq	sighandler(%rip), %rax
.L171:
	.loc 4 1579 28 is_stmt 1 discriminator 4
	movq	%rax, -160(%rbp)
	.loc 4 1580 13 discriminator 4
	movl	-164(%rbp), %eax
	cltq
	leaq	0(,%rax,4), %rdx
	leaq	sig.9372(%rip), %rax
	movl	(%rdx,%rax), %eax
	leaq	-160(%rbp), %rcx
	movl	$0, %edx
	movq	%rcx, %rsi
	movl	%eax, %edi
	call	sigaction@PLT
.L169:
	.loc 4 1576 31 discriminator 2
	addl	$1, -164(%rbp)
.L168:
	.loc 4 1576 7 discriminator 1
	cmpl	$11, -164(%rbp)
	jle	.L172
.LBE25:
	.loc 4 1606 1
	jmp	.L178
.L164:
	.loc 4 1597 14
	movl	$0, -164(%rbp)
	.loc 4 1597 7
	jmp	.L174
.L176:
	.loc 4 1598 13
	movl	-164(%rbp), %eax
	cltq
	leaq	0(,%rax,4), %rdx
	leaq	sig.9372(%rip), %rax
	movl	(%rdx,%rax), %eax
	movl	%eax, %esi
	leaq	caught_signals(%rip), %rdi
	call	sigismember@PLT
	.loc 4 1598 12
	testl	%eax, %eax
	je	.L175
	.loc 4 1599 11
	movl	-164(%rbp), %eax
	cltq
	leaq	0(,%rax,4), %rdx
	leaq	sig.9372(%rip), %rax
	movl	(%rdx,%rax), %eax
	movl	$0, %esi
	movl	%eax, %edi
	call	signal@PLT
.L175:
	.loc 4 1597 31 discriminator 2
	addl	$1, -164(%rbp)
.L174:
	.loc 4 1597 7 discriminator 1
	cmpl	$11, -164(%rbp)
	jle	.L176
.L178:
	.loc 4 1606 1
	nop
	movq	-8(%rbp), %rax
	xorq	%fs:40, %rax
	je	.L177
	call	__stack_chk_fail@PLT
.L177:
	leave
	.cfi_def_cfa 7, 8
	ret
	.cfi_endproc
.LFE102:
	.size	signal_setup, .-signal_setup
	.type	signal_init, @function
signal_init:
.LFB103:
	.loc 4 1610 1
	.cfi_startproc
	pushq	%rbp
	.cfi_def_cfa_offset 16
	.cfi_offset 6, -16
	movq	%rsp, %rbp
	.cfi_def_cfa_register 6
	.loc 4 1611 3
	movl	$1, %edi
	call	signal_setup
	.loc 4 1612 1
	nop
	popq	%rbp
	.cfi_def_cfa 7, 8
	ret
	.cfi_endproc
.LFE103:
	.size	signal_init, .-signal_init
	.type	signal_restore, @function
signal_restore:
.LFB104:
	.loc 4 1616 1
	.cfi_startproc
	pushq	%rbp
	.cfi_def_cfa_offset 16
	.cfi_offset 6, -16
	movq	%rsp, %rbp
	.cfi_def_cfa_register 6
	.loc 4 1617 3
	movl	$0, %edi
	call	signal_setup
	.loc 4 1618 1
	nop
	popq	%rbp
	.cfi_def_cfa 7, 8
	ret
	.cfi_endproc
.LFE104:
	.size	signal_restore, .-signal_restore
	.section	.rodata
.LC139:
	.string	"/usr/local/share/locale"
.LC140:
	.string	"TZ"
.LC141:
	.string	"."
.LC142:
	.string	"found"
.LC143:
	.string	"//DIRED//"
.LC144:
	.string	"//SUBDIRED//"
	.align 8
.LC145:
	.string	"//DIRED-OPTIONS// --quoting-style=%s\n"
	.align 8
.LC146:
	.string	"hash_get_n_entries (active_dir_set) == 0"
	.text
	.globl	main
	.type	main, @function
main:
.LFB105:
	.loc 4 1622 1
	.cfi_startproc
	endbr64
	pushq	%rbp
	.cfi_def_cfa_offset 16
	.cfi_offset 6, -16
	movq	%rsp, %rbp
	.cfi_def_cfa_register 6
	subq	$80, %rsp
	movl	%edi, -68(%rbp)
	movq	%rsi, -80(%rbp)
	.loc 4 1622 1
	movq	%fs:40, %rax
	movq	%rax, -8(%rbp)
	xorl	%eax, %eax
	.loc 4 1628 3
	movq	-80(%rbp), %rax
	movq	(%rax), %rax
	movq	%rax, %rdi
	call	set_program_name@PLT
	.loc 4 1629 3
	leaq	.LC18(%rip), %rsi
	movl	$6, %edi
	call	setlocale@PLT
	.loc 4 1630 3
	leaq	.LC139(%rip), %rsi
	leaq	.LC4(%rip), %rdi
	call	bindtextdomain@PLT
	.loc 4 1631 3
	leaq	.LC4(%rip), %rdi
	call	textdomain@PLT
	.loc 4 1633 3
	movl	$2, %edi
	call	initialize_exit_failure
	.loc 4 1634 3
	movq	close_stdout@GOTPCREL(%rip), %rax
	movq	%rax, %rdi
	call	atexit@PLT
	.loc 4 1639 15
	movl	$0, exit_status(%rip)
	.loc 4 1640 18
	movb	$1, print_dir_name(%rip)
	.loc 4 1641 16
	movq	$0, pending_dirs(%rip)
	.loc 4 1643 23
	movabsq	$-9223372036854775808, %rax
	movq	%rax, current_time(%rip)
	.loc 4 1644 24
	movq	$-1, 8+current_time(%rip)
	.loc 4 1646 7
	movq	-80(%rbp), %rdx
	movl	-68(%rbp), %eax
	movq	%rdx, %rsi
	movl	%eax, %edi
	call	decode_switches
	movl	%eax, -60(%rbp)
	.loc 4 1648 7
	movzbl	print_with_color(%rip), %eax
	.loc 4 1648 6
	testb	%al, %al
	je	.L182
	.loc 4 1649 5
	call	parse_ls_color
.L182:
	.loc 4 1653 7
	movzbl	directories_first(%rip), %eax
	.loc 4 1653 6
	testb	%al, %al
	je	.L183
	.loc 4 1654 24
	movb	$1, check_symlink_mode(%rip)
	jmp	.L184
.L183:
	.loc 4 1655 12
	movzbl	print_with_color(%rip), %eax
	.loc 4 1655 11
	testb	%al, %al
	je	.L184
	.loc 4 1658 11
	movl	$13, %edi
	call	is_colored
	.loc 4 1658 10
	testb	%al, %al
	jne	.L185
	.loc 4 1659 15
	movl	$14, %edi
	call	is_colored
	.loc 4 1659 11
	testb	%al, %al
	je	.L186
	.loc 4 1659 35 discriminator 1
	movzbl	color_symlink_as_referent(%rip), %eax
	testb	%al, %al
	jne	.L185
.L186:
	.loc 4 1660 15
	movl	$12, %edi
	call	is_colored
	.loc 4 1660 11
	testb	%al, %al
	je	.L184
	.loc 4 1660 48 discriminator 1
	movl	format(%rip), %eax
	.loc 4 1660 38 discriminator 1
	testl	%eax, %eax
	jne	.L184
.L185:
	.loc 4 1661 28
	movb	$1, check_symlink_mode(%rip)
.L184:
	.loc 4 1664 19
	movl	dereference(%rip), %eax
	.loc 4 1664 6
	cmpl	$1, %eax
	jne	.L187
	.loc 4 1665 21
	movzbl	immediate_dirs(%rip), %eax
	.loc 4 1669 20
	testb	%al, %al
	jne	.L188
	.loc 4 1666 40
	movl	indicator_style(%rip), %eax
	.loc 4 1666 21
	cmpl	$3, %eax
	je	.L188
	.loc 4 1667 31
	movl	format(%rip), %eax
	.loc 4 1667 21
	testl	%eax, %eax
	jne	.L189
.L188:
	.loc 4 1669 20 discriminator 1
	movl	$2, %eax
	jmp	.L190
.L189:
	.loc 4 1669 20 is_stmt 0
	movl	$4, %eax
.L190:
	.loc 4 1665 17 is_stmt 1
	movl	%eax, dereference(%rip)
.L187:
	.loc 4 1673 7
	movzbl	recursive(%rip), %eax
	.loc 4 1673 6
	testb	%al, %al
	je	.L191
	.loc 4 1675 24
	leaq	dev_ino_free(%rip), %r8
	leaq	dev_ino_compare(%rip), %rcx
	leaq	dev_ino_hash(%rip), %rdx
	movl	$0, %esi
	movl	$30, %edi
	call	hash_initialize@PLT
	.loc 4 1675 22
	movq	%rax, active_dir_set(%rip)
	.loc 4 1679 26
	movq	active_dir_set(%rip), %rax
	.loc 4 1679 10
	testq	%rax, %rax
	jne	.L192
	.loc 4 1680 9
	call	xalloc_die@PLT
.L192:
	.loc 4 1682 7
	movq	free@GOTPCREL(%rip), %rax
	movq	%rax, %r8
	movq	malloc@GOTPCREL(%rip), %rax
	movq	%rax, %rcx
	movl	$0, %edx
	movl	$0, %esi
	leaq	dev_ino_obstack(%rip), %rdi
	call	_obstack_begin@PLT
.L191:
	.loc 4 1685 22
	leaq	.LC140(%rip), %rdi
	call	getenv@PLT
	.loc 4 1685 13
	movq	%rax, %rdi
	call	tzalloc@PLT
	.loc 4 1685 11
	movq	%rax, localtz(%rip)
	.loc 4 1687 33
	movl	sort_type(%rip), %eax
	.loc 4 1690 5
	cmpl	$4, %eax
	je	.L193
	.loc 4 1687 59
	movl	sort_type(%rip), %eax
	.loc 4 1687 46
	cmpl	$2, %eax
	je	.L193
	.loc 4 1688 15
	movl	format(%rip), %eax
	.loc 4 1688 5
	testl	%eax, %eax
	je	.L193
	.loc 4 1689 5
	movzbl	print_scontext(%rip), %eax
	testb	%al, %al
	jne	.L193
	.loc 4 1690 5 discriminator 2
	movzbl	print_block_size(%rip), %eax
	testb	%al, %al
	je	.L194
.L193:
	.loc 4 1690 5 is_stmt 0 discriminator 1
	movl	$1, %eax
	jmp	.L195
.L194:
	.loc 4 1690 5 discriminator 3
	movl	$0, %eax
.L195:
	.loc 4 1690 5 discriminator 5
	andl	$1, %eax
	.loc 4 1687 21 is_stmt 1 discriminator 5
	movb	%al, format_needs_stat(%rip)
	.loc 4 1691 24 discriminator 5
	movzbl	format_needs_stat(%rip), %eax
	xorl	$1, %eax
	.loc 4 1692 24 discriminator 5
	testb	%al, %al
	je	.L196
	.loc 4 1692 28 discriminator 1
	movzbl	recursive(%rip), %eax
	.loc 4 1692 24 discriminator 1
	testb	%al, %al
	jne	.L197
	.loc 4 1693 28
	movzbl	print_with_color(%rip), %eax
	testb	%al, %al
	jne	.L197
	.loc 4 1694 47
	movl	indicator_style(%rip), %eax
	.loc 4 1694 28
	testl	%eax, %eax
	jne	.L197
	.loc 4 1695 28
	movzbl	directories_first(%rip), %eax
	testb	%al, %al
	je	.L196
.L197:
	.loc 4 1692 24 discriminator 3
	movl	$1, %eax
	jmp	.L198
.L196:
	.loc 4 1692 24 is_stmt 0 discriminator 2
	movl	$0, %eax
.L198:
	.loc 4 1692 24 discriminator 5
	andl	$1, %eax
	.loc 4 1691 21 is_stmt 1 discriminator 5
	movb	%al, format_needs_type(%rip)
	.loc 4 1697 7 discriminator 5
	movzbl	dired(%rip), %eax
	.loc 4 1697 6 discriminator 5
	testb	%al, %al
	je	.L199
	.loc 4 1699 7
	movq	free@GOTPCREL(%rip), %rax
	movq	%rax, %r8
	movq	malloc@GOTPCREL(%rip), %rax
	movq	%rax, %rcx
	movl	$0, %edx
	movl	$0, %esi
	leaq	dired_obstack(%rip), %rdi
	call	_obstack_begin@PLT
	.loc 4 1700 7
	movq	free@GOTPCREL(%rip), %rax
	movq	%rax, %r8
	movq	malloc@GOTPCREL(%rip), %rax
	movq	%rax, %rcx
	movl	$0, %edx
	movl	$0, %esi
	leaq	subdired_obstack(%rip), %rdi
	call	_obstack_begin@PLT
.L199:
	.loc 4 1703 7
	movzbl	print_hyperlink(%rip), %eax
	.loc 4 1703 6
	testb	%al, %al
	je	.L200
	.loc 4 1705 7
	call	file_escape_init
	.loc 4 1707 18
	call	xgethostname@PLT
	.loc 4 1707 16
	movq	%rax, hostname(%rip)
	.loc 4 1710 11
	movq	hostname(%rip), %rax
	.loc 4 1710 10
	testq	%rax, %rax
	jne	.L200
	.loc 4 1711 18
	leaq	.LC18(%rip), %rax
	movq	%rax, hostname(%rip)
.L200:
	.loc 4 1714 15
	movq	$100, cwd_n_alloc(%rip)
	.loc 4 1715 14
	movq	cwd_n_alloc(%rip), %rax
	movl	$200, %esi
	movq	%rax, %rdi
	call	xnmalloc@PLT
	.loc 4 1715 12
	movq	%rax, cwd_file(%rip)
	.loc 4 1716 14
	movq	$0, cwd_n_used(%rip)
	.loc 4 1718 3
	call	clear_files
	.loc 4 1720 11
	movl	-68(%rbp), %eax
	subl	-60(%rbp), %eax
	movl	%eax, -52(%rbp)
	.loc 4 1722 6
	cmpl	$0, -52(%rbp)
	jg	.L201
	.loc 4 1724 11
	movzbl	immediate_dirs(%rip), %eax
	.loc 4 1724 10
	testb	%al, %al
	je	.L202
	.loc 4 1725 9
	leaq	.LC18(%rip), %r8
	movl	$1, %ecx
	movl	$0, %edx
	movl	$3, %esi
	leaq	.LC141(%rip), %rdi
	call	gobble_file
	jmp	.L203
.L202:
	.loc 4 1727 9
	movl	$1, %edx
	movl	$0, %esi
	leaq	.LC141(%rip), %rdi
	call	queue_directory
	jmp	.L203
.L201:
	.loc 4 1731 26 discriminator 1
	movl	-60(%rbp), %eax
	leal	1(%rax), %edx
	movl	%edx, -60(%rbp)
	cltq
	.loc 4 1731 24 discriminator 1
	leaq	0(,%rax,8), %rdx
	movq	-80(%rbp), %rax
	addq	%rdx, %rax
	.loc 4 1731 7 discriminator 1
	movq	(%rax), %rax
	leaq	.LC18(%rip), %r8
	movl	$1, %ecx
	movl	$0, %edx
	movl	$0, %esi
	movq	%rax, %rdi
	call	gobble_file
	.loc 4 1732 5 discriminator 1
	movl	-60(%rbp), %eax
	cmpl	-68(%rbp), %eax
	jl	.L201
.L203:
	.loc 4 1734 7
	movq	cwd_n_used(%rip), %rax
	.loc 4 1734 6
	testq	%rax, %rax
	je	.L204
	.loc 4 1736 7
	call	sort_files
	.loc 4 1737 11
	movzbl	immediate_dirs(%rip), %eax
	xorl	$1, %eax
	.loc 4 1737 10
	testb	%al, %al
	je	.L204
	.loc 4 1738 9
	movl	$1, %esi
	movl	$0, %edi
	call	extract_dirs_from_files
.L204:
	.loc 4 1746 7
	movq	cwd_n_used(%rip), %rax
	.loc 4 1746 6
	testq	%rax, %rax
	je	.L205
	.loc 4 1748 7
	call	print_current_files
	.loc 4 1749 11
	movq	pending_dirs(%rip), %rax
	.loc 4 1749 10
	testq	%rax, %rax
	je	.L207
	.loc 4 1750 9
	movl	$10, %edi
	call	putchar_unlocked@PLT
	movq	dired_pos(%rip), %rax
	addq	$1, %rax
	movq	%rax, dired_pos(%rip)
	jmp	.L207
.L205:
	.loc 4 1752 11
	cmpl	$1, -52(%rbp)
	jg	.L207
	.loc 4 1752 25 discriminator 1
	movq	pending_dirs(%rip), %rax
	testq	%rax, %rax
	je	.L207
	.loc 4 1752 56 discriminator 2
	movq	pending_dirs(%rip), %rax
	movq	24(%rax), %rax
	.loc 4 1752 41 discriminator 2
	testq	%rax, %rax
	jne	.L207
	.loc 4 1753 20
	movb	$0, print_dir_name(%rip)
	.loc 4 1755 9
	jmp	.L207
.L210:
	.loc 4 1757 16
	movq	pending_dirs(%rip), %rax
	movq	%rax, -48(%rbp)
	.loc 4 1758 34
	movq	pending_dirs(%rip), %rax
	movq	24(%rax), %rax
	.loc 4 1758 20
	movq	%rax, pending_dirs(%rip)
	.loc 4 1760 11
	movq	active_dir_set(%rip), %rax
	.loc 4 1760 10
	testq	%rax, %rax
	je	.L208
	.loc 4 1762 23
	movq	-48(%rbp), %rax
	movq	(%rax), %rax
	.loc 4 1762 14
	testq	%rax, %rax
	jne	.L208
.LBB26:
	.loc 4 1768 35
	call	dev_ino_pop
	movq	%rax, -32(%rbp)
	movq	%rdx, -24(%rbp)
	.loc 4 1769 39
	movq	active_dir_set(%rip), %rax
	leaq	-32(%rbp), %rdx
	movq	%rdx, %rsi
	movq	%rax, %rdi
	call	hash_remove@PLT
	movq	%rax, -40(%rbp)
	.loc 4 1771 15
	cmpq	$0, -40(%rbp)
	jne	.L209
	.loc 4 1771 15 is_stmt 0 discriminator 1
	leaq	__PRETTY_FUNCTION__.9399(%rip), %rcx
	movl	$1771, %edx
	leaq	.LC133(%rip), %rsi
	leaq	.LC142(%rip), %rdi
	call	__assert_fail@PLT
.L209:
	.loc 4 1772 15 is_stmt 1
	movq	-40(%rbp), %rax
	movq	%rax, %rdi
	call	dev_ino_free
	.loc 4 1773 15
	movq	-48(%rbp), %rax
	movq	%rax, %rdi
	call	free_pending_ent
	jmp	.L207
.L208:
.LBE26:
	.loc 4 1779 26
	movq	-48(%rbp), %rax
	movzbl	16(%rax), %eax
	.loc 4 1778 7
	movzbl	%al, %edx
	.loc 4 1778 42
	movq	-48(%rbp), %rax
	movq	8(%rax), %rcx
	.loc 4 1778 26
	movq	-48(%rbp), %rax
	movq	(%rax), %rax
	.loc 4 1778 7
	movq	%rcx, %rsi
	movq	%rax, %rdi
	call	print_dir
	.loc 4 1781 7
	movq	-48(%rbp), %rax
	movq	%rax, %rdi
	call	free_pending_ent
	.loc 4 1782 22
	movb	$1, print_dir_name(%rip)
.L207:
	.loc 4 1755 10
	movq	pending_dirs(%rip), %rax
	.loc 4 1755 9
	testq	%rax, %rax
	jne	.L210
	.loc 4 1785 7
	movzbl	print_with_color(%rip), %eax
	.loc 4 1785 6
	testb	%al, %al
	je	.L211
	.loc 4 1785 24 discriminator 1
	movzbl	used_color(%rip), %eax
	testb	%al, %al
	je	.L211
.LBB27:
	.loc 4 1791 36
	movq	color_indicator(%rip), %rax
	.loc 4 1791 10
	cmpq	$2, %rax
	jne	.L212
	.loc 4 1792 47
	movq	8+color_indicator(%rip), %rax
	.loc 4 1792 16
	movl	$2, %edx
	leaq	.LC52(%rip), %rsi
	movq	%rax, %rdi
	call	memcmp@PLT
	.loc 4 1792 13
	testl	%eax, %eax
	jne	.L212
	.loc 4 1793 40
	movq	16+color_indicator(%rip), %rax
	.loc 4 1793 13
	cmpq	$1, %rax
	jne	.L212
	.loc 4 1794 40
	movq	24+color_indicator(%rip), %rax
	.loc 4 1794 47
	movzbl	(%rax), %eax
	.loc 4 1791 11
	cmpb	$109, %al
	je	.L213
.L212:
	.loc 4 1795 9
	call	restore_default_color
.L213:
	.loc 4 1797 7
	movq	stdout(%rip), %rax
	movq	%rax, %rdi
	call	fflush_unlocked@PLT
	.loc 4 1799 7
	call	signal_restore
	.loc 4 1805 14
	movl	stop_signal_count(%rip), %eax
	movl	%eax, -56(%rbp)
	.loc 4 1805 7
	jmp	.L214
.L215:
	.loc 4 1806 9 discriminator 3
	movl	$19, %edi
	call	raise@PLT
	.loc 4 1805 39 discriminator 3
	subl	$1, -56(%rbp)
.L214:
	.loc 4 1805 7 discriminator 1
	cmpl	$0, -56(%rbp)
	jne	.L215
	.loc 4 1807 9
	movl	interrupt_signal(%rip), %eax
	movl	%eax, -56(%rbp)
	.loc 4 1808 10
	cmpl	$0, -56(%rbp)
	je	.L211
	.loc 4 1809 9
	movl	-56(%rbp), %eax
	movl	%eax, %edi
	call	raise@PLT
.L211:
.LBE27:
	.loc 4 1812 7
	movzbl	dired(%rip), %eax
	.loc 4 1812 6
	testb	%al, %al
	je	.L216
	.loc 4 1815 7
	leaq	dired_obstack(%rip), %rsi
	leaq	.LC143(%rip), %rdi
	call	dired_dump_obstack
	.loc 4 1816 7
	leaq	subdired_obstack(%rip), %rsi
	leaq	.LC144(%rip), %rdi
	call	dired_dump_obstack
	.loc 4 1818 34
	movq	filename_quoting_options(%rip), %rax
	movq	%rax, %rdi
	call	get_quoting_style@PLT
	.loc 4 1817 7
	movl	%eax, %eax
	leaq	0(,%rax,8), %rdx
	leaq	quoting_style_args(%rip), %rax
	movq	(%rdx,%rax), %rax
	movq	%rax, %rsi
	leaq	.LC145(%rip), %rdi
	movl	$0, %eax
	call	printf@PLT
.L216:
	.loc 4 1821 7
	movq	active_dir_set(%rip), %rax
	.loc 4 1821 6
	testq	%rax, %rax
	je	.L217
	.loc 4 1823 7
	movq	active_dir_set(%rip), %rax
	movq	%rax, %rdi
	call	hash_get_n_entries@PLT
	testq	%rax, %rax
	je	.L218
	.loc 4 1823 7 is_stmt 0 discriminator 1
	leaq	__PRETTY_FUNCTION__.9399(%rip), %rcx
	movl	$1823, %edx
	leaq	.LC133(%rip), %rsi
	leaq	.LC146(%rip), %rdi
	call	__assert_fail@PLT
.L218:
	.loc 4 1824 7 is_stmt 1
	movq	active_dir_set(%rip), %rax
	movq	%rax, %rdi
	call	hash_free@PLT
.L217:
	.loc 4 1827 10
	movl	exit_status(%rip), %eax
	.loc 4 1828 1
	movq	-8(%rbp), %rcx
	xorq	%fs:40, %rcx
	je	.L220
	call	__stack_chk_fail@PLT
.L220:
	leave
	.cfi_def_cfa 7, 8
	ret
	.cfi_endproc
.LFE105:
	.size	main, .-main
	.type	set_line_length, @function
set_line_length:
.LFB106:
	.loc 4 1835 1
	.cfi_startproc
	endbr64
	pushq	%rbp
	.cfi_def_cfa_offset 16
	.cfi_offset 6, -16
	movq	%rsp, %rbp
	.cfi_def_cfa_register 6
	subq	$32, %rsp
	movq	%rdi, -24(%rbp)
	.loc 4 1835 1
	movq	%fs:40, %rax
	movq	%rax, -8(%rbp)
	xorl	%eax, %eax
	.loc 4 1840 11
	leaq	-16(%rbp), %rdx
	movq	-24(%rbp), %rax
	leaq	.LC18(%rip), %r8
	movq	%rdx, %rcx
	movl	$0, %edx
	movl	$0, %esi
	movq	%rax, %rdi
	call	xstrtoumax@PLT
	.loc 4 1840 3
	testl	%eax, %eax
	je	.L222
	cmpl	$1, %eax
	je	.L223
	jmp	.L228
.L222:
	.loc 4 1843 19
	movq	-16(%rbp), %rax
	movq	%rax, line_length(%rip)
	.loc 4 1844 14
	movl	$1, %eax
	jmp	.L226
.L223:
	.loc 4 1847 19
	movq	$-1, line_length(%rip)
	.loc 4 1848 14
	movl	$1, %eax
	jmp	.L226
.L228:
	.loc 4 1851 14
	movl	$0, %eax
.L226:
	.loc 4 1853 1 discriminator 1
	movq	-8(%rbp), %rcx
	xorq	%fs:40, %rcx
	je	.L227
	.loc 4 1853 1 is_stmt 0
	call	__stack_chk_fail@PLT
.L227:
	leave
	.cfi_def_cfa 7, 8
	ret
	.cfi_endproc
.LFE106:
	.size	set_line_length, .-set_line_length
	.section	.rodata
.LC147:
	.string	"COLUMNS"
	.align 8
.LC148:
	.string	"ignoring invalid width in environment variable COLUMNS: %s"
.LC149:
	.string	"TABSIZE"
	.align 8
.LC150:
	.string	"ignoring invalid tab size in environment variable TABSIZE: %s"
	.align 8
.LC151:
	.string	"abcdfghiklmnopqrstuvw:xABCDFGHI:LNQRST:UXZ1"
.LC152:
	.string	"invalid line width"
.LC153:
	.string	"%s: %s"
.LC154:
	.string	"*~"
.LC155:
	.string	".*~"
.LC156:
	.string	"--classify"
.LC157:
	.string	"invalid tab size"
.LC158:
	.string	"--sort"
.LC159:
	.string	"--time"
.LC160:
	.string	"--format"
.LC161:
	.string	"--color"
.LC162:
	.string	"--hyperlink"
.LC163:
	.string	"--indicator-style"
.LC164:
	.string	"--quoting-style"
.LC165:
	.string	"dir"
.LC166:
	.string	"vdir"
.LC167:
	.string	"ls"
.LC168:
	.string	"David MacKenzie"
.LC169:
	.string	"Richard M. Stallman"
.LC170:
	.string	"LS_BLOCK_SIZE"
.LC171:
	.string	"BLOCK_SIZE"
.LC172:
	.string	"*=>@|"
.LC173:
	.string	"TIME_STYLE"
.LC174:
	.string	"invalid time style format %s"
.LC175:
	.string	"time style"
.LC176:
	.string	"Valid arguments are:\n"
.LC177:
	.string	"  - [posix-]%s\n"
	.align 8
.LC178:
	.string	"  - +FORMAT (e.g., +%H:%M) for a 'date'-style format\n"
.LC179:
	.string	"%Y-%m-%d %H:%M:%S.%N %z"
.LC180:
	.string	"%Y-%m-%d %H:%M"
.LC181:
	.string	"%Y-%m-%d "
.LC182:
	.string	"%m-%d %H:%M"
	.text
	.type	decode_switches, @function
decode_switches:
.LFB107:
	.loc 4 1860 1 is_stmt 1
	.cfi_startproc
	endbr64
	pushq	%rbp
	.cfi_def_cfa_offset 16
	.cfi_offset 6, -16
	movq	%rsp, %rbp
	.cfi_def_cfa_register 6
	pushq	%rbx
	subq	$168, %rsp
	.cfi_offset 3, -24
	movl	%edi, -164(%rbp)
	movq	%rsi, -176(%rbp)
	.loc 4 1860 1
	movq	%fs:40, %rax
	movq	%rax, -24(%rbp)
	xorl	%eax, %eax
	.loc 4 1861 9
	movq	$0, -120(%rbp)
	.loc 4 1863 8
	movb	$0, -150(%rbp)
	.loc 4 1864 8
	movb	$0, -149(%rbp)
	.loc 4 1866 21
	movb	$0, qmark_funny_chars(%rip)
	.loc 4 1870 3
	movl	ls_mode(%rip), %eax
	cmpl	$3, %eax
	je	.L230
	cmpl	$3, %eax
	jg	.L231
	cmpl	$1, %eax
	je	.L232
	cmpl	$2, %eax
	jne	.L231
	.loc 4 1874 14
	movl	$2, format(%rip)
	.loc 4 1875 7
	movl	$7, %esi
	movl	$0, %edi
	call	set_quoting_style@PLT
	.loc 4 1876 7
	jmp	.L233
.L230:
	.loc 4 1880 14
	movl	$0, format(%rip)
	.loc 4 1881 7
	movl	$7, %esi
	movl	$0, %edi
	call	set_quoting_style@PLT
	.loc 4 1882 7
	jmp	.L233
.L232:
	.loc 4 1886 11
	movl	$1, %edi
	call	isatty@PLT
	.loc 4 1886 10
	testl	%eax, %eax
	je	.L234
	.loc 4 1888 18
	movl	$2, format(%rip)
	.loc 4 1889 11
	movl	$3, %esi
	movl	$0, %edi
	call	set_quoting_style@PLT
	.loc 4 1891 29
	movb	$1, qmark_funny_chars(%rip)
	.loc 4 1898 7
	jmp	.L233
.L234:
	.loc 4 1895 18
	movl	$1, format(%rip)
	.loc 4 1896 29
	movb	$0, qmark_funny_chars(%rip)
	.loc 4 1898 7
	jmp	.L233
.L231:
	.loc 4 1901 7
	call	abort@PLT
.L233:
	.loc 4 1904 13
	movl	$0, time_type(%rip)
	.loc 4 1905 13
	movl	$0, sort_type(%rip)
	.loc 4 1906 16
	movb	$0, sort_reverse(%rip)
	.loc 4 1907 15
	movb	$0, numeric_ids(%rip)
	.loc 4 1908 20
	movb	$0, print_block_size(%rip)
	.loc 4 1909 19
	movl	$0, indicator_style(%rip)
	.loc 4 1910 15
	movb	$0, print_inode(%rip)
	.loc 4 1911 15
	movl	$1, dereference(%rip)
	.loc 4 1912 13
	movb	$0, recursive(%rip)
	.loc 4 1913 18
	movb	$0, immediate_dirs(%rip)
	.loc 4 1914 15
	movl	$0, ignore_mode(%rip)
	.loc 4 1915 19
	movq	$0, ignore_patterns(%rip)
	.loc 4 1916 17
	movq	$0, hide_patterns(%rip)
	.loc 4 1917 18
	movb	$0, print_scontext(%rip)
	.loc 4 1919 3
	call	getenv_quoting_style
	.loc 4 1921 15
	movq	$80, line_length(%rip)
.LBB28:
	.loc 4 1923 21
	leaq	.LC147(%rip), %rdi
	call	getenv@PLT
	movq	%rax, -80(%rbp)
	.loc 4 1924 8
	cmpq	$0, -80(%rbp)
	je	.L236
	.loc 4 1924 14 discriminator 1
	movq	-80(%rbp), %rax
	movzbl	(%rax), %eax
	.loc 4 1924 11 discriminator 1
	testb	%al, %al
	je	.L236
	.loc 4 1924 22 discriminator 2
	movq	-80(%rbp), %rax
	movq	%rax, %rdi
	call	set_line_length
	.loc 4 1924 20 discriminator 2
	xorl	$1, %eax
	.loc 4 1924 17 discriminator 2
	testb	%al, %al
	je	.L236
	.loc 4 1925 7
	movq	-80(%rbp), %rax
	movq	%rax, %rdi
	call	quote@PLT
	movq	%rax, %rbx
	.loc 4 1926 14
	leaq	.LC148(%rip), %rdi
	call	gettext@PLT
	.loc 4 1925 7
	movq	%rbx, %rcx
	movq	%rax, %rdx
	movl	$0, %esi
	movl	$0, %edi
	movl	$0, %eax
	call	error@PLT
.L236:
.LBE28:
.LBB29:
	.loc 4 1934 9
	leaq	-32(%rbp), %rax
	movq	%rax, %rdx
	movl	$21523, %esi
	movl	$1, %edi
	movl	$0, %eax
	call	ioctl@PLT
	.loc 4 1934 8
	cmpl	$-1, %eax
	je	.L237
	.loc 4 1935 18
	movzwl	-30(%rbp), %eax
	.loc 4 1935 9
	testw	%ax, %ax
	je	.L237
	.loc 4 1936 23
	movzwl	-30(%rbp), %eax
	movzwl	%ax, %eax
	.loc 4 1936 19
	movq	%rax, line_length(%rip)
.L237:
.LBE29:
.LBB30:
	.loc 4 1941 21
	leaq	.LC149(%rip), %rdi
	call	getenv@PLT
	movq	%rax, -72(%rbp)
	.loc 4 1942 13
	movq	$8, tabsize(%rip)
	.loc 4 1943 8
	cmpq	$0, -72(%rbp)
	je	.L331
.LBB31:
	.loc 4 1946 13
	leaq	-32(%rbp), %rdx
	movq	-72(%rbp), %rax
	leaq	.LC18(%rip), %r8
	movq	%rdx, %rcx
	movl	$0, %edx
	movl	$0, %esi
	movq	%rax, %rdi
	call	xstrtoumax@PLT
	.loc 4 1946 12
	testl	%eax, %eax
	jne	.L239
	.loc 4 1948 19
	movq	-32(%rbp), %rax
	movq	%rax, tabsize(%rip)
	jmp	.L331
.L239:
	.loc 4 1950 11
	movq	-72(%rbp), %rax
	movq	%rax, %rdi
	call	quote@PLT
	movq	%rax, %rbx
	.loc 4 1951 18
	leaq	.LC150(%rip), %rdi
	call	gettext@PLT
	.loc 4 1950 11
	movq	%rbx, %rcx
	movq	%rax, %rdx
	movl	$0, %esi
	movl	$0, %edi
	movl	$0, %eax
	call	error@PLT
.L331:
.LBE31:
.LBE30:
.LBB32:
	.loc 4 1959 11
	movl	$-1, -32(%rbp)
	.loc 4 1960 15
	leaq	-32(%rbp), %rdx
	movq	-176(%rbp), %rsi
	movl	-164(%rbp), %eax
	movq	%rdx, %r8
	leaq	long_options(%rip), %rcx
	leaq	.LC151(%rip), %rdx
	movl	%eax, %edi
	call	getopt_long@PLT
	movl	%eax, -132(%rbp)
	.loc 4 1963 10
	cmpl	$-1, -132(%rbp)
	jne	.L241
.LBE32:
	.loc 4 2295 7
	movq	output_block_size(%rip), %rax
	.loc 4 2295 6
	testq	%rax, %rax
	je	.L242
.LBB41:
	jmp	.L243
.L241:
	movl	-132(%rbp), %eax
	addl	$131, %eax
	cmpl	$275, %eax
	ja	.L244
	movl	%eax, %eax
	leaq	0(,%rax,4), %rdx
	leaq	.L246(%rip), %rax
	movl	(%rdx,%rax), %eax
	cltq
	leaq	.L246(%rip), %rdx
	addq	%rdx, %rax
	notrack jmp	*%rax
	.section	.rodata
	.align 4
	.align 4
.L246:
	.long	.L304-.L246
	.long	.L303-.L246
	.long	.L244-.L246
	.long	.L244-.L246
	.long	.L244-.L246
	.long	.L244-.L246
	.long	.L244-.L246
	.long	.L244-.L246
	.long	.L244-.L246
	.long	.L244-.L246
	.long	.L244-.L246
	.long	.L244-.L246
	.long	.L244-.L246
	.long	.L244-.L246
	.long	.L244-.L246
	.long	.L244-.L246
	.long	.L244-.L246
	.long	.L244-.L246
	.long	.L244-.L246
	.long	.L244-.L246
	.long	.L244-.L246
	.long	.L244-.L246
	.long	.L244-.L246
	.long	.L244-.L246
	.long	.L244-.L246
	.long	.L244-.L246
	.long	.L244-.L246
	.long	.L244-.L246
	.long	.L244-.L246
	.long	.L244-.L246
	.long	.L244-.L246
	.long	.L244-.L246
	.long	.L244-.L246
	.long	.L244-.L246
	.long	.L244-.L246
	.long	.L244-.L246
	.long	.L244-.L246
	.long	.L244-.L246
	.long	.L244-.L246
	.long	.L244-.L246
	.long	.L244-.L246
	.long	.L244-.L246
	.long	.L244-.L246
	.long	.L244-.L246
	.long	.L244-.L246
	.long	.L244-.L246
	.long	.L244-.L246
	.long	.L244-.L246
	.long	.L244-.L246
	.long	.L244-.L246
	.long	.L244-.L246
	.long	.L244-.L246
	.long	.L244-.L246
	.long	.L244-.L246
	.long	.L244-.L246
	.long	.L244-.L246
	.long	.L244-.L246
	.long	.L244-.L246
	.long	.L244-.L246
	.long	.L244-.L246
	.long	.L244-.L246
	.long	.L244-.L246
	.long	.L244-.L246
	.long	.L244-.L246
	.long	.L244-.L246
	.long	.L244-.L246
	.long	.L244-.L246
	.long	.L244-.L246
	.long	.L244-.L246
	.long	.L244-.L246
	.long	.L244-.L246
	.long	.L244-.L246
	.long	.L244-.L246
	.long	.L244-.L246
	.long	.L244-.L246
	.long	.L244-.L246
	.long	.L244-.L246
	.long	.L244-.L246
	.long	.L244-.L246
	.long	.L244-.L246
	.long	.L244-.L246
	.long	.L244-.L246
	.long	.L244-.L246
	.long	.L244-.L246
	.long	.L244-.L246
	.long	.L244-.L246
	.long	.L244-.L246
	.long	.L244-.L246
	.long	.L244-.L246
	.long	.L244-.L246
	.long	.L244-.L246
	.long	.L244-.L246
	.long	.L244-.L246
	.long	.L244-.L246
	.long	.L244-.L246
	.long	.L244-.L246
	.long	.L244-.L246
	.long	.L244-.L246
	.long	.L244-.L246
	.long	.L244-.L246
	.long	.L244-.L246
	.long	.L244-.L246
	.long	.L244-.L246
	.long	.L244-.L246
	.long	.L244-.L246
	.long	.L244-.L246
	.long	.L244-.L246
	.long	.L244-.L246
	.long	.L244-.L246
	.long	.L244-.L246
	.long	.L244-.L246
	.long	.L244-.L246
	.long	.L244-.L246
	.long	.L244-.L246
	.long	.L244-.L246
	.long	.L244-.L246
	.long	.L244-.L246
	.long	.L244-.L246
	.long	.L244-.L246
	.long	.L244-.L246
	.long	.L244-.L246
	.long	.L244-.L246
	.long	.L244-.L246
	.long	.L244-.L246
	.long	.L244-.L246
	.long	.L244-.L246
	.long	.L244-.L246
	.long	.L244-.L246
	.long	.L244-.L246
	.long	.L244-.L246
	.long	.L244-.L246
	.long	.L244-.L246
	.long	.L244-.L246
	.long	.L244-.L246
	.long	.L244-.L246
	.long	.L244-.L246
	.long	.L244-.L246
	.long	.L244-.L246
	.long	.L244-.L246
	.long	.L244-.L246
	.long	.L244-.L246
	.long	.L244-.L246
	.long	.L244-.L246
	.long	.L244-.L246
	.long	.L244-.L246
	.long	.L244-.L246
	.long	.L244-.L246
	.long	.L244-.L246
	.long	.L244-.L246
	.long	.L244-.L246
	.long	.L244-.L246
	.long	.L244-.L246
	.long	.L244-.L246
	.long	.L244-.L246
	.long	.L244-.L246
	.long	.L244-.L246
	.long	.L244-.L246
	.long	.L244-.L246
	.long	.L244-.L246
	.long	.L244-.L246
	.long	.L244-.L246
	.long	.L244-.L246
	.long	.L244-.L246
	.long	.L244-.L246
	.long	.L244-.L246
	.long	.L244-.L246
	.long	.L244-.L246
	.long	.L244-.L246
	.long	.L244-.L246
	.long	.L244-.L246
	.long	.L244-.L246
	.long	.L244-.L246
	.long	.L244-.L246
	.long	.L244-.L246
	.long	.L244-.L246
	.long	.L244-.L246
	.long	.L244-.L246
	.long	.L244-.L246
	.long	.L244-.L246
	.long	.L244-.L246
	.long	.L302-.L246
	.long	.L244-.L246
	.long	.L244-.L246
	.long	.L244-.L246
	.long	.L244-.L246
	.long	.L244-.L246
	.long	.L244-.L246
	.long	.L244-.L246
	.long	.L244-.L246
	.long	.L244-.L246
	.long	.L244-.L246
	.long	.L244-.L246
	.long	.L244-.L246
	.long	.L244-.L246
	.long	.L244-.L246
	.long	.L244-.L246
	.long	.L301-.L246
	.long	.L300-.L246
	.long	.L299-.L246
	.long	.L298-.L246
	.long	.L244-.L246
	.long	.L297-.L246
	.long	.L296-.L246
	.long	.L295-.L246
	.long	.L294-.L246
	.long	.L244-.L246
	.long	.L244-.L246
	.long	.L293-.L246
	.long	.L244-.L246
	.long	.L292-.L246
	.long	.L244-.L246
	.long	.L244-.L246
	.long	.L291-.L246
	.long	.L290-.L246
	.long	.L289-.L246
	.long	.L288-.L246
	.long	.L287-.L246
	.long	.L244-.L246
	.long	.L244-.L246
	.long	.L286-.L246
	.long	.L244-.L246
	.long	.L285-.L246
	.long	.L244-.L246
	.long	.L244-.L246
	.long	.L244-.L246
	.long	.L244-.L246
	.long	.L244-.L246
	.long	.L244-.L246
	.long	.L284-.L246
	.long	.L283-.L246
	.long	.L282-.L246
	.long	.L281-.L246
	.long	.L244-.L246
	.long	.L280-.L246
	.long	.L279-.L246
	.long	.L278-.L246
	.long	.L277-.L246
	.long	.L244-.L246
	.long	.L276-.L246
	.long	.L275-.L246
	.long	.L274-.L246
	.long	.L273-.L246
	.long	.L272-.L246
	.long	.L271-.L246
	.long	.L270-.L246
	.long	.L269-.L246
	.long	.L268-.L246
	.long	.L267-.L246
	.long	.L266-.L246
	.long	.L265-.L246
	.long	.L264-.L246
	.long	.L263-.L246
	.long	.L244-.L246
	.long	.L244-.L246
	.long	.L244-.L246
	.long	.L244-.L246
	.long	.L244-.L246
	.long	.L244-.L246
	.long	.L244-.L246
	.long	.L262-.L246
	.long	.L261-.L246
	.long	.L260-.L246
	.long	.L259-.L246
	.long	.L258-.L246
	.long	.L257-.L246
	.long	.L256-.L246
	.long	.L255-.L246
	.long	.L254-.L246
	.long	.L253-.L246
	.long	.L252-.L246
	.long	.L251-.L246
	.long	.L250-.L246
	.long	.L249-.L246
	.long	.L248-.L246
	.long	.L247-.L246
	.long	.L245-.L246
	.text
.L284:
.LBE41:
.LBB42:
	.loc 4 1969 23
	movl	$2, ignore_mode(%rip)
	.loc 4 1970 11
	jmp	.L305
.L283:
	.loc 4 1973 11
	movl	$7, %esi
	movl	$0, %edi
	call	set_quoting_style@PLT
	.loc 4 1974 11
	jmp	.L305
.L282:
	.loc 4 1977 21
	movl	$1, time_type(%rip)
	.loc 4 1978 11
	jmp	.L305
.L281:
	.loc 4 1981 26
	movb	$1, immediate_dirs(%rip)
	.loc 4 1982 11
	jmp	.L305
.L280:
	.loc 4 1986 23
	movl	$2, ignore_mode(%rip)
	.loc 4 1987 21
	movl	$-1, sort_type(%rip)
	.loc 4 1988 31
	movb	$1, -150(%rbp)
	.loc 4 1990 22
	movl	format(%rip), %eax
	.loc 4 1990 14
	testl	%eax, %eax
	jne	.L306
	.loc 4 1991 23
	movl	$1, %edi
	call	isatty@PLT
	.loc 4 1991 62
	testl	%eax, %eax
	je	.L307
	.loc 4 1991 62 is_stmt 0 discriminator 1
	movl	$2, %eax
	jmp	.L308
.L307:
	.loc 4 1991 62 discriminator 2
	movl	$1, %eax
.L308:
	.loc 4 1991 20 is_stmt 1 discriminator 4
	movl	%eax, format(%rip)
.L306:
	.loc 4 1992 28
	movb	$0, print_block_size(%rip)
	.loc 4 1993 28
	movb	$0, print_with_color(%rip)
	.loc 4 1994 27
	movb	$0, print_hyperlink(%rip)
	.loc 4 1995 11
	jmp	.L305
.L258:
	.loc 4 1998 27
	movl	$2, indicator_style(%rip)
	.loc 4 1999 11
	jmp	.L305
.L279:
	.loc 4 2002 18
	movl	$0, format(%rip)
	.loc 4 2003 23
	movb	$0, print_owner(%rip)
	.loc 4 2004 11
	jmp	.L305
.L278:
	.loc 4 2007 54
	movl	$176, human_output_opts(%rip)
	.loc 4 2007 34
	movl	human_output_opts(%rip), %eax
	movl	%eax, file_human_output_opts(%rip)
	.loc 4 2009 54
	movq	$1, output_block_size(%rip)
	.loc 4 2009 34
	movq	output_block_size(%rip), %rax
	movq	%rax, file_output_block_size(%rip)
	.loc 4 2010 11
	jmp	.L305
.L277:
	.loc 4 2013 23
	movb	$1, print_inode(%rip)
	.loc 4 2014 11
	jmp	.L305
.L276:
	.loc 4 2017 31
	movb	$1, -149(%rbp)
	.loc 4 2018 11
	jmp	.L305
.L275:
	.loc 4 2021 18
	movl	$0, format(%rip)
	.loc 4 2022 11
	jmp	.L305
.L274:
	.loc 4 2025 18
	movl	$4, format(%rip)
	.loc 4 2026 11
	jmp	.L305
.L273:
	.loc 4 2029 23
	movb	$1, numeric_ids(%rip)
	.loc 4 2030 18
	movl	$0, format(%rip)
	.loc 4 2031 11
	jmp	.L305
.L272:
	.loc 4 2034 18
	movl	$0, format(%rip)
	.loc 4 2035 23
	movb	$0, print_group(%rip)
	.loc 4 2036 11
	jmp	.L305
.L271:
	.loc 4 2039 27
	movl	$1, indicator_style(%rip)
	.loc 4 2040 11
	jmp	.L305
.L270:
	.loc 4 2043 29
	movb	$1, qmark_funny_chars(%rip)
	.loc 4 2044 11
	jmp	.L305
.L269:
	.loc 4 2047 24
	movb	$1, sort_reverse(%rip)
	.loc 4 2048 11
	jmp	.L305
.L268:
	.loc 4 2051 28
	movb	$1, print_block_size(%rip)
	.loc 4 2052 11
	jmp	.L305
.L267:
	.loc 4 2055 21
	movl	$4, sort_type(%rip)
	.loc 4 2056 31
	movb	$1, -150(%rbp)
	.loc 4 2057 11
	jmp	.L305
.L266:
	.loc 4 2060 21
	movl	$2, time_type(%rip)
	.loc 4 2061 11
	jmp	.L305
.L265:
	.loc 4 2064 21
	movl	$3, sort_type(%rip)
	.loc 4 2065 31
	movb	$1, -150(%rbp)
	.loc 4 2066 11
	jmp	.L305
.L264:
	.loc 4 2069 17
	movq	optarg(%rip), %rax
	movq	%rax, %rdi
	call	set_line_length
	.loc 4 2069 15
	xorl	$1, %eax
	.loc 4 2069 14
	testb	%al, %al
	je	.L367
.LBB33:
	.loc 4 2070 13
	movq	optarg(%rip), %rax
	movq	%rax, %rdi
	call	quote@PLT
	movq	%rax, %rbx
	leaq	.LC152(%rip), %rdi
	call	gettext@PLT
	movq	%rbx, %r8
	movq	%rax, %rcx
	leaq	.LC153(%rip), %rdx
	movl	$0, %esi
	movl	$2, %edi
	movl	$0, %eax
	call	error@PLT
.L263:
.LBE33:
	.loc 4 2075 18
	movl	$3, format(%rip)
	.loc 4 2076 11
	jmp	.L305
.L301:
	.loc 4 2079 23
	movl	$1, ignore_mode(%rip)
	.loc 4 2080 11
	jmp	.L305
.L300:
	.loc 4 2083 11
	leaq	.LC154(%rip), %rdi
	call	add_ignore_pattern
	.loc 4 2084 11
	leaq	.LC155(%rip), %rdi
	call	add_ignore_pattern
	.loc 4 2085 11
	jmp	.L305
.L299:
	.loc 4 2088 18
	movl	$2, format(%rip)
	.loc 4 2089 11
	jmp	.L305
.L298:
	.loc 4 2092 17
	movb	$1, dired(%rip)
	.loc 4 2093 11
	jmp	.L305
.L297:
.LBB34:
	.loc 4 2098 17
	movq	optarg(%rip), %rax
	.loc 4 2098 16
	testq	%rax, %rax
	je	.L310
	.loc 4 2099 19
	movq	argmatch_die(%rip), %rdx
	movq	optarg(%rip), %rax
	movq	%rdx, %r9
	movl	$4, %r8d
	leaq	when_types(%rip), %rcx
	leaq	when_args(%rip), %rdx
	movq	%rax, %rsi
	leaq	.LC156(%rip), %rdi
	call	__xargmatch_internal@PLT
	leaq	0(,%rax,4), %rdx
	leaq	when_types(%rip), %rax
	movl	(%rdx,%rax), %eax
	.loc 4 2099 17
	movl	%eax, -148(%rbp)
	jmp	.L311
.L310:
	.loc 4 2103 17
	movl	$1, -148(%rbp)
.L311:
	.loc 4 2105 16
	cmpl	$1, -148(%rbp)
	je	.L312
	.loc 4 2106 17
	cmpl	$2, -148(%rbp)
	jne	.L368
	.loc 4 2106 41 discriminator 1
	movl	$1, %edi
	call	isatty@PLT
	.loc 4 2106 38 discriminator 1
	testl	%eax, %eax
	je	.L368
.L312:
	.loc 4 2107 31
	movl	$3, indicator_style(%rip)
	.loc 4 2108 13
	jmp	.L368
.L296:
.LBE34:
	.loc 4 2112 23
	movb	$0, print_group(%rip)
	.loc 4 2113 11
	jmp	.L305
.L295:
	.loc 4 2116 23
	movl	$3, dereference(%rip)
	.loc 4 2117 11
	jmp	.L305
.L259:
	.loc 4 2120 23
	movl	$4, dereference(%rip)
	.loc 4 2121 11
	jmp	.L305
.L294:
	.loc 4 2124 11
	movq	optarg(%rip), %rax
	movq	%rax, %rdi
	call	add_ignore_pattern
	.loc 4 2125 11
	jmp	.L305
.L293:
	.loc 4 2128 23
	movl	$5, dereference(%rip)
	.loc 4 2129 11
	jmp	.L305
.L292:
	.loc 4 2132 11
	movl	$0, %esi
	movl	$0, %edi
	call	set_quoting_style@PLT
	.loc 4 2133 11
	jmp	.L305
.L291:
	.loc 4 2136 11
	movl	$5, %esi
	movl	$0, %edi
	call	set_quoting_style@PLT
	.loc 4 2137 11
	jmp	.L305
.L290:
	.loc 4 2140 21
	movb	$1, recursive(%rip)
	.loc 4 2141 11
	jmp	.L305
.L289:
	.loc 4 2144 21
	movl	$2, sort_type(%rip)
	.loc 4 2145 31
	movb	$1, -150(%rbp)
	.loc 4 2146 11
	jmp	.L305
.L288:
	.loc 4 2150 33
	leaq	.LC157(%rip), %rdi
	call	gettext@PLT
	movq	%rax, %rdx
	.loc 4 2149 21
	movq	optarg(%rip), %rax
	subq	$8, %rsp
	pushq	$2
	movq	%rdx, %r9
	leaq	.LC18(%rip), %r8
	movq	$-1, %rcx
	movl	$0, %edx
	movl	$0, %esi
	movq	%rax, %rdi
	call	xnumtoumax@PLT
	addq	$16, %rsp
	.loc 4 2149 19
	movq	%rax, tabsize(%rip)
	.loc 4 2151 11
	jmp	.L305
.L287:
	.loc 4 2154 21
	movl	$-1, sort_type(%rip)
	.loc 4 2155 31
	movb	$1, -150(%rbp)
	.loc 4 2156 11
	jmp	.L305
.L286:
	.loc 4 2159 21
	movl	$1, sort_type(%rip)
	.loc 4 2160 31
	movb	$1, -150(%rbp)
	.loc 4 2161 11
	jmp	.L305
.L302:
	.loc 4 2165 22
	movl	format(%rip), %eax
	.loc 4 2165 14
	testl	%eax, %eax
	je	.L369
	.loc 4 2166 20
	movl	$1, format(%rip)
	.loc 4 2167 11
	jmp	.L369
.L262:
	.loc 4 2170 24
	movb	$1, print_author(%rip)
	.loc 4 2171 11
	jmp	.L305
.L254:
.LBB35:
	.loc 4 2175 43
	movl	$16, %edi
	call	xmalloc@PLT
	movq	%rax, -64(%rbp)
	.loc 4 2176 27
	movq	optarg(%rip), %rdx
	movq	-64(%rbp), %rax
	movq	%rdx, (%rax)
	.loc 4 2177 24
	movq	hide_patterns(%rip), %rdx
	movq	-64(%rbp), %rax
	movq	%rdx, 8(%rax)
	.loc 4 2178 27
	movq	-64(%rbp), %rax
	movq	%rax, hide_patterns(%rip)
.LBE35:
	.loc 4 2180 11
	jmp	.L305
.L248:
	.loc 4 2183 23
	movq	argmatch_die(%rip), %rdx
	movq	optarg(%rip), %rax
	movq	%rdx, %r9
	movl	$4, %r8d
	leaq	sort_types(%rip), %rcx
	leaq	sort_args(%rip), %rdx
	movq	%rax, %rsi
	leaq	.LC158(%rip), %rdi
	call	__xargmatch_internal@PLT
	leaq	0(,%rax,4), %rdx
	leaq	sort_types(%rip), %rax
	movl	(%rdx,%rax), %eax
	.loc 4 2183 21
	movl	%eax, sort_type(%rip)
	.loc 4 2184 31
	movb	$1, -150(%rbp)
	.loc 4 2185 11
	jmp	.L305
.L255:
	.loc 4 2188 29
	movb	$1, directories_first(%rip)
	.loc 4 2189 11
	jmp	.L305
.L247:
	.loc 4 2192 23
	movq	argmatch_die(%rip), %rdx
	movq	optarg(%rip), %rax
	movq	%rdx, %r9
	movl	$4, %r8d
	leaq	time_types(%rip), %rcx
	leaq	time_args(%rip), %rdx
	movq	%rax, %rsi
	leaq	.LC159(%rip), %rdi
	call	__xargmatch_internal@PLT
	leaq	0(,%rax,4), %rdx
	leaq	time_types(%rip), %rax
	movl	(%rdx,%rax), %eax
	.loc 4 2192 21
	movl	%eax, time_type(%rip)
	.loc 4 2193 11
	jmp	.L305
.L257:
	.loc 4 2196 20
	movq	argmatch_die(%rip), %rdx
	movq	optarg(%rip), %rax
	movq	%rdx, %r9
	movl	$4, %r8d
	leaq	format_types(%rip), %rcx
	leaq	format_args(%rip), %rdx
	movq	%rax, %rsi
	leaq	.LC160(%rip), %rdi
	call	__xargmatch_internal@PLT
	leaq	0(,%rax,4), %rdx
	leaq	format_types(%rip), %rax
	movl	(%rdx,%rax), %eax
	.loc 4 2196 18
	movl	%eax, format(%rip)
	.loc 4 2197 11
	jmp	.L305
.L256:
	.loc 4 2200 18
	movl	$0, format(%rip)
	.loc 4 2201 31
	leaq	.LC20(%rip), %rdi
	call	bad_cast
	movq	%rax, -120(%rbp)
	.loc 4 2202 11
	jmp	.L305
.L260:
.LBB36:
	.loc 4 2207 17
	movq	optarg(%rip), %rax
	.loc 4 2207 16
	testq	%rax, %rax
	je	.L315
	.loc 4 2208 19
	movq	argmatch_die(%rip), %rdx
	movq	optarg(%rip), %rax
	movq	%rdx, %r9
	movl	$4, %r8d
	leaq	when_types(%rip), %rcx
	leaq	when_args(%rip), %rdx
	movq	%rax, %rsi
	leaq	.LC161(%rip), %rdi
	call	__xargmatch_internal@PLT
	leaq	0(,%rax,4), %rdx
	leaq	when_types(%rip), %rax
	movl	(%rdx,%rax), %eax
	.loc 4 2208 17
	movl	%eax, -144(%rbp)
	jmp	.L316
.L315:
	.loc 4 2212 17
	movl	$1, -144(%rbp)
.L316:
	.loc 4 2215 33
	cmpl	$1, -144(%rbp)
	je	.L317
	.loc 4 2215 33 is_stmt 0 discriminator 2
	cmpl	$2, -144(%rbp)
	jne	.L318
	.loc 4 2216 40 is_stmt 1
	movl	$1, %edi
	call	isatty@PLT
	.loc 4 2216 37
	testl	%eax, %eax
	je	.L318
.L317:
	.loc 4 2215 33 discriminator 1
	movl	$1, %eax
	jmp	.L319
.L318:
	.loc 4 2215 33 is_stmt 0 discriminator 3
	movl	$0, %eax
.L319:
	.loc 4 2215 33 discriminator 5
	andl	$1, %eax
	.loc 4 2214 30 is_stmt 1 discriminator 5
	movb	%al, print_with_color(%rip)
	.loc 4 2218 17 discriminator 5
	movzbl	print_with_color(%rip), %eax
	.loc 4 2218 16 discriminator 5
	testb	%al, %al
	je	.L370
	.loc 4 2223 25
	movq	$0, tabsize(%rip)
	.loc 4 2225 13
	jmp	.L370
.L253:
.LBE36:
.LBB37:
	.loc 4 2231 17
	movq	optarg(%rip), %rax
	.loc 4 2231 16
	testq	%rax, %rax
	je	.L321
	.loc 4 2232 19
	movq	argmatch_die(%rip), %rdx
	movq	optarg(%rip), %rax
	movq	%rdx, %r9
	movl	$4, %r8d
	leaq	when_types(%rip), %rcx
	leaq	when_args(%rip), %rdx
	movq	%rax, %rsi
	leaq	.LC162(%rip), %rdi
	call	__xargmatch_internal@PLT
	leaq	0(,%rax,4), %rdx
	leaq	when_types(%rip), %rax
	movl	(%rdx,%rax), %eax
	.loc 4 2232 17
	movl	%eax, -140(%rbp)
	jmp	.L322
.L321:
	.loc 4 2236 17
	movl	$1, -140(%rbp)
.L322:
	.loc 4 2239 32
	cmpl	$1, -140(%rbp)
	je	.L323
	.loc 4 2239 32 is_stmt 0 discriminator 2
	cmpl	$2, -140(%rbp)
	jne	.L324
	.loc 4 2240 39 is_stmt 1
	movl	$1, %edi
	call	isatty@PLT
	.loc 4 2240 36
	testl	%eax, %eax
	je	.L324
.L323:
	.loc 4 2239 32 discriminator 1
	movl	$1, %eax
	jmp	.L325
.L324:
	.loc 4 2239 32 is_stmt 0 discriminator 3
	movl	$0, %eax
.L325:
	.loc 4 2239 32 discriminator 5
	andl	$1, %eax
	.loc 4 2238 29 is_stmt 1 discriminator 5
	movb	%al, print_hyperlink(%rip)
	.loc 4 2241 13 discriminator 5
	jmp	.L305
.L252:
.LBE37:
	.loc 4 2245 29
	movq	argmatch_die(%rip), %rdx
	movq	optarg(%rip), %rax
	movq	%rdx, %r9
	movl	$4, %r8d
	leaq	indicator_style_types(%rip), %rcx
	leaq	indicator_style_args(%rip), %rdx
	movq	%rax, %rsi
	leaq	.LC163(%rip), %rdi
	call	__xargmatch_internal@PLT
	leaq	0(,%rax,4), %rdx
	leaq	indicator_style_types(%rip), %rax
	movl	(%rdx,%rax), %eax
	.loc 4 2245 27
	movl	%eax, indicator_style(%rip)
	.loc 4 2248 11
	jmp	.L305
.L251:
	.loc 4 2252 30
	movq	argmatch_die(%rip), %rdx
	movq	optarg(%rip), %rax
	movq	%rdx, %r9
	movl	$4, %r8d
	leaq	quoting_style_vals(%rip), %rcx
	leaq	quoting_style_args(%rip), %rdx
	movq	%rax, %rsi
	leaq	.LC164(%rip), %rdi
	call	__xargmatch_internal@PLT
	.loc 4 2251 11
	leaq	0(,%rax,4), %rdx
	leaq	quoting_style_vals(%rip), %rax
	movl	(%rdx,%rax), %eax
	movl	%eax, %esi
	movl	$0, %edi
	call	set_quoting_style@PLT
	.loc 4 2255 11
	jmp	.L305
.L245:
	.loc 4 2258 29
	movq	optarg(%rip), %rax
	movq	%rax, -120(%rbp)
	.loc 4 2259 11
	jmp	.L305
.L250:
	.loc 4 2262 29
	movb	$0, qmark_funny_chars(%rip)
	.loc 4 2263 11
	jmp	.L305
.L261:
.LBB38:
	.loc 4 2267 35
	movq	optarg(%rip), %rax
	leaq	output_block_size(%rip), %rdx
	leaq	human_output_opts(%rip), %rsi
	movq	%rax, %rdi
	call	human_options@PLT
	movl	%eax, -128(%rbp)
	.loc 4 2269 16
	cmpl	$0, -128(%rbp)
	je	.L326
	.loc 4 2270 15
	movq	optarg(%rip), %rdx
	movl	-32(%rbp), %esi
	movl	-128(%rbp), %eax
	movq	%rdx, %r8
	leaq	long_options(%rip), %rcx
	movl	$0, %edx
	movl	%eax, %edi
	call	xstrtol_fatal@PLT
.L326:
	.loc 4 2271 36
	movl	human_output_opts(%rip), %eax
	movl	%eax, file_human_output_opts(%rip)
	.loc 4 2272 36
	movq	output_block_size(%rip), %rax
	movq	%rax, file_output_block_size(%rip)
.LBE38:
	.loc 4 2274 11
	jmp	.L305
.L249:
	.loc 4 2277 54
	movl	$144, human_output_opts(%rip)
	.loc 4 2277 34
	movl	human_output_opts(%rip), %eax
	movl	%eax, file_human_output_opts(%rip)
	.loc 4 2279 54
	movq	$1, output_block_size(%rip)
	.loc 4 2279 34
	movq	output_block_size(%rip), %rax
	movq	%rax, file_output_block_size(%rip)
	.loc 4 2280 11
	jmp	.L305
.L285:
	.loc 4 2283 26
	movb	$1, print_scontext(%rip)
	.loc 4 2284 11
	jmp	.L305
.L303:
	.loc 4 2286 9
	movl	$0, %edi
	call	usage
.L304:
	.loc 4 2288 9
	movq	Version(%rip), %rdx
	movl	ls_mode(%rip), %eax
	cmpl	$1, %eax
	je	.L327
	.loc 4 2288 9 is_stmt 0 discriminator 1
	movl	ls_mode(%rip), %eax
	cmpl	$2, %eax
	jne	.L328
	.loc 4 2288 9 discriminator 3
	leaq	.LC165(%rip), %rax
	jmp	.L330
.L328:
	.loc 4 2288 9 discriminator 4
	leaq	.LC166(%rip), %rax
	jmp	.L330
.L327:
	.loc 4 2288 9 discriminator 2
	leaq	.LC167(%rip), %rax
.L330:
	.loc 4 2288 9 discriminator 8
	movq	stdout(%rip), %rdi
	subq	$8, %rsp
	pushq	$0
	leaq	.LC168(%rip), %r9
	leaq	.LC169(%rip), %r8
	movq	%rdx, %rcx
	leaq	.LC13(%rip), %rdx
	movq	%rax, %rsi
	movl	$0, %eax
	call	version_etc@PLT
	addq	$16, %rsp
	movl	$0, %edi
	call	exit@PLT
.L244:
	.loc 4 2291 11 is_stmt 1
	movl	$2, %edi
	call	usage
.L367:
	.loc 4 2072 11
	nop
	jmp	.L331
.L368:
.LBB39:
	.loc 4 2108 13
	nop
	jmp	.L331
.L369:
.LBE39:
	.loc 4 2167 11
	nop
	jmp	.L331
.L370:
.LBB40:
	.loc 4 2225 13
	nop
.L305:
.LBE40:
.LBE42:
	.loc 4 1958 5 discriminator 1
	jmp	.L331
.L242:
.LBB43:
	.loc 4 2297 35
	leaq	.LC170(%rip), %rdi
	call	getenv@PLT
	movq	%rax, -56(%rbp)
	.loc 4 2298 7
	movq	-56(%rbp), %rax
	leaq	output_block_size(%rip), %rdx
	leaq	human_output_opts(%rip), %rsi
	movq	%rax, %rdi
	call	human_options@PLT
	.loc 4 2300 10
	cmpq	$0, -56(%rbp)
	jne	.L332
	.loc 4 2300 28 discriminator 1
	leaq	.LC171(%rip), %rdi
	call	getenv@PLT
	.loc 4 2300 25 discriminator 1
	testq	%rax, %rax
	je	.L333
.L332:
	.loc 4 2302 34
	movl	human_output_opts(%rip), %eax
	movl	%eax, file_human_output_opts(%rip)
	.loc 4 2303 34
	movq	output_block_size(%rip), %rax
	movq	%rax, file_output_block_size(%rip)
.L333:
	.loc 4 2305 10
	cmpb	$0, -149(%rbp)
	je	.L243
	.loc 4 2307 29
	movl	$0, human_output_opts(%rip)
	.loc 4 2308 29
	movq	$1024, output_block_size(%rip)
.L243:
.LBE43:
	.loc 4 2313 25
	movq	line_length(%rip), %rax
	movabsq	$-6148914691236517205, %rdx
	mulq	%rdx
	movq	%rdx, %rax
	shrq	%rax
	.loc 4 2313 11
	movq	%rax, max_idx(%rip)
	.loc 4 2316 26
	movq	line_length(%rip), %rcx
	movabsq	$-6148914691236517205, %rdx
	movq	%rcx, %rax
	mulq	%rdx
	movq	%rdx, %rax
	shrq	%rax
	movq	%rax, %rdx
	addq	%rdx, %rdx
	addq	%rax, %rdx
	movq	%rcx, %rax
	subq	%rdx, %rax
	.loc 4 2316 45
	testq	%rax, %rax
	setne	%al
	movzbl	%al, %edx
	.loc 4 2316 11
	movq	max_idx(%rip), %rax
	addq	%rdx, %rax
	movq	%rax, max_idx(%rip)
	.loc 4 2318 27
	movl	$0, %edi
	call	get_quoting_style@PLT
	movl	%eax, -124(%rbp)
	.loc 4 2319 40
	movl	format(%rip), %eax
	.loc 4 2322 33
	cmpl	$4, %eax
	je	.L334
	.loc 4 2320 43
	movl	format(%rip), %eax
	.loc 4 2320 33
	cmpl	$1, %eax
	je	.L334
	.loc 4 2321 37
	movq	line_length(%rip), %rax
	.loc 4 2321 33
	testq	%rax, %rax
	jne	.L335
	.loc 4 2321 59 discriminator 1
	movl	format(%rip), %eax
	.loc 4 2321 49 discriminator 1
	testl	%eax, %eax
	jne	.L334
.L335:
	.loc 4 2322 33
	cmpl	$1, -124(%rbp)
	je	.L336
	.loc 4 2323 37
	cmpl	$3, -124(%rbp)
	je	.L336
	.loc 4 2324 37
	cmpl	$6, -124(%rbp)
	jne	.L334
.L336:
	.loc 4 2322 33 discriminator 2
	movl	$1, %eax
	jmp	.L337
.L334:
	.loc 4 2322 33 is_stmt 0 discriminator 1
	movl	$0, %eax
.L337:
	.loc 4 2322 33 discriminator 4
	andl	$1, %eax
	.loc 4 2319 31 is_stmt 1 discriminator 4
	movb	%al, align_variable_outer_quotes(%rip)
	.loc 4 2325 30 discriminator 4
	movl	$0, %edi
	call	clone_quoting_options@PLT
	.loc 4 2325 28 discriminator 4
	movq	%rax, filename_quoting_options(%rip)
	.loc 4 2326 6 discriminator 4
	cmpl	$7, -124(%rbp)
	jne	.L338
	.loc 4 2327 5
	movq	filename_quoting_options(%rip), %rax
	movl	$1, %edx
	movl	$32, %esi
	movq	%rax, %rdi
	call	set_char_quoting@PLT
.L338:
	.loc 4 2328 17
	movl	indicator_style(%rip), %eax
	.loc 4 2328 6
	cmpl	$1, %eax
	jbe	.L339
.LBB44:
	.loc 4 2331 41
	movl	indicator_style(%rip), %eax
	subl	$2, %eax
	.loc 4 2331 14
	movl	%eax, %edx
	leaq	.LC172(%rip), %rax
	addq	%rdx, %rax
	movq	%rax, -112(%rbp)
	.loc 4 2331 7
	jmp	.L340
.L341:
	.loc 4 2332 53 discriminator 3
	movq	-112(%rbp), %rax
	movzbl	(%rax), %eax
	.loc 4 2332 9 discriminator 3
	movsbl	%al, %ecx
	movq	filename_quoting_options(%rip), %rax
	movl	$1, %edx
	movl	%ecx, %esi
	movq	%rax, %rdi
	call	set_char_quoting@PLT
	.loc 4 2331 60 discriminator 3
	addq	$1, -112(%rbp)
.L340:
	.loc 4 2331 55 discriminator 1
	movq	-112(%rbp), %rax
	movzbl	(%rax), %eax
	.loc 4 2331 7 discriminator 1
	testb	%al, %al
	jne	.L341
.L339:
.LBE44:
	.loc 4 2335 29
	movl	$0, %edi
	call	clone_quoting_options@PLT
	.loc 4 2335 27
	movq	%rax, dirname_quoting_options(%rip)
	.loc 4 2336 3
	movq	dirname_quoting_options(%rip), %rax
	movl	$1, %edx
	movl	$58, %esi
	movq	%rax, %rdi
	call	set_char_quoting@PLT
	.loc 4 2341 7
	movzbl	dired(%rip), %eax
	.loc 4 2341 6
	testb	%al, %al
	je	.L342
	.loc 4 2341 24 discriminator 1
	movl	format(%rip), %eax
	.loc 4 2341 13 discriminator 1
	testl	%eax, %eax
	jne	.L343
	.loc 4 2341 39 discriminator 2
	movzbl	print_hyperlink(%rip), %eax
	testb	%al, %al
	je	.L342
.L343:
	.loc 4 2342 11
	movb	$0, dired(%rip)
.L342:
	.loc 4 2352 18
	movl	time_type(%rip), %eax
	.loc 4 2352 6
	cmpl	$1, %eax
	je	.L344
	.loc 4 2352 45 discriminator 1
	movl	time_type(%rip), %eax
	.loc 4 2352 32 discriminator 1
	cmpl	$2, %eax
	je	.L344
	.loc 4 2353 21
	movl	time_type(%rip), %eax
	.loc 4 2353 8
	cmpl	$3, %eax
	jne	.L345
.L344:
	.loc 4 2354 10
	movzbl	-150(%rbp), %eax
	xorl	$1, %eax
	.loc 4 2354 7
	testb	%al, %al
	je	.L345
	.loc 4 2354 41 discriminator 1
	movl	format(%rip), %eax
	.loc 4 2354 31 discriminator 1
	testl	%eax, %eax
	je	.L345
	.loc 4 2356 17
	movl	$4, sort_type(%rip)
.L345:
	.loc 4 2359 14
	movl	format(%rip), %eax
	.loc 4 2359 6
	testl	%eax, %eax
	jne	.L346
.LBB45:
	.loc 4 2361 13
	movq	-120(%rbp), %rax
	movq	%rax, -104(%rbp)
	.loc 4 2364 10
	cmpq	$0, -104(%rbp)
	jne	.L348
	.loc 4 2365 24
	leaq	.LC173(%rip), %rdi
	call	getenv@PLT
	movq	%rax, -104(%rbp)
	.loc 4 2365 12
	cmpq	$0, -104(%rbp)
	jne	.L348
	.loc 4 2366 19
	leaq	.LC23(%rip), %rdi
	call	bad_cast
	movq	%rax, -104(%rbp)
	.loc 4 2368 13
	jmp	.L348
.L351:
	.loc 4 2370 17
	movl	$2, %edi
	call	hard_locale@PLT
	.loc 4 2370 15
	xorl	$1, %eax
	.loc 4 2370 14
	testb	%al, %al
	je	.L349
	.loc 4 2371 20
	movl	optind(%rip), %eax
	jmp	.L350
.L349:
	.loc 4 2372 17
	addq	$6, -104(%rbp)
.L348:
	.loc 4 2368 14
	movq	-104(%rbp), %rax
	movl	$6, %edx
	leaq	posix_prefix.9513(%rip), %rsi
	movq	%rax, %rdi
	call	strncmp@PLT
	.loc 4 2368 13
	testl	%eax, %eax
	je	.L351
	.loc 4 2375 11
	movq	-104(%rbp), %rax
	movzbl	(%rax), %eax
	.loc 4 2375 10
	cmpb	$43, %al
	jne	.L352
.LBB46:
	.loc 4 2377 17
	movq	-104(%rbp), %rax
	addq	$1, %rax
	movq	%rax, -40(%rbp)
	.loc 4 2378 22
	movq	-40(%rbp), %rax
	movl	$10, %esi
	movq	%rax, %rdi
	call	strchr@PLT
	movq	%rax, -96(%rbp)
	.loc 4 2379 14
	cmpq	$0, -96(%rbp)
	jne	.L353
	.loc 4 2380 16
	movq	-40(%rbp), %rax
	movq	%rax, -96(%rbp)
	jmp	.L354
.L353:
	.loc 4 2383 30
	movq	-96(%rbp), %rax
	addq	$1, %rax
	.loc 4 2383 19
	movl	$10, %esi
	movq	%rax, %rdi
	call	strchr@PLT
	.loc 4 2383 18
	testq	%rax, %rax
	je	.L355
.LBB47:
	.loc 4 2384 17
	movq	-40(%rbp), %rax
	movq	%rax, %rdi
	call	quote@PLT
	movq	%rax, %rbx
	leaq	.LC174(%rip), %rdi
	call	gettext@PLT
	movq	%rbx, %rcx
	movq	%rax, %rdx
	movl	$0, %esi
	movl	$2, %edi
	movl	$0, %eax
	call	error@PLT
.L355:
.LBE47:
	.loc 4 2386 18
	movq	-96(%rbp), %rax
	leaq	1(%rax), %rdx
	movq	%rdx, -96(%rbp)
	.loc 4 2386 21
	movb	$0, (%rax)
.L354:
	.loc 4 2388 31
	movq	-40(%rbp), %rax
	movq	%rax, long_time_format(%rip)
	.loc 4 2389 31
	movq	-96(%rbp), %rax
	movq	%rax, 8+long_time_format(%rip)
.LBE46:
	jmp	.L356
.L352:
.LBB48:
	.loc 4 2393 27
	movq	-104(%rbp), %rax
	movl	$4, %ecx
	leaq	time_style_types(%rip), %rdx
	leaq	time_style_args(%rip), %rsi
	movq	%rax, %rdi
	call	argmatch@PLT
	movq	%rax, -48(%rbp)
	.loc 4 2396 14
	cmpq	$0, -48(%rbp)
	jns	.L357
.LBB49:
	.loc 4 2401 15
	movq	-48(%rbp), %rdx
	movq	-104(%rbp), %rax
	movq	%rax, %rsi
	leaq	.LC175(%rip), %rdi
	call	argmatch_invalid@PLT
	.loc 4 2408 15
	movq	stderr(%rip), %rbx
	leaq	.LC176(%rip), %rdi
	call	gettext@PLT
	movq	%rbx, %rsi
	movq	%rax, %rdi
	call	fputs_unlocked@PLT
	.loc 4 2409 34
	leaq	time_style_args(%rip), %rax
	movq	%rax, -88(%rbp)
	.loc 4 2410 21
	jmp	.L358
.L359:
	.loc 4 2411 56
	movq	-88(%rbp), %rax
	leaq	8(%rax), %rdx
	movq	%rdx, -88(%rbp)
	.loc 4 2411 17
	movq	(%rax), %rdx
	movq	stderr(%rip), %rax
	leaq	.LC177(%rip), %rsi
	movq	%rax, %rdi
	movl	$0, %eax
	call	fprintf@PLT
.L358:
	.loc 4 2410 22
	movq	-88(%rbp), %rax
	movq	(%rax), %rax
	.loc 4 2410 21
	testq	%rax, %rax
	jne	.L359
	.loc 4 2412 15
	movq	stderr(%rip), %rbx
	leaq	.LC178(%rip), %rdi
	call	gettext@PLT
	movq	%rbx, %rsi
	movq	%rax, %rdi
	call	fputs_unlocked@PLT
	.loc 4 2414 15
	movl	$2, %edi
	call	usage
.L357:
.LBE49:
	.loc 4 2416 11
	cmpq	$3, -48(%rbp)
	je	.L360
	cmpq	$3, -48(%rbp)
	jg	.L356
	cmpq	$2, -48(%rbp)
	je	.L361
	cmpq	$2, -48(%rbp)
	jg	.L356
	cmpq	$0, -48(%rbp)
	je	.L362
	cmpq	$1, -48(%rbp)
	je	.L363
	jmp	.L356
.L362:
	.loc 4 2419 57
	leaq	.LC179(%rip), %rax
	movq	%rax, 8+long_time_format(%rip)
	.loc 4 2419 53
	movq	8+long_time_format(%rip), %rax
	.loc 4 2419 35
	movq	%rax, long_time_format(%rip)
	.loc 4 2421 15
	jmp	.L356
.L363:
	.loc 4 2424 57
	leaq	.LC180(%rip), %rax
	movq	%rax, 8+long_time_format(%rip)
	.loc 4 2424 53
	movq	8+long_time_format(%rip), %rax
	.loc 4 2424 35
	movq	%rax, long_time_format(%rip)
	.loc 4 2425 15
	jmp	.L356
.L361:
	.loc 4 2428 35
	leaq	.LC181(%rip), %rax
	movq	%rax, long_time_format(%rip)
	.loc 4 2429 35
	leaq	.LC182(%rip), %rax
	movq	%rax, 8+long_time_format(%rip)
	.loc 4 2430 15
	jmp	.L356
.L360:
	.loc 4 2433 19
	movl	$2, %edi
	call	hard_locale@PLT
	.loc 4 2433 18
	testb	%al, %al
	je	.L356
.LBB50:
	.loc 4 2435 28
	movl	$0, -136(%rbp)
	.loc 4 2435 19
	jmp	.L364
.L365:
	.loc 4 2437 23 discriminator 3
	movl	-136(%rbp), %eax
	cltq
	leaq	0(,%rax,8), %rdx
	leaq	long_time_format(%rip), %rax
	movq	(%rdx,%rax), %rax
	movl	$2, %edx
	movq	%rax, %rsi
	movl	$0, %edi
	call	dcgettext@PLT
	.loc 4 2436 41 discriminator 3
	movl	-136(%rbp), %edx
	movslq	%edx, %rdx
	leaq	0(,%rdx,8), %rcx
	leaq	long_time_format(%rip), %rdx
	movq	%rax, (%rcx,%rdx)
	.loc 4 2435 43 discriminator 3
	addl	$1, -136(%rbp)
.L364:
	.loc 4 2435 19 discriminator 1
	cmpl	$1, -136(%rbp)
	jle	.L365
.L356:
.LBE50:
.LBE48:
	.loc 4 2442 7
	call	abformat_init
.L346:
.LBE45:
	.loc 4 2445 10
	movl	optind(%rip), %eax
.L350:
	.loc 4 2446 1
	movq	-24(%rbp), %rbx
	xorq	%fs:40, %rbx
	je	.L366
	call	__stack_chk_fail@PLT
.L366:
	movq	-8(%rbp), %rbx
	leave
	.cfi_def_cfa 7, 8
	ret
	.cfi_endproc
.LFE107:
	.size	decode_switches, .-decode_switches
	.type	get_funky_string, @function
get_funky_string:
.LFB108:
	.loc 4 2464 1
	.cfi_startproc
	endbr64
	pushq	%rbp
	.cfi_def_cfa_offset 16
	.cfi_offset 6, -16
	movq	%rsp, %rbp
	.cfi_def_cfa_register 6
	subq	$64, %rsp
	movq	%rdi, -40(%rbp)
	movq	%rsi, -48(%rbp)
	movl	%edx, %eax
	movq	%rcx, -64(%rbp)
	movb	%al, -52(%rbp)
	.loc 4 2473 5
	movq	-48(%rbp), %rax
	movq	(%rax), %rax
	movq	%rax, -16(%rbp)
	.loc 4 2474 5
	movq	-40(%rbp), %rax
	movq	(%rax), %rax
	movq	%rax, -8(%rbp)
	.loc 4 2476 9
	movq	$0, -24(%rbp)
	.loc 4 2477 7
	movb	$0, -29(%rbp)
	.loc 4 2479 9
	movl	$0, -28(%rbp)
	.loc 4 2480 9
	jmp	.L372
.L415:
	cmpl	$4, -28(%rbp)
	ja	.L373
	movl	-28(%rbp), %eax
	leaq	0(,%rax,4), %rdx
	leaq	.L375(%rip), %rax
	movl	(%rdx,%rax), %eax
	cltq
	leaq	.L375(%rip), %rdx
	addq	%rdx, %rax
	notrack jmp	*%rax
	.section	.rodata
	.align 4
	.align 4
.L375:
	.long	.L379-.L375
	.long	.L378-.L375
	.long	.L377-.L375
	.long	.L376-.L375
	.long	.L374-.L375
	.text
.L379:
	.loc 4 2485 19
	movq	-16(%rbp), %rax
	movzbl	(%rax), %eax
	movsbl	%al, %eax
	cmpl	$94, %eax
	je	.L380
	cmpl	$94, %eax
	jg	.L381
	cmpl	$92, %eax
	je	.L382
	cmpl	$92, %eax
	jg	.L381
	cmpl	$61, %eax
	je	.L383
	cmpl	$61, %eax
	jg	.L381
	testl	%eax, %eax
	je	.L384
	cmpl	$58, %eax
	jne	.L381
.L384:
	.loc 4 2489 21
	movl	$5, -28(%rbp)
	.loc 4 2490 15
	jmp	.L385
.L382:
	.loc 4 2492 21
	movl	$1, -28(%rbp)
	.loc 4 2493 15
	addq	$1, -16(%rbp)
	.loc 4 2494 15
	jmp	.L385
.L380:
	.loc 4 2496 21
	movl	$4, -28(%rbp)
	.loc 4 2497 15
	addq	$1, -16(%rbp)
	.loc 4 2498 15
	jmp	.L385
.L383:
	.loc 4 2500 18
	cmpb	$0, -52(%rbp)
	je	.L381
	.loc 4 2502 25
	movl	$5, -28(%rbp)
	.loc 4 2503 19
	jmp	.L385
.L381:
	.loc 4 2507 27
	movq	-16(%rbp), %rdx
	leaq	1(%rdx), %rax
	movq	%rax, -16(%rbp)
	.loc 4 2507 18
	movq	-8(%rbp), %rax
	leaq	1(%rax), %rcx
	movq	%rcx, -8(%rbp)
	.loc 4 2507 24
	movzbl	(%rdx), %edx
	.loc 4 2507 22
	movb	%dl, (%rax)
	.loc 4 2508 15
	addq	$1, -24(%rbp)
	.loc 4 2509 15
	nop
.L385:
	.loc 4 2511 11
	jmp	.L372
.L378:
	.loc 4 2514 19
	movq	-16(%rbp), %rax
	movzbl	(%rax), %eax
	movsbl	%al, %eax
	testl	%eax, %eax
	je	.L386
	testl	%eax, %eax
	js	.L387
	cmpl	$120, %eax
	jg	.L387
	cmpl	$48, %eax
	jl	.L387
	subl	$48, %eax
	cmpl	$72, %eax
	ja	.L387
	movl	%eax, %eax
	leaq	0(,%rax,4), %rdx
	leaq	.L389(%rip), %rax
	movl	(%rdx,%rax), %eax
	cltq
	leaq	.L389(%rip), %rdx
	addq	%rdx, %rax
	notrack jmp	*%rax
	.section	.rodata
	.align 4
	.align 4
.L389:
	.long	.L400-.L389
	.long	.L400-.L389
	.long	.L400-.L389
	.long	.L400-.L389
	.long	.L400-.L389
	.long	.L400-.L389
	.long	.L400-.L389
	.long	.L400-.L389
	.long	.L387-.L389
	.long	.L387-.L389
	.long	.L387-.L389
	.long	.L387-.L389
	.long	.L387-.L389
	.long	.L387-.L389
	.long	.L387-.L389
	.long	.L399-.L389
	.long	.L387-.L389
	.long	.L387-.L389
	.long	.L387-.L389
	.long	.L387-.L389
	.long	.L387-.L389
	.long	.L387-.L389
	.long	.L387-.L389
	.long	.L387-.L389
	.long	.L387-.L389
	.long	.L387-.L389
	.long	.L387-.L389
	.long	.L387-.L389
	.long	.L387-.L389
	.long	.L387-.L389
	.long	.L387-.L389
	.long	.L387-.L389
	.long	.L387-.L389
	.long	.L387-.L389
	.long	.L387-.L389
	.long	.L387-.L389
	.long	.L387-.L389
	.long	.L387-.L389
	.long	.L387-.L389
	.long	.L387-.L389
	.long	.L388-.L389
	.long	.L387-.L389
	.long	.L387-.L389
	.long	.L387-.L389
	.long	.L387-.L389
	.long	.L387-.L389
	.long	.L387-.L389
	.long	.L398-.L389
	.long	.L387-.L389
	.long	.L397-.L389
	.long	.L396-.L389
	.long	.L387-.L389
	.long	.L387-.L389
	.long	.L395-.L389
	.long	.L394-.L389
	.long	.L387-.L389
	.long	.L387-.L389
	.long	.L387-.L389
	.long	.L387-.L389
	.long	.L387-.L389
	.long	.L387-.L389
	.long	.L387-.L389
	.long	.L393-.L389
	.long	.L387-.L389
	.long	.L387-.L389
	.long	.L387-.L389
	.long	.L392-.L389
	.long	.L387-.L389
	.long	.L391-.L389
	.long	.L387-.L389
	.long	.L390-.L389
	.long	.L387-.L389
	.long	.L388-.L389
	.text
.L400:
	.loc 4 2524 21
	movl	$2, -28(%rbp)
	.loc 4 2525 21
	movq	-16(%rbp), %rax
	movzbl	(%rax), %eax
	.loc 4 2525 24
	subl	$48, %eax
	.loc 4 2525 19
	movb	%al, -29(%rbp)
	.loc 4 2526 15
	jmp	.L401
.L388:
	.loc 4 2529 21
	movl	$3, -28(%rbp)
	.loc 4 2530 19
	movb	$0, -29(%rbp)
	.loc 4 2531 15
	jmp	.L401
.L397:
	.loc 4 2533 19
	movb	$7, -29(%rbp)
	.loc 4 2534 15
	jmp	.L401
.L396:
	.loc 4 2536 19
	movb	$8, -29(%rbp)
	.loc 4 2537 15
	jmp	.L401
.L395:
	.loc 4 2539 19
	movb	$27, -29(%rbp)
	.loc 4 2540 15
	jmp	.L401
.L394:
	.loc 4 2542 19
	movb	$12, -29(%rbp)
	.loc 4 2543 15
	jmp	.L401
.L393:
	.loc 4 2545 19
	movb	$10, -29(%rbp)
	.loc 4 2546 15
	jmp	.L401
.L392:
	.loc 4 2548 19
	movb	$13, -29(%rbp)
	.loc 4 2549 15
	jmp	.L401
.L391:
	.loc 4 2551 19
	movb	$9, -29(%rbp)
	.loc 4 2552 15
	jmp	.L401
.L390:
	.loc 4 2554 19
	movb	$11, -29(%rbp)
	.loc 4 2555 15
	jmp	.L401
.L399:
	.loc 4 2557 19
	movb	$127, -29(%rbp)
	.loc 4 2558 15
	jmp	.L401
.L398:
	.loc 4 2560 19
	movb	$32, -29(%rbp)
	.loc 4 2561 15
	jmp	.L401
.L386:
	.loc 4 2563 21
	movl	$6, -28(%rbp)
	.loc 4 2564 15
	jmp	.L401
.L387:
	.loc 4 2566 19
	movq	-16(%rbp), %rax
	movzbl	(%rax), %eax
	movb	%al, -29(%rbp)
	.loc 4 2567 15
	nop
.L401:
	.loc 4 2569 14
	cmpl	$1, -28(%rbp)
	jne	.L402
	.loc 4 2571 18
	movq	-8(%rbp), %rax
	leaq	1(%rax), %rdx
	movq	%rdx, -8(%rbp)
	.loc 4 2571 22
	movzbl	-29(%rbp), %edx
	movb	%dl, (%rax)
	.loc 4 2572 15
	addq	$1, -24(%rbp)
	.loc 4 2573 21
	movl	$0, -28(%rbp)
.L402:
	.loc 4 2575 11
	addq	$1, -16(%rbp)
	.loc 4 2576 11
	jmp	.L372
.L377:
	.loc 4 2579 15
	movq	-16(%rbp), %rax
	movzbl	(%rax), %eax
	.loc 4 2579 14
	cmpb	$47, %al
	jle	.L403
	.loc 4 2579 27 discriminator 1
	movq	-16(%rbp), %rax
	movzbl	(%rax), %eax
	.loc 4 2579 24 discriminator 1
	cmpb	$55, %al
	jle	.L404
.L403:
	.loc 4 2581 18
	movq	-8(%rbp), %rax
	leaq	1(%rax), %rdx
	movq	%rdx, -8(%rbp)
	.loc 4 2581 22
	movzbl	-29(%rbp), %edx
	movb	%dl, (%rax)
	.loc 4 2582 15
	addq	$1, -24(%rbp)
	.loc 4 2583 21
	movl	$0, -28(%rbp)
	jmp	.L405
.L404:
	.loc 4 2586 24
	movzbl	-29(%rbp), %eax
	leal	0(,%rax,8), %ecx
	.loc 4 2586 36
	movq	-16(%rbp), %rax
	leaq	1(%rax), %rdx
	movq	%rdx, -16(%rbp)
	.loc 4 2586 33
	movzbl	(%rax), %eax
	.loc 4 2586 30
	addl	%ecx, %eax
	subl	$48, %eax
	.loc 4 2586 17
	movb	%al, -29(%rbp)
.L405:
	.loc 4 2587 11
	jmp	.L372
.L376:
	.loc 4 2590 19
	movq	-16(%rbp), %rax
	movzbl	(%rax), %eax
	movsbl	%al, %eax
	cmpl	$102, %eax
	jg	.L406
	cmpl	$97, %eax
	jge	.L407
	cmpl	$57, %eax
	jg	.L408
	cmpl	$48, %eax
	jge	.L409
	jmp	.L406
.L408:
	subl	$65, %eax
	cmpl	$5, %eax
	ja	.L406
	jmp	.L417
.L409:
	.loc 4 2602 26
	movzbl	-29(%rbp), %eax
	sall	$4, %eax
	movl	%eax, %ecx
	.loc 4 2602 38
	movq	-16(%rbp), %rax
	leaq	1(%rax), %rdx
	movq	%rdx, -16(%rbp)
	.loc 4 2602 35
	movzbl	(%rax), %eax
	.loc 4 2602 32
	addl	%ecx, %eax
	subl	$48, %eax
	.loc 4 2602 19
	movb	%al, -29(%rbp)
	.loc 4 2603 15
	jmp	.L411
.L407:
	.loc 4 2610 26
	movzbl	-29(%rbp), %eax
	sall	$4, %eax
	movl	%eax, %ecx
	.loc 4 2610 38
	movq	-16(%rbp), %rax
	leaq	1(%rax), %rdx
	movq	%rdx, -16(%rbp)
	.loc 4 2610 35
	movzbl	(%rax), %eax
	.loc 4 2610 32
	addl	%ecx, %eax
	.loc 4 2610 49
	subl	$87, %eax
	.loc 4 2610 19
	movb	%al, -29(%rbp)
	.loc 4 2611 15
	jmp	.L411
.L417:
	.loc 4 2618 26
	movzbl	-29(%rbp), %eax
	sall	$4, %eax
	movl	%eax, %ecx
	.loc 4 2618 38
	movq	-16(%rbp), %rax
	leaq	1(%rax), %rdx
	movq	%rdx, -16(%rbp)
	.loc 4 2618 35
	movzbl	(%rax), %eax
	.loc 4 2618 32
	addl	%ecx, %eax
	.loc 4 2618 49
	subl	$55, %eax
	.loc 4 2618 19
	movb	%al, -29(%rbp)
	.loc 4 2619 15
	jmp	.L411
.L406:
	.loc 4 2621 18
	movq	-8(%rbp), %rax
	leaq	1(%rax), %rdx
	movq	%rdx, -8(%rbp)
	.loc 4 2621 22
	movzbl	-29(%rbp), %edx
	movb	%dl, (%rax)
	.loc 4 2622 15
	addq	$1, -24(%rbp)
	.loc 4 2623 21
	movl	$0, -28(%rbp)
	.loc 4 2624 15
	nop
.L411:
	.loc 4 2626 11
	jmp	.L372
.L374:
	.loc 4 2629 17
	movl	$0, -28(%rbp)
	.loc 4 2630 15
	movq	-16(%rbp), %rax
	movzbl	(%rax), %eax
	.loc 4 2630 14
	cmpb	$63, %al
	jle	.L412
	.loc 4 2630 28 discriminator 1
	movq	-16(%rbp), %rax
	movzbl	(%rax), %eax
	.loc 4 2630 25 discriminator 1
	cmpb	$127, %al
	je	.L412
	.loc 4 2632 27
	movq	-16(%rbp), %rax
	leaq	1(%rax), %rdx
	movq	%rdx, -16(%rbp)
	.loc 4 2632 24
	movzbl	(%rax), %ecx
	.loc 4 2632 18
	movq	-8(%rbp), %rax
	leaq	1(%rax), %rdx
	movq	%rdx, -8(%rbp)
	.loc 4 2632 31
	andl	$31, %ecx
	movl	%ecx, %edx
	.loc 4 2632 22
	movb	%dl, (%rax)
	.loc 4 2633 15
	addq	$1, -24(%rbp)
	jmp	.L413
.L412:
	.loc 4 2635 20
	movq	-16(%rbp), %rax
	movzbl	(%rax), %eax
	.loc 4 2635 19
	cmpb	$63, %al
	jne	.L414
	.loc 4 2637 18
	movq	-8(%rbp), %rax
	leaq	1(%rax), %rdx
	movq	%rdx, -8(%rbp)
	.loc 4 2637 22
	movb	$127, (%rax)
	.loc 4 2638 15
	addq	$1, -24(%rbp)
	jmp	.L372
.L414:
	.loc 4 2641 19
	movl	$6, -28(%rbp)
.L413:
	.loc 4 2642 11
	jmp	.L372
.L373:
	.loc 4 2645 11
	call	abort@PLT
.L372:
	.loc 4 2480 9
	cmpl	$4, -28(%rbp)
	jbe	.L415
	.loc 4 2649 9
	movq	-40(%rbp), %rax
	movq	-8(%rbp), %rdx
	movq	%rdx, (%rax)
	.loc 4 2650 8
	movq	-48(%rbp), %rax
	movq	-16(%rbp), %rdx
	movq	%rdx, (%rax)
	.loc 4 2651 17
	movq	-64(%rbp), %rax
	movq	-24(%rbp), %rdx
	movq	%rdx, (%rax)
	.loc 4 2653 16
	cmpl	$6, -28(%rbp)
	setne	%al
	.loc 4 2654 1
	leave
	.cfi_def_cfa 7, 8
	ret
	.cfi_endproc
.LFE108:
	.size	get_funky_string, .-get_funky_string
	.section	.rodata
.LC183:
	.string	"TERM"
.LC184:
	.string	"TERM "
	.text
	.type	known_term_type, @function
known_term_type:
.LFB109:
	.loc 4 2671 1
	.cfi_startproc
	endbr64
	pushq	%rbp
	.cfi_def_cfa_offset 16
	.cfi_offset 6, -16
	movq	%rsp, %rbp
	.cfi_def_cfa_register 6
	subq	$16, %rsp
	.loc 4 2672 22
	leaq	.LC183(%rip), %rdi
	call	getenv@PLT
	movq	%rax, -8(%rbp)
	.loc 4 2673 6
	cmpq	$0, -8(%rbp)
	je	.L419
	.loc 4 2673 19 discriminator 1
	movq	-8(%rbp), %rax
	movzbl	(%rax), %eax
	.loc 4 2673 14 discriminator 1
	testb	%al, %al
	jne	.L420
.L419:
	.loc 4 2674 12
	movl	$0, %eax
	jmp	.L421
.L420:
	.loc 4 2676 15
	leaq	G_line(%rip), %rax
	movq	%rax, -16(%rbp)
	.loc 4 2677 9
	jmp	.L422
.L424:
	.loc 4 2679 11
	movq	-16(%rbp), %rax
	movl	$5, %edx
	leaq	.LC184(%rip), %rsi
	movq	%rax, %rdi
	call	strncmp@PLT
	.loc 4 2679 10
	testl	%eax, %eax
	jne	.L423
	.loc 4 2681 15
	movq	-16(%rbp), %rax
	leaq	5(%rax), %rcx
	movq	-8(%rbp), %rax
	movl	$0, %edx
	movq	%rax, %rsi
	movq	%rcx, %rdi
	call	fnmatch@PLT
	.loc 4 2681 14
	testl	%eax, %eax
	jne	.L423
	.loc 4 2682 20
	movl	$1, %eax
	jmp	.L421
.L423:
	.loc 4 2684 15
	movq	-16(%rbp), %rax
	movq	%rax, %rdi
	call	strlen@PLT
	.loc 4 2684 12
	addq	$1, %rax
	addq	%rax, -16(%rbp)
.L422:
	.loc 4 2677 15
	leaq	G_line(%rip), %rdx
	movq	-16(%rbp), %rax
	subq	%rdx, %rax
	.loc 4 2677 9
	cmpq	$4303, %rax
	jbe	.L424
	.loc 4 2687 10
	movl	$0, %eax
.L421:
	.loc 4 2688 1
	leave
	.cfi_def_cfa 7, 8
	ret
	.cfi_endproc
.LFE109:
	.size	known_term_type, .-known_term_type
	.section	.rodata
.LC185:
	.string	"LS_COLORS"
.LC186:
	.string	"COLORTERM"
.LC187:
	.string	"unrecognized prefix: %s"
	.align 8
.LC188:
	.string	"unparsable value for LS_COLORS environment variable"
.LC189:
	.string	"target"
	.text
	.type	parse_ls_color, @function
parse_ls_color:
.LFB110:
	.loc 4 2692 1
	.cfi_startproc
	endbr64
	pushq	%rbp
	.cfi_def_cfa_offset 16
	.cfi_offset 6, -16
	movq	%rsp, %rbp
	.cfi_def_cfa_register 6
	pushq	%rbx
	subq	$88, %rsp
	.cfi_offset 3, -24
	.loc 4 2692 1
	movq	%fs:40, %rax
	movq	%rax, -24(%rbp)
	xorl	%eax, %eax
	.loc 4 2699 12
	leaq	.LC185(%rip), %rdi
	call	getenv@PLT
	.loc 4 2699 10
	movq	%rax, -80(%rbp)
	movq	-80(%rbp), %rax
	.loc 4 2699 6
	testq	%rax, %rax
	je	.L426
	.loc 4 2699 45 discriminator 1
	movq	-80(%rbp), %rax
	movzbl	(%rax), %eax
	.loc 4 2699 42 discriminator 1
	testb	%al, %al
	jne	.L427
.L426:
.LBB51:
	.loc 4 2705 31
	leaq	.LC186(%rip), %rdi
	call	getenv@PLT
	movq	%rax, -40(%rbp)
	.loc 4 2706 10
	cmpq	$0, -40(%rbp)
	je	.L428
	.loc 4 2706 27 discriminator 2
	movq	-40(%rbp), %rax
	movzbl	(%rax), %eax
	.loc 4 2706 11 discriminator 2
	testb	%al, %al
	jne	.L466
.L428:
	.loc 4 2706 44 discriminator 3
	call	known_term_type
	.loc 4 2706 42 discriminator 3
	xorl	$1, %eax
	.loc 4 2706 39 discriminator 3
	testb	%al, %al
	je	.L466
	.loc 4 2707 26
	movb	$0, print_with_color(%rip)
	jmp	.L425
.L427:
.LBE51:
	.loc 4 2711 7
	movq	$0, -64(%rbp)
	.loc 4 2712 3
	movw	$16191, -27(%rbp)
	movb	$0, -25(%rbp)
	.loc 4 2718 21
	movq	-80(%rbp), %rax
	movq	%rax, %rdi
	call	xstrdup@PLT
	.loc 4 2718 19
	movq	%rax, color_buf(%rip)
	.loc 4 2718 7
	movq	color_buf(%rip), %rax
	movq	%rax, -72(%rbp)
	.loc 4 2720 20
	movl	$1, -84(%rbp)
.L460:
	cmpl	$6, -84(%rbp)
	ja	.L431
	movl	-84(%rbp), %eax
	leaq	0(,%rax,4), %rdx
	leaq	.L433(%rip), %rax
	movl	(%rdx,%rax), %eax
	cltq
	leaq	.L433(%rip), %rdx
	addq	%rdx, %rax
	notrack jmp	*%rax
	.section	.rodata
	.align 4
	.align 4
.L433:
	.long	.L431-.L433
	.long	.L437-.L433
	.long	.L436-.L433
	.long	.L435-.L433
	.long	.L434-.L433
	.long	.L431-.L433
	.long	.L467-.L433
	.text
.L437:
	.loc 4 2726 19
	movq	-80(%rbp), %rax
	movzbl	(%rax), %eax
	movsbl	%al, %eax
	cmpl	$58, %eax
	je	.L438
	cmpl	$58, %eax
	jg	.L439
	testl	%eax, %eax
	je	.L440
	cmpl	$42, %eax
	je	.L441
	jmp	.L439
.L438:
	.loc 4 2729 15
	movq	-80(%rbp), %rax
	addq	$1, %rax
	movq	%rax, -80(%rbp)
	.loc 4 2730 15
	jmp	.L442
.L441:
	.loc 4 2738 21
	movl	$40, %edi
	call	xmalloc@PLT
	movq	%rax, -64(%rbp)
	.loc 4 2739 25
	movq	color_ext_list(%rip), %rdx
	movq	-64(%rbp), %rax
	movq	%rdx, 32(%rax)
	.loc 4 2740 30
	movq	-64(%rbp), %rax
	movq	%rax, color_ext_list(%rip)
	.loc 4 2742 15
	movq	-80(%rbp), %rax
	addq	$1, %rax
	movq	%rax, -80(%rbp)
	.loc 4 2743 31
	movq	-72(%rbp), %rdx
	movq	-64(%rbp), %rax
	movq	%rdx, 8(%rax)
	.loc 4 2745 24
	movq	-64(%rbp), %rdx
	leaq	-80(%rbp), %rsi
	leaq	-72(%rbp), %rax
	movq	%rdx, %rcx
	movl	$1, %edx
	movq	%rax, %rdi
	call	get_funky_string
	.loc 4 2746 31
	testb	%al, %al
	je	.L443
	.loc 4 2746 31 is_stmt 0 discriminator 1
	movl	$4, %eax
	jmp	.L444
.L443:
	.loc 4 2746 31 discriminator 2
	movl	$6, %eax
.L444:
	.loc 4 2745 21 is_stmt 1
	movl	%eax, -84(%rbp)
	.loc 4 2747 15
	jmp	.L442
.L440:
	.loc 4 2750 21
	movl	$5, -84(%rbp)
	.loc 4 2751 15
	jmp	.L445
.L439:
	.loc 4 2754 29
	movq	-80(%rbp), %rax
	leaq	1(%rax), %rdx
	movq	%rdx, -80(%rbp)
	.loc 4 2754 26
	movzbl	(%rax), %eax
	.loc 4 2754 24
	movb	%al, -27(%rbp)
	.loc 4 2755 21
	movl	$2, -84(%rbp)
	.loc 4 2756 15
	nop
.L442:
	.loc 4 2758 11
	jmp	.L446
.L436:
	.loc 4 2761 15
	movq	-80(%rbp), %rax
	movzbl	(%rax), %eax
	.loc 4 2761 14
	testb	%al, %al
	je	.L447
	.loc 4 2763 29
	movq	-80(%rbp), %rax
	leaq	1(%rax), %rdx
	movq	%rdx, -80(%rbp)
	.loc 4 2763 26
	movzbl	(%rax), %eax
	.loc 4 2763 24
	movb	%al, -26(%rbp)
	.loc 4 2764 21
	movl	$3, -84(%rbp)
	.loc 4 2768 11
	jmp	.L446
.L447:
	.loc 4 2767 19
	movl	$6, -84(%rbp)
	.loc 4 2768 11
	jmp	.L446
.L435:
	.loc 4 2771 17
	movl	$6, -84(%rbp)
	.loc 4 2772 18
	movq	-80(%rbp), %rax
	leaq	1(%rax), %rdx
	movq	%rdx, -80(%rbp)
	.loc 4 2772 15
	movzbl	(%rax), %eax
	.loc 4 2772 14
	cmpb	$61, %al
	jne	.L468
	.loc 4 2774 27
	movl	$0, -88(%rbp)
	.loc 4 2774 15
	jmp	.L450
.L455:
	.loc 4 2776 23
	movl	-88(%rbp), %eax
	cltq
	leaq	0(,%rax,8), %rdx
	leaq	indicator_name(%rip), %rax
	movq	(%rdx,%rax), %rdx
	leaq	-27(%rbp), %rax
	movq	%rdx, %rsi
	movq	%rax, %rdi
	call	strcmp@PLT
	.loc 4 2776 22
	testl	%eax, %eax
	jne	.L451
	.loc 4 2778 54
	movq	-72(%rbp), %rax
	movl	-88(%rbp), %edx
	movslq	%edx, %rdx
	movq	%rdx, %rcx
	salq	$4, %rcx
	leaq	8+color_indicator(%rip), %rdx
	movq	%rax, (%rcx,%rdx)
	.loc 4 2779 32
	movl	-88(%rbp), %eax
	cltq
	salq	$4, %rax
	movq	%rax, %rdx
	leaq	color_indicator(%rip), %rax
	addq	%rax, %rdx
	leaq	-80(%rbp), %rsi
	leaq	-72(%rbp), %rax
	movq	%rdx, %rcx
	movl	$0, %edx
	movq	%rax, %rdi
	call	get_funky_string
	.loc 4 2781 43
	testb	%al, %al
	je	.L452
	.loc 4 2781 43 is_stmt 0 discriminator 1
	movl	$1, %eax
	jmp	.L453
.L452:
	.loc 4 2781 43 discriminator 2
	movl	$6, %eax
.L453:
	.loc 4 2779 29 is_stmt 1
	movl	%eax, -84(%rbp)
	.loc 4 2782 23
	jmp	.L454
.L451:
	.loc 4 2774 64 discriminator 2
	addl	$1, -88(%rbp)
.L450:
	.loc 4 2774 46 discriminator 1
	movl	-88(%rbp), %eax
	cltq
	leaq	0(,%rax,8), %rdx
	leaq	indicator_name(%rip), %rax
	movq	(%rdx,%rax), %rax
	.loc 4 2774 15 discriminator 1
	testq	%rax, %rax
	jne	.L455
.L454:
	.loc 4 2785 18
	cmpl	$6, -84(%rbp)
	jne	.L468
	.loc 4 2786 17
	leaq	-27(%rbp), %rax
	movq	%rax, %rdi
	call	quote@PLT
	movq	%rax, %rbx
	.loc 4 2786 30
	leaq	.LC187(%rip), %rdi
	call	gettext@PLT
	.loc 4 2786 17
	movq	%rbx, %rcx
	movq	%rax, %rdx
	movl	$0, %esi
	movl	$0, %edi
	movl	$0, %eax
	call	error@PLT
	.loc 4 2788 11
	jmp	.L468
.L434:
	.loc 4 2791 18
	movq	-80(%rbp), %rax
	leaq	1(%rax), %rdx
	movq	%rdx, -80(%rbp)
	.loc 4 2791 15
	movzbl	(%rax), %eax
	.loc 4 2791 14
	cmpb	$61, %al
	jne	.L456
	.loc 4 2793 31
	movq	-72(%rbp), %rdx
	movq	-64(%rbp), %rax
	movq	%rdx, 24(%rax)
	.loc 4 2794 24
	movq	-64(%rbp), %rax
	leaq	16(%rax), %rdx
	leaq	-80(%rbp), %rsi
	leaq	-72(%rbp), %rax
	movq	%rdx, %rcx
	movl	$0, %edx
	movq	%rax, %rdi
	call	get_funky_string
	.loc 4 2795 35
	testb	%al, %al
	je	.L457
	.loc 4 2795 35 is_stmt 0 discriminator 1
	movl	$1, %eax
	jmp	.L458
.L457:
	.loc 4 2795 35 discriminator 2
	movl	$6, %eax
.L458:
	.loc 4 2794 21 is_stmt 1
	movl	%eax, -84(%rbp)
	.loc 4 2799 11
	jmp	.L446
.L456:
	.loc 4 2798 19
	movl	$6, -84(%rbp)
	.loc 4 2799 11
	jmp	.L446
.L431:
	.loc 4 2805 11
	call	abort@PLT
.L468:
	.loc 4 2788 11
	nop
.L446:
	.loc 4 2723 7
	jmp	.L460
.L467:
	.loc 4 2802 11
	nop
.L445:
	.loc 4 2810 6
	cmpl	$6, -84(%rbp)
	jne	.L461
.LBB52:
	.loc 4 2816 14
	leaq	.LC188(%rip), %rdi
	call	gettext@PLT
	.loc 4 2815 7
	movq	%rax, %rdx
	movl	$0, %esi
	movl	$0, %edi
	movl	$0, %eax
	call	error@PLT
	.loc 4 2817 7
	movq	color_buf(%rip), %rax
	movq	%rax, %rdi
	call	free@PLT
	.loc 4 2818 14
	movq	color_ext_list(%rip), %rax
	movq	%rax, -56(%rbp)
	.loc 4 2818 7
	jmp	.L462
.L463:
	.loc 4 2820 14
	movq	-56(%rbp), %rax
	movq	%rax, -48(%rbp)
	.loc 4 2821 13
	movq	-56(%rbp), %rax
	movq	32(%rax), %rax
	movq	%rax, -56(%rbp)
	.loc 4 2822 11
	movq	-48(%rbp), %rax
	movq	%rax, %rdi
	call	free@PLT
.L462:
	.loc 4 2818 7 discriminator 1
	cmpq	$0, -56(%rbp)
	jne	.L463
	.loc 4 2824 24
	movb	$0, print_with_color(%rip)
.L461:
.LBE52:
	.loc 4 2827 30
	movq	112+color_indicator(%rip), %rax
	.loc 4 2827 6
	cmpq	$6, %rax
	jne	.L425
	.loc 4 2828 11
	movq	120+color_indicator(%rip), %rax
	movl	$6, %edx
	leaq	.LC189(%rip), %rsi
	movq	%rax, %rdi
	call	strncmp@PLT
	.loc 4 2828 7
	testl	%eax, %eax
	jne	.L425
	.loc 4 2829 31
	movb	$1, color_symlink_as_referent(%rip)
	jmp	.L425
.L466:
	.loc 4 2708 7
	nop
.L425:
	.loc 4 2830 1
	movq	-24(%rbp), %rax
	xorq	%fs:40, %rax
	je	.L465
	call	__stack_chk_fail@PLT
.L465:
	addq	$88, %rsp
	popq	%rbx
	popq	%rbp
	.cfi_def_cfa 7, 8
	ret
	.cfi_endproc
.LFE110:
	.size	parse_ls_color, .-parse_ls_color
	.section	.rodata
.LC190:
	.string	"QUOTING_STYLE"
	.align 8
.LC191:
	.string	"ignoring invalid value of environment variable QUOTING_STYLE: %s"
	.text
	.type	getenv_quoting_style, @function
getenv_quoting_style:
.LFB111:
	.loc 4 2837 1
	.cfi_startproc
	endbr64
	pushq	%rbp
	.cfi_def_cfa_offset 16
	.cfi_offset 6, -16
	movq	%rsp, %rbp
	.cfi_def_cfa_register 6
	pushq	%rbx
	subq	$24, %rsp
	.cfi_offset 3, -24
	.loc 4 2838 25
	leaq	.LC190(%rip), %rdi
	call	getenv@PLT
	movq	%rax, -24(%rbp)
	.loc 4 2839 6
	cmpq	$0, -24(%rbp)
	je	.L472
.LBB53:
	.loc 4 2841 15
	movq	-24(%rbp), %rax
	movl	$4, %ecx
	leaq	quoting_style_vals(%rip), %rdx
	leaq	quoting_style_args(%rip), %rsi
	movq	%rax, %rdi
	call	argmatch@PLT
	.loc 4 2841 11
	movl	%eax, -28(%rbp)
	.loc 4 2842 10
	cmpl	$0, -28(%rbp)
	js	.L471
	.loc 4 2843 9
	movl	-28(%rbp), %eax
	cltq
	leaq	0(,%rax,4), %rdx
	leaq	quoting_style_vals(%rip), %rax
	movl	(%rdx,%rax), %eax
	movl	%eax, %esi
	movl	$0, %edi
	call	set_quoting_style@PLT
.LBE53:
	.loc 4 2849 1
	jmp	.L472
.L471:
.LBB54:
	.loc 4 2845 9
	movq	-24(%rbp), %rax
	movq	%rax, %rdi
	call	quote@PLT
	movq	%rax, %rbx
	.loc 4 2846 8
	leaq	.LC191(%rip), %rdi
	call	gettext@PLT
	.loc 4 2845 9
	movq	%rbx, %rcx
	movq	%rax, %rdx
	movl	$0, %esi
	movl	$0, %edi
	movl	$0, %eax
	call	error@PLT
.L472:
.LBE54:
	.loc 4 2849 1
	nop
	addq	$24, %rsp
	popq	%rbx
	popq	%rbp
	.cfi_def_cfa 7, 8
	ret
	.cfi_endproc
.LFE111:
	.size	getenv_quoting_style, .-getenv_quoting_style
	.type	set_exit_status, @function
set_exit_status:
.LFB112:
	.loc 4 2856 1
	.cfi_startproc
	endbr64
	pushq	%rbp
	.cfi_def_cfa_offset 16
	.cfi_offset 6, -16
	movq	%rsp, %rbp
	.cfi_def_cfa_register 6
	movl	%edi, %eax
	movb	%al, -4(%rbp)
	.loc 4 2857 6
	cmpb	$0, -4(%rbp)
	je	.L474
	.loc 4 2858 17
	movl	$2, exit_status(%rip)
	.loc 4 2861 1
	jmp	.L476
.L474:
	.loc 4 2859 24
	movl	exit_status(%rip), %eax
	.loc 4 2859 11
	testl	%eax, %eax
	jne	.L476
	.loc 4 2860 17
	movl	$1, exit_status(%rip)
.L476:
	.loc 4 2861 1
	nop
	popq	%rbp
	.cfi_def_cfa 7, 8
	ret
	.cfi_endproc
.LFE112:
	.size	set_exit_status, .-set_exit_status
	.type	file_failure, @function
file_failure:
.LFB113:
	.loc 4 2869 1
	.cfi_startproc
	endbr64
	pushq	%rbp
	.cfi_def_cfa_offset 16
	.cfi_offset 6, -16
	movq	%rsp, %rbp
	.cfi_def_cfa_register 6
	pushq	%rbx
	subq	$40, %rsp
	.cfi_offset 3, -24
	movl	%edi, %eax
	movq	%rsi, -32(%rbp)
	movq	%rdx, -40(%rbp)
	movb	%al, -20(%rbp)
	.loc 4 2870 3
	movq	-40(%rbp), %rax
	movq	%rax, %rsi
	movl	$4, %edi
	call	quotearg_style@PLT
	movq	%rax, %rbx
	.loc 4 2870 13
	call	__errno_location@PLT
	.loc 4 2870 3
	movl	(%rax), %eax
	movq	-32(%rbp), %rdx
	movq	%rbx, %rcx
	movl	%eax, %esi
	movl	$0, %edi
	movl	$0, %eax
	call	error@PLT
	.loc 4 2871 3
	movzbl	-20(%rbp), %eax
	movl	%eax, %edi
	call	set_exit_status
	.loc 4 2872 1
	nop
	addq	$40, %rsp
	popq	%rbx
	popq	%rbp
	.cfi_def_cfa 7, 8
	ret
	.cfi_endproc
.LFE113:
	.size	file_failure, .-file_failure
	.type	queue_directory, @function
queue_directory:
.LFB114:
	.loc 4 2886 1
	.cfi_startproc
	endbr64
	pushq	%rbp
	.cfi_def_cfa_offset 16
	.cfi_offset 6, -16
	movq	%rsp, %rbp
	.cfi_def_cfa_register 6
	subq	$48, %rsp
	movq	%rdi, -24(%rbp)
	movq	%rsi, -32(%rbp)
	movl	%edx, %eax
	movb	%al, -36(%rbp)
	.loc 4 2887 25
	movl	$32, %edi
	call	xmalloc@PLT
	movq	%rax, -8(%rbp)
	.loc 4 2888 49
	cmpq	$0, -32(%rbp)
	je	.L479
	.loc 4 2888 30 discriminator 1
	movq	-32(%rbp), %rax
	movq	%rax, %rdi
	call	xstrdup@PLT
	movq	%rax, %rdx
	jmp	.L480
.L479:
	.loc 4 2888 49 discriminator 2
	movl	$0, %edx
.L480:
	.loc 4 2888 17 discriminator 4
	movq	-8(%rbp), %rax
	movq	%rdx, 8(%rax)
	.loc 4 2889 37 discriminator 4
	cmpq	$0, -24(%rbp)
	je	.L481
	.loc 4 2889 22 discriminator 1
	movq	-24(%rbp), %rax
	movq	%rax, %rdi
	call	xstrdup@PLT
	movq	%rax, %rdx
	jmp	.L482
.L481:
	.loc 4 2889 37 discriminator 2
	movl	$0, %edx
.L482:
	.loc 4 2889 13 discriminator 4
	movq	-8(%rbp), %rax
	movq	%rdx, (%rax)
	.loc 4 2890 25 discriminator 4
	movq	-8(%rbp), %rax
	movzbl	-36(%rbp), %edx
	movb	%dl, 16(%rax)
	.loc 4 2891 13 discriminator 4
	movq	pending_dirs(%rip), %rdx
	movq	-8(%rbp), %rax
	movq	%rdx, 24(%rax)
	.loc 4 2892 16 discriminator 4
	movq	-8(%rbp), %rax
	movq	%rax, pending_dirs(%rip)
	.loc 4 2893 1 discriminator 4
	nop
	leave
	.cfi_def_cfa 7, 8
	ret
	.cfi_endproc
.LFE114:
	.size	queue_directory, .-queue_directory
	.section	.rodata
.LC192:
	.string	"cannot open directory %s"
	.align 8
.LC193:
	.string	"cannot determine device and inode of %s"
	.align 8
.LC194:
	.string	"%s: not listing already-listed directory"
.LC195:
	.string	"  "
.LC196:
	.string	"error canonicalizing %s"
.LC197:
	.string	":\n"
.LC198:
	.string	"reading directory %s"
.LC199:
	.string	"closing directory %s"
.LC200:
	.string	"total"
	.text
	.type	print_dir, @function
print_dir:
.LFB115:
	.loc 4 2902 1
	.cfi_startproc
	endbr64
	pushq	%rbp
	.cfi_def_cfa_offset 16
	.cfi_offset 6, -16
	movq	%rsp, %rbp
	.cfi_def_cfa_register 6
	pushq	%rbx
	subq	$904, %rsp
	.cfi_offset 3, -24
	movq	%rdi, -888(%rbp)
	movq	%rsi, -896(%rbp)
	movl	%edx, %eax
	movb	%al, -900(%rbp)
	.loc 4 2902 1
	movq	%fs:40, %rax
	movq	%rax, -24(%rbp)
	xorl	%eax, %eax
	.loc 4 2905 13
	movq	$0, -872(%rbp)
	.loc 4 2908 3
	call	__errno_location@PLT
	.loc 4 2908 9
	movl	$0, (%rax)
	.loc 4 2909 10
	movq	-888(%rbp), %rax
	movq	%rax, %rdi
	call	opendir@PLT
	movq	%rax, -856(%rbp)
	.loc 4 2910 6
	cmpq	$0, -856(%rbp)
	jne	.L484
	.loc 4 2912 39
	leaq	.LC192(%rip), %rdi
	call	gettext@PLT
	movq	%rax, %rcx
	.loc 4 2912 7
	movzbl	-900(%rbp), %eax
	movq	-888(%rbp), %rdx
	movq	%rcx, %rsi
	movl	%eax, %edi
	call	file_failure
	.loc 4 2913 7
	jmp	.L483
.L484:
	.loc 4 2916 7
	movq	active_dir_set(%rip), %rax
	.loc 4 2916 6
	testq	%rax, %rax
	je	.L486
.LBB55:
	.loc 4 2919 16
	movq	-856(%rbp), %rax
	movq	%rax, %rdi
	call	dirfd@PLT
	movl	%eax, -876(%rbp)
	.loc 4 2924 46
	cmpl	$0, -876(%rbp)
	js	.L487
	.loc 4 2923 14 discriminator 1
	leaq	-832(%rbp), %rdx
	movl	-876(%rbp), %eax
	movq	%rdx, %rsi
	movl	%eax, %edi
	call	fstat_for_ino
	.loc 4 2924 46 discriminator 1
	shrl	$31, %eax
	jmp	.L488
.L487:
	.loc 4 2924 14 discriminator 2
	leaq	-832(%rbp), %rdx
	movq	-888(%rbp), %rax
	movq	%rdx, %rsi
	movq	%rax, %rdi
	call	stat_for_ino
	.loc 4 2924 46 discriminator 2
	shrl	$31, %eax
.L488:
	.loc 4 2922 10
	testb	%al, %al
	je	.L489
	.loc 4 2927 25
	leaq	.LC193(%rip), %rdi
	call	gettext@PLT
	movq	%rax, %rcx
	.loc 4 2926 11
	movzbl	-900(%rbp), %eax
	movq	-888(%rbp), %rdx
	movq	%rcx, %rsi
	movl	%eax, %edi
	call	file_failure
	.loc 4 2928 11
	movq	-856(%rbp), %rax
	movq	%rax, %rdi
	call	closedir@PLT
	.loc 4 2929 11
	jmp	.L483
.L489:
	.loc 4 2934 11
	movq	-824(%rbp), %rdx
	movq	-832(%rbp), %rax
	movq	%rdx, %rsi
	movq	%rax, %rdi
	call	visit_dir
	.loc 4 2934 10
	testb	%al, %al
	je	.L491
	.loc 4 2936 11
	movq	-888(%rbp), %rax
	movq	%rax, %rdx
	movl	$3, %esi
	movl	$0, %edi
	call	quotearg_n_style_colon@PLT
	movq	%rax, %rbx
	.loc 4 2936 24
	leaq	.LC194(%rip), %rdi
	call	gettext@PLT
	.loc 4 2936 11
	movq	%rbx, %rcx
	movq	%rax, %rdx
	movl	$0, %esi
	movl	$0, %edi
	movl	$0, %eax
	call	error@PLT
	.loc 4 2938 11
	movq	-856(%rbp), %rax
	movq	%rax, %rdi
	call	closedir@PLT
	.loc 4 2939 11
	movl	$1, %edi
	call	set_exit_status
	.loc 4 2940 11
	jmp	.L483
.L491:
	.loc 4 2943 7
	movq	-824(%rbp), %rdx
	movq	-832(%rbp), %rax
	movq	%rdx, %rsi
	movq	%rax, %rdi
	call	dev_ino_push
.L486:
.LBE55:
	.loc 4 2946 3
	call	clear_files
	.loc 4 2948 7
	movzbl	recursive(%rip), %eax
	.loc 4 2948 6
	testb	%al, %al
	jne	.L492
	.loc 4 2948 17 discriminator 1
	movzbl	print_dir_name(%rip), %eax
	testb	%al, %al
	je	.L513
.L492:
.LBB56:
	.loc 4 2950 11
	movzbl	first.9692(%rip), %eax
	xorl	$1, %eax
	.loc 4 2950 10
	testb	%al, %al
	je	.L494
	.loc 4 2951 9
	movl	$10, %edi
	call	putchar_unlocked@PLT
	movq	dired_pos(%rip), %rax
	addq	$1, %rax
	movq	%rax, dired_pos(%rip)
.L494:
	.loc 4 2952 13
	movb	$0, first.9692(%rip)
	.loc 4 2953 7
	movzbl	dired(%rip), %eax
	testb	%al, %al
	je	.L495
	.loc 4 2953 7 is_stmt 0 discriminator 1
	movq	stdout(%rip), %rax
	movq	%rax, %rcx
	movl	$2, %edx
	movl	$1, %esi
	leaq	.LC195(%rip), %rdi
	call	fwrite_unlocked@PLT
	movq	dired_pos(%rip), %rax
	addq	$2, %rax
	movq	%rax, dired_pos(%rip)
.L495:
	.loc 4 2955 13 is_stmt 1
	movq	$0, -864(%rbp)
	.loc 4 2956 11
	movzbl	print_hyperlink(%rip), %eax
	.loc 4 2956 10
	testb	%al, %al
	je	.L496
	.loc 4 2958 27
	movq	-888(%rbp), %rax
	movl	$2, %esi
	movq	%rax, %rdi
	call	canonicalize_filename_mode@PLT
	movq	%rax, -864(%rbp)
	.loc 4 2959 14
	cmpq	$0, -864(%rbp)
	jne	.L496
	.loc 4 2961 27
	leaq	.LC196(%rip), %rdi
	call	gettext@PLT
	movq	%rax, %rcx
	.loc 4 2960 13
	movzbl	-900(%rbp), %eax
	movq	-888(%rbp), %rdx
	movq	%rcx, %rsi
	movl	%eax, %edi
	call	file_failure
.L496:
	.loc 4 2963 7
	movq	dirname_quoting_options(%rip), %rsi
	cmpq	$0, -896(%rbp)
	je	.L497
	.loc 4 2963 7 is_stmt 0 discriminator 1
	movq	-896(%rbp), %rax
	jmp	.L498
.L497:
	.loc 4 2963 7 discriminator 2
	movq	-888(%rbp), %rax
.L498:
	.loc 4 2963 7 discriminator 4
	subq	$8, %rsp
	pushq	-864(%rbp)
	leaq	subdired_obstack(%rip), %r9
	movl	$1, %r8d
	movl	$0, %ecx
	movl	$-1, %edx
	movq	%rax, %rdi
	call	quote_name
	addq	$16, %rsp
	.loc 4 2966 7 is_stmt 1 discriminator 4
	movq	-864(%rbp), %rax
	movq	%rax, %rdi
	call	free@PLT
	.loc 4 2968 7 discriminator 4
	movq	stdout(%rip), %rax
	movq	%rax, %rcx
	movl	$2, %edx
	movl	$1, %esi
	leaq	.LC197(%rip), %rdi
	call	fwrite_unlocked@PLT
	movq	dired_pos(%rip), %rax
	addq	$2, %rax
	movq	%rax, dired_pos(%rip)
.L513:
.LBE56:
	.loc 4 2978 7
	call	__errno_location@PLT
	.loc 4 2978 13
	movl	$0, (%rax)
	.loc 4 2979 14
	movq	-856(%rbp), %rax
	movq	%rax, %rdi
	call	readdir@PLT
	movq	%rax, -848(%rbp)
	.loc 4 2980 10
	cmpq	$0, -848(%rbp)
	je	.L499
	.loc 4 2982 35
	movq	-848(%rbp), %rax
	addq	$19, %rax
	.loc 4 2982 17
	movq	%rax, %rdi
	call	file_ignored
	.loc 4 2982 15
	xorl	$1, %eax
	.loc 4 2982 14
	testb	%al, %al
	je	.L500
.LBB57:
	.loc 4 2984 29
	movl	$0, -880(%rbp)
	.loc 4 2987 27
	movq	-848(%rbp), %rax
	movzbl	18(%rax), %eax
	movzbl	%al, %eax
	cmpl	$14, %eax
	ja	.L501
	movl	%eax, %eax
	leaq	0(,%rax,4), %rdx
	leaq	.L503(%rip), %rax
	movl	(%rdx,%rax), %eax
	cltq
	leaq	.L503(%rip), %rdx
	addq	%rdx, %rax
	notrack jmp	*%rax
	.section	.rodata
	.align 4
	.align 4
.L503:
	.long	.L501-.L503
	.long	.L510-.L503
	.long	.L509-.L503
	.long	.L501-.L503
	.long	.L508-.L503
	.long	.L501-.L503
	.long	.L507-.L503
	.long	.L501-.L503
	.long	.L506-.L503
	.long	.L501-.L503
	.long	.L505-.L503
	.long	.L501-.L503
	.long	.L504-.L503
	.long	.L501-.L503
	.long	.L502-.L503
	.text
.L507:
	.loc 4 2989 36
	movl	$4, -880(%rbp)
	.loc 4 2989 17
	jmp	.L501
.L509:
	.loc 4 2990 36
	movl	$2, -880(%rbp)
	.loc 4 2990 17
	jmp	.L501
.L508:
	.loc 4 2991 36
	movl	$3, -880(%rbp)
	.loc 4 2991 17
	jmp	.L501
.L510:
	.loc 4 2992 36
	movl	$1, -880(%rbp)
	.loc 4 2992 17
	jmp	.L501
.L505:
	.loc 4 2993 36
	movl	$6, -880(%rbp)
	.loc 4 2993 17
	jmp	.L501
.L506:
	.loc 4 2994 36
	movl	$5, -880(%rbp)
	.loc 4 2994 17
	jmp	.L501
.L504:
	.loc 4 2995 36
	movl	$7, -880(%rbp)
	.loc 4 2995 17
	jmp	.L501
.L502:
	.loc 4 2997 36
	movl	$8, -880(%rbp)
	.loc 4 2997 17
	nop
.L501:
	.loc 4 3001 48
	movq	-848(%rbp), %rax
	leaq	19(%rax), %rdi
	.loc 4 3001 31
	movq	-888(%rbp), %rdx
	movl	-880(%rbp), %eax
	movq	%rdx, %r8
	movl	$0, %ecx
	movl	$0, %edx
	movl	%eax, %esi
	call	gobble_file
	.loc 4 3001 28
	addq	%rax, -872(%rbp)
	.loc 4 3009 26
	movl	format(%rip), %eax
	.loc 4 3009 18
	cmpl	$1, %eax
	jne	.L500
	.loc 4 3009 55 discriminator 1
	movl	sort_type(%rip), %eax
	.loc 4 3009 42 discriminator 1
	cmpl	$-1, %eax
	jne	.L500
	.loc 4 3010 26
	movzbl	print_block_size(%rip), %eax
	xorl	$1, %eax
	.loc 4 3010 23
	testb	%al, %al
	je	.L500
	.loc 4 3010 47 discriminator 1
	movzbl	recursive(%rip), %eax
	xorl	$1, %eax
	.loc 4 3010 44 discriminator 1
	testb	%al, %al
	je	.L500
	.loc 4 3015 19
	call	sort_files
	.loc 4 3016 19
	call	print_current_files
	.loc 4 3017 19
	call	clear_files
	jmp	.L500
.L499:
.LBE57:
	.loc 4 3021 16
	call	__errno_location@PLT
	movl	(%rax), %eax
	.loc 4 3021 15
	testl	%eax, %eax
	je	.L520
	.loc 4 3023 43
	leaq	.LC198(%rip), %rdi
	call	gettext@PLT
	movq	%rax, %rcx
	.loc 4 3023 11
	movzbl	-900(%rbp), %eax
	movq	-888(%rbp), %rdx
	movq	%rcx, %rsi
	movl	%eax, %edi
	call	file_failure
	.loc 4 3024 15
	call	__errno_location@PLT
	movl	(%rax), %eax
	.loc 4 3024 14
	cmpl	$75, %eax
	jne	.L521
.L500:
	.loc 4 3033 7
	call	process_signals
	.loc 4 2978 13
	jmp	.L513
.L520:
	.loc 4 3028 9
	nop
	jmp	.L512
.L521:
	.loc 4 3025 13
	nop
.L512:
	.loc 4 3036 7
	movq	-856(%rbp), %rax
	movq	%rax, %rdi
	call	closedir@PLT
	.loc 4 3036 6
	testl	%eax, %eax
	je	.L514
	.loc 4 3038 39
	leaq	.LC199(%rip), %rdi
	call	gettext@PLT
	movq	%rax, %rcx
	.loc 4 3038 7
	movzbl	-900(%rbp), %eax
	movq	-888(%rbp), %rdx
	movq	%rcx, %rsi
	movl	%eax, %edi
	call	file_failure
.L514:
	.loc 4 3043 3
	call	sort_files
	.loc 4 3048 7
	movzbl	recursive(%rip), %eax
	.loc 4 3048 6
	testb	%al, %al
	je	.L515
	.loc 4 3049 5
	movq	-888(%rbp), %rax
	movl	$0, %esi
	movq	%rax, %rdi
	call	extract_dirs_from_files
.L515:
	.loc 4 3051 14
	movl	format(%rip), %eax
	.loc 4 3051 6
	testl	%eax, %eax
	je	.L516
	.loc 4 3051 29 discriminator 1
	movzbl	print_block_size(%rip), %eax
	testb	%al, %al
	je	.L517
.L516:
.LBB58:
	.loc 4 3056 7
	movzbl	dired(%rip), %eax
	testb	%al, %al
	je	.L518
	.loc 4 3056 7 is_stmt 0 discriminator 1
	movq	stdout(%rip), %rax
	movq	%rax, %rcx
	movl	$2, %edx
	movl	$1, %esi
	leaq	.LC195(%rip), %rdi
	call	fwrite_unlocked@PLT
	movq	dired_pos(%rip), %rax
	addq	$2, %rax
	movq	%rax, dired_pos(%rip)
.L518:
	.loc 4 3057 11 is_stmt 1
	leaq	.LC200(%rip), %rdi
	call	gettext@PLT
	movq	%rax, -840(%rbp)
	.loc 4 3058 7
	movq	stdout(%rip), %rdx
	movq	-840(%rbp), %rax
	movq	%rdx, %rsi
	movq	%rax, %rdi
	call	fputs_unlocked@PLT
	movq	-840(%rbp), %rax
	movq	%rax, %rdi
	call	strlen@PLT
	movq	dired_pos(%rip), %rdx
	addq	%rdx, %rax
	movq	%rax, dired_pos(%rip)
	.loc 4 3059 7
	movl	$32, %edi
	call	putchar_unlocked@PLT
	movq	dired_pos(%rip), %rax
	addq	$1, %rax
	movq	%rax, dired_pos(%rip)
	.loc 4 3060 11
	movq	output_block_size(%rip), %rcx
	movl	human_output_opts(%rip), %edx
	leaq	-688(%rbp), %rsi
	movq	-872(%rbp), %rax
	movq	%rcx, %r8
	movl	$512, %ecx
	movq	%rax, %rdi
	call	human_readable@PLT
	movq	%rax, -840(%rbp)
	.loc 4 3062 7
	movq	stdout(%rip), %rdx
	movq	-840(%rbp), %rax
	movq	%rdx, %rsi
	movq	%rax, %rdi
	call	fputs_unlocked@PLT
	movq	-840(%rbp), %rax
	movq	%rax, %rdi
	call	strlen@PLT
	movq	dired_pos(%rip), %rdx
	addq	%rdx, %rax
	movq	%rax, dired_pos(%rip)
	.loc 4 3063 7
	movl	$10, %edi
	call	putchar_unlocked@PLT
	movq	dired_pos(%rip), %rax
	addq	$1, %rax
	movq	%rax, dired_pos(%rip)
.L517:
.LBE58:
	.loc 4 3066 7
	movq	cwd_n_used(%rip), %rax
	.loc 4 3066 6
	testq	%rax, %rax
	je	.L483
	.loc 4 3067 5
	call	print_current_files
.L483:
	.loc 4 3068 1
	movq	-24(%rbp), %rax
	xorq	%fs:40, %rax
	je	.L519
	call	__stack_chk_fail@PLT
.L519:
	movq	-8(%rbp), %rbx
	leave
	.cfi_def_cfa 7, 8
	ret
	.cfi_endproc
.LFE115:
	.size	print_dir, .-print_dir
	.type	add_ignore_pattern, @function
add_ignore_pattern:
.LFB116:
	.loc 4 3075 1
	.cfi_startproc
	endbr64
	pushq	%rbp
	.cfi_def_cfa_offset 16
	.cfi_offset 6, -16
	movq	%rsp, %rbp
	.cfi_def_cfa_register 6
	subq	$32, %rsp
	movq	%rdi, -24(%rbp)
	.loc 4 3078 12
	movl	$16, %edi
	call	xmalloc@PLT
	movq	%rax, -8(%rbp)
	.loc 4 3079 19
	movq	-8(%rbp), %rax
	movq	-24(%rbp), %rdx
	movq	%rdx, (%rax)
	.loc 4 3081 16
	movq	ignore_patterns(%rip), %rdx
	movq	-8(%rbp), %rax
	movq	%rdx, 8(%rax)
	.loc 4 3082 19
	movq	-8(%rbp), %rax
	movq	%rax, ignore_patterns(%rip)
	.loc 4 3083 1
	nop
	leave
	.cfi_def_cfa 7, 8
	ret
	.cfi_endproc
.LFE116:
	.size	add_ignore_pattern, .-add_ignore_pattern
	.type	patterns_match, @function
patterns_match:
.LFB117:
	.loc 4 3089 1
	.cfi_startproc
	endbr64
	pushq	%rbp
	.cfi_def_cfa_offset 16
	.cfi_offset 6, -16
	movq	%rsp, %rbp
	.cfi_def_cfa_register 6
	subq	$32, %rsp
	movq	%rdi, -24(%rbp)
	movq	%rsi, -32(%rbp)
	.loc 4 3091 10
	movq	-24(%rbp), %rax
	movq	%rax, -8(%rbp)
	.loc 4 3091 3
	jmp	.L524
.L527:
	.loc 4 3092 9
	movq	-8(%rbp), %rax
	movq	(%rax), %rax
	movq	-32(%rbp), %rcx
	movl	$4, %edx
	movq	%rcx, %rsi
	movq	%rax, %rdi
	call	fnmatch@PLT
	.loc 4 3092 8
	testl	%eax, %eax
	jne	.L525
	.loc 4 3093 14
	movl	$1, %eax
	jmp	.L526
.L525:
	.loc 4 3091 27 discriminator 2
	movq	-8(%rbp), %rax
	movq	8(%rax), %rax
	movq	%rax, -8(%rbp)
.L524:
	.loc 4 3091 3 discriminator 1
	cmpq	$0, -8(%rbp)
	jne	.L527
	.loc 4 3094 10
	movl	$0, %eax
.L526:
	.loc 4 3095 1
	leave
	.cfi_def_cfa 7, 8
	ret
	.cfi_endproc
.LFE117:
	.size	patterns_match, .-patterns_match
	.type	file_ignored, @function
file_ignored:
.LFB118:
	.loc 4 3101 1
	.cfi_startproc
	endbr64
	pushq	%rbp
	.cfi_def_cfa_offset 16
	.cfi_offset 6, -16
	movq	%rsp, %rbp
	.cfi_def_cfa_register 6
	subq	$16, %rsp
	movq	%rdi, -8(%rbp)
	.loc 4 3102 24
	movl	ignore_mode(%rip), %eax
	.loc 4 3107 11
	cmpl	$2, %eax
	je	.L529
	.loc 4 3103 19
	movq	-8(%rbp), %rax
	movzbl	(%rax), %eax
	.loc 4 3103 12
	cmpb	$46, %al
	jne	.L529
	.loc 4 3104 28
	movl	ignore_mode(%rip), %eax
	.loc 4 3104 12
	testl	%eax, %eax
	je	.L530
	.loc 4 3104 65 discriminator 1
	movq	-8(%rbp), %rax
	addq	$1, %rax
	movzbl	(%rax), %eax
	.loc 4 3104 58 discriminator 1
	cmpb	$46, %al
	jne	.L531
	.loc 4 3104 58 is_stmt 0 discriminator 2
	movl	$2, %edx
	jmp	.L532
.L531:
	.loc 4 3104 58 discriminator 3
	movl	$1, %edx
.L532:
	.loc 4 3104 55 is_stmt 1 discriminator 5
	movq	-8(%rbp), %rax
	addq	%rdx, %rax
	movzbl	(%rax), %eax
	.loc 4 3104 46 discriminator 5
	testb	%al, %al
	je	.L530
.L529:
	.loc 4 3105 27
	movl	ignore_mode(%rip), %eax
	.loc 4 3105 11
	testl	%eax, %eax
	jne	.L533
	.loc 4 3106 18
	movq	hide_patterns(%rip), %rax
	movq	-8(%rbp), %rdx
	movq	%rdx, %rsi
	movq	%rax, %rdi
	call	patterns_match
	.loc 4 3106 15
	testb	%al, %al
	jne	.L530
.L533:
	.loc 4 3107 14
	movq	ignore_patterns(%rip), %rax
	movq	-8(%rbp), %rdx
	movq	%rdx, %rsi
	movq	%rax, %rdi
	call	patterns_match
	.loc 4 3107 11
	testb	%al, %al
	je	.L534
.L530:
	.loc 4 3107 11 is_stmt 0 discriminator 1
	movl	$1, %eax
	jmp	.L535
.L534:
	.loc 4 3107 11 discriminator 2
	movl	$0, %eax
.L535:
	.loc 4 3107 11 discriminator 4
	andl	$1, %eax
	.loc 4 3108 1 is_stmt 1 discriminator 4
	leave
	.cfi_def_cfa 7, 8
	ret
	.cfi_endproc
.LFE118:
	.size	file_ignored, .-file_ignored
	.type	unsigned_file_size, @function
unsigned_file_size:
.LFB119:
	.loc 4 3116 1
	.cfi_startproc
	endbr64
	pushq	%rbp
	.cfi_def_cfa_offset 16
	.cfi_offset 6, -16
	movq	%rsp, %rbp
	.cfi_def_cfa_register 6
	movq	%rdi, -8(%rbp)
	.loc 4 3117 15
	movq	-8(%rbp), %rax
	.loc 4 3118 1
	popq	%rbp
	.cfi_def_cfa 7, 8
	ret
	.cfi_endproc
.LFE119:
	.size	unsigned_file_size, .-unsigned_file_size
	.type	has_capability, @function
has_capability:
.LFB120:
	.loc 4 3146 1
	.cfi_startproc
	endbr64
	pushq	%rbp
	.cfi_def_cfa_offset 16
	.cfi_offset 6, -16
	movq	%rsp, %rbp
	.cfi_def_cfa_register 6
	subq	$16, %rsp
	movq	%rdi, -8(%rbp)
	.loc 4 3147 3
	call	__errno_location@PLT
	.loc 4 3147 9
	movl	$95, (%rax)
	.loc 4 3148 10
	movl	$0, %eax
	.loc 4 3149 1
	leave
	.cfi_def_cfa 7, 8
	ret
	.cfi_endproc
.LFE120:
	.size	has_capability, .-has_capability
	.type	free_ent, @function
free_ent:
.LFB121:
	.loc 4 3156 1
	.cfi_startproc
	endbr64
	pushq	%rbp
	.cfi_def_cfa_offset 16
	.cfi_offset 6, -16
	movq	%rsp, %rbp
	.cfi_def_cfa_register 6
	subq	$16, %rsp
	movq	%rdi, -8(%rbp)
	.loc 4 3157 10
	movq	-8(%rbp), %rax
	movq	(%rax), %rax
	.loc 4 3157 3
	movq	%rax, %rdi
	call	free@PLT
	.loc 4 3158 10
	movq	-8(%rbp), %rax
	movq	8(%rax), %rax
	.loc 4 3158 3
	movq	%rax, %rdi
	call	free@PLT
	.loc 4 3159 10
	movq	-8(%rbp), %rax
	movq	16(%rax), %rax
	.loc 4 3159 3
	movq	%rax, %rdi
	call	free@PLT
	.loc 4 3160 8
	movq	-8(%rbp), %rax
	movq	176(%rax), %rax
	.loc 4 3160 6
	leaq	UNKNOWN_SECURITY_CONTEXT(%rip), %rdx
	cmpq	%rdx, %rax
	je	.L544
	.loc 4 3162 11
	call	is_smack_enabled
	.loc 4 3162 10
	testb	%al, %al
	je	.L543
	.loc 4 3163 16
	movq	-8(%rbp), %rax
	movq	176(%rax), %rax
	.loc 4 3163 9
	movq	%rax, %rdi
	call	free@PLT
	.loc 4 3167 1
	jmp	.L544
.L543:
	.loc 4 3165 9
	movq	-8(%rbp), %rax
	movq	176(%rax), %rax
	movq	%rax, %rdi
	call	freecon@PLT
.L544:
	.loc 4 3167 1
	nop
	leave
	.cfi_def_cfa 7, 8
	ret
	.cfi_endproc
.LFE121:
	.size	free_ent, .-free_ent
	.type	clear_files, @function
clear_files:
.LFB122:
	.loc 4 3172 1
	.cfi_startproc
	endbr64
	pushq	%rbp
	.cfi_def_cfa_offset 16
	.cfi_offset 6, -16
	movq	%rsp, %rbp
	.cfi_def_cfa_register 6
	subq	$16, %rsp
.LBB59:
	.loc 4 3173 15
	movq	$0, -16(%rbp)
	.loc 4 3173 3
	jmp	.L546
.L547:
.LBB60:
	.loc 4 3175 39 discriminator 3
	movq	sorted_file(%rip), %rax
	movq	-16(%rbp), %rdx
	salq	$3, %rdx
	addq	%rdx, %rax
	.loc 4 3175 24 discriminator 3
	movq	(%rax), %rax
	movq	%rax, -8(%rbp)
	.loc 4 3176 7 discriminator 3
	movq	-8(%rbp), %rax
	movq	%rax, %rdi
	call	free_ent
.LBE60:
	.loc 4 3173 39 discriminator 3
	addq	$1, -16(%rbp)
.L546:
	.loc 4 3173 24 discriminator 1
	movq	cwd_n_used(%rip), %rax
	.loc 4 3173 3 discriminator 1
	cmpq	%rax, -16(%rbp)
	jb	.L547
.LBE59:
	.loc 4 3179 14
	movq	$0, cwd_n_used(%rip)
	.loc 4 3180 19
	movb	$0, cwd_some_quoted(%rip)
	.loc 4 3181 15
	movb	$0, any_has_acl(%rip)
	.loc 4 3182 22
	movl	$0, inode_number_width(%rip)
	.loc 4 3183 20
	movl	$0, block_size_width(%rip)
	.loc 4 3184 15
	movl	$0, nlink_width(%rip)
	.loc 4 3185 15
	movl	$0, owner_width(%rip)
	.loc 4 3186 15
	movl	$0, group_width(%rip)
	.loc 4 3187 16
	movl	$0, author_width(%rip)
	.loc 4 3188 18
	movl	$0, scontext_width(%rip)
	.loc 4 3189 29
	movl	$0, major_device_number_width(%rip)
	.loc 4 3190 29
	movl	$0, minor_device_number_width(%rip)
	.loc 4 3191 19
	movl	$0, file_size_width(%rip)
	.loc 4 3192 1
	nop
	leave
	.cfi_def_cfa 7, 8
	ret
	.cfi_endproc
.LFE122:
	.size	clear_files, .-clear_files
	.type	errno_unsupported, @function
errno_unsupported:
.LFB123:
	.loc 4 3198 1
	.cfi_startproc
	endbr64
	pushq	%rbp
	.cfi_def_cfa_offset 16
	.cfi_offset 6, -16
	movq	%rsp, %rbp
	.cfi_def_cfa_register 6
	subq	$8, %rsp
	movl	%edi, -4(%rbp)
	.loc 4 3199 42
	cmpl	$22, -4(%rbp)
	je	.L549
	.loc 4 3199 25 discriminator 2
	cmpl	$38, -4(%rbp)
	je	.L549
	.loc 4 3199 45 discriminator 4
	movl	-4(%rbp), %eax
	movl	%eax, %edi
	call	is_ENOTSUP
	.loc 4 3199 42 discriminator 4
	testb	%al, %al
	je	.L550
.L549:
	.loc 4 3199 42 is_stmt 0 discriminator 5
	movl	$1, %eax
	jmp	.L551
.L550:
	.loc 4 3199 42 discriminator 6
	movl	$0, %eax
.L551:
	.loc 4 3199 42 discriminator 8
	andl	$1, %eax
	.loc 4 3200 1 is_stmt 1 discriminator 8
	leave
	.cfi_def_cfa 7, 8
	ret
	.cfi_endproc
.LFE123:
	.size	errno_unsupported, .-errno_unsupported
	.type	getfilecon_cache, @function
getfilecon_cache:
.LFB124:
	.loc 4 3207 1
	.cfi_startproc
	endbr64
	pushq	%rbp
	.cfi_def_cfa_offset 16
	.cfi_offset 6, -16
	movq	%rsp, %rbp
	.cfi_def_cfa_register 6
	subq	$48, %rsp
	movq	%rdi, -24(%rbp)
	movq	%rsi, -32(%rbp)
	movl	%edx, %eax
	movb	%al, -36(%rbp)
	.loc 4 3212 14
	movq	-32(%rbp), %rax
	movq	24(%rax), %rdx
	.loc 4 3212 22
	movq	unsupported_device.9750(%rip), %rax
	.loc 4 3212 6
	cmpq	%rax, %rdx
	jne	.L554
	.loc 4 3214 7
	call	__errno_location@PLT
	.loc 4 3214 13
	movl	$95, (%rax)
	.loc 4 3215 14
	movl	$-1, %eax
	jmp	.L555
.L554:
	.loc 4 3217 7
	movl	$0, -4(%rbp)
	.loc 4 3226 10
	cmpb	$0, -36(%rbp)
	je	.L556
	.loc 4 3225 12
	movq	-32(%rbp), %rax
	leaq	176(%rax), %rdx
	movq	-24(%rbp), %rax
	movq	%rdx, %rsi
	movq	%rax, %rdi
	call	rpl_getfilecon@PLT
	jmp	.L557
.L556:
	.loc 4 3226 12 discriminator 1
	movq	-32(%rbp), %rax
	leaq	176(%rax), %rdx
	movq	-24(%rbp), %rax
	movq	%rdx, %rsi
	movq	%rax, %rdi
	call	rpl_lgetfilecon@PLT
.L557:
	.loc 4 3224 7
	movl	%eax, -4(%rbp)
	.loc 4 3227 6
	cmpl	$0, -4(%rbp)
	jns	.L558
	.loc 4 3227 35 discriminator 1
	call	__errno_location@PLT
	.loc 4 3227 16 discriminator 1
	movl	(%rax), %eax
	movl	%eax, %edi
	call	errno_unsupported
	.loc 4 3227 13 discriminator 1
	testb	%al, %al
	je	.L558
	.loc 4 3228 33
	movq	-32(%rbp), %rax
	movq	24(%rax), %rax
	.loc 4 3228 24
	movq	%rax, unsupported_device.9750(%rip)
.L558:
	.loc 4 3229 10
	movl	-4(%rbp), %eax
.L555:
	.loc 4 3230 1
	leave
	.cfi_def_cfa 7, 8
	ret
	.cfi_endproc
.LFE124:
	.size	getfilecon_cache, .-getfilecon_cache
	.type	file_has_acl_cache, @function
file_has_acl_cache:
.LFB125:
	.loc 4 3237 1
	.cfi_startproc
	endbr64
	pushq	%rbp
	.cfi_def_cfa_offset 16
	.cfi_offset 6, -16
	movq	%rsp, %rbp
	.cfi_def_cfa_register 6
	subq	$32, %rsp
	movq	%rdi, -24(%rbp)
	movq	%rsi, -32(%rbp)
	.loc 4 3242 14
	movq	-32(%rbp), %rax
	movq	24(%rax), %rdx
	.loc 4 3242 22
	movq	unsupported_device.9756(%rip), %rax
	.loc 4 3242 6
	cmpq	%rax, %rdx
	jne	.L560
	.loc 4 3244 7
	call	__errno_location@PLT
	.loc 4 3244 13
	movl	$95, (%rax)
	.loc 4 3245 14
	movl	$0, %eax
	jmp	.L561
.L560:
	.loc 4 3250 3
	call	__errno_location@PLT
	.loc 4 3250 9
	movl	$0, (%rax)
	.loc 4 3251 31
	movq	-32(%rbp), %rax
	leaq	24(%rax), %rdx
	.loc 4 3251 11
	movq	-24(%rbp), %rax
	movq	%rdx, %rsi
	movq	%rax, %rdi
	call	file_has_acl@PLT
	movl	%eax, -4(%rbp)
	.loc 4 3252 6
	cmpl	$0, -4(%rbp)
	jg	.L562
	.loc 4 3252 36 discriminator 1
	call	__errno_location@PLT
	.loc 4 3252 17 discriminator 1
	movl	(%rax), %eax
	movl	%eax, %edi
	call	errno_unsupported
	.loc 4 3252 14 discriminator 1
	testb	%al, %al
	je	.L562
	.loc 4 3253 33
	movq	-32(%rbp), %rax
	movq	24(%rax), %rax
	.loc 4 3253 24
	movq	%rax, unsupported_device.9756(%rip)
.L562:
	.loc 4 3254 10
	movl	-4(%rbp), %eax
.L561:
	.loc 4 3255 1
	leave
	.cfi_def_cfa 7, 8
	ret
	.cfi_endproc
.LFE125:
	.size	file_has_acl_cache, .-file_has_acl_cache
	.type	has_capability_cache, @function
has_capability_cache:
.LFB126:
	.loc 4 3262 1
	.cfi_startproc
	endbr64
	pushq	%rbp
	.cfi_def_cfa_offset 16
	.cfi_offset 6, -16
	movq	%rsp, %rbp
	.cfi_def_cfa_register 6
	subq	$32, %rsp
	movq	%rdi, -24(%rbp)
	movq	%rsi, -32(%rbp)
	.loc 4 3267 14
	movq	-32(%rbp), %rax
	movq	24(%rax), %rdx
	.loc 4 3267 22
	movq	unsupported_device.9762(%rip), %rax
	.loc 4 3267 6
	cmpq	%rax, %rdx
	jne	.L564
	.loc 4 3269 7
	call	__errno_location@PLT
	.loc 4 3269 13
	movl	$95, (%rax)
	.loc 4 3270 14
	movl	$0, %eax
	jmp	.L565
.L564:
	.loc 4 3273 12
	movq	-24(%rbp), %rax
	movq	%rax, %rdi
	call	has_capability
	movb	%al, -1(%rbp)
	.loc 4 3274 8
	movzbl	-1(%rbp), %eax
	xorl	$1, %eax
	.loc 4 3274 6
	testb	%al, %al
	je	.L566
	.loc 4 3274 33 discriminator 1
	call	__errno_location@PLT
	.loc 4 3274 14 discriminator 1
	movl	(%rax), %eax
	movl	%eax, %edi
	call	errno_unsupported
	.loc 4 3274 11 discriminator 1
	testb	%al, %al
	je	.L566
	.loc 4 3275 33
	movq	-32(%rbp), %rax
	movq	24(%rax), %rax
	.loc 4 3275 24
	movq	%rax, unsupported_device.9762(%rip)
.L566:
	.loc 4 3276 10
	movzbl	-1(%rbp), %eax
.L565:
	.loc 4 3277 1
	leave
	.cfi_def_cfa 7, 8
	ret
	.cfi_endproc
.LFE126:
	.size	has_capability_cache, .-has_capability_cache
	.type	needs_quoting, @function
needs_quoting:
.LFB127:
	.loc 4 3281 1
	.cfi_startproc
	endbr64
	pushq	%rbp
	.cfi_def_cfa_offset 16
	.cfi_offset 6, -16
	movq	%rsp, %rbp
	.cfi_def_cfa_register 6
	subq	$48, %rsp
	movq	%rdi, -40(%rbp)
	.loc 4 3281 1
	movq	%fs:40, %rax
	movq	%rax, -8(%rbp)
	xorl	%eax, %eax
	.loc 4 3283 16
	movq	filename_quoting_options(%rip), %rcx
	movq	-40(%rbp), %rdx
	leaq	-10(%rbp), %rax
	movq	%rcx, %r8
	movq	$-1, %rcx
	movl	$2, %esi
	movq	%rax, %rdi
	call	quotearg_buffer@PLT
	movq	%rax, -24(%rbp)
	.loc 4 3285 10
	movq	-40(%rbp), %rax
	movzbl	(%rax), %edx
	.loc 4 3285 16
	movzbl	-10(%rbp), %eax
	.loc 4 3285 25
	cmpb	%al, %dl
	jne	.L568
	.loc 4 3285 28 discriminator 2
	movq	-40(%rbp), %rax
	movq	%rax, %rdi
	call	strlen@PLT
	.loc 4 3285 25 discriminator 2
	cmpq	%rax, -24(%rbp)
	je	.L569
.L568:
	.loc 4 3285 25 is_stmt 0 discriminator 3
	movl	$1, %eax
	jmp	.L570
.L569:
	.loc 4 3285 25 discriminator 4
	movl	$0, %eax
.L570:
	.loc 4 3285 25 discriminator 6
	andl	$1, %eax
	.loc 4 3286 1 is_stmt 1 discriminator 6
	movq	-8(%rbp), %rsi
	xorq	%fs:40, %rsi
	je	.L572
	.loc 4 3286 1 is_stmt 0
	call	__stack_chk_fail@PLT
.L572:
	leave
	.cfi_def_cfa 7, 8
	ret
	.cfi_endproc
.LFE127:
	.size	needs_quoting, .-needs_quoting
	.section	.rodata
	.align 8
.LC201:
	.string	"! command_line_arg || inode == NOT_AN_INODE_NUMBER"
.LC202:
	.string	"cannot access %s"
.LC203:
	.string	"_"
.LC204:
	.string	"unlabeled"
	.text
	.type	gobble_file, @function
gobble_file:
.LFB128:
	.loc 4 3294 1 is_stmt 1
	.cfi_startproc
	endbr64
	pushq	%rbp
	.cfi_def_cfa_offset 16
	.cfi_offset 6, -16
	movq	%rsp, %rbp
	.cfi_def_cfa_register 6
	pushq	%rbx
	subq	$984, %rsp
	.cfi_offset 3, -24
	movq	%rdi, -968(%rbp)
	movl	%esi, -972(%rbp)
	movq	%rdx, -984(%rbp)
	movl	%ecx, %eax
	movq	%r8, -992(%rbp)
	movb	%al, -976(%rbp)
	.loc 4 3294 1
	movq	%fs:40, %rax
	movq	%rax, -24(%rbp)
	xorl	%eax, %eax
	.loc 4 3295 13
	movq	$0, -904(%rbp)
	.loc 4 3300 3
	movzbl	-976(%rbp), %eax
	xorl	$1, %eax
	testb	%al, %al
	jne	.L574
	.loc 4 3300 3 is_stmt 0 discriminator 1
	cmpq	$0, -984(%rbp)
	je	.L574
	.loc 4 3300 3 discriminator 2
	leaq	__PRETTY_FUNCTION__.9778(%rip), %rcx
	movl	$3300, %edx
	leaq	.LC133(%rip), %rsi
	leaq	.LC201(%rip), %rdi
	call	__assert_fail@PLT
.L574:
	.loc 4 3302 18 is_stmt 1
	movq	cwd_n_used(%rip), %rdx
	movq	cwd_n_alloc(%rip), %rax
	.loc 4 3302 6
	cmpq	%rax, %rdx
	jne	.L575
	.loc 4 3304 18
	movq	cwd_n_alloc(%rip), %rcx
	movq	cwd_file(%rip), %rax
	movl	$400, %edx
	movq	%rcx, %rsi
	movq	%rax, %rdi
	call	xnrealloc@PLT
	.loc 4 3304 16
	movq	%rax, cwd_file(%rip)
	.loc 4 3305 19
	movq	cwd_n_alloc(%rip), %rax
	addq	%rax, %rax
	movq	%rax, cwd_n_alloc(%rip)
.L575:
	.loc 4 3308 7
	movq	cwd_file(%rip), %rcx
	.loc 4 3308 16
	movq	cwd_n_used(%rip), %rdx
	movq	%rdx, %rax
	salq	$2, %rax
	addq	%rdx, %rax
	leaq	0(,%rax,4), %rdx
	addq	%rdx, %rax
	salq	$3, %rax
	.loc 4 3308 5
	addq	%rcx, %rax
	movq	%rax, -888(%rbp)
	.loc 4 3309 3
	movq	-888(%rbp), %rax
	movl	$200, %edx
	movl	$0, %esi
	movq	%rax, %rdi
	call	memset@PLT
	.loc 4 3310 18
	movq	-888(%rbp), %rax
	movq	-984(%rbp), %rdx
	movq	%rdx, 32(%rax)
	.loc 4 3311 15
	movq	-888(%rbp), %rax
	movl	-972(%rbp), %edx
	movl	%edx, 168(%rax)
	.loc 4 3313 13
	movq	-888(%rbp), %rax
	movl	$-1, 196(%rax)
	.loc 4 3314 8
	movzbl	cwd_some_quoted(%rip), %eax
	xorl	$1, %eax
	.loc 4 3314 6
	testb	%al, %al
	je	.L576
	.loc 4 3314 27 discriminator 1
	movzbl	align_variable_outer_quotes(%rip), %eax
	testb	%al, %al
	je	.L576
	.loc 4 3317 19
	movq	-968(%rbp), %rax
	movq	%rax, %rdi
	call	needs_quoting
	movzbl	%al, %edx
	.loc 4 3317 17
	movq	-888(%rbp), %rax
	movl	%edx, 196(%rax)
	.loc 4 3318 12
	movq	-888(%rbp), %rax
	movl	196(%rax), %eax
	.loc 4 3318 10
	testl	%eax, %eax
	je	.L576
	.loc 4 3319 25
	movb	$1, cwd_some_quoted(%rip)
.L576:
	.loc 4 3322 6
	cmpb	$0, -976(%rbp)
	jne	.L577
	.loc 4 3323 7
	movzbl	print_hyperlink(%rip), %eax
	testb	%al, %al
	jne	.L577
	.loc 4 3324 7
	movzbl	format_needs_stat(%rip), %eax
	testb	%al, %al
	jne	.L577
	.loc 4 3328 7
	cmpl	$3, -972(%rbp)
	jne	.L578
	.loc 4 3328 29 discriminator 1
	movzbl	print_with_color(%rip), %eax
	testb	%al, %al
	je	.L578
	.loc 4 3329 15
	movl	$19, %edi
	call	is_colored
	.loc 4 3329 11
	testb	%al, %al
	jne	.L577
	.loc 4 3330 18
	movl	$18, %edi
	call	is_colored
	.loc 4 3330 15
	testb	%al, %al
	jne	.L577
	.loc 4 3331 18
	movl	$20, %edi
	call	is_colored
	.loc 4 3331 15
	testb	%al, %al
	jne	.L577
.L578:
	.loc 4 3334 12
	movzbl	print_inode(%rip), %eax
	.loc 4 3334 7
	testb	%al, %al
	jne	.L579
	.loc 4 3334 24 discriminator 1
	movzbl	format_needs_type(%rip), %eax
	testb	%al, %al
	je	.L580
.L579:
	.loc 4 3335 11
	cmpl	$6, -972(%rbp)
	je	.L581
	.loc 4 3335 37 discriminator 1
	cmpl	$0, -972(%rbp)
	jne	.L580
.L581:
	.loc 4 3336 27
	movl	dereference(%rip), %eax
	.loc 4 3336 11
	cmpl	$5, %eax
	je	.L577
	.loc 4 3337 15
	movzbl	color_symlink_as_referent(%rip), %eax
	testb	%al, %al
	jne	.L577
	.loc 4 3337 44 discriminator 1
	movzbl	check_symlink_mode(%rip), %eax
	testb	%al, %al
	jne	.L577
.L580:
	.loc 4 3340 11
	movzbl	print_inode(%rip), %eax
	.loc 4 3340 7
	testb	%al, %al
	je	.L582
	.loc 4 3340 23 discriminator 1
	cmpq	$0, -984(%rbp)
	je	.L577
.L582:
	.loc 4 3341 11
	movzbl	format_needs_type(%rip), %eax
	.loc 4 3341 7
	testb	%al, %al
	je	.L583
	.loc 4 3342 11
	cmpl	$0, -972(%rbp)
	je	.L577
	.loc 4 3342 31 discriminator 1
	cmpb	$0, -976(%rbp)
	jne	.L577
	.loc 4 3346 15
	cmpl	$5, -972(%rbp)
	jne	.L583
	.loc 4 3346 54 discriminator 1
	movl	indicator_style(%rip), %eax
	.loc 4 3346 34 discriminator 1
	cmpl	$3, %eax
	je	.L577
	.loc 4 3353 42
	movzbl	print_with_color(%rip), %eax
	.loc 4 3353 38
	testb	%al, %al
	je	.L583
	.loc 4 3354 46
	movl	$14, %edi
	call	is_colored
	.loc 4 3354 42
	testb	%al, %al
	jne	.L577
	.loc 4 3355 49
	movl	$16, %edi
	call	is_colored
	.loc 4 3355 46
	testb	%al, %al
	jne	.L577
	.loc 4 3356 49
	movl	$17, %edi
	call	is_colored
	.loc 4 3356 46
	testb	%al, %al
	jne	.L577
	.loc 4 3357 49
	movl	$21, %edi
	call	is_colored
	.loc 4 3357 46
	testb	%al, %al
	je	.L583
.L577:
.LBB61:
	.loc 4 3366 15
	movq	-968(%rbp), %rax
	movzbl	(%rax), %eax
	.loc 4 3366 10
	cmpb	$47, %al
	je	.L584
	.loc 4 3366 36 discriminator 1
	movq	-992(%rbp), %rax
	movzbl	(%rax), %eax
	.loc 4 3366 26 discriminator 1
	testb	%al, %al
	jne	.L585
.L584:
	.loc 4 3367 19
	movq	-968(%rbp), %rax
	movq	%rax, -896(%rbp)
	jmp	.L586
.L585:
	.loc 4 3370 31
	movq	-968(%rbp), %rax
	movq	%rax, %rdi
	call	strlen@PLT
	movq	%rax, %rbx
	.loc 4 3370 47
	movq	-992(%rbp), %rax
	movq	%rax, %rdi
	call	strlen@PLT
	.loc 4 3370 45
	addq	%rbx, %rax
	.loc 4 3370 23
	addq	$2, %rax
	leaq	8(%rax), %rdx
	movl	$16, %eax
	subq	$1, %rax
	addq	%rdx, %rax
	movl	$16, %ebx
	movl	$0, %edx
	divq	%rbx
	imulq	$16, %rax, %rax
	movq	%rax, %rdx
	andq	$-4096, %rdx
	movq	%rsp, %rbx
	subq	%rdx, %rbx
	movq	%rbx, %rdx
.L587:
	cmpq	%rdx, %rsp
	je	.L588
	subq	$4096, %rsp
	orq	$0, 4088(%rsp)
	jmp	.L587
.L588:
	movq	%rax, %rdx
	andl	$4095, %edx
	subq	%rdx, %rsp
	movq	%rax, %rdx
	andl	$4095, %edx
	testq	%rdx, %rdx
	je	.L589
	andl	$4095, %eax
	subq	$8, %rax
	addq	%rsp, %rax
	orq	$0, (%rax)
.L589:
	movq	%rsp, %rax
	addq	$15, %rax
	shrq	$4, %rax
	salq	$4, %rax
	movq	%rax, -896(%rbp)
	.loc 4 3371 11
	movq	-968(%rbp), %rdx
	movq	-992(%rbp), %rcx
	movq	-896(%rbp), %rax
	movq	%rcx, %rsi
	movq	%rax, %rdi
	call	attach
.L586:
	.loc 4 3374 11
	movzbl	print_hyperlink(%rip), %eax
	.loc 4 3374 10
	testb	%al, %al
	je	.L590
	.loc 4 3376 30
	movq	-896(%rbp), %rax
	movl	$2, %esi
	movq	%rax, %rdi
	call	canonicalize_filename_mode@PLT
	.loc 4 3376 28
	movq	-888(%rbp), %rdx
	movq	%rax, 16(%rdx)
	.loc 4 3378 18
	movq	-888(%rbp), %rax
	movq	16(%rax), %rax
	.loc 4 3378 14
	testq	%rax, %rax
	jne	.L590
	.loc 4 3380 27
	leaq	.LC196(%rip), %rdi
	call	gettext@PLT
	movq	%rax, %rcx
	.loc 4 3379 13
	movzbl	-976(%rbp), %eax
	movq	-896(%rbp), %rdx
	movq	%rcx, %rsi
	movl	%eax, %edi
	call	file_failure
.L590:
	.loc 4 3383 7
	movl	dereference(%rip), %eax
	cmpl	$4, %eax
	ja	.L591
	cmpl	$3, %eax
	jnb	.L592
	jmp	.L593
.L591:
	cmpl	$5, %eax
	jne	.L593
	.loc 4 3386 17
	movq	-888(%rbp), %rax
	leaq	24(%rax), %rdx
	movq	-896(%rbp), %rax
	movq	%rdx, %rsi
	movq	%rax, %rdi
	call	do_stat
	movl	%eax, -952(%rbp)
	.loc 4 3387 20
	movb	$1, -956(%rbp)
	.loc 4 3388 11
	jmp	.L594
.L592:
	.loc 4 3392 14
	cmpb	$0, -976(%rbp)
	je	.L593
.LBB62:
	.loc 4 3395 21
	movq	-888(%rbp), %rax
	leaq	24(%rax), %rdx
	movq	-896(%rbp), %rax
	movq	%rdx, %rsi
	movq	%rax, %rdi
	call	do_stat
	movl	%eax, -952(%rbp)
	.loc 4 3396 24
	movb	$1, -956(%rbp)
	.loc 4 3398 31
	movl	dereference(%rip), %eax
	.loc 4 3398 18
	cmpl	$3, %eax
	je	.L643
	.loc 4 3403 29
	cmpl	$0, -952(%rbp)
	jns	.L596
	.loc 4 3402 31 discriminator 1
	call	__errno_location@PLT
	movl	(%rax), %eax
	.loc 4 3403 29 discriminator 1
	cmpl	$2, %eax
	sete	%al
	jmp	.L597
.L596:
	.loc 4 3403 33 discriminator 2
	movq	-888(%rbp), %rax
	movl	48(%rax), %eax
	andl	$61440, %eax
	.loc 4 3403 29 discriminator 2
	cmpl	$16384, %eax
	setne	%al
.L597:
	.loc 4 3401 26
	movb	%al, -953(%rbp)
	.loc 4 3404 19
	movzbl	-953(%rbp), %eax
	xorl	$1, %eax
	.loc 4 3404 18
	testb	%al, %al
	jne	.L644
.L593:
.LBE62:
	.loc 4 3415 17
	movq	-888(%rbp), %rax
	leaq	24(%rax), %rdx
	movq	-896(%rbp), %rax
	movq	%rdx, %rsi
	movq	%rax, %rdi
	call	do_lstat
	movl	%eax, -952(%rbp)
	.loc 4 3416 20
	movb	$0, -956(%rbp)
	.loc 4 3417 11
	jmp	.L594
.L643:
.LBB63:
	.loc 4 3399 17
	nop
	jmp	.L594
.L644:
	.loc 4 3405 17
	nop
.L594:
.LBE63:
	.loc 4 3420 10
	cmpl	$0, -952(%rbp)
	je	.L598
	.loc 4 3426 25
	leaq	.LC202(%rip), %rdi
	call	gettext@PLT
	movq	%rax, %rcx
	.loc 4 3425 11
	movzbl	-976(%rbp), %eax
	movq	-896(%rbp), %rdx
	movq	%rcx, %rsi
	movl	%eax, %edi
	call	file_failure
	.loc 4 3428 23
	movq	-888(%rbp), %rax
	leaq	UNKNOWN_SECURITY_CONTEXT(%rip), %rdx
	movq	%rdx, 176(%rax)
	.loc 4 3430 14
	cmpb	$0, -976(%rbp)
	je	.L599
	.loc 4 3431 20
	movl	$0, %eax
	jmp	.L600
.L599:
	.loc 4 3433 21
	movq	-968(%rbp), %rax
	movq	%rax, %rdi
	call	xstrdup@PLT
	movq	%rax, %rdx
	.loc 4 3433 19
	movq	-888(%rbp), %rax
	movq	%rdx, (%rax)
	.loc 4 3434 21
	movq	cwd_n_used(%rip), %rax
	addq	$1, %rax
	movq	%rax, cwd_n_used(%rip)
	.loc 4 3436 18
	movl	$0, %eax
	jmp	.L600
.L598:
	.loc 4 3439 18
	movq	-888(%rbp), %rax
	movb	$1, 184(%rax)
	.loc 4 3442 10
	cmpl	$5, -972(%rbp)
	je	.L601
	.loc 4 3442 30 discriminator 1
	movq	-888(%rbp), %rax
	movl	48(%rax), %eax
	andl	$61440, %eax
	.loc 4 3442 27 discriminator 1
	cmpl	$32768, %eax
	jne	.L602
.L601:
	.loc 4 3443 11
	movzbl	print_with_color(%rip), %eax
	testb	%al, %al
	je	.L602
	.loc 4 3443 34 discriminator 1
	movl	$21, %edi
	call	is_colored
	.loc 4 3443 31 discriminator 1
	testb	%al, %al
	je	.L602
	.loc 4 3444 29
	movq	-888(%rbp), %rdx
	movq	-896(%rbp), %rax
	movq	%rdx, %rsi
	movq	%rax, %rdi
	call	has_capability_cache
	.loc 4 3444 27
	movq	-888(%rbp), %rdx
	movb	%al, 192(%rdx)
.L602:
	.loc 4 3446 18
	movl	format(%rip), %eax
	.loc 4 3446 10
	testl	%eax, %eax
	je	.L603
	.loc 4 3446 33 discriminator 1
	movzbl	print_scontext(%rip), %eax
	testb	%al, %al
	je	.L604
.L603:
.LBB64:
	.loc 4 3448 16
	movb	$0, -955(%rbp)
	.loc 4 3449 16
	movb	$0, -954(%rbp)
	.loc 4 3450 26
	movzbl	-956(%rbp), %edx
	movq	-888(%rbp), %rcx
	movq	-896(%rbp), %rax
	movq	%rcx, %rsi
	movq	%rax, %rdi
	call	getfilecon_cache
	movl	%eax, -948(%rbp)
	.loc 4 3451 27
	movl	-948(%rbp), %eax
	shrl	$31, %eax
	.loc 4 3451 15
	movzbl	%al, %eax
	movl	%eax, -952(%rbp)
	.loc 4 3453 14
	cmpl	$0, -952(%rbp)
	jne	.L605
	.loc 4 3455 19
	call	is_smack_enabled
	.loc 4 3455 18
	testb	%al, %al
	je	.L606
	.loc 4 3456 35
	movq	-888(%rbp), %rax
	movq	176(%rax), %rax
	movq	%rax, %rsi
	leaq	.LC203(%rip), %rdi
	call	strcmp@PLT
	.loc 4 3456 31
	testl	%eax, %eax
	setne	%al
	movb	%al, -955(%rbp)
	jmp	.L607
.L606:
	.loc 4 3458 35
	movq	-888(%rbp), %rax
	movq	176(%rax), %rax
	movq	%rax, %rsi
	leaq	.LC204(%rip), %rdi
	call	strcmp@PLT
	.loc 4 3458 31
	testl	%eax, %eax
	setne	%al
	movb	%al, -955(%rbp)
	jmp	.L607
.L605:
	.loc 4 3462 27
	movq	-888(%rbp), %rax
	leaq	UNKNOWN_SECURITY_CONTEXT(%rip), %rdx
	movq	%rdx, 176(%rax)
	.loc 4 3468 31
	call	__errno_location@PLT
	.loc 4 3468 19
	movl	(%rax), %eax
	movl	%eax, %edi
	call	is_ENOTSUP
	.loc 4 3468 18
	testb	%al, %al
	jne	.L608
	.loc 4 3468 41 discriminator 1
	call	__errno_location@PLT
	movl	(%rax), %eax
	.loc 4 3468 38 discriminator 1
	cmpl	$61, %eax
	jne	.L607
.L608:
	.loc 4 3469 21
	movl	$0, -952(%rbp)
.L607:
	.loc 4 3472 14
	cmpl	$0, -952(%rbp)
	jne	.L609
	.loc 4 3472 34 discriminator 1
	movl	format(%rip), %eax
	.loc 4 3472 24 discriminator 1
	testl	%eax, %eax
	jne	.L609
.LBB65:
	.loc 4 3474 23
	movq	-888(%rbp), %rdx
	movq	-896(%rbp), %rax
	movq	%rdx, %rsi
	movq	%rax, %rdi
	call	file_has_acl_cache
	movl	%eax, -944(%rbp)
	.loc 4 3475 24
	movl	-944(%rbp), %eax
	shrl	$31, %eax
	.loc 4 3475 19
	movzbl	%al, %eax
	movl	%eax, -952(%rbp)
	.loc 4 3476 24
	cmpl	$0, -944(%rbp)
	setg	%al
	movb	%al, -954(%rbp)
.L609:
.LBE65:
	.loc 4 3481 26
	cmpb	$0, -955(%rbp)
	jne	.L610
	.loc 4 3479 41
	cmpb	$0, -954(%rbp)
	je	.L611
.L610:
	.loc 4 3481 26 discriminator 1
	cmpb	$0, -955(%rbp)
	je	.L612
	.loc 4 3481 46 discriminator 2
	movzbl	-954(%rbp), %eax
	xorl	$1, %eax
	.loc 4 3481 43 discriminator 2
	testb	%al, %al
	je	.L612
	.loc 4 3481 26 discriminator 4
	movl	$1, %eax
	jmp	.L614
.L612:
	.loc 4 3481 26 is_stmt 0 discriminator 5
	movl	$2, %eax
	jmp	.L614
.L611:
	.loc 4 3481 26
	movl	$0, %eax
.L614:
	.loc 4 3479 23 is_stmt 1
	movq	-888(%rbp), %rdx
	movl	%eax, 188(%rdx)
	.loc 4 3484 23
	movzbl	any_has_acl(%rip), %eax
	movzbl	%al, %edx
	.loc 4 3484 27
	movq	-888(%rbp), %rax
	movl	188(%rax), %eax
	.loc 4 3484 38
	testl	%eax, %eax
	setne	%al
	movzbl	%al, %eax
	.loc 4 3484 23
	orl	%edx, %eax
	testl	%eax, %eax
	setne	%al
	movb	%al, any_has_acl(%rip)
	.loc 4 3486 14
	cmpl	$0, -952(%rbp)
	je	.L604
	.loc 4 3487 13
	movq	-896(%rbp), %rax
	movq	%rax, %rdx
	movl	$3, %esi
	movl	$0, %edi
	call	quotearg_n_style_colon@PLT
	movq	%rax, %rbx
	.loc 4 3487 23
	call	__errno_location@PLT
	.loc 4 3487 13
	movl	(%rax), %eax
	movq	%rbx, %rcx
	leaq	.LC136(%rip), %rdx
	movl	%eax, %esi
	movl	$0, %edi
	movl	$0, %eax
	call	error@PLT
.L604:
.LBE64:
	.loc 4 3490 11
	movq	-888(%rbp), %rax
	movl	48(%rax), %eax
	andl	$61440, %eax
	.loc 4 3490 10
	cmpl	$40960, %eax
	jne	.L615
	.loc 4 3491 22
	movl	format(%rip), %eax
	.loc 4 3491 11
	testl	%eax, %eax
	je	.L616
	.loc 4 3491 37 discriminator 1
	movzbl	check_symlink_mode(%rip), %eax
	testb	%al, %al
	je	.L615
.L616:
.LBB66:
	.loc 4 3495 11
	movzbl	-976(%rbp), %edx
	movq	-888(%rbp), %rcx
	movq	-896(%rbp), %rax
	movq	%rcx, %rsi
	movq	%rax, %rdi
	call	get_link_name
	.loc 4 3496 56
	movq	-888(%rbp), %rax
	movq	8(%rax), %rdx
	.loc 4 3496 28
	movq	-896(%rbp), %rax
	movq	%rdx, %rsi
	movq	%rax, %rdi
	call	make_link_name
	movq	%rax, -880(%rbp)
	.loc 4 3500 14
	cmpq	$0, -880(%rbp)
	je	.L617
	.loc 4 3500 28 discriminator 1
	movq	-888(%rbp), %rax
	movl	196(%rax), %eax
	.loc 4 3500 24 discriminator 1
	testl	%eax, %eax
	jne	.L617
	.loc 4 3500 61 discriminator 2
	movq	-888(%rbp), %rax
	movq	8(%rax), %rax
	.loc 4 3500 45 discriminator 2
	movq	%rax, %rdi
	call	needs_quoting
	.loc 4 3500 42 discriminator 2
	testb	%al, %al
	je	.L617
	.loc 4 3501 23
	movq	-888(%rbp), %rax
	movl	$-1, 196(%rax)
.L617:
	.loc 4 3505 14
	cmpq	$0, -880(%rbp)
	je	.L618
	.loc 4 3506 29
	movl	indicator_style(%rip), %eax
	.loc 4 3506 15
	cmpl	$1, %eax
	ja	.L619
	.loc 4 3506 48 discriminator 1
	movzbl	check_symlink_mode(%rip), %eax
	testb	%al, %al
	je	.L618
.L619:
	.loc 4 3507 18
	leaq	-864(%rbp), %rdx
	movq	-880(%rbp), %rax
	movq	%rdx, %rsi
	movq	%rax, %rdi
	call	stat_for_mode
	.loc 4 3507 15
	testl	%eax, %eax
	jne	.L618
	.loc 4 3509 25
	movq	-888(%rbp), %rax
	movb	$1, 185(%rax)
	.loc 4 3510 38
	movl	-840(%rbp), %edx
	.loc 4 3510 27
	movq	-888(%rbp), %rax
	movl	%edx, 172(%rax)
.L618:
	.loc 4 3512 11
	movq	-880(%rbp), %rax
	movq	%rax, %rdi
	call	free@PLT
.L615:
.LBE66:
	.loc 4 3515 11
	movq	-888(%rbp), %rax
	movl	48(%rax), %eax
	andl	$61440, %eax
	.loc 4 3515 10
	cmpl	$40960, %eax
	jne	.L620
	.loc 4 3516 21
	movq	-888(%rbp), %rax
	movl	$6, 168(%rax)
	jmp	.L621
.L620:
	.loc 4 3517 16
	movq	-888(%rbp), %rax
	movl	48(%rax), %eax
	andl	$61440, %eax
	.loc 4 3517 15
	cmpl	$16384, %eax
	jne	.L622
	.loc 4 3519 14
	cmpb	$0, -976(%rbp)
	je	.L623
	.loc 4 3519 35 discriminator 1
	movzbl	immediate_dirs(%rip), %eax
	xorl	$1, %eax
	.loc 4 3519 32 discriminator 1
	testb	%al, %al
	je	.L623
	.loc 4 3520 25
	movq	-888(%rbp), %rax
	movl	$9, 168(%rax)
	jmp	.L621
.L623:
	.loc 4 3522 25
	movq	-888(%rbp), %rax
	movl	$3, 168(%rax)
	jmp	.L621
.L622:
	.loc 4 3525 21
	movq	-888(%rbp), %rax
	movl	$5, 168(%rax)
.L621:
	.loc 4 3527 16
	movq	-888(%rbp), %rax
	movq	88(%rax), %rax
	.loc 4 3527 14
	movq	%rax, -904(%rbp)
	.loc 4 3528 18
	movl	format(%rip), %eax
	.loc 4 3528 10
	testl	%eax, %eax
	je	.L625
	.loc 4 3528 33 discriminator 1
	movzbl	print_block_size(%rip), %eax
	testb	%al, %al
	je	.L626
.L625:
.LBB67:
	.loc 4 3531 21
	movq	output_block_size(%rip), %rcx
	movl	human_output_opts(%rip), %edx
	.loc 4 3531 31
	leaq	-688(%rbp), %rsi
	movq	-904(%rbp), %rax
	movq	%rcx, %r8
	movl	$512, %ecx
	movq	%rax, %rdi
	call	human_readable@PLT
	.loc 4 3531 21
	movl	$0, %esi
	movq	%rax, %rdi
	call	gnu_mbswidth@PLT
	movl	%eax, -940(%rbp)
	.loc 4 3534 32
	movl	block_size_width(%rip), %eax
	.loc 4 3534 14
	cmpl	%eax, -940(%rbp)
	jle	.L626
	.loc 4 3535 30
	movl	-940(%rbp), %eax
	movl	%eax, block_size_width(%rip)
.L626:
.LBE67:
	.loc 4 3538 18
	movl	format(%rip), %eax
	.loc 4 3538 10
	testl	%eax, %eax
	jne	.L628
	.loc 4 3540 15
	movzbl	print_owner(%rip), %eax
	.loc 4 3540 14
	testb	%al, %al
	je	.L629
.LBB68:
	.loc 4 3542 25
	movq	-888(%rbp), %rax
	movl	52(%rax), %eax
	movl	%eax, %edi
	call	format_user_width
	movl	%eax, -936(%rbp)
	.loc 4 3543 31
	movl	owner_width(%rip), %eax
	.loc 4 3543 18
	cmpl	%eax, -936(%rbp)
	jle	.L629
	.loc 4 3544 29
	movl	-936(%rbp), %eax
	movl	%eax, owner_width(%rip)
.L629:
.LBE68:
	.loc 4 3547 15
	movzbl	print_group(%rip), %eax
	.loc 4 3547 14
	testb	%al, %al
	je	.L630
.LBB69:
	.loc 4 3549 25
	movq	-888(%rbp), %rax
	movl	56(%rax), %eax
	movl	%eax, %edi
	call	format_group_width
	movl	%eax, -932(%rbp)
	.loc 4 3550 31
	movl	group_width(%rip), %eax
	.loc 4 3550 18
	cmpl	%eax, -932(%rbp)
	jle	.L630
	.loc 4 3551 29
	movl	-932(%rbp), %eax
	movl	%eax, group_width(%rip)
.L630:
.LBE69:
	.loc 4 3554 15
	movzbl	print_author(%rip), %eax
	.loc 4 3554 14
	testb	%al, %al
	je	.L628
.LBB70:
	.loc 4 3556 25
	movq	-888(%rbp), %rax
	movl	52(%rax), %eax
	movl	%eax, %edi
	call	format_user_width
	movl	%eax, -928(%rbp)
	.loc 4 3557 32
	movl	author_width(%rip), %eax
	.loc 4 3557 18
	cmpl	%eax, -928(%rbp)
	jle	.L628
	.loc 4 3558 30
	movl	-928(%rbp), %eax
	movl	%eax, author_width(%rip)
.L628:
.LBE70:
	.loc 4 3562 11
	movzbl	print_scontext(%rip), %eax
	.loc 4 3562 10
	testb	%al, %al
	je	.L631
.LBB71:
	.loc 4 3564 30
	movq	-888(%rbp), %rax
	movq	176(%rax), %rax
	.loc 4 3564 21
	movq	%rax, %rdi
	call	strlen@PLT
	.loc 4 3564 15
	movl	%eax, -924(%rbp)
	.loc 4 3565 30
	movl	scontext_width(%rip), %eax
	.loc 4 3565 14
	cmpl	%eax, -924(%rbp)
	jle	.L631
	.loc 4 3566 28
	movl	-924(%rbp), %eax
	movl	%eax, scontext_width(%rip)
.L631:
.LBE71:
	.loc 4 3569 18
	movl	format(%rip), %eax
	.loc 4 3569 10
	testl	%eax, %eax
	jne	.L583
.LBB72:
	.loc 4 3572 31
	movq	-888(%rbp), %rax
	movq	40(%rax), %rax
	leaq	-720(%rbp), %rdx
	movq	%rdx, %rsi
	movq	%rax, %rdi
	call	umaxtostr@PLT
	.loc 4 3572 23
	movq	%rax, %rdi
	call	strlen@PLT
	.loc 4 3572 15
	movl	%eax, -920(%rbp)
	.loc 4 3573 27
	movl	nlink_width(%rip), %eax
	.loc 4 3573 14
	cmpl	%eax, -920(%rbp)
	jle	.L632
	.loc 4 3574 25
	movl	-920(%rbp), %eax
	movl	%eax, nlink_width(%rip)
.L632:
	.loc 4 3576 15
	movq	-888(%rbp), %rax
	movl	48(%rax), %eax
	andl	$61440, %eax
	.loc 4 3576 14
	cmpl	$8192, %eax
	je	.L633
	.loc 4 3576 44 discriminator 1
	movq	-888(%rbp), %rax
	movl	48(%rax), %eax
	andl	$61440, %eax
	.loc 4 3576 41 discriminator 1
	cmpl	$24576, %eax
	jne	.L634
.L633:
.LBB73:
	.loc 4 3579 44
	movq	-888(%rbp), %rax
	movq	64(%rax), %rax
	movq	%rax, %rdi
	call	gnu_dev_major@PLT
	.loc 4 3579 33
	movl	%eax, %edx
	leaq	-688(%rbp), %rax
	movq	%rax, %rsi
	movq	%rdx, %rdi
	call	umaxtostr@PLT
	.loc 4 3579 25
	movq	%rax, %rdi
	call	strlen@PLT
	.loc 4 3579 19
	movl	%eax, -912(%rbp)
	.loc 4 3580 45
	movl	major_device_number_width(%rip), %eax
	.loc 4 3580 18
	cmpl	%eax, -912(%rbp)
	jle	.L635
	.loc 4 3581 43
	movl	-912(%rbp), %eax
	movl	%eax, major_device_number_width(%rip)
.L635:
	.loc 4 3582 40
	movq	-888(%rbp), %rax
	movq	64(%rax), %rax
	movq	%rax, %rdi
	call	gnu_dev_minor@PLT
	.loc 4 3582 29
	movl	%eax, %edx
	leaq	-688(%rbp), %rax
	movq	%rax, %rsi
	movq	%rdx, %rdi
	call	umaxtostr@PLT
	.loc 4 3582 21
	movq	%rax, %rdi
	call	strlen@PLT
	.loc 4 3582 19
	movl	%eax, -912(%rbp)
	.loc 4 3583 45
	movl	minor_device_number_width(%rip), %eax
	.loc 4 3583 18
	cmpl	%eax, -912(%rbp)
	jle	.L636
	.loc 4 3584 43
	movl	-912(%rbp), %eax
	movl	%eax, minor_device_number_width(%rip)
.L636:
	.loc 4 3585 47
	movl	major_device_number_width(%rip), %eax
	leal	2(%rax), %edx
	.loc 4 3585 51
	movl	minor_device_number_width(%rip), %eax
	.loc 4 3585 19
	addl	%edx, %eax
	movl	%eax, -912(%rbp)
	.loc 4 3586 35
	movl	file_size_width(%rip), %eax
	.loc 4 3586 18
	cmpl	%eax, -912(%rbp)
	jle	.L645
	.loc 4 3587 33
	movl	-912(%rbp), %eax
	movl	%eax, file_size_width(%rip)
.LBE73:
	.loc 4 3577 13
	jmp	.L645
.L634:
.LBB74:
	.loc 4 3592 32
	movq	-888(%rbp), %rax
	movq	72(%rax), %rax
	movq	%rax, %rdi
	call	unsigned_file_size
	movq	%rax, -872(%rbp)
	.loc 4 3593 25
	movq	file_output_block_size(%rip), %rcx
	movl	file_human_output_opts(%rip), %edx
	.loc 4 3593 35
	leaq	-688(%rbp), %rsi
	movq	-872(%rbp), %rax
	movq	%rcx, %r8
	movl	$1, %ecx
	movq	%rax, %rdi
	call	human_readable@PLT
	.loc 4 3593 25
	movl	$0, %esi
	movq	%rax, %rdi
	call	gnu_mbswidth@PLT
	movl	%eax, -916(%rbp)
	.loc 4 3597 35
	movl	file_size_width(%rip), %eax
	.loc 4 3597 18
	cmpl	%eax, -916(%rbp)
	jle	.L583
	.loc 4 3598 33
	movl	-916(%rbp), %eax
	movl	%eax, file_size_width(%rip)
	jmp	.L583
.L645:
.LBE74:
	.loc 4 3577 13
	nop
.L583:
.LBE72:
.LBE61:
	.loc 4 3603 7
	movzbl	print_inode(%rip), %eax
	.loc 4 3603 6
	testb	%al, %al
	je	.L640
.LBB75:
	.loc 4 3606 25
	movq	-888(%rbp), %rax
	movq	32(%rax), %rax
	leaq	-688(%rbp), %rdx
	movq	%rdx, %rsi
	movq	%rax, %rdi
	call	umaxtostr@PLT
	.loc 4 3606 17
	movq	%rax, %rdi
	call	strlen@PLT
	.loc 4 3606 11
	movl	%eax, -908(%rbp)
	.loc 4 3607 30
	movl	inode_number_width(%rip), %eax
	.loc 4 3607 10
	cmpl	%eax, -908(%rbp)
	jle	.L640
	.loc 4 3608 28
	movl	-908(%rbp), %eax
	movl	%eax, inode_number_width(%rip)
.L640:
.LBE75:
	.loc 4 3611 13
	movq	-968(%rbp), %rax
	movq	%rax, %rdi
	call	xstrdup@PLT
	movq	%rax, %rdx
	.loc 4 3611 11
	movq	-888(%rbp), %rax
	movq	%rdx, (%rax)
	.loc 4 3612 13
	movq	cwd_n_used(%rip), %rax
	addq	$1, %rax
	movq	%rax, cwd_n_used(%rip)
	.loc 4 3614 10
	movq	-904(%rbp), %rax
.L600:
	.loc 4 3615 1
	movq	-24(%rbp), %rbx
	xorq	%fs:40, %rbx
	je	.L642
	call	__stack_chk_fail@PLT
.L642:
	movq	-8(%rbp), %rbx
	leave
	.cfi_def_cfa 7, 8
	ret
	.cfi_endproc
.LFE128:
	.size	gobble_file, .-gobble_file
	.type	is_directory, @function
is_directory:
.LFB129:
	.loc 4 3620 1
	.cfi_startproc
	endbr64
	pushq	%rbp
	.cfi_def_cfa_offset 16
	.cfi_offset 6, -16
	movq	%rsp, %rbp
	.cfi_def_cfa_register 6
	movq	%rdi, -8(%rbp)
	.loc 4 3621 11
	movq	-8(%rbp), %rax
	movl	168(%rax), %eax
	.loc 4 3621 35
	cmpl	$3, %eax
	je	.L647
	.loc 4 3621 39 discriminator 2
	movq	-8(%rbp), %rax
	movl	168(%rax), %eax
	.loc 4 3621 35 discriminator 2
	cmpl	$9, %eax
	jne	.L648
.L647:
	.loc 4 3621 35 is_stmt 0 discriminator 3
	movl	$1, %eax
	jmp	.L649
.L648:
	.loc 4 3621 35 discriminator 4
	movl	$0, %eax
.L649:
	.loc 4 3621 35 discriminator 6
	andl	$1, %eax
	.loc 4 3622 1 is_stmt 1 discriminator 6
	popq	%rbp
	.cfi_def_cfa 7, 8
	ret
	.cfi_endproc
.LFE129:
	.size	is_directory, .-is_directory
	.type	is_linked_directory, @function
is_linked_directory:
.LFB130:
	.loc 4 3627 1
	.cfi_startproc
	endbr64
	pushq	%rbp
	.cfi_def_cfa_offset 16
	.cfi_offset 6, -16
	movq	%rsp, %rbp
	.cfi_def_cfa_register 6
	movq	%rdi, -8(%rbp)
	.loc 4 3628 11
	movq	-8(%rbp), %rax
	movl	168(%rax), %eax
	.loc 4 3629 10
	cmpl	$3, %eax
	je	.L652
	.loc 4 3628 39
	movq	-8(%rbp), %rax
	movl	168(%rax), %eax
	.loc 4 3628 35
	cmpl	$9, %eax
	je	.L652
	.loc 4 3629 13 discriminator 2
	movq	-8(%rbp), %rax
	movl	172(%rax), %eax
	andl	$61440, %eax
	.loc 4 3629 10 discriminator 2
	cmpl	$16384, %eax
	jne	.L653
.L652:
	.loc 4 3629 10 is_stmt 0 discriminator 1
	movl	$1, %eax
	jmp	.L654
.L653:
	.loc 4 3629 10 discriminator 3
	movl	$0, %eax
.L654:
	.loc 4 3629 10 discriminator 5
	andl	$1, %eax
	.loc 4 3630 1 is_stmt 1 discriminator 5
	popq	%rbp
	.cfi_def_cfa 7, 8
	ret
	.cfi_endproc
.LFE130:
	.size	is_linked_directory, .-is_linked_directory
	.section	.rodata
.LC205:
	.string	"cannot read symbolic link %s"
	.text
	.type	get_link_name, @function
get_link_name:
.LFB131:
	.loc 4 3638 1
	.cfi_startproc
	endbr64
	pushq	%rbp
	.cfi_def_cfa_offset 16
	.cfi_offset 6, -16
	movq	%rsp, %rbp
	.cfi_def_cfa_register 6
	subq	$32, %rsp
	movq	%rdi, -8(%rbp)
	movq	%rsi, -16(%rbp)
	movl	%edx, %eax
	movb	%al, -20(%rbp)
	.loc 4 3639 55
	movq	-16(%rbp), %rax
	movq	72(%rax), %rax
	.loc 4 3639 17
	movq	%rax, %rdx
	movq	-8(%rbp), %rax
	movq	%rdx, %rsi
	movq	%rax, %rdi
	call	areadlink_with_size@PLT
	.loc 4 3639 15
	movq	-16(%rbp), %rdx
	movq	%rax, 8(%rdx)
	.loc 4 3640 8
	movq	-16(%rbp), %rax
	movq	8(%rax), %rax
	.loc 4 3640 6
	testq	%rax, %rax
	jne	.L658
	.loc 4 3641 37
	leaq	.LC205(%rip), %rdi
	call	gettext@PLT
	movq	%rax, %rcx
	.loc 4 3641 5
	movzbl	-20(%rbp), %eax
	movq	-8(%rbp), %rdx
	movq	%rcx, %rsi
	movl	%eax, %edi
	call	file_failure
.L658:
	.loc 4 3643 1
	nop
	leave
	.cfi_def_cfa 7, 8
	ret
	.cfi_endproc
.LFE131:
	.size	get_link_name, .-get_link_name
	.type	make_link_name, @function
make_link_name:
.LFB132:
	.loc 4 3652 1
	.cfi_startproc
	endbr64
	pushq	%rbp
	.cfi_def_cfa_offset 16
	.cfi_offset 6, -16
	movq	%rsp, %rbp
	.cfi_def_cfa_register 6
	subq	$32, %rsp
	movq	%rdi, -24(%rbp)
	movq	%rsi, -32(%rbp)
	.loc 4 3653 6
	cmpq	$0, -32(%rbp)
	jne	.L660
	.loc 4 3654 12
	movl	$0, %eax
	jmp	.L661
.L660:
	.loc 4 3656 7
	movq	-32(%rbp), %rax
	movzbl	(%rax), %eax
	.loc 4 3656 6
	cmpb	$47, %al
	jne	.L662
	.loc 4 3657 12
	movq	-32(%rbp), %rax
	movq	%rax, %rdi
	call	xstrdup@PLT
	jmp	.L661
.L662:
	.loc 4 3661 23
	movq	-24(%rbp), %rax
	movq	%rax, %rdi
	call	dir_len@PLT
	movq	%rax, -16(%rbp)
	.loc 4 3662 6
	cmpq	$0, -16(%rbp)
	jne	.L663
	.loc 4 3663 12
	movq	-32(%rbp), %rax
	movq	%rax, %rdi
	call	xstrdup@PLT
	jmp	.L661
.L663:
	.loc 4 3665 39
	movq	-32(%rbp), %rax
	movq	%rax, %rdi
	call	strlen@PLT
	.loc 4 3665 37
	movq	-16(%rbp), %rdx
	addq	%rdx, %rax
	.loc 4 3665 13
	addq	$2, %rax
	movq	%rax, %rdi
	call	xmalloc@PLT
	movq	%rax, -8(%rbp)
	.loc 4 3670 10
	movq	-16(%rbp), %rax
	leaq	-1(%rax), %rdx
	movq	-24(%rbp), %rax
	addq	%rdx, %rax
	movzbl	(%rax), %eax
	.loc 4 3670 6
	cmpb	$47, %al
	je	.L664
	.loc 4 3671 5
	addq	$1, -16(%rbp)
.L664:
	.loc 4 3673 3
	movq	-16(%rbp), %rdx
	movq	-24(%rbp), %rcx
	movq	-8(%rbp), %rax
	movq	%rcx, %rsi
	movq	%rax, %rdi
	call	stpncpy@PLT
	movq	%rax, %rdx
	movq	-32(%rbp), %rax
	movq	%rax, %rsi
	movq	%rdx, %rdi
	call	strcpy@PLT
	.loc 4 3674 10
	movq	-8(%rbp), %rax
.L661:
	.loc 4 3675 1
	leave
	.cfi_def_cfa 7, 8
	ret
	.cfi_endproc
.LFE132:
	.size	make_link_name, .-make_link_name
	.type	basename_is_dot_or_dotdot, @function
basename_is_dot_or_dotdot:
.LFB133:
	.loc 4 3682 1
	.cfi_startproc
	endbr64
	pushq	%rbp
	.cfi_def_cfa_offset 16
	.cfi_offset 6, -16
	movq	%rsp, %rbp
	.cfi_def_cfa_register 6
	subq	$32, %rsp
	movq	%rdi, -24(%rbp)
	.loc 4 3683 22
	movq	-24(%rbp), %rax
	movq	%rax, %rdi
	call	last_component@PLT
	movq	%rax, -8(%rbp)
	.loc 4 3684 10
	movq	-8(%rbp), %rax
	movq	%rax, %rdi
	call	dot_or_dotdot
	.loc 4 3685 1
	leave
	.cfi_def_cfa 7, 8
	ret
	.cfi_endproc
.LFE133:
	.size	basename_is_dot_or_dotdot, .-basename_is_dot_or_dotdot
	.type	extract_dirs_from_files, @function
extract_dirs_from_files:
.LFB134:
	.loc 4 3697 1
	.cfi_startproc
	endbr64
	pushq	%rbp
	.cfi_def_cfa_offset 16
	.cfi_offset 6, -16
	movq	%rsp, %rbp
	.cfi_def_cfa_register 6
	subq	$64, %rsp
	movq	%rdi, -56(%rbp)
	movl	%esi, %eax
	movb	%al, -60(%rbp)
	.loc 4 3700 8
	cmpq	$0, -56(%rbp)
	setne	%al
	movb	%al, -41(%rbp)
	.loc 4 3702 6
	cmpq	$0, -56(%rbp)
	je	.L668
	.loc 4 3702 18 discriminator 1
	movq	active_dir_set(%rip), %rax
	.loc 4 3702 15 discriminator 1
	testq	%rax, %rax
	je	.L668
	.loc 4 3707 7
	movq	-56(%rbp), %rax
	movl	$0, %edx
	movq	%rax, %rsi
	movl	$0, %edi
	call	queue_directory
.L668:
	.loc 4 3712 10
	movq	cwd_n_used(%rip), %rax
	movq	%rax, -40(%rbp)
	.loc 4 3712 3
	jmp	.L669
.L674:
.LBB76:
	.loc 4 3714 39
	movq	sorted_file(%rip), %rax
	movq	-40(%rbp), %rdx
	salq	$3, %rdx
	addq	%rdx, %rax
	.loc 4 3714 24
	movq	(%rax), %rax
	movq	%rax, -16(%rbp)
	.loc 4 3716 11
	movq	-16(%rbp), %rax
	movq	%rax, %rdi
	call	is_directory
	.loc 4 3716 10
	testb	%al, %al
	je	.L669
	.loc 4 3717 15
	movzbl	-41(%rbp), %eax
	xorl	$1, %eax
	.loc 4 3717 11
	testb	%al, %al
	jne	.L670
	.loc 4 3718 48
	movq	-16(%rbp), %rax
	movq	(%rax), %rax
	.loc 4 3718 20
	movq	%rax, %rdi
	call	basename_is_dot_or_dotdot
	.loc 4 3718 18
	xorl	$1, %eax
	.loc 4 3718 15
	testb	%al, %al
	je	.L669
.L670:
	.loc 4 3720 14
	cmpq	$0, -56(%rbp)
	je	.L671
	.loc 4 3720 28 discriminator 1
	movq	-16(%rbp), %rax
	movq	(%rax), %rax
	.loc 4 3720 34 discriminator 1
	movzbl	(%rax), %eax
	.loc 4 3720 24 discriminator 1
	cmpb	$47, %al
	jne	.L672
.L671:
	.loc 4 3721 13
	movzbl	-60(%rbp), %edx
	.loc 4 3721 40
	movq	-16(%rbp), %rax
	movq	8(%rax), %rcx
	.loc 4 3721 31
	movq	-16(%rbp), %rax
	movq	(%rax), %rax
	.loc 4 3721 13
	movq	%rcx, %rsi
	movq	%rax, %rdi
	call	queue_directory
	jmp	.L673
.L672:
.LBB77:
	.loc 4 3724 56
	movq	-16(%rbp), %rax
	movq	(%rax), %rcx
	.loc 4 3724 28
	movq	-56(%rbp), %rax
	movl	$0, %edx
	movq	%rcx, %rsi
	movq	%rax, %rdi
	call	file_name_concat@PLT
	movq	%rax, -8(%rbp)
	.loc 4 3725 15
	movzbl	-60(%rbp), %edx
	.loc 4 3725 39
	movq	-16(%rbp), %rax
	movq	8(%rax), %rcx
	.loc 4 3725 15
	movq	-8(%rbp), %rax
	movq	%rcx, %rsi
	movq	%rax, %rdi
	call	queue_directory
	.loc 4 3726 15
	movq	-8(%rbp), %rax
	movq	%rax, %rdi
	call	free@PLT
.L673:
.LBE77:
	.loc 4 3728 16
	movq	-16(%rbp), %rax
	movl	168(%rax), %eax
	.loc 4 3728 14
	cmpl	$9, %eax
	jne	.L669
	.loc 4 3729 13
	movq	-16(%rbp), %rax
	movq	%rax, %rdi
	call	free_ent
.L669:
.LBE76:
	.loc 4 3712 25 discriminator 1
	movq	-40(%rbp), %rax
	leaq	-1(%rax), %rdx
	movq	%rdx, -40(%rbp)
	.loc 4 3712 3 discriminator 1
	testq	%rax, %rax
	jne	.L674
	.loc 4 3736 10
	movq	$0, -40(%rbp)
	.loc 4 3736 17
	movq	$0, -32(%rbp)
	.loc 4 3736 3
	jmp	.L675
.L676:
.LBB78:
	.loc 4 3738 39 discriminator 3
	movq	sorted_file(%rip), %rax
	movq	-40(%rbp), %rdx
	salq	$3, %rdx
	addq	%rdx, %rax
	.loc 4 3738 24 discriminator 3
	movq	(%rax), %rax
	movq	%rax, -24(%rbp)
	.loc 4 3739 18 discriminator 3
	movq	sorted_file(%rip), %rax
	movq	-32(%rbp), %rdx
	salq	$3, %rdx
	addq	%rax, %rdx
	.loc 4 3739 22 discriminator 3
	movq	-24(%rbp), %rax
	movq	%rax, (%rdx)
	.loc 4 3740 14 discriminator 3
	movq	-24(%rbp), %rax
	movl	168(%rax), %eax
	.loc 4 3740 25 discriminator 3
	cmpl	$9, %eax
	setne	%al
	movzbl	%al, %eax
	.loc 4 3740 9 discriminator 3
	addq	%rax, -32(%rbp)
.LBE78:
	.loc 4 3736 39 discriminator 3
	addq	$1, -40(%rbp)
.L675:
	.loc 4 3736 24 discriminator 1
	movq	cwd_n_used(%rip), %rax
	.loc 4 3736 3 discriminator 1
	cmpq	%rax, -40(%rbp)
	jb	.L676
	.loc 4 3742 14
	movq	-32(%rbp), %rax
	movq	%rax, cwd_n_used(%rip)
	.loc 4 3743 1
	nop
	leave
	.cfi_def_cfa 7, 8
	ret
	.cfi_endproc
.LFE134:
	.size	extract_dirs_from_files, .-extract_dirs_from_files
	.local	failed_strcoll
	.comm	failed_strcoll,200,32
	.section	.rodata
	.align 8
.LC206:
	.string	"cannot compare file names %s and %s"
	.text
	.type	xstrcoll, @function
xstrcoll:
.LFB135:
	.loc 4 3752 1
	.cfi_startproc
	endbr64
	pushq	%rbp
	.cfi_def_cfa_offset 16
	.cfi_offset 6, -16
	movq	%rsp, %rbp
	.cfi_def_cfa_register 6
	pushq	%r13
	pushq	%r12
	pushq	%rbx
	subq	$40, %rsp
	.cfi_offset 13, -24
	.cfi_offset 12, -32
	.cfi_offset 3, -40
	movq	%rdi, -56(%rbp)
	movq	%rsi, -64(%rbp)
	.loc 4 3754 3
	call	__errno_location@PLT
	.loc 4 3754 9
	movl	$0, (%rax)
	.loc 4 3755 10
	movq	-64(%rbp), %rdx
	movq	-56(%rbp), %rax
	movq	%rdx, %rsi
	movq	%rax, %rdi
	call	strcoll@PLT
	movl	%eax, -36(%rbp)
	.loc 4 3756 7
	call	__errno_location@PLT
	movl	(%rax), %eax
	.loc 4 3756 6
	testl	%eax, %eax
	je	.L678
	.loc 4 3758 7
	movq	-64(%rbp), %rax
	movq	%rax, %rsi
	movl	$1, %edi
	call	quote_n@PLT
	movq	%rax, %r13
	movq	-56(%rbp), %rax
	movq	%rax, %rsi
	movl	$0, %edi
	call	quote_n@PLT
	movq	%rax, %r12
	.loc 4 3758 24
	leaq	.LC206(%rip), %rdi
	call	gettext@PLT
	movq	%rax, %rbx
	.loc 4 3758 17
	call	__errno_location@PLT
	.loc 4 3758 7
	movl	(%rax), %eax
	movq	%r13, %r8
	movq	%r12, %rcx
	movq	%rbx, %rdx
	movl	%eax, %esi
	movl	$0, %edi
	movl	$0, %eax
	call	error@PLT
	.loc 4 3760 7
	movl	$0, %edi
	call	set_exit_status
	.loc 4 3761 7
	movl	$1, %esi
	leaq	failed_strcoll(%rip), %rdi
	call	longjmp@PLT
.L678:
	.loc 4 3763 10
	movl	-36(%rbp), %eax
	.loc 4 3764 1
	addq	$40, %rsp
	popq	%rbx
	popq	%r12
	popq	%r13
	popq	%rbp
	.cfi_def_cfa 7, 8
	ret
	.cfi_endproc
.LFE135:
	.size	xstrcoll, .-xstrcoll
	.type	cmp_ctime, @function
cmp_ctime:
.LFB136:
	.loc 4 3819 1
	.cfi_startproc
	pushq	%rbp
	.cfi_def_cfa_offset 16
	.cfi_offset 6, -16
	movq	%rsp, %rbp
	.cfi_def_cfa_register 6
	pushq	%r13
	pushq	%r12
	pushq	%rbx
	subq	$56, %rsp
	.cfi_offset 13, -24
	.cfi_offset 12, -32
	.cfi_offset 3, -40
	movq	%rdi, -56(%rbp)
	movq	%rsi, -64(%rbp)
	movq	%rdx, -72(%rbp)
	.loc 4 3820 14
	movq	-56(%rbp), %rax
	addq	$24, %rax
	movq	%rax, %rdi
	call	get_stat_ctime@PLT
	movq	%rax, %r12
	movq	%rdx, %r13
	movq	-64(%rbp), %rax
	addq	$24, %rax
	movq	%rax, %rdi
	call	get_stat_ctime@PLT
	movq	%rax, %rcx
	movq	%rdx, %rbx
	movq	%rcx, %rsi
	movq	%rdx, %rax
	movq	%r12, %rdx
	movq	%r13, %rcx
	movq	%rsi, %rdi
	movq	%rax, %rsi
	call	timespec_cmp@PLT
	movl	%eax, -36(%rbp)
	.loc 4 3822 22
	cmpl	$0, -36(%rbp)
	jne	.L681
	.loc 4 3822 39 discriminator 1
	movq	-64(%rbp), %rax
	movq	(%rax), %rdx
	.loc 4 3822 30 discriminator 1
	movq	-56(%rbp), %rax
	movq	(%rax), %rax
	.loc 4 3822 24 discriminator 1
	movq	-72(%rbp), %rcx
	movq	%rdx, %rsi
	movq	%rax, %rdi
	call	*%rcx
.LVL0:
	.loc 4 3822 22 discriminator 1
	jmp	.L683
.L681:
	.loc 4 3822 22 is_stmt 0 discriminator 2
	movl	-36(%rbp), %eax
.L683:
	.loc 4 3823 1 is_stmt 1 discriminator 5
	addq	$56, %rsp
	popq	%rbx
	popq	%r12
	popq	%r13
	popq	%rbp
	.cfi_def_cfa 7, 8
	ret
	.cfi_endproc
.LFE136:
	.size	cmp_ctime, .-cmp_ctime
	.type	cmp_mtime, @function
cmp_mtime:
.LFB137:
	.loc 4 3828 1
	.cfi_startproc
	pushq	%rbp
	.cfi_def_cfa_offset 16
	.cfi_offset 6, -16
	movq	%rsp, %rbp
	.cfi_def_cfa_register 6
	pushq	%r13
	pushq	%r12
	pushq	%rbx
	subq	$56, %rsp
	.cfi_offset 13, -24
	.cfi_offset 12, -32
	.cfi_offset 3, -40
	movq	%rdi, -56(%rbp)
	movq	%rsi, -64(%rbp)
	movq	%rdx, -72(%rbp)
	.loc 4 3829 14
	movq	-56(%rbp), %rax
	addq	$24, %rax
	movq	%rax, %rdi
	call	get_stat_mtime@PLT
	movq	%rax, %r12
	movq	%rdx, %r13
	movq	-64(%rbp), %rax
	addq	$24, %rax
	movq	%rax, %rdi
	call	get_stat_mtime@PLT
	movq	%rax, %rcx
	movq	%rdx, %rbx
	movq	%rcx, %rsi
	movq	%rdx, %rax
	movq	%r12, %rdx
	movq	%r13, %rcx
	movq	%rsi, %rdi
	movq	%rax, %rsi
	call	timespec_cmp@PLT
	movl	%eax, -36(%rbp)
	.loc 4 3831 22
	cmpl	$0, -36(%rbp)
	jne	.L685
	.loc 4 3831 39 discriminator 1
	movq	-64(%rbp), %rax
	movq	(%rax), %rdx
	.loc 4 3831 30 discriminator 1
	movq	-56(%rbp), %rax
	movq	(%rax), %rax
	.loc 4 3831 24 discriminator 1
	movq	-72(%rbp), %rcx
	movq	%rdx, %rsi
	movq	%rax, %rdi
	call	*%rcx
.LVL1:
	.loc 4 3831 22 discriminator 1
	jmp	.L687
.L685:
	.loc 4 3831 22 is_stmt 0 discriminator 2
	movl	-36(%rbp), %eax
.L687:
	.loc 4 3832 1 is_stmt 1 discriminator 5
	addq	$56, %rsp
	popq	%rbx
	popq	%r12
	popq	%r13
	popq	%rbp
	.cfi_def_cfa 7, 8
	ret
	.cfi_endproc
.LFE137:
	.size	cmp_mtime, .-cmp_mtime
	.type	cmp_atime, @function
cmp_atime:
.LFB138:
	.loc 4 3837 1
	.cfi_startproc
	pushq	%rbp
	.cfi_def_cfa_offset 16
	.cfi_offset 6, -16
	movq	%rsp, %rbp
	.cfi_def_cfa_register 6
	pushq	%r13
	pushq	%r12
	pushq	%rbx
	subq	$56, %rsp
	.cfi_offset 13, -24
	.cfi_offset 12, -32
	.cfi_offset 3, -40
	movq	%rdi, -56(%rbp)
	movq	%rsi, -64(%rbp)
	movq	%rdx, -72(%rbp)
	.loc 4 3838 14
	movq	-56(%rbp), %rax
	addq	$24, %rax
	movq	%rax, %rdi
	call	get_stat_atime@PLT
	movq	%rax, %r12
	movq	%rdx, %r13
	movq	-64(%rbp), %rax
	addq	$24, %rax
	movq	%rax, %rdi
	call	get_stat_atime@PLT
	movq	%rax, %rcx
	movq	%rdx, %rbx
	movq	%rcx, %rsi
	movq	%rdx, %rax
	movq	%r12, %rdx
	movq	%r13, %rcx
	movq	%rsi, %rdi
	movq	%rax, %rsi
	call	timespec_cmp@PLT
	movl	%eax, -36(%rbp)
	.loc 4 3840 22
	cmpl	$0, -36(%rbp)
	jne	.L689
	.loc 4 3840 39 discriminator 1
	movq	-64(%rbp), %rax
	movq	(%rax), %rdx
	.loc 4 3840 30 discriminator 1
	movq	-56(%rbp), %rax
	movq	(%rax), %rax
	.loc 4 3840 24 discriminator 1
	movq	-72(%rbp), %rcx
	movq	%rdx, %rsi
	movq	%rax, %rdi
	call	*%rcx
.LVL2:
	.loc 4 3840 22 discriminator 1
	jmp	.L691
.L689:
	.loc 4 3840 22 is_stmt 0 discriminator 2
	movl	-36(%rbp), %eax
.L691:
	.loc 4 3841 1 is_stmt 1 discriminator 5
	addq	$56, %rsp
	popq	%rbx
	popq	%r12
	popq	%r13
	popq	%rbp
	.cfi_def_cfa 7, 8
	ret
	.cfi_endproc
.LFE138:
	.size	cmp_atime, .-cmp_atime
	.type	cmp_btime, @function
cmp_btime:
.LFB139:
	.loc 4 3846 1
	.cfi_startproc
	pushq	%rbp
	.cfi_def_cfa_offset 16
	.cfi_offset 6, -16
	movq	%rsp, %rbp
	.cfi_def_cfa_register 6
	pushq	%r13
	pushq	%r12
	pushq	%rbx
	subq	$56, %rsp
	.cfi_offset 13, -24
	.cfi_offset 12, -32
	.cfi_offset 3, -40
	movq	%rdi, -56(%rbp)
	movq	%rsi, -64(%rbp)
	movq	%rdx, -72(%rbp)
	.loc 4 3847 14
	movq	-56(%rbp), %rax
	addq	$24, %rax
	movq	%rax, %rdi
	call	get_stat_btime
	movq	%rax, %r12
	movq	%rdx, %r13
	movq	-64(%rbp), %rax
	addq	$24, %rax
	movq	%rax, %rdi
	call	get_stat_btime
	movq	%rax, %rcx
	movq	%rdx, %rbx
	movq	%rcx, %rsi
	movq	%rdx, %rax
	movq	%r12, %rdx
	movq	%r13, %rcx
	movq	%rsi, %rdi
	movq	%rax, %rsi
	call	timespec_cmp@PLT
	movl	%eax, -36(%rbp)
	.loc 4 3849 22
	cmpl	$0, -36(%rbp)
	jne	.L693
	.loc 4 3849 39 discriminator 1
	movq	-64(%rbp), %rax
	movq	(%rax), %rdx
	.loc 4 3849 30 discriminator 1
	movq	-56(%rbp), %rax
	movq	(%rax), %rax
	.loc 4 3849 24 discriminator 1
	movq	-72(%rbp), %rcx
	movq	%rdx, %rsi
	movq	%rax, %rdi
	call	*%rcx
.LVL3:
	.loc 4 3849 22 discriminator 1
	jmp	.L695
.L693:
	.loc 4 3849 22 is_stmt 0 discriminator 2
	movl	-36(%rbp), %eax
.L695:
	.loc 4 3850 1 is_stmt 1 discriminator 5
	addq	$56, %rsp
	popq	%rbx
	popq	%r12
	popq	%r13
	popq	%rbp
	.cfi_def_cfa 7, 8
	ret
	.cfi_endproc
.LFE139:
	.size	cmp_btime, .-cmp_btime
	.type	cmp_size, @function
cmp_size:
.LFB140:
	.loc 4 3855 1
	.cfi_startproc
	pushq	%rbp
	.cfi_def_cfa_offset 16
	.cfi_offset 6, -16
	movq	%rsp, %rbp
	.cfi_def_cfa_register 6
	subq	$48, %rsp
	movq	%rdi, -24(%rbp)
	movq	%rsi, -32(%rbp)
	movq	%rdx, -40(%rbp)
	.loc 4 3856 14
	movq	-32(%rbp), %rax
	movq	72(%rax), %rdx
	movq	-24(%rbp), %rax
	movq	72(%rax), %rax
	cmpq	%rax, %rdx
	jl	.L697
	.loc 4 3856 14 is_stmt 0 discriminator 1
	movq	-32(%rbp), %rax
	movq	72(%rax), %rdx
	movq	-24(%rbp), %rax
	movq	72(%rax), %rax
	cmpq	%rax, %rdx
	setg	%al
	movzbl	%al, %eax
	jmp	.L698
.L697:
	.loc 4 3856 14 discriminator 2
	movl	$-1, %eax
.L698:
	.loc 4 3856 7 is_stmt 1 discriminator 4
	movl	%eax, -4(%rbp)
	.loc 4 3857 22 discriminator 4
	cmpl	$0, -4(%rbp)
	jne	.L699
	.loc 4 3857 39 discriminator 1
	movq	-32(%rbp), %rax
	movq	(%rax), %rdx
	.loc 4 3857 30 discriminator 1
	movq	-24(%rbp), %rax
	movq	(%rax), %rax
	.loc 4 3857 24 discriminator 1
	movq	-40(%rbp), %rcx
	movq	%rdx, %rsi
	movq	%rax, %rdi
	call	*%rcx
.LVL4:
	.loc 4 3857 22 discriminator 1
	jmp	.L701
.L699:
	.loc 4 3857 22 is_stmt 0 discriminator 2
	movl	-4(%rbp), %eax
.L701:
	.loc 4 3858 1 is_stmt 1 discriminator 5
	leave
	.cfi_def_cfa 7, 8
	ret
	.cfi_endproc
.LFE140:
	.size	cmp_size, .-cmp_size
	.type	cmp_name, @function
cmp_name:
.LFB141:
	.loc 4 3863 1
	.cfi_startproc
	pushq	%rbp
	.cfi_def_cfa_offset 16
	.cfi_offset 6, -16
	movq	%rsp, %rbp
	.cfi_def_cfa_register 6
	subq	$32, %rsp
	movq	%rdi, -8(%rbp)
	movq	%rsi, -16(%rbp)
	movq	%rdx, -24(%rbp)
	.loc 4 3864 25
	movq	-16(%rbp), %rax
	movq	(%rax), %rdx
	.loc 4 3864 16
	movq	-8(%rbp), %rax
	movq	(%rax), %rax
	.loc 4 3864 10
	movq	-24(%rbp), %rcx
	movq	%rdx, %rsi
	movq	%rax, %rdi
	call	*%rcx
.LVL5:
	.loc 4 3865 1
	leave
	.cfi_def_cfa 7, 8
	ret
	.cfi_endproc
.LFE141:
	.size	cmp_name, .-cmp_name
	.type	cmp_extension, @function
cmp_extension:
.LFB142:
	.loc 4 3873 1
	.cfi_startproc
	pushq	%rbp
	.cfi_def_cfa_offset 16
	.cfi_offset 6, -16
	movq	%rsp, %rbp
	.cfi_def_cfa_register 6
	subq	$64, %rsp
	movq	%rdi, -40(%rbp)
	movq	%rsi, -48(%rbp)
	movq	%rdx, -56(%rbp)
	.loc 4 3874 33
	movq	-40(%rbp), %rax
	movq	(%rax), %rax
	.loc 4 3874 23
	movl	$46, %esi
	movq	%rax, %rdi
	call	strrchr@PLT
	movq	%rax, -16(%rbp)
	.loc 4 3875 33
	movq	-48(%rbp), %rax
	movq	(%rax), %rax
	.loc 4 3875 23
	movl	$46, %esi
	movq	%rax, %rdi
	call	strrchr@PLT
	movq	%rax, -8(%rbp)
	.loc 4 3876 14
	cmpq	$0, -8(%rbp)
	je	.L705
	.loc 4 3876 14 is_stmt 0 discriminator 1
	movq	-8(%rbp), %rdx
	jmp	.L706
.L705:
	.loc 4 3876 14 discriminator 2
	leaq	.LC18(%rip), %rdx
.L706:
	.loc 4 3876 14 discriminator 4
	cmpq	$0, -16(%rbp)
	je	.L707
	.loc 4 3876 14 discriminator 5
	movq	-16(%rbp), %rax
	jmp	.L708
.L707:
	.loc 4 3876 14 discriminator 6
	leaq	.LC18(%rip), %rax
.L708:
	.loc 4 3876 14 discriminator 8
	movq	-56(%rbp), %rcx
	movq	%rdx, %rsi
	movq	%rax, %rdi
	call	*%rcx
.LVL6:
	movl	%eax, -20(%rbp)
	.loc 4 3877 22 is_stmt 1 discriminator 8
	cmpl	$0, -20(%rbp)
	jne	.L709
	.loc 4 3877 39 discriminator 1
	movq	-48(%rbp), %rax
	movq	(%rax), %rdx
	.loc 4 3877 30 discriminator 1
	movq	-40(%rbp), %rax
	movq	(%rax), %rax
	.loc 4 3877 24 discriminator 1
	movq	-56(%rbp), %rcx
	movq	%rdx, %rsi
	movq	%rax, %rdi
	call	*%rcx
.LVL7:
	.loc 4 3877 22 discriminator 1
	jmp	.L711
.L709:
	.loc 4 3877 22 is_stmt 0 discriminator 2
	movl	-20(%rbp), %eax
.L711:
	.loc 4 3878 1 is_stmt 1 discriminator 5
	leave
	.cfi_def_cfa 7, 8
	ret
	.cfi_endproc
.LFE142:
	.size	cmp_extension, .-cmp_extension
	.type	xstrcoll_ctime, @function
xstrcoll_ctime:
.LFB143:
	.loc 4 3880 1
	.cfi_startproc
	endbr64
	pushq	%rbp
	.cfi_def_cfa_offset 16
	.cfi_offset 6, -16
	movq	%rsp, %rbp
	.cfi_def_cfa_register 6
	subq	$16, %rsp
	movq	%rdi, -8(%rbp)
	movq	%rsi, -16(%rbp)
	.loc 4 3880 1
	movq	-16(%rbp), %rcx
	movq	-8(%rbp), %rax
	leaq	xstrcoll(%rip), %rdx
	movq	%rcx, %rsi
	movq	%rax, %rdi
	call	cmp_ctime
	leave
	.cfi_def_cfa 7, 8
	ret
	.cfi_endproc
.LFE143:
	.size	xstrcoll_ctime, .-xstrcoll_ctime
	.type	strcmp_ctime, @function
strcmp_ctime:
.LFB144:
	.loc 4 3880 1
	.cfi_startproc
	endbr64
	pushq	%rbp
	.cfi_def_cfa_offset 16
	.cfi_offset 6, -16
	movq	%rsp, %rbp
	.cfi_def_cfa_register 6
	subq	$16, %rsp
	movq	%rdi, -8(%rbp)
	movq	%rsi, -16(%rbp)
	.loc 4 3880 1
	movq	-16(%rbp), %rcx
	movq	-8(%rbp), %rax
	movq	strcmp@GOTPCREL(%rip), %rdx
	movq	%rcx, %rsi
	movq	%rax, %rdi
	call	cmp_ctime
	leave
	.cfi_def_cfa 7, 8
	ret
	.cfi_endproc
.LFE144:
	.size	strcmp_ctime, .-strcmp_ctime
	.type	rev_xstrcoll_ctime, @function
rev_xstrcoll_ctime:
.LFB145:
	.loc 4 3880 1
	.cfi_startproc
	endbr64
	pushq	%rbp
	.cfi_def_cfa_offset 16
	.cfi_offset 6, -16
	movq	%rsp, %rbp
	.cfi_def_cfa_register 6
	subq	$16, %rsp
	movq	%rdi, -8(%rbp)
	movq	%rsi, -16(%rbp)
	.loc 4 3880 1
	movq	-8(%rbp), %rcx
	movq	-16(%rbp), %rax
	leaq	xstrcoll(%rip), %rdx
	movq	%rcx, %rsi
	movq	%rax, %rdi
	call	cmp_ctime
	leave
	.cfi_def_cfa 7, 8
	ret
	.cfi_endproc
.LFE145:
	.size	rev_xstrcoll_ctime, .-rev_xstrcoll_ctime
	.type	rev_strcmp_ctime, @function
rev_strcmp_ctime:
.LFB146:
	.loc 4 3880 1
	.cfi_startproc
	endbr64
	pushq	%rbp
	.cfi_def_cfa_offset 16
	.cfi_offset 6, -16
	movq	%rsp, %rbp
	.cfi_def_cfa_register 6
	subq	$16, %rsp
	movq	%rdi, -8(%rbp)
	movq	%rsi, -16(%rbp)
	.loc 4 3880 1
	movq	-8(%rbp), %rcx
	movq	-16(%rbp), %rax
	movq	strcmp@GOTPCREL(%rip), %rdx
	movq	%rcx, %rsi
	movq	%rax, %rdi
	call	cmp_ctime
	leave
	.cfi_def_cfa 7, 8
	ret
	.cfi_endproc
.LFE146:
	.size	rev_strcmp_ctime, .-rev_strcmp_ctime
	.type	xstrcoll_df_ctime, @function
xstrcoll_df_ctime:
.LFB147:
	.loc 4 3880 1
	.cfi_startproc
	endbr64
	pushq	%rbp
	.cfi_def_cfa_offset 16
	.cfi_offset 6, -16
	movq	%rsp, %rbp
	.cfi_def_cfa_register 6
	subq	$32, %rsp
	movq	%rdi, -24(%rbp)
	movq	%rsi, -32(%rbp)
.LBB79:
	.loc 4 3880 1
	movq	-24(%rbp), %rax
	movq	%rax, %rdi
	call	is_linked_directory
	movb	%al, -2(%rbp)
	movq	-32(%rbp), %rax
	movq	%rax, %rdi
	call	is_linked_directory
	movb	%al, -1(%rbp)
	cmpb	$0, -2(%rbp)
	je	.L721
	.loc 4 3880 1 is_stmt 0 discriminator 1
	movzbl	-1(%rbp), %eax
	xorl	$1, %eax
	testb	%al, %al
	je	.L721
	.loc 4 3880 1 discriminator 3
	movl	$-1, %eax
	jmp	.L722
.L721:
	.loc 4 3880 1 discriminator 4
	movzbl	-2(%rbp), %eax
	xorl	$1, %eax
	testb	%al, %al
	je	.L723
	.loc 4 3880 1 discriminator 5
	cmpb	$0, -1(%rbp)
	je	.L723
	.loc 4 3880 1 discriminator 7
	movl	$1, %eax
	jmp	.L722
.L723:
.LBE79:
	.loc 4 3880 1 discriminator 8
	movq	-32(%rbp), %rcx
	movq	-24(%rbp), %rax
	leaq	xstrcoll(%rip), %rdx
	movq	%rcx, %rsi
	movq	%rax, %rdi
	call	cmp_ctime
.L722:
	.loc 4 3880 1
	leave
	.cfi_def_cfa 7, 8
	ret
	.cfi_endproc
.LFE147:
	.size	xstrcoll_df_ctime, .-xstrcoll_df_ctime
	.type	strcmp_df_ctime, @function
strcmp_df_ctime:
.LFB148:
	.loc 4 3880 1 is_stmt 1
	.cfi_startproc
	endbr64
	pushq	%rbp
	.cfi_def_cfa_offset 16
	.cfi_offset 6, -16
	movq	%rsp, %rbp
	.cfi_def_cfa_register 6
	subq	$32, %rsp
	movq	%rdi, -24(%rbp)
	movq	%rsi, -32(%rbp)
.LBB80:
	.loc 4 3880 1
	movq	-24(%rbp), %rax
	movq	%rax, %rdi
	call	is_linked_directory
	movb	%al, -2(%rbp)
	movq	-32(%rbp), %rax
	movq	%rax, %rdi
	call	is_linked_directory
	movb	%al, -1(%rbp)
	cmpb	$0, -2(%rbp)
	je	.L725
	.loc 4 3880 1 is_stmt 0 discriminator 1
	movzbl	-1(%rbp), %eax
	xorl	$1, %eax
	testb	%al, %al
	je	.L725
	.loc 4 3880 1 discriminator 3
	movl	$-1, %eax
	jmp	.L726
.L725:
	.loc 4 3880 1 discriminator 4
	movzbl	-2(%rbp), %eax
	xorl	$1, %eax
	testb	%al, %al
	je	.L727
	.loc 4 3880 1 discriminator 5
	cmpb	$0, -1(%rbp)
	je	.L727
	.loc 4 3880 1 discriminator 7
	movl	$1, %eax
	jmp	.L726
.L727:
.LBE80:
	.loc 4 3880 1 discriminator 8
	movq	-32(%rbp), %rcx
	movq	-24(%rbp), %rax
	movq	strcmp@GOTPCREL(%rip), %rdx
	movq	%rcx, %rsi
	movq	%rax, %rdi
	call	cmp_ctime
.L726:
	.loc 4 3880 1
	leave
	.cfi_def_cfa 7, 8
	ret
	.cfi_endproc
.LFE148:
	.size	strcmp_df_ctime, .-strcmp_df_ctime
	.type	rev_xstrcoll_df_ctime, @function
rev_xstrcoll_df_ctime:
.LFB149:
	.loc 4 3880 1 is_stmt 1
	.cfi_startproc
	endbr64
	pushq	%rbp
	.cfi_def_cfa_offset 16
	.cfi_offset 6, -16
	movq	%rsp, %rbp
	.cfi_def_cfa_register 6
	subq	$32, %rsp
	movq	%rdi, -24(%rbp)
	movq	%rsi, -32(%rbp)
.LBB81:
	.loc 4 3880 1
	movq	-24(%rbp), %rax
	movq	%rax, %rdi
	call	is_linked_directory
	movb	%al, -2(%rbp)
	movq	-32(%rbp), %rax
	movq	%rax, %rdi
	call	is_linked_directory
	movb	%al, -1(%rbp)
	cmpb	$0, -2(%rbp)
	je	.L729
	.loc 4 3880 1 is_stmt 0 discriminator 1
	movzbl	-1(%rbp), %eax
	xorl	$1, %eax
	testb	%al, %al
	je	.L729
	.loc 4 3880 1 discriminator 3
	movl	$-1, %eax
	jmp	.L730
.L729:
	.loc 4 3880 1 discriminator 4
	movzbl	-2(%rbp), %eax
	xorl	$1, %eax
	testb	%al, %al
	je	.L731
	.loc 4 3880 1 discriminator 5
	cmpb	$0, -1(%rbp)
	je	.L731
	.loc 4 3880 1 discriminator 7
	movl	$1, %eax
	jmp	.L730
.L731:
.LBE81:
	.loc 4 3880 1 discriminator 8
	movq	-24(%rbp), %rcx
	movq	-32(%rbp), %rax
	leaq	xstrcoll(%rip), %rdx
	movq	%rcx, %rsi
	movq	%rax, %rdi
	call	cmp_ctime
.L730:
	.loc 4 3880 1
	leave
	.cfi_def_cfa 7, 8
	ret
	.cfi_endproc
.LFE149:
	.size	rev_xstrcoll_df_ctime, .-rev_xstrcoll_df_ctime
	.type	rev_strcmp_df_ctime, @function
rev_strcmp_df_ctime:
.LFB150:
	.loc 4 3880 1 is_stmt 1
	.cfi_startproc
	endbr64
	pushq	%rbp
	.cfi_def_cfa_offset 16
	.cfi_offset 6, -16
	movq	%rsp, %rbp
	.cfi_def_cfa_register 6
	subq	$32, %rsp
	movq	%rdi, -24(%rbp)
	movq	%rsi, -32(%rbp)
.LBB82:
	.loc 4 3880 1
	movq	-24(%rbp), %rax
	movq	%rax, %rdi
	call	is_linked_directory
	movb	%al, -2(%rbp)
	movq	-32(%rbp), %rax
	movq	%rax, %rdi
	call	is_linked_directory
	movb	%al, -1(%rbp)
	cmpb	$0, -2(%rbp)
	je	.L733
	.loc 4 3880 1 is_stmt 0 discriminator 1
	movzbl	-1(%rbp), %eax
	xorl	$1, %eax
	testb	%al, %al
	je	.L733
	.loc 4 3880 1 discriminator 3
	movl	$-1, %eax
	jmp	.L734
.L733:
	.loc 4 3880 1 discriminator 4
	movzbl	-2(%rbp), %eax
	xorl	$1, %eax
	testb	%al, %al
	je	.L735
	.loc 4 3880 1 discriminator 5
	cmpb	$0, -1(%rbp)
	je	.L735
	.loc 4 3880 1 discriminator 7
	movl	$1, %eax
	jmp	.L734
.L735:
.LBE82:
	.loc 4 3880 1 discriminator 8
	movq	-24(%rbp), %rcx
	movq	-32(%rbp), %rax
	movq	strcmp@GOTPCREL(%rip), %rdx
	movq	%rcx, %rsi
	movq	%rax, %rdi
	call	cmp_ctime
.L734:
	.loc 4 3880 1
	leave
	.cfi_def_cfa 7, 8
	ret
	.cfi_endproc
.LFE150:
	.size	rev_strcmp_df_ctime, .-rev_strcmp_df_ctime
	.type	xstrcoll_mtime, @function
xstrcoll_mtime:
.LFB151:
	.loc 4 3881 1 is_stmt 1
	.cfi_startproc
	endbr64
	pushq	%rbp
	.cfi_def_cfa_offset 16
	.cfi_offset 6, -16
	movq	%rsp, %rbp
	.cfi_def_cfa_register 6
	subq	$16, %rsp
	movq	%rdi, -8(%rbp)
	movq	%rsi, -16(%rbp)
	.loc 4 3881 1
	movq	-16(%rbp), %rcx
	movq	-8(%rbp), %rax
	leaq	xstrcoll(%rip), %rdx
	movq	%rcx, %rsi
	movq	%rax, %rdi
	call	cmp_mtime
	leave
	.cfi_def_cfa 7, 8
	ret
	.cfi_endproc
.LFE151:
	.size	xstrcoll_mtime, .-xstrcoll_mtime
	.type	strcmp_mtime, @function
strcmp_mtime:
.LFB152:
	.loc 4 3881 1
	.cfi_startproc
	endbr64
	pushq	%rbp
	.cfi_def_cfa_offset 16
	.cfi_offset 6, -16
	movq	%rsp, %rbp
	.cfi_def_cfa_register 6
	subq	$16, %rsp
	movq	%rdi, -8(%rbp)
	movq	%rsi, -16(%rbp)
	.loc 4 3881 1
	movq	-16(%rbp), %rcx
	movq	-8(%rbp), %rax
	movq	strcmp@GOTPCREL(%rip), %rdx
	movq	%rcx, %rsi
	movq	%rax, %rdi
	call	cmp_mtime
	leave
	.cfi_def_cfa 7, 8
	ret
	.cfi_endproc
.LFE152:
	.size	strcmp_mtime, .-strcmp_mtime
	.type	rev_xstrcoll_mtime, @function
rev_xstrcoll_mtime:
.LFB153:
	.loc 4 3881 1
	.cfi_startproc
	endbr64
	pushq	%rbp
	.cfi_def_cfa_offset 16
	.cfi_offset 6, -16
	movq	%rsp, %rbp
	.cfi_def_cfa_register 6
	subq	$16, %rsp
	movq	%rdi, -8(%rbp)
	movq	%rsi, -16(%rbp)
	.loc 4 3881 1
	movq	-8(%rbp), %rcx
	movq	-16(%rbp), %rax
	leaq	xstrcoll(%rip), %rdx
	movq	%rcx, %rsi
	movq	%rax, %rdi
	call	cmp_mtime
	leave
	.cfi_def_cfa 7, 8
	ret
	.cfi_endproc
.LFE153:
	.size	rev_xstrcoll_mtime, .-rev_xstrcoll_mtime
	.type	rev_strcmp_mtime, @function
rev_strcmp_mtime:
.LFB154:
	.loc 4 3881 1
	.cfi_startproc
	endbr64
	pushq	%rbp
	.cfi_def_cfa_offset 16
	.cfi_offset 6, -16
	movq	%rsp, %rbp
	.cfi_def_cfa_register 6
	subq	$16, %rsp
	movq	%rdi, -8(%rbp)
	movq	%rsi, -16(%rbp)
	.loc 4 3881 1
	movq	-8(%rbp), %rcx
	movq	-16(%rbp), %rax
	movq	strcmp@GOTPCREL(%rip), %rdx
	movq	%rcx, %rsi
	movq	%rax, %rdi
	call	cmp_mtime
	leave
	.cfi_def_cfa 7, 8
	ret
	.cfi_endproc
.LFE154:
	.size	rev_strcmp_mtime, .-rev_strcmp_mtime
	.type	xstrcoll_df_mtime, @function
xstrcoll_df_mtime:
.LFB155:
	.loc 4 3881 1
	.cfi_startproc
	endbr64
	pushq	%rbp
	.cfi_def_cfa_offset 16
	.cfi_offset 6, -16
	movq	%rsp, %rbp
	.cfi_def_cfa_register 6
	subq	$32, %rsp
	movq	%rdi, -24(%rbp)
	movq	%rsi, -32(%rbp)
.LBB83:
	.loc 4 3881 1
	movq	-24(%rbp), %rax
	movq	%rax, %rdi
	call	is_linked_directory
	movb	%al, -2(%rbp)
	movq	-32(%rbp), %rax
	movq	%rax, %rdi
	call	is_linked_directory
	movb	%al, -1(%rbp)
	cmpb	$0, -2(%rbp)
	je	.L745
	.loc 4 3881 1 is_stmt 0 discriminator 1
	movzbl	-1(%rbp), %eax
	xorl	$1, %eax
	testb	%al, %al
	je	.L745
	.loc 4 3881 1 discriminator 3
	movl	$-1, %eax
	jmp	.L746
.L745:
	.loc 4 3881 1 discriminator 4
	movzbl	-2(%rbp), %eax
	xorl	$1, %eax
	testb	%al, %al
	je	.L747
	.loc 4 3881 1 discriminator 5
	cmpb	$0, -1(%rbp)
	je	.L747
	.loc 4 3881 1 discriminator 7
	movl	$1, %eax
	jmp	.L746
.L747:
.LBE83:
	.loc 4 3881 1 discriminator 8
	movq	-32(%rbp), %rcx
	movq	-24(%rbp), %rax
	leaq	xstrcoll(%rip), %rdx
	movq	%rcx, %rsi
	movq	%rax, %rdi
	call	cmp_mtime
.L746:
	.loc 4 3881 1
	leave
	.cfi_def_cfa 7, 8
	ret
	.cfi_endproc
.LFE155:
	.size	xstrcoll_df_mtime, .-xstrcoll_df_mtime
	.type	strcmp_df_mtime, @function
strcmp_df_mtime:
.LFB156:
	.loc 4 3881 1 is_stmt 1
	.cfi_startproc
	endbr64
	pushq	%rbp
	.cfi_def_cfa_offset 16
	.cfi_offset 6, -16
	movq	%rsp, %rbp
	.cfi_def_cfa_register 6
	subq	$32, %rsp
	movq	%rdi, -24(%rbp)
	movq	%rsi, -32(%rbp)
.LBB84:
	.loc 4 3881 1
	movq	-24(%rbp), %rax
	movq	%rax, %rdi
	call	is_linked_directory
	movb	%al, -2(%rbp)
	movq	-32(%rbp), %rax
	movq	%rax, %rdi
	call	is_linked_directory
	movb	%al, -1(%rbp)
	cmpb	$0, -2(%rbp)
	je	.L749
	.loc 4 3881 1 is_stmt 0 discriminator 1
	movzbl	-1(%rbp), %eax
	xorl	$1, %eax
	testb	%al, %al
	je	.L749
	.loc 4 3881 1 discriminator 3
	movl	$-1, %eax
	jmp	.L750
.L749:
	.loc 4 3881 1 discriminator 4
	movzbl	-2(%rbp), %eax
	xorl	$1, %eax
	testb	%al, %al
	je	.L751
	.loc 4 3881 1 discriminator 5
	cmpb	$0, -1(%rbp)
	je	.L751
	.loc 4 3881 1 discriminator 7
	movl	$1, %eax
	jmp	.L750
.L751:
.LBE84:
	.loc 4 3881 1 discriminator 8
	movq	-32(%rbp), %rcx
	movq	-24(%rbp), %rax
	movq	strcmp@GOTPCREL(%rip), %rdx
	movq	%rcx, %rsi
	movq	%rax, %rdi
	call	cmp_mtime
.L750:
	.loc 4 3881 1
	leave
	.cfi_def_cfa 7, 8
	ret
	.cfi_endproc
.LFE156:
	.size	strcmp_df_mtime, .-strcmp_df_mtime
	.type	rev_xstrcoll_df_mtime, @function
rev_xstrcoll_df_mtime:
.LFB157:
	.loc 4 3881 1 is_stmt 1
	.cfi_startproc
	endbr64
	pushq	%rbp
	.cfi_def_cfa_offset 16
	.cfi_offset 6, -16
	movq	%rsp, %rbp
	.cfi_def_cfa_register 6
	subq	$32, %rsp
	movq	%rdi, -24(%rbp)
	movq	%rsi, -32(%rbp)
.LBB85:
	.loc 4 3881 1
	movq	-24(%rbp), %rax
	movq	%rax, %rdi
	call	is_linked_directory
	movb	%al, -2(%rbp)
	movq	-32(%rbp), %rax
	movq	%rax, %rdi
	call	is_linked_directory
	movb	%al, -1(%rbp)
	cmpb	$0, -2(%rbp)
	je	.L753
	.loc 4 3881 1 is_stmt 0 discriminator 1
	movzbl	-1(%rbp), %eax
	xorl	$1, %eax
	testb	%al, %al
	je	.L753
	.loc 4 3881 1 discriminator 3
	movl	$-1, %eax
	jmp	.L754
.L753:
	.loc 4 3881 1 discriminator 4
	movzbl	-2(%rbp), %eax
	xorl	$1, %eax
	testb	%al, %al
	je	.L755
	.loc 4 3881 1 discriminator 5
	cmpb	$0, -1(%rbp)
	je	.L755
	.loc 4 3881 1 discriminator 7
	movl	$1, %eax
	jmp	.L754
.L755:
.LBE85:
	.loc 4 3881 1 discriminator 8
	movq	-24(%rbp), %rcx
	movq	-32(%rbp), %rax
	leaq	xstrcoll(%rip), %rdx
	movq	%rcx, %rsi
	movq	%rax, %rdi
	call	cmp_mtime
.L754:
	.loc 4 3881 1
	leave
	.cfi_def_cfa 7, 8
	ret
	.cfi_endproc
.LFE157:
	.size	rev_xstrcoll_df_mtime, .-rev_xstrcoll_df_mtime
	.type	rev_strcmp_df_mtime, @function
rev_strcmp_df_mtime:
.LFB158:
	.loc 4 3881 1 is_stmt 1
	.cfi_startproc
	endbr64
	pushq	%rbp
	.cfi_def_cfa_offset 16
	.cfi_offset 6, -16
	movq	%rsp, %rbp
	.cfi_def_cfa_register 6
	subq	$32, %rsp
	movq	%rdi, -24(%rbp)
	movq	%rsi, -32(%rbp)
.LBB86:
	.loc 4 3881 1
	movq	-24(%rbp), %rax
	movq	%rax, %rdi
	call	is_linked_directory
	movb	%al, -2(%rbp)
	movq	-32(%rbp), %rax
	movq	%rax, %rdi
	call	is_linked_directory
	movb	%al, -1(%rbp)
	cmpb	$0, -2(%rbp)
	je	.L757
	.loc 4 3881 1 is_stmt 0 discriminator 1
	movzbl	-1(%rbp), %eax
	xorl	$1, %eax
	testb	%al, %al
	je	.L757
	.loc 4 3881 1 discriminator 3
	movl	$-1, %eax
	jmp	.L758
.L757:
	.loc 4 3881 1 discriminator 4
	movzbl	-2(%rbp), %eax
	xorl	$1, %eax
	testb	%al, %al
	je	.L759
	.loc 4 3881 1 discriminator 5
	cmpb	$0, -1(%rbp)
	je	.L759
	.loc 4 3881 1 discriminator 7
	movl	$1, %eax
	jmp	.L758
.L759:
.LBE86:
	.loc 4 3881 1 discriminator 8
	movq	-24(%rbp), %rcx
	movq	-32(%rbp), %rax
	movq	strcmp@GOTPCREL(%rip), %rdx
	movq	%rcx, %rsi
	movq	%rax, %rdi
	call	cmp_mtime
.L758:
	.loc 4 3881 1
	leave
	.cfi_def_cfa 7, 8
	ret
	.cfi_endproc
.LFE158:
	.size	rev_strcmp_df_mtime, .-rev_strcmp_df_mtime
	.type	xstrcoll_atime, @function
xstrcoll_atime:
.LFB159:
	.loc 4 3882 1 is_stmt 1
	.cfi_startproc
	endbr64
	pushq	%rbp
	.cfi_def_cfa_offset 16
	.cfi_offset 6, -16
	movq	%rsp, %rbp
	.cfi_def_cfa_register 6
	subq	$16, %rsp
	movq	%rdi, -8(%rbp)
	movq	%rsi, -16(%rbp)
	.loc 4 3882 1
	movq	-16(%rbp), %rcx
	movq	-8(%rbp), %rax
	leaq	xstrcoll(%rip), %rdx
	movq	%rcx, %rsi
	movq	%rax, %rdi
	call	cmp_atime
	leave
	.cfi_def_cfa 7, 8
	ret
	.cfi_endproc
.LFE159:
	.size	xstrcoll_atime, .-xstrcoll_atime
	.type	strcmp_atime, @function
strcmp_atime:
.LFB160:
	.loc 4 3882 1
	.cfi_startproc
	endbr64
	pushq	%rbp
	.cfi_def_cfa_offset 16
	.cfi_offset 6, -16
	movq	%rsp, %rbp
	.cfi_def_cfa_register 6
	subq	$16, %rsp
	movq	%rdi, -8(%rbp)
	movq	%rsi, -16(%rbp)
	.loc 4 3882 1
	movq	-16(%rbp), %rcx
	movq	-8(%rbp), %rax
	movq	strcmp@GOTPCREL(%rip), %rdx
	movq	%rcx, %rsi
	movq	%rax, %rdi
	call	cmp_atime
	leave
	.cfi_def_cfa 7, 8
	ret
	.cfi_endproc
.LFE160:
	.size	strcmp_atime, .-strcmp_atime
	.type	rev_xstrcoll_atime, @function
rev_xstrcoll_atime:
.LFB161:
	.loc 4 3882 1
	.cfi_startproc
	endbr64
	pushq	%rbp
	.cfi_def_cfa_offset 16
	.cfi_offset 6, -16
	movq	%rsp, %rbp
	.cfi_def_cfa_register 6
	subq	$16, %rsp
	movq	%rdi, -8(%rbp)
	movq	%rsi, -16(%rbp)
	.loc 4 3882 1
	movq	-8(%rbp), %rcx
	movq	-16(%rbp), %rax
	leaq	xstrcoll(%rip), %rdx
	movq	%rcx, %rsi
	movq	%rax, %rdi
	call	cmp_atime
	leave
	.cfi_def_cfa 7, 8
	ret
	.cfi_endproc
.LFE161:
	.size	rev_xstrcoll_atime, .-rev_xstrcoll_atime
	.type	rev_strcmp_atime, @function
rev_strcmp_atime:
.LFB162:
	.loc 4 3882 1
	.cfi_startproc
	endbr64
	pushq	%rbp
	.cfi_def_cfa_offset 16
	.cfi_offset 6, -16
	movq	%rsp, %rbp
	.cfi_def_cfa_register 6
	subq	$16, %rsp
	movq	%rdi, -8(%rbp)
	movq	%rsi, -16(%rbp)
	.loc 4 3882 1
	movq	-8(%rbp), %rcx
	movq	-16(%rbp), %rax
	movq	strcmp@GOTPCREL(%rip), %rdx
	movq	%rcx, %rsi
	movq	%rax, %rdi
	call	cmp_atime
	leave
	.cfi_def_cfa 7, 8
	ret
	.cfi_endproc
.LFE162:
	.size	rev_strcmp_atime, .-rev_strcmp_atime
	.type	xstrcoll_df_atime, @function
xstrcoll_df_atime:
.LFB163:
	.loc 4 3882 1
	.cfi_startproc
	endbr64
	pushq	%rbp
	.cfi_def_cfa_offset 16
	.cfi_offset 6, -16
	movq	%rsp, %rbp
	.cfi_def_cfa_register 6
	subq	$32, %rsp
	movq	%rdi, -24(%rbp)
	movq	%rsi, -32(%rbp)
.LBB87:
	.loc 4 3882 1
	movq	-24(%rbp), %rax
	movq	%rax, %rdi
	call	is_linked_directory
	movb	%al, -2(%rbp)
	movq	-32(%rbp), %rax
	movq	%rax, %rdi
	call	is_linked_directory
	movb	%al, -1(%rbp)
	cmpb	$0, -2(%rbp)
	je	.L769
	.loc 4 3882 1 is_stmt 0 discriminator 1
	movzbl	-1(%rbp), %eax
	xorl	$1, %eax
	testb	%al, %al
	je	.L769
	.loc 4 3882 1 discriminator 3
	movl	$-1, %eax
	jmp	.L770
.L769:
	.loc 4 3882 1 discriminator 4
	movzbl	-2(%rbp), %eax
	xorl	$1, %eax
	testb	%al, %al
	je	.L771
	.loc 4 3882 1 discriminator 5
	cmpb	$0, -1(%rbp)
	je	.L771
	.loc 4 3882 1 discriminator 7
	movl	$1, %eax
	jmp	.L770
.L771:
.LBE87:
	.loc 4 3882 1 discriminator 8
	movq	-32(%rbp), %rcx
	movq	-24(%rbp), %rax
	leaq	xstrcoll(%rip), %rdx
	movq	%rcx, %rsi
	movq	%rax, %rdi
	call	cmp_atime
.L770:
	.loc 4 3882 1
	leave
	.cfi_def_cfa 7, 8
	ret
	.cfi_endproc
.LFE163:
	.size	xstrcoll_df_atime, .-xstrcoll_df_atime
	.type	strcmp_df_atime, @function
strcmp_df_atime:
.LFB164:
	.loc 4 3882 1 is_stmt 1
	.cfi_startproc
	endbr64
	pushq	%rbp
	.cfi_def_cfa_offset 16
	.cfi_offset 6, -16
	movq	%rsp, %rbp
	.cfi_def_cfa_register 6
	subq	$32, %rsp
	movq	%rdi, -24(%rbp)
	movq	%rsi, -32(%rbp)
.LBB88:
	.loc 4 3882 1
	movq	-24(%rbp), %rax
	movq	%rax, %rdi
	call	is_linked_directory
	movb	%al, -2(%rbp)
	movq	-32(%rbp), %rax
	movq	%rax, %rdi
	call	is_linked_directory
	movb	%al, -1(%rbp)
	cmpb	$0, -2(%rbp)
	je	.L773
	.loc 4 3882 1 is_stmt 0 discriminator 1
	movzbl	-1(%rbp), %eax
	xorl	$1, %eax
	testb	%al, %al
	je	.L773
	.loc 4 3882 1 discriminator 3
	movl	$-1, %eax
	jmp	.L774
.L773:
	.loc 4 3882 1 discriminator 4
	movzbl	-2(%rbp), %eax
	xorl	$1, %eax
	testb	%al, %al
	je	.L775
	.loc 4 3882 1 discriminator 5
	cmpb	$0, -1(%rbp)
	je	.L775
	.loc 4 3882 1 discriminator 7
	movl	$1, %eax
	jmp	.L774
.L775:
.LBE88:
	.loc 4 3882 1 discriminator 8
	movq	-32(%rbp), %rcx
	movq	-24(%rbp), %rax
	movq	strcmp@GOTPCREL(%rip), %rdx
	movq	%rcx, %rsi
	movq	%rax, %rdi
	call	cmp_atime
.L774:
	.loc 4 3882 1
	leave
	.cfi_def_cfa 7, 8
	ret
	.cfi_endproc
.LFE164:
	.size	strcmp_df_atime, .-strcmp_df_atime
	.type	rev_xstrcoll_df_atime, @function
rev_xstrcoll_df_atime:
.LFB165:
	.loc 4 3882 1 is_stmt 1
	.cfi_startproc
	endbr64
	pushq	%rbp
	.cfi_def_cfa_offset 16
	.cfi_offset 6, -16
	movq	%rsp, %rbp
	.cfi_def_cfa_register 6
	subq	$32, %rsp
	movq	%rdi, -24(%rbp)
	movq	%rsi, -32(%rbp)
.LBB89:
	.loc 4 3882 1
	movq	-24(%rbp), %rax
	movq	%rax, %rdi
	call	is_linked_directory
	movb	%al, -2(%rbp)
	movq	-32(%rbp), %rax
	movq	%rax, %rdi
	call	is_linked_directory
	movb	%al, -1(%rbp)
	cmpb	$0, -2(%rbp)
	je	.L777
	.loc 4 3882 1 is_stmt 0 discriminator 1
	movzbl	-1(%rbp), %eax
	xorl	$1, %eax
	testb	%al, %al
	je	.L777
	.loc 4 3882 1 discriminator 3
	movl	$-1, %eax
	jmp	.L778
.L777:
	.loc 4 3882 1 discriminator 4
	movzbl	-2(%rbp), %eax
	xorl	$1, %eax
	testb	%al, %al
	je	.L779
	.loc 4 3882 1 discriminator 5
	cmpb	$0, -1(%rbp)
	je	.L779
	.loc 4 3882 1 discriminator 7
	movl	$1, %eax
	jmp	.L778
.L779:
.LBE89:
	.loc 4 3882 1 discriminator 8
	movq	-24(%rbp), %rcx
	movq	-32(%rbp), %rax
	leaq	xstrcoll(%rip), %rdx
	movq	%rcx, %rsi
	movq	%rax, %rdi
	call	cmp_atime
.L778:
	.loc 4 3882 1
	leave
	.cfi_def_cfa 7, 8
	ret
	.cfi_endproc
.LFE165:
	.size	rev_xstrcoll_df_atime, .-rev_xstrcoll_df_atime
	.type	rev_strcmp_df_atime, @function
rev_strcmp_df_atime:
.LFB166:
	.loc 4 3882 1 is_stmt 1
	.cfi_startproc
	endbr64
	pushq	%rbp
	.cfi_def_cfa_offset 16
	.cfi_offset 6, -16
	movq	%rsp, %rbp
	.cfi_def_cfa_register 6
	subq	$32, %rsp
	movq	%rdi, -24(%rbp)
	movq	%rsi, -32(%rbp)
.LBB90:
	.loc 4 3882 1
	movq	-24(%rbp), %rax
	movq	%rax, %rdi
	call	is_linked_directory
	movb	%al, -2(%rbp)
	movq	-32(%rbp), %rax
	movq	%rax, %rdi
	call	is_linked_directory
	movb	%al, -1(%rbp)
	cmpb	$0, -2(%rbp)
	je	.L781
	.loc 4 3882 1 is_stmt 0 discriminator 1
	movzbl	-1(%rbp), %eax
	xorl	$1, %eax
	testb	%al, %al
	je	.L781
	.loc 4 3882 1 discriminator 3
	movl	$-1, %eax
	jmp	.L782
.L781:
	.loc 4 3882 1 discriminator 4
	movzbl	-2(%rbp), %eax
	xorl	$1, %eax
	testb	%al, %al
	je	.L783
	.loc 4 3882 1 discriminator 5
	cmpb	$0, -1(%rbp)
	je	.L783
	.loc 4 3882 1 discriminator 7
	movl	$1, %eax
	jmp	.L782
.L783:
.LBE90:
	.loc 4 3882 1 discriminator 8
	movq	-24(%rbp), %rcx
	movq	-32(%rbp), %rax
	movq	strcmp@GOTPCREL(%rip), %rdx
	movq	%rcx, %rsi
	movq	%rax, %rdi
	call	cmp_atime
.L782:
	.loc 4 3882 1
	leave
	.cfi_def_cfa 7, 8
	ret
	.cfi_endproc
.LFE166:
	.size	rev_strcmp_df_atime, .-rev_strcmp_df_atime
	.type	xstrcoll_btime, @function
xstrcoll_btime:
.LFB167:
	.loc 4 3883 1 is_stmt 1
	.cfi_startproc
	endbr64
	pushq	%rbp
	.cfi_def_cfa_offset 16
	.cfi_offset 6, -16
	movq	%rsp, %rbp
	.cfi_def_cfa_register 6
	subq	$16, %rsp
	movq	%rdi, -8(%rbp)
	movq	%rsi, -16(%rbp)
	.loc 4 3883 1
	movq	-16(%rbp), %rcx
	movq	-8(%rbp), %rax
	leaq	xstrcoll(%rip), %rdx
	movq	%rcx, %rsi
	movq	%rax, %rdi
	call	cmp_btime
	leave
	.cfi_def_cfa 7, 8
	ret
	.cfi_endproc
.LFE167:
	.size	xstrcoll_btime, .-xstrcoll_btime
	.type	strcmp_btime, @function
strcmp_btime:
.LFB168:
	.loc 4 3883 1
	.cfi_startproc
	endbr64
	pushq	%rbp
	.cfi_def_cfa_offset 16
	.cfi_offset 6, -16
	movq	%rsp, %rbp
	.cfi_def_cfa_register 6
	subq	$16, %rsp
	movq	%rdi, -8(%rbp)
	movq	%rsi, -16(%rbp)
	.loc 4 3883 1
	movq	-16(%rbp), %rcx
	movq	-8(%rbp), %rax
	movq	strcmp@GOTPCREL(%rip), %rdx
	movq	%rcx, %rsi
	movq	%rax, %rdi
	call	cmp_btime
	leave
	.cfi_def_cfa 7, 8
	ret
	.cfi_endproc
.LFE168:
	.size	strcmp_btime, .-strcmp_btime
	.type	rev_xstrcoll_btime, @function
rev_xstrcoll_btime:
.LFB169:
	.loc 4 3883 1
	.cfi_startproc
	endbr64
	pushq	%rbp
	.cfi_def_cfa_offset 16
	.cfi_offset 6, -16
	movq	%rsp, %rbp
	.cfi_def_cfa_register 6
	subq	$16, %rsp
	movq	%rdi, -8(%rbp)
	movq	%rsi, -16(%rbp)
	.loc 4 3883 1
	movq	-8(%rbp), %rcx
	movq	-16(%rbp), %rax
	leaq	xstrcoll(%rip), %rdx
	movq	%rcx, %rsi
	movq	%rax, %rdi
	call	cmp_btime
	leave
	.cfi_def_cfa 7, 8
	ret
	.cfi_endproc
.LFE169:
	.size	rev_xstrcoll_btime, .-rev_xstrcoll_btime
	.type	rev_strcmp_btime, @function
rev_strcmp_btime:
.LFB170:
	.loc 4 3883 1
	.cfi_startproc
	endbr64
	pushq	%rbp
	.cfi_def_cfa_offset 16
	.cfi_offset 6, -16
	movq	%rsp, %rbp
	.cfi_def_cfa_register 6
	subq	$16, %rsp
	movq	%rdi, -8(%rbp)
	movq	%rsi, -16(%rbp)
	.loc 4 3883 1
	movq	-8(%rbp), %rcx
	movq	-16(%rbp), %rax
	movq	strcmp@GOTPCREL(%rip), %rdx
	movq	%rcx, %rsi
	movq	%rax, %rdi
	call	cmp_btime
	leave
	.cfi_def_cfa 7, 8
	ret
	.cfi_endproc
.LFE170:
	.size	rev_strcmp_btime, .-rev_strcmp_btime
	.type	xstrcoll_df_btime, @function
xstrcoll_df_btime:
.LFB171:
	.loc 4 3883 1
	.cfi_startproc
	endbr64
	pushq	%rbp
	.cfi_def_cfa_offset 16
	.cfi_offset 6, -16
	movq	%rsp, %rbp
	.cfi_def_cfa_register 6
	subq	$32, %rsp
	movq	%rdi, -24(%rbp)
	movq	%rsi, -32(%rbp)
.LBB91:
	.loc 4 3883 1
	movq	-24(%rbp), %rax
	movq	%rax, %rdi
	call	is_linked_directory
	movb	%al, -2(%rbp)
	movq	-32(%rbp), %rax
	movq	%rax, %rdi
	call	is_linked_directory
	movb	%al, -1(%rbp)
	cmpb	$0, -2(%rbp)
	je	.L793
	.loc 4 3883 1 is_stmt 0 discriminator 1
	movzbl	-1(%rbp), %eax
	xorl	$1, %eax
	testb	%al, %al
	je	.L793
	.loc 4 3883 1 discriminator 3
	movl	$-1, %eax
	jmp	.L794
.L793:
	.loc 4 3883 1 discriminator 4
	movzbl	-2(%rbp), %eax
	xorl	$1, %eax
	testb	%al, %al
	je	.L795
	.loc 4 3883 1 discriminator 5
	cmpb	$0, -1(%rbp)
	je	.L795
	.loc 4 3883 1 discriminator 7
	movl	$1, %eax
	jmp	.L794
.L795:
.LBE91:
	.loc 4 3883 1 discriminator 8
	movq	-32(%rbp), %rcx
	movq	-24(%rbp), %rax
	leaq	xstrcoll(%rip), %rdx
	movq	%rcx, %rsi
	movq	%rax, %rdi
	call	cmp_btime
.L794:
	.loc 4 3883 1
	leave
	.cfi_def_cfa 7, 8
	ret
	.cfi_endproc
.LFE171:
	.size	xstrcoll_df_btime, .-xstrcoll_df_btime
	.type	strcmp_df_btime, @function
strcmp_df_btime:
.LFB172:
	.loc 4 3883 1 is_stmt 1
	.cfi_startproc
	endbr64
	pushq	%rbp
	.cfi_def_cfa_offset 16
	.cfi_offset 6, -16
	movq	%rsp, %rbp
	.cfi_def_cfa_register 6
	subq	$32, %rsp
	movq	%rdi, -24(%rbp)
	movq	%rsi, -32(%rbp)
.LBB92:
	.loc 4 3883 1
	movq	-24(%rbp), %rax
	movq	%rax, %rdi
	call	is_linked_directory
	movb	%al, -2(%rbp)
	movq	-32(%rbp), %rax
	movq	%rax, %rdi
	call	is_linked_directory
	movb	%al, -1(%rbp)
	cmpb	$0, -2(%rbp)
	je	.L797
	.loc 4 3883 1 is_stmt 0 discriminator 1
	movzbl	-1(%rbp), %eax
	xorl	$1, %eax
	testb	%al, %al
	je	.L797
	.loc 4 3883 1 discriminator 3
	movl	$-1, %eax
	jmp	.L798
.L797:
	.loc 4 3883 1 discriminator 4
	movzbl	-2(%rbp), %eax
	xorl	$1, %eax
	testb	%al, %al
	je	.L799
	.loc 4 3883 1 discriminator 5
	cmpb	$0, -1(%rbp)
	je	.L799
	.loc 4 3883 1 discriminator 7
	movl	$1, %eax
	jmp	.L798
.L799:
.LBE92:
	.loc 4 3883 1 discriminator 8
	movq	-32(%rbp), %rcx
	movq	-24(%rbp), %rax
	movq	strcmp@GOTPCREL(%rip), %rdx
	movq	%rcx, %rsi
	movq	%rax, %rdi
	call	cmp_btime
.L798:
	.loc 4 3883 1
	leave
	.cfi_def_cfa 7, 8
	ret
	.cfi_endproc
.LFE172:
	.size	strcmp_df_btime, .-strcmp_df_btime
	.type	rev_xstrcoll_df_btime, @function
rev_xstrcoll_df_btime:
.LFB173:
	.loc 4 3883 1 is_stmt 1
	.cfi_startproc
	endbr64
	pushq	%rbp
	.cfi_def_cfa_offset 16
	.cfi_offset 6, -16
	movq	%rsp, %rbp
	.cfi_def_cfa_register 6
	subq	$32, %rsp
	movq	%rdi, -24(%rbp)
	movq	%rsi, -32(%rbp)
.LBB93:
	.loc 4 3883 1
	movq	-24(%rbp), %rax
	movq	%rax, %rdi
	call	is_linked_directory
	movb	%al, -2(%rbp)
	movq	-32(%rbp), %rax
	movq	%rax, %rdi
	call	is_linked_directory
	movb	%al, -1(%rbp)
	cmpb	$0, -2(%rbp)
	je	.L801
	.loc 4 3883 1 is_stmt 0 discriminator 1
	movzbl	-1(%rbp), %eax
	xorl	$1, %eax
	testb	%al, %al
	je	.L801
	.loc 4 3883 1 discriminator 3
	movl	$-1, %eax
	jmp	.L802
.L801:
	.loc 4 3883 1 discriminator 4
	movzbl	-2(%rbp), %eax
	xorl	$1, %eax
	testb	%al, %al
	je	.L803
	.loc 4 3883 1 discriminator 5
	cmpb	$0, -1(%rbp)
	je	.L803
	.loc 4 3883 1 discriminator 7
	movl	$1, %eax
	jmp	.L802
.L803:
.LBE93:
	.loc 4 3883 1 discriminator 8
	movq	-24(%rbp), %rcx
	movq	-32(%rbp), %rax
	leaq	xstrcoll(%rip), %rdx
	movq	%rcx, %rsi
	movq	%rax, %rdi
	call	cmp_btime
.L802:
	.loc 4 3883 1
	leave
	.cfi_def_cfa 7, 8
	ret
	.cfi_endproc
.LFE173:
	.size	rev_xstrcoll_df_btime, .-rev_xstrcoll_df_btime
	.type	rev_strcmp_df_btime, @function
rev_strcmp_df_btime:
.LFB174:
	.loc 4 3883 1 is_stmt 1
	.cfi_startproc
	endbr64
	pushq	%rbp
	.cfi_def_cfa_offset 16
	.cfi_offset 6, -16
	movq	%rsp, %rbp
	.cfi_def_cfa_register 6
	subq	$32, %rsp
	movq	%rdi, -24(%rbp)
	movq	%rsi, -32(%rbp)
.LBB94:
	.loc 4 3883 1
	movq	-24(%rbp), %rax
	movq	%rax, %rdi
	call	is_linked_directory
	movb	%al, -2(%rbp)
	movq	-32(%rbp), %rax
	movq	%rax, %rdi
	call	is_linked_directory
	movb	%al, -1(%rbp)
	cmpb	$0, -2(%rbp)
	je	.L805
	.loc 4 3883 1 is_stmt 0 discriminator 1
	movzbl	-1(%rbp), %eax
	xorl	$1, %eax
	testb	%al, %al
	je	.L805
	.loc 4 3883 1 discriminator 3
	movl	$-1, %eax
	jmp	.L806
.L805:
	.loc 4 3883 1 discriminator 4
	movzbl	-2(%rbp), %eax
	xorl	$1, %eax
	testb	%al, %al
	je	.L807
	.loc 4 3883 1 discriminator 5
	cmpb	$0, -1(%rbp)
	je	.L807
	.loc 4 3883 1 discriminator 7
	movl	$1, %eax
	jmp	.L806
.L807:
.LBE94:
	.loc 4 3883 1 discriminator 8
	movq	-24(%rbp), %rcx
	movq	-32(%rbp), %rax
	movq	strcmp@GOTPCREL(%rip), %rdx
	movq	%rcx, %rsi
	movq	%rax, %rdi
	call	cmp_btime
.L806:
	.loc 4 3883 1
	leave
	.cfi_def_cfa 7, 8
	ret
	.cfi_endproc
.LFE174:
	.size	rev_strcmp_df_btime, .-rev_strcmp_df_btime
	.type	xstrcoll_size, @function
xstrcoll_size:
.LFB175:
	.loc 4 3884 1 is_stmt 1
	.cfi_startproc
	endbr64
	pushq	%rbp
	.cfi_def_cfa_offset 16
	.cfi_offset 6, -16
	movq	%rsp, %rbp
	.cfi_def_cfa_register 6
	subq	$16, %rsp
	movq	%rdi, -8(%rbp)
	movq	%rsi, -16(%rbp)
	.loc 4 3884 1
	movq	-16(%rbp), %rcx
	movq	-8(%rbp), %rax
	leaq	xstrcoll(%rip), %rdx
	movq	%rcx, %rsi
	movq	%rax, %rdi
	call	cmp_size
	leave
	.cfi_def_cfa 7, 8
	ret
	.cfi_endproc
.LFE175:
	.size	xstrcoll_size, .-xstrcoll_size
	.type	strcmp_size, @function
strcmp_size:
.LFB176:
	.loc 4 3884 1
	.cfi_startproc
	endbr64
	pushq	%rbp
	.cfi_def_cfa_offset 16
	.cfi_offset 6, -16
	movq	%rsp, %rbp
	.cfi_def_cfa_register 6
	subq	$16, %rsp
	movq	%rdi, -8(%rbp)
	movq	%rsi, -16(%rbp)
	.loc 4 3884 1
	movq	-16(%rbp), %rcx
	movq	-8(%rbp), %rax
	movq	strcmp@GOTPCREL(%rip), %rdx
	movq	%rcx, %rsi
	movq	%rax, %rdi
	call	cmp_size
	leave
	.cfi_def_cfa 7, 8
	ret
	.cfi_endproc
.LFE176:
	.size	strcmp_size, .-strcmp_size
	.type	rev_xstrcoll_size, @function
rev_xstrcoll_size:
.LFB177:
	.loc 4 3884 1
	.cfi_startproc
	endbr64
	pushq	%rbp
	.cfi_def_cfa_offset 16
	.cfi_offset 6, -16
	movq	%rsp, %rbp
	.cfi_def_cfa_register 6
	subq	$16, %rsp
	movq	%rdi, -8(%rbp)
	movq	%rsi, -16(%rbp)
	.loc 4 3884 1
	movq	-8(%rbp), %rcx
	movq	-16(%rbp), %rax
	leaq	xstrcoll(%rip), %rdx
	movq	%rcx, %rsi
	movq	%rax, %rdi
	call	cmp_size
	leave
	.cfi_def_cfa 7, 8
	ret
	.cfi_endproc
.LFE177:
	.size	rev_xstrcoll_size, .-rev_xstrcoll_size
	.type	rev_strcmp_size, @function
rev_strcmp_size:
.LFB178:
	.loc 4 3884 1
	.cfi_startproc
	endbr64
	pushq	%rbp
	.cfi_def_cfa_offset 16
	.cfi_offset 6, -16
	movq	%rsp, %rbp
	.cfi_def_cfa_register 6
	subq	$16, %rsp
	movq	%rdi, -8(%rbp)
	movq	%rsi, -16(%rbp)
	.loc 4 3884 1
	movq	-8(%rbp), %rcx
	movq	-16(%rbp), %rax
	movq	strcmp@GOTPCREL(%rip), %rdx
	movq	%rcx, %rsi
	movq	%rax, %rdi
	call	cmp_size
	leave
	.cfi_def_cfa 7, 8
	ret
	.cfi_endproc
.LFE178:
	.size	rev_strcmp_size, .-rev_strcmp_size
	.type	xstrcoll_df_size, @function
xstrcoll_df_size:
.LFB179:
	.loc 4 3884 1
	.cfi_startproc
	endbr64
	pushq	%rbp
	.cfi_def_cfa_offset 16
	.cfi_offset 6, -16
	movq	%rsp, %rbp
	.cfi_def_cfa_register 6
	subq	$32, %rsp
	movq	%rdi, -24(%rbp)
	movq	%rsi, -32(%rbp)
.LBB95:
	.loc 4 3884 1
	movq	-24(%rbp), %rax
	movq	%rax, %rdi
	call	is_linked_directory
	movb	%al, -2(%rbp)
	movq	-32(%rbp), %rax
	movq	%rax, %rdi
	call	is_linked_directory
	movb	%al, -1(%rbp)
	cmpb	$0, -2(%rbp)
	je	.L817
	.loc 4 3884 1 is_stmt 0 discriminator 1
	movzbl	-1(%rbp), %eax
	xorl	$1, %eax
	testb	%al, %al
	je	.L817
	.loc 4 3884 1 discriminator 3
	movl	$-1, %eax
	jmp	.L818
.L817:
	.loc 4 3884 1 discriminator 4
	movzbl	-2(%rbp), %eax
	xorl	$1, %eax
	testb	%al, %al
	je	.L819
	.loc 4 3884 1 discriminator 5
	cmpb	$0, -1(%rbp)
	je	.L819
	.loc 4 3884 1 discriminator 7
	movl	$1, %eax
	jmp	.L818
.L819:
.LBE95:
	.loc 4 3884 1 discriminator 8
	movq	-32(%rbp), %rcx
	movq	-24(%rbp), %rax
	leaq	xstrcoll(%rip), %rdx
	movq	%rcx, %rsi
	movq	%rax, %rdi
	call	cmp_size
.L818:
	.loc 4 3884 1
	leave
	.cfi_def_cfa 7, 8
	ret
	.cfi_endproc
.LFE179:
	.size	xstrcoll_df_size, .-xstrcoll_df_size
	.type	strcmp_df_size, @function
strcmp_df_size:
.LFB180:
	.loc 4 3884 1 is_stmt 1
	.cfi_startproc
	endbr64
	pushq	%rbp
	.cfi_def_cfa_offset 16
	.cfi_offset 6, -16
	movq	%rsp, %rbp
	.cfi_def_cfa_register 6
	subq	$32, %rsp
	movq	%rdi, -24(%rbp)
	movq	%rsi, -32(%rbp)
.LBB96:
	.loc 4 3884 1
	movq	-24(%rbp), %rax
	movq	%rax, %rdi
	call	is_linked_directory
	movb	%al, -2(%rbp)
	movq	-32(%rbp), %rax
	movq	%rax, %rdi
	call	is_linked_directory
	movb	%al, -1(%rbp)
	cmpb	$0, -2(%rbp)
	je	.L821
	.loc 4 3884 1 is_stmt 0 discriminator 1
	movzbl	-1(%rbp), %eax
	xorl	$1, %eax
	testb	%al, %al
	je	.L821
	.loc 4 3884 1 discriminator 3
	movl	$-1, %eax
	jmp	.L822
.L821:
	.loc 4 3884 1 discriminator 4
	movzbl	-2(%rbp), %eax
	xorl	$1, %eax
	testb	%al, %al
	je	.L823
	.loc 4 3884 1 discriminator 5
	cmpb	$0, -1(%rbp)
	je	.L823
	.loc 4 3884 1 discriminator 7
	movl	$1, %eax
	jmp	.L822
.L823:
.LBE96:
	.loc 4 3884 1 discriminator 8
	movq	-32(%rbp), %rcx
	movq	-24(%rbp), %rax
	movq	strcmp@GOTPCREL(%rip), %rdx
	movq	%rcx, %rsi
	movq	%rax, %rdi
	call	cmp_size
.L822:
	.loc 4 3884 1
	leave
	.cfi_def_cfa 7, 8
	ret
	.cfi_endproc
.LFE180:
	.size	strcmp_df_size, .-strcmp_df_size
	.type	rev_xstrcoll_df_size, @function
rev_xstrcoll_df_size:
.LFB181:
	.loc 4 3884 1 is_stmt 1
	.cfi_startproc
	endbr64
	pushq	%rbp
	.cfi_def_cfa_offset 16
	.cfi_offset 6, -16
	movq	%rsp, %rbp
	.cfi_def_cfa_register 6
	subq	$32, %rsp
	movq	%rdi, -24(%rbp)
	movq	%rsi, -32(%rbp)
.LBB97:
	.loc 4 3884 1
	movq	-24(%rbp), %rax
	movq	%rax, %rdi
	call	is_linked_directory
	movb	%al, -2(%rbp)
	movq	-32(%rbp), %rax
	movq	%rax, %rdi
	call	is_linked_directory
	movb	%al, -1(%rbp)
	cmpb	$0, -2(%rbp)
	je	.L825
	.loc 4 3884 1 is_stmt 0 discriminator 1
	movzbl	-1(%rbp), %eax
	xorl	$1, %eax
	testb	%al, %al
	je	.L825
	.loc 4 3884 1 discriminator 3
	movl	$-1, %eax
	jmp	.L826
.L825:
	.loc 4 3884 1 discriminator 4
	movzbl	-2(%rbp), %eax
	xorl	$1, %eax
	testb	%al, %al
	je	.L827
	.loc 4 3884 1 discriminator 5
	cmpb	$0, -1(%rbp)
	je	.L827
	.loc 4 3884 1 discriminator 7
	movl	$1, %eax
	jmp	.L826
.L827:
.LBE97:
	.loc 4 3884 1 discriminator 8
	movq	-24(%rbp), %rcx
	movq	-32(%rbp), %rax
	leaq	xstrcoll(%rip), %rdx
	movq	%rcx, %rsi
	movq	%rax, %rdi
	call	cmp_size
.L826:
	.loc 4 3884 1
	leave
	.cfi_def_cfa 7, 8
	ret
	.cfi_endproc
.LFE181:
	.size	rev_xstrcoll_df_size, .-rev_xstrcoll_df_size
	.type	rev_strcmp_df_size, @function
rev_strcmp_df_size:
.LFB182:
	.loc 4 3884 1 is_stmt 1
	.cfi_startproc
	endbr64
	pushq	%rbp
	.cfi_def_cfa_offset 16
	.cfi_offset 6, -16
	movq	%rsp, %rbp
	.cfi_def_cfa_register 6
	subq	$32, %rsp
	movq	%rdi, -24(%rbp)
	movq	%rsi, -32(%rbp)
.LBB98:
	.loc 4 3884 1
	movq	-24(%rbp), %rax
	movq	%rax, %rdi
	call	is_linked_directory
	movb	%al, -2(%rbp)
	movq	-32(%rbp), %rax
	movq	%rax, %rdi
	call	is_linked_directory
	movb	%al, -1(%rbp)
	cmpb	$0, -2(%rbp)
	je	.L829
	.loc 4 3884 1 is_stmt 0 discriminator 1
	movzbl	-1(%rbp), %eax
	xorl	$1, %eax
	testb	%al, %al
	je	.L829
	.loc 4 3884 1 discriminator 3
	movl	$-1, %eax
	jmp	.L830
.L829:
	.loc 4 3884 1 discriminator 4
	movzbl	-2(%rbp), %eax
	xorl	$1, %eax
	testb	%al, %al
	je	.L831
	.loc 4 3884 1 discriminator 5
	cmpb	$0, -1(%rbp)
	je	.L831
	.loc 4 3884 1 discriminator 7
	movl	$1, %eax
	jmp	.L830
.L831:
.LBE98:
	.loc 4 3884 1 discriminator 8
	movq	-24(%rbp), %rcx
	movq	-32(%rbp), %rax
	movq	strcmp@GOTPCREL(%rip), %rdx
	movq	%rcx, %rsi
	movq	%rax, %rdi
	call	cmp_size
.L830:
	.loc 4 3884 1
	leave
	.cfi_def_cfa 7, 8
	ret
	.cfi_endproc
.LFE182:
	.size	rev_strcmp_df_size, .-rev_strcmp_df_size
	.type	xstrcoll_name, @function
xstrcoll_name:
.LFB183:
	.loc 4 3885 1 is_stmt 1
	.cfi_startproc
	endbr64
	pushq	%rbp
	.cfi_def_cfa_offset 16
	.cfi_offset 6, -16
	movq	%rsp, %rbp
	.cfi_def_cfa_register 6
	subq	$16, %rsp
	movq	%rdi, -8(%rbp)
	movq	%rsi, -16(%rbp)
	.loc 4 3885 1
	movq	-16(%rbp), %rcx
	movq	-8(%rbp), %rax
	leaq	xstrcoll(%rip), %rdx
	movq	%rcx, %rsi
	movq	%rax, %rdi
	call	cmp_name
	leave
	.cfi_def_cfa 7, 8
	ret
	.cfi_endproc
.LFE183:
	.size	xstrcoll_name, .-xstrcoll_name
	.type	strcmp_name, @function
strcmp_name:
.LFB184:
	.loc 4 3885 1
	.cfi_startproc
	endbr64
	pushq	%rbp
	.cfi_def_cfa_offset 16
	.cfi_offset 6, -16
	movq	%rsp, %rbp
	.cfi_def_cfa_register 6
	subq	$16, %rsp
	movq	%rdi, -8(%rbp)
	movq	%rsi, -16(%rbp)
	.loc 4 3885 1
	movq	-16(%rbp), %rcx
	movq	-8(%rbp), %rax
	movq	strcmp@GOTPCREL(%rip), %rdx
	movq	%rcx, %rsi
	movq	%rax, %rdi
	call	cmp_name
	leave
	.cfi_def_cfa 7, 8
	ret
	.cfi_endproc
.LFE184:
	.size	strcmp_name, .-strcmp_name
	.type	rev_xstrcoll_name, @function
rev_xstrcoll_name:
.LFB185:
	.loc 4 3885 1
	.cfi_startproc
	endbr64
	pushq	%rbp
	.cfi_def_cfa_offset 16
	.cfi_offset 6, -16
	movq	%rsp, %rbp
	.cfi_def_cfa_register 6
	subq	$16, %rsp
	movq	%rdi, -8(%rbp)
	movq	%rsi, -16(%rbp)
	.loc 4 3885 1
	movq	-8(%rbp), %rcx
	movq	-16(%rbp), %rax
	leaq	xstrcoll(%rip), %rdx
	movq	%rcx, %rsi
	movq	%rax, %rdi
	call	cmp_name
	leave
	.cfi_def_cfa 7, 8
	ret
	.cfi_endproc
.LFE185:
	.size	rev_xstrcoll_name, .-rev_xstrcoll_name
	.type	rev_strcmp_name, @function
rev_strcmp_name:
.LFB186:
	.loc 4 3885 1
	.cfi_startproc
	endbr64
	pushq	%rbp
	.cfi_def_cfa_offset 16
	.cfi_offset 6, -16
	movq	%rsp, %rbp
	.cfi_def_cfa_register 6
	subq	$16, %rsp
	movq	%rdi, -8(%rbp)
	movq	%rsi, -16(%rbp)
	.loc 4 3885 1
	movq	-8(%rbp), %rcx
	movq	-16(%rbp), %rax
	movq	strcmp@GOTPCREL(%rip), %rdx
	movq	%rcx, %rsi
	movq	%rax, %rdi
	call	cmp_name
	leave
	.cfi_def_cfa 7, 8
	ret
	.cfi_endproc
.LFE186:
	.size	rev_strcmp_name, .-rev_strcmp_name
	.type	xstrcoll_df_name, @function
xstrcoll_df_name:
.LFB187:
	.loc 4 3885 1
	.cfi_startproc
	endbr64
	pushq	%rbp
	.cfi_def_cfa_offset 16
	.cfi_offset 6, -16
	movq	%rsp, %rbp
	.cfi_def_cfa_register 6
	subq	$32, %rsp
	movq	%rdi, -24(%rbp)
	movq	%rsi, -32(%rbp)
.LBB99:
	.loc 4 3885 1
	movq	-24(%rbp), %rax
	movq	%rax, %rdi
	call	is_linked_directory
	movb	%al, -2(%rbp)
	movq	-32(%rbp), %rax
	movq	%rax, %rdi
	call	is_linked_directory
	movb	%al, -1(%rbp)
	cmpb	$0, -2(%rbp)
	je	.L841
	.loc 4 3885 1 is_stmt 0 discriminator 1
	movzbl	-1(%rbp), %eax
	xorl	$1, %eax
	testb	%al, %al
	je	.L841
	.loc 4 3885 1 discriminator 3
	movl	$-1, %eax
	jmp	.L842
.L841:
	.loc 4 3885 1 discriminator 4
	movzbl	-2(%rbp), %eax
	xorl	$1, %eax
	testb	%al, %al
	je	.L843
	.loc 4 3885 1 discriminator 5
	cmpb	$0, -1(%rbp)
	je	.L843
	.loc 4 3885 1 discriminator 7
	movl	$1, %eax
	jmp	.L842
.L843:
.LBE99:
	.loc 4 3885 1 discriminator 8
	movq	-32(%rbp), %rcx
	movq	-24(%rbp), %rax
	leaq	xstrcoll(%rip), %rdx
	movq	%rcx, %rsi
	movq	%rax, %rdi
	call	cmp_name
.L842:
	.loc 4 3885 1
	leave
	.cfi_def_cfa 7, 8
	ret
	.cfi_endproc
.LFE187:
	.size	xstrcoll_df_name, .-xstrcoll_df_name
	.type	strcmp_df_name, @function
strcmp_df_name:
.LFB188:
	.loc 4 3885 1 is_stmt 1
	.cfi_startproc
	endbr64
	pushq	%rbp
	.cfi_def_cfa_offset 16
	.cfi_offset 6, -16
	movq	%rsp, %rbp
	.cfi_def_cfa_register 6
	subq	$32, %rsp
	movq	%rdi, -24(%rbp)
	movq	%rsi, -32(%rbp)
.LBB100:
	.loc 4 3885 1
	movq	-24(%rbp), %rax
	movq	%rax, %rdi
	call	is_linked_directory
	movb	%al, -2(%rbp)
	movq	-32(%rbp), %rax
	movq	%rax, %rdi
	call	is_linked_directory
	movb	%al, -1(%rbp)
	cmpb	$0, -2(%rbp)
	je	.L845
	.loc 4 3885 1 is_stmt 0 discriminator 1
	movzbl	-1(%rbp), %eax
	xorl	$1, %eax
	testb	%al, %al
	je	.L845
	.loc 4 3885 1 discriminator 3
	movl	$-1, %eax
	jmp	.L846
.L845:
	.loc 4 3885 1 discriminator 4
	movzbl	-2(%rbp), %eax
	xorl	$1, %eax
	testb	%al, %al
	je	.L847
	.loc 4 3885 1 discriminator 5
	cmpb	$0, -1(%rbp)
	je	.L847
	.loc 4 3885 1 discriminator 7
	movl	$1, %eax
	jmp	.L846
.L847:
.LBE100:
	.loc 4 3885 1 discriminator 8
	movq	-32(%rbp), %rcx
	movq	-24(%rbp), %rax
	movq	strcmp@GOTPCREL(%rip), %rdx
	movq	%rcx, %rsi
	movq	%rax, %rdi
	call	cmp_name
.L846:
	.loc 4 3885 1
	leave
	.cfi_def_cfa 7, 8
	ret
	.cfi_endproc
.LFE188:
	.size	strcmp_df_name, .-strcmp_df_name
	.type	rev_xstrcoll_df_name, @function
rev_xstrcoll_df_name:
.LFB189:
	.loc 4 3885 1 is_stmt 1
	.cfi_startproc
	endbr64
	pushq	%rbp
	.cfi_def_cfa_offset 16
	.cfi_offset 6, -16
	movq	%rsp, %rbp
	.cfi_def_cfa_register 6
	subq	$32, %rsp
	movq	%rdi, -24(%rbp)
	movq	%rsi, -32(%rbp)
.LBB101:
	.loc 4 3885 1
	movq	-24(%rbp), %rax
	movq	%rax, %rdi
	call	is_linked_directory
	movb	%al, -2(%rbp)
	movq	-32(%rbp), %rax
	movq	%rax, %rdi
	call	is_linked_directory
	movb	%al, -1(%rbp)
	cmpb	$0, -2(%rbp)
	je	.L849
	.loc 4 3885 1 is_stmt 0 discriminator 1
	movzbl	-1(%rbp), %eax
	xorl	$1, %eax
	testb	%al, %al
	je	.L849
	.loc 4 3885 1 discriminator 3
	movl	$-1, %eax
	jmp	.L850
.L849:
	.loc 4 3885 1 discriminator 4
	movzbl	-2(%rbp), %eax
	xorl	$1, %eax
	testb	%al, %al
	je	.L851
	.loc 4 3885 1 discriminator 5
	cmpb	$0, -1(%rbp)
	je	.L851
	.loc 4 3885 1 discriminator 7
	movl	$1, %eax
	jmp	.L850
.L851:
.LBE101:
	.loc 4 3885 1 discriminator 8
	movq	-24(%rbp), %rcx
	movq	-32(%rbp), %rax
	leaq	xstrcoll(%rip), %rdx
	movq	%rcx, %rsi
	movq	%rax, %rdi
	call	cmp_name
.L850:
	.loc 4 3885 1
	leave
	.cfi_def_cfa 7, 8
	ret
	.cfi_endproc
.LFE189:
	.size	rev_xstrcoll_df_name, .-rev_xstrcoll_df_name
	.type	rev_strcmp_df_name, @function
rev_strcmp_df_name:
.LFB190:
	.loc 4 3885 1 is_stmt 1
	.cfi_startproc
	endbr64
	pushq	%rbp
	.cfi_def_cfa_offset 16
	.cfi_offset 6, -16
	movq	%rsp, %rbp
	.cfi_def_cfa_register 6
	subq	$32, %rsp
	movq	%rdi, -24(%rbp)
	movq	%rsi, -32(%rbp)
.LBB102:
	.loc 4 3885 1
	movq	-24(%rbp), %rax
	movq	%rax, %rdi
	call	is_linked_directory
	movb	%al, -2(%rbp)
	movq	-32(%rbp), %rax
	movq	%rax, %rdi
	call	is_linked_directory
	movb	%al, -1(%rbp)
	cmpb	$0, -2(%rbp)
	je	.L853
	.loc 4 3885 1 is_stmt 0 discriminator 1
	movzbl	-1(%rbp), %eax
	xorl	$1, %eax
	testb	%al, %al
	je	.L853
	.loc 4 3885 1 discriminator 3
	movl	$-1, %eax
	jmp	.L854
.L853:
	.loc 4 3885 1 discriminator 4
	movzbl	-2(%rbp), %eax
	xorl	$1, %eax
	testb	%al, %al
	je	.L855
	.loc 4 3885 1 discriminator 5
	cmpb	$0, -1(%rbp)
	je	.L855
	.loc 4 3885 1 discriminator 7
	movl	$1, %eax
	jmp	.L854
.L855:
.LBE102:
	.loc 4 3885 1 discriminator 8
	movq	-24(%rbp), %rcx
	movq	-32(%rbp), %rax
	movq	strcmp@GOTPCREL(%rip), %rdx
	movq	%rcx, %rsi
	movq	%rax, %rdi
	call	cmp_name
.L854:
	.loc 4 3885 1
	leave
	.cfi_def_cfa 7, 8
	ret
	.cfi_endproc
.LFE190:
	.size	rev_strcmp_df_name, .-rev_strcmp_df_name
	.type	xstrcoll_extension, @function
xstrcoll_extension:
.LFB191:
	.loc 4 3886 1 is_stmt 1
	.cfi_startproc
	endbr64
	pushq	%rbp
	.cfi_def_cfa_offset 16
	.cfi_offset 6, -16
	movq	%rsp, %rbp
	.cfi_def_cfa_register 6
	subq	$16, %rsp
	movq	%rdi, -8(%rbp)
	movq	%rsi, -16(%rbp)
	.loc 4 3886 1
	movq	-16(%rbp), %rcx
	movq	-8(%rbp), %rax
	leaq	xstrcoll(%rip), %rdx
	movq	%rcx, %rsi
	movq	%rax, %rdi
	call	cmp_extension
	leave
	.cfi_def_cfa 7, 8
	ret
	.cfi_endproc
.LFE191:
	.size	xstrcoll_extension, .-xstrcoll_extension
	.type	strcmp_extension, @function
strcmp_extension:
.LFB192:
	.loc 4 3886 1
	.cfi_startproc
	endbr64
	pushq	%rbp
	.cfi_def_cfa_offset 16
	.cfi_offset 6, -16
	movq	%rsp, %rbp
	.cfi_def_cfa_register 6
	subq	$16, %rsp
	movq	%rdi, -8(%rbp)
	movq	%rsi, -16(%rbp)
	.loc 4 3886 1
	movq	-16(%rbp), %rcx
	movq	-8(%rbp), %rax
	movq	strcmp@GOTPCREL(%rip), %rdx
	movq	%rcx, %rsi
	movq	%rax, %rdi
	call	cmp_extension
	leave
	.cfi_def_cfa 7, 8
	ret
	.cfi_endproc
.LFE192:
	.size	strcmp_extension, .-strcmp_extension
	.type	rev_xstrcoll_extension, @function
rev_xstrcoll_extension:
.LFB193:
	.loc 4 3886 1
	.cfi_startproc
	endbr64
	pushq	%rbp
	.cfi_def_cfa_offset 16
	.cfi_offset 6, -16
	movq	%rsp, %rbp
	.cfi_def_cfa_register 6
	subq	$16, %rsp
	movq	%rdi, -8(%rbp)
	movq	%rsi, -16(%rbp)
	.loc 4 3886 1
	movq	-8(%rbp), %rcx
	movq	-16(%rbp), %rax
	leaq	xstrcoll(%rip), %rdx
	movq	%rcx, %rsi
	movq	%rax, %rdi
	call	cmp_extension
	leave
	.cfi_def_cfa 7, 8
	ret
	.cfi_endproc
.LFE193:
	.size	rev_xstrcoll_extension, .-rev_xstrcoll_extension
	.type	rev_strcmp_extension, @function
rev_strcmp_extension:
.LFB194:
	.loc 4 3886 1
	.cfi_startproc
	endbr64
	pushq	%rbp
	.cfi_def_cfa_offset 16
	.cfi_offset 6, -16
	movq	%rsp, %rbp
	.cfi_def_cfa_register 6
	subq	$16, %rsp
	movq	%rdi, -8(%rbp)
	movq	%rsi, -16(%rbp)
	.loc 4 3886 1
	movq	-8(%rbp), %rcx
	movq	-16(%rbp), %rax
	movq	strcmp@GOTPCREL(%rip), %rdx
	movq	%rcx, %rsi
	movq	%rax, %rdi
	call	cmp_extension
	leave
	.cfi_def_cfa 7, 8
	ret
	.cfi_endproc
.LFE194:
	.size	rev_strcmp_extension, .-rev_strcmp_extension
	.type	xstrcoll_df_extension, @function
xstrcoll_df_extension:
.LFB195:
	.loc 4 3886 1
	.cfi_startproc
	endbr64
	pushq	%rbp
	.cfi_def_cfa_offset 16
	.cfi_offset 6, -16
	movq	%rsp, %rbp
	.cfi_def_cfa_register 6
	subq	$32, %rsp
	movq	%rdi, -24(%rbp)
	movq	%rsi, -32(%rbp)
.LBB103:
	.loc 4 3886 1
	movq	-24(%rbp), %rax
	movq	%rax, %rdi
	call	is_linked_directory
	movb	%al, -2(%rbp)
	movq	-32(%rbp), %rax
	movq	%rax, %rdi
	call	is_linked_directory
	movb	%al, -1(%rbp)
	cmpb	$0, -2(%rbp)
	je	.L865
	.loc 4 3886 1 is_stmt 0 discriminator 1
	movzbl	-1(%rbp), %eax
	xorl	$1, %eax
	testb	%al, %al
	je	.L865
	.loc 4 3886 1 discriminator 3
	movl	$-1, %eax
	jmp	.L866
.L865:
	.loc 4 3886 1 discriminator 4
	movzbl	-2(%rbp), %eax
	xorl	$1, %eax
	testb	%al, %al
	je	.L867
	.loc 4 3886 1 discriminator 5
	cmpb	$0, -1(%rbp)
	je	.L867
	.loc 4 3886 1 discriminator 7
	movl	$1, %eax
	jmp	.L866
.L867:
.LBE103:
	.loc 4 3886 1 discriminator 8
	movq	-32(%rbp), %rcx
	movq	-24(%rbp), %rax
	leaq	xstrcoll(%rip), %rdx
	movq	%rcx, %rsi
	movq	%rax, %rdi
	call	cmp_extension
.L866:
	.loc 4 3886 1
	leave
	.cfi_def_cfa 7, 8
	ret
	.cfi_endproc
.LFE195:
	.size	xstrcoll_df_extension, .-xstrcoll_df_extension
	.type	strcmp_df_extension, @function
strcmp_df_extension:
.LFB196:
	.loc 4 3886 1 is_stmt 1
	.cfi_startproc
	endbr64
	pushq	%rbp
	.cfi_def_cfa_offset 16
	.cfi_offset 6, -16
	movq	%rsp, %rbp
	.cfi_def_cfa_register 6
	subq	$32, %rsp
	movq	%rdi, -24(%rbp)
	movq	%rsi, -32(%rbp)
.LBB104:
	.loc 4 3886 1
	movq	-24(%rbp), %rax
	movq	%rax, %rdi
	call	is_linked_directory
	movb	%al, -2(%rbp)
	movq	-32(%rbp), %rax
	movq	%rax, %rdi
	call	is_linked_directory
	movb	%al, -1(%rbp)
	cmpb	$0, -2(%rbp)
	je	.L869
	.loc 4 3886 1 is_stmt 0 discriminator 1
	movzbl	-1(%rbp), %eax
	xorl	$1, %eax
	testb	%al, %al
	je	.L869
	.loc 4 3886 1 discriminator 3
	movl	$-1, %eax
	jmp	.L870
.L869:
	.loc 4 3886 1 discriminator 4
	movzbl	-2(%rbp), %eax
	xorl	$1, %eax
	testb	%al, %al
	je	.L871
	.loc 4 3886 1 discriminator 5
	cmpb	$0, -1(%rbp)
	je	.L871
	.loc 4 3886 1 discriminator 7
	movl	$1, %eax
	jmp	.L870
.L871:
.LBE104:
	.loc 4 3886 1 discriminator 8
	movq	-32(%rbp), %rcx
	movq	-24(%rbp), %rax
	movq	strcmp@GOTPCREL(%rip), %rdx
	movq	%rcx, %rsi
	movq	%rax, %rdi
	call	cmp_extension
.L870:
	.loc 4 3886 1
	leave
	.cfi_def_cfa 7, 8
	ret
	.cfi_endproc
.LFE196:
	.size	strcmp_df_extension, .-strcmp_df_extension
	.type	rev_xstrcoll_df_extension, @function
rev_xstrcoll_df_extension:
.LFB197:
	.loc 4 3886 1 is_stmt 1
	.cfi_startproc
	endbr64
	pushq	%rbp
	.cfi_def_cfa_offset 16
	.cfi_offset 6, -16
	movq	%rsp, %rbp
	.cfi_def_cfa_register 6
	subq	$32, %rsp
	movq	%rdi, -24(%rbp)
	movq	%rsi, -32(%rbp)
.LBB105:
	.loc 4 3886 1
	movq	-24(%rbp), %rax
	movq	%rax, %rdi
	call	is_linked_directory
	movb	%al, -2(%rbp)
	movq	-32(%rbp), %rax
	movq	%rax, %rdi
	call	is_linked_directory
	movb	%al, -1(%rbp)
	cmpb	$0, -2(%rbp)
	je	.L873
	.loc 4 3886 1 is_stmt 0 discriminator 1
	movzbl	-1(%rbp), %eax
	xorl	$1, %eax
	testb	%al, %al
	je	.L873
	.loc 4 3886 1 discriminator 3
	movl	$-1, %eax
	jmp	.L874
.L873:
	.loc 4 3886 1 discriminator 4
	movzbl	-2(%rbp), %eax
	xorl	$1, %eax
	testb	%al, %al
	je	.L875
	.loc 4 3886 1 discriminator 5
	cmpb	$0, -1(%rbp)
	je	.L875
	.loc 4 3886 1 discriminator 7
	movl	$1, %eax
	jmp	.L874
.L875:
.LBE105:
	.loc 4 3886 1 discriminator 8
	movq	-24(%rbp), %rcx
	movq	-32(%rbp), %rax
	leaq	xstrcoll(%rip), %rdx
	movq	%rcx, %rsi
	movq	%rax, %rdi
	call	cmp_extension
.L874:
	.loc 4 3886 1
	leave
	.cfi_def_cfa 7, 8
	ret
	.cfi_endproc
.LFE197:
	.size	rev_xstrcoll_df_extension, .-rev_xstrcoll_df_extension
	.type	rev_strcmp_df_extension, @function
rev_strcmp_df_extension:
.LFB198:
	.loc 4 3886 1 is_stmt 1
	.cfi_startproc
	endbr64
	pushq	%rbp
	.cfi_def_cfa_offset 16
	.cfi_offset 6, -16
	movq	%rsp, %rbp
	.cfi_def_cfa_register 6
	subq	$32, %rsp
	movq	%rdi, -24(%rbp)
	movq	%rsi, -32(%rbp)
.LBB106:
	.loc 4 3886 1
	movq	-24(%rbp), %rax
	movq	%rax, %rdi
	call	is_linked_directory
	movb	%al, -2(%rbp)
	movq	-32(%rbp), %rax
	movq	%rax, %rdi
	call	is_linked_directory
	movb	%al, -1(%rbp)
	cmpb	$0, -2(%rbp)
	je	.L877
	.loc 4 3886 1 is_stmt 0 discriminator 1
	movzbl	-1(%rbp), %eax
	xorl	$1, %eax
	testb	%al, %al
	je	.L877
	.loc 4 3886 1 discriminator 3
	movl	$-1, %eax
	jmp	.L878
.L877:
	.loc 4 3886 1 discriminator 4
	movzbl	-2(%rbp), %eax
	xorl	$1, %eax
	testb	%al, %al
	je	.L879
	.loc 4 3886 1 discriminator 5
	cmpb	$0, -1(%rbp)
	je	.L879
	.loc 4 3886 1 discriminator 7
	movl	$1, %eax
	jmp	.L878
.L879:
.LBE106:
	.loc 4 3886 1 discriminator 8
	movq	-24(%rbp), %rcx
	movq	-32(%rbp), %rax
	movq	strcmp@GOTPCREL(%rip), %rdx
	movq	%rcx, %rsi
	movq	%rax, %rdi
	call	cmp_extension
.L878:
	.loc 4 3886 1
	leave
	.cfi_def_cfa 7, 8
	ret
	.cfi_endproc
.LFE198:
	.size	rev_strcmp_df_extension, .-rev_strcmp_df_extension
	.type	cmp_version, @function
cmp_version:
.LFB199:
	.loc 4 3899 1 is_stmt 1
	.cfi_startproc
	pushq	%rbp
	.cfi_def_cfa_offset 16
	.cfi_offset 6, -16
	movq	%rsp, %rbp
	.cfi_def_cfa_register 6
	subq	$16, %rsp
	movq	%rdi, -8(%rbp)
	movq	%rsi, -16(%rbp)
	.loc 4 3900 32
	movq	-16(%rbp), %rax
	movq	(%rax), %rdx
	.loc 4 3900 23
	movq	-8(%rbp), %rax
	movq	(%rax), %rax
	.loc 4 3900 10
	movq	%rdx, %rsi
	movq	%rax, %rdi
	call	filevercmp@PLT
	.loc 4 3901 1
	leave
	.cfi_def_cfa 7, 8
	ret
	.cfi_endproc
.LFE199:
	.size	cmp_version, .-cmp_version
	.type	xstrcoll_version, @function
xstrcoll_version:
.LFB200:
	.loc 4 3904 1
	.cfi_startproc
	endbr64
	pushq	%rbp
	.cfi_def_cfa_offset 16
	.cfi_offset 6, -16
	movq	%rsp, %rbp
	.cfi_def_cfa_register 6
	subq	$16, %rsp
	movq	%rdi, -8(%rbp)
	movq	%rsi, -16(%rbp)
	.loc 4 3904 10
	movq	-16(%rbp), %rdx
	movq	-8(%rbp), %rax
	movq	%rdx, %rsi
	movq	%rax, %rdi
	call	cmp_version
	.loc 4 3904 30
	leave
	.cfi_def_cfa 7, 8
	ret
	.cfi_endproc
.LFE200:
	.size	xstrcoll_version, .-xstrcoll_version
	.type	rev_xstrcoll_version, @function
rev_xstrcoll_version:
.LFB201:
	.loc 4 3906 1
	.cfi_startproc
	endbr64
	pushq	%rbp
	.cfi_def_cfa_offset 16
	.cfi_offset 6, -16
	movq	%rsp, %rbp
	.cfi_def_cfa_register 6
	subq	$16, %rsp
	movq	%rdi, -8(%rbp)
	movq	%rsi, -16(%rbp)
	.loc 4 3906 10
	movq	-8(%rbp), %rdx
	movq	-16(%rbp), %rax
	movq	%rdx, %rsi
	movq	%rax, %rdi
	call	cmp_version
	.loc 4 3906 30
	leave
	.cfi_def_cfa 7, 8
	ret
	.cfi_endproc
.LFE201:
	.size	rev_xstrcoll_version, .-rev_xstrcoll_version
	.type	xstrcoll_df_version, @function
xstrcoll_df_version:
.LFB202:
	.loc 4 3908 1
	.cfi_startproc
	endbr64
	pushq	%rbp
	.cfi_def_cfa_offset 16
	.cfi_offset 6, -16
	movq	%rsp, %rbp
	.cfi_def_cfa_register 6
	subq	$32, %rsp
	movq	%rdi, -24(%rbp)
	movq	%rsi, -32(%rbp)
.LBB107:
	.loc 4 3908 3
	movq	-24(%rbp), %rax
	movq	%rax, %rdi
	call	is_linked_directory
	movb	%al, -2(%rbp)
	movq	-32(%rbp), %rax
	movq	%rax, %rdi
	call	is_linked_directory
	movb	%al, -1(%rbp)
	cmpb	$0, -2(%rbp)
	je	.L887
	.loc 4 3908 3 is_stmt 0 discriminator 1
	movzbl	-1(%rbp), %eax
	xorl	$1, %eax
	testb	%al, %al
	je	.L887
	.loc 4 3908 3 discriminator 3
	movl	$-1, %eax
	jmp	.L888
.L887:
	.loc 4 3908 3 discriminator 4
	movzbl	-2(%rbp), %eax
	xorl	$1, %eax
	testb	%al, %al
	je	.L889
	.loc 4 3908 3 discriminator 5
	cmpb	$0, -1(%rbp)
	je	.L889
	.loc 4 3908 3 discriminator 7
	movl	$1, %eax
	jmp	.L888
.L889:
.LBE107:
	.loc 4 3908 33 is_stmt 1 discriminator 8
	movq	-32(%rbp), %rdx
	movq	-24(%rbp), %rax
	movq	%rdx, %rsi
	movq	%rax, %rdi
