	.file	"mkfifo.c"
	.text
.Ltext0:
	.section	.rodata
	.align 8
.LC0:
	.string	"\nMandatory arguments to long options are mandatory for short options too.\n"
	.text
	.type	emit_mandatory_arg_note, @function
emit_mandatory_arg_note:
.LFB36:
	.file 1 "src/system.h"
	.loc 1 589 1
	.cfi_startproc
	pushq	%rbp
	.cfi_def_cfa_offset 16
	.cfi_offset 6, -16
	movq	%rsp, %rbp
	.cfi_def_cfa_register 6
	pushq	%rbx
	subq	$8, %rsp
	.cfi_offset 3, -24
	.loc 1 590 3
	movq	stdout(%rip), %rbx
	leaq	.LC0(%rip), %rdi
	call	gettext@PLT
	movq	%rbx, %rsi
	movq	%rax, %rdi
	call	fputs_unlocked@PLT
	.loc 1 593 1
	nop
	addq	$8, %rsp
	popq	%rbx
	popq	%rbp
	.cfi_def_cfa 7, 8
	ret
	.cfi_endproc
.LFE36:
	.size	emit_mandatory_arg_note, .-emit_mandatory_arg_note
	.section	.rodata
.LC1:
	.string	"["
.LC2:
	.string	"test invocation"
.LC3:
	.string	"coreutils"
.LC4:
	.string	"Multi-call invocation"
.LC5:
	.string	"sha224sum"
.LC6:
	.string	"sha2 utilities"
.LC7:
	.string	"sha256sum"
.LC8:
	.string	"sha384sum"
.LC9:
	.string	"sha512sum"
.LC10:
	.string	"\n%s online help: <%s>\n"
	.align 8
.LC11:
	.string	"https://www.gnu.org/software/coreutils/"
.LC12:
	.string	"GNU coreutils"
.LC13:
	.string	"en_"
	.align 8
.LC14:
	.string	"Report any translation bugs to <https://translationproject.org/team/>\n"
.LC15:
	.string	"Full documentation <%s%s>\n"
.LC16:
	.string	" invocation"
.LC17:
	.string	""
	.align 8
.LC18:
	.string	"or available locally via: info '(coreutils) %s%s'\n"
	.text
	.type	emit_ancillary_info, @function
emit_ancillary_info:
.LFB40:
	.loc 1 635 1
	.cfi_startproc
	pushq	%rbp
	.cfi_def_cfa_offset 16
	.cfi_offset 6, -16
	movq	%rsp, %rbp
	.cfi_def_cfa_register 6
	pushq	%rbx
	subq	$184, %rsp
	.cfi_offset 3, -24
	movq	%rdi, -184(%rbp)
	.loc 1 635 1
	movq	%fs:40, %rax
	movq	%rax, -24(%rbp)
	xorl	%eax, %eax
	.loc 1 636 67
	leaq	.LC1(%rip), %rax
	movq	%rax, -144(%rbp)
	leaq	.LC2(%rip), %rax
	movq	%rax, -136(%rbp)
	leaq	.LC3(%rip), %rax
	movq	%rax, -128(%rbp)
	leaq	.LC4(%rip), %rax
	movq	%rax, -120(%rbp)
	leaq	.LC5(%rip), %rax
	movq	%rax, -112(%rbp)
	leaq	.LC6(%rip), %rax
	movq	%rax, -104(%rbp)
	leaq	.LC7(%rip), %rax
	movq	%rax, -96(%rbp)
	leaq	.LC6(%rip), %rax
	movq	%rax, -88(%rbp)
	leaq	.LC8(%rip), %rax
	movq	%rax, -80(%rbp)
	leaq	.LC6(%rip), %rax
	movq	%rax, -72(%rbp)
	leaq	.LC9(%rip), %rax
	movq	%rax, -64(%rbp)
	leaq	.LC6(%rip), %rax
	movq	%rax, -56(%rbp)
	movq	$0, -48(%rbp)
	movq	$0, -40(%rbp)
	.loc 1 646 15
	movq	-184(%rbp), %rax
	movq	%rax, -168(%rbp)
	.loc 1 647 25
	leaq	-144(%rbp), %rax
	movq	%rax, -160(%rbp)
	.loc 1 649 9
	jmp	.L3
.L5:
	.loc 1 650 13
	addq	$16, -160(%rbp)
.L3:
	.loc 1 649 18
	movq	-160(%rbp), %rax
	movq	(%rax), %rax
	.loc 1 649 9
	testq	%rax, %rax
	je	.L4
	.loc 1 649 33 discriminator 1
	movq	-160(%rbp), %rax
	movq	(%rax), %rdx
	movq	-184(%rbp), %rax
	movq	%rdx, %rsi
	movq	%rax, %rdi
	call	strcmp@PLT
	.loc 1 649 28 discriminator 1
	testl	%eax, %eax
	jne	.L5
.L4:
	.loc 1 652 15
	movq	-160(%rbp), %rax
	movq	8(%rax), %rax
	.loc 1 652 6
	testq	%rax, %rax
	je	.L6
	.loc 1 653 10
	movq	-160(%rbp), %rax
	movq	8(%rax), %rax
	movq	%rax, -168(%rbp)
.L6:
	.loc 1 655 11
	leaq	.LC10(%rip), %rdi
	call	gettext@PLT
	.loc 1 655 3
	leaq	.LC11(%rip), %rdx
	leaq	.LC12(%rip), %rsi
	movq	%rax, %rdi
	movl	$0, %eax
	call	printf@PLT
	.loc 1 659 29
	movl	$0, %esi
	movl	$5, %edi
	call	setlocale@PLT
	movq	%rax, -152(%rbp)
	.loc 1 660 6
	cmpq	$0, -152(%rbp)
	je	.L7
	.loc 1 660 22 discriminator 1
	movq	-152(%rbp), %rax
	movl	$3, %edx
	leaq	.LC13(%rip), %rsi
	movq	%rax, %rdi
	call	strncmp@PLT
	.loc 1 660 19 discriminator 1
	testl	%eax, %eax
	je	.L7
	.loc 1 666 7
	movq	stdout(%rip), %rbx
	leaq	.LC14(%rip), %rdi
	call	gettext@PLT
	movq	%rbx, %rsi
	movq	%rax, %rdi
	call	fputs_unlocked@PLT
.L7:
	.loc 1 669 11
	leaq	.LC15(%rip), %rdi
	call	gettext@PLT
	movq	%rax, %rcx
	.loc 1 669 3
	movq	-184(%rbp), %rax
	movq	%rax, %rdx
	leaq	.LC11(%rip), %rsi
	movq	%rcx, %rdi
	movl	$0, %eax
	call	printf@PLT
	.loc 1 671 3
	movq	-168(%rbp), %rax
	cmpq	-184(%rbp), %rax
	jne	.L8
	.loc 1 671 3 is_stmt 0 discriminator 1
	leaq	.LC16(%rip), %rbx
	jmp	.L9
.L8:
	.loc 1 671 3 discriminator 2
	leaq	.LC17(%rip), %rbx
.L9:
	.loc 1 671 11 is_stmt 1 discriminator 4
	leaq	.LC18(%rip), %rdi
	call	gettext@PLT
	movq	%rax, %rcx
	.loc 1 671 3 discriminator 4
	movq	-168(%rbp), %rax
	movq	%rbx, %rdx
	movq	%rax, %rsi
	movq	%rcx, %rdi
	movl	$0, %eax
	call	printf@PLT
	.loc 1 673 1 discriminator 4
	nop
	movq	-24(%rbp), %rax
	xorq	%fs:40, %rax
	je	.L10
	.loc 1 673 1 is_stmt 0
	call	__stack_chk_fail@PLT
.L10:
	addq	$184, %rsp
	popq	%rbx
	popq	%rbp
	.cfi_def_cfa 7, 8
	ret
	.cfi_endproc
.LFE40:
	.size	emit_ancillary_info, .-emit_ancillary_info
	.type	smack_set_label_for_self, @function
smack_set_label_for_self:
.LFB48:
	.file 2 "./lib/smack.h"
	.loc 2 33 1 is_stmt 1
	.cfi_startproc
	pushq	%rbp
	.cfi_def_cfa_offset 16
	.cfi_offset 6, -16
	movq	%rsp, %rbp
	.cfi_def_cfa_register 6
	movq	%rdi, -8(%rbp)
	.loc 2 34 10
	movl	$-1, %eax
	.loc 2 35 1
	popq	%rbp
	.cfi_def_cfa 7, 8
	ret
	.cfi_endproc
.LFE48:
	.size	smack_set_label_for_self, .-smack_set_label_for_self
	.type	is_smack_enabled, @function
is_smack_enabled:
.LFB49:
	.loc 2 40 1
	.cfi_startproc
	pushq	%rbp
	.cfi_def_cfa_offset 16
	.cfi_offset 6, -16
	movq	%rsp, %rbp
	.cfi_def_cfa_register 6
	.loc 2 44 10
	movl	$0, %eax
	.loc 2 46 1
	popq	%rbp
	.cfi_def_cfa 7, 8
	ret
	.cfi_endproc
.LFE49:
	.size	is_smack_enabled, .-is_smack_enabled
	.section	.rodata
.LC19:
	.string	"context"
.LC20:
	.string	"mode"
.LC21:
	.string	"help"
.LC22:
	.string	"version"
	.section	.data.rel.ro.local,"aw"
	.align 32
	.type	longopts, @object
	.size	longopts, 160
longopts:
	.quad	.LC19
	.long	2
	.zero	4
	.quad	0
	.long	90
	.zero	4
	.quad	.LC20
	.long	1
	.zero	4
	.quad	0
	.long	109
	.zero	4
	.quad	.LC21
	.long	0
	.zero	4
	.quad	0
	.long	-130
	.zero	4
	.quad	.LC22
	.long	0
	.zero	4
	.quad	0
	.long	-131
	.zero	4
	.quad	0
	.long	0
	.zero	4
	.quad	0
	.long	0
	.zero	4
	.section	.rodata
	.align 8
.LC23:
	.string	"Try '%s --help' for more information.\n"
	.align 8
.LC24:
	.string	"Usage: %s [OPTION]... NAME...\n"
	.align 8
.LC25:
	.string	"Create named pipes (FIFOs) with the given NAMEs.\n"
	.align 8
.LC26:
	.string	"  -m, --mode=MODE    set file permission bits to MODE, not a=rw - umask\n"
	.align 8
.LC27:
	.string	"  -Z                   set the SELinux security context to default type\n      --context[=CTX]  like -Z, or if CTX is specified then set the SELinux\n                         or SMACK security context to CTX\n"
	.align 8
.LC28:
	.string	"      --help     display this help and exit\n"
	.align 8
.LC29:
	.string	"      --version  output version information and exit\n"
.LC30:
	.string	"mkfifo"
	.text
	.globl	usage
	.type	usage, @function
usage:
.LFB50:
	.file 3 "src/mkfifo.c"
	.loc 3 49 1
	.cfi_startproc
	endbr64
	pushq	%rbp
	.cfi_def_cfa_offset 16
	.cfi_offset 6, -16
	movq	%rsp, %rbp
	.cfi_def_cfa_register 6
	pushq	%rbx
	subq	$24, %rsp
	.cfi_offset 3, -24
	movl	%edi, -20(%rbp)
	.loc 3 50 6
	cmpl	$0, -20(%rbp)
	je	.L16
	.loc 3 51 5
	movq	program_name(%rip), %rbx
	leaq	.LC23(%rip), %rdi
	call	gettext@PLT
	movq	%rax, %rcx
	movq	stderr(%rip), %rax
	movq	%rbx, %rdx
	movq	%rcx, %rsi
	movq	%rax, %rdi
	movl	$0, %eax
	call	fprintf@PLT
	jmp	.L17
.L16:
	.loc 3 54 7
	movq	program_name(%rip), %rbx
	.loc 3 54 15
	leaq	.LC24(%rip), %rdi
	call	gettext@PLT
	.loc 3 54 7
	movq	%rbx, %rsi
	movq	%rax, %rdi
	movl	$0, %eax
	call	printf@PLT
	.loc 3 55 7
	movq	stdout(%rip), %rbx
	leaq	.LC25(%rip), %rdi
	call	gettext@PLT
	movq	%rbx, %rsi
	movq	%rax, %rdi
	call	fputs_unlocked@PLT
	.loc 3 59 7
	call	emit_mandatory_arg_note
	.loc 3 61 7
	movq	stdout(%rip), %rbx
	leaq	.LC26(%rip), %rdi
	call	gettext@PLT
	movq	%rbx, %rsi
	movq	%rax, %rdi
	call	fputs_unlocked@PLT
	.loc 3 64 7
	movq	stdout(%rip), %rbx
	leaq	.LC27(%rip), %rdi
	call	gettext@PLT
	movq	%rbx, %rsi
	movq	%rax, %rdi
	call	fputs_unlocked@PLT
	.loc 3 69 7
	movq	stdout(%rip), %rbx
	leaq	.LC28(%rip), %rdi
	call	gettext@PLT
	movq	%rbx, %rsi
	movq	%rax, %rdi
	call	fputs_unlocked@PLT
	.loc 3 70 7
	movq	stdout(%rip), %rbx
	leaq	.LC29(%rip), %rdi
	call	gettext@PLT
	movq	%rbx, %rsi
	movq	%rax, %rdi
	call	fputs_unlocked@PLT
	.loc 3 71 7
	leaq	.LC30(%rip), %rdi
	call	emit_ancillary_info
.L17:
	.loc 3 73 3
	movl	-20(%rbp), %eax
	movl	%eax, %edi
	call	exit@PLT
	.cfi_endproc
.LFE50:
	.size	usage, .-usage
	.section	.rodata
.LC31:
	.string	"/usr/local/share/locale"
.LC32:
	.string	"warning: ignoring --context"
	.align 8
.LC33:
	.string	"warning: ignoring --context; it requires an SELinux/SMACK-enabled kernel"
.LC34:
	.string	"David MacKenzie"
.LC35:
	.string	"m:Z"
.LC36:
	.string	"missing operand"
	.align 8
.LC37:
	.string	"failed to set default file creation context to %s"
.LC38:
	.string	"invalid mode"
	.align 8
.LC39:
	.string	"mode must specify only file permission bits"
.LC40:
	.string	"cannot create fifo %s"
.LC41:
	.string	"cannot set permissions of %s"
	.text
	.globl	main
	.type	main, @function
main:
.LFB51:
	.loc 3 78 1
	.cfi_startproc
	endbr64
	pushq	%rbp
	.cfi_def_cfa_offset 16
	.cfi_offset 6, -16
	movq	%rsp, %rbp
	.cfi_def_cfa_register 6
	pushq	%r12
	pushq	%rbx
	subq	$80, %rsp
	.cfi_offset 12, -24
	.cfi_offset 3, -32
	movl	%edi, -84(%rbp)
	movq	%rsi, -96(%rbp)
	.loc 3 80 15
	movq	$0, -48(%rbp)
	.loc 3 81 7
	movl	$0, -64(%rbp)
	.loc 3 83 15
	movq	$0, -40(%rbp)
	.loc 3 84 26
	movq	$0, -32(%rbp)
	.loc 3 87 3
	movq	-96(%rbp), %rax
	movq	(%rax), %rax
	movq	%rax, %rdi
	call	set_program_name@PLT
	.loc 3 88 3
	leaq	.LC17(%rip), %rsi
	movl	$6, %edi
	call	setlocale@PLT
	.loc 3 89 3
	leaq	.LC31(%rip), %rsi
	leaq	.LC3(%rip), %rdi
	call	bindtextdomain@PLT
	.loc 3 90 3
	leaq	.LC3(%rip), %rdi
	call	textdomain@PLT
	.loc 3 92 3
	movq	close_stdout@GOTPCREL(%rip), %rax
	movq	%rax, %rdi
	call	atexit@PLT
	.loc 3 94 9
	jmp	.L19
.L29:
	.loc 3 96 7
	cmpl	$109, -56(%rbp)
	je	.L20
	cmpl	$109, -56(%rbp)
	jg	.L21
	cmpl	$90, -56(%rbp)
	je	.L22
	cmpl	$90, -56(%rbp)
	jg	.L21
	cmpl	$-131, -56(%rbp)
	je	.L23
	cmpl	$-130, -56(%rbp)
	je	.L24
	jmp	.L21
.L20:
	.loc 3 99 26
	movq	optarg(%rip), %rax
	movq	%rax, -48(%rbp)
	.loc 3 100 11
	jmp	.L19
.L22:
	.loc 3 102 15
	call	is_smack_enabled
	.loc 3 102 14
	testb	%al, %al
	je	.L25
	.loc 3 105 24
	movq	optarg(%rip), %rax
	movq	%rax, -40(%rbp)
	jmp	.L19
.L25:
	.loc 3 107 20
	call	is_selinux_enabled@PLT
	.loc 3 107 19
	testl	%eax, %eax
	jle	.L27
	.loc 3 109 19
	movq	optarg(%rip), %rax
	.loc 3 109 18
	testq	%rax, %rax
	je	.L28
	.loc 3 110 26
	movq	optarg(%rip), %rax
	movq	%rax, -40(%rbp)
	jmp	.L19
.L28:
	.loc 3 113 42
	movl	$0, %edx
	movl	$0, %esi
	movl	$0, %edi
	call	selabel_open@PLT
	movq	%rax, -32(%rbp)
	.loc 3 115 22
	cmpq	$0, -32(%rbp)
	jne	.L19
	.loc 3 116 38
	leaq	.LC32(%rip), %rdi
	call	gettext@PLT
	movq	%rax, %rbx
	.loc 3 116 31
	call	__errno_location@PLT
	.loc 3 116 21
	movl	(%rax), %eax
	movq	%rbx, %rdx
	movl	%eax, %esi
	movl	$0, %edi
	movl	$0, %eax
	call	error@PLT
	jmp	.L19
.L27:
	.loc 3 119 20
	movq	optarg(%rip), %rax
	.loc 3 119 19
	testq	%rax, %rax
	je	.L19
	.loc 3 122 22
	leaq	.LC33(%rip), %rdi
	call	gettext@PLT
	.loc 3 121 15
	movq	%rax, %rdx
	movl	$0, %esi
	movl	$0, %edi
	movl	$0, %eax
	call	error@PLT
	.loc 3 125 11
	jmp	.L19
.L24:
	.loc 3 126 9
	movl	$0, %edi
	call	usage
.L23:
	.loc 3 127 9
	movq	Version(%rip), %rdx
	movq	stdout(%rip), %rax
	movl	$0, %r9d
	leaq	.LC34(%rip), %r8
	movq	%rdx, %rcx
	leaq	.LC12(%rip), %rdx
	leaq	.LC30(%rip), %rsi
	movq	%rax, %rdi
	movl	$0, %eax
	call	version_etc@PLT
	movl	$0, %edi
	call	exit@PLT
.L21:
	.loc 3 129 11
	movl	$1, %edi
	call	usage
.L19:
	.loc 3 94 18
	movq	-96(%rbp), %rsi
	movl	-84(%rbp), %eax
	movl	$0, %r8d
	leaq	longopts(%rip), %rcx
	leaq	.LC35(%rip), %rdx
	movl	%eax, %edi
	call	getopt_long@PLT
	movl	%eax, -56(%rbp)
	.loc 3 94 9
	cmpl	$-1, -56(%rbp)
	jne	.L29
	.loc 3 133 14
	movl	optind(%rip), %eax
	.loc 3 133 6
	cmpl	%eax, -84(%rbp)
	jne	.L30
	.loc 3 135 20
	leaq	.LC36(%rip), %rdi
	call	gettext@PLT
	.loc 3 135 7
	movq	%rax, %rdx
	movl	$0, %esi
	movl	$0, %edi
	movl	$0, %eax
	call	error@PLT
	.loc 3 136 7
	movl	$1, %edi
	call	usage
.L30:
	.loc 3 139 6
	cmpq	$0, -40(%rbp)
	je	.L31
.LBB2:
	.loc 3 141 11
	movl	$0, -60(%rbp)
	.loc 3 142 11
	call	is_smack_enabled
	.loc 3 142 10
	testb	%al, %al
	je	.L32
	.loc 3 143 15
	movq	-40(%rbp), %rax
	movq	%rax, %rdi
	call	smack_set_label_for_self
	movl	%eax, -60(%rbp)
	jmp	.L33
.L32:
	.loc 3 145 15
	movq	-40(%rbp), %rax
	movq	%rax, %rdi
	call	setfscreatecon@PLT
	movl	%eax, -60(%rbp)
.L33:
	.loc 3 147 10
	cmpl	$0, -60(%rbp)
	jns	.L31
.LBB3:
	.loc 3 148 9
	movq	-40(%rbp), %rax
	movq	%rax, %rdi
	call	quote@PLT
	movq	%rax, %r12
	leaq	.LC37(%rip), %rdi
	call	gettext@PLT
	movq	%rax, %rbx
	call	__errno_location@PLT
	movl	(%rax), %eax
	movq	%r12, %rcx
	movq	%rbx, %rdx
	movl	%eax, %esi
	movl	$1, %edi
	movl	$0, %eax
	call	error@PLT
.L31:
.LBE3:
.LBE2:
	.loc 3 153 11
	movl	$438, -68(%rbp)
	.loc 3 154 6
	cmpq	$0, -48(%rbp)
	je	.L36
.LBB4:
	.loc 3 157 36
	movq	-48(%rbp), %rax
	movq	%rax, %rdi
	call	mode_compile@PLT
	movq	%rax, -24(%rbp)
	.loc 3 158 10
	cmpq	$0, -24(%rbp)
	jne	.L35
.LBB5:
	.loc 3 159 9
	leaq	.LC38(%rip), %rdi
	call	gettext@PLT
	movq	%rax, %rdx
	movl	$0, %esi
	movl	$1, %edi
	movl	$0, %eax
	call	error@PLT
.L35:
.LBE5:
	.loc 3 160 21
	movl	$0, %edi
	call	umask@PLT
	movl	%eax, -52(%rbp)
	.loc 3 161 7
	movl	-52(%rbp), %eax
	movl	%eax, %edi
	call	umask@PLT
	.loc 3 162 17
	movq	-24(%rbp), %rcx
	movl	-52(%rbp), %edx
	movl	-68(%rbp), %eax
	movl	$0, %r8d
	movl	$0, %esi
	movl	%eax, %edi
	call	mode_adjust@PLT
	movl	%eax, -68(%rbp)
	.loc 3 163 7
	movq	-24(%rbp), %rax
	movq	%rax, %rdi
	call	free@PLT
	.loc 3 164 19
	movl	-68(%rbp), %eax
	andl	$-512, %eax
	.loc 3 164 10
	testl	%eax, %eax
	je	.L36
.LBB6:
	.loc 3 165 9
	leaq	.LC39(%rip), %rdi
	call	gettext@PLT
	movq	%rax, %rdx
	movl	$0, %esi
	movl	$1, %edi
	movl	$0, %eax
	call	error@PLT
.L40:
.LBE6:
.LBE4:
	.loc 3 171 10
	cmpq	$0, -32(%rbp)
	je	.L37
	.loc 3 172 47
	movl	optind(%rip), %eax
	cltq
	leaq	0(,%rax,8), %rdx
	movq	-96(%rbp), %rax
	addq	%rdx, %rax
	.loc 3 172 9
	movq	(%rax), %rcx
	movq	-32(%rbp), %rax
	movl	$4096, %edx
	movq	%rcx, %rsi
	movq	%rax, %rdi
	call	defaultcon@PLT
.L37:
	.loc 3 173 23
	movl	optind(%rip), %eax
	cltq
	leaq	0(,%rax,8), %rdx
	movq	-96(%rbp), %rax
	addq	%rdx, %rax
	.loc 3 173 11
	movq	(%rax), %rax
	movl	-68(%rbp), %edx
	movl	%edx, %esi
	movq	%rax, %rdi
	call	mkfifo@PLT
	.loc 3 173 10
	testl	%eax, %eax
	je	.L38
	.loc 3 175 56
	movl	optind(%rip), %eax
	cltq
	leaq	0(,%rax,8), %rdx
	movq	-96(%rbp), %rax
	addq	%rdx, %rax
	.loc 3 175 11
	movq	(%rax), %rax
	movq	%rax, %rsi
	movl	$4, %edi
	call	quotearg_style@PLT
	movq	%rax, %r12
	.loc 3 175 28
	leaq	.LC40(%rip), %rdi
	call	gettext@PLT
	movq	%rax, %rbx
	.loc 3 175 21
	call	__errno_location@PLT
	.loc 3 175 11
	movl	(%rax), %eax
	movq	%r12, %rcx
	movq	%rbx, %rdx
	movl	%eax, %esi
	movl	$0, %edi
	movl	$0, %eax
	call	error@PLT
	.loc 3 176 23
	movl	$1, -64(%rbp)
	jmp	.L39
.L38:
	.loc 3 178 15
	cmpq	$0, -48(%rbp)
	je	.L39
	.loc 3 178 46 discriminator 1
	movl	optind(%rip), %eax
	cltq
	leaq	0(,%rax,8), %rdx
	movq	-96(%rbp), %rax
	addq	%rdx, %rax
	.loc 3 178 34 discriminator 1
	movq	(%rax), %rax
	movl	-68(%rbp), %edx
	movl	%edx, %esi
	movq	%rax, %rdi
	call	lchmod@PLT
	.loc 3 178 31 discriminator 1
	testl	%eax, %eax
	je	.L39
	.loc 3 181 18
	movl	optind(%rip), %eax
	cltq
	leaq	0(,%rax,8), %rdx
	movq	-96(%rbp), %rax
	addq	%rdx, %rax
	.loc 3 180 11
	movq	(%rax), %rax
	movq	%rax, %rsi
	movl	$4, %edi
	call	quotearg_style@PLT
	movq	%rax, %r12
	.loc 3 180 28
	leaq	.LC41(%rip), %rdi
	call	gettext@PLT
	movq	%rax, %rbx
	.loc 3 180 21
	call	__errno_location@PLT
	.loc 3 180 11
	movl	(%rax), %eax
	movq	%r12, %rcx
	movq	%rbx, %rdx
	movl	%eax, %esi
	movl	$0, %edi
	movl	$0, %eax
	call	error@PLT
	.loc 3 182 23
	movl	$1, -64(%rbp)
.L39:
	.loc 3 169 25
	movl	optind(%rip), %eax
	addl	$1, %eax
	movl	%eax, optind(%rip)
.L36:
	.loc 3 169 17 discriminator 1
	movl	optind(%rip), %eax
	.loc 3 169 3 discriminator 1
	cmpl	%eax, -84(%rbp)
	jg	.L40
	.loc 3 186 10
	movl	-64(%rbp), %eax
	.loc 3 187 1
	addq	$80, %rsp
	popq	%rbx
	popq	%r12
	popq	%rbp
	.cfi_def_cfa 7, 8
	ret
	.cfi_endproc
.LFE51:
	.size	main, .-main
.Letext0:
	.file 4 "/usr/lib/gcc/x86_64-linux-gnu/9/include/stddef.h"
	.file 5 "/usr/include/x86_64-linux-gnu/bits/types.h"
	.file 6 "/usr/include/x86_64-linux-gnu/bits/types/struct_FILE.h"
	.file 7 "/usr/include/x86_64-linux-gnu/bits/types/FILE.h"
	.file 8 "/usr/include/stdio.h"
	.file 9 "/usr/include/x86_64-linux-gnu/bits/sys_errlist.h"
	.file 10 "/usr/include/x86_64-linux-gnu/sys/types.h"
	.file 11 "/usr/include/x86_64-linux-gnu/bits/types/time_t.h"
	.file 12 "./lib/sys/select.h"
	.file 13 "/usr/include/x86_64-linux-gnu/bits/getopt_core.h"
	.file 14 "/usr/include/x86_64-linux-gnu/bits/getopt_ext.h"
	.file 15 "/usr/include/time.h"
	.file 16 "/usr/include/signal.h"
	.file 17 "/usr/include/unistd.h"
	.file 18 "/usr/include/errno.h"
	.file 19 "src/version.h"
	.file 20 "./lib/exitfail.h"
	.file 21 "./lib/timespec.h"
	.file 22 "./lib/version-etc.h"
	.file 23 "./lib/progname.h"
	.file 24 "./lib/quotearg.h"
	.file 25 "./lib/error.h"
	.file 26 "./lib/quote.h"
	.section	.note.GNU-stack,"",@progbits
	.section	.note.gnu.property,"a"
	.align 8
	.long	 1f - 0f
	.long	 4f - 1f
	.long	 5
0:
	.string	 "GNU"
1:
	.align 8
	.long	 0xc0000002
	.long	 3f - 2f
2:
	.long	 0x3
3:
	.align 8
4:
