	.file	"nl.c"
	.text
.Ltext0:
	.section	.rodata
	.align 8
.LC0:
	.string	"\nWith no FILE, or when FILE is -, read standard input.\n"
	.text
	.type	emit_stdin_note, @function
emit_stdin_note:
.LFB35:
	.file 1 "src/system.h"
	.loc 1 582 1
	.cfi_startproc
	pushq	%rbp
	.cfi_def_cfa_offset 16
	.cfi_offset 6, -16
	movq	%rsp, %rbp
	.cfi_def_cfa_register 6
	pushq	%rbx
	subq	$8, %rsp
	.cfi_offset 3, -24
	.loc 1 583 3
	movq	stdout(%rip), %rbx
	leaq	.LC0(%rip), %rdi
	call	gettext@PLT
	movq	%rbx, %rsi
	movq	%rax, %rdi
	call	fputs_unlocked@PLT
	.loc 1 586 1
	nop
	addq	$8, %rsp
	popq	%rbx
	popq	%rbp
	.cfi_def_cfa 7, 8
	ret
	.cfi_endproc
.LFE35:
	.size	emit_stdin_note, .-emit_stdin_note
	.section	.rodata
	.align 8
.LC1:
	.string	"\nMandatory arguments to long options are mandatory for short options too.\n"
	.text
	.type	emit_mandatory_arg_note, @function
emit_mandatory_arg_note:
.LFB36:
	.loc 1 589 1
	.cfi_startproc
	pushq	%rbp
	.cfi_def_cfa_offset 16
	.cfi_offset 6, -16
	movq	%rsp, %rbp
	.cfi_def_cfa_register 6
	pushq	%rbx
	subq	$8, %rsp
	.cfi_offset 3, -24
	.loc 1 590 3
	movq	stdout(%rip), %rbx
	leaq	.LC1(%rip), %rdi
	call	gettext@PLT
	movq	%rbx, %rsi
	movq	%rax, %rdi
	call	fputs_unlocked@PLT
	.loc 1 593 1
	nop
	addq	$8, %rsp
	popq	%rbx
	popq	%rbp
	.cfi_def_cfa 7, 8
	ret
	.cfi_endproc
.LFE36:
	.size	emit_mandatory_arg_note, .-emit_mandatory_arg_note
	.section	.rodata
.LC2:
	.string	"["
.LC3:
	.string	"test invocation"
.LC4:
	.string	"coreutils"
.LC5:
	.string	"Multi-call invocation"
.LC6:
	.string	"sha224sum"
.LC7:
	.string	"sha2 utilities"
.LC8:
	.string	"sha256sum"
.LC9:
	.string	"sha384sum"
.LC10:
	.string	"sha512sum"
.LC11:
	.string	"\n%s online help: <%s>\n"
	.align 8
.LC12:
	.string	"https://www.gnu.org/software/coreutils/"
.LC13:
	.string	"GNU coreutils"
.LC14:
	.string	"en_"
	.align 8
.LC15:
	.string	"Report any translation bugs to <https://translationproject.org/team/>\n"
.LC16:
	.string	"Full documentation <%s%s>\n"
.LC17:
	.string	" invocation"
.LC18:
	.string	""
	.align 8
.LC19:
	.string	"or available locally via: info '(coreutils) %s%s'\n"
	.text
	.type	emit_ancillary_info, @function
emit_ancillary_info:
.LFB40:
	.loc 1 635 1
	.cfi_startproc
	pushq	%rbp
	.cfi_def_cfa_offset 16
	.cfi_offset 6, -16
	movq	%rsp, %rbp
	.cfi_def_cfa_register 6
	pushq	%rbx
	subq	$184, %rsp
	.cfi_offset 3, -24
	movq	%rdi, -184(%rbp)
	.loc 1 635 1
	movq	%fs:40, %rax
	movq	%rax, -24(%rbp)
	xorl	%eax, %eax
	.loc 1 636 67
	leaq	.LC2(%rip), %rax
	movq	%rax, -144(%rbp)
	leaq	.LC3(%rip), %rax
	movq	%rax, -136(%rbp)
	leaq	.LC4(%rip), %rax
	movq	%rax, -128(%rbp)
	leaq	.LC5(%rip), %rax
	movq	%rax, -120(%rbp)
	leaq	.LC6(%rip), %rax
	movq	%rax, -112(%rbp)
	leaq	.LC7(%rip), %rax
	movq	%rax, -104(%rbp)
	leaq	.LC8(%rip), %rax
	movq	%rax, -96(%rbp)
	leaq	.LC7(%rip), %rax
	movq	%rax, -88(%rbp)
	leaq	.LC9(%rip), %rax
	movq	%rax, -80(%rbp)
	leaq	.LC7(%rip), %rax
	movq	%rax, -72(%rbp)
	leaq	.LC10(%rip), %rax
	movq	%rax, -64(%rbp)
	leaq	.LC7(%rip), %rax
	movq	%rax, -56(%rbp)
	movq	$0, -48(%rbp)
	movq	$0, -40(%rbp)
	.loc 1 646 15
	movq	-184(%rbp), %rax
	movq	%rax, -168(%rbp)
	.loc 1 647 25
	leaq	-144(%rbp), %rax
	movq	%rax, -160(%rbp)
	.loc 1 649 9
	jmp	.L4
.L6:
	.loc 1 650 13
	addq	$16, -160(%rbp)
.L4:
	.loc 1 649 18
	movq	-160(%rbp), %rax
	movq	(%rax), %rax
	.loc 1 649 9
	testq	%rax, %rax
	je	.L5
	.loc 1 649 33 discriminator 1
	movq	-160(%rbp), %rax
	movq	(%rax), %rdx
	movq	-184(%rbp), %rax
	movq	%rdx, %rsi
	movq	%rax, %rdi
	call	strcmp@PLT
	.loc 1 649 28 discriminator 1
	testl	%eax, %eax
	jne	.L6
.L5:
	.loc 1 652 15
	movq	-160(%rbp), %rax
	movq	8(%rax), %rax
	.loc 1 652 6
	testq	%rax, %rax
	je	.L7
	.loc 1 653 10
	movq	-160(%rbp), %rax
	movq	8(%rax), %rax
	movq	%rax, -168(%rbp)
.L7:
	.loc 1 655 11
	leaq	.LC11(%rip), %rdi
	call	gettext@PLT
	.loc 1 655 3
	leaq	.LC12(%rip), %rdx
	leaq	.LC13(%rip), %rsi
	movq	%rax, %rdi
	movl	$0, %eax
	call	printf@PLT
	.loc 1 659 29
	movl	$0, %esi
	movl	$5, %edi
	call	setlocale@PLT
	movq	%rax, -152(%rbp)
	.loc 1 660 6
	cmpq	$0, -152(%rbp)
	je	.L8
	.loc 1 660 22 discriminator 1
	movq	-152(%rbp), %rax
	movl	$3, %edx
	leaq	.LC14(%rip), %rsi
	movq	%rax, %rdi
	call	strncmp@PLT
	.loc 1 660 19 discriminator 1
	testl	%eax, %eax
	je	.L8
	.loc 1 666 7
	movq	stdout(%rip), %rbx
	leaq	.LC15(%rip), %rdi
	call	gettext@PLT
	movq	%rbx, %rsi
	movq	%rax, %rdi
	call	fputs_unlocked@PLT
.L8:
	.loc 1 669 11
	leaq	.LC16(%rip), %rdi
	call	gettext@PLT
	movq	%rax, %rcx
	.loc 1 669 3
	movq	-184(%rbp), %rax
	movq	%rax, %rdx
	leaq	.LC12(%rip), %rsi
	movq	%rcx, %rdi
	movl	$0, %eax
	call	printf@PLT
	.loc 1 671 3
	movq	-168(%rbp), %rax
	cmpq	-184(%rbp), %rax
	jne	.L9
	.loc 1 671 3 is_stmt 0 discriminator 1
	leaq	.LC17(%rip), %rbx
	jmp	.L10
.L9:
	.loc 1 671 3 discriminator 2
	leaq	.LC18(%rip), %rbx
.L10:
	.loc 1 671 11 is_stmt 1 discriminator 4
	leaq	.LC19(%rip), %rdi
	call	gettext@PLT
	movq	%rax, %rcx
	.loc 1 671 3 discriminator 4
	movq	-168(%rbp), %rax
	movq	%rbx, %rdx
	movq	%rax, %rsi
	movq	%rcx, %rdi
	movl	$0, %eax
	call	printf@PLT
	.loc 1 673 1 discriminator 4
	nop
	movq	-24(%rbp), %rax
	xorq	%fs:40, %rax
	je	.L11
	.loc 1 673 1 is_stmt 0
	call	__stack_chk_fail@PLT
.L11:
	addq	$184, %rsp
	popq	%rbx
	popq	%rbp
	.cfi_def_cfa 7, 8
	ret
	.cfi_endproc
.LFE40:
	.size	emit_ancillary_info, .-emit_ancillary_info
	.section	.rodata
	.type	FORMAT_RIGHT_NOLZ, @object
	.size	FORMAT_RIGHT_NOLZ, 7
FORMAT_RIGHT_NOLZ:
	.string	"%*ld%s"
	.align 8
	.type	FORMAT_RIGHT_LZ, @object
	.size	FORMAT_RIGHT_LZ, 8
FORMAT_RIGHT_LZ:
	.string	"%0*ld%s"
	.align 8
	.type	FORMAT_LEFT, @object
	.size	FORMAT_LEFT, 8
FORMAT_LEFT:
	.string	"%-*ld%s"
	.type	DEFAULT_SECTION_DELIMITERS, @object
	.size	DEFAULT_SECTION_DELIMITERS, 3
DEFAULT_SECTION_DELIMITERS:
	.string	"\\:"
.LC20:
	.string	"t"
	.section	.data.rel.local,"aw"
	.align 8
	.type	body_type, @object
	.size	body_type, 8
body_type:
	.quad	.LC20
	.section	.rodata
.LC21:
	.string	"n"
	.section	.data.rel.local
	.align 8
	.type	header_type, @object
	.size	header_type, 8
header_type:
	.quad	.LC21
	.align 8
	.type	footer_type, @object
	.size	footer_type, 8
footer_type:
	.quad	.LC21
	.local	current_type
	.comm	current_type,8,8
	.local	body_regex
	.comm	body_regex,64,32
	.local	header_regex
	.comm	header_regex,64,32
	.local	footer_regex
	.comm	footer_regex,64,32
	.local	body_fastmap
	.comm	body_fastmap,256,32
	.local	header_fastmap
	.comm	header_fastmap,256,32
	.local	footer_fastmap
	.comm	footer_fastmap,256,32
	.local	current_regex
	.comm	current_regex,8,8
	.section	.rodata
.LC22:
	.string	"\t"
	.section	.data.rel.local
	.align 8
	.type	separator_str, @object
	.size	separator_str, 8
separator_str:
	.quad	.LC22
	.align 8
	.type	section_del, @object
	.size	section_del, 8
section_del:
	.quad	DEFAULT_SECTION_DELIMITERS
	.local	header_del
	.comm	header_del,8,8
	.local	header_del_len
	.comm	header_del_len,8,8
	.local	body_del
	.comm	body_del,8,8
	.local	body_del_len
	.comm	body_del_len,8,8
	.local	footer_del
	.comm	footer_del,8,8
	.local	footer_del_len
	.comm	footer_del_len,8,8
	.local	line_buf
	.comm	line_buf,24,16
	.local	print_no_line_fmt
	.comm	print_no_line_fmt,8,8
	.data
	.align 8
	.type	starting_line_number, @object
	.size	starting_line_number, 8
starting_line_number:
	.quad	1
	.align 8
	.type	page_incr, @object
	.size	page_incr, 8
page_incr:
	.quad	1
	.type	reset_numbers, @object
	.size	reset_numbers, 1
reset_numbers:
	.byte	1
	.align 8
	.type	blank_join, @object
	.size	blank_join, 8
blank_join:
	.quad	1
	.align 4
	.type	lineno_width, @object
	.size	lineno_width, 4
lineno_width:
	.long	6
	.section	.data.rel.local
	.align 8
	.type	lineno_format, @object
	.size	lineno_format, 8
lineno_format:
	.quad	FORMAT_RIGHT_NOLZ
	.local	line_no
	.comm	line_no,8,8
	.local	line_no_overflow
	.comm	line_no_overflow,1,1
	.local	have_read_stdin
	.comm	have_read_stdin,1,1
	.section	.rodata
.LC23:
	.string	"header-numbering"
.LC24:
	.string	"body-numbering"
.LC25:
	.string	"footer-numbering"
.LC26:
	.string	"starting-line-number"
.LC27:
	.string	"line-increment"
.LC28:
	.string	"no-renumber"
.LC29:
	.string	"join-blank-lines"
.LC30:
	.string	"number-separator"
.LC31:
	.string	"number-width"
.LC32:
	.string	"number-format"
.LC33:
	.string	"section-delimiter"
.LC34:
	.string	"help"
.LC35:
	.string	"version"
	.section	.data.rel.ro.local,"aw"
	.align 32
	.type	longopts, @object
	.size	longopts, 448
longopts:
	.quad	.LC23
	.long	1
	.zero	4
	.quad	0
	.long	104
	.zero	4
	.quad	.LC24
	.long	1
	.zero	4
	.quad	0
	.long	98
	.zero	4
	.quad	.LC25
	.long	1
	.zero	4
	.quad	0
	.long	102
	.zero	4
	.quad	.LC26
	.long	1
	.zero	4
	.quad	0
	.long	118
	.zero	4
	.quad	.LC27
	.long	1
	.zero	4
	.quad	0
	.long	105
	.zero	4
	.quad	.LC28
	.long	0
	.zero	4
	.quad	0
	.long	112
	.zero	4
	.quad	.LC29
	.long	1
	.zero	4
	.quad	0
	.long	108
	.zero	4
	.quad	.LC30
	.long	1
	.zero	4
	.quad	0
	.long	115
	.zero	4
	.quad	.LC31
	.long	1
	.zero	4
	.quad	0
	.long	119
	.zero	4
	.quad	.LC32
	.long	1
	.zero	4
	.quad	0
	.long	110
	.zero	4
	.quad	.LC33
	.long	1
	.zero	4
	.quad	0
	.long	100
	.zero	4
	.quad	.LC34
	.long	0
	.zero	4
	.quad	0
	.long	-130
	.zero	4
	.quad	.LC35
	.long	0
	.zero	4
	.quad	0
	.long	-131
	.zero	4
	.quad	0
	.long	0
	.zero	4
	.quad	0
	.long	0
	.zero	4
	.section	.rodata
	.align 8
.LC36:
	.string	"Try '%s --help' for more information.\n"
	.align 8
.LC37:
	.string	"Usage: %s [OPTION]... [FILE]...\n"
	.align 8
.LC38:
	.string	"Write each FILE to standard output, with line numbers added.\n"
	.align 8
.LC39:
	.string	"  -b, --body-numbering=STYLE      use STYLE for numbering body lines\n  -d, --section-delimiter=CC      use CC for logical page delimiters\n  -f, --footer-numbering=STYLE    use STYLE for numbering footer lines\n"
	.align 8
.LC40:
	.ascii	"  -h, --header-numbering=STYLE    use STYLE for numbering he"
	.ascii	"ader lines\n  -i, --line-increment=NUMBER     line number in"
	.ascii	"crement at each line\n  -l, --join-blank-lines=NUMBER   grou"
	.ascii	"p of NUM"
	.string	"BER empty lines counted as one\n  -n, --number-format=FORMAT      insert line numbers according to FORMAT\n  -p, --no-renumber               do not reset line numbers for each section\n  -s, --number-separator=STRING   add STRING after (possible) line number\n"
	.align 8
.LC41:
	.string	"  -v, --starting-line-number=NUMBER  first line number for each section\n  -w, --number-width=NUMBER       use NUMBER columns for line numbers\n"
	.align 8
.LC42:
	.string	"      --help     display this help and exit\n"
	.align 8
.LC43:
	.string	"      --version  output version information and exit\n"
	.align 8
.LC44:
	.string	"\nDefault options are: -bt -d'\\:' -fn -hn -i1 -l1 -n'rn' -s<TAB> -v1 -w6\n\nCC are two delimiter characters used to construct logical page delimiters;\na missing second character implies ':'.\n"
	.align 8
.LC45:
	.string	"\nSTYLE is one of:\n\n  a      number all lines\n  t      number only nonempty lines\n  n      number no lines\n  pBRE   number only lines that contain a match for the basic regular\n         expression, BRE\n"
	.align 8
.LC46:
	.string	"\nFORMAT is one of:\n\n  ln     left justified, no leading zeros\n  rn     right justified, no leading zeros\n  rz     right justified, leading zeros\n\n"
.LC47:
	.string	"nl"
	.text
	.globl	usage
	.type	usage, @function
usage:
.LFB46:
	.file 2 "src/nl.c"
	.loc 2 174 1 is_stmt 1
	.cfi_startproc
	endbr64
	pushq	%rbp
	.cfi_def_cfa_offset 16
	.cfi_offset 6, -16
	movq	%rsp, %rbp
	.cfi_def_cfa_register 6
	pushq	%rbx
	subq	$24, %rsp
	.cfi_offset 3, -24
	movl	%edi, -20(%rbp)
	.loc 2 175 6
	cmpl	$0, -20(%rbp)
	je	.L13
	.loc 2 176 5
	movq	program_name(%rip), %rbx
	leaq	.LC36(%rip), %rdi
	call	gettext@PLT
	movq	%rax, %rcx
	movq	stderr(%rip), %rax
	movq	%rbx, %rdx
	movq	%rcx, %rsi
	movq	%rax, %rdi
	movl	$0, %eax
	call	fprintf@PLT
	jmp	.L14
.L13:
	.loc 2 179 7
	movq	program_name(%rip), %rbx
	.loc 2 179 15
	leaq	.LC37(%rip), %rdi
	call	gettext@PLT
	.loc 2 179 7
	movq	%rbx, %rsi
	movq	%rax, %rdi
	movl	$0, %eax
	call	printf@PLT
	.loc 2 183 7
	movq	stdout(%rip), %rbx
	leaq	.LC38(%rip), %rdi
	call	gettext@PLT
	movq	%rbx, %rsi
	movq	%rax, %rdi
	call	fputs_unlocked@PLT
	.loc 2 187 7
	call	emit_stdin_note
	.loc 2 188 7
	call	emit_mandatory_arg_note
	.loc 2 190 7
	movq	stdout(%rip), %rbx
	leaq	.LC39(%rip), %rdi
	call	gettext@PLT
	movq	%rbx, %rsi
	movq	%rax, %rdi
	call	fputs_unlocked@PLT
	.loc 2 195 7
	movq	stdout(%rip), %rbx
	leaq	.LC40(%rip), %rdi
	call	gettext@PLT
	movq	%rbx, %rsi
	movq	%rax, %rdi
	call	fputs_unlocked@PLT
	.loc 2 203 7
	movq	stdout(%rip), %rbx
	leaq	.LC41(%rip), %rdi
	call	gettext@PLT
	movq	%rbx, %rsi
	movq	%rax, %rdi
	call	fputs_unlocked@PLT
	.loc 2 207 7
	movq	stdout(%rip), %rbx
	leaq	.LC42(%rip), %rdi
	call	gettext@PLT
	movq	%rbx, %rsi
	movq	%rax, %rdi
	call	fputs_unlocked@PLT
	.loc 2 208 7
	movq	stdout(%rip), %rbx
	leaq	.LC43(%rip), %rdi
	call	gettext@PLT
	movq	%rbx, %rsi
	movq	%rax, %rdi
	call	fputs_unlocked@PLT
	.loc 2 209 7
	movq	stdout(%rip), %rbx
	leaq	.LC44(%rip), %rdi
	call	gettext@PLT
	movq	%rbx, %rsi
	movq	%rax, %rdi
	call	fputs_unlocked@PLT
	.loc 2 216 7
	movq	stdout(%rip), %rbx
	leaq	.LC45(%rip), %rdi
	call	gettext@PLT
	movq	%rbx, %rsi
	movq	%rax, %rdi
	call	fputs_unlocked@PLT
	.loc 2 226 7
	movq	stdout(%rip), %rbx
	leaq	.LC46(%rip), %rdi
	call	gettext@PLT
	movq	%rbx, %rsi
	movq	%rax, %rdi
	call	fputs_unlocked@PLT
	.loc 2 235 7
	leaq	.LC47(%rip), %rdi
	call	emit_ancillary_info
.L14:
	.loc 2 237 3
	movl	-20(%rbp), %eax
	movl	%eax, %edi
	call	exit@PLT
	.cfi_endproc
.LFE46:
	.size	usage, .-usage
	.section	.rodata
.LC48:
	.string	"%s"
	.text
	.type	build_type_arg, @function
build_type_arg:
.LFB47:
	.loc 2 246 1
	.cfi_startproc
	endbr64
	pushq	%rbp
	.cfi_def_cfa_offset 16
	.cfi_offset 6, -16
	movq	%rsp, %rbp
	.cfi_def_cfa_register 6
	subq	$48, %rsp
	movq	%rdi, -24(%rbp)
	movq	%rsi, -32(%rbp)
	movq	%rdx, -40(%rbp)
	.loc 2 248 8
	movb	$1, -9(%rbp)
	.loc 2 250 11
	movq	optarg(%rip), %rax
	movzbl	(%rax), %eax
	movsbl	%al, %eax
	.loc 2 250 3
	cmpl	$116, %eax
	je	.L16
	cmpl	$116, %eax
	jg	.L17
	cmpl	$112, %eax
	je	.L18
	cmpl	$112, %eax
	jg	.L17
	cmpl	$97, %eax
	je	.L16
	cmpl	$110, %eax
	jne	.L17
.L16:
	.loc 2 255 14
	movq	optarg(%rip), %rdx
	movq	-24(%rbp), %rax
	movq	%rdx, (%rax)
	.loc 2 256 7
	jmp	.L19
.L18:
	.loc 2 258 22
	movq	optarg(%rip), %rax
	leaq	1(%rax), %rdx
	movq	%rdx, optarg(%rip)
	.loc 2 258 14
	movq	-24(%rbp), %rdx
	movq	%rax, (%rdx)
	.loc 2 259 22
	movq	-32(%rbp), %rax
	movq	$0, (%rax)
	.loc 2 260 25
	movq	-32(%rbp), %rax
	movq	$0, 8(%rax)
	.loc 2 261 23
	movq	-32(%rbp), %rax
	movq	-40(%rbp), %rdx
	movq	%rdx, 32(%rax)
	.loc 2 262 25
	movq	-32(%rbp), %rax
	movq	$0, 40(%rax)
	.loc 2 263 25
	movq	$710, rpl_re_syntax_options(%rip)
	.loc 2 265 16
	movq	optarg(%rip), %rax
	movq	%rax, %rdi
	call	strlen@PLT
	movq	%rax, %rcx
	movq	optarg(%rip), %rax
	movq	-32(%rbp), %rdx
	movq	%rcx, %rsi
	movq	%rax, %rdi
	call	rpl_re_compile_pattern@PLT
	movq	%rax, -8(%rbp)
	.loc 2 266 10
	cmpq	$0, -8(%rbp)
	je	.L22
.LBB2:
	.loc 2 267 9
	movq	-8(%rbp), %rax
	movq	%rax, %rcx
	leaq	.LC48(%rip), %rdx
	movl	$0, %esi
	movl	$1, %edi
	movl	$0, %eax
	call	error@PLT
.L17:
.LBE2:
	.loc 2 270 12
	movb	$0, -9(%rbp)
	.loc 2 271 7
	jmp	.L19
.L22:
	.loc 2 268 7
	nop
.L19:
	.loc 2 273 10
	movzbl	-9(%rbp), %eax
	.loc 2 274 1
	leave
	.cfi_def_cfa 7, 8
	ret
	.cfi_endproc
.LFE47:
	.size	build_type_arg, .-build_type_arg
	.section	.rodata
.LC49:
	.string	"line number overflow"
	.text
	.type	print_lineno, @function
print_lineno:
.LFB48:
	.loc 2 280 1
	.cfi_startproc
	endbr64
	pushq	%rbp
	.cfi_def_cfa_offset 16
	.cfi_offset 6, -16
	movq	%rsp, %rbp
	.cfi_def_cfa_register 6
	.loc 2 281 7
	movzbl	line_no_overflow(%rip), %eax
	.loc 2 281 6
	testb	%al, %al
	je	.L24
.LBB3:
	.loc 2 282 5
	leaq	.LC49(%rip), %rdi
	call	gettext@PLT
	movq	%rax, %rdx
	movl	$0, %esi
	movl	$1, %edi
	movl	$0, %eax
	call	error@PLT
.L24:
.LBE3:
	.loc 2 284 3
	movq	separator_str(%rip), %rcx
	movq	line_no(%rip), %rdx
	movl	lineno_width(%rip), %esi
	movq	lineno_format(%rip), %rax
	movq	%rax, %rdi
	movl	$0, %eax
	call	printf@PLT
	.loc 2 286 7
	movq	line_no(%rip), %rdx
	movq	page_incr(%rip), %rax
	movl	$0, %ecx
	addq	%rdx, %rax
	jno	.L25
	movl	$1, %ecx
.L25:
	movq	%rax, line_no(%rip)
	movq	%rcx, %rax
	andl	$1, %eax
	.loc 2 286 6
	testb	%al, %al
	je	.L28
	.loc 2 287 22
	movb	$1, line_no_overflow(%rip)
.L28:
	.loc 2 288 1
	nop
	popq	%rbp
	.cfi_def_cfa 7, 8
	ret
	.cfi_endproc
.LFE48:
	.size	print_lineno, .-print_lineno
	.type	reset_lineno, @function
reset_lineno:
.LFB49:
	.loc 2 292 1
	.cfi_startproc
	endbr64
	pushq	%rbp
	.cfi_def_cfa_offset 16
	.cfi_offset 6, -16
	movq	%rsp, %rbp
	.cfi_def_cfa_register 6
	.loc 2 293 7
	movzbl	reset_numbers(%rip), %eax
	.loc 2 293 6
	testb	%al, %al
	je	.L31
	.loc 2 295 15
	movq	starting_line_number(%rip), %rax
	movq	%rax, line_no(%rip)
	.loc 2 296 24
	movb	$0, line_no_overflow(%rip)
.L31:
	.loc 2 298 1
	nop
	popq	%rbp
	.cfi_def_cfa 7, 8
	ret
	.cfi_endproc
.LFE49:
	.size	reset_lineno, .-reset_lineno
	.type	proc_header, @function
proc_header:
.LFB50:
	.loc 2 304 1
	.cfi_startproc
	endbr64
	pushq	%rbp
	.cfi_def_cfa_offset 16
	.cfi_offset 6, -16
	movq	%rsp, %rbp
	.cfi_def_cfa_register 6
	.loc 2 305 16
	movq	header_type(%rip), %rax
	movq	%rax, current_type(%rip)
	.loc 2 306 17
	leaq	header_regex(%rip), %rax
	movq	%rax, current_regex(%rip)
	.loc 2 307 3
	call	reset_lineno
	.loc 2 308 3
	movl	$10, %edi
	call	putchar_unlocked@PLT
	.loc 2 309 1
	nop
	popq	%rbp
	.cfi_def_cfa 7, 8
	ret
	.cfi_endproc
.LFE50:
	.size	proc_header, .-proc_header
	.type	proc_body, @function
proc_body:
.LFB51:
	.loc 2 315 1
	.cfi_startproc
	endbr64
	pushq	%rbp
	.cfi_def_cfa_offset 16
	.cfi_offset 6, -16
	movq	%rsp, %rbp
	.cfi_def_cfa_register 6
	.loc 2 316 16
	movq	body_type(%rip), %rax
	movq	%rax, current_type(%rip)
	.loc 2 317 17
	leaq	body_regex(%rip), %rax
	movq	%rax, current_regex(%rip)
	.loc 2 318 3
	call	reset_lineno
	.loc 2 319 3
	movl	$10, %edi
	call	putchar_unlocked@PLT
	.loc 2 320 1
	nop
	popq	%rbp
	.cfi_def_cfa 7, 8
	ret
	.cfi_endproc
.LFE51:
	.size	proc_body, .-proc_body
	.type	proc_footer, @function
proc_footer:
.LFB52:
	.loc 2 326 1
	.cfi_startproc
	endbr64
	pushq	%rbp
	.cfi_def_cfa_offset 16
	.cfi_offset 6, -16
	movq	%rsp, %rbp
	.cfi_def_cfa_register 6
	.loc 2 327 16
	movq	footer_type(%rip), %rax
	movq	%rax, current_type(%rip)
	.loc 2 328 17
	leaq	footer_regex(%rip), %rax
	movq	%rax, current_regex(%rip)
	.loc 2 329 3
	call	reset_lineno
	.loc 2 330 3
	movl	$10, %edi
	call	putchar_unlocked@PLT
	.loc 2 331 1
	nop
	popq	%rbp
	.cfi_def_cfa 7, 8
	ret
	.cfi_endproc
.LFE52:
	.size	proc_footer, .-proc_footer
	.section	.rodata
	.align 8
.LC50:
	.string	"error in regular expression search"
	.text
	.type	proc_text, @function
proc_text:
.LFB53:
	.loc 2 337 1
	.cfi_startproc
	endbr64
	pushq	%rbp
	.cfi_def_cfa_offset 16
	.cfi_offset 6, -16
	movq	%rsp, %rbp
	.cfi_def_cfa_register 6
	pushq	%rbx
	subq	$8, %rsp
	.cfi_offset 3, -24
	.loc 2 340 11
	movq	current_type(%rip), %rax
	movzbl	(%rax), %eax
	movsbl	%al, %eax
	.loc 2 340 3
	cmpl	$116, %eax
	je	.L36
	cmpl	$116, %eax
	jg	.L37
	cmpl	$112, %eax
	je	.L38
	cmpl	$112, %eax
	jg	.L37
	cmpl	$97, %eax
	je	.L39
	cmpl	$110, %eax
	je	.L40
	jmp	.L37
.L39:
	.loc 2 343 22
	movq	blank_join(%rip), %rax
	.loc 2 343 10
	cmpq	$1, %rax
	jle	.L41
	.loc 2 345 27
	movq	8+line_buf(%rip), %rax
	.loc 2 345 14
	cmpq	$1, %rax
	ja	.L42
	.loc 2 345 38 discriminator 1
	movq	blank_lines.6476(%rip), %rax
	addq	$1, %rax
	.loc 2 345 35 discriminator 1
	movq	%rax, blank_lines.6476(%rip)
	.loc 2 345 38 discriminator 1
	movq	blank_lines.6476(%rip), %rdx
	.loc 2 345 52 discriminator 1
	movq	blank_join(%rip), %rax
	.loc 2 345 35 discriminator 1
	cmpq	%rax, %rdx
	jne	.L43
.L42:
	.loc 2 347 15
	call	print_lineno
	.loc 2 348 27
	movq	$0, blank_lines.6476(%rip)
	.loc 2 355 7
	jmp	.L37
.L43:
	.loc 2 351 13
	movq	stdout(%rip), %rdx
	movq	print_no_line_fmt(%rip), %rax
	movq	%rdx, %rsi
	movq	%rax, %rdi
	call	fputs_unlocked@PLT
	.loc 2 355 7
	jmp	.L37
.L41:
	.loc 2 354 9
	call	print_lineno
	.loc 2 355 7
	jmp	.L37
.L36:
	.loc 2 357 23
	movq	8+line_buf(%rip), %rax
	.loc 2 357 10
	cmpq	$1, %rax
	jbe	.L46
	.loc 2 358 9
	call	print_lineno
	.loc 2 361 7
	jmp	.L37
.L46:
	.loc 2 360 9
	movq	stdout(%rip), %rdx
	movq	print_no_line_fmt(%rip), %rax
	movq	%rdx, %rsi
	movq	%rax, %rdi
	call	fputs_unlocked@PLT
	.loc 2 361 7
	jmp	.L37
.L40:
	.loc 2 363 7
	movq	stdout(%rip), %rdx
	movq	print_no_line_fmt(%rip), %rax
	movq	%rdx, %rsi
	movq	%rax, %rdi
	call	fputs_unlocked@PLT
	.loc 2 364 7
	jmp	.L37
.L38:
	.loc 2 367 37
	movq	8+line_buf(%rip), %rax
	.loc 2 367 45
	subq	$1, %rax
	.loc 2 366 15
	movq	%rax, %rcx
	.loc 2 366 66
	movq	8+line_buf(%rip), %rax
	.loc 2 366 74
	subq	$1, %rax
	.loc 2 366 15
	movq	%rax, %rdx
	.loc 2 366 49
	movq	16+line_buf(%rip), %rsi
	.loc 2 366 15
	movq	current_regex(%rip), %rax
	movl	$0, %r9d
	movq	%rcx, %r8
	movl	$0, %ecx
	movq	%rax, %rdi
	call	rpl_re_search@PLT
	cmpq	$-2, %rax
	je	.L48
	cmpq	$-1, %rax
	je	.L49
	jmp	.L51
.L48:
.LBB4:
	.loc 2 370 11
	leaq	.LC50(%rip), %rdi
	call	gettext@PLT
	movq	%rax, %rbx
	call	__errno_location@PLT
	movl	(%rax), %eax
	movq	%rbx, %rdx
	movl	%eax, %esi
	movl	$1, %edi
	movl	$0, %eax
	call	error@PLT
.L49:
	.loc 2 373 11
	movq	stdout(%rip), %rdx
	movq	print_no_line_fmt(%rip), %rax
	movq	%rdx, %rsi
	movq	%rax, %rdi
	call	fputs_unlocked@PLT
	.loc 2 374 11
	jmp	.L37
.L51:
	.loc 2 377 11
	call	print_lineno
	.loc 2 378 11
	nop
.L37:
.LBE4:
	.loc 2 381 3
	movq	stdout(%rip), %rcx
	movq	8+line_buf(%rip), %rdx
	movq	16+line_buf(%rip), %rax
	movl	$1, %esi
	movq	%rax, %rdi
	call	fwrite_unlocked@PLT
	.loc 2 382 1
	nop
	addq	$8, %rsp
	popq	%rbx
	popq	%rbp
	.cfi_def_cfa 7, 8
	ret
	.cfi_endproc
.LFE53:
	.size	proc_text, .-proc_text
	.type	check_section, @function
check_section:
.LFB54:
	.loc 2 388 1
	.cfi_startproc
	endbr64
	pushq	%rbp
	.cfi_def_cfa_offset 16
	.cfi_offset 6, -16
	movq	%rsp, %rbp
	.cfi_def_cfa_register 6
	subq	$16, %rsp
	.loc 2 389 24
	movq	8+line_buf(%rip), %rax
	.loc 2 389 10
	subq	$1, %rax
	movq	%rax, -8(%rbp)
	.loc 2 391 6
	cmpq	$1, -8(%rbp)
	jbe	.L53
	.loc 2 391 18 discriminator 1
	movq	section_del(%rip), %rcx
	.loc 2 391 34 discriminator 1
	movq	16+line_buf(%rip), %rax
	.loc 2 391 18 discriminator 1
	movl	$2, %edx
	movq	%rcx, %rsi
	movq	%rax, %rdi
	call	memcmp@PLT
	.loc 2 391 15 discriminator 1
	testl	%eax, %eax
	je	.L54
.L53:
	.loc 2 392 12
	movl	$3, %eax
	jmp	.L55
.L54:
	.loc 2 393 11
	movq	header_del_len(%rip), %rax
	.loc 2 393 6
	cmpq	%rax, -8(%rbp)
	jne	.L56
	.loc 2 394 11
	movq	header_del_len(%rip), %rdx
	movq	header_del(%rip), %rcx
	.loc 2 394 27
	movq	16+line_buf(%rip), %rax
	.loc 2 394 11
	movq	%rcx, %rsi
	movq	%rax, %rdi
	call	memcmp@PLT
	.loc 2 394 7
	testl	%eax, %eax
	jne	.L56
	.loc 2 395 12
	movl	$0, %eax
	jmp	.L55
.L56:
	.loc 2 396 11
	movq	body_del_len(%rip), %rax
	.loc 2 396 6
	cmpq	%rax, -8(%rbp)
	jne	.L57
	.loc 2 397 11
	movq	body_del_len(%rip), %rdx
	movq	body_del(%rip), %rcx
	.loc 2 397 27
	movq	16+line_buf(%rip), %rax
	.loc 2 397 11
	movq	%rcx, %rsi
	movq	%rax, %rdi
	call	memcmp@PLT
	.loc 2 397 7
	testl	%eax, %eax
	jne	.L57
	.loc 2 398 12
	movl	$1, %eax
	jmp	.L55
.L57:
	.loc 2 399 11
	movq	footer_del_len(%rip), %rax
	.loc 2 399 6
	cmpq	%rax, -8(%rbp)
	jne	.L58
	.loc 2 400 11
	movq	footer_del_len(%rip), %rdx
	movq	footer_del(%rip), %rcx
	.loc 2 400 27
	movq	16+line_buf(%rip), %rax
	.loc 2 400 11
	movq	%rcx, %rsi
	movq	%rax, %rdi
	call	memcmp@PLT
	.loc 2 400 7
	testl	%eax, %eax
	jne	.L58
	.loc 2 401 12
	movl	$2, %eax
	jmp	.L55
.L58:
	.loc 2 402 10
	movl	$3, %eax
.L55:
	.loc 2 403 1
	leave
	.cfi_def_cfa 7, 8
	ret
	.cfi_endproc
.LFE54:
	.size	check_section, .-check_section
	.type	process_file, @function
process_file:
.LFB55:
	.loc 2 409 1
	.cfi_startproc
	endbr64
	pushq	%rbp
	.cfi_def_cfa_offset 16
	.cfi_offset 6, -16
	movq	%rsp, %rbp
	.cfi_def_cfa_register 6
	subq	$16, %rsp
	movq	%rdi, -8(%rbp)
	.loc 2 410 9
	jmp	.L60
.L65:
	.loc 2 412 15
	call	check_section
	.loc 2 412 7
	cmpl	$3, %eax
	je	.L61
	cmpl	$3, %eax
	ja	.L60
	cmpl	$2, %eax
	je	.L62
	cmpl	$2, %eax
	ja	.L60
	testl	%eax, %eax
	je	.L63
	cmpl	$1, %eax
	je	.L64
	jmp	.L60
.L63:
	.loc 2 415 11
	call	proc_header
	.loc 2 416 11
	jmp	.L60
.L64:
	.loc 2 418 11
	call	proc_body
	.loc 2 419 11
	jmp	.L60
.L62:
	.loc 2 421 11
	call	proc_footer
	.loc 2 422 11
	jmp	.L60
.L61:
	.loc 2 424 11
	call	proc_text
	.loc 2 425 11
	nop
.L60:
	.loc 2 410 10
	movq	-8(%rbp), %rax
	movq	%rax, %rsi
	leaq	line_buf(%rip), %rdi
	call	readlinebuffer@PLT
	.loc 2 410 9
	testq	%rax, %rax
	jne	.L65
	.loc 2 428 1
	nop
	nop
	leave
	.cfi_def_cfa 7, 8
	ret
	.cfi_endproc
.LFE55:
	.size	process_file, .-process_file
	.section	.rodata
.LC51:
	.string	"-"
.LC52:
	.string	"r"
	.text
	.type	nl_file, @function
nl_file:
.LFB56:
	.loc 2 435 1
	.cfi_startproc
	endbr64
	pushq	%rbp
	.cfi_def_cfa_offset 16
	.cfi_offset 6, -16
	movq	%rsp, %rbp
	.cfi_def_cfa_register 6
	pushq	%rbx
	subq	$40, %rsp
	.cfi_offset 3, -24
	movq	%rdi, -40(%rbp)
	.loc 2 438 7
	movq	-40(%rbp), %rax
	leaq	.LC51(%rip), %rsi
	movq	%rax, %rdi
	call	strcmp@PLT
	.loc 2 438 6
	testl	%eax, %eax
	jne	.L67
	.loc 2 440 23
	movb	$1, have_read_stdin(%rip)
	.loc 2 441 14
	movq	stdin(%rip), %rax
	movq	%rax, -24(%rbp)
	jmp	.L68
.L67:
	.loc 2 445 16
	movq	-40(%rbp), %rax
	leaq	.LC52(%rip), %rsi
	movq	%rax, %rdi
	call	fopen@PLT
	movq	%rax, -24(%rbp)
	.loc 2 446 10
	cmpq	$0, -24(%rbp)
	jne	.L68
	.loc 2 448 11
	movq	-40(%rbp), %rax
	movq	%rax, %rdx
	movl	$3, %esi
	movl	$0, %edi
	call	quotearg_n_style_colon@PLT
	movq	%rax, %rbx
	.loc 2 448 21
	call	__errno_location@PLT
	.loc 2 448 11
	movl	(%rax), %eax
	movq	%rbx, %rcx
	leaq	.LC48(%rip), %rdx
	movl	%eax, %esi
	movl	$0, %edi
	movl	$0, %eax
	call	error@PLT
	.loc 2 449 18
	movl	$0, %eax
	jmp	.L69
.L68:
	.loc 2 453 3
	movq	-24(%rbp), %rax
	movl	$2, %esi
	movq	%rax, %rdi
	call	fadvise@PLT
	.loc 2 455 3
	movq	-24(%rbp), %rax
	movq	%rax, %rdi
	call	process_file
	.loc 2 457 7
	movq	-24(%rbp), %rax
	movq	%rax, %rdi
	call	ferror_unlocked@PLT
	.loc 2 457 6
	testl	%eax, %eax
	je	.L70
	.loc 2 459 7
	movq	-40(%rbp), %rax
	movq	%rax, %rdx
	movl	$3, %esi
	movl	$0, %edi
	call	quotearg_n_style_colon@PLT
	movq	%rax, %rbx
	.loc 2 459 17
	call	__errno_location@PLT
	.loc 2 459 7
	movl	(%rax), %eax
	movq	%rbx, %rcx
	leaq	.LC48(%rip), %rdx
	movl	%eax, %esi
	movl	$0, %edi
	movl	$0, %eax
	call	error@PLT
	.loc 2 460 14
	movl	$0, %eax
	jmp	.L69
.L70:
	.loc 2 462 7
	movq	-40(%rbp), %rax
	leaq	.LC51(%rip), %rsi
	movq	%rax, %rdi
	call	strcmp@PLT
	.loc 2 462 6
	testl	%eax, %eax
	jne	.L71
	.loc 2 463 5
	movq	-24(%rbp), %rax
	movq	%rax, %rdi
	call	clearerr_unlocked@PLT
	jmp	.L72
.L71:
	.loc 2 464 12
	movq	-24(%rbp), %rax
	movq	%rax, %rdi
	call	rpl_fclose@PLT
	.loc 2 464 11
	cmpl	$-1, %eax
	jne	.L72
	.loc 2 466 7
	movq	-40(%rbp), %rax
	movq	%rax, %rdx
	movl	$3, %esi
	movl	$0, %edi
	call	quotearg_n_style_colon@PLT
	movq	%rax, %rbx
	.loc 2 466 17
	call	__errno_location@PLT
	.loc 2 466 7
	movl	(%rax), %eax
	movq	%rbx, %rcx
	leaq	.LC48(%rip), %rdx
	movl	%eax, %esi
	movl	$0, %edi
	movl	$0, %eax
	call	error@PLT
	.loc 2 467 14
	movl	$0, %eax
	jmp	.L69
.L72:
	.loc 2 469 10
	movl	$1, %eax
.L69:
	.loc 2 470 1
	addq	$40, %rsp
	popq	%rbx
	popq	%rbp
	.cfi_def_cfa 7, 8
	ret
	.cfi_endproc
.LFE56:
	.size	nl_file, .-nl_file
	.section	.rodata
.LC53:
	.string	"/usr/local/share/locale"
	.align 8
.LC54:
	.string	"invalid header numbering style: %s"
	.align 8
.LC55:
	.string	"invalid body numbering style: %s"
	.align 8
.LC56:
	.string	"invalid footer numbering style: %s"
.LC57:
	.string	"invalid starting line number"
.LC58:
	.string	"invalid line number increment"
	.align 8
.LC59:
	.string	"invalid line number of blank lines"
	.align 8
.LC60:
	.string	"invalid line number field width"
.LC61:
	.string	"ln"
.LC62:
	.string	"rn"
.LC63:
	.string	"rz"
	.align 8
.LC64:
	.string	"invalid line numbering format: %s"
.LC65:
	.string	"David MacKenzie"
.LC66:
	.string	"Scott Bartram"
.LC67:
	.string	"h:b:f:v:i:pl:s:w:n:d:"
	.text
	.globl	main
	.type	main, @function
main:
.LFB57:
	.loc 2 474 1
	.cfi_startproc
	endbr64
	pushq	%rbp
	.cfi_def_cfa_offset 16
	.cfi_offset 6, -16
	movq	%rsp, %rbp
	.cfi_def_cfa_register 6
	pushq	%r12
	pushq	%rbx
	subq	$32, %rsp
	.cfi_offset 12, -24
	.cfi_offset 3, -32
	movl	%edi, -36(%rbp)
	movq	%rsi, -48(%rbp)
	.loc 2 477 8
	movb	$1, -29(%rbp)
	.loc 2 480 3
	movq	-48(%rbp), %rax
	movq	(%rax), %rax
	movq	%rax, %rdi
	call	set_program_name@PLT
	.loc 2 481 3
	leaq	.LC18(%rip), %rsi
	movl	$6, %edi
	call	setlocale@PLT
	.loc 2 482 3
	leaq	.LC53(%rip), %rsi
	leaq	.LC4(%rip), %rdi
	call	bindtextdomain@PLT
	.loc 2 483 3
	leaq	.LC4(%rip), %rdi
	call	textdomain@PLT
	.loc 2 485 3
	movq	close_stdout@GOTPCREL(%rip), %rax
	movq	%rax, %rdi
	call	atexit@PLT
	.loc 2 487 19
	movb	$0, have_read_stdin(%rip)
	.loc 2 489 9
	jmp	.L74
.L98:
	.loc 2 492 7
	cmpl	$119, -28(%rbp)
	jg	.L75
	cmpl	$98, -28(%rbp)
	jge	.L76
	cmpl	$-131, -28(%rbp)
	je	.L77
	cmpl	$-130, -28(%rbp)
	je	.L78
	jmp	.L75
.L76:
	movl	-28(%rbp), %eax
	subl	$98, %eax
	cmpl	$21, %eax
	ja	.L75
	movl	%eax, %eax
	leaq	0(,%rax,4), %rdx
	leaq	.L80(%rip), %rax
	movl	(%rdx,%rax), %eax
	cltq
	leaq	.L80(%rip), %rdx
	addq	%rdx, %rax
	notrack jmp	*%rax
	.section	.rodata
	.align 4
	.align 4
.L80:
	.long	.L90-.L80
	.long	.L75-.L80
	.long	.L89-.L80
	.long	.L75-.L80
	.long	.L88-.L80
	.long	.L75-.L80
	.long	.L87-.L80
	.long	.L86-.L80
	.long	.L75-.L80
	.long	.L75-.L80
	.long	.L85-.L80
	.long	.L75-.L80
	.long	.L84-.L80
	.long	.L75-.L80
	.long	.L83-.L80
	.long	.L75-.L80
	.long	.L75-.L80
	.long	.L82-.L80
	.long	.L75-.L80
	.long	.L75-.L80
	.long	.L81-.L80
	.long	.L79-.L80
	.text
.L87:
	.loc 2 495 17
	leaq	header_fastmap(%rip), %rdx
	leaq	header_regex(%rip), %rsi
	leaq	header_type(%rip), %rdi
	call	build_type_arg
	.loc 2 495 15
	xorl	$1, %eax
	.loc 2 495 14
	testb	%al, %al
	je	.L74
	.loc 2 497 15
	movq	optarg(%rip), %rax
	movq	%rax, %rdi
	call	quote@PLT
	movq	%rax, %rbx
	.loc 2 497 28
	leaq	.LC54(%rip), %rdi
	call	gettext@PLT
	.loc 2 497 15
	movq	%rbx, %rcx
	movq	%rax, %rdx
	movl	$0, %esi
	movl	$0, %edi
	movl	$0, %eax
	call	error@PLT
	.loc 2 499 18
	movb	$0, -29(%rbp)
	.loc 2 501 11
	jmp	.L74
.L90:
	.loc 2 503 17
	leaq	body_fastmap(%rip), %rdx
	leaq	body_regex(%rip), %rsi
	leaq	body_type(%rip), %rdi
	call	build_type_arg
	.loc 2 503 15
	xorl	$1, %eax
	.loc 2 503 14
	testb	%al, %al
	je	.L74
	.loc 2 505 15
	movq	optarg(%rip), %rax
	movq	%rax, %rdi
	call	quote@PLT
	movq	%rax, %rbx
	.loc 2 505 28
	leaq	.LC55(%rip), %rdi
	call	gettext@PLT
	.loc 2 505 15
	movq	%rbx, %rcx
	movq	%rax, %rdx
	movl	$0, %esi
	movl	$0, %edi
	movl	$0, %eax
	call	error@PLT
	.loc 2 507 18
	movb	$0, -29(%rbp)
	.loc 2 509 11
	jmp	.L74
.L88:
	.loc 2 511 17
	leaq	footer_fastmap(%rip), %rdx
	leaq	footer_regex(%rip), %rsi
	leaq	footer_type(%rip), %rdi
	call	build_type_arg
	.loc 2 511 15
	xorl	$1, %eax
	.loc 2 511 14
	testb	%al, %al
	je	.L74
	.loc 2 513 15
	movq	optarg(%rip), %rax
	movq	%rax, %rdi
	call	quote@PLT
	movq	%rax, %rbx
	.loc 2 513 28
	leaq	.LC56(%rip), %rdi
	call	gettext@PLT
	.loc 2 513 15
	movq	%rbx, %rcx
	movq	%rax, %rdx
	movl	$0, %esi
	movl	$0, %edi
	movl	$0, %eax
	call	error@PLT
	.loc 2 515 18
	movb	$0, -29(%rbp)
	.loc 2 517 11
	jmp	.L74
.L81:
	.loc 2 520 46
	leaq	.LC57(%rip), %rdi
	call	gettext@PLT
	movq	%rax, %rdx
	.loc 2 519 34
	movq	optarg(%rip), %rax
	movl	$0, %r9d
	movq	%rdx, %r8
	leaq	.LC18(%rip), %rcx
	movabsq	$9223372036854775807, %rdx
	movabsq	$-9223372036854775808, %rsi
	movq	%rax, %rdi
	call	xdectoimax@PLT
	.loc 2 519 32
	movq	%rax, starting_line_number(%rip)
	.loc 2 522 11
	jmp	.L74
.L86:
	.loc 2 525 35
	leaq	.LC58(%rip), %rdi
	call	gettext@PLT
	movq	%rax, %rdx
	.loc 2 524 23
	movq	optarg(%rip), %rax
	movl	$0, %r9d
	movq	%rdx, %r8
	leaq	.LC18(%rip), %rcx
	movabsq	$9223372036854775807, %rdx
	movabsq	$-9223372036854775808, %rsi
	movq	%rax, %rdi
	call	xdectoimax@PLT
	.loc 2 524 21
	movq	%rax, page_incr(%rip)
	.loc 2 526 11
	jmp	.L74
.L83:
	.loc 2 528 25
	movb	$0, reset_numbers(%rip)
	.loc 2 529 11
	jmp	.L74
.L85:
	.loc 2 532 36
	leaq	.LC59(%rip), %rdi
	call	gettext@PLT
	movq	%rax, %rdx
	.loc 2 531 24
	movq	optarg(%rip), %rax
	movl	$0, %r9d
	movq	%rdx, %r8
	leaq	.LC18(%rip), %rcx
	movabsq	$9223372036854775807, %rdx
	movl	$1, %esi
	movq	%rax, %rdi
	call	xdectoimax@PLT
	.loc 2 531 22
	movq	%rax, blank_join(%rip)
	.loc 2 533 11
	jmp	.L74
.L82:
	.loc 2 535 25
	movq	optarg(%rip), %rax
	movq	%rax, separator_str(%rip)
	.loc 2 536 11
	jmp	.L74
.L79:
	.loc 2 539 38
	leaq	.LC60(%rip), %rdi
	call	gettext@PLT
	movq	%rax, %rdx
	.loc 2 538 26
	movq	optarg(%rip), %rax
	movl	$0, %r9d
	movq	%rdx, %r8
	leaq	.LC18(%rip), %rcx
	movl	$2147483647, %edx
	movl	$1, %esi
	movq	%rax, %rdi
	call	xdectoimax@PLT
	.loc 2 538 24
	movl	%eax, lineno_width(%rip)
	.loc 2 540 11
	jmp	.L74
.L84:
	.loc 2 542 15
	movq	optarg(%rip), %rax
	leaq	.LC61(%rip), %rsi
	movq	%rax, %rdi
	call	strcmp@PLT
	.loc 2 542 14
	testl	%eax, %eax
	jne	.L94
	.loc 2 543 27
	leaq	FORMAT_LEFT(%rip), %rax
	movq	%rax, lineno_format(%rip)
	jmp	.L74
.L94:
	.loc 2 544 20
	movq	optarg(%rip), %rax
	leaq	.LC62(%rip), %rsi
	movq	%rax, %rdi
	call	strcmp@PLT
	.loc 2 544 19
	testl	%eax, %eax
	jne	.L96
	.loc 2 545 27
	leaq	FORMAT_RIGHT_NOLZ(%rip), %rax
	movq	%rax, lineno_format(%rip)
	jmp	.L74
.L96:
	.loc 2 546 20
	movq	optarg(%rip), %rax
	leaq	.LC63(%rip), %rsi
	movq	%rax, %rdi
	call	strcmp@PLT
	.loc 2 546 19
	testl	%eax, %eax
	jne	.L97
	.loc 2 547 27
	leaq	FORMAT_RIGHT_LZ(%rip), %rax
	movq	%rax, lineno_format(%rip)
	jmp	.L74
.L97:
	.loc 2 550 15
	movq	optarg(%rip), %rax
	movq	%rax, %rdi
	call	quote@PLT
	movq	%rax, %rbx
	.loc 2 550 28
	leaq	.LC64(%rip), %rdi
	call	gettext@PLT
	.loc 2 550 15
	movq	%rbx, %rcx
	movq	%rax, %rdx
	movl	$0, %esi
	movl	$0, %edi
	movl	$0, %eax
	call	error@PLT
	.loc 2 552 18
	movb	$0, -29(%rbp)
	.loc 2 554 11
	jmp	.L74
.L89:
	.loc 2 556 23
	movq	optarg(%rip), %rax
	movq	%rax, section_del(%rip)
	.loc 2 557 11
	jmp	.L74
.L78:
	.loc 2 558 9
	movl	$0, %edi
	call	usage
.L77:
	.loc 2 559 9
	movq	Version(%rip), %rdx
	movq	stdout(%rip), %rax
	subq	$8, %rsp
	pushq	$0
	leaq	.LC65(%rip), %r9
	leaq	.LC66(%rip), %r8
	movq	%rdx, %rcx
	leaq	.LC13(%rip), %rdx
	leaq	.LC47(%rip), %rsi
	movq	%rax, %rdi
	movl	$0, %eax
	call	version_etc@PLT
	addq	$16, %rsp
	movl	$0, %edi
	call	exit@PLT
.L75:
	.loc 2 561 14
	movb	$0, -29(%rbp)
	.loc 2 562 11
	nop
.L74:
	.loc 2 489 15
	movq	-48(%rbp), %rsi
	movl	-36(%rbp), %eax
	movl	$0, %r8d
	leaq	longopts(%rip), %rcx
	leaq	.LC67(%rip), %rdx
	movl	%eax, %edi
	call	getopt_long@PLT
	movl	%eax, -28(%rbp)
	.loc 2 489 9
	cmpl	$-1, -28(%rbp)
	jne	.L98
	.loc 2 566 7
	movzbl	-29(%rbp), %eax
	xorl	$1, %eax
	.loc 2 566 6
	testb	%al, %al
	je	.L99
	.loc 2 567 5
	movl	$1, %edi
	call	usage
.L99:
	.loc 2 570 9
	movq	section_del(%rip), %rax
	movq	%rax, %rdi
	call	strlen@PLT
	movq	%rax, -24(%rbp)
	.loc 2 572 24
	movq	-24(%rbp), %rdx
	movq	%rdx, %rax
	addq	%rax, %rax
	addq	%rdx, %rax
	.loc 2 572 18
	movq	%rax, header_del_len(%rip)
	.loc 2 573 16
	movq	header_del_len(%rip), %rax
	addq	$1, %rax
	movq	%rax, %rdi
	call	xmalloc@PLT
	.loc 2 573 14
	movq	%rax, header_del(%rip)
	.loc 2 574 3
	movq	section_del(%rip), %rbx
	movq	section_del(%rip), %r12
	movq	section_del(%rip), %rdx
	movq	header_del(%rip), %rax
	movq	%rdx, %rsi
	movq	%rax, %rdi
	call	stpcpy@PLT
	movq	%r12, %rsi
	movq	%rax, %rdi
	call	stpcpy@PLT
	movq	%rbx, %rsi
	movq	%rax, %rdi
	call	strcpy@PLT
	.loc 2 576 22
	movq	-24(%rbp), %rax
	addq	%rax, %rax
	.loc 2 576 16
	movq	%rax, body_del_len(%rip)
	.loc 2 577 14
	movq	body_del_len(%rip), %rax
	addq	$1, %rax
	movq	%rax, %rdi
	call	xmalloc@PLT
	.loc 2 577 12
	movq	%rax, body_del(%rip)
	.loc 2 578 3
	movq	section_del(%rip), %rbx
	movq	section_del(%rip), %rdx
	movq	body_del(%rip), %rax
	movq	%rdx, %rsi
	movq	%rax, %rdi
	call	stpcpy@PLT
	movq	%rbx, %rsi
	movq	%rax, %rdi
	call	strcpy@PLT
	.loc 2 580 18
	movq	-24(%rbp), %rax
	movq	%rax, footer_del_len(%rip)
	.loc 2 581 16
	movq	footer_del_len(%rip), %rax
	addq	$1, %rax
	movq	%rax, %rdi
	call	xmalloc@PLT
	.loc 2 581 14
	movq	%rax, footer_del(%rip)
	.loc 2 582 3
	movq	section_del(%rip), %rdx
	movq	footer_del(%rip), %rax
	movq	%rdx, %rsi
	movq	%rax, %rdi
	call	strcpy@PLT
	.loc 2 585 3
	leaq	line_buf(%rip), %rdi
	call	initbuffer@PLT
	.loc 2 588 9
	movq	separator_str(%rip), %rax
	movq	%rax, %rdi
	call	strlen@PLT
	movq	%rax, -24(%rbp)
	.loc 2 589 45
	movl	lineno_width(%rip), %eax
	movslq	%eax, %rdx
	movq	-24(%rbp), %rax
	addq	%rdx, %rax
	.loc 2 589 23
	addq	$1, %rax
	movq	%rax, %rdi
	call	xmalloc@PLT
	.loc 2 589 21
	movq	%rax, print_no_line_fmt(%rip)
	.loc 2 590 3
	movl	lineno_width(%rip), %eax
	movslq	%eax, %rdx
	movq	-24(%rbp), %rax
	addq	%rax, %rdx
	movq	print_no_line_fmt(%rip), %rax
	movl	$32, %esi
	movq	%rax, %rdi
	call	memset@PLT
	.loc 2 591 20
	movq	print_no_line_fmt(%rip), %rax
	.loc 2 591 34
	movl	lineno_width(%rip), %edx
	movslq	%edx, %rcx
	movq	-24(%rbp), %rdx
	addq	%rcx, %rdx
	.loc 2 591 20
	addq	%rdx, %rax
	.loc 2 591 41
	movb	$0, (%rax)
	.loc 2 593 11
	movq	starting_line_number(%rip), %rax
	movq	%rax, line_no(%rip)
	.loc 2 594 16
	movq	body_type(%rip), %rax
	movq	%rax, current_type(%rip)
	.loc 2 595 17
	leaq	body_regex(%rip), %rax
	movq	%rax, current_regex(%rip)
	.loc 2 599 14
	movl	optind(%rip), %eax
	.loc 2 599 6
	cmpl	%eax, -36(%rbp)
	jne	.L102
	.loc 2 600 10
	leaq	.LC51(%rip), %rdi
	call	nl_file
	movb	%al, -29(%rbp)
	jmp	.L101
.L103:
	.loc 2 603 26 discriminator 2
	movl	optind(%rip), %eax
	cltq
	leaq	0(,%rax,8), %rdx
	movq	-48(%rbp), %rax
	addq	%rdx, %rax
	.loc 2 603 13 discriminator 2
	movq	(%rax), %rax
	movq	%rax, %rdi
	call	nl_file
	.loc 2 603 10 discriminator 2
	movzbl	-29(%rbp), %edx
	.loc 2 603 13 discriminator 2
	movzbl	%al, %eax
	.loc 2 603 10 discriminator 2
	andl	%edx, %eax
	testl	%eax, %eax
	setne	%al
	movb	%al, -29(%rbp)
	.loc 2 602 33 discriminator 2
	movl	optind(%rip), %eax
	addl	$1, %eax
	movl	%eax, optind(%rip)
.L102:
	.loc 2 602 19 discriminator 1
	movl	optind(%rip), %eax
	.loc 2 602 5 discriminator 1
	cmpl	%eax, -36(%rbp)
	jg	.L103
.L101:
	.loc 2 605 7
	movzbl	have_read_stdin(%rip), %eax
	.loc 2 605 6
	testb	%al, %al
	je	.L104
	.loc 2 605 26 discriminator 1
	movq	stdin(%rip), %rax
	movq	%rax, %rdi
	call	rpl_fclose@PLT
	.loc 2 605 23 discriminator 1
	cmpl	$-1, %eax
	jne	.L104
.LBB5:
	.loc 2 606 5
	call	__errno_location@PLT
	movl	(%rax), %eax
	leaq	.LC51(%rip), %rdx
	movl	%eax, %esi
	movl	$1, %edi
	movl	$0, %eax
	call	error@PLT
.L104:
.LBE5:
	.loc 2 608 28
	movzbl	-29(%rbp), %eax
	xorl	$1, %eax
	movzbl	%al, %eax
	.loc 2 609 1
	leaq	-16(%rbp), %rsp
	popq	%rbx
	popq	%r12
	popq	%rbp
	.cfi_def_cfa 7, 8
	ret
	.cfi_endproc
.LFE57:
	.size	main, .-main
	.local	blank_lines.6476
	.comm	blank_lines.6476,8,8
.Letext0:
	.file 3 "/usr/lib/gcc/x86_64-linux-gnu/9/include/stddef.h"
	.file 4 "/usr/include/x86_64-linux-gnu/bits/types.h"
	.file 5 "/usr/include/x86_64-linux-gnu/bits/types/struct_FILE.h"
	.file 6 "/usr/include/x86_64-linux-gnu/bits/types/FILE.h"
	.file 7 "/usr/include/stdio.h"
	.file 8 "/usr/include/x86_64-linux-gnu/bits/sys_errlist.h"
	.file 9 "/usr/include/x86_64-linux-gnu/bits/types/time_t.h"
	.file 10 "./lib/sys/select.h"
	.file 11 "/usr/include/x86_64-linux-gnu/bits/getopt_core.h"
	.file 12 "/usr/include/x86_64-linux-gnu/bits/getopt_ext.h"
	.file 13 "/usr/include/time.h"
	.file 14 "/usr/include/signal.h"
	.file 15 "/usr/include/unistd.h"
	.file 16 "/usr/include/errno.h"
	.file 17 "src/version.h"
	.file 18 "./lib/exitfail.h"
	.file 19 "/usr/include/stdint.h"
	.file 20 "./lib/timespec.h"
	.file 21 "./lib/version-etc.h"
	.file 22 "./lib/progname.h"
	.file 23 "./lib/quotearg.h"
	.file 24 "./lib/regex.h"
	.file 25 "./lib/error.h"
	.file 26 "./lib/fadvise.h"
	.file 27 "./lib/linebuffer.h"
	.file 28 "./lib/quote.h"
	.section	.note.GNU-stack,"",@progbits
	.section	.note.gnu.property,"a"
	.align 8
	.long	 1f - 0f
	.long	 4f - 1f
	.long	 5
0:
	.string	 "GNU"
1:
	.align 8
	.long	 0xc0000002
	.long	 3f - 2f
2:
	.long	 0x3
3:
	.align 8
4:
