	.file	"printenv.c"
	.text
.Ltext0:
	.type	initialize_exit_failure, @function
initialize_exit_failure:
.LFB6:
	.file 1 "src/system.h"
	.loc 1 100 1
	.cfi_startproc
	pushq	%rbp
	.cfi_def_cfa_offset 16
	.cfi_offset 6, -16
	movq	%rsp, %rbp
	.cfi_def_cfa_register 6
	movl	%edi, -4(%rbp)
	.loc 1 101 6
	cmpl	$1, -4(%rbp)
	je	.L3
	.loc 1 102 18
	movl	-4(%rbp), %eax
	movl	%eax, exit_failure(%rip)
.L3:
	.loc 1 103 1
	nop
	popq	%rbp
	.cfi_def_cfa 7, 8
	ret
	.cfi_endproc
.LFE6:
	.size	initialize_exit_failure, .-initialize_exit_failure
	.section	.rodata
.LC0:
	.string	"["
.LC1:
	.string	"test invocation"
.LC2:
	.string	"coreutils"
.LC3:
	.string	"Multi-call invocation"
.LC4:
	.string	"sha224sum"
.LC5:
	.string	"sha2 utilities"
.LC6:
	.string	"sha256sum"
.LC7:
	.string	"sha384sum"
.LC8:
	.string	"sha512sum"
.LC9:
	.string	"\n%s online help: <%s>\n"
	.align 8
.LC10:
	.string	"https://www.gnu.org/software/coreutils/"
.LC11:
	.string	"GNU coreutils"
.LC12:
	.string	"en_"
	.align 8
.LC13:
	.string	"Report any translation bugs to <https://translationproject.org/team/>\n"
.LC14:
	.string	"Full documentation <%s%s>\n"
.LC15:
	.string	" invocation"
.LC16:
	.string	""
	.align 8
.LC17:
	.string	"or available locally via: info '(coreutils) %s%s'\n"
	.text
	.type	emit_ancillary_info, @function
emit_ancillary_info:
.LFB40:
	.loc 1 635 1
	.cfi_startproc
	pushq	%rbp
	.cfi_def_cfa_offset 16
	.cfi_offset 6, -16
	movq	%rsp, %rbp
	.cfi_def_cfa_register 6
	pushq	%rbx
	subq	$184, %rsp
	.cfi_offset 3, -24
	movq	%rdi, -184(%rbp)
	.loc 1 635 1
	movq	%fs:40, %rax
	movq	%rax, -24(%rbp)
	xorl	%eax, %eax
	.loc 1 636 67
	leaq	.LC0(%rip), %rax
	movq	%rax, -144(%rbp)
	leaq	.LC1(%rip), %rax
	movq	%rax, -136(%rbp)
	leaq	.LC2(%rip), %rax
	movq	%rax, -128(%rbp)
	leaq	.LC3(%rip), %rax
	movq	%rax, -120(%rbp)
	leaq	.LC4(%rip), %rax
	movq	%rax, -112(%rbp)
	leaq	.LC5(%rip), %rax
	movq	%rax, -104(%rbp)
	leaq	.LC6(%rip), %rax
	movq	%rax, -96(%rbp)
	leaq	.LC5(%rip), %rax
	movq	%rax, -88(%rbp)
	leaq	.LC7(%rip), %rax
	movq	%rax, -80(%rbp)
	leaq	.LC5(%rip), %rax
	movq	%rax, -72(%rbp)
	leaq	.LC8(%rip), %rax
	movq	%rax, -64(%rbp)
	leaq	.LC5(%rip), %rax
	movq	%rax, -56(%rbp)
	movq	$0, -48(%rbp)
	movq	$0, -40(%rbp)
	.loc 1 646 15
	movq	-184(%rbp), %rax
	movq	%rax, -168(%rbp)
	.loc 1 647 25
	leaq	-144(%rbp), %rax
	movq	%rax, -160(%rbp)
	.loc 1 649 9
	jmp	.L5
.L7:
	.loc 1 650 13
	addq	$16, -160(%rbp)
.L5:
	.loc 1 649 18
	movq	-160(%rbp), %rax
	movq	(%rax), %rax
	.loc 1 649 9
	testq	%rax, %rax
	je	.L6
	.loc 1 649 33 discriminator 1
	movq	-160(%rbp), %rax
	movq	(%rax), %rdx
	movq	-184(%rbp), %rax
	movq	%rdx, %rsi
	movq	%rax, %rdi
	call	strcmp@PLT
	.loc 1 649 28 discriminator 1
	testl	%eax, %eax
	jne	.L7
.L6:
	.loc 1 652 15
	movq	-160(%rbp), %rax
	movq	8(%rax), %rax
	.loc 1 652 6
	testq	%rax, %rax
	je	.L8
	.loc 1 653 10
	movq	-160(%rbp), %rax
	movq	8(%rax), %rax
	movq	%rax, -168(%rbp)
.L8:
	.loc 1 655 11
	leaq	.LC9(%rip), %rdi
	call	gettext@PLT
	.loc 1 655 3
	leaq	.LC10(%rip), %rdx
	leaq	.LC11(%rip), %rsi
	movq	%rax, %rdi
	movl	$0, %eax
	call	printf@PLT
	.loc 1 659 29
	movl	$0, %esi
	movl	$5, %edi
	call	setlocale@PLT
	movq	%rax, -152(%rbp)
	.loc 1 660 6
	cmpq	$0, -152(%rbp)
	je	.L9
	.loc 1 660 22 discriminator 1
	movq	-152(%rbp), %rax
	movl	$3, %edx
	leaq	.LC12(%rip), %rsi
	movq	%rax, %rdi
	call	strncmp@PLT
	.loc 1 660 19 discriminator 1
	testl	%eax, %eax
	je	.L9
	.loc 1 666 7
	movq	stdout(%rip), %rbx
	leaq	.LC13(%rip), %rdi
	call	gettext@PLT
	movq	%rbx, %rsi
	movq	%rax, %rdi
	call	fputs_unlocked@PLT
.L9:
	.loc 1 669 11
	leaq	.LC14(%rip), %rdi
	call	gettext@PLT
	movq	%rax, %rcx
	.loc 1 669 3
	movq	-184(%rbp), %rax
	movq	%rax, %rdx
	leaq	.LC10(%rip), %rsi
	movq	%rcx, %rdi
	movl	$0, %eax
	call	printf@PLT
	.loc 1 671 3
	movq	-168(%rbp), %rax
	cmpq	-184(%rbp), %rax
	jne	.L10
	.loc 1 671 3 is_stmt 0 discriminator 1
	leaq	.LC15(%rip), %rbx
	jmp	.L11
.L10:
	.loc 1 671 3 discriminator 2
	leaq	.LC16(%rip), %rbx
.L11:
	.loc 1 671 11 is_stmt 1 discriminator 4
	leaq	.LC17(%rip), %rdi
	call	gettext@PLT
	movq	%rax, %rcx
	.loc 1 671 3 discriminator 4
	movq	-168(%rbp), %rax
	movq	%rbx, %rdx
	movq	%rax, %rsi
	movq	%rcx, %rdi
	movl	$0, %eax
	call	printf@PLT
	.loc 1 673 1 discriminator 4
	nop
	movq	-24(%rbp), %rax
	xorq	%fs:40, %rax
	je	.L12
	.loc 1 673 1 is_stmt 0
	call	__stack_chk_fail@PLT
.L12:
	addq	$184, %rsp
	popq	%rbx
	popq	%rbp
	.cfi_def_cfa 7, 8
	ret
	.cfi_endproc
.LFE40:
	.size	emit_ancillary_info, .-emit_ancillary_info
	.section	.rodata
.LC18:
	.string	"null"
.LC19:
	.string	"help"
.LC20:
	.string	"version"
	.section	.data.rel.ro.local,"aw"
	.align 32
	.type	longopts, @object
	.size	longopts, 128
longopts:
	.quad	.LC18
	.long	0
	.zero	4
	.quad	0
	.long	48
	.zero	4
	.quad	.LC19
	.long	0
	.zero	4
	.quad	0
	.long	-130
	.zero	4
	.quad	.LC20
	.long	0
	.zero	4
	.quad	0
	.long	-131
	.zero	4
	.quad	0
	.long	0
	.zero	4
	.quad	0
	.long	0
	.zero	4
	.section	.rodata
	.align 8
.LC21:
	.string	"Try '%s --help' for more information.\n"
	.align 8
.LC22:
	.string	"Usage: %s [OPTION]... [VARIABLE]...\nPrint the values of the specified environment VARIABLE(s).\nIf no VARIABLE is specified, print name and value pairs for them all.\n\n"
	.align 8
.LC23:
	.string	"  -0, --null     end each output line with NUL, not newline\n"
	.align 8
.LC24:
	.string	"      --help     display this help and exit\n"
	.align 8
.LC25:
	.string	"      --version  output version information and exit\n"
	.align 8
.LC26:
	.string	"\nNOTE: your shell may have its own version of %s, which usually supersedes\nthe version described here.  Please refer to your shell's documentation\nfor details about the options it supports.\n"
.LC27:
	.string	"printenv"
	.text
	.globl	usage
	.type	usage, @function
usage:
.LFB46:
	.file 2 "src/printenv.c"
	.loc 2 57 1 is_stmt 1
	.cfi_startproc
	endbr64
	pushq	%rbp
	.cfi_def_cfa_offset 16
	.cfi_offset 6, -16
	movq	%rsp, %rbp
	.cfi_def_cfa_register 6
	pushq	%rbx
	subq	$24, %rsp
	.cfi_offset 3, -24
	movl	%edi, -20(%rbp)
	.loc 2 58 6
	cmpl	$0, -20(%rbp)
	je	.L14
	.loc 2 59 5
	movq	program_name(%rip), %rbx
	leaq	.LC21(%rip), %rdi
	call	gettext@PLT
	movq	%rax, %rcx
	movq	stderr(%rip), %rax
	movq	%rbx, %rdx
	movq	%rcx, %rsi
	movq	%rax, %rdi
	movl	$0, %eax
	call	fprintf@PLT
	jmp	.L15
.L14:
	.loc 2 62 7
	movq	program_name(%rip), %rbx
	.loc 2 62 15
	leaq	.LC22(%rip), %rdi
	call	gettext@PLT
	.loc 2 62 7
	movq	%rbx, %rsi
	movq	%rax, %rdi
	movl	$0, %eax
	call	printf@PLT
	.loc 2 69 7
	movq	stdout(%rip), %rbx
	leaq	.LC23(%rip), %rdi
	call	gettext@PLT
	movq	%rbx, %rsi
	movq	%rax, %rdi
	call	fputs_unlocked@PLT
	.loc 2 72 7
	movq	stdout(%rip), %rbx
	leaq	.LC24(%rip), %rdi
	call	gettext@PLT
	movq	%rbx, %rsi
	movq	%rax, %rdi
	call	fputs_unlocked@PLT
	.loc 2 73 7
	movq	stdout(%rip), %rbx
	leaq	.LC25(%rip), %rdi
	call	gettext@PLT
	movq	%rbx, %rsi
	movq	%rax, %rdi
	call	fputs_unlocked@PLT
	.loc 2 74 15
	leaq	.LC26(%rip), %rdi
	call	gettext@PLT
	.loc 2 74 7
	leaq	.LC27(%rip), %rsi
	movq	%rax, %rdi
	movl	$0, %eax
	call	printf@PLT
	.loc 2 75 7
	leaq	.LC27(%rip), %rdi
	call	emit_ancillary_info
.L15:
	.loc 2 77 3
	movl	-20(%rbp), %eax
	movl	%eax, %edi
	call	exit@PLT
	.cfi_endproc
.LFE46:
	.size	usage, .-usage
	.section	.rodata
.LC28:
	.string	"/usr/local/share/locale"
.LC29:
	.string	"Richard Mlynarik"
.LC30:
	.string	"David MacKenzie"
.LC31:
	.string	"+iu:0"
.LC32:
	.string	"%s%c"
	.text
	.globl	main
	.type	main, @function
main:
.LFB47:
	.loc 2 82 1
	.cfi_startproc
	endbr64
	pushq	%rbp
	.cfi_def_cfa_offset 16
	.cfi_offset 6, -16
	movq	%rsp, %rbp
	.cfi_def_cfa_register 6
	subq	$64, %rsp
	movl	%edi, -52(%rbp)
	movq	%rsi, -64(%rbp)
	.loc 2 88 8
	movb	$0, -38(%rbp)
	.loc 2 91 3
	movq	-64(%rbp), %rax
	movq	(%rax), %rax
	movq	%rax, %rdi
	call	set_program_name@PLT
	.loc 2 92 3
	leaq	.LC16(%rip), %rsi
	movl	$6, %edi
	call	setlocale@PLT
	.loc 2 93 3
	leaq	.LC28(%rip), %rsi
	leaq	.LC2(%rip), %rdi
	call	bindtextdomain@PLT
	.loc 2 94 3
	leaq	.LC2(%rip), %rdi
	call	textdomain@PLT
	.loc 2 96 3
	movl	$2, %edi
	call	initialize_exit_failure
	.loc 2 97 3
	movq	close_stdout@GOTPCREL(%rip), %rax
	movq	%rax, %rdi
	call	atexit@PLT
	.loc 2 99 9
	jmp	.L17
.L22:
	.loc 2 101 7
	cmpl	$48, -28(%rbp)
	je	.L18
	cmpl	$48, -28(%rbp)
	jg	.L19
	cmpl	$-131, -28(%rbp)
	je	.L20
	cmpl	$-130, -28(%rbp)
	je	.L21
	jmp	.L19
.L18:
	.loc 2 104 36
	movb	$1, -38(%rbp)
	.loc 2 105 11
	jmp	.L17
.L21:
	.loc 2 106 9
	movl	$0, %edi
	call	usage
.L20:
	.loc 2 107 9
	movq	Version(%rip), %rdx
	movq	stdout(%rip), %rax
	subq	$8, %rsp
	pushq	$0
	leaq	.LC29(%rip), %r9
	leaq	.LC30(%rip), %r8
	movq	%rdx, %rcx
	leaq	.LC11(%rip), %rdx
	leaq	.LC27(%rip), %rsi
	movq	%rax, %rdi
	movl	$0, %eax
	call	version_etc@PLT
	addq	$16, %rsp
	movl	$0, %edi
	call	exit@PLT
.L19:
	.loc 2 109 11
	movl	$2, %edi
	call	usage
.L17:
	.loc 2 99 18
	movq	-64(%rbp), %rsi
	movl	-52(%rbp), %eax
	movl	$0, %r8d
	leaq	longopts(%rip), %rcx
	leaq	.LC31(%rip), %rdx
	movl	%eax, %edi
	call	getopt_long@PLT
	movl	%eax, -28(%rbp)
	.loc 2 99 9
	cmpl	$-1, -28(%rbp)
	jne	.L22
	.loc 2 113 14
	movl	optind(%rip), %eax
	.loc 2 113 6
	cmpl	%eax, -52(%rbp)
	jg	.L23
	.loc 2 115 16
	movq	environ(%rip), %rax
	movq	%rax, -24(%rbp)
	.loc 2 115 7
	jmp	.L24
.L27:
	.loc 2 116 9
	cmpb	$0, -38(%rbp)
	je	.L25
	.loc 2 116 9 is_stmt 0 discriminator 1
	movl	$0, %edx
	jmp	.L26
.L25:
	.loc 2 116 9 discriminator 2
	movl	$10, %edx
.L26:
	.loc 2 116 9 discriminator 4
	movq	-24(%rbp), %rax
	movq	(%rax), %rax
	movq	%rax, %rsi
	leaq	.LC32(%rip), %rdi
	movl	$0, %eax
	call	printf@PLT
	.loc 2 115 41 is_stmt 1 discriminator 4
	addq	$8, -24(%rbp)
.L24:
	.loc 2 115 27 discriminator 2
	movq	-24(%rbp), %rax
	movq	(%rax), %rax
	.loc 2 115 7 discriminator 2
	testq	%rax, %rax
	jne	.L27
	.loc 2 117 10
	movb	$1, -39(%rbp)
	jmp	.L28
.L23:
.LBB2:
	.loc 2 121 11
	movl	$0, -32(%rbp)
	.loc 2 123 14
	movl	optind(%rip), %eax
	movl	%eax, -36(%rbp)
	.loc 2 123 7
	jmp	.L29
.L39:
.LBB3:
	.loc 2 125 16
	movb	$0, -37(%rbp)
	.loc 2 128 27
	movl	-36(%rbp), %eax
	cltq
	leaq	0(,%rax,8), %rdx
	movq	-64(%rbp), %rax
	addq	%rdx, %rax
	.loc 2 128 15
	movq	(%rax), %rax
	movl	$61, %esi
	movq	%rax, %rdi
	call	strchr@PLT
	.loc 2 128 14
	testq	%rax, %rax
	jne	.L41
	.loc 2 131 20
	movq	environ(%rip), %rax
	movq	%rax, -24(%rbp)
	.loc 2 131 11
	jmp	.L32
.L38:
	.loc 2 133 18
	movq	-24(%rbp), %rax
	movq	(%rax), %rax
	movq	%rax, -16(%rbp)
	.loc 2 134 24
	movl	-36(%rbp), %eax
	cltq
	leaq	0(,%rax,8), %rdx
	movq	-64(%rbp), %rax
	addq	%rdx, %rax
	.loc 2 134 18
	movq	(%rax), %rax
	movq	%rax, -8(%rbp)
	.loc 2 135 21
	jmp	.L33
.L37:
	.loc 2 137 23
	movq	-16(%rbp), %rax
	movzbl	(%rax), %eax
	.loc 2 137 22
	cmpb	$61, %al
	jne	.L33
	.loc 2 137 37 discriminator 1
	movq	-8(%rbp), %rax
	movzbl	(%rax), %eax
	.loc 2 137 34 discriminator 1
	testb	%al, %al
	jne	.L33
	.loc 2 139 23
	cmpb	$0, -38(%rbp)
	je	.L34
	.loc 2 139 23 is_stmt 0 discriminator 1
	movl	$0, %edx
	jmp	.L35
.L34:
	.loc 2 139 23 discriminator 2
	movl	$10, %edx
.L35:
	.loc 2 139 23 discriminator 4
	movq	-16(%rbp), %rax
	addq	$1, %rax
	movq	%rax, %rsi
	leaq	.LC32(%rip), %rdi
	movl	$0, %eax
	call	printf@PLT
	.loc 2 141 31 is_stmt 1 discriminator 4
	movb	$1, -37(%rbp)
	.loc 2 142 23 discriminator 4
	jmp	.L36
.L33:
	.loc 2 135 22
	movq	-16(%rbp), %rax
	movzbl	(%rax), %eax
	.loc 2 135 21
	testb	%al, %al
	je	.L36
	.loc 2 135 37 discriminator 1
	movq	-8(%rbp), %rax
	movzbl	(%rax), %eax
	.loc 2 135 34 discriminator 1
	testb	%al, %al
	je	.L36
	.loc 2 135 55 discriminator 2
	movq	-16(%rbp), %rax
	leaq	1(%rax), %rdx
	movq	%rdx, -16(%rbp)
	.loc 2 135 52 discriminator 2
	movzbl	(%rax), %ecx
	.loc 2 135 64 discriminator 2
	movq	-8(%rbp), %rax
	leaq	1(%rax), %rdx
	movq	%rdx, -8(%rbp)
	.loc 2 135 61 discriminator 2
	movzbl	(%rax), %eax
	.loc 2 135 49 discriminator 2
	cmpb	%al, %cl
	je	.L37
.L36:
	.loc 2 131 37 discriminator 2
	addq	$8, -24(%rbp)
.L32:
	.loc 2 131 31 discriminator 1
	movq	-24(%rbp), %rax
	movq	(%rax), %rax
	.loc 2 131 11 discriminator 1
	testq	%rax, %rax
	jne	.L38
	.loc 2 147 19
	movzbl	-37(%rbp), %eax
	addl	%eax, -32(%rbp)
	jmp	.L31
.L41:
	.loc 2 129 13
	nop
.L31:
.LBE3:
	.loc 2 123 34 discriminator 2
	addl	$1, -36(%rbp)
.L29:
	.loc 2 123 7 discriminator 1
	movl	-36(%rbp), %eax
	cmpl	-52(%rbp), %eax
	jl	.L39
	.loc 2 150 29
	movl	optind(%rip), %eax
	movl	-52(%rbp), %edx
	subl	%eax, %edx
	movl	%edx, %eax
	.loc 2 150 10
	cmpl	%eax, -32(%rbp)
	sete	%al
	movb	%al, -39(%rbp)
.L28:
.LBE2:
	.loc 2 153 28
	movzbl	-39(%rbp), %eax
	xorl	$1, %eax
	movzbl	%al, %eax
	.loc 2 154 1
	leave
	.cfi_def_cfa 7, 8
	ret
	.cfi_endproc
.LFE47:
	.size	main, .-main
.Letext0:
	.file 3 "/usr/lib/gcc/x86_64-linux-gnu/9/include/stddef.h"
	.file 4 "/usr/include/x86_64-linux-gnu/bits/types.h"
	.file 5 "/usr/include/x86_64-linux-gnu/bits/types/struct_FILE.h"
	.file 6 "/usr/include/x86_64-linux-gnu/bits/types/FILE.h"
	.file 7 "/usr/include/stdio.h"
	.file 8 "/usr/include/x86_64-linux-gnu/bits/sys_errlist.h"
	.file 9 "/usr/include/x86_64-linux-gnu/bits/types/time_t.h"
	.file 10 "./lib/sys/select.h"
	.file 11 "/usr/include/x86_64-linux-gnu/bits/getopt_core.h"
	.file 12 "/usr/include/x86_64-linux-gnu/bits/getopt_ext.h"
	.file 13 "/usr/include/time.h"
	.file 14 "/usr/include/signal.h"
	.file 15 "/usr/include/unistd.h"
	.file 16 "/usr/include/errno.h"
	.file 17 "src/version.h"
	.file 18 "./lib/exitfail.h"
	.file 19 "./lib/timespec.h"
	.file 20 "./lib/version-etc.h"
	.file 21 "./lib/progname.h"
	.file 22 "./lib/quotearg.h"
	.section	.note.GNU-stack,"",@progbits
	.section	.note.gnu.property,"a"
	.align 8
	.long	 1f - 0f
	.long	 4f - 1f
	.long	 5
0:
	.string	 "GNU"
1:
	.align 8
	.long	 0xc0000002
	.long	 3f - 2f
2:
	.long	 0x3
3:
	.align 8
4:
