	.file	"readlink.c"
	.text
.Ltext0:
	.section	.rodata
.LC0:
	.string	"["
.LC1:
	.string	"test invocation"
.LC2:
	.string	"coreutils"
.LC3:
	.string	"Multi-call invocation"
.LC4:
	.string	"sha224sum"
.LC5:
	.string	"sha2 utilities"
.LC6:
	.string	"sha256sum"
.LC7:
	.string	"sha384sum"
.LC8:
	.string	"sha512sum"
.LC9:
	.string	"\n%s online help: <%s>\n"
	.align 8
.LC10:
	.string	"https://www.gnu.org/software/coreutils/"
.LC11:
	.string	"GNU coreutils"
.LC12:
	.string	"en_"
	.align 8
.LC13:
	.string	"Report any translation bugs to <https://translationproject.org/team/>\n"
.LC14:
	.string	"Full documentation <%s%s>\n"
.LC15:
	.string	" invocation"
.LC16:
	.string	""
	.align 8
.LC17:
	.string	"or available locally via: info '(coreutils) %s%s'\n"
	.text
	.type	emit_ancillary_info, @function
emit_ancillary_info:
.LFB40:
	.file 1 "src/system.h"
	.loc 1 635 1
	.cfi_startproc
	pushq	%rbp
	.cfi_def_cfa_offset 16
	.cfi_offset 6, -16
	movq	%rsp, %rbp
	.cfi_def_cfa_register 6
	pushq	%rbx
	subq	$184, %rsp
	.cfi_offset 3, -24
	movq	%rdi, -184(%rbp)
	.loc 1 635 1
	movq	%fs:40, %rax
	movq	%rax, -24(%rbp)
	xorl	%eax, %eax
	.loc 1 636 67
	leaq	.LC0(%rip), %rax
	movq	%rax, -144(%rbp)
	leaq	.LC1(%rip), %rax
	movq	%rax, -136(%rbp)
	leaq	.LC2(%rip), %rax
	movq	%rax, -128(%rbp)
	leaq	.LC3(%rip), %rax
	movq	%rax, -120(%rbp)
	leaq	.LC4(%rip), %rax
	movq	%rax, -112(%rbp)
	leaq	.LC5(%rip), %rax
	movq	%rax, -104(%rbp)
	leaq	.LC6(%rip), %rax
	movq	%rax, -96(%rbp)
	leaq	.LC5(%rip), %rax
	movq	%rax, -88(%rbp)
	leaq	.LC7(%rip), %rax
	movq	%rax, -80(%rbp)
	leaq	.LC5(%rip), %rax
	movq	%rax, -72(%rbp)
	leaq	.LC8(%rip), %rax
	movq	%rax, -64(%rbp)
	leaq	.LC5(%rip), %rax
	movq	%rax, -56(%rbp)
	movq	$0, -48(%rbp)
	movq	$0, -40(%rbp)
	.loc 1 646 15
	movq	-184(%rbp), %rax
	movq	%rax, -168(%rbp)
	.loc 1 647 25
	leaq	-144(%rbp), %rax
	movq	%rax, -160(%rbp)
	.loc 1 649 9
	jmp	.L2
.L4:
	.loc 1 650 13
	addq	$16, -160(%rbp)
.L2:
	.loc 1 649 18
	movq	-160(%rbp), %rax
	movq	(%rax), %rax
	.loc 1 649 9
	testq	%rax, %rax
	je	.L3
	.loc 1 649 33 discriminator 1
	movq	-160(%rbp), %rax
	movq	(%rax), %rdx
	movq	-184(%rbp), %rax
	movq	%rdx, %rsi
	movq	%rax, %rdi
	call	strcmp@PLT
	.loc 1 649 28 discriminator 1
	testl	%eax, %eax
	jne	.L4
.L3:
	.loc 1 652 15
	movq	-160(%rbp), %rax
	movq	8(%rax), %rax
	.loc 1 652 6
	testq	%rax, %rax
	je	.L5
	.loc 1 653 10
	movq	-160(%rbp), %rax
	movq	8(%rax), %rax
	movq	%rax, -168(%rbp)
.L5:
	.loc 1 655 11
	leaq	.LC9(%rip), %rdi
	call	gettext@PLT
	.loc 1 655 3
	leaq	.LC10(%rip), %rdx
	leaq	.LC11(%rip), %rsi
	movq	%rax, %rdi
	movl	$0, %eax
	call	printf@PLT
	.loc 1 659 29
	movl	$0, %esi
	movl	$5, %edi
	call	setlocale@PLT
	movq	%rax, -152(%rbp)
	.loc 1 660 6
	cmpq	$0, -152(%rbp)
	je	.L6
	.loc 1 660 22 discriminator 1
	movq	-152(%rbp), %rax
	movl	$3, %edx
	leaq	.LC12(%rip), %rsi
	movq	%rax, %rdi
	call	strncmp@PLT
	.loc 1 660 19 discriminator 1
	testl	%eax, %eax
	je	.L6
	.loc 1 666 7
	movq	stdout(%rip), %rbx
	leaq	.LC13(%rip), %rdi
	call	gettext@PLT
	movq	%rbx, %rsi
	movq	%rax, %rdi
	call	fputs_unlocked@PLT
.L6:
	.loc 1 669 11
	leaq	.LC14(%rip), %rdi
	call	gettext@PLT
	movq	%rax, %rcx
	.loc 1 669 3
	movq	-184(%rbp), %rax
	movq	%rax, %rdx
	leaq	.LC10(%rip), %rsi
	movq	%rcx, %rdi
	movl	$0, %eax
	call	printf@PLT
	.loc 1 671 3
	movq	-168(%rbp), %rax
	cmpq	-184(%rbp), %rax
	jne	.L7
	.loc 1 671 3 is_stmt 0 discriminator 1
	leaq	.LC15(%rip), %rbx
	jmp	.L8
.L7:
	.loc 1 671 3 discriminator 2
	leaq	.LC16(%rip), %rbx
.L8:
	.loc 1 671 11 is_stmt 1 discriminator 4
	leaq	.LC17(%rip), %rdi
	call	gettext@PLT
	movq	%rax, %rcx
	.loc 1 671 3 discriminator 4
	movq	-168(%rbp), %rax
	movq	%rbx, %rdx
	movq	%rax, %rsi
	movq	%rcx, %rdi
	movl	$0, %eax
	call	printf@PLT
	.loc 1 673 1 discriminator 4
	nop
	movq	-24(%rbp), %rax
	xorq	%fs:40, %rax
	je	.L9
	.loc 1 673 1 is_stmt 0
	call	__stack_chk_fail@PLT
.L9:
	addq	$184, %rsp
	popq	%rbx
	popq	%rbp
	.cfi_def_cfa 7, 8
	ret
	.cfi_endproc
.LFE40:
	.size	emit_ancillary_info, .-emit_ancillary_info
	.local	no_newline
	.comm	no_newline,1,1
	.local	verbose
	.comm	verbose,1,1
	.section	.rodata
.LC18:
	.string	"canonicalize"
.LC19:
	.string	"canonicalize-existing"
.LC20:
	.string	"canonicalize-missing"
.LC21:
	.string	"no-newline"
.LC22:
	.string	"quiet"
.LC23:
	.string	"silent"
.LC24:
	.string	"verbose"
.LC25:
	.string	"zero"
.LC26:
	.string	"help"
.LC27:
	.string	"version"
	.section	.data.rel.ro.local,"aw"
	.align 32
	.type	longopts, @object
	.size	longopts, 352
longopts:
	.quad	.LC18
	.long	0
	.zero	4
	.quad	0
	.long	102
	.zero	4
	.quad	.LC19
	.long	0
	.zero	4
	.quad	0
	.long	101
	.zero	4
	.quad	.LC20
	.long	0
	.zero	4
	.quad	0
	.long	109
	.zero	4
	.quad	.LC21
	.long	0
	.zero	4
	.quad	0
	.long	110
	.zero	4
	.quad	.LC22
	.long	0
	.zero	4
	.quad	0
	.long	113
	.zero	4
	.quad	.LC23
	.long	0
	.zero	4
	.quad	0
	.long	115
	.zero	4
	.quad	.LC24
	.long	0
	.zero	4
	.quad	0
	.long	118
	.zero	4
	.quad	.LC25
	.long	0
	.zero	4
	.quad	0
	.long	122
	.zero	4
	.quad	.LC26
	.long	0
	.zero	4
	.quad	0
	.long	-130
	.zero	4
	.quad	.LC27
	.long	0
	.zero	4
	.quad	0
	.long	-131
	.zero	4
	.quad	0
	.long	0
	.zero	4
	.quad	0
	.long	0
	.zero	4
	.section	.rodata
	.align 8
.LC28:
	.string	"Try '%s --help' for more information.\n"
	.align 8
.LC29:
	.string	"Usage: %s [OPTION]... FILE...\n"
	.align 8
.LC30:
	.string	"Print value of a symbolic link or canonical file name\n\n"
	.align 8
.LC31:
	.ascii	"  -f, --canonicalize            canonicalize by following ev"
	.ascii	"ery symlink in\n                                every compon"
	.ascii	"ent of the given name recursively;\n                        "
	.ascii	"  "
	.string	"      all but the last component must exist\n  -e, --canonicalize-existing   canonicalize by following every symlink in\n                                every component of the given name recursively,\n                                all components must exist\n"
	.align 8
.LC32:
	.ascii	"  -m, --canonicalize-missing    canonicalize by following ev"
	.ascii	"ery symlink in\n                                every compon"
	.ascii	"ent of the given name recursively,\n                        "
	.ascii	"        without requirements on components existence\n  -n, "
	.ascii	"--no-newline              d"
	.string	"o not output the trailing delimiter\n  -q, --quiet\n  -s, --silent                  suppress most error messages (on by default)\n  -v, --verbose                 report error messages\n  -z, --zero                    end each output line with NUL, not newline\n"
	.align 8
.LC33:
	.string	"      --help     display this help and exit\n"
	.align 8
.LC34:
	.string	"      --version  output version information and exit\n"
.LC35:
	.string	"readlink"
	.text
	.globl	usage
	.type	usage, @function
usage:
.LFB46:
	.file 2 "src/readlink.c"
	.loc 2 57 1 is_stmt 1
	.cfi_startproc
	endbr64
	pushq	%rbp
	.cfi_def_cfa_offset 16
	.cfi_offset 6, -16
	movq	%rsp, %rbp
	.cfi_def_cfa_register 6
	pushq	%rbx
	subq	$24, %rsp
	.cfi_offset 3, -24
	movl	%edi, -20(%rbp)
	.loc 2 58 6
	cmpl	$0, -20(%rbp)
	je	.L11
	.loc 2 59 5
	movq	program_name(%rip), %rbx
	leaq	.LC28(%rip), %rdi
	call	gettext@PLT
	movq	%rax, %rcx
	movq	stderr(%rip), %rax
	movq	%rbx, %rdx
	movq	%rcx, %rsi
	movq	%rax, %rdi
	movl	$0, %eax
	call	fprintf@PLT
	jmp	.L12
.L11:
	.loc 2 62 7
	movq	program_name(%rip), %rbx
	.loc 2 62 15
	leaq	.LC29(%rip), %rdi
	call	gettext@PLT
	.loc 2 62 7
	movq	%rbx, %rsi
	movq	%rax, %rdi
	movl	$0, %eax
	call	printf@PLT
	.loc 2 63 7
	movq	stdout(%rip), %rbx
	leaq	.LC30(%rip), %rdi
	call	gettext@PLT
	movq	%rbx, %rsi
	movq	%rax, %rdi
	call	fputs_unlocked@PLT
	.loc 2 65 7
	movq	stdout(%rip), %rbx
	leaq	.LC31(%rip), %rdi
	call	gettext@PLT
	movq	%rbx, %rsi
	movq	%rax, %rdi
	call	fputs_unlocked@PLT
	.loc 2 75 7
	movq	stdout(%rip), %rbx
	leaq	.LC32(%rip), %rdi
	call	gettext@PLT
	movq	%rbx, %rsi
	movq	%rax, %rdi
	call	fputs_unlocked@PLT
	.loc 2 86 7
	movq	stdout(%rip), %rbx
	leaq	.LC33(%rip), %rdi
	call	gettext@PLT
	movq	%rbx, %rsi
	movq	%rax, %rdi
	call	fputs_unlocked@PLT
	.loc 2 87 7
	movq	stdout(%rip), %rbx
	leaq	.LC34(%rip), %rdi
	call	gettext@PLT
	movq	%rbx, %rsi
	movq	%rax, %rdi
	call	fputs_unlocked@PLT
	.loc 2 88 7
	leaq	.LC35(%rip), %rdi
	call	emit_ancillary_info
.L12:
	.loc 2 90 3
	movl	-20(%rbp), %eax
	movl	%eax, %edi
	call	exit@PLT
	.cfi_endproc
.LFE46:
	.size	usage, .-usage
	.section	.rodata
.LC36:
	.string	"/usr/local/share/locale"
.LC37:
	.string	"Dmitry V. Levin"
.LC38:
	.string	"efmnqsvz"
.LC39:
	.string	"missing operand"
	.align 8
.LC40:
	.string	"ignoring --no-newline with multiple arguments"
.LC41:
	.string	"%s"
	.text
	.globl	main
	.type	main, @function
main:
.LFB47:
	.loc 2 95 1
	.cfi_startproc
	endbr64
	pushq	%rbp
	.cfi_def_cfa_offset 16
	.cfi_offset 6, -16
	movq	%rsp, %rbp
	.cfi_def_cfa_register 6
	pushq	%rbx
	subq	$56, %rsp
	.cfi_offset 3, -24
	movl	%edi, -52(%rbp)
	movq	%rsi, -64(%rbp)
	.loc 2 97 7
	movl	$-1, -44(%rbp)
	.loc 2 98 7
	movl	$0, -40(%rbp)
	.loc 2 100 8
	movb	$0, -45(%rbp)
	.loc 2 103 3
	movq	-64(%rbp), %rax
	movq	(%rax), %rax
	movq	%rax, %rdi
	call	set_program_name@PLT
	.loc 2 104 3
	leaq	.LC16(%rip), %rsi
	movl	$6, %edi
	call	setlocale@PLT
	.loc 2 105 3
	leaq	.LC36(%rip), %rsi
	leaq	.LC2(%rip), %rdi
	call	bindtextdomain@PLT
	.loc 2 106 3
	leaq	.LC2(%rip), %rdi
	call	textdomain@PLT
	.loc 2 108 3
	movq	close_stdout@GOTPCREL(%rip), %rax
	movq	%rax, %rdi
	call	atexit@PLT
	.loc 2 110 9
	jmp	.L14
.L27:
	.loc 2 112 7
	cmpl	$122, -36(%rbp)
	jg	.L15
	cmpl	$101, -36(%rbp)
	jge	.L16
	cmpl	$-131, -36(%rbp)
	je	.L17
	cmpl	$-130, -36(%rbp)
	je	.L18
	jmp	.L15
.L16:
	movl	-36(%rbp), %eax
	subl	$101, %eax
	cmpl	$21, %eax
	ja	.L15
	movl	%eax, %eax
	leaq	0(,%rax,4), %rdx
	leaq	.L20(%rip), %rax
	movl	(%rdx,%rax), %eax
	cltq
	leaq	.L20(%rip), %rdx
	addq	%rdx, %rax
	notrack jmp	*%rax
	.section	.rodata
	.align 4
	.align 4
.L20:
	.long	.L26-.L20
	.long	.L25-.L20
	.long	.L15-.L20
	.long	.L15-.L20
	.long	.L15-.L20
	.long	.L15-.L20
	.long	.L15-.L20
	.long	.L15-.L20
	.long	.L24-.L20
	.long	.L23-.L20
	.long	.L15-.L20
	.long	.L15-.L20
	.long	.L22-.L20
	.long	.L15-.L20
	.long	.L22-.L20
	.long	.L15-.L20
	.long	.L15-.L20
	.long	.L21-.L20
	.long	.L15-.L20
	.long	.L15-.L20
	.long	.L15-.L20
	.long	.L19-.L20
	.text
.L26:
	.loc 2 115 20
	movl	$0, -44(%rbp)
	.loc 2 116 11
	jmp	.L14
.L25:
	.loc 2 118 20
	movl	$1, -44(%rbp)
	.loc 2 119 11
	jmp	.L14
.L24:
	.loc 2 121 20
	movl	$2, -44(%rbp)
	.loc 2 122 11
	jmp	.L14
.L23:
	.loc 2 124 22
	movb	$1, no_newline(%rip)
	.loc 2 125 11
	jmp	.L14
.L22:
	.loc 2 128 19
	movb	$0, verbose(%rip)
	.loc 2 129 11
	jmp	.L14
.L21:
	.loc 2 131 19
	movb	$1, verbose(%rip)
	.loc 2 132 11
	jmp	.L14
.L19:
	.loc 2 134 20
	movb	$1, -45(%rbp)
	.loc 2 135 11
	jmp	.L14
.L18:
	.loc 2 136 9
	movl	$0, %edi
	call	usage
.L17:
	.loc 2 137 9
	movq	Version(%rip), %rdx
	movq	stdout(%rip), %rax
	movl	$0, %r9d
	leaq	.LC37(%rip), %r8
	movq	%rdx, %rcx
	leaq	.LC11(%rip), %rdx
	leaq	.LC35(%rip), %rsi
	movq	%rax, %rdi
	movl	$0, %eax
	call	version_etc@PLT
	movl	$0, %edi
	call	exit@PLT
.L15:
	.loc 2 139 11
	movl	$1, %edi
	call	usage
.L14:
	.loc 2 110 18
	movq	-64(%rbp), %rsi
	movl	-52(%rbp), %eax
	movl	$0, %r8d
	leaq	longopts(%rip), %rcx
	leaq	.LC38(%rip), %rdx
	movl	%eax, %edi
	call	getopt_long@PLT
	movl	%eax, -36(%rbp)
	.loc 2 110 9
	cmpl	$-1, -36(%rbp)
	jne	.L27
	.loc 2 143 14
	movl	optind(%rip), %eax
	.loc 2 143 6
	cmpl	%eax, -52(%rbp)
	jg	.L28
	.loc 2 145 20
	leaq	.LC39(%rip), %rdi
	call	gettext@PLT
	.loc 2 145 7
	movq	%rax, %rdx
	movl	$0, %esi
	movl	$0, %edi
	movl	$0, %eax
	call	error@PLT
	.loc 2 146 7
	movl	$1, %edi
	call	usage
.L28:
	.loc 2 149 12
	movl	optind(%rip), %eax
	movl	-52(%rbp), %edx
	subl	%eax, %edx
	movl	%edx, %eax
	.loc 2 149 6
	cmpl	$1, %eax
	jle	.L31
	.loc 2 151 11
	movzbl	no_newline(%rip), %eax
	.loc 2 151 10
	testb	%al, %al
	je	.L30
	.loc 2 152 22
	leaq	.LC40(%rip), %rdi
	call	gettext@PLT
	.loc 2 152 9
	movq	%rax, %rdx
	movl	$0, %esi
	movl	$0, %edi
	movl	$0, %eax
	call	error@PLT
.L30:
	.loc 2 153 18
	movb	$0, no_newline(%rip)
	.loc 2 156 3
	jmp	.L31
.L39:
.LBB2:
	.loc 2 158 31
	movl	optind(%rip), %eax
	cltq
	leaq	0(,%rax,8), %rdx
	movq	-64(%rbp), %rax
	addq	%rdx, %rax
	.loc 2 158 19
	movq	(%rax), %rax
	movq	%rax, -32(%rbp)
	.loc 2 161 22
	cmpl	$-1, -44(%rbp)
	je	.L32
	.loc 2 160 24
	movl	-44(%rbp), %edx
	movq	-32(%rbp), %rax
	movl	%edx, %esi
	movq	%rax, %rdi
	call	canonicalize_filename_mode@PLT
	jmp	.L33
.L32:
	.loc 2 161 24 discriminator 1
	movq	-32(%rbp), %rax
	movl	$63, %esi
	movq	%rax, %rdi
	call	areadlink_with_size@PLT
.L33:
	.loc 2 159 13
	movq	%rax, -24(%rbp)
	.loc 2 162 10
	cmpq	$0, -24(%rbp)
	je	.L34
	.loc 2 164 11
	movq	stdout(%rip), %rdx
	movq	-24(%rbp), %rax
	movq	%rdx, %rsi
	movq	%rax, %rdi
	call	fputs_unlocked@PLT
	.loc 2 165 15
	movzbl	no_newline(%rip), %eax
	xorl	$1, %eax
	.loc 2 165 14
	testb	%al, %al
	je	.L35
	.loc 2 166 13
	cmpb	$0, -45(%rbp)
	je	.L36
	.loc 2 166 13 is_stmt 0 discriminator 1
	movl	$0, %eax
	jmp	.L37
.L36:
	.loc 2 166 13 discriminator 2
	movl	$10, %eax
.L37:
	.loc 2 166 13 discriminator 4
	movl	%eax, %edi
	call	putchar_unlocked@PLT
.L35:
	.loc 2 167 11 is_stmt 1
	movq	-24(%rbp), %rax
	movq	%rax, %rdi
	call	free@PLT
	jmp	.L38
.L34:
	.loc 2 171 18
	movl	$1, -40(%rbp)
	.loc 2 172 15
	movzbl	verbose(%rip), %eax
	.loc 2 172 14
	testb	%al, %al
	je	.L38
	.loc 2 173 13
	movq	-32(%rbp), %rax
	movq	%rax, %rdx
	movl	$3, %esi
	movl	$0, %edi
	call	quotearg_n_style_colon@PLT
	movq	%rax, %rbx
	.loc 2 173 23
	call	__errno_location@PLT
	.loc 2 173 13
	movl	(%rax), %eax
	movq	%rbx, %rcx
	leaq	.LC41(%rip), %rdx
	movl	%eax, %esi
	movl	$0, %edi
	movl	$0, %eax
	call	error@PLT
.L38:
.LBE2:
	.loc 2 156 25
	movl	optind(%rip), %eax
	addl	$1, %eax
	movl	%eax, optind(%rip)
.L31:
	.loc 2 156 17 discriminator 1
	movl	optind(%rip), %eax
	.loc 2 156 3 discriminator 1
	cmpl	%eax, -52(%rbp)
	jg	.L39
	.loc 2 177 10
	movl	-40(%rbp), %eax
	.loc 2 178 1
	addq	$56, %rsp
	popq	%rbx
	popq	%rbp
	.cfi_def_cfa 7, 8
	ret
	.cfi_endproc
.LFE47:
	.size	main, .-main
.Letext0:
	.file 3 "/usr/lib/gcc/x86_64-linux-gnu/9/include/stddef.h"
	.file 4 "/usr/include/x86_64-linux-gnu/bits/types.h"
	.file 5 "/usr/include/x86_64-linux-gnu/bits/types/struct_FILE.h"
	.file 6 "/usr/include/x86_64-linux-gnu/bits/types/FILE.h"
	.file 7 "/usr/include/stdio.h"
	.file 8 "/usr/include/x86_64-linux-gnu/bits/sys_errlist.h"
	.file 9 "/usr/include/x86_64-linux-gnu/bits/types/time_t.h"
	.file 10 "./lib/sys/select.h"
	.file 11 "/usr/include/x86_64-linux-gnu/bits/getopt_core.h"
	.file 12 "/usr/include/x86_64-linux-gnu/bits/getopt_ext.h"
	.file 13 "/usr/include/time.h"
	.file 14 "/usr/include/signal.h"
	.file 15 "/usr/include/unistd.h"
	.file 16 "/usr/include/errno.h"
	.file 17 "src/version.h"
	.file 18 "./lib/exitfail.h"
	.file 19 "./lib/timespec.h"
	.file 20 "./lib/version-etc.h"
	.file 21 "./lib/progname.h"
	.file 22 "./lib/quotearg.h"
	.file 23 "./lib/canonicalize.h"
	.file 24 "./lib/error.h"
	.section	.note.GNU-stack,"",@progbits
	.section	.note.gnu.property,"a"
	.align 8
	.long	 1f - 0f
	.long	 4f - 1f
	.long	 5
0:
	.string	 "GNU"
1:
	.align 8
	.long	 0xc0000002
	.long	 3f - 2f
2:
	.long	 0x3
3:
	.align 8
4:
