	.file	"realpath.c"
	.text
.Ltext0:
	.section	.rodata
.LC0:
	.string	"["
.LC1:
	.string	"test invocation"
.LC2:
	.string	"coreutils"
.LC3:
	.string	"Multi-call invocation"
.LC4:
	.string	"sha224sum"
.LC5:
	.string	"sha2 utilities"
.LC6:
	.string	"sha256sum"
.LC7:
	.string	"sha384sum"
.LC8:
	.string	"sha512sum"
.LC9:
	.string	"\n%s online help: <%s>\n"
	.align 8
.LC10:
	.string	"https://www.gnu.org/software/coreutils/"
.LC11:
	.string	"GNU coreutils"
.LC12:
	.string	"en_"
	.align 8
.LC13:
	.string	"Report any translation bugs to <https://translationproject.org/team/>\n"
.LC14:
	.string	"Full documentation <%s%s>\n"
.LC15:
	.string	" invocation"
.LC16:
	.string	""
	.align 8
.LC17:
	.string	"or available locally via: info '(coreutils) %s%s'\n"
	.text
	.type	emit_ancillary_info, @function
emit_ancillary_info:
.LFB40:
	.file 1 "src/system.h"
	.loc 1 635 1
	.cfi_startproc
	pushq	%rbp
	.cfi_def_cfa_offset 16
	.cfi_offset 6, -16
	movq	%rsp, %rbp
	.cfi_def_cfa_register 6
	pushq	%rbx
	subq	$184, %rsp
	.cfi_offset 3, -24
	movq	%rdi, -184(%rbp)
	.loc 1 635 1
	movq	%fs:40, %rax
	movq	%rax, -24(%rbp)
	xorl	%eax, %eax
	.loc 1 636 67
	leaq	.LC0(%rip), %rax
	movq	%rax, -144(%rbp)
	leaq	.LC1(%rip), %rax
	movq	%rax, -136(%rbp)
	leaq	.LC2(%rip), %rax
	movq	%rax, -128(%rbp)
	leaq	.LC3(%rip), %rax
	movq	%rax, -120(%rbp)
	leaq	.LC4(%rip), %rax
	movq	%rax, -112(%rbp)
	leaq	.LC5(%rip), %rax
	movq	%rax, -104(%rbp)
	leaq	.LC6(%rip), %rax
	movq	%rax, -96(%rbp)
	leaq	.LC5(%rip), %rax
	movq	%rax, -88(%rbp)
	leaq	.LC7(%rip), %rax
	movq	%rax, -80(%rbp)
	leaq	.LC5(%rip), %rax
	movq	%rax, -72(%rbp)
	leaq	.LC8(%rip), %rax
	movq	%rax, -64(%rbp)
	leaq	.LC5(%rip), %rax
	movq	%rax, -56(%rbp)
	movq	$0, -48(%rbp)
	movq	$0, -40(%rbp)
	.loc 1 646 15
	movq	-184(%rbp), %rax
	movq	%rax, -168(%rbp)
	.loc 1 647 25
	leaq	-144(%rbp), %rax
	movq	%rax, -160(%rbp)
	.loc 1 649 9
	jmp	.L2
.L4:
	.loc 1 650 13
	addq	$16, -160(%rbp)
.L2:
	.loc 1 649 18
	movq	-160(%rbp), %rax
	movq	(%rax), %rax
	.loc 1 649 9
	testq	%rax, %rax
	je	.L3
	.loc 1 649 33 discriminator 1
	movq	-160(%rbp), %rax
	movq	(%rax), %rdx
	movq	-184(%rbp), %rax
	movq	%rdx, %rsi
	movq	%rax, %rdi
	call	strcmp@PLT
	.loc 1 649 28 discriminator 1
	testl	%eax, %eax
	jne	.L4
.L3:
	.loc 1 652 15
	movq	-160(%rbp), %rax
	movq	8(%rax), %rax
	.loc 1 652 6
	testq	%rax, %rax
	je	.L5
	.loc 1 653 10
	movq	-160(%rbp), %rax
	movq	8(%rax), %rax
	movq	%rax, -168(%rbp)
.L5:
	.loc 1 655 11
	leaq	.LC9(%rip), %rdi
	call	gettext@PLT
	.loc 1 655 3
	leaq	.LC10(%rip), %rdx
	leaq	.LC11(%rip), %rsi
	movq	%rax, %rdi
	movl	$0, %eax
	call	printf@PLT
	.loc 1 659 29
	movl	$0, %esi
	movl	$5, %edi
	call	setlocale@PLT
	movq	%rax, -152(%rbp)
	.loc 1 660 6
	cmpq	$0, -152(%rbp)
	je	.L6
	.loc 1 660 22 discriminator 1
	movq	-152(%rbp), %rax
	movl	$3, %edx
	leaq	.LC12(%rip), %rsi
	movq	%rax, %rdi
	call	strncmp@PLT
	.loc 1 660 19 discriminator 1
	testl	%eax, %eax
	je	.L6
	.loc 1 666 7
	movq	stdout(%rip), %rbx
	leaq	.LC13(%rip), %rdi
	call	gettext@PLT
	movq	%rbx, %rsi
	movq	%rax, %rdi
	call	fputs_unlocked@PLT
.L6:
	.loc 1 669 11
	leaq	.LC14(%rip), %rdi
	call	gettext@PLT
	movq	%rax, %rcx
	.loc 1 669 3
	movq	-184(%rbp), %rax
	movq	%rax, %rdx
	leaq	.LC10(%rip), %rsi
	movq	%rcx, %rdi
	movl	$0, %eax
	call	printf@PLT
	.loc 1 671 3
	movq	-168(%rbp), %rax
	cmpq	-184(%rbp), %rax
	jne	.L7
	.loc 1 671 3 is_stmt 0 discriminator 1
	leaq	.LC15(%rip), %rbx
	jmp	.L8
.L7:
	.loc 1 671 3 discriminator 2
	leaq	.LC16(%rip), %rbx
.L8:
	.loc 1 671 11 is_stmt 1 discriminator 4
	leaq	.LC17(%rip), %rdi
	call	gettext@PLT
	movq	%rax, %rcx
	.loc 1 671 3 discriminator 4
	movq	-168(%rbp), %rax
	movq	%rbx, %rdx
	movq	%rax, %rsi
	movq	%rcx, %rdi
	movl	$0, %eax
	call	printf@PLT
	.loc 1 673 1 discriminator 4
	nop
	movq	-24(%rbp), %rax
	xorq	%fs:40, %rax
	je	.L9
	.loc 1 673 1 is_stmt 0
	call	__stack_chk_fail@PLT
.L9:
	addq	$184, %rsp
	popq	%rbx
	popq	%rbp
	.cfi_def_cfa 7, 8
	ret
	.cfi_endproc
.LFE40:
	.size	emit_ancillary_info, .-emit_ancillary_info
	.data
	.type	verbose, @object
	.size	verbose, 1
verbose:
	.byte	1
	.local	logical
	.comm	logical,1,1
	.local	use_nuls
	.comm	use_nuls,1,1
	.local	can_relative_to
	.comm	can_relative_to,8,8
	.local	can_relative_base
	.comm	can_relative_base,8,8
	.section	.rodata
.LC18:
	.string	"canonicalize-existing"
.LC19:
	.string	"canonicalize-missing"
.LC20:
	.string	"relative-to"
.LC21:
	.string	"relative-base"
.LC22:
	.string	"quiet"
.LC23:
	.string	"strip"
.LC24:
	.string	"no-symlinks"
.LC25:
	.string	"zero"
.LC26:
	.string	"logical"
.LC27:
	.string	"physical"
.LC28:
	.string	"help"
.LC29:
	.string	"version"
	.section	.data.rel.ro.local,"aw"
	.align 32
	.type	longopts, @object
	.size	longopts, 416
longopts:
	.quad	.LC18
	.long	0
	.zero	4
	.quad	0
	.long	101
	.zero	4
	.quad	.LC19
	.long	0
	.zero	4
	.quad	0
	.long	109
	.zero	4
	.quad	.LC20
	.long	1
	.zero	4
	.quad	0
	.long	128
	.zero	4
	.quad	.LC21
	.long	1
	.zero	4
	.quad	0
	.long	129
	.zero	4
	.quad	.LC22
	.long	0
	.zero	4
	.quad	0
	.long	113
	.zero	4
	.quad	.LC23
	.long	0
	.zero	4
	.quad	0
	.long	115
	.zero	4
	.quad	.LC24
	.long	0
	.zero	4
	.quad	0
	.long	115
	.zero	4
	.quad	.LC25
	.long	0
	.zero	4
	.quad	0
	.long	122
	.zero	4
	.quad	.LC26
	.long	0
	.zero	4
	.quad	0
	.long	76
	.zero	4
	.quad	.LC27
	.long	0
	.zero	4
	.quad	0
	.long	80
	.zero	4
	.quad	.LC28
	.long	0
	.zero	4
	.quad	0
	.long	-130
	.zero	4
	.quad	.LC29
	.long	0
	.zero	4
	.quad	0
	.long	-131
	.zero	4
	.quad	0
	.long	0
	.zero	4
	.quad	0
	.long	0
	.zero	4
	.section	.rodata
	.align 8
.LC30:
	.string	"Try '%s --help' for more information.\n"
	.align 8
.LC31:
	.string	"Usage: %s [OPTION]... FILE...\n"
	.align 8
.LC32:
	.string	"Print the resolved absolute file name;\nall but the last component must exist\n\n"
	.align 8
.LC33:
	.ascii	"  -e, --canonicalize-existing  all components of the path mu"
	.ascii	"st exist\n  -m, --canonicalize-missing   no path components "
	.ascii	"need exist or be a directory\n  -L, --logical               "
	.ascii	" resolve '..' components before symlinks\n  -P, --physical  "
	.ascii	"             resolve symlinks as encountered (default)\n  -q"
	.ascii	", --quiet                  suppress most error messages\n   "
	.ascii	"   --relative-"
	.string	"to=DIR        print the resolved path relative to DIR\n      --relative-base=DIR      print absolute paths unless paths below DIR\n  -s, --strip, --no-symlinks   don't expand symlinks\n  -z, --zero                   end each output line with NUL, not newline\n"
	.align 8
.LC34:
	.string	"      --help     display this help and exit\n"
	.align 8
.LC35:
	.string	"      --version  output version information and exit\n"
.LC36:
	.string	"realpath"
	.text
	.globl	usage
	.type	usage, @function
usage:
.LFB46:
	.file 2 "src/realpath.c"
	.loc 2 66 1 is_stmt 1
	.cfi_startproc
	endbr64
	pushq	%rbp
	.cfi_def_cfa_offset 16
	.cfi_offset 6, -16
	movq	%rsp, %rbp
	.cfi_def_cfa_register 6
	pushq	%rbx
	subq	$24, %rsp
	.cfi_offset 3, -24
	movl	%edi, -20(%rbp)
	.loc 2 67 6
	cmpl	$0, -20(%rbp)
	je	.L11
	.loc 2 68 5
	movq	program_name(%rip), %rbx
	leaq	.LC30(%rip), %rdi
	call	gettext@PLT
	movq	%rax, %rcx
	movq	stderr(%rip), %rax
	movq	%rbx, %rdx
	movq	%rcx, %rsi
	movq	%rax, %rdi
	movl	$0, %eax
	call	fprintf@PLT
	jmp	.L12
.L11:
	.loc 2 71 7
	movq	program_name(%rip), %rbx
	.loc 2 71 15
	leaq	.LC31(%rip), %rdi
	call	gettext@PLT
	.loc 2 71 7
	movq	%rbx, %rsi
	movq	%rax, %rdi
	movl	$0, %eax
	call	printf@PLT
	.loc 2 72 7
	movq	stdout(%rip), %rbx
	leaq	.LC32(%rip), %rdi
	call	gettext@PLT
	movq	%rbx, %rsi
	movq	%rax, %rdi
	call	fputs_unlocked@PLT
	.loc 2 77 7
	movq	stdout(%rip), %rbx
	leaq	.LC33(%rip), %rdi
	call	gettext@PLT
	movq	%rbx, %rsi
	movq	%rax, %rdi
	call	fputs_unlocked@PLT
	.loc 2 89 7
	movq	stdout(%rip), %rbx
	leaq	.LC34(%rip), %rdi
	call	gettext@PLT
	movq	%rbx, %rsi
	movq	%rax, %rdi
	call	fputs_unlocked@PLT
	.loc 2 90 7
	movq	stdout(%rip), %rbx
	leaq	.LC35(%rip), %rdi
	call	gettext@PLT
	movq	%rbx, %rsi
	movq	%rax, %rdi
	call	fputs_unlocked@PLT
	.loc 2 91 7
	leaq	.LC36(%rip), %rdi
	call	emit_ancillary_info
.L12:
	.loc 2 93 3
	movl	-20(%rbp), %eax
	movl	%eax, %edi
	call	exit@PLT
	.cfi_endproc
.LFE46:
	.size	usage, .-usage
	.type	realpath_canon, @function
realpath_canon:
.LFB47:
	.loc 2 100 1
	.cfi_startproc
	endbr64
	pushq	%rbp
	.cfi_def_cfa_offset 16
	.cfi_offset 6, -16
	movq	%rsp, %rbp
	.cfi_def_cfa_register 6
	subq	$32, %rsp
	movq	%rdi, -24(%rbp)
	movl	%esi, -28(%rbp)
	.loc 2 101 21
	movl	-28(%rbp), %edx
	movq	-24(%rbp), %rax
	movl	%edx, %esi
	movq	%rax, %rdi
	call	canonicalize_filename_mode@PLT
	movq	%rax, -16(%rbp)
	.loc 2 102 7
	movzbl	logical(%rip), %eax
	.loc 2 102 6
	testb	%al, %al
	je	.L14
	.loc 2 102 15 discriminator 1
	cmpq	$0, -16(%rbp)
	je	.L14
.LBB2:
	.loc 2 104 16
	andl	$-5, -28(%rbp)
	.loc 2 105 26
	movl	-28(%rbp), %edx
	movq	-16(%rbp), %rax
	movl	%edx, %esi
	movq	%rax, %rdi
	call	canonicalize_filename_mode@PLT
	movq	%rax, -8(%rbp)
	.loc 2 106 7
	movq	-16(%rbp), %rax
	movq	%rax, %rdi
	call	free@PLT
	.loc 2 107 14
	movq	-8(%rbp), %rax
	jmp	.L15
.L14:
.LBE2:
	.loc 2 109 10
	movq	-16(%rbp), %rax
.L15:
	.loc 2 110 1
	leave
	.cfi_def_cfa 7, 8
	ret
	.cfi_endproc
.LFE47:
	.size	realpath_canon, .-realpath_canon
	.type	path_prefix, @function
path_prefix:
.LFB48:
	.loc 2 115 1
	.cfi_startproc
	endbr64
	pushq	%rbp
	.cfi_def_cfa_offset 16
	.cfi_offset 6, -16
	movq	%rsp, %rbp
	.cfi_def_cfa_register 6
	movq	%rdi, -8(%rbp)
	movq	%rsi, -16(%rbp)
	.loc 2 117 9
	addq	$1, -8(%rbp)
	.loc 2 118 7
	addq	$1, -16(%rbp)
	.loc 2 122 8
	movq	-8(%rbp), %rax
	movzbl	(%rax), %eax
	.loc 2 122 6
	testb	%al, %al
	jne	.L17
	.loc 2 123 12
	movq	-16(%rbp), %rax
	movzbl	(%rax), %eax
	.loc 2 123 18
	cmpb	$47, %al
	setne	%al
	jmp	.L18
.L17:
	.loc 2 126 7
	movq	-8(%rbp), %rax
	movzbl	(%rax), %eax
	.loc 2 126 6
	cmpb	$47, %al
	jne	.L20
	.loc 2 126 32 discriminator 1
	movq	-8(%rbp), %rax
	addq	$1, %rax
	movzbl	(%rax), %eax
	.loc 2 126 22 discriminator 1
	testb	%al, %al
	jne	.L20
	.loc 2 127 12
	movq	-16(%rbp), %rax
	movzbl	(%rax), %eax
	.loc 2 127 18
	cmpb	$47, %al
	sete	%al
	jmp	.L18
.L23:
	.loc 2 132 11
	movq	-8(%rbp), %rax
	movzbl	(%rax), %edx
	.loc 2 132 22
	movq	-16(%rbp), %rax
	movzbl	(%rax), %eax
	.loc 2 132 10
	cmpb	%al, %dl
	jne	.L27
	.loc 2 134 13
	addq	$1, -8(%rbp)
	.loc 2 135 11
	addq	$1, -16(%rbp)
.L20:
	.loc 2 130 10
	movq	-8(%rbp), %rax
	movzbl	(%rax), %eax
	.loc 2 130 9
	testb	%al, %al
	je	.L22
	.loc 2 130 21 discriminator 1
	movq	-16(%rbp), %rax
	movzbl	(%rax), %eax
	.loc 2 130 18 discriminator 1
	testb	%al, %al
	jne	.L23
	jmp	.L22
.L27:
	.loc 2 133 9
	nop
.L22:
	.loc 2 137 12
	movq	-8(%rbp), %rax
	movzbl	(%rax), %eax
	.loc 2 137 20
	testb	%al, %al
	jne	.L24
	.loc 2 137 24 discriminator 1
	movq	-16(%rbp), %rax
	movzbl	(%rax), %eax
	.loc 2 137 20 discriminator 1
	cmpb	$47, %al
	je	.L25
	.loc 2 137 41 discriminator 4
	movq	-16(%rbp), %rax
	movzbl	(%rax), %eax
	.loc 2 137 37 discriminator 4
	testb	%al, %al
	jne	.L24
.L25:
	.loc 2 137 20 discriminator 5
	movl	$1, %eax
	jmp	.L26
.L24:
	.loc 2 137 20 is_stmt 0 discriminator 6
	movl	$0, %eax
.L26:
	.loc 2 137 20 discriminator 8
	andl	$1, %eax
.L18:
	.loc 2 138 1 is_stmt 1
	popq	%rbp
	.cfi_def_cfa 7, 8
	ret
	.cfi_endproc
.LFE48:
	.size	path_prefix, .-path_prefix
	.section	.rodata
.LC37:
	.string	"cannot stat %s"
	.text
	.type	isdir, @function
isdir:
.LFB49:
	.loc 2 142 1
	.cfi_startproc
	endbr64
	pushq	%rbp
	.cfi_def_cfa_offset 16
	.cfi_offset 6, -16
	movq	%rsp, %rbp
	.cfi_def_cfa_register 6
	pushq	%r12
	pushq	%rbx
	subq	$176, %rsp
	.cfi_offset 12, -24
	.cfi_offset 3, -32
	movq	%rdi, -184(%rbp)
	.loc 2 142 1
	movq	%fs:40, %rax
	movq	%rax, -24(%rbp)
	xorl	%eax, %eax
	.loc 2 144 7
	leaq	-176(%rbp), %rdx
	movq	-184(%rbp), %rax
	movq	%rdx, %rsi
	movq	%rax, %rdi
	call	stat@PLT
	.loc 2 144 6
	testl	%eax, %eax
	je	.L29
.LBB3:
	.loc 2 145 5
	movq	-184(%rbp), %rax
	movq	%rax, %rsi
	movl	$4, %edi
	call	quotearg_style@PLT
	movq	%rax, %r12
	leaq	.LC37(%rip), %rdi
	call	gettext@PLT
	movq	%rax, %rbx
	call	__errno_location@PLT
	movl	(%rax), %eax
	movq	%r12, %rcx
	movq	%rbx, %rdx
	movl	%eax, %esi
	movl	$1, %edi
	movl	$0, %eax
	call	error@PLT
.L29:
.LBE3:
	.loc 2 146 10
	movl	-152(%rbp), %eax
	andl	$61440, %eax
	cmpl	$16384, %eax
	sete	%al
	.loc 2 147 1
	movq	-24(%rbp), %rcx
	xorq	%fs:40, %rcx
	je	.L31
	call	__stack_chk_fail@PLT
.L31:
	addq	$176, %rsp
	popq	%rbx
	popq	%r12
	popq	%rbp
	.cfi_def_cfa 7, 8
	ret
	.cfi_endproc
.LFE49:
	.size	isdir, .-isdir
	.section	.rodata
.LC38:
	.string	"%s"
	.text
	.type	process_path, @function
process_path:
.LFB50:
	.loc 2 151 1
	.cfi_startproc
	endbr64
	pushq	%rbp
	.cfi_def_cfa_offset 16
	.cfi_offset 6, -16
	movq	%rsp, %rbp
	.cfi_def_cfa_register 6
	pushq	%rbx
	subq	$40, %rsp
	.cfi_offset 3, -24
	movq	%rdi, -40(%rbp)
	movl	%esi, -44(%rbp)
	.loc 2 152 21
	movl	-44(%rbp), %edx
	movq	-40(%rbp), %rax
	movl	%edx, %esi
	movq	%rax, %rdi
	call	realpath_canon
	movq	%rax, -24(%rbp)
	.loc 2 153 6
	cmpq	$0, -24(%rbp)
	jne	.L33
	.loc 2 155 11
	movzbl	verbose(%rip), %eax
	.loc 2 155 10
	testb	%al, %al
	je	.L34
	.loc 2 156 9
	movq	-40(%rbp), %rax
	movq	%rax, %rdx
	movl	$3, %esi
	movl	$0, %edi
	call	quotearg_n_style_colon@PLT
	movq	%rax, %rbx
	.loc 2 156 19
	call	__errno_location@PLT
	.loc 2 156 9
	movl	(%rax), %eax
	movq	%rbx, %rcx
	leaq	.LC38(%rip), %rdx
	movl	%eax, %esi
	movl	$0, %edi
	movl	$0, %eax
	call	error@PLT
.L34:
	.loc 2 157 14
	movl	$0, %eax
	jmp	.L35
.L33:
	.loc 2 160 7
	movq	can_relative_to(%rip), %rax
	.loc 2 160 6
	testq	%rax, %rax
	je	.L36
	.loc 2 161 11
	movq	can_relative_base(%rip), %rax
	.loc 2 161 7
	testq	%rax, %rax
	je	.L37
	.loc 2 161 33 discriminator 1
	movq	can_relative_base(%rip), %rax
	movq	-24(%rbp), %rdx
	movq	%rdx, %rsi
	movq	%rax, %rdi
	call	path_prefix
	.loc 2 161 32 discriminator 1
	xorl	$1, %eax
	.loc 2 161 29 discriminator 1
	testb	%al, %al
	jne	.L36
.L37:
	.loc 2 162 11
	movq	can_relative_to(%rip), %rax
	.loc 2 162 7
	testq	%rax, %rax
	je	.L38
	.loc 2 162 31 discriminator 1
	movq	can_relative_to(%rip), %rsi
	movq	-24(%rbp), %rax
	movl	$0, %ecx
	movl	$0, %edx
	movq	%rax, %rdi
	call	relpath@PLT
	.loc 2 162 30 discriminator 1
	xorl	$1, %eax
	.loc 2 162 27 discriminator 1
	testb	%al, %al
	je	.L38
.L36:
	.loc 2 163 5
	movq	stdout(%rip), %rdx
	movq	-24(%rbp), %rax
	movq	%rdx, %rsi
	movq	%rax, %rdi
	call	fputs_unlocked@PLT
.L38:
	.loc 2 165 3
	movzbl	use_nuls(%rip), %eax
	testb	%al, %al
	je	.L39
	.loc 2 165 3 is_stmt 0 discriminator 1
	movl	$0, %eax
	jmp	.L40
.L39:
	.loc 2 165 3 discriminator 2
	movl	$10, %eax
.L40:
	.loc 2 165 3 discriminator 4
	movl	%eax, %edi
	call	putchar_unlocked@PLT
	.loc 2 167 3 is_stmt 1 discriminator 4
	movq	-24(%rbp), %rax
	movq	%rax, %rdi
	call	free@PLT
	.loc 2 169 10 discriminator 4
	movl	$1, %eax
.L35:
	.loc 2 170 1
	addq	$40, %rsp
	popq	%rbx
	popq	%rbp
	.cfi_def_cfa 7, 8
	ret
	.cfi_endproc
.LFE50:
	.size	process_path, .-process_path
	.section	.rodata
.LC39:
	.string	"/usr/local/share/locale"
.LC40:
	.string	"eLmPqsz"
.LC41:
	.string	"Padraig Brady"
.LC42:
	.string	"missing operand"
	.text
	.globl	main
	.type	main, @function
main:
.LFB51:
	.loc 2 174 1
	.cfi_startproc
	endbr64
	pushq	%rbp
	.cfi_def_cfa_offset 16
	.cfi_offset 6, -16
	movq	%rsp, %rbp
	.cfi_def_cfa_register 6
	pushq	%rbx
	subq	$72, %rsp
	.cfi_offset 3, -24
	movl	%edi, -68(%rbp)
	movq	%rsi, -80(%rbp)
	.loc 2 175 8
	movb	$1, -50(%rbp)
	.loc 2 176 7
	movl	$1, -48(%rbp)
	.loc 2 177 15
	movq	$0, -40(%rbp)
	.loc 2 178 15
	movq	$0, -32(%rbp)
	.loc 2 181 3
	movq	-80(%rbp), %rax
	movq	(%rax), %rax
	movq	%rax, %rdi
	call	set_program_name@PLT
	.loc 2 182 3
	leaq	.LC16(%rip), %rsi
	movl	$6, %edi
	call	setlocale@PLT
	.loc 2 183 3
	leaq	.LC39(%rip), %rsi
	leaq	.LC2(%rip), %rdi
	call	bindtextdomain@PLT
	.loc 2 184 3
	leaq	.LC2(%rip), %rdi
	call	textdomain@PLT
	.loc 2 186 3
	movq	close_stdout@GOTPCREL(%rip), %rax
	movq	%rax, %rdi
	call	atexit@PLT
.L59:
.LBB4:
	.loc 2 190 15
	movq	-80(%rbp), %rsi
	movl	-68(%rbp), %eax
	movl	$0, %r8d
	leaq	longopts(%rip), %rcx
	leaq	.LC40(%rip), %rdx
	movl	%eax, %edi
	call	getopt_long@PLT
	movl	%eax, -44(%rbp)
	.loc 2 191 10
	cmpl	$-1, -44(%rbp)
	je	.L73
	.loc 2 193 7
	cmpl	$129, -44(%rbp)
	jg	.L44
	cmpl	$76, -44(%rbp)
	jge	.L45
	cmpl	$-131, -44(%rbp)
	je	.L46
	cmpl	$-130, -44(%rbp)
	je	.L47
	jmp	.L44
.L45:
	movl	-44(%rbp), %eax
	subl	$76, %eax
	cmpl	$53, %eax
	ja	.L44
	movl	%eax, %eax
	leaq	0(,%rax,4), %rdx
	leaq	.L49(%rip), %rax
	movl	(%rdx,%rax), %eax
	cltq
	leaq	.L49(%rip), %rdx
	addq	%rdx, %rax
	notrack jmp	*%rax
	.section	.rodata
	.align 4
	.align 4
.L49:
	.long	.L57-.L49
	.long	.L44-.L49
	.long	.L44-.L49
	.long	.L44-.L49
	.long	.L56-.L49
	.long	.L44-.L49
	.long	.L44-.L49
	.long	.L44-.L49
	.long	.L44-.L49
	.long	.L44-.L49
	.long	.L44-.L49
	.long	.L44-.L49
	.long	.L44-.L49
	.long	.L44-.L49
	.long	.L44-.L49
	.long	.L44-.L49
	.long	.L44-.L49
	.long	.L44-.L49
	.long	.L44-.L49
	.long	.L44-.L49
	.long	.L44-.L49
	.long	.L44-.L49
	.long	.L44-.L49
	.long	.L44-.L49
	.long	.L44-.L49
	.long	.L55-.L49
	.long	.L44-.L49
	.long	.L44-.L49
	.long	.L44-.L49
	.long	.L44-.L49
	.long	.L44-.L49
	.long	.L44-.L49
	.long	.L44-.L49
	.long	.L54-.L49
	.long	.L44-.L49
	.long	.L44-.L49
	.long	.L44-.L49
	.long	.L53-.L49
	.long	.L44-.L49
	.long	.L52-.L49
	.long	.L44-.L49
	.long	.L44-.L49
	.long	.L44-.L49
	.long	.L44-.L49
	.long	.L44-.L49
	.long	.L44-.L49
	.long	.L51-.L49
	.long	.L44-.L49
	.long	.L44-.L49
	.long	.L44-.L49
	.long	.L44-.L49
	.long	.L44-.L49
	.long	.L50-.L49
	.long	.L48-.L49
	.text
.L55:
	.loc 2 196 20
	andl	$-4, -48(%rbp)
	.loc 2 198 11
	jmp	.L58
.L54:
	.loc 2 200 20
	andl	$-4, -48(%rbp)
	.loc 2 201 20
	orl	$2, -48(%rbp)
	.loc 2 202 11
	jmp	.L58
.L57:
	.loc 2 204 20
	orl	$4, -48(%rbp)
	.loc 2 205 19
	movb	$1, logical(%rip)
	.loc 2 206 11
	jmp	.L58
.L52:
	.loc 2 208 20
	orl	$4, -48(%rbp)
	.loc 2 209 19
	movb	$0, logical(%rip)
	.loc 2 210 11
	jmp	.L58
.L56:
	.loc 2 212 20
	andl	$-5, -48(%rbp)
	.loc 2 213 19
	movb	$0, logical(%rip)
	.loc 2 214 11
	jmp	.L58
.L53:
	.loc 2 216 19
	movb	$0, verbose(%rip)
	.loc 2 217 11
	jmp	.L58
.L51:
	.loc 2 219 20
	movb	$1, use_nuls(%rip)
	.loc 2 220 11
	jmp	.L58
.L50:
	.loc 2 222 23
	movq	optarg(%rip), %rax
	movq	%rax, -40(%rbp)
	.loc 2 223 11
	jmp	.L58
.L48:
	.loc 2 225 25
	movq	optarg(%rip), %rax
	movq	%rax, -32(%rbp)
	.loc 2 226 11
	jmp	.L58
.L47:
	.loc 2 227 9
	movl	$0, %edi
	call	usage
.L46:
	.loc 2 228 9
	movq	Version(%rip), %rdx
	movq	stdout(%rip), %rax
	movl	$0, %r9d
	leaq	.LC41(%rip), %r8
	movq	%rdx, %rcx
	leaq	.LC11(%rip), %rdx
	leaq	.LC36(%rip), %rsi
	movq	%rax, %rdi
	movl	$0, %eax
	call	version_etc@PLT
	movl	$0, %edi
	call	exit@PLT
.L44:
	.loc 2 230 11
	movl	$1, %edi
	call	usage
.L58:
.LBE4:
	.loc 2 189 5
	jmp	.L59
.L73:
.LBB5:
	.loc 2 192 9
	nop
.LBE5:
	.loc 2 234 14
	movl	optind(%rip), %eax
	.loc 2 234 6
	cmpl	%eax, -68(%rbp)
	jg	.L60
	.loc 2 236 20
	leaq	.LC42(%rip), %rdi
	call	gettext@PLT
	.loc 2 236 7
	movq	%rax, %rdx
	movl	$0, %esi
	movl	$0, %edi
	movl	$0, %eax
	call	error@PLT
	.loc 2 237 7
	movl	$1, %edi
	call	usage
.L60:
	.loc 2 240 6
	cmpq	$0, -32(%rbp)
	je	.L61
	.loc 2 240 21 discriminator 1
	cmpq	$0, -40(%rbp)
	jne	.L61
	.loc 2 241 17
	movq	-32(%rbp), %rax
	movq	%rax, -40(%rbp)
.L61:
	.loc 2 243 29
	movl	-48(%rbp), %eax
	andl	$3, %eax
	.loc 2 243 8
	testl	%eax, %eax
	sete	%al
	movb	%al, -49(%rbp)
	.loc 2 244 6
	cmpq	$0, -40(%rbp)
	je	.L62
	.loc 2 246 25
	movl	-48(%rbp), %edx
	movq	-40(%rbp), %rax
	movl	%edx, %esi
	movq	%rax, %rdi
	call	realpath_canon
	.loc 2 246 23
	movq	%rax, can_relative_to(%rip)
	.loc 2 247 11
	movq	can_relative_to(%rip), %rax
	.loc 2 247 10
	testq	%rax, %rax
	jne	.L63
.LBB6:
	.loc 2 248 9
	movq	-40(%rbp), %rax
	movq	%rax, %rdx
	movl	$3, %esi
	movl	$0, %edi
	call	quotearg_n_style_colon@PLT
	movq	%rax, %rbx
	call	__errno_location@PLT
	movl	(%rax), %eax
	movq	%rbx, %rcx
	leaq	.LC38(%rip), %rdx
	movl	%eax, %esi
	movl	$1, %edi
	movl	$0, %eax
	call	error@PLT
.L63:
.LBE6:
	.loc 2 249 10
	cmpb	$0, -49(%rbp)
	je	.L62
	.loc 2 249 24 discriminator 1
	movq	can_relative_to(%rip), %rax
	movq	%rax, %rdi
	call	isdir
	.loc 2 249 23 discriminator 1
	xorl	$1, %eax
	.loc 2 249 20 discriminator 1
	testb	%al, %al
	je	.L62
.LBB7:
	.loc 2 250 9
	movq	-40(%rbp), %rax
	movq	%rax, %rdx
	movl	$3, %esi
	movl	$0, %edi
	call	quotearg_n_style_colon@PLT
	movq	%rax, %rcx
	leaq	.LC38(%rip), %rdx
	movl	$20, %esi
	movl	$1, %edi
	movl	$0, %eax
	call	error@PLT
.L62:
.LBE7:
	.loc 2 252 6
	movq	-32(%rbp), %rax
	cmpq	-40(%rbp), %rax
	jne	.L64
	.loc 2 253 23
	movq	can_relative_to(%rip), %rax
	movq	%rax, can_relative_base(%rip)
	jmp	.L69
.L64:
	.loc 2 254 11
	cmpq	$0, -32(%rbp)
	je	.L69
.LBB8:
	.loc 2 256 20
	movl	-48(%rbp), %edx
	movq	-32(%rbp), %rax
	movl	%edx, %esi
	movq	%rax, %rdi
	call	realpath_canon
	movq	%rax, -24(%rbp)
	.loc 2 257 10
	cmpq	$0, -24(%rbp)
	jne	.L66
.LBB9:
	.loc 2 258 9
	movq	-32(%rbp), %rax
	movq	%rax, %rdx
	movl	$3, %esi
	movl	$0, %edi
	call	quotearg_n_style_colon@PLT
	movq	%rax, %rbx
	call	__errno_location@PLT
	movl	(%rax), %eax
	movq	%rbx, %rcx
	leaq	.LC38(%rip), %rdx
	movl	%eax, %esi
	movl	$1, %edi
	movl	$0, %eax
	call	error@PLT
.L66:
.LBE9:
	.loc 2 259 10
	cmpb	$0, -49(%rbp)
	je	.L67
	.loc 2 259 24 discriminator 1
	movq	-24(%rbp), %rax
	movq	%rax, %rdi
	call	isdir
	.loc 2 259 23 discriminator 1
	xorl	$1, %eax
	.loc 2 259 20 discriminator 1
	testb	%al, %al
	je	.L67
.LBB10:
	.loc 2 260 9
	movq	-32(%rbp), %rax
	movq	%rax, %rdx
	movl	$3, %esi
	movl	$0, %edi
	call	quotearg_n_style_colon@PLT
	movq	%rax, %rcx
	leaq	.LC38(%rip), %rdx
	movl	$20, %esi
	movl	$1, %edi
	movl	$0, %eax
	call	error@PLT
.L67:
.LBE10:
	.loc 2 263 11
	movq	can_relative_to(%rip), %rdx
	movq	-24(%rbp), %rax
	movq	%rdx, %rsi
	movq	%rax, %rdi
	call	path_prefix
	.loc 2 263 10
	testb	%al, %al
	je	.L68
	.loc 2 264 27
	movq	-24(%rbp), %rax
	movq	%rax, can_relative_base(%rip)
	jmp	.L69
.L68:
	.loc 2 267 11
	movq	-24(%rbp), %rax
	movq	%rax, %rdi
	call	free@PLT
	.loc 2 268 29
	movq	can_relative_to(%rip), %rax
	movq	%rax, can_relative_base(%rip)
	.loc 2 269 27
	movq	$0, can_relative_to(%rip)
.LBE8:
	.loc 2 273 3
	jmp	.L69
.L70:
	.loc 2 274 29 discriminator 2
	movl	optind(%rip), %eax
	cltq
	leaq	0(,%rax,8), %rdx
	movq	-80(%rbp), %rax
	addq	%rdx, %rax
	.loc 2 274 11 discriminator 2
	movq	(%rax), %rax
	movl	-48(%rbp), %edx
	movl	%edx, %esi
	movq	%rax, %rdi
	call	process_path
	.loc 2 274 8 discriminator 2
	movzbl	-50(%rbp), %edx
	.loc 2 274 11 discriminator 2
	movzbl	%al, %eax
	.loc 2 274 8 discriminator 2
	andl	%edx, %eax
	testl	%eax, %eax
	setne	%al
	movb	%al, -50(%rbp)
	.loc 2 273 25 discriminator 2
	movl	optind(%rip), %eax
	addl	$1, %eax
	movl	%eax, optind(%rip)
.L69:
	.loc 2 273 17 discriminator 1
	movl	optind(%rip), %eax
	.loc 2 273 3 discriminator 1
	cmpl	%eax, -68(%rbp)
	jg	.L70
	.loc 2 276 28
	movzbl	-50(%rbp), %eax
	xorl	$1, %eax
	movzbl	%al, %eax
	.loc 2 277 1
	addq	$72, %rsp
	popq	%rbx
	popq	%rbp
	.cfi_def_cfa 7, 8
	ret
	.cfi_endproc
.LFE51:
	.size	main, .-main
.Letext0:
	.file 3 "/usr/include/x86_64-linux-gnu/bits/getopt_core.h"
	.file 4 "/usr/include/x86_64-linux-gnu/bits/getopt_ext.h"
	.file 5 "/usr/lib/gcc/x86_64-linux-gnu/9/include/stddef.h"
	.file 6 "/usr/include/x86_64-linux-gnu/bits/types.h"
	.file 7 "/usr/include/x86_64-linux-gnu/bits/types/struct_FILE.h"
	.file 8 "/usr/include/x86_64-linux-gnu/bits/types/FILE.h"
	.file 9 "/usr/include/stdio.h"
	.file 10 "/usr/include/x86_64-linux-gnu/bits/sys_errlist.h"
	.file 11 "/usr/include/x86_64-linux-gnu/bits/types/time_t.h"
	.file 12 "/usr/include/x86_64-linux-gnu/bits/types/struct_timespec.h"
	.file 13 "./lib/sys/select.h"
	.file 14 "/usr/include/time.h"
	.file 15 "/usr/include/x86_64-linux-gnu/bits/stat.h"
	.file 16 "/usr/include/signal.h"
	.file 17 "/usr/include/unistd.h"
	.file 18 "/usr/include/errno.h"
	.file 19 "src/version.h"
	.file 20 "./lib/exitfail.h"
	.file 21 "./lib/timespec.h"
	.file 22 "./lib/version-etc.h"
	.file 23 "./lib/progname.h"
	.file 24 "./lib/quotearg.h"
	.file 25 "./lib/canonicalize.h"
	.file 26 "./lib/error.h"
	.section	.note.GNU-stack,"",@progbits
	.section	.note.gnu.property,"a"
	.align 8
	.long	 1f - 0f
	.long	 4f - 1f
	.long	 5
0:
	.string	 "GNU"
1:
	.align 8
	.long	 0xc0000002
	.long	 3f - 2f
2:
	.long	 0x3
3:
	.align 8
4:
