	.file	"rmdir.c"
	.text
.Ltext0:
	.type	dot_or_dotdot, @function
dot_or_dotdot:
.LFB28:
	.file 1 "src/system.h"
	.loc 1 266 1
	.cfi_startproc
	pushq	%rbp
	.cfi_def_cfa_offset 16
	.cfi_offset 6, -16
	movq	%rsp, %rbp
	.cfi_def_cfa_register 6
	movq	%rdi, -24(%rbp)
	.loc 1 267 16
	movq	-24(%rbp), %rax
	movzbl	(%rax), %eax
	.loc 1 267 6
	cmpb	$46, %al
	jne	.L2
.LBB2:
	.loc 1 269 38
	movq	-24(%rbp), %rax
	addq	$1, %rax
	movzbl	(%rax), %eax
	.loc 1 269 27
	cmpb	$46, %al
	jne	.L3
	.loc 1 269 27 is_stmt 0 discriminator 1
	movl	$2, %edx
	jmp	.L4
.L3:
	.loc 1 269 27 discriminator 2
	movl	$1, %edx
.L4:
	.loc 1 269 27 discriminator 4
	movq	-24(%rbp), %rax
	addq	%rdx, %rax
	.loc 1 269 12 is_stmt 1 discriminator 4
	movzbl	(%rax), %eax
	movb	%al, -1(%rbp)
	.loc 1 270 21 discriminator 4
	cmpb	$0, -1(%rbp)
	je	.L5
	.loc 1 270 21 is_stmt 0 discriminator 2
	cmpb	$47, -1(%rbp)
	jne	.L6
.L5:
	.loc 1 270 21 discriminator 3
	movl	$1, %eax
	jmp	.L7
.L6:
	.loc 1 270 21 discriminator 4
	movl	$0, %eax
.L7:
	.loc 1 270 21 discriminator 6
	andl	$1, %eax
	jmp	.L8
.L2:
.LBE2:
	.loc 1 273 12 is_stmt 1
	movl	$0, %eax
.L8:
	.loc 1 274 1
	popq	%rbp
	.cfi_def_cfa 7, 8
	ret
	.cfi_endproc
.LFE28:
	.size	dot_or_dotdot, .-dot_or_dotdot
	.type	readdir_ignoring_dot_and_dotdot, @function
readdir_ignoring_dot_and_dotdot:
.LFB29:
	.loc 1 279 1
	.cfi_startproc
	pushq	%rbp
	.cfi_def_cfa_offset 16
	.cfi_offset 6, -16
	movq	%rsp, %rbp
	.cfi_def_cfa_register 6
	subq	$32, %rsp
	movq	%rdi, -24(%rbp)
.L13:
.LBB3:
	.loc 1 282 33
	movq	-24(%rbp), %rax
	movq	%rax, %rdi
	call	readdir@PLT
	movq	%rax, -8(%rbp)
	.loc 1 283 10
	cmpq	$0, -8(%rbp)
	je	.L10
	.loc 1 283 44 discriminator 1
	movq	-8(%rbp), %rax
	addq	$19, %rax
	.loc 1 283 27 discriminator 1
	movq	%rax, %rdi
	call	dot_or_dotdot
	.loc 1 283 25 discriminator 1
	xorl	$1, %eax
	.loc 1 283 22 discriminator 1
	testb	%al, %al
	je	.L13
.L10:
	.loc 1 284 16
	movq	-8(%rbp), %rax
.LBE3:
	.loc 1 286 1
	leave
	.cfi_def_cfa 7, 8
	ret
	.cfi_endproc
.LFE29:
	.size	readdir_ignoring_dot_and_dotdot, .-readdir_ignoring_dot_and_dotdot
	.type	is_empty_dir, @function
is_empty_dir:
.LFB30:
	.loc 1 293 1
	.cfi_startproc
	pushq	%rbp
	.cfi_def_cfa_offset 16
	.cfi_offset 6, -16
	movq	%rsp, %rbp
	.cfi_def_cfa_register 6
	subq	$48, %rsp
	movl	%edi, -36(%rbp)
	movq	%rsi, -48(%rbp)
	.loc 1 297 12
	movq	-48(%rbp), %rcx
	movl	-36(%rbp), %eax
	movl	$198912, %edx
	movq	%rcx, %rsi
	movl	%eax, %edi
	movl	$0, %eax
	call	openat@PLT
	movl	%eax, -24(%rbp)
	.loc 1 301 6
	cmpl	$0, -24(%rbp)
	jns	.L16
	.loc 1 302 12
	movl	$0, %eax
	jmp	.L17
.L16:
	.loc 1 304 10
	movl	-24(%rbp), %eax
	movl	%eax, %edi
	call	fdopendir@PLT
	movq	%rax, -16(%rbp)
	.loc 1 305 6
	cmpq	$0, -16(%rbp)
	jne	.L18
	.loc 1 307 7
	movl	-24(%rbp), %eax
	movl	%eax, %edi
	call	close@PLT
	.loc 1 308 14
	movl	$0, %eax
	jmp	.L17
.L18:
	.loc 1 311 3
	call	__errno_location@PLT
	.loc 1 311 9
	movl	$0, (%rax)
	.loc 1 312 8
	movq	-16(%rbp), %rax
	movq	%rax, %rdi
	call	readdir_ignoring_dot_and_dotdot
	movq	%rax, -8(%rbp)
	.loc 1 313 17
	call	__errno_location@PLT
	.loc 1 313 15
	movl	(%rax), %eax
	movl	%eax, -20(%rbp)
	.loc 1 314 3
	movq	-16(%rbp), %rax
	movq	%rax, %rdi
	call	closedir@PLT
	.loc 1 315 3
	call	__errno_location@PLT
	.loc 1 315 9
	movl	-20(%rbp), %edx
	movl	%edx, (%rax)
	.loc 1 316 6
	cmpq	$0, -8(%rbp)
	je	.L19
	.loc 1 317 12
	movl	$0, %eax
	jmp	.L17
.L19:
	.loc 1 318 34
	cmpl	$0, -20(%rbp)
	sete	%al
.L17:
	.loc 1 319 1
	leave
	.cfi_def_cfa 7, 8
	ret
	.cfi_endproc
.LFE30:
	.size	is_empty_dir, .-is_empty_dir
	.section	.rodata
.LC0:
	.string	"["
.LC1:
	.string	"test invocation"
.LC2:
	.string	"coreutils"
.LC3:
	.string	"Multi-call invocation"
.LC4:
	.string	"sha224sum"
.LC5:
	.string	"sha2 utilities"
.LC6:
	.string	"sha256sum"
.LC7:
	.string	"sha384sum"
.LC8:
	.string	"sha512sum"
.LC9:
	.string	"\n%s online help: <%s>\n"
	.align 8
.LC10:
	.string	"https://www.gnu.org/software/coreutils/"
.LC11:
	.string	"GNU coreutils"
.LC12:
	.string	"en_"
	.align 8
.LC13:
	.string	"Report any translation bugs to <https://translationproject.org/team/>\n"
.LC14:
	.string	"Full documentation <%s%s>\n"
.LC15:
	.string	" invocation"
.LC16:
	.string	""
	.align 8
.LC17:
	.string	"or available locally via: info '(coreutils) %s%s'\n"
	.text
	.type	emit_ancillary_info, @function
emit_ancillary_info:
.LFB40:
	.loc 1 635 1
	.cfi_startproc
	pushq	%rbp
	.cfi_def_cfa_offset 16
	.cfi_offset 6, -16
	movq	%rsp, %rbp
	.cfi_def_cfa_register 6
	pushq	%rbx
	subq	$184, %rsp
	.cfi_offset 3, -24
	movq	%rdi, -184(%rbp)
	.loc 1 635 1
	movq	%fs:40, %rax
	movq	%rax, -24(%rbp)
	xorl	%eax, %eax
	.loc 1 636 67
	leaq	.LC0(%rip), %rax
	movq	%rax, -144(%rbp)
	leaq	.LC1(%rip), %rax
	movq	%rax, -136(%rbp)
	leaq	.LC2(%rip), %rax
	movq	%rax, -128(%rbp)
	leaq	.LC3(%rip), %rax
	movq	%rax, -120(%rbp)
	leaq	.LC4(%rip), %rax
	movq	%rax, -112(%rbp)
	leaq	.LC5(%rip), %rax
	movq	%rax, -104(%rbp)
	leaq	.LC6(%rip), %rax
	movq	%rax, -96(%rbp)
	leaq	.LC5(%rip), %rax
	movq	%rax, -88(%rbp)
	leaq	.LC7(%rip), %rax
	movq	%rax, -80(%rbp)
	leaq	.LC5(%rip), %rax
	movq	%rax, -72(%rbp)
	leaq	.LC8(%rip), %rax
	movq	%rax, -64(%rbp)
	leaq	.LC5(%rip), %rax
	movq	%rax, -56(%rbp)
	movq	$0, -48(%rbp)
	movq	$0, -40(%rbp)
	.loc 1 646 15
	movq	-184(%rbp), %rax
	movq	%rax, -168(%rbp)
	.loc 1 647 25
	leaq	-144(%rbp), %rax
	movq	%rax, -160(%rbp)
	.loc 1 649 9
	jmp	.L21
.L23:
	.loc 1 650 13
	addq	$16, -160(%rbp)
.L21:
	.loc 1 649 18
	movq	-160(%rbp), %rax
	movq	(%rax), %rax
	.loc 1 649 9
	testq	%rax, %rax
	je	.L22
	.loc 1 649 33 discriminator 1
	movq	-160(%rbp), %rax
	movq	(%rax), %rdx
	movq	-184(%rbp), %rax
	movq	%rdx, %rsi
	movq	%rax, %rdi
	call	strcmp@PLT
	.loc 1 649 28 discriminator 1
	testl	%eax, %eax
	jne	.L23
.L22:
	.loc 1 652 15
	movq	-160(%rbp), %rax
	movq	8(%rax), %rax
	.loc 1 652 6
	testq	%rax, %rax
	je	.L24
	.loc 1 653 10
	movq	-160(%rbp), %rax
	movq	8(%rax), %rax
	movq	%rax, -168(%rbp)
.L24:
	.loc 1 655 11
	leaq	.LC9(%rip), %rdi
	call	gettext@PLT
	.loc 1 655 3
	leaq	.LC10(%rip), %rdx
	leaq	.LC11(%rip), %rsi
	movq	%rax, %rdi
	movl	$0, %eax
	call	printf@PLT
	.loc 1 659 29
	movl	$0, %esi
	movl	$5, %edi
	call	setlocale@PLT
	movq	%rax, -152(%rbp)
	.loc 1 660 6
	cmpq	$0, -152(%rbp)
	je	.L25
	.loc 1 660 22 discriminator 1
	movq	-152(%rbp), %rax
	movl	$3, %edx
	leaq	.LC12(%rip), %rsi
	movq	%rax, %rdi
	call	strncmp@PLT
	.loc 1 660 19 discriminator 1
	testl	%eax, %eax
	je	.L25
	.loc 1 666 7
	movq	stdout(%rip), %rbx
	leaq	.LC13(%rip), %rdi
	call	gettext@PLT
	movq	%rbx, %rsi
	movq	%rax, %rdi
	call	fputs_unlocked@PLT
.L25:
	.loc 1 669 11
	leaq	.LC14(%rip), %rdi
	call	gettext@PLT
	movq	%rax, %rcx
	.loc 1 669 3
	movq	-184(%rbp), %rax
	movq	%rax, %rdx
	leaq	.LC10(%rip), %rsi
	movq	%rcx, %rdi
	movl	$0, %eax
	call	printf@PLT
	.loc 1 671 3
	movq	-168(%rbp), %rax
	cmpq	-184(%rbp), %rax
	jne	.L26
	.loc 1 671 3 is_stmt 0 discriminator 1
	leaq	.LC15(%rip), %rbx
	jmp	.L27
.L26:
	.loc 1 671 3 discriminator 2
	leaq	.LC16(%rip), %rbx
.L27:
	.loc 1 671 11 is_stmt 1 discriminator 4
	leaq	.LC17(%rip), %rdi
	call	gettext@PLT
	movq	%rax, %rcx
	.loc 1 671 3 discriminator 4
	movq	-168(%rbp), %rax
	movq	%rbx, %rdx
	movq	%rax, %rsi
	movq	%rcx, %rdi
	movl	$0, %eax
	call	printf@PLT
	.loc 1 673 1 discriminator 4
	nop
	movq	-24(%rbp), %rax
	xorq	%fs:40, %rax
	je	.L28
	.loc 1 673 1 is_stmt 0
	call	__stack_chk_fail@PLT
.L28:
	addq	$184, %rsp
	popq	%rbx
	popq	%rbp
	.cfi_def_cfa 7, 8
	ret
	.cfi_endproc
.LFE40:
	.size	emit_ancillary_info, .-emit_ancillary_info
	.local	remove_empty_parents
	.comm	remove_empty_parents,1,1
	.local	ignore_fail_on_non_empty
	.comm	ignore_fail_on_non_empty,1,1
	.local	verbose
	.comm	verbose,1,1
	.section	.rodata
.LC18:
	.string	"ignore-fail-on-non-empty"
.LC19:
	.string	"path"
.LC20:
	.string	"parents"
.LC21:
	.string	"verbose"
.LC22:
	.string	"help"
.LC23:
	.string	"version"
	.section	.data.rel.ro.local,"aw"
	.align 32
	.type	longopts, @object
	.size	longopts, 224
longopts:
	.quad	.LC18
	.long	0
	.zero	4
	.quad	0
	.long	128
	.zero	4
	.quad	.LC19
	.long	0
	.zero	4
	.quad	0
	.long	112
	.zero	4
	.quad	.LC20
	.long	0
	.zero	4
	.quad	0
	.long	112
	.zero	4
	.quad	.LC21
	.long	0
	.zero	4
	.quad	0
	.long	118
	.zero	4
	.quad	.LC22
	.long	0
	.zero	4
	.quad	0
	.long	-130
	.zero	4
	.quad	.LC23
	.long	0
	.zero	4
	.quad	0
	.long	-131
	.zero	4
	.quad	0
	.long	0
	.zero	4
	.quad	0
	.long	0
	.zero	4
	.text
	.type	errno_rmdir_non_empty, @function
errno_rmdir_non_empty:
.LFB46:
	.file 2 "src/rmdir.c"
	.loc 2 75 1 is_stmt 1
	.cfi_startproc
	endbr64
	pushq	%rbp
	.cfi_def_cfa_offset 16
	.cfi_offset 6, -16
	movq	%rsp, %rbp
	.cfi_def_cfa_register 6
	movl	%edi, -4(%rbp)
	.loc 2 76 36
	cmpl	$39, -4(%rbp)
	je	.L30
	.loc 2 76 36 is_stmt 0 discriminator 2
	cmpl	$17, -4(%rbp)
	jne	.L31
.L30:
	.loc 2 76 36 discriminator 3
	movl	$1, %eax
	jmp	.L32
.L31:
	.loc 2 76 36 discriminator 4
	movl	$0, %eax
.L32:
	.loc 2 76 36 discriminator 6
	andl	$1, %eax
	.loc 2 77 1 is_stmt 1 discriminator 6
	popq	%rbp
	.cfi_def_cfa 7, 8
	ret
	.cfi_endproc
.LFE46:
	.size	errno_rmdir_non_empty, .-errno_rmdir_non_empty
	.type	errno_may_be_non_empty, @function
errno_may_be_non_empty:
.LFB47:
	.loc 2 83 1
	.cfi_startproc
	endbr64
	pushq	%rbp
	.cfi_def_cfa_offset 16
	.cfi_offset 6, -16
	movq	%rsp, %rbp
	.cfi_def_cfa_register 6
	movl	%edi, -4(%rbp)
	movl	-4(%rbp), %eax
	cmpl	$30, %eax
	seta	%dl
	testb	%dl, %dl
	jne	.L35
	movl	$1, %edx
	movl	%eax, %ecx
	salq	%cl, %rdx
	movq	%rdx, %rax
	andl	$1073815554, %eax
	testq	%rax, %rax
	setne	%al
	testb	%al, %al
	je	.L35
	.loc 2 90 14
	movl	$1, %eax
	jmp	.L36
.L35:
	.loc 2 92 14
	movl	$0, %eax
.L36:
	.loc 2 94 1
	popq	%rbp
	.cfi_def_cfa 7, 8
	ret
	.cfi_endproc
.LFE47:
	.size	errno_may_be_non_empty, .-errno_may_be_non_empty
	.type	ignorable_failure, @function
ignorable_failure:
.LFB48:
	.loc 2 100 1
	.cfi_startproc
	endbr64
	pushq	%rbp
	.cfi_def_cfa_offset 16
	.cfi_offset 6, -16
	movq	%rsp, %rbp
	.cfi_def_cfa_register 6
	subq	$16, %rsp
	movl	%edi, -4(%rbp)
	movq	%rsi, -16(%rbp)
	.loc 2 101 11
	movzbl	ignore_fail_on_non_empty(%rip), %eax
	.loc 2 102 11
	testb	%al, %al
	je	.L38
	.loc 2 102 15 discriminator 1
	movl	-4(%rbp), %eax
	movl	%eax, %edi
	call	errno_rmdir_non_empty
	.loc 2 102 11 discriminator 1
	testb	%al, %al
	jne	.L39
	.loc 2 103 19
	movl	-4(%rbp), %eax
	movl	%eax, %edi
	call	errno_may_be_non_empty
	.loc 2 103 15
	testb	%al, %al
	je	.L38
	.loc 2 104 24
	movq	-16(%rbp), %rax
	movq	%rax, %rsi
	movl	$-100, %edi
	call	is_empty_dir
	.loc 2 104 22
	xorl	$1, %eax
	.loc 2 104 19
	testb	%al, %al
	je	.L38
	.loc 2 105 22
	call	__errno_location@PLT
	movl	(%rax), %eax
	.loc 2 105 19
	testl	%eax, %eax
	jne	.L38
.L39:
	.loc 2 102 11 discriminator 3
	movl	$1, %eax
	jmp	.L40
.L38:
	.loc 2 102 11 is_stmt 0 discriminator 2
	movl	$0, %eax
.L40:
	.loc 2 102 11 discriminator 5
	andl	$1, %eax
	.loc 2 106 1 is_stmt 1 discriminator 5
	leave
	.cfi_def_cfa 7, 8
	ret
	.cfi_endproc
.LFE48:
	.size	ignorable_failure, .-ignorable_failure
	.section	.rodata
.LC24:
	.string	"removing directory, %s"
.LC25:
	.string	"failed to remove directory %s"
	.text
	.type	remove_parents, @function
remove_parents:
.LFB49:
	.loc 2 115 1
	.cfi_startproc
	endbr64
	pushq	%rbp
	.cfi_def_cfa_offset 16
	.cfi_offset 6, -16
	movq	%rsp, %rbp
	.cfi_def_cfa_register 6
	pushq	%rbx
	subq	$40, %rsp
	.cfi_offset 3, -24
	movq	%rdi, -40(%rbp)
	.loc 2 117 8
	movb	$1, -29(%rbp)
	.loc 2 119 3
	movq	-40(%rbp), %rax
	movq	%rax, %rdi
	call	strip_trailing_slashes@PLT
.L52:
.LBB4:
	.loc 2 122 15
	movq	-40(%rbp), %rax
	movl	$47, %esi
	movq	%rax, %rdi
	call	strrchr@PLT
	movq	%rax, -24(%rbp)
	.loc 2 123 10
	cmpq	$0, -24(%rbp)
	je	.L54
	.loc 2 127 13
	jmp	.L45
.L47:
	.loc 2 128 9
	subq	$1, -24(%rbp)
.L45:
	.loc 2 127 13
	movq	-24(%rbp), %rax
	cmpq	-40(%rbp), %rax
	jbe	.L46
	.loc 2 127 29 discriminator 1
	movq	-24(%rbp), %rax
	movzbl	(%rax), %eax
	.loc 2 127 26 discriminator 1
	cmpb	$47, %al
	je	.L47
.L46:
	.loc 2 129 12
	movq	-24(%rbp), %rax
	addq	$1, %rax
	.loc 2 129 16
	movb	$0, (%rax)
	.loc 2 132 11
	movzbl	verbose(%rip), %eax
	.loc 2 132 10
	testb	%al, %al
	je	.L48
	.loc 2 133 9
	movq	-40(%rbp), %rax
	movq	%rax, %rsi
	movl	$4, %edi
	call	quotearg_style@PLT
	movq	%rax, %rbx
	.loc 2 133 31
	leaq	.LC24(%rip), %rdi
	call	gettext@PLT
	movq	%rax, %rcx
	.loc 2 133 9
	movq	stdout(%rip), %rax
	movq	%rbx, %rdx
	movq	%rcx, %rsi
	movq	%rax, %rdi
	movl	$0, %eax
	call	prog_fprintf@PLT
.L48:
	.loc 2 135 13
	movq	-40(%rbp), %rax
	movq	%rax, %rdi
	call	rmdir@PLT
	.loc 2 135 10
	testl	%eax, %eax
	sete	%al
	movb	%al, -29(%rbp)
	.loc 2 136 25
	call	__errno_location@PLT
	.loc 2 136 11
	movl	(%rax), %eax
	movl	%eax, -28(%rbp)
	.loc 2 138 11
	movzbl	-29(%rbp), %eax
	xorl	$1, %eax
	.loc 2 138 10
	testb	%al, %al
	je	.L52
	.loc 2 141 15
	movq	-40(%rbp), %rdx
	movl	-28(%rbp), %eax
	movq	%rdx, %rsi
	movl	%eax, %edi
	call	ignorable_failure
	.loc 2 141 14
	testb	%al, %al
	je	.L50
	.loc 2 143 18
	movb	$1, -29(%rbp)
	.loc 2 151 11
	jmp	.L44
.L50:
	.loc 2 148 15
	movq	-40(%rbp), %rax
	movq	%rax, %rsi
	movl	$4, %edi
	call	quotearg_style@PLT
	movq	%rax, %rbx
	.loc 2 148 38
	leaq	.LC25(%rip), %rdi
	call	gettext@PLT
	movq	%rax, %rdx
	.loc 2 148 15
	movl	-28(%rbp), %eax
	movq	%rbx, %rcx
	movl	%eax, %esi
	movl	$0, %edi
	movl	$0, %eax
	call	error@PLT
	.loc 2 151 11
	jmp	.L44
.L54:
	.loc 2 124 9
	nop
.L44:
.LBE4:
	.loc 2 154 10
	movzbl	-29(%rbp), %eax
	.loc 2 155 1
	addq	$40, %rsp
	popq	%rbx
	popq	%rbp
	.cfi_def_cfa 7, 8
	ret
	.cfi_endproc
.LFE49:
	.size	remove_parents, .-remove_parents
	.section	.rodata
	.align 8
.LC26:
	.string	"Try '%s --help' for more information.\n"
	.align 8
.LC27:
	.string	"Usage: %s [OPTION]... DIRECTORY...\n"
	.align 8
.LC28:
	.string	"Remove the DIRECTORY(ies), if they are empty.\n\n      --ignore-fail-on-non-empty\n                  ignore each failure that is solely because a directory\n                    is non-empty\n"
	.align 8
.LC29:
	.string	"  -p, --parents   remove DIRECTORY and its ancestors; e.g., 'rmdir -p a/b/c' is\n                    similar to 'rmdir a/b/c a/b a'\n  -v, --verbose   output a diagnostic for every directory processed\n"
	.align 8
.LC30:
	.string	"      --help     display this help and exit\n"
	.align 8
.LC31:
	.string	"      --version  output version information and exit\n"
.LC32:
	.string	"rmdir"
	.text
	.globl	usage
	.type	usage, @function
usage:
.LFB50:
	.loc 2 159 1
	.cfi_startproc
	endbr64
	pushq	%rbp
	.cfi_def_cfa_offset 16
	.cfi_offset 6, -16
	movq	%rsp, %rbp
	.cfi_def_cfa_register 6
	pushq	%rbx
	subq	$24, %rsp
	.cfi_offset 3, -24
	movl	%edi, -20(%rbp)
	.loc 2 160 6
	cmpl	$0, -20(%rbp)
	je	.L56
	.loc 2 161 5
	movq	program_name(%rip), %rbx
	leaq	.LC26(%rip), %rdi
	call	gettext@PLT
	movq	%rax, %rcx
	movq	stderr(%rip), %rax
	movq	%rbx, %rdx
	movq	%rcx, %rsi
	movq	%rax, %rdi
	movl	$0, %eax
	call	fprintf@PLT
	jmp	.L57
.L56:
	.loc 2 164 7
	movq	program_name(%rip), %rbx
	.loc 2 164 15
	leaq	.LC27(%rip), %rdi
	call	gettext@PLT
	.loc 2 164 7
	movq	%rbx, %rsi
	movq	%rax, %rdi
	movl	$0, %eax
	call	printf@PLT
	.loc 2 165 7
	movq	stdout(%rip), %rbx
	leaq	.LC28(%rip), %rdi
	call	gettext@PLT
	movq	%rbx, %rsi
	movq	%rax, %rdi
	call	fputs_unlocked@PLT
	.loc 2 172 7
	movq	stdout(%rip), %rbx
	leaq	.LC29(%rip), %rdi
	call	gettext@PLT
	movq	%rbx, %rsi
	movq	%rax, %rdi
	call	fputs_unlocked@PLT
	.loc 2 178 7
	movq	stdout(%rip), %rbx
	leaq	.LC30(%rip), %rdi
	call	gettext@PLT
	movq	%rbx, %rsi
	movq	%rax, %rdi
	call	fputs_unlocked@PLT
	.loc 2 179 7
	movq	stdout(%rip), %rbx
	leaq	.LC31(%rip), %rdi
	call	gettext@PLT
	movq	%rbx, %rsi
	movq	%rax, %rdi
	call	fputs_unlocked@PLT
	.loc 2 180 7
	leaq	.LC32(%rip), %rdi
	call	emit_ancillary_info
.L57:
	.loc 2 182 3
	movl	-20(%rbp), %eax
	movl	%eax, %edi
	call	exit@PLT
	.cfi_endproc
.LFE50:
	.size	usage, .-usage
	.section	.rodata
.LC33:
	.string	"/usr/local/share/locale"
.LC34:
	.string	"David MacKenzie"
.LC35:
	.string	"pv"
.LC36:
	.string	"missing operand"
.LC37:
	.string	"failed to remove %s"
	.text
	.globl	main
	.type	main, @function
main:
.LFB51:
	.loc 2 187 1
	.cfi_startproc
	endbr64
	pushq	%rbp
	.cfi_def_cfa_offset 16
	.cfi_offset 6, -16
	movq	%rsp, %rbp
	.cfi_def_cfa_register 6
	pushq	%rbx
	subq	$56, %rsp
	.cfi_offset 3, -24
	movl	%edi, -52(%rbp)
	movq	%rsi, -64(%rbp)
	.loc 2 188 8
	movb	$1, -33(%rbp)
	.loc 2 192 3
	movq	-64(%rbp), %rax
	movq	(%rax), %rax
	movq	%rax, %rdi
	call	set_program_name@PLT
	.loc 2 193 3
	leaq	.LC16(%rip), %rsi
	movl	$6, %edi
	call	setlocale@PLT
	.loc 2 194 3
	leaq	.LC33(%rip), %rsi
	leaq	.LC2(%rip), %rdi
	call	bindtextdomain@PLT
	.loc 2 195 3
	leaq	.LC2(%rip), %rdi
	call	textdomain@PLT
	.loc 2 197 3
	movq	close_stdout@GOTPCREL(%rip), %rax
	movq	%rax, %rdi
	call	atexit@PLT
	.loc 2 199 24
	movb	$0, remove_empty_parents(%rip)
	.loc 2 201 9
	jmp	.L59
.L66:
	.loc 2 203 7
	cmpl	$128, -32(%rbp)
	je	.L60
	cmpl	$128, -32(%rbp)
	jg	.L61
	cmpl	$118, -32(%rbp)
	je	.L62
	cmpl	$118, -32(%rbp)
	jg	.L61
	cmpl	$112, -32(%rbp)
	je	.L63
	cmpl	$112, -32(%rbp)
	jg	.L61
	cmpl	$-131, -32(%rbp)
	je	.L64
	cmpl	$-130, -32(%rbp)
	je	.L65
	jmp	.L61
.L63:
	.loc 2 206 32
	movb	$1, remove_empty_parents(%rip)
	.loc 2 207 11
	jmp	.L59
.L60:
	.loc 2 209 36
	movb	$1, ignore_fail_on_non_empty(%rip)
	.loc 2 210 11
	jmp	.L59
.L62:
	.loc 2 212 19
	movb	$1, verbose(%rip)
	.loc 2 213 11
	jmp	.L59
.L65:
	.loc 2 214 9
	movl	$0, %edi
	call	usage
.L64:
	.loc 2 215 9
	movq	Version(%rip), %rdx
	movq	stdout(%rip), %rax
	movl	$0, %r9d
	leaq	.LC34(%rip), %r8
	movq	%rdx, %rcx
	leaq	.LC11(%rip), %rdx
	leaq	.LC32(%rip), %rsi
	movq	%rax, %rdi
	movl	$0, %eax
	call	version_etc@PLT
	movl	$0, %edi
	call	exit@PLT
.L61:
	.loc 2 217 11
	movl	$1, %edi
	call	usage
.L59:
	.loc 2 201 18
	movq	-64(%rbp), %rsi
	movl	-52(%rbp), %eax
	movl	$0, %r8d
	leaq	longopts(%rip), %rcx
	leaq	.LC35(%rip), %rdx
	movl	%eax, %edi
	call	getopt_long@PLT
	movl	%eax, -32(%rbp)
	.loc 2 201 9
	cmpl	$-1, -32(%rbp)
	jne	.L66
	.loc 2 221 14
	movl	optind(%rip), %eax
	.loc 2 221 6
	cmpl	%eax, -52(%rbp)
	jne	.L68
	.loc 2 223 20
	leaq	.LC36(%rip), %rdi
	call	gettext@PLT
	.loc 2 223 7
	movq	%rax, %rdx
	movl	$0, %esi
	movl	$0, %edi
	movl	$0, %eax
	call	error@PLT
	.loc 2 224 7
	movl	$1, %edi
	call	usage
.L73:
.LBB5:
	.loc 2 229 23
	movl	optind(%rip), %eax
	cltq
	leaq	0(,%rax,8), %rdx
	movq	-64(%rbp), %rax
	addq	%rdx, %rax
	.loc 2 229 13
	movq	(%rax), %rax
	movq	%rax, -24(%rbp)
	.loc 2 232 11
	movzbl	verbose(%rip), %eax
	.loc 2 232 10
	testb	%al, %al
	je	.L69
	.loc 2 233 9
	movq	-24(%rbp), %rax
	movq	%rax, %rsi
	movl	$4, %edi
	call	quotearg_style@PLT
	movq	%rax, %rbx
	.loc 2 233 31
	leaq	.LC24(%rip), %rdi
	call	gettext@PLT
	movq	%rax, %rcx
	.loc 2 233 9
	movq	stdout(%rip), %rax
	movq	%rbx, %rdx
	movq	%rcx, %rsi
	movq	%rax, %rdi
	movl	$0, %eax
	call	prog_fprintf@PLT
.L69:
	.loc 2 235 11
	movq	-24(%rbp), %rax
	movq	%rax, %rdi
	call	rmdir@PLT
	.loc 2 235 10
	testl	%eax, %eax
	je	.L70
.LBB6:
	.loc 2 237 29
	call	__errno_location@PLT
	.loc 2 237 15
	movl	(%rax), %eax
	movl	%eax, -28(%rbp)
	.loc 2 238 15
	movq	-24(%rbp), %rdx
	movl	-28(%rbp), %eax
	movq	%rdx, %rsi
	movl	%eax, %edi
	call	ignorable_failure
	.loc 2 238 14
	testb	%al, %al
	jne	.L75
	.loc 2 243 11
	movq	-24(%rbp), %rax
	movq	%rax, %rsi
	movl	$4, %edi
	call	quotearg_style@PLT
	movq	%rax, %rbx
	.loc 2 243 34
	leaq	.LC37(%rip), %rdi
	call	gettext@PLT
	movq	%rax, %rdx
	.loc 2 243 11
	movl	-28(%rbp), %eax
	movq	%rbx, %rcx
	movl	%eax, %esi
	movl	$0, %edi
	movl	$0, %eax
	call	error@PLT
	.loc 2 244 14
	movb	$0, -33(%rbp)
.LBE6:
	jmp	.L72
.L70:
	.loc 2 246 16
	movzbl	remove_empty_parents(%rip), %eax
	.loc 2 246 15
	testb	%al, %al
	je	.L72
	.loc 2 248 17
	movq	-24(%rbp), %rax
	movq	%rax, %rdi
	call	remove_parents
	.loc 2 248 14
	movzbl	-33(%rbp), %edx
	.loc 2 248 17
	movzbl	%al, %eax
	.loc 2 248 14
	andl	%edx, %eax
	testl	%eax, %eax
	setne	%al
	movb	%al, -33(%rbp)
	jmp	.L72
.L75:
.LBB7:
	.loc 2 239 13
	nop
.L72:
.LBE7:
.LBE5:
	.loc 2 227 25
	movl	optind(%rip), %eax
	addl	$1, %eax
	movl	%eax, optind(%rip)
.L68:
	.loc 2 227 17 discriminator 1
	movl	optind(%rip), %eax
	.loc 2 227 3 discriminator 1
	cmpl	%eax, -52(%rbp)
	jg	.L73
	.loc 2 252 28
	movzbl	-33(%rbp), %eax
	xorl	$1, %eax
	movzbl	%al, %eax
	.loc 2 253 1
	addq	$56, %rsp
	popq	%rbx
	popq	%rbp
	.cfi_def_cfa 7, 8
	ret
	.cfi_endproc
.LFE51:
	.size	main, .-main
.Letext0:
	.file 3 "/usr/lib/gcc/x86_64-linux-gnu/9/include/stddef.h"
	.file 4 "/usr/include/x86_64-linux-gnu/bits/types.h"
	.file 5 "/usr/include/x86_64-linux-gnu/bits/types/struct_FILE.h"
	.file 6 "/usr/include/x86_64-linux-gnu/bits/types/FILE.h"
	.file 7 "/usr/include/stdio.h"
	.file 8 "/usr/include/x86_64-linux-gnu/bits/sys_errlist.h"
	.file 9 "/usr/include/x86_64-linux-gnu/bits/types/time_t.h"
	.file 10 "./lib/sys/select.h"
	.file 11 "/usr/include/x86_64-linux-gnu/bits/getopt_core.h"
	.file 12 "/usr/include/x86_64-linux-gnu/bits/getopt_ext.h"
	.file 13 "/usr/include/time.h"
	.file 14 "/usr/include/signal.h"
	.file 15 "/usr/include/unistd.h"
	.file 16 "/usr/include/errno.h"
	.file 17 "src/version.h"
	.file 18 "./lib/exitfail.h"
	.file 19 "/usr/include/x86_64-linux-gnu/bits/dirent.h"
	.file 20 "./lib/timespec.h"
	.file 21 "./lib/version-etc.h"
	.file 22 "./lib/progname.h"
	.file 23 "./lib/quotearg.h"
	.file 24 "./lib/error.h"
	.file 25 "/usr/include/dirent.h"
	.section	.note.GNU-stack,"",@progbits
	.section	.note.gnu.property,"a"
	.align 8
	.long	 1f - 0f
	.long	 4f - 1f
	.long	 5
0:
	.string	 "GNU"
1:
	.align 8
	.long	 0xc0000002
	.long	 3f - 2f
2:
	.long	 0x3
3:
	.align 8
4:
