	.file	"selinux.c"
	.text
.Ltext0:
	.type	computecon, @function
computecon:
.LFB47:
	.file 1 "src/selinux.c"
	.loc 1 73 1
	.cfi_startproc
	endbr64
	pushq	%rbp
	.cfi_def_cfa_offset 16
	.cfi_offset 6, -16
	movq	%rsp, %rbp
	.cfi_def_cfa_register 6
	subq	$80, %rsp
	movq	%rdi, -56(%rbp)
	movl	%esi, -60(%rbp)
	movq	%rdx, -72(%rbp)
	.loc 1 73 1
	movq	%fs:40, %rax
	movq	%rax, -8(%rbp)
	xorl	%eax, %eax
	.loc 1 74 9
	movq	$0, -32(%rbp)
	.loc 1 75 9
	movq	$0, -24(%rbp)
	.loc 1 77 7
	movl	$-1, -40(%rbp)
	.loc 1 79 15
	movq	-56(%rbp), %rax
	movq	%rax, %rdi
	call	dir_name@PLT
	movq	%rax, -16(%rbp)
	.loc 1 80 6
	cmpq	$0, -16(%rbp)
	je	.L9
	.loc 1 82 7
	leaq	-32(%rbp), %rax
	movq	%rax, %rdi
	call	getcon@PLT
	.loc 1 82 6
	testl	%eax, %eax
	js	.L10
	.loc 1 84 7
	leaq	-24(%rbp), %rdx
	movq	-16(%rbp), %rax
	movq	%rdx, %rsi
	movq	%rax, %rdi
	call	rpl_getfilecon@PLT
	.loc 1 84 6
	testl	%eax, %eax
	js	.L11
	.loc 1 86 12
	movl	-60(%rbp), %eax
	movl	%eax, %edi
	call	mode_to_security_class@PLT
	movw	%ax, -42(%rbp)
	.loc 1 87 6
	cmpw	$0, -42(%rbp)
	je	.L12
	.loc 1 89 8
	movzwl	-42(%rbp), %edx
	movq	-24(%rbp), %rsi
	movq	-32(%rbp), %rax
	movq	-72(%rbp), %rcx
	movq	%rax, %rdi
	call	security_compute_create@PLT
	movl	%eax, -40(%rbp)
	jmp	.L3
.L9:
	.loc 1 81 5
	nop
	jmp	.L3
.L10:
	.loc 1 83 5
	nop
	jmp	.L3
.L11:
	.loc 1 85 5
	nop
	jmp	.L3
.L12:
	.loc 1 88 5
	nop
.L3:
	.loc 1 92 13
	call	__errno_location@PLT
	.loc 1 92 7
	movl	(%rax), %eax
	movl	%eax, -36(%rbp)
	.loc 1 93 3
	movq	-16(%rbp), %rax
	movq	%rax, %rdi
	call	free@PLT
	.loc 1 94 3
	movq	-32(%rbp), %rax
	movq	%rax, %rdi
	call	freecon@PLT
	.loc 1 95 3
	movq	-24(%rbp), %rax
	movq	%rax, %rdi
	call	freecon@PLT
	.loc 1 96 3
	call	__errno_location@PLT
	.loc 1 96 9
	movl	-36(%rbp), %edx
	movl	%edx, (%rax)
	.loc 1 97 10
	movl	-40(%rbp), %eax
	.loc 1 98 1
	movq	-8(%rbp), %rcx
	xorq	%fs:40, %rcx
	je	.L8
	call	__stack_chk_fail@PLT
.L8:
	leave
	.cfi_def_cfa 7, 8
	ret
	.cfi_endproc
.LFE47:
	.size	computecon, .-computecon
	.globl	defaultcon
	.type	defaultcon, @function
defaultcon:
.LFB48:
	.loc 1 112 1
	.cfi_startproc
	endbr64
	pushq	%rbp
	.cfi_def_cfa_offset 16
	.cfi_offset 6, -16
	movq	%rsp, %rbp
	.cfi_def_cfa_register 6
	subq	$112, %rsp
	movq	%rdi, -88(%rbp)
	movq	%rsi, -96(%rbp)
	movl	%edx, -100(%rbp)
	.loc 1 112 1
	movq	%fs:40, %rax
	movq	%rax, -8(%rbp)
	xorl	%eax, %eax
	.loc 1 113 7
	movl	$-1, -72(%rbp)
	.loc 1 114 9
	movq	$0, -64(%rbp)
	.loc 1 115 9
	movq	$0, -56(%rbp)
	.loc 1 116 13
	movq	$0, -48(%rbp)
	.loc 1 116 27
	movq	$0, -40(%rbp)
	.loc 1 119 9
	movq	$0, -32(%rbp)
	.loc 1 121 9
	movq	-96(%rbp), %rax
	movzbl	(%rax), %eax
	.loc 1 121 6
	cmpb	$47, %al
	je	.L14
	.loc 1 124 17
	movq	-96(%rbp), %rax
	movl	$2, %esi
	movq	%rax, %rdi
	call	canonicalize_filename_mode@PLT
	movq	%rax, -32(%rbp)
	.loc 1 125 10
	cmpq	$0, -32(%rbp)
	je	.L27
	.loc 1 127 12
	movq	-32(%rbp), %rax
	movq	%rax, -96(%rbp)
.L14:
	.loc 1 130 7
	movl	-100(%rbp), %ecx
	movq	-96(%rbp), %rdx
	leaq	-64(%rbp), %rsi
	movq	-88(%rbp), %rax
	movq	%rax, %rdi
	call	selabel_lookup@PLT
	.loc 1 130 6
	testl	%eax, %eax
	jns	.L17
	.loc 1 137 11
	call	__errno_location@PLT
	movl	(%rax), %eax
	.loc 1 137 10
	cmpl	$2, %eax
	jne	.L28
	.loc 1 138 9
	call	__errno_location@PLT
	.loc 1 138 15
	movl	$61, (%rax)
	.loc 1 139 7
	jmp	.L28
.L17:
	.loc 1 141 7
	leaq	-56(%rbp), %rdx
	movl	-100(%rbp), %ecx
	movq	-96(%rbp), %rax
	movl	%ecx, %esi
	movq	%rax, %rdi
	call	computecon
	.loc 1 141 6
	testl	%eax, %eax
	js	.L29
	.loc 1 143 20
	movq	-64(%rbp), %rax
	movq	%rax, %rdi
	call	context_new@PLT
	movq	%rax, -48(%rbp)
	.loc 1 143 6
	cmpq	$0, -48(%rbp)
	je	.L30
	.loc 1 145 20
	movq	-56(%rbp), %rax
	movq	%rax, %rdi
	call	context_new@PLT
	movq	%rax, -40(%rbp)
	.loc 1 145 6
	cmpq	$0, -40(%rbp)
	je	.L31
	.loc 1 148 19
	movq	-48(%rbp), %rax
	movq	%rax, %rdi
	call	context_type_get@PLT
	movq	%rax, -24(%rbp)
	.loc 1 148 6
	cmpq	$0, -24(%rbp)
	je	.L32
	.loc 1 150 7
	movq	-24(%rbp), %rdx
	movq	-40(%rbp), %rax
	movq	%rdx, %rsi
	movq	%rax, %rdi
	call	context_type_set@PLT
	.loc 1 150 6
	testl	%eax, %eax
	jne	.L33
	.loc 1 152 18
	movq	-40(%rbp), %rax
	movq	%rax, %rdi
	call	context_str@PLT
	movq	%rax, -16(%rbp)
	.loc 1 152 6
	cmpq	$0, -16(%rbp)
	je	.L34
	.loc 1 155 8
	movq	-16(%rbp), %rax
	movq	%rax, %rdi
	call	setfscreatecon@PLT
	movl	%eax, -72(%rbp)
	jmp	.L16
.L27:
	.loc 1 126 9
	nop
	jmp	.L16
.L28:
	.loc 1 139 7
	nop
	jmp	.L16
.L29:
	.loc 1 142 5
	nop
	jmp	.L16
.L30:
	.loc 1 144 5
	nop
	jmp	.L16
.L31:
	.loc 1 146 5
	nop
	jmp	.L16
.L32:
	.loc 1 149 5
	nop
	jmp	.L16
.L33:
	.loc 1 151 5
	nop
	jmp	.L16
.L34:
	.loc 1 153 5
	nop
.L16:
	.loc 1 158 13
	call	__errno_location@PLT
	.loc 1 158 7
	movl	(%rax), %eax
	movl	%eax, -68(%rbp)
	.loc 1 159 3
	movq	-48(%rbp), %rax
	movq	%rax, %rdi
	call	context_free@PLT
	.loc 1 160 3
	movq	-40(%rbp), %rax
	movq	%rax, %rdi
	call	context_free@PLT
	.loc 1 161 3
	movq	-64(%rbp), %rax
	movq	%rax, %rdi
	call	freecon@PLT
	.loc 1 162 3
	movq	-56(%rbp), %rax
	movq	%rax, %rdi
	call	freecon@PLT
	.loc 1 163 3
	movq	-32(%rbp), %rax
	movq	%rax, %rdi
	call	free@PLT
	.loc 1 164 3
	call	__errno_location@PLT
	.loc 1 164 9
	movl	-68(%rbp), %edx
	movl	%edx, (%rax)
	.loc 1 165 10
	movl	-72(%rbp), %eax
	.loc 1 166 1
	movq	-8(%rbp), %rcx
	xorq	%fs:40, %rcx
	je	.L26
	call	__stack_chk_fail@PLT
.L26:
	leave
	.cfi_def_cfa 7, 8
	ret
	.cfi_endproc
.LFE48:
	.size	defaultcon, .-defaultcon
	.type	restorecon_private, @function
restorecon_private:
.LFB49:
	.loc 1 179 1
	.cfi_startproc
	endbr64
	pushq	%rbp
	.cfi_def_cfa_offset 16
	.cfi_offset 6, -16
	movq	%rsp, %rbp
	.cfi_def_cfa_register 6
	subq	$240, %rsp
	movq	%rdi, -232(%rbp)
	movq	%rsi, -240(%rbp)
	.loc 1 179 1
	movq	%fs:40, %rax
	movq	%rax, -8(%rbp)
	xorl	%eax, %eax
	.loc 1 180 7
	movl	$-1, -224(%rbp)
	.loc 1 182 9
	movq	$0, -208(%rbp)
	.loc 1 183 9
	movq	$0, -200(%rbp)
	.loc 1 184 13
	movq	$0, -192(%rbp)
	.loc 1 184 27
	movq	$0, -184(%rbp)
	.loc 1 189 6
	cmpq	$0, -232(%rbp)
	jne	.L36
.LBB2:
	.loc 1 191 11
	leaq	-200(%rbp), %rax
	movq	%rax, %rdi
	call	getfscreatecon@PLT
	.loc 1 191 10
	testl	%eax, %eax
	jns	.L37
	.loc 1 192 16
	movl	-224(%rbp), %eax
	jmp	.L55
.L37:
	.loc 1 193 11
	movq	-200(%rbp), %rax
	.loc 1 193 10
	testq	%rax, %rax
	jne	.L39
	.loc 1 195 11
	call	__errno_location@PLT
	.loc 1 195 17
	movl	$61, (%rax)
	.loc 1 196 18
	movl	-224(%rbp), %eax
	jmp	.L55
.L39:
	.loc 1 198 12
	movq	-200(%rbp), %rdx
	movq	-240(%rbp), %rax
	movq	%rdx, %rsi
	movq	%rax, %rdi
	call	lsetfilecon@PLT
	movl	%eax, -224(%rbp)
	.loc 1 199 17
	call	__errno_location@PLT
	.loc 1 199 11
	movl	(%rax), %eax
	movl	%eax, -212(%rbp)
	.loc 1 200 7
	movq	-200(%rbp), %rax
	movq	%rax, %rdi
	call	freecon@PLT
	.loc 1 201 7
	call	__errno_location@PLT
	.loc 1 201 13
	movl	-212(%rbp), %edx
	movl	%edx, (%rax)
	.loc 1 202 14
	movl	-224(%rbp), %eax
	jmp	.L55
.L36:
.LBE2:
	.loc 1 205 8
	movq	-240(%rbp), %rax
	movl	$131072, %esi
	movq	%rax, %rdi
	movl	$0, %eax
	call	open@PLT
	movl	%eax, -220(%rbp)
	.loc 1 206 6
	cmpl	$-1, -220(%rbp)
	jne	.L40
	.loc 1 206 20 discriminator 1
	call	__errno_location@PLT
	movl	(%rax), %eax
	.loc 1 206 16 discriminator 1
	cmpl	$40, %eax
	jne	.L57
.L40:
	.loc 1 209 6
	cmpl	$-1, -220(%rbp)
	je	.L42
	.loc 1 211 11
	leaq	-160(%rbp), %rdx
	movl	-220(%rbp), %eax
	movq	%rdx, %rsi
	movl	%eax, %edi
	call	fstat@PLT
	.loc 1 211 10
	testl	%eax, %eax
	jns	.L43
	.loc 1 212 9
	jmp	.L41
.L42:
	.loc 1 216 11
	leaq	-160(%rbp), %rdx
	movq	-240(%rbp), %rax
	movq	%rdx, %rsi
	movq	%rax, %rdi
	call	lstat@PLT
	.loc 1 216 10
	testl	%eax, %eax
	js	.L58
.L43:
	.loc 1 220 54
	movl	-136(%rbp), %eax
	.loc 1 220 7
	movl	%eax, %ecx
	movq	-240(%rbp), %rdx
	leaq	-208(%rbp), %rsi
	movq	-232(%rbp), %rax
	movq	%rax, %rdi
	call	selabel_lookup@PLT
	.loc 1 220 6
	testl	%eax, %eax
	jns	.L44
	.loc 1 227 11
	call	__errno_location@PLT
	movl	(%rax), %eax
	.loc 1 227 10
	cmpl	$2, %eax
	jne	.L59
	.loc 1 228 9
	call	__errno_location@PLT
	.loc 1 228 15
	movl	$61, (%rax)
	.loc 1 229 7
	jmp	.L59
.L44:
	.loc 1 231 20
	movq	-208(%rbp), %rax
	movq	%rax, %rdi
	call	context_new@PLT
	movq	%rax, -192(%rbp)
	.loc 1 231 6
	cmpq	$0, -192(%rbp)
	je	.L60
	.loc 1 234 6
	cmpl	$-1, -220(%rbp)
	je	.L47
	.loc 1 236 11
	leaq	-200(%rbp), %rdx
	movl	-220(%rbp), %eax
	movq	%rdx, %rsi
	movl	%eax, %edi
	call	rpl_fgetfilecon@PLT
	.loc 1 236 10
	testl	%eax, %eax
	jns	.L48
	.loc 1 237 9
	jmp	.L41
.L47:
	.loc 1 241 11
	leaq	-200(%rbp), %rdx
	movq	-240(%rbp), %rax
	movq	%rdx, %rsi
	movq	%rax, %rdi
	call	rpl_lgetfilecon@PLT
	.loc 1 241 10
	testl	%eax, %eax
	js	.L61
.L48:
	.loc 1 245 20
	movq	-200(%rbp), %rax
	movq	%rax, %rdi
	call	context_new@PLT
	movq	%rax, -184(%rbp)
	.loc 1 245 6
	cmpq	$0, -184(%rbp)
	je	.L62
	.loc 1 248 19
	movq	-192(%rbp), %rax
	movq	%rax, %rdi
	call	context_type_get@PLT
	movq	%rax, -176(%rbp)
	.loc 1 248 6
	cmpq	$0, -176(%rbp)
	je	.L63
	.loc 1 250 7
	movq	-176(%rbp), %rdx
	movq	-184(%rbp), %rax
	movq	%rdx, %rsi
	movq	%rax, %rdi
	call	context_type_set@PLT
	.loc 1 250 6
	testl	%eax, %eax
	jne	.L64
	.loc 1 252 18
	movq	-184(%rbp), %rax
	movq	%rax, %rdi
	call	context_str@PLT
	movq	%rax, -168(%rbp)
	.loc 1 252 6
	cmpq	$0, -168(%rbp)
	je	.L65
	.loc 1 255 6
	cmpl	$-1, -220(%rbp)
	je	.L53
	.loc 1 256 10
	movq	-168(%rbp), %rdx
	movl	-220(%rbp), %eax
	movq	%rdx, %rsi
	movl	%eax, %edi
	call	fsetfilecon@PLT
	movl	%eax, -224(%rbp)
	jmp	.L41
.L53:
	.loc 1 258 10
	movq	-168(%rbp), %rdx
	movq	-240(%rbp), %rax
	movq	%rdx, %rsi
	movq	%rax, %rdi
	call	lsetfilecon@PLT
	movl	%eax, -224(%rbp)
	jmp	.L41
.L57:
	.loc 1 207 5
	nop
	jmp	.L41
.L58:
	.loc 1 217 9
	nop
	jmp	.L41
.L59:
	.loc 1 229 7
	nop
	jmp	.L41
.L60:
	.loc 1 232 5
	nop
	jmp	.L41
.L61:
	.loc 1 242 9
	nop
	jmp	.L41
.L62:
	.loc 1 246 5
	nop
	jmp	.L41
.L63:
	.loc 1 249 5
	nop
	jmp	.L41
.L64:
	.loc 1 251 5
	nop
	jmp	.L41
.L65:
	.loc 1 253 5
	nop
.L41:
	.loc 1 261 13
	call	__errno_location@PLT
	.loc 1 261 7
	movl	(%rax), %eax
	movl	%eax, -216(%rbp)
	.loc 1 262 6
	cmpl	$-1, -220(%rbp)
	je	.L54
	.loc 1 263 5
	movl	-220(%rbp), %eax
	movl	%eax, %edi
	call	close@PLT
.L54:
	.loc 1 264 3
	movq	-192(%rbp), %rax
	movq	%rax, %rdi
	call	context_free@PLT
	.loc 1 265 3
	movq	-184(%rbp), %rax
	movq	%rax, %rdi
	call	context_free@PLT
	.loc 1 266 3
	movq	-208(%rbp), %rax
	movq	%rax, %rdi
	call	freecon@PLT
	.loc 1 267 3
	movq	-200(%rbp), %rax
	movq	%rax, %rdi
	call	freecon@PLT
	.loc 1 268 3
	call	__errno_location@PLT
	.loc 1 268 9
	movl	-216(%rbp), %edx
	movl	%edx, (%rax)
	.loc 1 269 10
	movl	-224(%rbp), %eax
.L55:
	.loc 1 270 1 discriminator 1
	movq	-8(%rbp), %rcx
	xorq	%fs:40, %rcx
	je	.L56
	.loc 1 270 1 is_stmt 0
	call	__stack_chk_fail@PLT
.L56:
	leave
	.cfi_def_cfa 7, 8
	ret
	.cfi_endproc
.LFE49:
	.size	restorecon_private, .-restorecon_private
	.globl	restorecon
	.type	restorecon, @function
restorecon:
.LFB50:
	.loc 1 287 1 is_stmt 1
	.cfi_startproc
	endbr64
	pushq	%rbp
	.cfi_def_cfa_offset 16
	.cfi_offset 6, -16
	movq	%rsp, %rbp
	.cfi_def_cfa_register 6
	subq	$112, %rsp
	movq	%rdi, -88(%rbp)
	movq	%rsi, -96(%rbp)
	movl	%edx, %eax
	movb	%al, -100(%rbp)
	.loc 1 287 1
	movq	%fs:40, %rax
	movq	%rax, -8(%rbp)
	xorl	%eax, %eax
	.loc 1 288 9
	movq	$0, -56(%rbp)
	.loc 1 290 9
	movq	-96(%rbp), %rax
	movzbl	(%rax), %eax
	.loc 1 290 6
	cmpb	$47, %al
	je	.L67
	.loc 1 295 17
	movq	-96(%rbp), %rax
	movl	$2, %esi
	movq	%rax, %rdi
	call	canonicalize_filename_mode@PLT
	movq	%rax, -56(%rbp)
	.loc 1 296 10
	cmpq	$0, -56(%rbp)
	jne	.L68
	.loc 1 297 16
	movl	$0, %eax
	jmp	.L75
.L68:
	.loc 1 298 12
	movq	-56(%rbp), %rax
	movq	%rax, -96(%rbp)
.L67:
	.loc 1 301 7
	movzbl	-100(%rbp), %eax
	xorl	$1, %eax
	.loc 1 301 6
	testb	%al, %al
	je	.L70
.LBB3:
	.loc 1 303 17
	movq	-96(%rbp), %rdx
	movq	-88(%rbp), %rax
	movq	%rdx, %rsi
	movq	%rax, %rdi
	call	restorecon_private
	.loc 1 303 12
	cmpl	$-1, %eax
	setne	%al
	movb	%al, -65(%rbp)
	.loc 1 304 17
	call	__errno_location@PLT
	.loc 1 304 11
	movl	(%rax), %eax
	movl	%eax, -60(%rbp)
	.loc 1 305 7
	movq	-56(%rbp), %rax
	movq	%rax, %rdi
	call	free@PLT
	.loc 1 306 7
	call	__errno_location@PLT
	.loc 1 306 13
	movl	-60(%rbp), %edx
	movl	%edx, (%rax)
	.loc 1 307 14
	movzbl	-65(%rbp), %eax
	jmp	.L75
.L70:
.LBE3:
	.loc 1 310 15
	movq	-96(%rbp), %rax
	movq	%rax, -32(%rbp)
	movq	$0, -24(%rbp)
	.loc 1 311 14
	leaq	-32(%rbp), %rax
	movl	$0, %edx
	movl	$16, %esi
	movq	%rax, %rdi
	call	xfts_open@PLT
	movq	%rax, -48(%rbp)
	.loc 1 313 7
	movl	$0, -64(%rbp)
.LBB4:
	.loc 1 314 3
	jmp	.L71
.L72:
	.loc 1 315 48
	movq	-48(%rbp), %rax
	movq	32(%rax), %rdx
	.loc 1 315 9
	movq	-88(%rbp), %rax
	movq	%rdx, %rsi
	movq	%rax, %rdi
	call	restorecon_private
	.loc 1 315 8
	testl	%eax, %eax
	jns	.L71
	.loc 1 316 13
	call	__errno_location@PLT
	.loc 1 316 11
	movl	(%rax), %eax
	movl	%eax, -64(%rbp)
.L71:
	.loc 1 314 28
	movq	-48(%rbp), %rax
	movq	%rax, %rdi
	call	rpl_fts_read@PLT
	movq	%rax, -40(%rbp)
	.loc 1 314 3
	cmpq	$0, -40(%rbp)
	jne	.L72
.LBE4:
	.loc 1 318 7
	call	__errno_location@PLT
	movl	(%rax), %eax
	.loc 1 318 6
	testl	%eax, %eax
	je	.L73
	.loc 1 319 11
	call	__errno_location@PLT
	.loc 1 319 9
	movl	(%rax), %eax
	movl	%eax, -64(%rbp)
.L73:
	.loc 1 321 7
	movq	-48(%rbp), %rax
	movq	%rax, %rdi
	call	rpl_fts_close@PLT
	.loc 1 321 6
	testl	%eax, %eax
	je	.L74
	.loc 1 322 11
	call	__errno_location@PLT
	.loc 1 322 9
	movl	(%rax), %eax
	movl	%eax, -64(%rbp)
.L74:
	.loc 1 324 3
	movq	-56(%rbp), %rax
	movq	%rax, %rdi
	call	free@PLT
	.loc 1 325 10
	cmpl	$0, -64(%rbp)
	sete	%al
.L75:
	.loc 1 326 1 discriminator 1
	movq	-8(%rbp), %rcx
	xorq	%fs:40, %rcx
	je	.L76
	.loc 1 326 1 is_stmt 0
	call	__stack_chk_fail@PLT
.L76:
	leave
	.cfi_def_cfa 7, 8
	ret
	.cfi_endproc
.LFE50:
	.size	restorecon, .-restorecon
.Letext0:
	.file 2 "/usr/include/x86_64-linux-gnu/bits/types.h"
	.file 3 "/usr/include/x86_64-linux-gnu/sys/types.h"
	.file 4 "/usr/lib/gcc/x86_64-linux-gnu/9/include/stddef.h"
	.file 5 "/usr/include/x86_64-linux-gnu/bits/types/struct_timespec.h"
	.file 6 "/usr/include/selinux/selinux.h"
	.file 7 "/usr/include/selinux/context.h"
	.file 8 "./lib/sys/select.h"
	.file 9 "/usr/include/time.h"
	.file 10 "/usr/include/x86_64-linux-gnu/bits/stat.h"
	.file 11 "/usr/include/signal.h"
	.file 12 "/usr/include/unistd.h"
	.file 13 "/usr/include/x86_64-linux-gnu/bits/getopt_core.h"
	.file 14 "/usr/include/errno.h"
	.file 15 "src/version.h"
	.file 16 "./lib/exitfail.h"
	.file 17 "/usr/include/x86_64-linux-gnu/bits/types/struct_FILE.h"
	.file 18 "/usr/include/x86_64-linux-gnu/bits/types/FILE.h"
	.file 19 "/usr/include/stdio.h"
	.file 20 "/usr/include/x86_64-linux-gnu/bits/sys_errlist.h"
	.file 21 "./lib/version-etc.h"
	.file 22 "./lib/progname.h"
	.file 23 "./lib/quotearg.h"
	.file 24 "./lib/canonicalize.h"
	.file 25 "./lib/i-ring.h"
	.file 26 "./lib/fts_.h"
	.file 27 "/usr/include/dirent.h"
	.section	.note.GNU-stack,"",@progbits
	.section	.note.gnu.property,"a"
	.align 8
	.long	 1f - 0f
	.long	 4f - 1f
	.long	 5
0:
	.string	 "GNU"
1:
	.align 8
	.long	 0xc0000002
	.long	 3f - 2f
2:
	.long	 0x3
3:
	.align 8
4:
