	.file	"md5sum.c"
	.text
.Ltext0:
	.type	select_plural, @function
select_plural:
.LFB17:
	.file 1 "src/system.h"
	.loc 1 184 1
	.cfi_startproc
	pushq	%rbp
	.cfi_def_cfa_offset 16
	.cfi_offset 6, -16
	movq	%rsp, %rbp
	.cfi_def_cfa_register 6
	movq	%rdi, -8(%rbp)
	.loc 1 188 30
	movq	-8(%rbp), %rax
	.loc 1 189 1
	popq	%rbp
	.cfi_def_cfa 7, 8
	ret
	.cfi_endproc
.LFE17:
	.size	select_plural, .-select_plural
	.type	ptr_align, @function
ptr_align:
.LFB33:
	.loc 1 502 1
	.cfi_startproc
	pushq	%rbp
	.cfi_def_cfa_offset 16
	.cfi_offset 6, -16
	movq	%rsp, %rbp
	.cfi_def_cfa_register 6
	movq	%rdi, -24(%rbp)
	movq	%rsi, -32(%rbp)
	.loc 1 503 15
	movq	-24(%rbp), %rax
	movq	%rax, -16(%rbp)
	.loc 1 504 35
	movq	-32(%rbp), %rax
	leaq	-1(%rax), %rdx
	.loc 1 504 15
	movq	-16(%rbp), %rax
	addq	%rdx, %rax
	movq	%rax, -8(%rbp)
	.loc 1 505 25
	movq	-8(%rbp), %rax
	.loc 1 505 37
	movl	$0, %edx
	divq	-32(%rbp)
	movq	%rdx, %rax
	.loc 1 505 23
	negq	%rax
	movq	%rax, %rdx
	.loc 1 505 10
	movq	-8(%rbp), %rax
	addq	%rdx, %rax
	.loc 1 506 1
	popq	%rbp
	.cfi_def_cfa 7, 8
	ret
	.cfi_endproc
.LFE33:
	.size	ptr_align, .-ptr_align
	.section	.rodata
	.align 8
.LC0:
	.string	"\nWith no FILE, or when FILE is -, read standard input.\n"
	.text
	.type	emit_stdin_note, @function
emit_stdin_note:
.LFB35:
	.loc 1 582 1
	.cfi_startproc
	pushq	%rbp
	.cfi_def_cfa_offset 16
	.cfi_offset 6, -16
	movq	%rsp, %rbp
	.cfi_def_cfa_register 6
	pushq	%rbx
	subq	$8, %rsp
	.cfi_offset 3, -24
	.loc 1 583 3
	movq	stdout(%rip), %rbx
	leaq	.LC0(%rip), %rdi
	call	gettext@PLT
	movq	%rbx, %rsi
	movq	%rax, %rdi
	call	fputs_unlocked@PLT
	.loc 1 586 1
	nop
	addq	$8, %rsp
	popq	%rbx
	popq	%rbp
	.cfi_def_cfa 7, 8
	ret
	.cfi_endproc
.LFE35:
	.size	emit_stdin_note, .-emit_stdin_note
	.section	.rodata
.LC1:
	.string	"["
.LC2:
	.string	"test invocation"
.LC3:
	.string	"coreutils"
.LC4:
	.string	"Multi-call invocation"
.LC5:
	.string	"sha224sum"
.LC6:
	.string	"sha2 utilities"
.LC7:
	.string	"sha256sum"
.LC8:
	.string	"sha384sum"
.LC9:
	.string	"sha512sum"
.LC10:
	.string	"\n%s online help: <%s>\n"
	.align 8
.LC11:
	.string	"https://www.gnu.org/software/coreutils/"
.LC12:
	.string	"GNU coreutils"
.LC13:
	.string	"en_"
	.align 8
.LC14:
	.string	"Report any translation bugs to <https://translationproject.org/team/>\n"
.LC15:
	.string	"Full documentation <%s%s>\n"
.LC16:
	.string	" invocation"
.LC17:
	.string	""
	.align 8
.LC18:
	.string	"or available locally via: info '(coreutils) %s%s'\n"
	.text
	.type	emit_ancillary_info, @function
emit_ancillary_info:
.LFB40:
	.loc 1 635 1
	.cfi_startproc
	pushq	%rbp
	.cfi_def_cfa_offset 16
	.cfi_offset 6, -16
	movq	%rsp, %rbp
	.cfi_def_cfa_register 6
	pushq	%rbx
	subq	$184, %rsp
	.cfi_offset 3, -24
	movq	%rdi, -184(%rbp)
	.loc 1 635 1
	movq	%fs:40, %rax
	movq	%rax, -24(%rbp)
	xorl	%eax, %eax
	.loc 1 636 67
	leaq	.LC1(%rip), %rax
	movq	%rax, -144(%rbp)
	leaq	.LC2(%rip), %rax
	movq	%rax, -136(%rbp)
	leaq	.LC3(%rip), %rax
	movq	%rax, -128(%rbp)
	leaq	.LC4(%rip), %rax
	movq	%rax, -120(%rbp)
	leaq	.LC5(%rip), %rax
	movq	%rax, -112(%rbp)
	leaq	.LC6(%rip), %rax
	movq	%rax, -104(%rbp)
	leaq	.LC7(%rip), %rax
	movq	%rax, -96(%rbp)
	leaq	.LC6(%rip), %rax
	movq	%rax, -88(%rbp)
	leaq	.LC8(%rip), %rax
	movq	%rax, -80(%rbp)
	leaq	.LC6(%rip), %rax
	movq	%rax, -72(%rbp)
	leaq	.LC9(%rip), %rax
	movq	%rax, -64(%rbp)
	leaq	.LC6(%rip), %rax
	movq	%rax, -56(%rbp)
	movq	$0, -48(%rbp)
	movq	$0, -40(%rbp)
	.loc 1 646 15
	movq	-184(%rbp), %rax
	movq	%rax, -168(%rbp)
	.loc 1 647 25
	leaq	-144(%rbp), %rax
	movq	%rax, -160(%rbp)
	.loc 1 649 9
	jmp	.L7
.L9:
	.loc 1 650 13
	addq	$16, -160(%rbp)
.L7:
	.loc 1 649 18
	movq	-160(%rbp), %rax
	movq	(%rax), %rax
	.loc 1 649 9
	testq	%rax, %rax
	je	.L8
	.loc 1 649 33 discriminator 1
	movq	-160(%rbp), %rax
	movq	(%rax), %rdx
	movq	-184(%rbp), %rax
	movq	%rdx, %rsi
	movq	%rax, %rdi
	call	strcmp@PLT
	.loc 1 649 28 discriminator 1
	testl	%eax, %eax
	jne	.L9
.L8:
	.loc 1 652 15
	movq	-160(%rbp), %rax
	movq	8(%rax), %rax
	.loc 1 652 6
	testq	%rax, %rax
	je	.L10
	.loc 1 653 10
	movq	-160(%rbp), %rax
	movq	8(%rax), %rax
	movq	%rax, -168(%rbp)
.L10:
	.loc 1 655 11
	leaq	.LC10(%rip), %rdi
	call	gettext@PLT
	.loc 1 655 3
	leaq	.LC11(%rip), %rdx
	leaq	.LC12(%rip), %rsi
	movq	%rax, %rdi
	movl	$0, %eax
	call	printf@PLT
	.loc 1 659 29
	movl	$0, %esi
	movl	$5, %edi
	call	setlocale@PLT
	movq	%rax, -152(%rbp)
	.loc 1 660 6
	cmpq	$0, -152(%rbp)
	je	.L11
	.loc 1 660 22 discriminator 1
	movq	-152(%rbp), %rax
	movl	$3, %edx
	leaq	.LC13(%rip), %rsi
	movq	%rax, %rdi
	call	strncmp@PLT
	.loc 1 660 19 discriminator 1
	testl	%eax, %eax
	je	.L11
	.loc 1 666 7
	movq	stdout(%rip), %rbx
	leaq	.LC14(%rip), %rdi
	call	gettext@PLT
	movq	%rbx, %rsi
	movq	%rax, %rdi
	call	fputs_unlocked@PLT
.L11:
	.loc 1 669 11
	leaq	.LC15(%rip), %rdi
	call	gettext@PLT
	movq	%rax, %rcx
	.loc 1 669 3
	movq	-184(%rbp), %rax
	movq	%rax, %rdx
	leaq	.LC11(%rip), %rsi
	movq	%rcx, %rdi
	movl	$0, %eax
	call	printf@PLT
	.loc 1 671 3
	movq	-168(%rbp), %rax
	cmpq	-184(%rbp), %rax
	jne	.L12
	.loc 1 671 3 is_stmt 0 discriminator 1
	leaq	.LC16(%rip), %rbx
	jmp	.L13
.L12:
	.loc 1 671 3 discriminator 2
	leaq	.LC17(%rip), %rbx
.L13:
	.loc 1 671 11 is_stmt 1 discriminator 4
	leaq	.LC18(%rip), %rdi
	call	gettext@PLT
	movq	%rax, %rcx
	.loc 1 671 3 discriminator 4
	movq	-168(%rbp), %rax
	movq	%rbx, %rdx
	movq	%rax, %rsi
	movq	%rcx, %rdi
	movl	$0, %eax
	call	printf@PLT
	.loc 1 673 1 discriminator 4
	nop
	movq	-24(%rbp), %rax
	xorq	%fs:40, %rax
	je	.L14
	.loc 1 673 1 is_stmt 0
	call	__stack_chk_fail@PLT
.L14:
	addq	$184, %rsp
	popq	%rbx
	popq	%rbp
	.cfi_def_cfa 7, 8
	ret
	.cfi_endproc
.LFE40:
	.size	emit_ancillary_info, .-emit_ancillary_info
	.type	bad_cast, @function
bad_cast:
.LFB42:
	.loc 1 699 1 is_stmt 1
	.cfi_startproc
	pushq	%rbp
	.cfi_def_cfa_offset 16
	.cfi_offset 6, -16
	movq	%rsp, %rbp
	.cfi_def_cfa_register 6
	movq	%rdi, -8(%rbp)
	.loc 1 700 10
	movq	-8(%rbp), %rax
	.loc 1 701 1
	popq	%rbp
	.cfi_def_cfa 7, 8
	ret
	.cfi_endproc
.LFE42:
	.size	bad_cast, .-bad_cast
	.local	have_read_stdin
	.comm	have_read_stdin,1,1
	.local	min_digest_line_length
	.comm	min_digest_line_length,8,8
	.local	digest_hex_bytes
	.comm	digest_hex_bytes,8,8
	.local	status_only
	.comm	status_only,1,1
	.local	warn
	.comm	warn,1,1
	.local	ignore_missing
	.comm	ignore_missing,1,1
	.local	quiet
	.comm	quiet,1,1
	.local	strict
	.comm	strict,1,1
	.data
	.align 4
	.type	bsd_reversed, @object
	.size	bsd_reversed, 4
bsd_reversed:
	.long	-1
	.type	delim, @object
	.size	delim, 1
delim:
	.byte	10
	.section	.rodata
.LC19:
	.string	"binary"
.LC20:
	.string	"check"
.LC21:
	.string	"ignore-missing"
.LC22:
	.string	"quiet"
.LC23:
	.string	"status"
.LC24:
	.string	"text"
.LC25:
	.string	"warn"
.LC26:
	.string	"strict"
.LC27:
	.string	"tag"
.LC28:
	.string	"zero"
.LC29:
	.string	"help"
.LC30:
	.string	"version"
	.section	.data.rel.ro.local,"aw"
	.align 32
	.type	long_options, @object
	.size	long_options, 416
long_options:
	.quad	.LC19
	.long	0
	.zero	4
	.quad	0
	.long	98
	.zero	4
	.quad	.LC20
	.long	0
	.zero	4
	.quad	0
	.long	99
	.zero	4
	.quad	.LC21
	.long	0
	.zero	4
	.quad	0
	.long	128
	.zero	4
	.quad	.LC22
	.long	0
	.zero	4
	.quad	0
	.long	130
	.zero	4
	.quad	.LC23
	.long	0
	.zero	4
	.quad	0
	.long	129
	.zero	4
	.quad	.LC24
	.long	0
	.zero	4
	.quad	0
	.long	116
	.zero	4
	.quad	.LC25
	.long	0
	.zero	4
	.quad	0
	.long	119
	.zero	4
	.quad	.LC26
	.long	0
	.zero	4
	.quad	0
	.long	131
	.zero	4
	.quad	.LC27
	.long	0
	.zero	4
	.quad	0
	.long	132
	.zero	4
	.quad	.LC28
	.long	0
	.zero	4
	.quad	0
	.long	122
	.zero	4
	.quad	.LC29
	.long	0
	.zero	4
	.quad	0
	.long	-130
	.zero	4
	.quad	.LC30
	.long	0
	.zero	4
	.quad	0
	.long	-131
	.zero	4
	.quad	0
	.long	0
	.zero	4
	.quad	0
	.long	0
	.zero	4
	.section	.rodata
	.align 8
.LC31:
	.string	"Try '%s --help' for more information.\n"
	.align 8
.LC32:
	.string	"Usage: %s [OPTION]... [FILE]...\nPrint or check %s (%d-bit) checksums.\n"
.LC33:
	.string	"SHA256"
	.align 8
.LC34:
	.string	"\n  -b, --binary         read in binary mode\n"
	.align 8
.LC35:
	.string	"  -c, --check          read %s sums from the FILEs and check them\n"
	.align 8
.LC36:
	.string	"      --tag            create a BSD-style checksum\n"
	.align 8
.LC37:
	.string	"  -t, --text           read in text mode (default)\n"
	.align 8
.LC38:
	.string	"  -z, --zero           end each output line with NUL, not newline,\n                       and disable file name escaping\n"
	.align 8
.LC39:
	.ascii	"\nThe following five options are useful only when verifying "
	.ascii	"checksums:\n      --ignore-missing  don't fail or report sta"
	.ascii	"tus for missing files\n      --quiet          don't print OK"
	.ascii	" "
	.string	"for each successfully verified file\n      --status         don't output anything, status code shows success\n      --strict         exit non-zero for improperly formatted checksum lines\n  -w, --warn           warn about improperly formatted checksum lines\n\n"
	.align 8
.LC40:
	.string	"      --help     display this help and exit\n"
	.align 8
.LC41:
	.string	"      --version  output version information and exit\n"
	.align 8
.LC42:
	.ascii	"\nThe sums are computed as described in %s.  When checking, "
	.ascii	"the input\nshould be a former output of this program.  The d"
	.ascii	"ef"
	.string	"ault mode is to print a\nline with checksum, a space, a character indicating input mode ('*' for binary,\n' ' for text or where binary is insignificant), and name for each FILE.\n\nNote: There is no difference between binary mode and text mode on GNU systems.\n"
.LC43:
	.string	"FIPS-180-2"
	.text
	.globl	usage
	.type	usage, @function
usage:
.LFB50:
	.file 2 "src/md5sum.c"
	.loc 2 224 1
	.cfi_startproc
	endbr64
	pushq	%rbp
	.cfi_def_cfa_offset 16
	.cfi_offset 6, -16
	movq	%rsp, %rbp
	.cfi_def_cfa_register 6
	pushq	%rbx
	subq	$24, %rsp
	.cfi_offset 3, -24
	movl	%edi, -20(%rbp)
	.loc 2 225 6
	cmpl	$0, -20(%rbp)
	je	.L18
	.loc 2 226 5
	movq	program_name(%rip), %rbx
	leaq	.LC31(%rip), %rdi
	call	gettext@PLT
	movq	%rax, %rcx
	movq	stderr(%rip), %rax
	movq	%rbx, %rdx
	movq	%rcx, %rsi
	movq	%rax, %rdi
	movl	$0, %eax
	call	fprintf@PLT
	jmp	.L19
.L18:
	.loc 2 229 7
	movq	program_name(%rip), %rbx
	.loc 2 229 15
	leaq	.LC32(%rip), %rdi
	call	gettext@PLT
	.loc 2 229 7
	movl	$256, %ecx
	leaq	.LC33(%rip), %rdx
	movq	%rbx, %rsi
	movq	%rax, %rdi
	movl	$0, %eax
	call	printf@PLT
	.loc 2 237 7
	call	emit_stdin_note
	.loc 2 244 9
	movq	stdout(%rip), %rbx
	leaq	.LC34(%rip), %rdi
	call	gettext@PLT
	movq	%rbx, %rsi
	movq	%rax, %rdi
	call	fputs_unlocked@PLT
	.loc 2 249 15
	leaq	.LC35(%rip), %rdi
	call	gettext@PLT
	.loc 2 249 7
	leaq	.LC33(%rip), %rsi
	movq	%rax, %rdi
	movl	$0, %eax
	call	printf@PLT
	.loc 2 258 7
	movq	stdout(%rip), %rbx
	leaq	.LC36(%rip), %rdi
	call	gettext@PLT
	movq	%rbx, %rsi
	movq	%rax, %rdi
	call	fputs_unlocked@PLT
	.loc 2 266 9
	movq	stdout(%rip), %rbx
	leaq	.LC37(%rip), %rdi
	call	gettext@PLT
	movq	%rbx, %rsi
	movq	%rax, %rdi
	call	fputs_unlocked@PLT
	.loc 2 269 7
	movq	stdout(%rip), %rbx
	leaq	.LC38(%rip), %rdi
	call	gettext@PLT
	movq	%rbx, %rsi
	movq	%rax, %rdi
	call	fputs_unlocked@PLT
	.loc 2 273 7
	movq	stdout(%rip), %rbx
	leaq	.LC39(%rip), %rdi
	call	gettext@PLT
	movq	%rbx, %rsi
	movq	%rax, %rdi
	call	fputs_unlocked@PLT
	.loc 2 283 7
	movq	stdout(%rip), %rbx
	leaq	.LC40(%rip), %rdi
	call	gettext@PLT
	movq	%rbx, %rsi
	movq	%rax, %rdi
	call	fputs_unlocked@PLT
	.loc 2 284 7
	movq	stdout(%rip), %rbx
	leaq	.LC41(%rip), %rdi
	call	gettext@PLT
	movq	%rbx, %rsi
	movq	%rax, %rdi
	call	fputs_unlocked@PLT
	.loc 2 285 15
	leaq	.LC42(%rip), %rdi
	call	gettext@PLT
	.loc 2 285 7
	leaq	.LC43(%rip), %rsi
	movq	%rax, %rdi
	movl	$0, %eax
	call	printf@PLT
	.loc 2 295 7
	leaq	.LC7(%rip), %rdi
	call	emit_ancillary_info
.L19:
	.loc 2 298 3
	movl	-20(%rbp), %eax
	movl	%eax, %edi
	call	exit@PLT
	.cfi_endproc
.LFE50:
	.size	usage, .-usage
	.type	filename_unescape, @function
filename_unescape:
.LFB51:
	.loc 2 313 1
	.cfi_startproc
	endbr64
	pushq	%rbp
	.cfi_def_cfa_offset 16
	.cfi_offset 6, -16
	movq	%rsp, %rbp
	.cfi_def_cfa_register 6
	movq	%rdi, -24(%rbp)
	movq	%rsi, -32(%rbp)
	.loc 2 314 9
	movq	-24(%rbp), %rax
	movq	%rax, -16(%rbp)
.LBB2:
	.loc 2 316 15
	movq	$0, -8(%rbp)
	.loc 2 316 3
	jmp	.L21
.L30:
	.loc 2 318 16
	movq	-24(%rbp), %rdx
	movq	-8(%rbp), %rax
	addq	%rdx, %rax
	movzbl	(%rax), %eax
	movsbl	%al, %eax
	.loc 2 318 7
	testl	%eax, %eax
	je	.L22
	cmpl	$92, %eax
	jne	.L23
	.loc 2 321 26
	movq	-32(%rbp), %rax
	subq	$1, %rax
	.loc 2 321 14
	cmpq	%rax, -8(%rbp)
	jne	.L24
	.loc 2 324 22
	movl	$0, %eax
	jmp	.L25
.L24:
	.loc 2 326 11
	addq	$1, -8(%rbp)
	.loc 2 327 20
	movq	-24(%rbp), %rdx
	movq	-8(%rbp), %rax
	addq	%rdx, %rax
	movzbl	(%rax), %eax
	movsbl	%al, %eax
	cmpl	$92, %eax
	je	.L26
	cmpl	$110, %eax
	jne	.L27
	.loc 2 330 19
	movq	-16(%rbp), %rax
	leaq	1(%rax), %rdx
	movq	%rdx, -16(%rbp)
	.loc 2 330 22
	movb	$10, (%rax)
	.loc 2 331 15
	jmp	.L28
.L26:
	.loc 2 333 19
	movq	-16(%rbp), %rax
	leaq	1(%rax), %rdx
	movq	%rdx, -16(%rbp)
	.loc 2 333 22
	movb	$92, (%rax)
	.loc 2 334 15
	jmp	.L28
.L27:
	.loc 2 337 22
	movl	$0, %eax
	jmp	.L25
.L28:
	.loc 2 339 11
	jmp	.L29
.L22:
	.loc 2 343 18
	movl	$0, %eax
	jmp	.L25
.L23:
	.loc 2 346 21
	movq	-24(%rbp), %rdx
	movq	-8(%rbp), %rax
	leaq	(%rdx,%rax), %rcx
	.loc 2 346 15
	movq	-16(%rbp), %rax
	leaq	1(%rax), %rdx
	movq	%rdx, -16(%rbp)
	.loc 2 346 21
	movzbl	(%rcx), %edx
	.loc 2 346 18
	movb	%dl, (%rax)
	.loc 2 347 11
	nop
.L29:
	.loc 2 316 34 discriminator 2
	addq	$1, -8(%rbp)
.L21:
	.loc 2 316 3 discriminator 1
	movq	-8(%rbp), %rax
	cmpq	-32(%rbp), %rax
	jb	.L30
.LBE2:
	.loc 2 350 15
	movq	-24(%rbp), %rdx
	movq	-32(%rbp), %rax
	addq	%rdx, %rax
	.loc 2 350 6
	cmpq	%rax, -16(%rbp)
	jnb	.L31
	.loc 2 351 10
	movq	-16(%rbp), %rax
	movb	$0, (%rax)
.L31:
	.loc 2 353 10
	movq	-24(%rbp), %rax
.L25:
	.loc 2 354 1
	popq	%rbp
	.cfi_def_cfa 7, 8
	ret
	.cfi_endproc
.LFE51:
	.size	filename_unescape, .-filename_unescape
	.type	hex_digits, @function
hex_digits:
.LFB52:
	.loc 2 360 1
	.cfi_startproc
	endbr64
	pushq	%rbp
	.cfi_def_cfa_offset 16
	.cfi_offset 6, -16
	movq	%rsp, %rbp
	.cfi_def_cfa_register 6
	subq	$32, %rsp
	movq	%rdi, -24(%rbp)
.LBB3:
	.loc 2 361 21
	movl	$0, -4(%rbp)
	.loc 2 361 3
	jmp	.L33
.L36:
	.loc 2 363 12
	call	__ctype_b_loc@PLT
	movq	(%rax), %rdx
	movq	-24(%rbp), %rax
	movzbl	(%rax), %eax
	movzbl	%al, %eax
	addq	%rax, %rax
	addq	%rdx, %rax
	movzwl	(%rax), %eax
	movzwl	%ax, %eax
	andl	$4096, %eax
	.loc 2 363 10
	testl	%eax, %eax
	jne	.L34
	.loc 2 364 16
	movl	$0, %eax
	jmp	.L35
.L34:
	.loc 2 365 7 discriminator 2
	addq	$1, -24(%rbp)
	.loc 2 361 51 discriminator 2
	addl	$1, -4(%rbp)
.L33:
	.loc 2 361 30 discriminator 1
	movl	-4(%rbp), %edx
	movq	digest_hex_bytes(%rip), %rax
	.loc 2 361 3 discriminator 1
	cmpq	%rax, %rdx
	jb	.L36
.LBE3:
	.loc 2 367 10
	movq	-24(%rbp), %rax
	movzbl	(%rax), %eax
	.loc 2 367 13
	testb	%al, %al
	sete	%al
.L35:
	.loc 2 368 1
	leave
	.cfi_def_cfa 7, 8
	ret
	.cfi_endproc
.LFE52:
	.size	hex_digits, .-hex_digits
	.type	bsd_split_3, @function
bsd_split_3:
.LFB53:
	.loc 2 377 1
	.cfi_startproc
	endbr64
	pushq	%rbp
	.cfi_def_cfa_offset 16
	.cfi_offset 6, -16
	movq	%rsp, %rbp
	.cfi_def_cfa_register 6
	subq	$64, %rsp
	movq	%rdi, -24(%rbp)
	movq	%rsi, -32(%rbp)
	movq	%rdx, -40(%rbp)
	movq	%rcx, -48(%rbp)
	movl	%r8d, %eax
	movb	%al, -52(%rbp)
	.loc 2 380 6
	cmpq	$0, -32(%rbp)
	jne	.L38
	.loc 2 381 12
	movl	$0, %eax
	jmp	.L39
.L38:
	.loc 2 384 5
	movq	-32(%rbp), %rax
	subq	$1, %rax
	movq	%rax, -8(%rbp)
	.loc 2 385 9
	jmp	.L40
.L42:
	.loc 2 386 6
	subq	$1, -8(%rbp)
.L40:
	.loc 2 385 9
	cmpq	$0, -8(%rbp)
	je	.L41
	.loc 2 385 16 discriminator 1
	movq	-24(%rbp), %rdx
	movq	-8(%rbp), %rax
	addq	%rdx, %rax
	movzbl	(%rax), %eax
	.loc 2 385 12 discriminator 1
	cmpb	$41, %al
	jne	.L42
.L41:
	.loc 2 388 8
	movq	-24(%rbp), %rdx
	movq	-8(%rbp), %rax
	addq	%rdx, %rax
	movzbl	(%rax), %eax
	.loc 2 388 6
	cmpb	$41, %al
	je	.L43
	.loc 2 389 12
	movl	$0, %eax
	jmp	.L39
.L43:
	.loc 2 391 14
	movq	-48(%rbp), %rax
	movq	-24(%rbp), %rdx
	movq	%rdx, (%rax)
	.loc 2 393 6
	cmpb	$0, -52(%rbp)
	je	.L44
	.loc 2 393 27 discriminator 1
	movq	-8(%rbp), %rdx
	movq	-24(%rbp), %rax
	movq	%rdx, %rsi
	movq	%rax, %rdi
	call	filename_unescape
	.loc 2 393 24 discriminator 1
	testq	%rax, %rax
	jne	.L44
	.loc 2 394 12
	movl	$0, %eax
	jmp	.L39
.L44:
	.loc 2 396 6
	movq	-8(%rbp), %rax
	leaq	1(%rax), %rdx
	movq	%rdx, -8(%rbp)
	.loc 2 396 4
	movq	-24(%rbp), %rdx
	addq	%rdx, %rax
	.loc 2 396 10
	movb	$0, (%rax)
	.loc 2 398 9
	jmp	.L45
.L46:
	.loc 2 399 6
	addq	$1, -8(%rbp)
.L45:
	.loc 2 398 10
	movq	-24(%rbp), %rdx
	movq	-8(%rbp), %rax
	addq	%rdx, %rax
	movzbl	(%rax), %eax
	.loc 2 398 9
	cmpb	$32, %al
	je	.L46
	.loc 2 398 10 discriminator 1
	movq	-24(%rbp), %rdx
	movq	-8(%rbp), %rax
	addq	%rdx, %rax
	movzbl	(%rax), %eax
	cmpb	$9, %al
	je	.L46
	.loc 2 401 8
	movq	-24(%rbp), %rdx
	movq	-8(%rbp), %rax
	addq	%rdx, %rax
	movzbl	(%rax), %eax
	.loc 2 401 6
	cmpb	$61, %al
	je	.L47
	.loc 2 402 12
	movl	$0, %eax
	jmp	.L39
.L47:
	.loc 2 404 4
	addq	$1, -8(%rbp)
	.loc 2 406 9
	jmp	.L48
.L49:
	.loc 2 407 6
	addq	$1, -8(%rbp)
.L48:
	.loc 2 406 10
	movq	-24(%rbp), %rdx
	movq	-8(%rbp), %rax
	addq	%rdx, %rax
	movzbl	(%rax), %eax
	.loc 2 406 9
	cmpb	$32, %al
	je	.L49
	.loc 2 406 10 discriminator 1
	movq	-24(%rbp), %rdx
	movq	-8(%rbp), %rax
	addq	%rdx, %rax
	movzbl	(%rax), %eax
	cmpb	$9, %al
	je	.L49
	.loc 2 409 35
	movq	-24(%rbp), %rdx
	movq	-8(%rbp), %rax
	addq	%rax, %rdx
	.loc 2 409 15
	movq	-40(%rbp), %rax
	movq	%rdx, (%rax)
	.loc 2 411 10
	movq	-40(%rbp), %rax
	movq	(%rax), %rax
	movq	%rax, %rdi
	call	hex_digits
.L39:
	.loc 2 412 1
	leave
	.cfi_def_cfa 7, 8
	ret
	.cfi_endproc
.LFE53:
	.size	bsd_split_3, .-bsd_split_3
	.type	split_3, @function
split_3:
.LFB54:
	.loc 2 421 1
	.cfi_startproc
	endbr64
	pushq	%rbp
	.cfi_def_cfa_offset 16
	.cfi_offset 6, -16
	movq	%rsp, %rbp
	.cfi_def_cfa_register 6
	subq	$80, %rsp
	movq	%rdi, -40(%rbp)
	movq	%rsi, -48(%rbp)
	movq	%rdx, -56(%rbp)
	movq	%rcx, -64(%rbp)
	movq	%r8, -72(%rbp)
	.loc 2 422 8
	movb	$0, -17(%rbp)
	.loc 2 425 10
	movq	$0, -16(%rbp)
	.loc 2 426 9
	jmp	.L51
.L52:
	.loc 2 427 5
	addq	$1, -16(%rbp)
.L51:
	.loc 2 426 10
	movq	-40(%rbp), %rdx
	movq	-16(%rbp), %rax
	addq	%rdx, %rax
	movzbl	(%rax), %eax
	.loc 2 426 9
	cmpb	$32, %al
	je	.L52
	.loc 2 426 10 discriminator 1
	movq	-40(%rbp), %rdx
	movq	-16(%rbp), %rax
	addq	%rdx, %rax
	movzbl	(%rax), %eax
	cmpb	$9, %al
	je	.L52
	.loc 2 429 8
	movq	-40(%rbp), %rdx
	movq	-16(%rbp), %rax
	addq	%rdx, %rax
	movzbl	(%rax), %eax
	.loc 2 429 6
	cmpb	$92, %al
	jne	.L53
	.loc 2 431 7
	addq	$1, -16(%rbp)
	.loc 2 432 24
	movb	$1, -17(%rbp)
.L53:
	.loc 2 437 17
	movq	$6, -8(%rbp)
	.loc 2 438 7
	movq	-40(%rbp), %rdx
	movq	-16(%rbp), %rax
	leaq	(%rdx,%rax), %rcx
	movq	-8(%rbp), %rax
	movq	%rax, %rdx
	leaq	.LC33(%rip), %rsi
	movq	%rcx, %rdi
	call	strncmp@PLT
	.loc 2 438 6
	testl	%eax, %eax
	jne	.L54
	.loc 2 440 9
	movq	-8(%rbp), %rax
	addq	%rax, -16(%rbp)
	.loc 2 473 12
	movq	-40(%rbp), %rdx
	movq	-16(%rbp), %rax
	addq	%rdx, %rax
	movzbl	(%rax), %eax
	.loc 2 473 10
	cmpb	$32, %al
	jne	.L55
	.loc 2 474 9
	addq	$1, -16(%rbp)
.L55:
	.loc 2 475 12
	movq	-40(%rbp), %rdx
	movq	-16(%rbp), %rax
	addq	%rdx, %rax
	movzbl	(%rax), %eax
	.loc 2 475 10
	cmpb	$40, %al
	jne	.L56
	.loc 2 477 11
	addq	$1, -16(%rbp)
	.loc 2 478 19
	movq	-64(%rbp), %rax
	movl	$0, (%rax)
	.loc 2 479 18
	movzbl	-17(%rbp), %esi
	movq	-48(%rbp), %rax
	subq	-16(%rbp), %rax
	movq	-40(%rbp), %rcx
	movq	-16(%rbp), %rdx
	leaq	(%rcx,%rdx), %rdi
	movq	-72(%rbp), %rcx
	movq	-56(%rbp), %rdx
	movl	%esi, %r8d
	movq	%rax, %rsi
	call	bsd_split_3
	jmp	.L57
.L56:
	.loc 2 482 14
	movl	$0, %eax
	jmp	.L57
.L54:
	.loc 2 489 13
	movq	-48(%rbp), %rax
	subq	-16(%rbp), %rax
	.loc 2 489 46
	movq	-40(%rbp), %rcx
	movq	-16(%rbp), %rdx
	addq	%rcx, %rdx
	movzbl	(%rdx), %edx
	.loc 2 489 50
	cmpb	$92, %dl
	sete	%dl
	movzbl	%dl, %ecx
	.loc 2 489 42
	movq	min_digest_line_length(%rip), %rdx
	addq	%rcx, %rdx
	.loc 2 489 6
	cmpq	%rdx, %rax
	jnb	.L58
	.loc 2 490 12
	movl	$0, %eax
	jmp	.L57
.L58:
	.loc 2 492 35
	movq	-40(%rbp), %rdx
	movq	-16(%rbp), %rax
	addq	%rax, %rdx
	.loc 2 492 15
	movq	-56(%rbp), %rax
	movq	%rdx, (%rax)
	.loc 2 509 5
	movq	digest_hex_bytes(%rip), %rax
	addq	%rax, -16(%rbp)
	.loc 2 510 8
	movq	-40(%rbp), %rdx
	movq	-16(%rbp), %rax
	addq	%rdx, %rax
	movzbl	(%rax), %eax
	.loc 2 510 6
	cmpb	$32, %al
	je	.L59
	.loc 2 510 8 discriminator 1
	movq	-40(%rbp), %rdx
	movq	-16(%rbp), %rax
	addq	%rdx, %rax
	movzbl	(%rax), %eax
	.loc 2 510 7 discriminator 1
	cmpb	$9, %al
	je	.L59
	.loc 2 511 12
	movl	$0, %eax
	jmp	.L57
.L59:
	.loc 2 513 6
	movq	-16(%rbp), %rax
	leaq	1(%rax), %rdx
	movq	%rdx, -16(%rbp)
	.loc 2 513 4
	movq	-40(%rbp), %rdx
	addq	%rdx, %rax
	.loc 2 513 10
	movb	$0, (%rax)
	.loc 2 515 9
	movq	-56(%rbp), %rax
	movq	(%rax), %rax
	movq	%rax, %rdi
	call	hex_digits
	.loc 2 515 7
	xorl	$1, %eax
	.loc 2 515 6
	testb	%al, %al
	je	.L60
	.loc 2 516 12
	movl	$0, %eax
	jmp	.L57
.L60:
	.loc 2 519 14
	movq	-48(%rbp), %rax
	subq	-16(%rbp), %rax
	.loc 2 519 6
	cmpq	$1, %rax
	je	.L61
	.loc 2 519 29 discriminator 1
	movq	-40(%rbp), %rdx
	movq	-16(%rbp), %rax
	addq	%rdx, %rax
	movzbl	(%rax), %eax
	.loc 2 519 24 discriminator 1
	cmpb	$32, %al
	je	.L62
	.loc 2 519 44 discriminator 2
	movq	-40(%rbp), %rdx
	movq	-16(%rbp), %rax
	addq	%rdx, %rax
	movzbl	(%rax), %eax
	.loc 2 519 40 discriminator 2
	cmpb	$42, %al
	je	.L62
.L61:
	.loc 2 527 24
	movl	bsd_reversed(%rip), %eax
	.loc 2 527 10
	testl	%eax, %eax
	jne	.L63
	.loc 2 528 16
	movl	$0, %eax
	jmp	.L57
.L63:
	.loc 2 529 20
	movl	$1, bsd_reversed(%rip)
	jmp	.L64
.L62:
	.loc 2 531 25
	movl	bsd_reversed(%rip), %eax
	.loc 2 531 11
	cmpl	$1, %eax
	je	.L64
	.loc 2 533 20
	movl	$0, bsd_reversed(%rip)
	.loc 2 534 21
	movq	-16(%rbp), %rax
	leaq	1(%rax), %rdx
	movq	%rdx, -16(%rbp)
	.loc 2 534 19
	movq	-40(%rbp), %rdx
	addq	%rdx, %rax
	movzbl	(%rax), %eax
	.loc 2 534 25
	cmpb	$42, %al
	sete	%al
	movzbl	%al, %edx
	.loc 2 534 15
	movq	-64(%rbp), %rax
	movl	%edx, (%rax)
.L64:
	.loc 2 539 16
	movq	-40(%rbp), %rdx
	movq	-16(%rbp), %rax
	addq	%rax, %rdx
	.loc 2 539 14
	movq	-72(%rbp), %rax
	movq	%rdx, (%rax)
	.loc 2 541 6
	cmpb	$0, -17(%rbp)
	je	.L65
	.loc 2 542 12
	movq	-48(%rbp), %rax
	subq	-16(%rbp), %rax
	movq	-40(%rbp), %rcx
	movq	-16(%rbp), %rdx
	addq	%rcx, %rdx
	movq	%rax, %rsi
	movq	%rdx, %rdi
	call	filename_unescape
	.loc 2 542 49
	testq	%rax, %rax
	setne	%al
	jmp	.L57
.L65:
	.loc 2 544 10
	movl	$1, %eax
.L57:
	.loc 2 545 1
	leave
	.cfi_def_cfa 7, 8
	ret
	.cfi_endproc
.LFE54:
	.size	split_3, .-split_3
	.section	.rodata
.LC44:
	.string	"\\n"
.LC45:
	.string	"\\\\"
	.text
	.type	print_filename, @function
print_filename:
.LFB55:
	.loc 2 551 1
	.cfi_startproc
	endbr64
	pushq	%rbp
	.cfi_def_cfa_offset 16
	.cfi_offset 6, -16
	movq	%rsp, %rbp
	.cfi_def_cfa_register 6
	subq	$16, %rsp
	movq	%rdi, -8(%rbp)
	movl	%esi, %eax
	movb	%al, -12(%rbp)
	.loc 2 552 7
	movzbl	-12(%rbp), %eax
	xorl	$1, %eax
	.loc 2 552 6
	testb	%al, %al
	je	.L69
	.loc 2 554 7
	movq	stdout(%rip), %rdx
	movq	-8(%rbp), %rax
	movq	%rdx, %rsi
	movq	%rax, %rdi
	call	fputs_unlocked@PLT
	.loc 2 555 7
	jmp	.L66
.L74:
	.loc 2 560 15
	movq	-8(%rbp), %rax
	movzbl	(%rax), %eax
	movsbl	%al, %eax
	.loc 2 560 7
	cmpl	$10, %eax
	je	.L70
	cmpl	$92, %eax
	je	.L71
	jmp	.L75
.L70:
	.loc 2 563 11
	movq	stdout(%rip), %rax
	movq	%rax, %rcx
	movl	$2, %edx
	movl	$1, %esi
	leaq	.LC44(%rip), %rdi
	call	fwrite_unlocked@PLT
	.loc 2 564 11
	jmp	.L73
.L71:
	.loc 2 567 11
	movq	stdout(%rip), %rax
	movq	%rax, %rcx
	movl	$2, %edx
	movl	$1, %esi
	leaq	.LC45(%rip), %rdi
	call	fwrite_unlocked@PLT
	.loc 2 568 11
	jmp	.L73
.L75:
	.loc 2 571 11
	movq	-8(%rbp), %rax
	movzbl	(%rax), %eax
	movsbl	%al, %eax
	movl	%eax, %edi
	call	putchar_unlocked@PLT
	.loc 2 572 11
	nop
.L73:
	.loc 2 574 11
	addq	$1, -8(%rbp)
.L69:
	.loc 2 558 10
	movq	-8(%rbp), %rax
	movzbl	(%rax), %eax
	.loc 2 558 9
	testb	%al, %al
	jne	.L74
.L66:
	.loc 2 576 1
	leave
	.cfi_def_cfa 7, 8
	ret
	.cfi_endproc
.LFE55:
	.size	print_filename, .-print_filename
	.section	.rodata
.LC46:
	.string	"-"
.LC47:
	.string	"r"
.LC48:
	.string	"%s"
	.text
	.type	digest_file, @function
digest_file:
.LFB56:
	.loc 2 593 1
	.cfi_startproc
	endbr64
	pushq	%rbp
	.cfi_def_cfa_offset 16
	.cfi_offset 6, -16
	movq	%rsp, %rbp
	.cfi_def_cfa_register 6
	pushq	%rbx
	subq	$56, %rsp
	.cfi_offset 3, -24
	movq	%rdi, -40(%rbp)
	movq	%rsi, -48(%rbp)
	movq	%rdx, -56(%rbp)
	movq	%rcx, -64(%rbp)
	.loc 2 596 19
	movq	-40(%rbp), %rax
	leaq	.LC46(%rip), %rsi
	movq	%rax, %rdi
	call	strcmp@PLT
	.loc 2 596 8
	testl	%eax, %eax
	sete	%al
	movb	%al, -29(%rbp)
	.loc 2 598 12
	movq	-64(%rbp), %rax
	movb	$0, (%rax)
	.loc 2 600 6
	cmpb	$0, -29(%rbp)
	je	.L77
	.loc 2 602 23
	movb	$1, have_read_stdin(%rip)
	.loc 2 603 10
	movq	stdin(%rip), %rax
	movq	%rax, -24(%rbp)
	jmp	.L78
.L77:
	.loc 2 614 12
	movq	-40(%rbp), %rax
	leaq	.LC47(%rip), %rsi
	movq	%rax, %rdi
	call	fopen_safer@PLT
	movq	%rax, -24(%rbp)
	.loc 2 615 10
	cmpq	$0, -24(%rbp)
	jne	.L78
	.loc 2 617 15
	movzbl	ignore_missing(%rip), %eax
	.loc 2 617 14
	testb	%al, %al
	je	.L79
	.loc 2 617 33 discriminator 1
	call	__errno_location@PLT
	movl	(%rax), %eax
	.loc 2 617 30 discriminator 1
	cmpl	$2, %eax
	jne	.L79
	.loc 2 619 24
	movq	-64(%rbp), %rax
	movb	$1, (%rax)
	.loc 2 620 22
	movl	$1, %eax
	jmp	.L80
.L79:
	.loc 2 622 11
	movq	-40(%rbp), %rax
	movq	%rax, %rdx
	movl	$3, %esi
	movl	$0, %edi
	call	quotearg_n_style_colon@PLT
	movq	%rax, %rbx
	.loc 2 622 21
	call	__errno_location@PLT
	.loc 2 622 11
	movl	(%rax), %eax
	movq	%rbx, %rcx
	leaq	.LC48(%rip), %rdx
	movl	%eax, %esi
	movl	$0, %edi
	movl	$0, %eax
	call	error@PLT
	.loc 2 623 18
	movl	$0, %eax
	jmp	.L80
.L78:
	.loc 2 627 3
	movq	-24(%rbp), %rax
	movl	$2, %esi
	movq	%rax, %rdi
	call	fadvise@PLT
	.loc 2 632 9
	movq	-56(%rbp), %rdx
	movq	-24(%rbp), %rax
	movq	%rdx, %rsi
	movq	%rax, %rdi
	call	sha256_stream@PLT
	movl	%eax, -28(%rbp)
	.loc 2 634 6
	cmpl	$0, -28(%rbp)
	je	.L81
	.loc 2 636 7
	movq	-40(%rbp), %rax
	movq	%rax, %rdx
	movl	$3, %esi
	movl	$0, %edi
	call	quotearg_n_style_colon@PLT
	movq	%rax, %rbx
	.loc 2 636 17
	call	__errno_location@PLT
	.loc 2 636 7
	movl	(%rax), %eax
	movq	%rbx, %rcx
	leaq	.LC48(%rip), %rdx
	movl	%eax, %esi
	movl	$0, %edi
	movl	$0, %eax
	call	error@PLT
	.loc 2 637 14
	movq	stdin(%rip), %rax
	.loc 2 637 10
	cmpq	%rax, -24(%rbp)
	je	.L82
	.loc 2 638 9
	movq	-24(%rbp), %rax
	movq	%rax, %rdi
	call	rpl_fclose@PLT
.L82:
	.loc 2 639 14
	movl	$0, %eax
	jmp	.L80
.L81:
	.loc 2 642 7
	movzbl	-29(%rbp), %eax
	xorl	$1, %eax
	.loc 2 642 6
	testb	%al, %al
	je	.L83
	.loc 2 642 20 discriminator 1
	movq	-24(%rbp), %rax
	movq	%rax, %rdi
	call	rpl_fclose@PLT
	.loc 2 642 17 discriminator 1
	testl	%eax, %eax
	je	.L83
	.loc 2 644 7
	movq	-40(%rbp), %rax
	movq	%rax, %rdx
	movl	$3, %esi
	movl	$0, %edi
	call	quotearg_n_style_colon@PLT
	movq	%rax, %rbx
	.loc 2 644 17
	call	__errno_location@PLT
	.loc 2 644 7
	movl	(%rax), %eax
	movq	%rbx, %rcx
	leaq	.LC48(%rip), %rdx
	movl	%eax, %esi
	movl	$0, %edi
	movl	$0, %eax
	call	error@PLT
	.loc 2 645 14
	movl	$0, %eax
	jmp	.L80
.L83:
	.loc 2 648 10
	movl	$1, %eax
.L80:
	.loc 2 649 1
	addq	$56, %rsp
	popq	%rbx
	popq	%rbp
	.cfi_def_cfa 7, 8
	ret
	.cfi_endproc
.LFE56:
	.size	digest_file, .-digest_file
	.section	.rodata
.LC49:
	.string	"standard input"
.LC50:
	.string	"%s: too many checksum lines"
	.align 8
.LC51:
	.string	"%s: %lu: improperly formatted %s checksum line"
.LC52:
	.string	"FAILED open or read"
.LC53:
	.string	": %s\n"
.LC54:
	.string	"FAILED"
.LC55:
	.string	"OK"
.LC56:
	.string	"%s: read error"
	.align 8
.LC57:
	.string	"%s: no properly formatted %s checksum lines found"
	.align 8
.LC58:
	.string	"WARNING: %lu lines are improperly formatted"
	.align 8
.LC59:
	.string	"WARNING: %lu line is improperly formatted"
	.align 8
.LC60:
	.string	"WARNING: %lu listed files could not be read"
	.align 8
.LC61:
	.string	"WARNING: %lu listed file could not be read"
	.align 8
.LC62:
	.string	"WARNING: %lu computed checksums did NOT match"
	.align 8
.LC63:
	.string	"WARNING: %lu computed checksum did NOT match"
.LC64:
	.string	"%s: no file was verified"
	.text
	.type	digest_check, @function
digest_check:
.LFB57:
	.loc 2 653 1
	.cfi_startproc
	endbr64
	pushq	%rbp
	.cfi_def_cfa_offset 16
	.cfi_offset 6, -16
	movq	%rsp, %rbp
	.cfi_def_cfa_register 6
	pushq	%rbx
	subq	$200, %rsp
	.cfi_offset 3, -24
	movq	%rdi, -200(%rbp)
	.loc 2 653 1
	movq	%fs:40, %rax
	movq	%rax, -24(%rbp)
	xorl	%eax, %eax
	.loc 2 655 13
	movq	$0, -136(%rbp)
	.loc 2 656 13
	movq	$0, -128(%rbp)
	.loc 2 657 13
	movq	$0, -120(%rbp)
	.loc 2 658 13
	movq	$0, -112(%rbp)
	.loc 2 659 8
	movb	$0, -185(%rbp)
	.loc 2 660 8
	movb	$0, -184(%rbp)
	.loc 2 663 31
	leaq	-64(%rbp), %rax
	movl	$4, %esi
	movq	%rax, %rdi
	call	ptr_align
	movq	%rax, -80(%rbp)
	.loc 2 667 19
	movq	-200(%rbp), %rax
	leaq	.LC46(%rip), %rsi
	movq	%rax, %rdi
	call	strcmp@PLT
	.loc 2 667 8
	testl	%eax, %eax
	sete	%al
	movb	%al, -183(%rbp)
	.loc 2 669 6
	cmpb	$0, -183(%rbp)
	je	.L85
	.loc 2 671 23
	movb	$1, have_read_stdin(%rip)
	.loc 2 672 24
	leaq	.LC49(%rip), %rdi
	call	gettext@PLT
	movq	%rax, -200(%rbp)
	.loc 2 673 24
	movq	stdin(%rip), %rax
	movq	%rax, -144(%rbp)
	jmp	.L86
.L85:
	.loc 2 677 26
	movq	-200(%rbp), %rax
	leaq	.LC47(%rip), %rsi
	movq	%rax, %rdi
	call	fopen_safer@PLT
	movq	%rax, -144(%rbp)
	.loc 2 678 10
	cmpq	$0, -144(%rbp)
	jne	.L86
	.loc 2 680 11
	movq	-200(%rbp), %rax
	movq	%rax, %rdx
	movl	$3, %esi
	movl	$0, %edi
	call	quotearg_n_style_colon@PLT
	movq	%rax, %rbx
	.loc 2 680 21
	call	__errno_location@PLT
	.loc 2 680 11
	movl	(%rax), %eax
	movq	%rbx, %rcx
	leaq	.LC48(%rip), %rdx
	movl	%eax, %esi
	movl	$0, %edi
	movl	$0, %eax
	call	error@PLT
	.loc 2 681 18
	movl	$0, %eax
	jmp	.L124
.L86:
	.loc 2 685 15
	movq	$0, -104(%rbp)
	.loc 2 686 8
	movq	$0, -176(%rbp)
	.loc 2 687 24
	movq	$0, -168(%rbp)
.L113:
.LBB4:
	.loc 2 690 13
	movq	$0, -160(%rbp)
	.loc 2 692 22
	movq	$0, -152(%rbp)
	.loc 2 695 7
	addq	$1, -104(%rbp)
	.loc 2 696 10
	cmpq	$0, -104(%rbp)
	jne	.L88
.LBB5:
	.loc 2 697 9
	movq	-200(%rbp), %rax
	movq	%rax, %rdx
	movl	$3, %esi
	movl	$0, %edi
	call	quotearg_n_style_colon@PLT
	movq	%rax, %rbx
	leaq	.LC50(%rip), %rdi
	call	gettext@PLT
	movq	%rbx, %rcx
	movq	%rax, %rdx
	movl	$0, %esi
	movl	$1, %edi
	movl	$0, %eax
	call	error@PLT
.L88:
.LBE5:
	.loc 2 700 21
	movq	-144(%rbp), %rdx
	leaq	-168(%rbp), %rcx
	leaq	-176(%rbp), %rax
	movq	%rcx, %rsi
	movq	%rax, %rdi
	call	getline@PLT
	movq	%rax, -96(%rbp)
	.loc 2 701 10
	cmpq	$0, -96(%rbp)
	jle	.L126
	.loc 2 705 15
	movq	-176(%rbp), %rax
	movzbl	(%rax), %eax
	.loc 2 705 10
	cmpb	$35, %al
	je	.L127
	.loc 2 709 15
	movq	-176(%rbp), %rax
	movq	-96(%rbp), %rdx
	subq	$1, %rdx
	addq	%rdx, %rax
	movzbl	(%rax), %eax
	.loc 2 709 10
	cmpb	$10, %al
	jne	.L93
	.loc 2 710 13
	movq	-176(%rbp), %rdx
	.loc 2 710 29
	subq	$1, -96(%rbp)
	.loc 2 710 14
	movq	-96(%rbp), %rax
	.loc 2 710 13
	addq	%rdx, %rax
	.loc 2 710 29
	movb	$0, (%rax)
.L93:
	.loc 2 712 14
	movq	-96(%rbp), %rsi
	movq	-176(%rbp), %rax
	leaq	-160(%rbp), %rdi
	leaq	-180(%rbp), %rcx
	leaq	-152(%rbp), %rdx
	movq	%rdi, %r8
	movq	%rax, %rdi
	call	split_3
	xorl	$1, %eax
	.loc 2 712 10
	testb	%al, %al
	jne	.L94
	.loc 2 712 11 discriminator 1
	cmpb	$0, -183(%rbp)
	je	.L95
	.loc 2 713 32
	movq	-160(%rbp), %rax
	leaq	.LC46(%rip), %rsi
	movq	%rax, %rdi
	call	strcmp@PLT
	.loc 2 713 17
	testl	%eax, %eax
	jne	.L95
.L94:
	.loc 2 715 11
	addq	$1, -136(%rbp)
	.loc 2 717 15
	movzbl	warn(%rip), %eax
	.loc 2 717 14
	testb	%al, %al
	je	.L96
	.loc 2 719 15
	movq	-200(%rbp), %rax
	movq	%rax, %rdx
	movl	$3, %esi
	movl	$0, %edi
	call	quotearg_n_style_colon@PLT
	movq	%rax, %rbx
	.loc 2 720 22
	leaq	.LC51(%rip), %rdi
	call	gettext@PLT
	.loc 2 719 15
	movq	-104(%rbp), %rdx
	leaq	.LC33(%rip), %r9
	movq	%rdx, %r8
	movq	%rbx, %rcx
	movq	%rax, %rdx
	movl	$0, %esi
	movl	$0, %edi
	movl	$0, %eax
	call	error@PLT
.L96:
	.loc 2 726 11
	addq	$1, -128(%rbp)
	jmp	.L92
.L95:
.LBB6:
	.loc 2 738 31
	movzbl	status_only(%rip), %eax
	xorl	$1, %eax
	.loc 2 738 45
	testb	%al, %al
	je	.L98
	.loc 2 738 48 discriminator 1
	movq	-160(%rbp), %rax
	movl	$10, %esi
	movq	%rax, %rdi
	call	strchr@PLT
	.loc 2 738 45 discriminator 1
	testq	%rax, %rax
	je	.L98
	.loc 2 738 45 is_stmt 0 discriminator 3
	movl	$1, %eax
	jmp	.L99
.L98:
	.loc 2 738 45 discriminator 4
	movl	$0, %eax
.L99:
	.loc 2 738 16 is_stmt 1 discriminator 6
	movb	%al, -182(%rbp)
	andb	$1, -182(%rbp)
	.loc 2 740 36 discriminator 6
	movb	$1, -185(%rbp)
	.loc 2 742 16 discriminator 6
	movq	-160(%rbp), %rax
	leaq	-186(%rbp), %rcx
	movq	-80(%rbp), %rdx
	leaq	-180(%rbp), %rsi
	movq	%rax, %rdi
	call	digest_file
	movb	%al, -181(%rbp)
	.loc 2 744 15 discriminator 6
	movzbl	-181(%rbp), %eax
	xorl	$1, %eax
	.loc 2 744 14 discriminator 6
	testb	%al, %al
	je	.L100
	.loc 2 746 15
	addq	$1, -112(%rbp)
	.loc 2 747 19
	movzbl	status_only(%rip), %eax
	xorl	$1, %eax
	.loc 2 747 18
	testb	%al, %al
	je	.L92
	.loc 2 749 22
	cmpb	$0, -182(%rbp)
	je	.L102
	.loc 2 750 21
	movl	$92, %edi
	call	putchar_unlocked@PLT
.L102:
	.loc 2 751 19
	movzbl	-182(%rbp), %edx
	movq	-160(%rbp), %rax
	movl	%edx, %esi
	movq	%rax, %rdi
	call	print_filename
	.loc 2 752 19
	leaq	.LC52(%rip), %rdi
	call	gettext@PLT
	movq	%rax, %rsi
	leaq	.LC53(%rip), %rdi
	movl	$0, %eax
	call	printf@PLT
	jmp	.L92
.L100:
	.loc 2 755 20
	movzbl	ignore_missing(%rip), %eax
	.loc 2 755 19
	testb	%al, %al
	je	.L103
	.loc 2 755 35 discriminator 1
	movzbl	-186(%rbp), %eax
	testb	%al, %al
	jne	.L92
.L103:
.LBB7:
	.loc 2 762 58
	movq	digest_hex_bytes(%rip), %rax
	.loc 2 762 22
	shrq	%rax
	movq	%rax, -72(%rbp)
	.loc 2 767 24
	movq	$0, -88(%rbp)
	.loc 2 767 15
	jmp	.L104
.L106:
	.loc 2 769 42
	movq	-152(%rbp), %rax
	.loc 2 769 45
	movq	-88(%rbp), %rdx
	addq	%rdx, %rdx
	.loc 2 769 42
	addq	%rdx, %rax
	movzbl	(%rax), %eax
	.loc 2 769 23
	movzbl	%al, %eax
	movl	%eax, %edi
	call	tolower@PLT
	.loc 2 770 44
	movq	-80(%rbp), %rcx
	movq	-88(%rbp), %rdx
	addq	%rcx, %rdx
	movzbl	(%rdx), %edx
	.loc 2 770 50
	shrb	$4, %dl
	movzbl	%dl, %edx
	.loc 2 770 33
	movslq	%edx, %rdx
	leaq	bin2hex.6525(%rip), %rcx
	movzbl	(%rdx,%rcx), %edx
	movsbl	%dl, %edx
	.loc 2 769 22
	cmpl	%edx, %eax
	jne	.L105
	.loc 2 771 46
	movq	-152(%rbp), %rax
	.loc 2 771 49
	movq	-88(%rbp), %rdx
	addq	%rdx, %rdx
	.loc 2 771 46
	addq	$1, %rdx
	addq	%rdx, %rax
	movzbl	(%rax), %eax
	.loc 2 771 27
	movzbl	%al, %eax
	movl	%eax, %edi
	call	tolower@PLT
	.loc 2 772 49
	movq	-80(%rbp), %rcx
	movq	-88(%rbp), %rdx
	addq	%rcx, %rdx
	movzbl	(%rdx), %edx
	.loc 2 772 55
	movzbl	%dl, %edx
	andl	$15, %edx
	.loc 2 772 38
	movslq	%edx, %rdx
	leaq	bin2hex.6525(%rip), %rcx
	movzbl	(%rdx,%rcx), %edx
	movsbl	%dl, %edx
	.loc 2 771 23
	cmpl	%edx, %eax
	jne	.L105
	.loc 2 767 53 discriminator 2
	addq	$1, -88(%rbp)
.L104:
	.loc 2 767 15 discriminator 1
	movq	-88(%rbp), %rax
	cmpq	-72(%rbp), %rax
	jb	.L106
.L105:
	.loc 2 775 18
	movq	-88(%rbp), %rax
	cmpq	-72(%rbp), %rax
	je	.L107
	.loc 2 776 17
	addq	$1, -120(%rbp)
	jmp	.L108
.L107:
	.loc 2 778 35
	movb	$1, -184(%rbp)
.L108:
	.loc 2 780 19
	movzbl	status_only(%rip), %eax
	xorl	$1, %eax
	.loc 2 780 18
	testb	%al, %al
	je	.L92
	.loc 2 782 22
	movq	-88(%rbp), %rax
	cmpq	-72(%rbp), %rax
	jne	.L109
	.loc 2 782 50 discriminator 1
	movzbl	quiet(%rip), %eax
	xorl	$1, %eax
	.loc 2 782 47 discriminator 1
	testb	%al, %al
	je	.L110
.L109:
	.loc 2 784 26
	cmpb	$0, -182(%rbp)
	je	.L111
	.loc 2 785 25
	movl	$92, %edi
	call	putchar_unlocked@PLT
.L111:
	.loc 2 786 23
	movzbl	-182(%rbp), %edx
	movq	-160(%rbp), %rax
	movl	%edx, %esi
	movq	%rax, %rdi
	call	print_filename
.L110:
	.loc 2 789 22
	movq	-88(%rbp), %rax
	cmpq	-72(%rbp), %rax
	je	.L112
	.loc 2 790 21
	leaq	.LC54(%rip), %rdi
	call	gettext@PLT
	movq	%rax, %rsi
	leaq	.LC53(%rip), %rdi
	movl	$0, %eax
	call	printf@PLT
	jmp	.L92
.L112:
	.loc 2 791 28
	movzbl	quiet(%rip), %eax
	xorl	$1, %eax
	.loc 2 791 27
	testb	%al, %al
	je	.L92
	.loc 2 792 21
	leaq	.LC55(%rip), %rdi
	call	gettext@PLT
	movq	%rax, %rsi
	leaq	.LC53(%rip), %rdi
	movl	$0, %eax
	call	printf@PLT
	jmp	.L92
.L127:
.LBE7:
.LBE6:
	.loc 2 706 9
	nop
.L92:
.LBE4:
	.loc 2 797 11
	movq	-144(%rbp), %rax
	movq	%rax, %rdi
	call	feof_unlocked@PLT
	.loc 2 797 3
	testl	%eax, %eax
	jne	.L90
	.loc 2 797 39 discriminator 1
	movq	-144(%rbp), %rax
	movq	%rax, %rdi
	call	ferror_unlocked@PLT
	.loc 2 797 35 discriminator 1
	testl	%eax, %eax
	je	.L113
	jmp	.L90
.L126:
.LBB8:
	.loc 2 702 9
	nop
.L90:
.LBE8:
	.loc 2 799 3
	movq	-176(%rbp), %rax
	movq	%rax, %rdi
	call	free@PLT
	.loc 2 801 7
	movq	-144(%rbp), %rax
	movq	%rax, %rdi
	call	ferror_unlocked@PLT
	.loc 2 801 6
	testl	%eax, %eax
	je	.L114
	.loc 2 803 7
	movq	-200(%rbp), %rax
	movq	%rax, %rdx
	movl	$3, %esi
	movl	$0, %edi
	call	quotearg_n_style_colon@PLT
	movq	%rax, %rbx
	.loc 2 803 20
	leaq	.LC56(%rip), %rdi
	call	gettext@PLT
	.loc 2 803 7
	movq	%rbx, %rcx
	movq	%rax, %rdx
	movl	$0, %esi
	movl	$0, %edi
	movl	$0, %eax
	call	error@PLT
	.loc 2 804 14
	movl	$0, %eax
	jmp	.L124
.L114:
	.loc 2 807 7
	movzbl	-183(%rbp), %eax
	xorl	$1, %eax
	.loc 2 807 6
	testb	%al, %al
	je	.L115
	.loc 2 807 20 discriminator 1
	movq	-144(%rbp), %rax
	movq	%rax, %rdi
	call	rpl_fclose@PLT
	.loc 2 807 17 discriminator 1
	testl	%eax, %eax
	je	.L115
	.loc 2 809 7
	movq	-200(%rbp), %rax
	movq	%rax, %rdx
	movl	$3, %esi
	movl	$0, %edi
	call	quotearg_n_style_colon@PLT
	movq	%rax, %rbx
	.loc 2 809 17
	call	__errno_location@PLT
	.loc 2 809 7
	movl	(%rax), %eax
	movq	%rbx, %rcx
	leaq	.LC48(%rip), %rdx
	movl	%eax, %esi
	movl	$0, %edi
	movl	$0, %eax
	call	error@PLT
	.loc 2 810 14
	movl	$0, %eax
	jmp	.L124
.L115:
	.loc 2 813 7
	movzbl	-185(%rbp), %eax
	xorl	$1, %eax
	.loc 2 813 6
	testb	%al, %al
	je	.L116
	.loc 2 816 7
	movq	-200(%rbp), %rax
	movq	%rax, %rdx
	movl	$3, %esi
	movl	$0, %edi
	call	quotearg_n_style_colon@PLT
	movq	%rax, %rbx
	.loc 2 816 20
	leaq	.LC57(%rip), %rdi
	call	gettext@PLT
	.loc 2 816 7
	leaq	.LC33(%rip), %r8
	movq	%rbx, %rcx
	movq	%rax, %rdx
	movl	$0, %esi
	movl	$0, %edi
	movl	$0, %eax
	call	error@PLT
	jmp	.L117
.L116:
	.loc 2 821 11
	movzbl	status_only(%rip), %eax
	xorl	$1, %eax
	.loc 2 821 10
	testb	%al, %al
	je	.L117
	.loc 2 823 14
	cmpq	$0, -136(%rbp)
	je	.L118
	.loc 2 825 21
	movq	-136(%rbp), %rax
	movq	%rax, %rdi
	call	select_plural
	movq	%rax, %rdx
	leaq	.LC58(%rip), %rsi
	leaq	.LC59(%rip), %rdi
	call	ngettext@PLT
	movq	%rax, %rdx
	.loc 2 824 13
	movq	-136(%rbp), %rax
	movq	%rax, %rcx
	movl	$0, %esi
	movl	$0, %edi
	movl	$0, %eax
	call	error@PLT
.L118:
	.loc 2 831 14
	cmpq	$0, -112(%rbp)
	je	.L119
	.loc 2 833 21
	movq	-112(%rbp), %rax
	movq	%rax, %rdi
	call	select_plural
	movq	%rax, %rdx
	leaq	.LC60(%rip), %rsi
	leaq	.LC61(%rip), %rdi
	call	ngettext@PLT
	movq	%rax, %rdx
	.loc 2 832 13
	movq	-112(%rbp), %rax
	movq	%rax, %rcx
	movl	$0, %esi
	movl	$0, %edi
	movl	$0, %eax
	call	error@PLT
.L119:
	.loc 2 839 14
	cmpq	$0, -120(%rbp)
	je	.L120
	.loc 2 841 21
	movq	-120(%rbp), %rax
	movq	%rax, %rdi
	call	select_plural
	movq	%rax, %rdx
	leaq	.LC62(%rip), %rsi
	leaq	.LC63(%rip), %rdi
	call	ngettext@PLT
	movq	%rax, %rdx
	.loc 2 840 13
	movq	-120(%rbp), %rax
	movq	%rax, %rcx
	movl	$0, %esi
	movl	$0, %edi
	movl	$0, %eax
	call	error@PLT
.L120:
	.loc 2 847 15
	movzbl	ignore_missing(%rip), %eax
	.loc 2 847 14
	testb	%al, %al
	je	.L117
	.loc 2 847 33 discriminator 1
	movzbl	-184(%rbp), %eax
	xorl	$1, %eax
	.loc 2 847 30 discriminator 1
	testb	%al, %al
	je	.L117
	.loc 2 848 13
	movq	-200(%rbp), %rax
	movq	%rax, %rdx
	movl	$3, %esi
	movl	$0, %edi
	call	quotearg_n_style_colon@PLT
	movq	%rax, %rbx
	.loc 2 848 26
	leaq	.LC64(%rip), %rdi
	call	gettext@PLT
	.loc 2 848 13
	movq	%rbx, %rcx
	movq	%rax, %rdx
	movl	$0, %esi
	movl	$0, %edi
	movl	$0, %eax
	call	error@PLT
.L117:
	.loc 2 857 11
	cmpb	$0, -185(%rbp)
	je	.L121
	.loc 2 854 11
	cmpb	$0, -184(%rbp)
	je	.L121
	.loc 2 855 11
	cmpq	$0, -120(%rbp)
	jne	.L121
	.loc 2 856 11
	cmpq	$0, -112(%rbp)
	jne	.L121
	.loc 2 857 15
	movzbl	strict(%rip), %eax
	xorl	$1, %eax
	.loc 2 857 11
	testb	%al, %al
	jne	.L122
	.loc 2 857 23 discriminator 3
	cmpq	$0, -128(%rbp)
	jne	.L121
.L122:
	.loc 2 857 11 discriminator 4
	movl	$1, %eax
	jmp	.L123
.L121:
	.loc 2 857 11 is_stmt 0 discriminator 5
	movl	$0, %eax
.L123:
	.loc 2 857 11 discriminator 7
	andl	$1, %eax
.L124:
	.loc 2 858 1 is_stmt 1 discriminator 4
	movq	-24(%rbp), %rbx
	xorq	%fs:40, %rbx
	je	.L125
	.loc 2 858 1 is_stmt 0
	call	__stack_chk_fail@PLT
.L125:
	addq	$200, %rsp
	popq	%rbx
	popq	%rbp
	.cfi_def_cfa 7, 8
	ret
	.cfi_endproc
.LFE57:
	.size	digest_check, .-digest_check
	.section	.rodata
.LC65:
	.string	"/usr/local/share/locale"
.LC66:
	.string	"bctwz"
.LC67:
	.string	"Scott Miller"
.LC68:
	.string	"Ulrich Drepper"
.LC69:
	.string	"David Madore"
	.align 8
.LC70:
	.string	"--tag does not support --text mode"
	.align 8
.LC71:
	.string	"the --zero option is not supported when verifying checksums"
	.align 8
.LC72:
	.string	"the --tag option is meaningless when verifying checksums"
	.align 8
.LC73:
	.string	"the --binary and --text options are meaningless when verifying checksums"
	.align 8
.LC74:
	.string	"the --ignore-missing option is meaningful only when verifying checksums"
	.align 8
.LC75:
	.string	"the --status option is meaningful only when verifying checksums"
	.align 8
.LC76:
	.string	"the --warn option is meaningful only when verifying checksums"
	.align 8
.LC77:
	.string	"the --quiet option is meaningful only when verifying checksums"
	.align 8
.LC78:
	.string	"the --strict option is meaningful only when verifying checksums"
.LC79:
	.string	" ("
.LC80:
	.string	") = "
.LC81:
	.string	"%02x"
	.text
	.globl	main
	.type	main, @function
main:
.LFB58:
	.loc 2 862 1 is_stmt 1
	.cfi_startproc
	endbr64
	pushq	%rbp
	.cfi_def_cfa_offset 16
	.cfi_offset 6, -16
	movq	%rsp, %rbp
	.cfi_def_cfa_register 6
	pushq	%rbx
	subq	$152, %rsp
	.cfi_offset 3, -24
	movl	%edi, -148(%rbp)
	movq	%rsi, -160(%rbp)
	.loc 2 862 1
	movq	%fs:40, %rax
	movq	%rax, -24(%rbp)
	xorl	%eax, %eax
	.loc 2 865 31
	leaq	-64(%rbp), %rax
	movl	$4, %esi
	movq	%rax, %rdi
	call	ptr_align
	movq	%rax, -88(%rbp)
	.loc 2 866 8
	movb	$0, -128(%rbp)
	.loc 2 868 8
	movb	$1, -127(%rbp)
	.loc 2 869 7
	movl	$-1, -120(%rbp)
	.loc 2 870 8
	movb	$0, -126(%rbp)
	.loc 2 874 3
	movq	-160(%rbp), %rax
	movq	(%rax), %rax
	movq	%rax, %rdi
	call	set_program_name@PLT
	.loc 2 875 3
	leaq	.LC17(%rip), %rsi
	movl	$6, %edi
	call	setlocale@PLT
	.loc 2 876 3
	leaq	.LC65(%rip), %rsi
	leaq	.LC3(%rip), %rdi
	call	bindtextdomain@PLT
	.loc 2 877 3
	leaq	.LC3(%rip), %rdi
	call	textdomain@PLT
	.loc 2 879 3
	movq	close_stdout@GOTPCREL(%rip), %rax
	movq	%rax, %rdi
	call	atexit@PLT
	.loc 2 883 3
	movq	stdout(%rip), %rax
	movl	$0, %ecx
	movl	$1, %edx
	movl	$0, %esi
	movq	%rax, %rdi
	call	setvbuf@PLT
	.loc 2 889 15
	leaq	.LC66(%rip), %rax
	movq	%rax, -80(%rbp)
	.loc 2 892 9
	jmp	.L129
.L145:
	.loc 2 893 5
	cmpl	$132, -116(%rbp)
	jg	.L130
	cmpl	$98, -116(%rbp)
	jge	.L131
	cmpl	$-131, -116(%rbp)
	je	.L132
	cmpl	$-130, -116(%rbp)
	je	.L133
	jmp	.L130
.L131:
	movl	-116(%rbp), %eax
	subl	$98, %eax
	cmpl	$34, %eax
	ja	.L130
	movl	%eax, %eax
	leaq	0(,%rax,4), %rdx
	leaq	.L135(%rip), %rax
	movl	(%rdx,%rax), %eax
	cltq
	leaq	.L135(%rip), %rdx
	addq	%rdx, %rax
	notrack jmp	*%rax
	.section	.rodata
	.align 4
	.align 4
.L135:
	.long	.L144-.L135
	.long	.L143-.L135
	.long	.L130-.L135
	.long	.L130-.L135
	.long	.L130-.L135
	.long	.L130-.L135
	.long	.L130-.L135
	.long	.L130-.L135
	.long	.L130-.L135
	.long	.L130-.L135
	.long	.L130-.L135
	.long	.L130-.L135
	.long	.L130-.L135
	.long	.L130-.L135
	.long	.L130-.L135
	.long	.L130-.L135
	.long	.L130-.L135
	.long	.L130-.L135
	.long	.L142-.L135
	.long	.L130-.L135
	.long	.L130-.L135
	.long	.L141-.L135
	.long	.L130-.L135
	.long	.L130-.L135
	.long	.L140-.L135
	.long	.L130-.L135
	.long	.L130-.L135
	.long	.L130-.L135
	.long	.L130-.L135
	.long	.L130-.L135
	.long	.L139-.L135
	.long	.L138-.L135
	.long	.L137-.L135
	.long	.L136-.L135
	.long	.L134-.L135
	.text
.L144:
	.loc 2 908 16
	movl	$1, -120(%rbp)
	.loc 2 909 9
	jmp	.L129
.L143:
	.loc 2 911 18
	movb	$1, -128(%rbp)
	.loc 2 912 9
	jmp	.L129
.L138:
	.loc 2 914 21
	movb	$1, status_only(%rip)
	.loc 2 915 14
	movb	$0, warn(%rip)
	.loc 2 916 15
	movb	$0, quiet(%rip)
	.loc 2 917 9
	jmp	.L129
.L142:
	.loc 2 919 16
	movl	$0, -120(%rbp)
	.loc 2 920 9
	jmp	.L129
.L141:
	.loc 2 922 21
	movb	$0, status_only(%rip)
	.loc 2 923 14
	movb	$1, warn(%rip)
	.loc 2 924 15
	movb	$0, quiet(%rip)
	.loc 2 925 9
	jmp	.L129
.L139:
	.loc 2 927 24
	movb	$1, ignore_missing(%rip)
	.loc 2 928 9
	jmp	.L129
.L137:
	.loc 2 930 21
	movb	$0, status_only(%rip)
	.loc 2 931 14
	movb	$0, warn(%rip)
	.loc 2 932 15
	movb	$1, quiet(%rip)
	.loc 2 933 9
	jmp	.L129
.L136:
	.loc 2 935 16
	movb	$1, strict(%rip)
	.loc 2 936 9
	jmp	.L129
.L134:
	.loc 2 938 20
	movb	$1, -126(%rbp)
	.loc 2 939 16
	movl	$1, -120(%rbp)
	.loc 2 940 9
	jmp	.L129
.L140:
	.loc 2 942 15
	movb	$0, delim(%rip)
	.loc 2 943 9
	jmp	.L129
.L133:
	.loc 2 944 7
	movl	$0, %edi
	call	usage
.L132:
	.loc 2 945 7
	movq	Version(%rip), %rdx
	movq	stdout(%rip), %rax
	pushq	$0
	leaq	.LC69(%rip), %rcx
	pushq	%rcx
	leaq	.LC67(%rip), %r9
	leaq	.LC68(%rip), %r8
	movq	%rdx, %rcx
	leaq	.LC12(%rip), %rdx
	leaq	.LC7(%rip), %rsi
	movq	%rax, %rdi
	movl	$0, %eax
	call	version_etc@PLT
	addq	$16, %rsp
	movl	$0, %edi
	call	exit@PLT
.L130:
	.loc 2 947 9
	movl	$1, %edi
	call	usage
.L129:
	.loc 2 892 17
	movq	-80(%rbp), %rdx
	movq	-160(%rbp), %rsi
	movl	-148(%rbp), %eax
	movl	$0, %r8d
	leaq	long_options(%rip), %rcx
	movl	%eax, %edi
	call	getopt_long@PLT
	movl	%eax, -116(%rbp)
	.loc 2 892 9
	cmpl	$-1, -116(%rbp)
	jne	.L145
	.loc 2 950 26
	movq	$66, min_digest_line_length(%rip)
	.loc 2 964 20
	movq	$64, digest_hex_bytes(%rip)
	.loc 2 967 6
	cmpb	$0, -126(%rbp)
	je	.L146
	.loc 2 967 18 discriminator 1
	cmpl	$0, -120(%rbp)
	jne	.L146
	.loc 2 974 19
	leaq	.LC70(%rip), %rdi
	call	gettext@PLT
	.loc 2 974 6
	movq	%rax, %rdx
	movl	$0, %esi
	movl	$0, %edi
	movl	$0, %eax
	call	error@PLT
	.loc 2 975 6
	movl	$1, %edi
	call	usage
.L146:
	.loc 2 978 13
	movzbl	delim(%rip), %eax
	.loc 2 978 6
	cmpb	$10, %al
	je	.L147
	.loc 2 978 21 discriminator 1
	cmpb	$0, -128(%rbp)
	je	.L147
	.loc 2 980 20
	leaq	.LC71(%rip), %rdi
	call	gettext@PLT
	.loc 2 980 7
	movq	%rax, %rdx
	movl	$0, %esi
	movl	$0, %edi
	movl	$0, %eax
	call	error@PLT
	.loc 2 982 7
	movl	$1, %edi
	call	usage
.L147:
	.loc 2 985 6
	cmpb	$0, -126(%rbp)
	je	.L148
	.loc 2 985 18 discriminator 1
	cmpb	$0, -128(%rbp)
	je	.L148
	.loc 2 987 20
	leaq	.LC72(%rip), %rdi
	call	gettext@PLT
	.loc 2 987 7
	movq	%rax, %rdx
	movl	$0, %esi
	movl	$0, %edi
	movl	$0, %eax
	call	error@PLT
	.loc 2 989 7
	movl	$1, %edi
	call	usage
.L148:
	.loc 2 992 6
	cmpl	$0, -120(%rbp)
	js	.L149
	.loc 2 992 19 discriminator 1
	cmpb	$0, -128(%rbp)
	je	.L149
	.loc 2 994 20
	leaq	.LC73(%rip), %rdi
	call	gettext@PLT
	.loc 2 994 7
	movq	%rax, %rdx
	movl	$0, %esi
	movl	$0, %edi
	movl	$0, %eax
	call	error@PLT
	.loc 2 996 7
	movl	$1, %edi
	call	usage
.L149:
	.loc 2 999 7
	movzbl	ignore_missing(%rip), %eax
	.loc 2 999 6
	testb	%al, %al
	je	.L150
	.loc 2 999 25 discriminator 1
	movzbl	-128(%rbp), %eax
	xorl	$1, %eax
	.loc 2 999 22 discriminator 1
	testb	%al, %al
	je	.L150
	.loc 2 1002 14
	leaq	.LC74(%rip), %rdi
	call	gettext@PLT
	.loc 2 1001 7
	movq	%rax, %rdx
	movl	$0, %esi
	movl	$0, %edi
	movl	$0, %eax
	call	error@PLT
	.loc 2 1004 7
	movl	$1, %edi
	call	usage
.L150:
	.loc 2 1007 7
	movzbl	status_only(%rip), %eax
	.loc 2 1007 6
	testb	%al, %al
	je	.L151
	.loc 2 1007 22 discriminator 1
	movzbl	-128(%rbp), %eax
	xorl	$1, %eax
	.loc 2 1007 19 discriminator 1
	testb	%al, %al
	je	.L151
	.loc 2 1010 8
	leaq	.LC75(%rip), %rdi
	call	gettext@PLT
	.loc 2 1009 7
	movq	%rax, %rdx
	movl	$0, %esi
	movl	$0, %edi
	movl	$0, %eax
	call	error@PLT
	.loc 2 1011 7
	movl	$1, %edi
	call	usage
.L151:
	.loc 2 1014 7
	movzbl	warn(%rip), %eax
	.loc 2 1014 6
	testb	%al, %al
	je	.L152
	.loc 2 1014 15 discriminator 1
	movzbl	-128(%rbp), %eax
	xorl	$1, %eax
	.loc 2 1014 12 discriminator 1
	testb	%al, %al
	je	.L152
	.loc 2 1017 8
	leaq	.LC76(%rip), %rdi
	call	gettext@PLT
	.loc 2 1016 7
	movq	%rax, %rdx
	movl	$0, %esi
	movl	$0, %edi
	movl	$0, %eax
	call	error@PLT
	.loc 2 1018 7
	movl	$1, %edi
	call	usage
.L152:
	.loc 2 1021 7
	movzbl	quiet(%rip), %eax
	.loc 2 1021 6
	testb	%al, %al
	je	.L153
	.loc 2 1021 16 discriminator 1
	movzbl	-128(%rbp), %eax
	xorl	$1, %eax
	.loc 2 1021 13 discriminator 1
	testb	%al, %al
	je	.L153
	.loc 2 1024 8
	leaq	.LC77(%rip), %rdi
	call	gettext@PLT
	.loc 2 1023 7
	movq	%rax, %rdx
	movl	$0, %esi
	movl	$0, %edi
	movl	$0, %eax
	call	error@PLT
	.loc 2 1025 7
	movl	$1, %edi
	call	usage
.L153:
	.loc 2 1028 14
	movzbl	strict(%rip), %eax
	movzbl	%al, %edx
	.loc 2 1028 16
	movzbl	-128(%rbp), %eax
	xorl	$1, %eax
	movzbl	%al, %eax
	.loc 2 1028 14
	andl	%edx, %eax
	.loc 2 1028 6
	testl	%eax, %eax
	je	.L154
	.loc 2 1031 9
	leaq	.LC78(%rip), %rdi
	call	gettext@PLT
	.loc 2 1030 6
	movq	%rax, %rdx
	movl	$0, %esi
	movl	$0, %edi
	movl	$0, %eax
	call	error@PLT
	.loc 2 1032 6
	movl	$1, %edi
	call	usage
.L154:
	.loc 2 1035 6
	cmpl	$0, -120(%rbp)
	jns	.L155
	.loc 2 1036 12
	movl	$0, -120(%rbp)
.L155:
	.loc 2 1038 29
	movl	-148(%rbp), %eax
	cltq
	leaq	0(,%rax,8), %rdx
	.loc 2 1038 10
	movq	-160(%rbp), %rax
	addq	%rdx, %rax
	movq	%rax, -112(%rbp)
	.loc 2 1039 14
	movl	optind(%rip), %eax
	.loc 2 1039 6
	cmpl	%eax, -148(%rbp)
	jne	.L156
	.loc 2 1040 17
	movq	-112(%rbp), %rbx
	leaq	8(%rbx), %rax
	movq	%rax, -112(%rbp)
	.loc 2 1040 22
	leaq	.LC46(%rip), %rdi
	call	bad_cast
	.loc 2 1040 20
	movq	%rax, (%rbx)
.L156:
.LBB9:
	.loc 2 1042 31
	movl	optind(%rip), %eax
	cltq
	leaq	0(,%rax,8), %rdx
	.loc 2 1042 15
	movq	-160(%rbp), %rax
	addq	%rdx, %rax
	movq	%rax, -104(%rbp)
	.loc 2 1042 3
	jmp	.L157
.L173:
.LBB10:
	.loc 2 1044 13
	movq	-104(%rbp), %rax
	movq	(%rax), %rax
	movq	%rax, -72(%rbp)
	.loc 2 1046 10
	cmpb	$0, -128(%rbp)
	je	.L158
	.loc 2 1047 15
	movq	-72(%rbp), %rax
	movq	%rax, %rdi
	call	digest_check
	.loc 2 1047 12
	movzbl	-127(%rbp), %edx
	.loc 2 1047 15
	movzbl	%al, %eax
	.loc 2 1047 12
	andl	%edx, %eax
	testl	%eax, %eax
	setne	%al
	movb	%al, -127(%rbp)
	jmp	.L159
.L158:
.LBB11:
	.loc 2 1050 15
	movl	-120(%rbp), %eax
	movl	%eax, -124(%rbp)
	.loc 2 1053 17
	leaq	-129(%rbp), %rcx
	movq	-88(%rbp), %rdx
	leaq	-124(%rbp), %rsi
	movq	-72(%rbp), %rax
	movq	%rax, %rdi
	call	digest_file
	.loc 2 1053 15
	xorl	$1, %eax
	.loc 2 1053 14
	testb	%al, %al
	je	.L160
	.loc 2 1054 16
	movb	$0, -127(%rbp)
	jmp	.L159
.L160:
.LBB12:
	.loc 2 1064 36
	movq	-72(%rbp), %rax
	movl	$92, %esi
	movq	%rax, %rdi
	call	strchr@PLT
	.loc 2 1065 35
	testq	%rax, %rax
	jne	.L162
	.loc 2 1064 59
	movq	-72(%rbp), %rax
	movl	$10, %esi
	movq	%rax, %rdi
	call	strchr@PLT
	.loc 2 1064 56
	testq	%rax, %rax
	je	.L163
.L162:
	.loc 2 1065 44 discriminator 1
	movzbl	delim(%rip), %eax
	.loc 2 1065 35 discriminator 1
	cmpb	$10, %al
	jne	.L163
	.loc 2 1065 35 is_stmt 0 discriminator 2
	movl	$1, %eax
	jmp	.L164
.L163:
	.loc 2 1065 35 discriminator 3
	movl	$0, %eax
.L164:
	.loc 2 1064 20 is_stmt 1
	movb	%al, -125(%rbp)
	andb	$1, -125(%rbp)
	.loc 2 1067 18
	cmpb	$0, -126(%rbp)
	je	.L165
	.loc 2 1069 22
	cmpb	$0, -125(%rbp)
	je	.L166
	.loc 2 1070 21
	movl	$92, %edi
	call	putchar_unlocked@PLT
.L166:
	.loc 2 1077 19
	movq	stdout(%rip), %rax
	movq	%rax, %rcx
	movl	$6, %edx
	movl	$1, %esi
	leaq	.LC33(%rip), %rdi
	call	fwrite_unlocked@PLT
	.loc 2 1079 19
	movq	stdout(%rip), %rax
	movq	%rax, %rcx
	movl	$2, %edx
	movl	$1, %esi
	leaq	.LC79(%rip), %rdi
	call	fwrite_unlocked@PLT
	.loc 2 1080 19
	movzbl	-125(%rbp), %edx
	movq	-72(%rbp), %rax
	movl	%edx, %esi
	movq	%rax, %rdi
	call	print_filename
	.loc 2 1081 19
	movq	stdout(%rip), %rax
	movq	%rax, %rcx
	movl	$4, %edx
	movl	$1, %esi
	leaq	.LC80(%rip), %rdi
	call	fwrite_unlocked@PLT
.L165:
	.loc 2 1086 19
	movzbl	-126(%rbp), %eax
	xorl	$1, %eax
	.loc 2 1086 18
	testb	%al, %al
	je	.L167
	.loc 2 1086 31 discriminator 1
	cmpb	$0, -125(%rbp)
	je	.L167
	.loc 2 1087 17
	movl	$92, %edi
	call	putchar_unlocked@PLT
.L167:
.LBB13:
	.loc 2 1089 27
	movq	$0, -96(%rbp)
	.loc 2 1089 15
	jmp	.L168
.L169:
	.loc 2 1090 43 discriminator 3
	movq	-88(%rbp), %rdx
	movq	-96(%rbp), %rax
	addq	%rdx, %rax
	movzbl	(%rax), %eax
	.loc 2 1090 17 discriminator 3
	movzbl	%al, %eax
	movl	%eax, %esi
	leaq	.LC81(%rip), %rdi
	movl	$0, %eax
	call	printf@PLT
	.loc 2 1089 62 discriminator 3
	addq	$1, -96(%rbp)
.L168:
	.loc 2 1089 56 discriminator 1
	movq	digest_hex_bytes(%rip), %rax
	shrq	%rax
	.loc 2 1089 15 discriminator 1
	cmpq	%rax, -96(%rbp)
	jb	.L169
.LBE13:
	.loc 2 1092 19
	movzbl	-126(%rbp), %eax
	xorl	$1, %eax
	.loc 2 1092 18
	testb	%al, %al
	je	.L170
	.loc 2 1094 19
	movl	$32, %edi
	call	putchar_unlocked@PLT
	.loc 2 1096 19
	movl	-124(%rbp), %eax
	testl	%eax, %eax
	je	.L171
	.loc 2 1096 19 is_stmt 0 discriminator 1
	movl	$42, %eax
	jmp	.L172
.L171:
	.loc 2 1096 19 discriminator 2
	movl	$32, %eax
.L172:
	.loc 2 1096 19 discriminator 4
	movl	%eax, %edi
	call	putchar_unlocked@PLT
	.loc 2 1098 19 is_stmt 1 discriminator 4
	movzbl	-125(%rbp), %edx
	movq	-72(%rbp), %rax
	movl	%edx, %esi
	movq	%rax, %rdi
	call	print_filename
.L170:
	.loc 2 1101 15
	movzbl	delim(%rip), %eax
	movzbl	%al, %eax
	movl	%eax, %edi
	call	putchar_unlocked@PLT
.L159:
.LBE12:
.LBE11:
.LBE10:
	.loc 2 1042 73 discriminator 2
	addq	$8, -104(%rbp)
.L157:
	.loc 2 1042 3 discriminator 1
	movq	-104(%rbp), %rax
	cmpq	-112(%rbp), %rax
	jb	.L173
.LBE9:
	.loc 2 1106 7
	movzbl	have_read_stdin(%rip), %eax
	.loc 2 1106 6
	testb	%al, %al
	je	.L174
	.loc 2 1106 26 discriminator 1
	movq	stdin(%rip), %rax
	movq	%rax, %rdi
	call	rpl_fclose@PLT
	.loc 2 1106 23 discriminator 1
	cmpl	$-1, %eax
	jne	.L174
.LBB14:
	.loc 2 1107 5
	leaq	.LC49(%rip), %rdi
	call	gettext@PLT
	movq	%rax, %rbx
	call	__errno_location@PLT
	movl	(%rax), %eax
	movq	%rbx, %rdx
	movl	%eax, %esi
	movl	$1, %edi
	movl	$0, %eax
	call	error@PLT
.L174:
.LBE14:
	.loc 2 1109 28
	movzbl	-127(%rbp), %eax
	xorl	$1, %eax
	movzbl	%al, %eax
	.loc 2 1110 1
	movq	-24(%rbp), %rbx
	xorq	%fs:40, %rbx
	je	.L176
	call	__stack_chk_fail@PLT
.L176:
	movq	-8(%rbp), %rbx
	leave
	.cfi_def_cfa 7, 8
	ret
	.cfi_endproc
.LFE58:
	.size	main, .-main
	.section	.rodata
	.align 16
	.type	bin2hex.6525, @object
	.size	bin2hex.6525, 16
bin2hex.6525:
	.ascii	"0123456789abcdef"
	.text
.Letext0:
	.file 3 "/usr/include/x86_64-linux-gnu/bits/getopt_core.h"
	.file 4 "/usr/include/x86_64-linux-gnu/bits/getopt_ext.h"
	.file 5 "/usr/include/x86_64-linux-gnu/bits/types.h"
	.file 6 "/usr/include/x86_64-linux-gnu/sys/types.h"
	.file 7 "/usr/include/x86_64-linux-gnu/bits/types/time_t.h"
	.file 8 "/usr/lib/gcc/x86_64-linux-gnu/9/include/stddef.h"
	.file 9 "./lib/sys/select.h"
	.file 10 "/usr/include/time.h"
	.file 11 "/usr/include/signal.h"
	.file 12 "/usr/include/unistd.h"
	.file 13 "/usr/include/errno.h"
	.file 14 "src/version.h"
	.file 15 "./lib/exitfail.h"
	.file 16 "/usr/include/stdint.h"
	.file 17 "./lib/timespec.h"
	.file 18 "/usr/include/ctype.h"
	.file 19 "/usr/include/x86_64-linux-gnu/bits/types/struct_FILE.h"
	.file 20 "/usr/include/x86_64-linux-gnu/bits/types/FILE.h"
	.file 21 "/usr/include/stdio.h"
	.file 22 "/usr/include/x86_64-linux-gnu/bits/sys_errlist.h"
	.file 23 "./lib/version-etc.h"
	.file 24 "./lib/progname.h"
	.file 25 "./lib/quotearg.h"
	.file 26 "./lib/quote.h"
	.file 27 "./lib/argmatch.h"
	.file 28 "./lib/error.h"
	.file 29 "./lib/fadvise.h"
	.section	.note.GNU-stack,"",@progbits
	.section	.note.gnu.property,"a"
	.align 8
	.long	 1f - 0f
	.long	 4f - 1f
	.long	 5
0:
	.string	 "GNU"
1:
	.align 8
	.long	 0xc0000002
	.long	 3f - 2f
2:
	.long	 0x3
3:
	.align 8
4:
