	.file	"sort.c"
	.text
.Ltext0:
	.type	initialize_exit_failure, @function
initialize_exit_failure:
.LFB6:
	.file 1 "src/system.h"
	.loc 1 100 1
	.cfi_startproc
	pushq	%rbp
	.cfi_def_cfa_offset 16
	.cfi_offset 6, -16
	movq	%rsp, %rbp
	.cfi_def_cfa_register 6
	movl	%edi, -4(%rbp)
	.loc 1 101 6
	cmpl	$1, -4(%rbp)
	je	.L3
	.loc 1 102 18
	movl	-4(%rbp), %eax
	movl	%eax, exit_failure(%rip)
.L3:
	.loc 1 103 1
	nop
	popq	%rbp
	.cfi_def_cfa 7, 8
	ret
	.cfi_endproc
.LFE6:
	.size	initialize_exit_failure, .-initialize_exit_failure
	.type	to_uchar, @function
to_uchar:
.LFB11:
	.loc 1 156 48
	.cfi_startproc
	pushq	%rbp
	.cfi_def_cfa_offset 16
	.cfi_offset 6, -16
	movq	%rsp, %rbp
	.cfi_def_cfa_register 6
	movl	%edi, %eax
	movb	%al, -4(%rbp)
	.loc 1 156 57
	movzbl	-4(%rbp), %eax
	.loc 1 156 61
	popq	%rbp
	.cfi_def_cfa 7, 8
	ret
	.cfi_endproc
.LFE11:
	.size	to_uchar, .-to_uchar
	.type	field_sep, @function
field_sep:
.LFB12:
	.loc 1 161 1
	.cfi_startproc
	pushq	%rbp
	.cfi_def_cfa_offset 16
	.cfi_offset 6, -16
	movq	%rsp, %rbp
	.cfi_def_cfa_register 6
	subq	$16, %rsp
	movl	%edi, %eax
	movb	%al, -4(%rbp)
	.loc 1 162 10
	call	__ctype_b_loc@PLT
	movq	(%rax), %rax
	movzbl	-4(%rbp), %edx
	addq	%rdx, %rdx
	addq	%rdx, %rax
	movzwl	(%rax), %eax
	movzwl	%ax, %eax
	andl	$1, %eax
	.loc 1 162 23
	testl	%eax, %eax
	jne	.L7
	.loc 1 162 23 is_stmt 0 discriminator 2
	cmpb	$10, -4(%rbp)
	jne	.L8
.L7:
	.loc 1 162 23 discriminator 3
	movl	$1, %eax
	jmp	.L9
.L8:
	.loc 1 162 23 discriminator 4
	movl	$0, %eax
.L9:
	.loc 1 162 23 discriminator 6
	andl	$1, %eax
	.loc 1 163 1 is_stmt 1 discriminator 6
	leave
	.cfi_def_cfa 7, 8
	ret
	.cfi_endproc
.LFE12:
	.size	field_sep, .-field_sep
	.type	select_plural, @function
select_plural:
.LFB17:
	.loc 1 184 1
	.cfi_startproc
	pushq	%rbp
	.cfi_def_cfa_offset 16
	.cfi_offset 6, -16
	movq	%rsp, %rbp
	.cfi_def_cfa_register 6
	movq	%rdi, -8(%rbp)
	.loc 1 188 30
	movq	-8(%rbp), %rax
	.loc 1 189 1
	popq	%rbp
	.cfi_def_cfa 7, 8
	ret
	.cfi_endproc
.LFE17:
	.size	select_plural, .-select_plural
	.section	.rodata
	.align 8
.LC0:
	.string	"\nWith no FILE, or when FILE is -, read standard input.\n"
	.text
	.type	emit_stdin_note, @function
emit_stdin_note:
.LFB35:
	.loc 1 582 1
	.cfi_startproc
	pushq	%rbp
	.cfi_def_cfa_offset 16
	.cfi_offset 6, -16
	movq	%rsp, %rbp
	.cfi_def_cfa_register 6
	pushq	%rbx
	subq	$8, %rsp
	.cfi_offset 3, -24
	.loc 1 583 3
	movq	stdout(%rip), %rbx
	leaq	.LC0(%rip), %rdi
	call	gettext@PLT
	movq	%rbx, %rsi
	movq	%rax, %rdi
	call	fputs_unlocked@PLT
	.loc 1 586 1
	nop
	addq	$8, %rsp
	popq	%rbx
	popq	%rbp
	.cfi_def_cfa 7, 8
	ret
	.cfi_endproc
.LFE35:
	.size	emit_stdin_note, .-emit_stdin_note
	.section	.rodata
	.align 8
.LC1:
	.string	"\nMandatory arguments to long options are mandatory for short options too.\n"
	.text
	.type	emit_mandatory_arg_note, @function
emit_mandatory_arg_note:
.LFB36:
	.loc 1 589 1
	.cfi_startproc
	pushq	%rbp
	.cfi_def_cfa_offset 16
	.cfi_offset 6, -16
	movq	%rsp, %rbp
	.cfi_def_cfa_register 6
	pushq	%rbx
	subq	$8, %rsp
	.cfi_offset 3, -24
	.loc 1 590 3
	movq	stdout(%rip), %rbx
	leaq	.LC1(%rip), %rdi
	call	gettext@PLT
	movq	%rbx, %rsi
	movq	%rax, %rdi
	call	fputs_unlocked@PLT
	.loc 1 593 1
	nop
	addq	$8, %rsp
	popq	%rbx
	popq	%rbp
	.cfi_def_cfa 7, 8
	ret
	.cfi_endproc
.LFE36:
	.size	emit_mandatory_arg_note, .-emit_mandatory_arg_note
	.section	.rodata
.LC2:
	.string	"["
.LC3:
	.string	"test invocation"
.LC4:
	.string	"coreutils"
.LC5:
	.string	"Multi-call invocation"
.LC6:
	.string	"sha224sum"
.LC7:
	.string	"sha2 utilities"
.LC8:
	.string	"sha256sum"
.LC9:
	.string	"sha384sum"
.LC10:
	.string	"sha512sum"
.LC11:
	.string	"\n%s online help: <%s>\n"
	.align 8
.LC12:
	.string	"https://www.gnu.org/software/coreutils/"
.LC13:
	.string	"GNU coreutils"
.LC14:
	.string	"en_"
	.align 8
.LC15:
	.string	"Report any translation bugs to <https://translationproject.org/team/>\n"
.LC16:
	.string	"Full documentation <%s%s>\n"
.LC17:
	.string	" invocation"
.LC18:
	.string	""
	.align 8
.LC19:
	.string	"or available locally via: info '(coreutils) %s%s'\n"
	.text
	.type	emit_ancillary_info, @function
emit_ancillary_info:
.LFB40:
	.loc 1 635 1
	.cfi_startproc
	pushq	%rbp
	.cfi_def_cfa_offset 16
	.cfi_offset 6, -16
	movq	%rsp, %rbp
	.cfi_def_cfa_register 6
	pushq	%rbx
	subq	$184, %rsp
	.cfi_offset 3, -24
	movq	%rdi, -184(%rbp)
	.loc 1 635 1
	movq	%fs:40, %rax
	movq	%rax, -24(%rbp)
	xorl	%eax, %eax
	.loc 1 636 67
	leaq	.LC2(%rip), %rax
	movq	%rax, -144(%rbp)
	leaq	.LC3(%rip), %rax
	movq	%rax, -136(%rbp)
	leaq	.LC4(%rip), %rax
	movq	%rax, -128(%rbp)
	leaq	.LC5(%rip), %rax
	movq	%rax, -120(%rbp)
	leaq	.LC6(%rip), %rax
	movq	%rax, -112(%rbp)
	leaq	.LC7(%rip), %rax
	movq	%rax, -104(%rbp)
	leaq	.LC8(%rip), %rax
	movq	%rax, -96(%rbp)
	leaq	.LC7(%rip), %rax
	movq	%rax, -88(%rbp)
	leaq	.LC9(%rip), %rax
	movq	%rax, -80(%rbp)
	leaq	.LC7(%rip), %rax
	movq	%rax, -72(%rbp)
	leaq	.LC10(%rip), %rax
	movq	%rax, -64(%rbp)
	leaq	.LC7(%rip), %rax
	movq	%rax, -56(%rbp)
	movq	$0, -48(%rbp)
	movq	$0, -40(%rbp)
	.loc 1 646 15
	movq	-184(%rbp), %rax
	movq	%rax, -168(%rbp)
	.loc 1 647 25
	leaq	-144(%rbp), %rax
	movq	%rax, -160(%rbp)
	.loc 1 649 9
	jmp	.L16
.L18:
	.loc 1 650 13
	addq	$16, -160(%rbp)
.L16:
	.loc 1 649 18
	movq	-160(%rbp), %rax
	movq	(%rax), %rax
	.loc 1 649 9
	testq	%rax, %rax
	je	.L17
	.loc 1 649 33 discriminator 1
	movq	-160(%rbp), %rax
	movq	(%rax), %rdx
	movq	-184(%rbp), %rax
	movq	%rdx, %rsi
	movq	%rax, %rdi
	call	strcmp@PLT
	.loc 1 649 28 discriminator 1
	testl	%eax, %eax
	jne	.L18
.L17:
	.loc 1 652 15
	movq	-160(%rbp), %rax
	movq	8(%rax), %rax
	.loc 1 652 6
	testq	%rax, %rax
	je	.L19
	.loc 1 653 10
	movq	-160(%rbp), %rax
	movq	8(%rax), %rax
	movq	%rax, -168(%rbp)
.L19:
	.loc 1 655 11
	leaq	.LC11(%rip), %rdi
	call	gettext@PLT
	.loc 1 655 3
	leaq	.LC12(%rip), %rdx
	leaq	.LC13(%rip), %rsi
	movq	%rax, %rdi
	movl	$0, %eax
	call	printf@PLT
	.loc 1 659 29
	movl	$0, %esi
	movl	$5, %edi
	call	setlocale@PLT
	movq	%rax, -152(%rbp)
	.loc 1 660 6
	cmpq	$0, -152(%rbp)
	je	.L20
	.loc 1 660 22 discriminator 1
	movq	-152(%rbp), %rax
	movl	$3, %edx
	leaq	.LC14(%rip), %rsi
	movq	%rax, %rdi
	call	strncmp@PLT
	.loc 1 660 19 discriminator 1
	testl	%eax, %eax
	je	.L20
	.loc 1 666 7
	movq	stdout(%rip), %rbx
	leaq	.LC15(%rip), %rdi
	call	gettext@PLT
	movq	%rbx, %rsi
	movq	%rax, %rdi
	call	fputs_unlocked@PLT
.L20:
	.loc 1 669 11
	leaq	.LC16(%rip), %rdi
	call	gettext@PLT
	movq	%rax, %rcx
	.loc 1 669 3
	movq	-184(%rbp), %rax
	movq	%rax, %rdx
	leaq	.LC12(%rip), %rsi
	movq	%rcx, %rdi
	movl	$0, %eax
	call	printf@PLT
	.loc 1 671 3
	movq	-168(%rbp), %rax
	cmpq	-184(%rbp), %rax
	jne	.L21
	.loc 1 671 3 is_stmt 0 discriminator 1
	leaq	.LC17(%rip), %rbx
	jmp	.L22
.L21:
	.loc 1 671 3 discriminator 2
	leaq	.LC18(%rip), %rbx
.L22:
	.loc 1 671 11 is_stmt 1 discriminator 4
	leaq	.LC19(%rip), %rdi
	call	gettext@PLT
	movq	%rax, %rcx
	.loc 1 671 3 discriminator 4
	movq	-168(%rbp), %rax
	movq	%rbx, %rdx
	movq	%rax, %rsi
	movq	%rcx, %rdi
	movl	$0, %eax
	call	printf@PLT
	.loc 1 673 1 discriminator 4
	nop
	movq	-24(%rbp), %rax
	xorq	%fs:40, %rax
	je	.L23
	.loc 1 673 1 is_stmt 0
	call	__stack_chk_fail@PLT
.L23:
	addq	$184, %rsp
	popq	%rbx
	popq	%rbp
	.cfi_def_cfa 7, 8
	ret
	.cfi_endproc
.LFE40:
	.size	emit_ancillary_info, .-emit_ancillary_info
	.local	decimal_point
	.comm	decimal_point,4,4
	.local	thousands_sep
	.comm	thousands_sep,4,4
	.local	hard_LC_COLLATE
	.comm	hard_LC_COLLATE,1,1
	.local	hard_LC_TIME
	.comm	hard_LC_TIME,1,1
	.data
	.type	eolchar, @object
	.size	eolchar, 1
eolchar:
	.byte	10
	.local	saved_line
	.comm	saved_line,32,32
	.local	blanks
	.comm	blanks,256,32
	.local	nonprinting
	.comm	nonprinting,256,32
	.local	nondictionary
	.comm	nondictionary,256,32
	.local	fold_toupper
	.comm	fold_toupper,256,32
	.section	.rodata
.LC20:
	.string	"APR"
.LC21:
	.string	"AUG"
.LC22:
	.string	"DEC"
.LC23:
	.string	"FEB"
.LC24:
	.string	"JAN"
.LC25:
	.string	"JUL"
.LC26:
	.string	"JUN"
.LC27:
	.string	"MAR"
.LC28:
	.string	"MAY"
.LC29:
	.string	"NOV"
.LC30:
	.string	"OCT"
.LC31:
	.string	"SEP"
	.section	.data.rel.local,"aw"
	.align 32
	.type	monthtab, @object
	.size	monthtab, 192
monthtab:
	.quad	.LC20
	.long	4
	.zero	4
	.quad	.LC21
	.long	8
	.zero	4
	.quad	.LC22
	.long	12
	.zero	4
	.quad	.LC23
	.long	2
	.zero	4
	.quad	.LC24
	.long	1
	.zero	4
	.quad	.LC25
	.long	7
	.zero	4
	.quad	.LC26
	.long	6
	.zero	4
	.quad	.LC27
	.long	3
	.zero	4
	.quad	.LC28
	.long	5
	.zero	4
	.quad	.LC29
	.long	11
	.zero	4
	.quad	.LC30
	.long	10
	.zero	4
	.quad	.LC31
	.long	9
	.zero	4
	.data
	.align 8
	.type	merge_buffer_size, @object
	.size	merge_buffer_size, 8
merge_buffer_size:
	.quad	262144
	.local	sort_size
	.comm	sort_size,8,8
	.local	temp_dirs
	.comm	temp_dirs,8,8
	.local	temp_dir_count
	.comm	temp_dir_count,8,8
	.local	temp_dir_alloc
	.comm	temp_dir_alloc,8,8
	.local	reverse
	.comm	reverse,1,1
	.local	stable
	.comm	stable,1,1
	.align 4
	.type	tab, @object
	.size	tab, 4
tab:
	.long	128
	.local	unique
	.comm	unique,1,1
	.local	have_read_stdin
	.comm	have_read_stdin,1,1
	.local	keylist
	.comm	keylist,8,8
	.local	compress_program
	.comm	compress_program,8,8
	.local	debug
	.comm	debug,1,1
	.align 4
	.type	nmerge, @object
	.size	nmerge, 4
nmerge:
	.long	16
	.section	.rodata
.LC32:
	.string	": errno "
.LC33:
	.string	"\n"
	.text
	.type	async_safe_die, @function
async_safe_die:
.LFB46:
	.file 2 "src/sort.c"
	.loc 2 376 1 is_stmt 1
	.cfi_startproc
	endbr64
	pushq	%rbp
	.cfi_def_cfa_offset 16
	.cfi_offset 6, -16
	movq	%rsp, %rbp
	.cfi_def_cfa_register 6
	subq	$80, %rsp
	movl	%edi, -68(%rbp)
	movq	%rsi, -80(%rbp)
	.loc 2 376 1
	movq	%fs:40, %rax
	movq	%rax, -8(%rbp)
	xorl	%eax, %eax
.LBB2:
	.loc 2 377 3
	movq	-80(%rbp), %rax
	movq	%rax, %rdi
	call	strlen@PLT
	movq	%rax, %rdx
	movq	-80(%rbp), %rax
	movq	%rax, %rsi
	movl	$2, %edi
	call	write@PLT
	movq	%rax, -64(%rbp)
.LBE2:
	.loc 2 384 6
	cmpl	$0, -68(%rbp)
	je	.L25
.LBB3:
	.loc 2 387 17
	leaq	-20(%rbp), %rdx
	movl	-68(%rbp), %eax
	movq	%rdx, %rsi
	movl	%eax, %edi
	call	inttostr@PLT
	movq	%rax, -56(%rbp)
.LBB4:
	.loc 2 388 7
	movl	$8, %edx
	leaq	.LC32(%rip), %rsi
	movl	$2, %edi
	call	write@PLT
	movq	%rax, -48(%rbp)
.LBE4:
.LBB5:
	.loc 2 389 7
	movq	-56(%rbp), %rax
	movq	%rax, %rdi
	call	strlen@PLT
	movq	%rax, %rdx
	movq	-56(%rbp), %rax
	movq	%rax, %rsi
	movl	$2, %edi
	call	write@PLT
	movq	%rax, -40(%rbp)
.L25:
.LBE5:
.LBE3:
.LBB6:
	.loc 2 392 3
	movl	$1, %edx
	leaq	.LC33(%rip), %rsi
	movl	$2, %edi
	call	write@PLT
	movq	%rax, -32(%rbp)
.LBE6:
	.loc 2 394 3
	movl	$2, %edi
	call	_exit@PLT
	.cfi_endproc
.LFE46:
	.size	async_safe_die, .-async_safe_die
	.section	.rodata
.LC34:
	.string	"standard output"
.LC35:
	.string	"%s: %s"
	.text
	.type	sort_die, @function
sort_die:
.LFB47:
	.loc 2 403 1
	.cfi_startproc
	endbr64
	pushq	%rbp
	.cfi_def_cfa_offset 16
	.cfi_offset 6, -16
	movq	%rsp, %rbp
	.cfi_def_cfa_register 6
	pushq	%rbx
	subq	$24, %rsp
	.cfi_offset 3, -24
	movq	%rdi, -24(%rbp)
	movq	%rsi, -32(%rbp)
	.loc 2 404 3
	cmpq	$0, -32(%rbp)
	jne	.L28
	.loc 2 404 3 is_stmt 0 discriminator 1
	leaq	.LC34(%rip), %rdi
	call	gettext@PLT
	jmp	.L29
.L28:
	.loc 2 404 3 discriminator 2
	movq	-32(%rbp), %rax
.L29:
	.loc 2 404 3 discriminator 4
	movq	%rax, %rdx
	movl	$3, %esi
	movl	$0, %edi
	call	quotearg_n_style_colon@PLT
	movq	%rax, %rbx
	call	__errno_location@PLT
	movl	(%rax), %eax
	movq	-24(%rbp), %rdx
	movq	%rbx, %r8
	movq	%rdx, %rcx
	leaq	.LC35(%rip), %rdx
	movl	%eax, %esi
	movl	$2, %edi
	movl	$0, %eax
	call	error@PLT
	.cfi_endproc
.LFE47:
	.size	sort_die, .-sort_die
	.section	.rodata
	.align 8
.LC36:
	.string	"Try '%s --help' for more information.\n"
	.align 8
.LC37:
	.string	"Usage: %s [OPTION]... [FILE]...\n  or:  %s [OPTION]... --files0-from=F\n"
	.align 8
.LC38:
	.string	"Write sorted concatenation of all FILE(s) to standard output.\n"
.LC39:
	.string	"Ordering options:\n\n"
	.align 8
.LC40:
	.string	"  -b, --ignore-leading-blanks  ignore leading blanks\n  -d, --dictionary-order      consider only blanks and alphanumeric characters\n  -f, --ignore-case           fold lower case to upper case characters\n"
	.align 8
.LC41:
	.string	"  -g, --general-numeric-sort  compare according to general numerical value\n  -i, --ignore-nonprinting    consider only printable characters\n  -M, --month-sort            compare (unknown) < 'JAN' < ... < 'DEC'\n"
	.align 8
.LC42:
	.string	"  -h, --human-numeric-sort    compare human readable numbers (e.g., 2K 1G)\n"
	.align 8
.LC43:
	.ascii	"  -n, --numeric-s"
	.string	"ort          compare according to string numerical value\n  -R, --random-sort           shuffle, but group identical keys.  See shuf(1)\n      --random-source=FILE    get random bytes from FILE\n  -r, --reverse               reverse the result of comparisons\n"
	.align 8
.LC44:
	.ascii	"      --sort=WORD    "
	.string	"         sort according to WORD:\n                                general-numeric -g, human-numeric -h, month -M,\n                                numeric -n, random -R, version -V\n  -V, --version-sort          natural sort of (version) numbers within text\n\n"
.LC45:
	.string	"Other options:\n\n"
	.align 8
.LC46:
	.string	"      --batch-size=NMERGE   merge at most NMERGE inputs at once;\n                            for more use temp files\n"
	.align 8
.LC47:
	.ascii	"  -c, --check, --che"
	.string	"ck=diagnose-first  check for sorted input; do not sort\n  -C, --check=quiet, --check=silent  like -c, but do not report first bad line\n      --compress-program=PROG  compress temporaries with PROG;\n                              decompress them with PROG -d\n"
	.align 8
.LC48:
	.ascii	"      --debug               annotate the part of the line us"
	.ascii	"ed to sort,\n                   "
	.string	"           and warn about questionable usage to stderr\n      --files0-from=F       read input from the files specified by\n                            NUL-terminated names in file F;\n                            If F is - then read names from standard input\n"
	.align 8
.LC49:
	.string	"  -k, --key=KEYDEF          sort via a key; KEYDEF gives location and type\n  -m, --merge               merge already sorted files; do not sort\n"
	.align 8
.LC50:
	.string	"  -o, --output=FILE         write result to FILE instead of standard output\n  -s, --stable              stabilize sort by disabling last-resort comparison\n  -S, --buffer-size=SIZE    use SIZE for main memory buffer\n"
	.align 8
.LC51:
	.ascii	"  -t, --field-separator=SEP  use SEP instead of non-blank to"
	.ascii	" blank transition\n  -T, --temporary-directory=DIR  use DIR "
	.ascii	"for temporaries, not $TMPDIR or %s;\n                       "
	.ascii	"       multiple op"
	.string	"tions specify multiple directories\n      --parallel=N          change the number of sorts run concurrently to N\n  -u, --unique              with -c, check for strict ordering;\n                              without -c, output only the first of an equal run\n"
.LC52:
	.string	"/tmp"
	.align 8
.LC53:
	.string	"  -z, --zero-terminated     line delimiter is NUL, not newline\n"
	.align 8
.LC54:
	.string	"      --help     display this help and exit\n"
	.align 8
.LC55:
	.string	"      --version  output version information and exit\n"
	.align 8
.LC56:
	.ascii	"\nKEYDEF is F[.C][OPTS][,F[.C][OPTS]] for start and stop pos"
	.ascii	"ition, where F is a\nfield number and C a character position"
	.ascii	" in the field; both are origin 1, and\nthe stop position def"
	.ascii	"aults to the line's end.  If neither -t nor -b is in\neffect"
	.ascii	", characters in a field are counted from the beginning of th"
	.ascii	"e preceding\nwhitespace.  OPTS is one or more single"
	.string	"-letter ordering options [bdfgiMhnRrV],\nwhich override global ordering options for that key.  If no key is given, use\nthe entire line as the key.  Use --debug to diagnose incorrect key usage.\n\nSIZE may be followed by the following multiplicative suffixes:\n"
	.align 8
.LC57:
	.string	"% 1% of memory, b 1, K 1024 (default), and so on for M, G, T, P, E, Z, Y.\n\n*** WARNING ***\nThe locale specified by the environment affects sort order.\nSet LC_ALL=C to get the traditional sort order that uses\nnative byte values.\n"
.LC58:
	.string	"sort"
	.text
	.globl	usage
	.type	usage, @function
usage:
.LFB48:
	.loc 2 410 1 is_stmt 1
	.cfi_startproc
	endbr64
	pushq	%rbp
	.cfi_def_cfa_offset 16
	.cfi_offset 6, -16
	movq	%rsp, %rbp
	.cfi_def_cfa_register 6
	pushq	%r12
	pushq	%rbx
	subq	$16, %rsp
	.cfi_offset 12, -24
	.cfi_offset 3, -32
	movl	%edi, -20(%rbp)
	.loc 2 411 6
	cmpl	$0, -20(%rbp)
	je	.L31
	.loc 2 412 5
	movq	program_name(%rip), %rbx
	leaq	.LC36(%rip), %rdi
	call	gettext@PLT
	movq	%rax, %rcx
	movq	stderr(%rip), %rax
	movq	%rbx, %rdx
	movq	%rcx, %rsi
	movq	%rax, %rdi
	movl	$0, %eax
	call	fprintf@PLT
	jmp	.L32
.L31:
	.loc 2 415 7
	movq	program_name(%rip), %r12
	movq	program_name(%rip), %rbx
	.loc 2 415 15
	leaq	.LC37(%rip), %rdi
	call	gettext@PLT
	.loc 2 415 7
	movq	%r12, %rdx
	movq	%rbx, %rsi
	movq	%rax, %rdi
	movl	$0, %eax
	call	printf@PLT
	.loc 2 420 7
	movq	stdout(%rip), %rbx
	leaq	.LC38(%rip), %rdi
	call	gettext@PLT
	movq	%rbx, %rsi
	movq	%rax, %rdi
	call	fputs_unlocked@PLT
	.loc 2 424 7
	call	emit_stdin_note
	.loc 2 425 7
	call	emit_mandatory_arg_note
	.loc 2 427 7
	movq	stdout(%rip), %rbx
	leaq	.LC39(%rip), %rdi
	call	gettext@PLT
	movq	%rbx, %rsi
	movq	%rax, %rdi
	call	fputs_unlocked@PLT
	.loc 2 431 7
	movq	stdout(%rip), %rbx
	leaq	.LC40(%rip), %rdi
	call	gettext@PLT
	movq	%rbx, %rsi
	movq	%rax, %rdi
	call	fputs_unlocked@PLT
	.loc 2 437 7
	movq	stdout(%rip), %rbx
	leaq	.LC41(%rip), %rdi
	call	gettext@PLT
	movq	%rbx, %rsi
	movq	%rax, %rdi
	call	fputs_unlocked@PLT
	.loc 2 442 7
	movq	stdout(%rip), %rbx
	leaq	.LC42(%rip), %rdi
	call	gettext@PLT
	movq	%rbx, %rsi
	movq	%rax, %rdi
	call	fputs_unlocked@PLT
	.loc 2 445 7
	movq	stdout(%rip), %rbx
	leaq	.LC43(%rip), %rdi
	call	gettext@PLT
	movq	%rbx, %rsi
	movq	%rax, %rdi
	call	fputs_unlocked@PLT
	.loc 2 451 7
	movq	stdout(%rip), %rbx
	leaq	.LC44(%rip), %rdi
	call	gettext@PLT
	movq	%rbx, %rsi
	movq	%rax, %rdi
	call	fputs_unlocked@PLT
	.loc 2 459 7
	movq	stdout(%rip), %rbx
	leaq	.LC45(%rip), %rdi
	call	gettext@PLT
	movq	%rbx, %rsi
	movq	%rax, %rdi
	call	fputs_unlocked@PLT
	.loc 2 463 7
	movq	stdout(%rip), %rbx
	leaq	.LC46(%rip), %rdi
	call	gettext@PLT
	movq	%rbx, %rsi
	movq	%rax, %rdi
	call	fputs_unlocked@PLT
	.loc 2 467 7
	movq	stdout(%rip), %rbx
	leaq	.LC47(%rip), %rdi
	call	gettext@PLT
	movq	%rbx, %rsi
	movq	%rax, %rdi
	call	fputs_unlocked@PLT
	.loc 2 474 7
	movq	stdout(%rip), %rbx
	leaq	.LC48(%rip), %rdi
	call	gettext@PLT
	movq	%rbx, %rsi
	movq	%rax, %rdi
	call	fputs_unlocked@PLT
	.loc 2 481 7
	movq	stdout(%rip), %rbx
	leaq	.LC49(%rip), %rdi
	call	gettext@PLT
	movq	%rbx, %rsi
	movq	%rax, %rdi
	call	fputs_unlocked@PLT
	.loc 2 485 7
	movq	stdout(%rip), %rbx
	leaq	.LC50(%rip), %rdi
	call	gettext@PLT
	movq	%rbx, %rsi
	movq	%rax, %rdi
	call	fputs_unlocked@PLT
	.loc 2 491 15
	leaq	.LC51(%rip), %rdi
	call	gettext@PLT
	.loc 2 491 7
	leaq	.LC52(%rip), %rsi
	movq	%rax, %rdi
	movl	$0, %eax
	call	printf@PLT
	.loc 2 500 7
	movq	stdout(%rip), %rbx
	leaq	.LC53(%rip), %rdi
	call	gettext@PLT
	movq	%rbx, %rsi
	movq	%rax, %rdi
	call	fputs_unlocked@PLT
	.loc 2 503 7
	movq	stdout(%rip), %rbx
	leaq	.LC54(%rip), %rdi
	call	gettext@PLT
	movq	%rbx, %rsi
	movq	%rax, %rdi
	call	fputs_unlocked@PLT
	.loc 2 504 7
	movq	stdout(%rip), %rbx
	leaq	.LC55(%rip), %rdi
	call	gettext@PLT
	movq	%rbx, %rsi
	movq	%rax, %rdi
	call	fputs_unlocked@PLT
	.loc 2 505 7
	movq	stdout(%rip), %rbx
	leaq	.LC56(%rip), %rdi
	call	gettext@PLT
	movq	%rbx, %rsi
	movq	%rax, %rdi
	call	fputs_unlocked@PLT
	.loc 2 518 7
	movq	stdout(%rip), %rbx
	leaq	.LC57(%rip), %rdi
	call	gettext@PLT
	movq	%rbx, %rsi
	movq	%rax, %rdi
	call	fputs_unlocked@PLT
	.loc 2 526 7
	leaq	.LC58(%rip), %rdi
	call	emit_ancillary_info
.L32:
	.loc 2 529 3
	movl	-20(%rbp), %eax
	movl	%eax, %edi
	call	exit@PLT
	.cfi_endproc
.LFE48:
	.size	usage, .-usage
	.section	.rodata
	.align 16
	.type	short_options, @object
	.size	short_options, 31
short_options:
	.string	"-bcCdfghik:mMno:rRsS:t:T:uVy:z"
.LC59:
	.string	"ignore-leading-blanks"
.LC60:
	.string	"check"
.LC61:
	.string	"compress-program"
.LC62:
	.string	"debug"
.LC63:
	.string	"dictionary-order"
.LC64:
	.string	"ignore-case"
.LC65:
	.string	"files0-from"
.LC66:
	.string	"general-numeric-sort"
.LC67:
	.string	"ignore-nonprinting"
.LC68:
	.string	"key"
.LC69:
	.string	"merge"
.LC70:
	.string	"month-sort"
.LC71:
	.string	"numeric-sort"
.LC72:
	.string	"human-numeric-sort"
.LC73:
	.string	"version-sort"
.LC74:
	.string	"random-sort"
.LC75:
	.string	"random-source"
.LC76:
	.string	"output"
.LC77:
	.string	"reverse"
.LC78:
	.string	"stable"
.LC79:
	.string	"batch-size"
.LC80:
	.string	"buffer-size"
.LC81:
	.string	"field-separator"
.LC82:
	.string	"temporary-directory"
.LC83:
	.string	"unique"
.LC84:
	.string	"zero-terminated"
.LC85:
	.string	"parallel"
.LC86:
	.string	"help"
.LC87:
	.string	"version"
	.section	.data.rel.ro.local,"aw"
	.align 32
	.type	long_options, @object
	.size	long_options, 992
long_options:
	.quad	.LC59
	.long	0
	.zero	4
	.quad	0
	.long	98
	.zero	4
	.quad	.LC60
	.long	2
	.zero	4
	.quad	0
	.long	128
	.zero	4
	.quad	.LC61
	.long	1
	.zero	4
	.quad	0
	.long	129
	.zero	4
	.quad	.LC62
	.long	0
	.zero	4
	.quad	0
	.long	130
	.zero	4
	.quad	.LC63
	.long	0
	.zero	4
	.quad	0
	.long	100
	.zero	4
	.quad	.LC64
	.long	0
	.zero	4
	.quad	0
	.long	102
	.zero	4
	.quad	.LC65
	.long	1
	.zero	4
	.quad	0
	.long	131
	.zero	4
	.quad	.LC66
	.long	0
	.zero	4
	.quad	0
	.long	103
	.zero	4
	.quad	.LC67
	.long	0
	.zero	4
	.quad	0
	.long	105
	.zero	4
	.quad	.LC68
	.long	1
	.zero	4
	.quad	0
	.long	107
	.zero	4
	.quad	.LC69
	.long	0
	.zero	4
	.quad	0
	.long	109
	.zero	4
	.quad	.LC70
	.long	0
	.zero	4
	.quad	0
	.long	77
	.zero	4
	.quad	.LC71
	.long	0
	.zero	4
	.quad	0
	.long	110
	.zero	4
	.quad	.LC72
	.long	0
	.zero	4
	.quad	0
	.long	104
	.zero	4
	.quad	.LC73
	.long	0
	.zero	4
	.quad	0
	.long	86
	.zero	4
	.quad	.LC74
	.long	0
	.zero	4
	.quad	0
	.long	82
	.zero	4
	.quad	.LC75
	.long	1
	.zero	4
	.quad	0
	.long	133
	.zero	4
	.quad	.LC58
	.long	1
	.zero	4
	.quad	0
	.long	134
	.zero	4
	.quad	.LC76
	.long	1
	.zero	4
	.quad	0
	.long	111
	.zero	4
	.quad	.LC77
	.long	0
	.zero	4
	.quad	0
	.long	114
	.zero	4
	.quad	.LC78
	.long	0
	.zero	4
	.quad	0
	.long	115
	.zero	4
	.quad	.LC79
	.long	1
	.zero	4
	.quad	0
	.long	132
	.zero	4
	.quad	.LC80
	.long	1
	.zero	4
	.quad	0
	.long	83
	.zero	4
	.quad	.LC81
	.long	1
	.zero	4
	.quad	0
	.long	116
	.zero	4
	.quad	.LC82
	.long	1
	.zero	4
	.quad	0
	.long	84
	.zero	4
	.quad	.LC83
	.long	0
	.zero	4
	.quad	0
	.long	117
	.zero	4
	.quad	.LC84
	.long	0
	.zero	4
	.quad	0
	.long	122
	.zero	4
	.quad	.LC85
	.long	1
	.zero	4
	.quad	0
	.long	135
	.zero	4
	.quad	.LC86
	.long	0
	.zero	4
	.quad	0
	.long	-130
	.zero	4
	.quad	.LC87
	.long	0
	.zero	4
	.quad	0
	.long	-131
	.zero	4
	.quad	0
	.long	0
	.zero	4
	.quad	0
	.long	0
	.zero	4
	.section	.rodata
.LC88:
	.string	"quiet"
.LC89:
	.string	"silent"
.LC90:
	.string	"diagnose-first"
	.section	.data.rel.ro.local
	.align 32
	.type	check_args, @object
	.size	check_args, 32
check_args:
	.quad	.LC88
	.quad	.LC89
	.quad	.LC90
	.quad	0
	.section	.rodata
	.type	check_types, @object
	.size	check_types, 3
check_types:
	.ascii	"CCc"
.LC91:
	.string	"general-numeric"
.LC92:
	.string	"human-numeric"
.LC93:
	.string	"month"
.LC94:
	.string	"numeric"
.LC95:
	.string	"random"
	.section	.data.rel.ro.local
	.align 32
	.type	sort_args, @object
	.size	sort_args, 56
sort_args:
	.quad	.LC91
	.quad	.LC92
	.quad	.LC93
	.quad	.LC94
	.quad	.LC95
	.quad	.LC87
	.quad	0
	.section	.rodata
	.type	sort_types, @object
	.size	sort_types, 6
sort_types:
	.ascii	"ghMnRV"
	.local	caught_signals
	.comm	caught_signals,128,32
	.text
	.type	cs_enter, @function
cs_enter:
.LFB49:
	.loc 2 635 1
	.cfi_startproc
	endbr64
	pushq	%rbp
	.cfi_def_cfa_offset 16
	.cfi_offset 6, -16
	movq	%rsp, %rbp
	.cfi_def_cfa_register 6
	subq	$32, %rsp
	movq	%rdi, -24(%rbp)
	.loc 2 636 58
	movq	-24(%rbp), %rax
	addq	$8, %rax
	.loc 2 636 13
	movq	%rax, %rdx
	leaq	caught_signals(%rip), %rsi
	movl	$0, %edi
	call	pthread_sigmask@PLT
	movl	%eax, -4(%rbp)
	.loc 2 637 23
	cmpl	$0, -4(%rbp)
	sete	%dl
	.loc 2 637 17
	movq	-24(%rbp), %rax
	movb	%dl, (%rax)
	.loc 2 638 1
	nop
	leave
	.cfi_def_cfa 7, 8
	ret
	.cfi_endproc
.LFE49:
	.size	cs_enter, .-cs_enter
	.type	cs_leave, @function
cs_leave:
.LFB50:
	.loc 2 643 1
	.cfi_startproc
	endbr64
	pushq	%rbp
	.cfi_def_cfa_offset 16
	.cfi_offset 6, -16
	movq	%rsp, %rbp
	.cfi_def_cfa_register 6
	subq	$16, %rsp
	movq	%rdi, -8(%rbp)
	.loc 2 644 13
	movq	-8(%rbp), %rax
	movzbl	(%rax), %eax
	.loc 2 644 6
	testb	%al, %al
	je	.L36
	.loc 2 647 37
	movq	-8(%rbp), %rax
	addq	$8, %rax
	.loc 2 647 7
	movl	$0, %edx
	movq	%rax, %rsi
	movl	$2, %edi
	call	pthread_sigmask@PLT
.L36:
	.loc 2 649 1
	nop
	leave
	.cfi_def_cfa 7, 8
	ret
	.cfi_endproc
.LFE50:
	.size	cs_leave, .-cs_leave
	.local	temphead
	.comm	temphead,8,8
	.section	.data.rel.local
	.align 8
	.type	temptail, @object
	.size	temptail, 8
temptail:
	.quad	temphead
	.local	proctab
	.comm	proctab,8,8
	.text
	.type	proctab_hasher, @function
proctab_hasher:
.LFB51:
	.loc 2 684 1
	.cfi_startproc
	endbr64
	pushq	%rbp
	.cfi_def_cfa_offset 16
	.cfi_offset 6, -16
	movq	%rsp, %rbp
	.cfi_def_cfa_register 6
	movq	%rdi, -24(%rbp)
	movq	%rsi, -32(%rbp)
	.loc 2 685 26
	movq	-24(%rbp), %rax
	movq	%rax, -8(%rbp)
	.loc 2 686 14
	movq	-8(%rbp), %rax
	movl	8(%rax), %eax
	cltq
	.loc 2 686 20
	movl	$0, %edx
	divq	-32(%rbp)
	movq	%rdx, %rax
	.loc 2 687 1
	popq	%rbp
	.cfi_def_cfa 7, 8
	ret
	.cfi_endproc
.LFE51:
	.size	proctab_hasher, .-proctab_hasher
	.type	proctab_comparator, @function
proctab_comparator:
.LFB52:
	.loc 2 691 1
	.cfi_startproc
	endbr64
	pushq	%rbp
	.cfi_def_cfa_offset 16
	.cfi_offset 6, -16
	movq	%rsp, %rbp
	.cfi_def_cfa_register 6
	movq	%rdi, -24(%rbp)
	movq	%rsi, -32(%rbp)
	.loc 2 692 26
	movq	-24(%rbp), %rax
	movq	%rax, -16(%rbp)
	.loc 2 693 26
	movq	-32(%rbp), %rax
	movq	%rax, -8(%rbp)
	.loc 2 694 12
	movq	-16(%rbp), %rax
	movl	8(%rax), %edx
	.loc 2 694 23
	movq	-8(%rbp), %rax
	movl	8(%rax), %eax
	.loc 2 694 18
	cmpl	%eax, %edx
	sete	%al
	.loc 2 695 1
	popq	%rbp
	.cfi_def_cfa 7, 8
	ret
	.cfi_endproc
.LFE52:
	.size	proctab_comparator, .-proctab_comparator
	.local	nprocs
	.comm	nprocs,4,4
	.section	.rodata
.LC96:
	.string	"waiting for %s [-d]"
.LC97:
	.string	"%s [-d] terminated abnormally"
	.text
	.type	reap, @function
reap:
.LFB53:
	.loc 2 711 1
	.cfi_startproc
	endbr64
	pushq	%rbp
	.cfi_def_cfa_offset 16
	.cfi_offset 6, -16
	movq	%rsp, %rbp
	.cfi_def_cfa_register 6
	pushq	%r12
	pushq	%rbx
	subq	$32, %rsp
	.cfi_offset 12, -24
	.cfi_offset 3, -32
	movl	%edi, -36(%rbp)
	.loc 2 711 1
	movq	%fs:40, %rax
	movq	%rax, -24(%rbp)
	xorl	%eax, %eax
	.loc 2 713 16
	cmpl	$0, -36(%rbp)
	sete	%al
	movzbl	%al, %edx
	cmpl	$0, -36(%rbp)
	je	.L42
	.loc 2 713 16 is_stmt 0 discriminator 1
	movl	-36(%rbp), %eax
	jmp	.L43
.L42:
	.loc 2 713 16 discriminator 2
	movl	$-1, %eax
.L43:
	.loc 2 713 16 discriminator 4
	leaq	-32(%rbp), %rcx
	movq	%rcx, %rsi
	movl	%eax, %edi
	call	waitpid@PLT
	movl	%eax, -28(%rbp)
	.loc 2 715 6 is_stmt 1 discriminator 4
	cmpl	$0, -28(%rbp)
	jns	.L44
.LBB7:
	.loc 2 716 5
	movq	compress_program(%rip), %rax
	movq	%rax, %rsi
	movl	$4, %edi
	call	quotearg_style@PLT
	movq	%rax, %r12
	leaq	.LC96(%rip), %rdi
	call	gettext@PLT
	movq	%rax, %rbx
	call	__errno_location@PLT
	movl	(%rax), %eax
	movq	%r12, %rcx
	movq	%rbx, %rdx
	movl	%eax, %esi
	movl	$2, %edi
	movl	$0, %eax
	call	error@PLT
.L44:
.LBE7:
	.loc 2 718 11
	cmpl	$0, -28(%rbp)
	jle	.L45
	.loc 2 718 21 discriminator 1
	cmpl	$0, -36(%rbp)
	jg	.L46
	.loc 2 718 36 discriminator 2
	movl	-28(%rbp), %eax
	movl	%eax, %edi
	call	delete_proc
	.loc 2 718 33 discriminator 2
	testb	%al, %al
	je	.L45
.L46:
	.loc 2 720 13
	movl	-32(%rbp), %eax
	andl	$127, %eax
	.loc 2 720 10
	testl	%eax, %eax
	jne	.L47
	.loc 2 720 35 discriminator 1
	movl	-32(%rbp), %eax
	sarl	$8, %eax
	movzbl	%al, %eax
	.loc 2 720 32 discriminator 1
	testl	%eax, %eax
	je	.L48
.L47:
.LBB8:
	.loc 2 721 9
	movq	compress_program(%rip), %rax
	movq	%rax, %rsi
	movl	$4, %edi
	call	quotearg_style@PLT
	movq	%rax, %rbx
	leaq	.LC97(%rip), %rdi
	call	gettext@PLT
	movq	%rbx, %rcx
	movq	%rax, %rdx
	movl	$0, %esi
	movl	$2, %edi
	movl	$0, %eax
	call	error@PLT
.L48:
.LBE8:
	.loc 2 723 7
	movl	nprocs(%rip), %eax
	subl	$1, %eax
	movl	%eax, nprocs(%rip)
.L45:
	.loc 2 726 10
	movl	-28(%rbp), %eax
	.loc 2 727 1
	movq	-24(%rbp), %rcx
	xorq	%fs:40, %rcx
	je	.L50
	call	__stack_chk_fail@PLT
.L50:
	addq	$32, %rsp
	popq	%rbx
	popq	%r12
	popq	%rbp
	.cfi_def_cfa 7, 8
	ret
	.cfi_endproc
.LFE53:
	.size	reap, .-reap
	.type	register_proc, @function
register_proc:
.LFB54:
	.loc 2 734 1
	.cfi_startproc
	endbr64
	pushq	%rbp
	.cfi_def_cfa_offset 16
	.cfi_offset 6, -16
	movq	%rsp, %rbp
	.cfi_def_cfa_register 6
	subq	$16, %rsp
	movq	%rdi, -8(%rbp)
	.loc 2 735 7
	movq	proctab(%rip), %rax
	.loc 2 735 6
	testq	%rax, %rax
	jne	.L52
	.loc 2 737 17
	movl	$0, %r8d
	leaq	proctab_comparator(%rip), %rcx
	leaq	proctab_hasher(%rip), %rdx
	movl	$0, %esi
	movl	$47, %edi
	call	hash_initialize@PLT
	.loc 2 737 15
	movq	%rax, proctab(%rip)
	.loc 2 741 11
	movq	proctab(%rip), %rax
	.loc 2 741 10
	testq	%rax, %rax
	jne	.L52
	.loc 2 742 9
	call	xalloc_die@PLT
.L52:
	.loc 2 745 15
	movq	-8(%rbp), %rax
	movb	$1, 12(%rax)
	.loc 2 747 9
	movq	proctab(%rip), %rax
	movq	-8(%rbp), %rdx
	movq	%rdx, %rsi
	movq	%rax, %rdi
	call	hash_insert@PLT
	.loc 2 747 6
	testq	%rax, %rax
	jne	.L54
	.loc 2 748 5
	call	xalloc_die@PLT
.L54:
	.loc 2 749 1
	nop
	leave
	.cfi_def_cfa 7, 8
	ret
	.cfi_endproc
.LFE54:
	.size	register_proc, .-register_proc
	.type	delete_proc, @function
delete_proc:
.LFB55:
	.loc 2 756 1
	.cfi_startproc
	endbr64
	pushq	%rbp
	.cfi_def_cfa_offset 16
	.cfi_offset 6, -16
	movq	%rsp, %rbp
	.cfi_def_cfa_register 6
	subq	$64, %rsp
	movl	%edi, -52(%rbp)
	.loc 2 756 1
	movq	%fs:40, %rax
	movq	%rax, -8(%rbp)
	xorl	%eax, %eax
	.loc 2 759 12
	movl	-52(%rbp), %eax
	movl	%eax, -24(%rbp)
	.loc 2 760 27
	movq	proctab(%rip), %rax
	leaq	-32(%rbp), %rdx
	movq	%rdx, %rsi
	movq	%rax, %rdi
	call	hash_remove@PLT
	movq	%rax, -40(%rbp)
	.loc 2 761 6
	cmpq	$0, -40(%rbp)
	jne	.L56
	.loc 2 762 12
	movl	$0, %eax
	jmp	.L58
.L56:
	.loc 2 763 15
	movq	-40(%rbp), %rax
	movb	$2, 12(%rax)
	.loc 2 764 10
	movl	$1, %eax
.L58:
	.loc 2 765 1 discriminator 1
	movq	-8(%rbp), %rcx
	xorq	%fs:40, %rcx
	je	.L59
	.loc 2 765 1 is_stmt 0
	call	__stack_chk_fail@PLT
.L59:
	leave
	.cfi_def_cfa 7, 8
	ret
	.cfi_endproc
.LFE55:
	.size	delete_proc, .-delete_proc
	.type	wait_proc, @function
wait_proc:
.LFB56:
	.loc 2 772 1 is_stmt 1
	.cfi_startproc
	endbr64
	pushq	%rbp
	.cfi_def_cfa_offset 16
	.cfi_offset 6, -16
	movq	%rsp, %rbp
	.cfi_def_cfa_register 6
	subq	$16, %rsp
	movl	%edi, -4(%rbp)
	.loc 2 773 7
	movl	-4(%rbp), %eax
	movl	%eax, %edi
	call	delete_proc
	.loc 2 773 6
	testb	%al, %al
	je	.L62
	.loc 2 774 5
	movl	-4(%rbp), %eax
	movl	%eax, %edi
	call	reap
.L62:
	.loc 2 775 1
	nop
	leave
	.cfi_def_cfa 7, 8
	ret
	.cfi_endproc
.LFE56:
	.size	wait_proc, .-wait_proc
	.type	reap_exited, @function
reap_exited:
.LFB57:
	.loc 2 782 1
	.cfi_startproc
	endbr64
	pushq	%rbp
	.cfi_def_cfa_offset 16
	.cfi_offset 6, -16
	movq	%rsp, %rbp
	.cfi_def_cfa_register 6
	.loc 2 783 9
	jmp	.L64
.L66:
	.loc 2 784 5
	nop
.L64:
	.loc 2 783 12
	movl	nprocs(%rip), %eax
	.loc 2 783 9
	testl	%eax, %eax
	jle	.L67
	.loc 2 783 24 discriminator 1
	movl	$0, %edi
	call	reap
	.loc 2 783 21 discriminator 1
	testl	%eax, %eax
	jne	.L66
.L67:
	.loc 2 785 1
	nop
	popq	%rbp
	.cfi_def_cfa 7, 8
	ret
	.cfi_endproc
.LFE57:
	.size	reap_exited, .-reap_exited
	.type	reap_some, @function
reap_some:
.LFB58:
	.loc 2 791 1
	.cfi_startproc
	endbr64
	pushq	%rbp
	.cfi_def_cfa_offset 16
	.cfi_offset 6, -16
	movq	%rsp, %rbp
	.cfi_def_cfa_register 6
	.loc 2 792 3
	movl	$-1, %edi
	call	reap
	.loc 2 793 3
	call	reap_exited
	.loc 2 794 1
	nop
	popq	%rbp
	.cfi_def_cfa 7, 8
	ret
	.cfi_endproc
.LFE58:
	.size	reap_some, .-reap_some
	.type	reap_all, @function
reap_all:
.LFB59:
	.loc 2 800 1
	.cfi_startproc
	endbr64
	pushq	%rbp
	.cfi_def_cfa_offset 16
	.cfi_offset 6, -16
	movq	%rsp, %rbp
	.cfi_def_cfa_register 6
	.loc 2 801 9
	jmp	.L70
.L71:
	.loc 2 802 5
	movl	$-1, %edi
	call	reap
.L70:
	.loc 2 801 12
	movl	nprocs(%rip), %eax
	.loc 2 801 9
	testl	%eax, %eax
	jg	.L71
	.loc 2 803 1
	nop
	nop
	popq	%rbp
	.cfi_def_cfa 7, 8
	ret
	.cfi_endproc
.LFE59:
	.size	reap_all, .-reap_all
	.type	cleanup, @function
cleanup:
.LFB60:
	.loc 2 809 1
	.cfi_startproc
	endbr64
	pushq	%rbp
	.cfi_def_cfa_offset 16
	.cfi_offset 6, -16
	movq	%rsp, %rbp
	.cfi_def_cfa_register 6
	subq	$16, %rsp
	.loc 2 812 13
	movq	temphead(%rip), %rax
	movq	%rax, -8(%rbp)
	.loc 2 812 3
	jmp	.L73
.L74:
	.loc 2 813 17 discriminator 3
	movq	-8(%rbp), %rax
	addq	$13, %rax
	.loc 2 813 5 discriminator 3
	movq	%rax, %rdi
	call	unlink@PLT
	.loc 2 812 36 discriminator 3
	movq	-8(%rbp), %rax
	movq	(%rax), %rax
	movq	%rax, -8(%rbp)
.L73:
	.loc 2 812 3 discriminator 1
	cmpq	$0, -8(%rbp)
	jne	.L74
	.loc 2 814 12
	movq	$0, temphead(%rip)
	.loc 2 815 1
	nop
	leave
	.cfi_def_cfa 7, 8
	ret
	.cfi_endproc
.LFE60:
	.size	cleanup, .-cleanup
	.type	exit_cleanup, @function
exit_cleanup:
.LFB61:
	.loc 2 821 1
	.cfi_startproc
	endbr64
	pushq	%rbp
	.cfi_def_cfa_offset 16
	.cfi_offset 6, -16
	movq	%rsp, %rbp
	.cfi_def_cfa_register 6
	subq	$144, %rsp
	.loc 2 821 1
	movq	%fs:40, %rax
	movq	%rax, -8(%rbp)
	xorl	%eax, %eax
	.loc 2 822 7
	movq	temphead(%rip), %rax
	.loc 2 822 6
	testq	%rax, %rax
	je	.L76
.LBB9:
	.loc 2 827 7
	leaq	-144(%rbp), %rax
	movq	%rax, %rdi
	call	cs_enter
	.loc 2 828 7
	call	cleanup
	.loc 2 829 7
	leaq	-144(%rbp), %rax
	movq	%rax, %rdi
	call	cs_leave
.L76:
.LBE9:
	.loc 2 832 3
	call	close_stdout@PLT
	.loc 2 833 1
	nop
	movq	-8(%rbp), %rax
	xorq	%fs:40, %rax
	je	.L77
	call	__stack_chk_fail@PLT
.L77:
	leave
	.cfi_def_cfa 7, 8
	ret
	.cfi_endproc
.LFE61:
	.size	exit_cleanup, .-exit_cleanup
	.section	.rodata
	.align 8
.LC98:
	.string	"cannot create temporary file in %s"
	.text
	.type	create_temp_file, @function
create_temp_file:
.LFB62:
	.loc 2 843 1
	.cfi_startproc
	endbr64
	pushq	%rbp
	.cfi_def_cfa_offset 16
	.cfi_offset 6, -16
	movq	%rsp, %rbp
	.cfi_def_cfa_register 6
	pushq	%r12
	pushq	%rbx
	subq	$208, %rsp
	.cfi_offset 12, -24
	.cfi_offset 3, -32
	movq	%rdi, -216(%rbp)
	movl	%esi, %eax
	movb	%al, -220(%rbp)
	.loc 2 843 1
	movq	%fs:40, %rax
	movq	%rax, -24(%rbp)
	xorl	%eax, %eax
	.loc 2 848 35
	movq	temp_dirs(%rip), %rax
	movq	temp_dir_index.7932(%rip), %rdx
	salq	$3, %rdx
	addq	%rdx, %rax
	.loc 2 848 15
	movq	(%rax), %rax
	movq	%rax, -184(%rbp)
	.loc 2 849 16
	movq	-184(%rbp), %rax
	movq	%rax, %rdi
	call	strlen@PLT
	movq	%rax, -176(%rbp)
	.loc 2 851 14
	movq	-176(%rbp), %rax
	addq	$32, %rax
	.loc 2 851 5
	andq	$-8, %rax
	movq	%rax, %rdi
	call	xmalloc@PLT
	movq	%rax, -192(%rbp)
	.loc 2 852 9
	movq	-192(%rbp), %rax
	addq	$13, %rax
	movq	%rax, -168(%rbp)
	.loc 2 855 3
	movq	-176(%rbp), %rdx
	movq	-184(%rbp), %rcx
	movq	-168(%rbp), %rax
	movq	%rcx, %rsi
	movq	%rax, %rdi
	call	memcpy@PLT
	.loc 2 856 16
	movq	-168(%rbp), %rdx
	movq	-176(%rbp), %rax
	addq	%rdx, %rax
	.loc 2 856 3
	movq	slashbase.7931(%rip), %rdx
	movq	%rdx, (%rax)
	movl	8+slashbase.7931(%rip), %edx
	movl	%edx, 8(%rax)
	.loc 2 857 14
	movq	-192(%rbp), %rax
	movq	$0, (%rax)
	.loc 2 858 7
	movq	temp_dir_index.7932(%rip), %rax
	addq	$1, %rax
	.loc 2 858 6
	movq	%rax, temp_dir_index.7932(%rip)
	.loc 2 858 7
	movq	temp_dir_index.7932(%rip), %rdx
	.loc 2 858 24
	movq	temp_dir_count(%rip), %rax
	.loc 2 858 6
	cmpq	%rax, %rdx
	jne	.L79
	.loc 2 859 20
	movq	$0, temp_dir_index.7932(%rip)
.L79:
	.loc 2 862 3
	leaq	-160(%rbp), %rax
	movq	%rax, %rdi
	call	cs_enter
	.loc 2 863 8
	movq	-168(%rbp), %rax
	movl	$524288, %esi
	movq	%rax, %rdi
	call	mkostemp_safer@PLT
	movl	%eax, -200(%rbp)
	.loc 2 864 6
	cmpl	$0, -200(%rbp)
	js	.L80
	.loc 2 866 7
	movq	temptail(%rip), %rax
	.loc 2 866 17
	movq	-192(%rbp), %rdx
	movq	%rdx, (%rax)
	.loc 2 867 18
	movq	-192(%rbp), %rax
	.loc 2 867 16
	movq	%rax, temptail(%rip)
.L80:
	.loc 2 869 17
	call	__errno_location@PLT
	.loc 2 869 15
	movl	(%rax), %eax
	movl	%eax, -196(%rbp)
	.loc 2 870 3
	leaq	-160(%rbp), %rax
	movq	%rax, %rdi
	call	cs_leave
	.loc 2 871 3
	call	__errno_location@PLT
	.loc 2 871 9
	movl	-196(%rbp), %edx
	movl	%edx, (%rax)
	.loc 2 873 6
	cmpl	$0, -200(%rbp)
	jns	.L81
	.loc 2 875 14
	movzbl	-220(%rbp), %eax
	xorl	$1, %eax
	.loc 2 875 10
	testb	%al, %al
	jne	.L82
	.loc 2 875 39 discriminator 1
	call	__errno_location@PLT
	movl	(%rax), %eax
	.loc 2 875 11 discriminator 1
	cmpl	$24, %eax
	je	.L83
.L82:
.LBB10:
	.loc 2 876 9
	movq	-184(%rbp), %rax
	movq	%rax, %rsi
	movl	$4, %edi
	call	quotearg_style@PLT
	movq	%rax, %r12
	leaq	.LC98(%rip), %rdi
	call	gettext@PLT
	movq	%rax, %rbx
	call	__errno_location@PLT
	movl	(%rax), %eax
	movq	%r12, %rcx
	movq	%rbx, %rdx
	movl	%eax, %esi
	movl	$2, %edi
	movl	$0, %eax
	call	error@PLT
.L83:
.LBE10:
	.loc 2 878 7
	movq	-192(%rbp), %rax
	movq	%rax, %rdi
	call	free@PLT
	.loc 2 879 12
	movq	$0, -192(%rbp)
.L81:
	.loc 2 882 8
	movq	-216(%rbp), %rax
	movl	-200(%rbp), %edx
	movl	%edx, (%rax)
	.loc 2 883 10
	movq	-192(%rbp), %rax
	.loc 2 884 1
	movq	-24(%rbp), %rbx
	xorq	%fs:40, %rbx
	je	.L85
	call	__stack_chk_fail@PLT
.L85:
	addq	$208, %rsp
	popq	%rbx
	popq	%r12
	popq	%rbp
	.cfi_def_cfa 7, 8
	ret
	.cfi_endproc
.LFE62:
	.size	create_temp_file, .-create_temp_file
	.type	get_outstatus, @function
get_outstatus:
.LFB63:
	.loc 2 890 1
	.cfi_startproc
	endbr64
	pushq	%rbp
	.cfi_def_cfa_offset 16
	.cfi_offset 6, -16
	movq	%rsp, %rbp
	.cfi_def_cfa_register 6
	.loc 2 893 21
	movl	outstat_errno.7945(%rip), %eax
	.loc 2 893 6
	testl	%eax, %eax
	jne	.L87
	.loc 2 894 21
	leaq	outstat.7946(%rip), %rsi
	movl	$1, %edi
	call	fstat@PLT
	.loc 2 894 63
	testl	%eax, %eax
	je	.L88
	.loc 2 894 65 discriminator 1
	call	__errno_location@PLT
	.loc 2 894 63 discriminator 1
	movl	(%rax), %eax
	jmp	.L89
.L88:
	.loc 2 894 63 is_stmt 0 discriminator 2
	movl	$-1, %eax
.L89:
	.loc 2 894 19 is_stmt 1 discriminator 4
	movl	%eax, outstat_errno.7945(%rip)
.L87:
	.loc 2 895 24
	movl	outstat_errno.7945(%rip), %eax
	.loc 2 895 39
	testl	%eax, %eax
	jns	.L90
	.loc 2 895 39 is_stmt 0 discriminator 1
	leaq	outstat.7946(%rip), %rax
	jmp	.L92
.L90:
	.loc 2 895 39 discriminator 2
	movl	$0, %eax
.L92:
	.loc 2 896 1 is_stmt 1 discriminator 5
	popq	%rbp
	.cfi_def_cfa 7, 8
	ret
	.cfi_endproc
.LFE63:
	.size	get_outstatus, .-get_outstatus
	.section	.rodata
.LC99:
	.string	"-"
.LC100:
	.string	"%s: error truncating"
.LC101:
	.string	"src/sort.c"
	.align 8
.LC102:
	.string	"!\"unexpected mode passed to stream_open\""
	.text
	.type	stream_open, @function
stream_open:
.LFB64:
	.loc 2 948 1
	.cfi_startproc
	endbr64
	pushq	%rbp
	.cfi_def_cfa_offset 16
	.cfi_offset 6, -16
	movq	%rsp, %rbp
	.cfi_def_cfa_register 6
	pushq	%rbx
	subq	$56, %rsp
	.cfi_offset 3, -24
	movq	%rdi, -56(%rbp)
	movq	%rsi, -64(%rbp)
	.loc 2 951 7
	movq	-64(%rbp), %rax
	movzbl	(%rax), %eax
	.loc 2 951 6
	cmpb	$114, %al
	jne	.L94
	.loc 2 953 11
	movq	-56(%rbp), %rax
	leaq	.LC99(%rip), %rsi
	movq	%rax, %rdi
	call	strcmp@PLT
	.loc 2 953 10
	testl	%eax, %eax
	jne	.L95
	.loc 2 955 27
	movb	$1, have_read_stdin(%rip)
	.loc 2 956 14
	movq	stdin(%rip), %rax
	movq	%rax, -32(%rbp)
	jmp	.L96
.L95:
.LBB11:
	.loc 2 960 20
	movq	-56(%rbp), %rax
	movl	$524288, %esi
	movq	%rax, %rdi
	movl	$0, %eax
	call	open@PLT
	movl	%eax, -36(%rbp)
	.loc 2 961 30
	cmpl	$0, -36(%rbp)
	js	.L97
	.loc 2 961 32 discriminator 1
	movq	-64(%rbp), %rdx
	movl	-36(%rbp), %eax
	movq	%rdx, %rsi
	movl	%eax, %edi
	call	fdopen@PLT
	jmp	.L98
.L97:
	.loc 2 961 30 discriminator 2
	movl	$0, %eax
.L98:
	.loc 2 961 14 discriminator 4
	movq	%rax, -32(%rbp)
.L96:
.LBE11:
	.loc 2 963 7
	movq	-32(%rbp), %rax
	movl	$2, %esi
	movq	%rax, %rdi
	call	fadvise@PLT
	jmp	.L99
.L94:
	.loc 2 965 12
	movq	-64(%rbp), %rax
	movzbl	(%rax), %eax
	.loc 2 965 11
	cmpb	$119, %al
	jne	.L100
	.loc 2 967 10
	cmpq	$0, -56(%rbp)
	je	.L101
	.loc 2 967 19 discriminator 1
	movl	$0, %esi
	movl	$1, %edi
	call	ftruncate@PLT
	.loc 2 967 16 discriminator 1
	testl	%eax, %eax
	je	.L101
.LBB12:
	.loc 2 969 33
	call	__errno_location@PLT
	.loc 2 969 15
	movl	(%rax), %eax
	movl	%eax, -40(%rbp)
	.loc 2 970 32
	call	get_outstatus
	movq	%rax, -24(%rbp)
	.loc 2 971 14
	cmpq	$0, -24(%rbp)
	je	.L102
	.loc 2 971 25 discriminator 1
	movq	-24(%rbp), %rax
	movl	24(%rax), %eax
	andl	$61440, %eax
	.loc 2 971 50 discriminator 1
	cmpl	$32768, %eax
	jne	.L101
.L102:
.LBB13:
	.loc 2 972 13
	movq	-56(%rbp), %rax
	movq	%rax, %rdx
	movl	$3, %esi
	movl	$0, %edi
	call	quotearg_n_style_colon@PLT
	movq	%rax, %rbx
	leaq	.LC100(%rip), %rdi
	call	gettext@PLT
	movq	%rax, %rdx
	movl	-40(%rbp), %eax
	movq	%rbx, %rcx
	movl	%eax, %esi
	movl	$2, %edi
	movl	$0, %eax
	call	error@PLT
.L101:
.LBE13:
.LBE12:
	.loc 2 975 10
	movq	stdout(%rip), %rax
	movq	%rax, -32(%rbp)
	jmp	.L99
.L100:
	.loc 2 978 5 discriminator 1
	leaq	__PRETTY_FUNCTION__.7957(%rip), %rcx
	movl	$978, %edx
	leaq	.LC101(%rip), %rsi
	leaq	.LC102(%rip), %rdi
	call	__assert_fail@PLT
.L99:
	.loc 2 980 10
	movq	-32(%rbp), %rax
	.loc 2 981 1
	addq	$56, %rsp
	popq	%rbx
	popq	%rbp
	.cfi_def_cfa 7, 8
	ret
	.cfi_endproc
.LFE64:
	.size	stream_open, .-stream_open
	.section	.rodata
.LC103:
	.string	"open failed"
	.text
	.type	xfopen, @function
xfopen:
.LFB65:
	.loc 2 988 1
	.cfi_startproc
	endbr64
	pushq	%rbp
	.cfi_def_cfa_offset 16
	.cfi_offset 6, -16
	movq	%rsp, %rbp
	.cfi_def_cfa_register 6
	subq	$32, %rsp
	movq	%rdi, -24(%rbp)
	movq	%rsi, -32(%rbp)
	.loc 2 989 14
	movq	-32(%rbp), %rdx
	movq	-24(%rbp), %rax
	movq	%rdx, %rsi
	movq	%rax, %rdi
	call	stream_open
	movq	%rax, -8(%rbp)
	.loc 2 990 6
	cmpq	$0, -8(%rbp)
	jne	.L105
	.loc 2 991 15
	leaq	.LC103(%rip), %rdi
	call	gettext@PLT
	movq	%rax, %rdx
	.loc 2 991 5
	movq	-24(%rbp), %rax
	movq	%rax, %rsi
	movq	%rdx, %rdi
	call	sort_die
.L105:
	.loc 2 992 10
	movq	-8(%rbp), %rax
	.loc 2 993 1
	leave
	.cfi_def_cfa 7, 8
	ret
	.cfi_endproc
.LFE65:
	.size	xfopen, .-xfopen
	.section	.rodata
.LC104:
	.string	"fflush failed"
.LC105:
	.string	"close failed"
	.text
	.type	xfclose, @function
xfclose:
.LFB66:
	.loc 2 999 1
	.cfi_startproc
	endbr64
	pushq	%rbp
	.cfi_def_cfa_offset 16
	.cfi_offset 6, -16
	movq	%rsp, %rbp
	.cfi_def_cfa_register 6
	subq	$16, %rsp
	movq	%rdi, -8(%rbp)
	movq	%rsi, -16(%rbp)
	.loc 2 1000 11
	movq	-8(%rbp), %rax
	movq	%rax, %rdi
	call	fileno@PLT
	.loc 2 1000 3
	testl	%eax, %eax
	je	.L108
	cmpl	$1, %eax
	je	.L109
	jmp	.L115
.L108:
	.loc 2 1004 11
	movq	-8(%rbp), %rax
	movq	%rax, %rdi
	call	feof_unlocked@PLT
	.loc 2 1004 10
	testl	%eax, %eax
	je	.L116
	.loc 2 1005 9
	movq	-8(%rbp), %rax
	movq	%rax, %rdi
	call	clearerr_unlocked@PLT
	.loc 2 1006 7
	jmp	.L116
.L109:
	.loc 2 1010 11
	movq	-8(%rbp), %rax
	movq	%rax, %rdi
	call	fflush_unlocked@PLT
	.loc 2 1010 10
	testl	%eax, %eax
	je	.L117
	.loc 2 1011 19
	leaq	.LC104(%rip), %rdi
	call	gettext@PLT
	movq	%rax, %rdx
	.loc 2 1011 9
	movq	-16(%rbp), %rax
	movq	%rax, %rsi
	movq	%rdx, %rdi
	call	sort_die
.L115:
	.loc 2 1015 11
	movq	-8(%rbp), %rax
	movq	%rax, %rdi
	call	rpl_fclose@PLT
	.loc 2 1015 10
	testl	%eax, %eax
	je	.L118
	.loc 2 1016 19
	leaq	.LC105(%rip), %rdi
	call	gettext@PLT
	movq	%rax, %rdx
	.loc 2 1016 9
	movq	-16(%rbp), %rax
	movq	%rax, %rsi
	movq	%rdx, %rdi
	call	sort_die
.L116:
	.loc 2 1006 7
	nop
	jmp	.L119
.L117:
	.loc 2 1012 7
	nop
	jmp	.L119
.L118:
	.loc 2 1017 7
	nop
.L119:
	.loc 2 1019 1
	nop
	leave
	.cfi_def_cfa 7, 8
	ret
	.cfi_endproc
.LFE66:
	.size	xfclose, .-xfclose
	.type	move_fd, @function
move_fd:
.LFB67:
	.loc 2 1025 1
	.cfi_startproc
	endbr64
	pushq	%rbp
	.cfi_def_cfa_offset 16
	.cfi_offset 6, -16
	movq	%rsp, %rbp
	.cfi_def_cfa_register 6
	subq	$16, %rsp
	movl	%edi, -4(%rbp)
	movl	%esi, -8(%rbp)
	.loc 2 1026 6
	movl	-4(%rbp), %eax
	cmpl	-8(%rbp), %eax
	je	.L122
	.loc 2 1029 7
	movl	-8(%rbp), %edx
	movl	-4(%rbp), %eax
	movl	%edx, %esi
	movl	%eax, %edi
	call	dup2@PLT
	.loc 2 1030 7
	movl	-4(%rbp), %eax
	movl	%eax, %edi
	call	close@PLT
.L122:
	.loc 2 1032 1
	nop
	leave
	.cfi_def_cfa 7, 8
	ret
	.cfi_endproc
.LFE67:
	.size	move_fd, .-move_fd
	.type	pipe_fork, @function
pipe_fork:
.LFB68:
	.loc 2 1041 1
	.cfi_startproc
	endbr64
	pushq	%rbp
	.cfi_def_cfa_offset 16
	.cfi_offset 6, -16
	movq	%rsp, %rbp
	.cfi_def_cfa_register 6
	subq	$192, %rsp
	movq	%rdi, -184(%rbp)
	movq	%rsi, -192(%rbp)
	.loc 2 1041 1
	movq	%fs:40, %rax
	movq	%rax, -8(%rbp)
	xorl	%eax, %eax
	.loc 2 1045 10
	movsd	.LC106(%rip), %xmm0
	movsd	%xmm0, -160(%rbp)
	.loc 2 1046 9
	movl	$-1, -168(%rbp)
	.loc 2 1049 7
	movq	-184(%rbp), %rax
	movl	$524288, %esi
	movq	%rax, %rdi
	call	rpl_pipe2@PLT
	.loc 2 1049 6
	testl	%eax, %eax
	jns	.L124
	.loc 2 1050 12
	movl	$-1, %eax
	jmp	.L134
.L124:
	.loc 2 1059 14
	movl	nmerge(%rip), %eax
	leal	1(%rax), %edx
	.loc 2 1059 18
	movl	nprocs(%rip), %eax
	.loc 2 1059 6
	cmpl	%eax, %edx
	jnb	.L127
	.loc 2 1060 5
	call	reap_some
	.loc 2 1062 9
	jmp	.L127
.L130:
	.loc 2 1066 7
	leaq	-144(%rbp), %rax
	movq	%rax, %rdi
	call	cs_enter
	.loc 2 1067 22
	movq	temphead(%rip), %rax
	movq	%rax, -152(%rbp)
	.loc 2 1068 16
	movq	$0, temphead(%rip)
	.loc 2 1070 13
	call	fork@PLT
	movl	%eax, -168(%rbp)
	.loc 2 1071 21
	call	__errno_location@PLT
	.loc 2 1071 19
	movl	(%rax), %eax
	movl	%eax, -164(%rbp)
	.loc 2 1072 10
	cmpl	$0, -168(%rbp)
	je	.L128
	.loc 2 1073 18
	movq	-152(%rbp), %rax
	movq	%rax, temphead(%rip)
.L128:
	.loc 2 1075 7
	leaq	-144(%rbp), %rax
	movq	%rax, %rdi
	call	cs_leave
	.loc 2 1076 7
	call	__errno_location@PLT
	.loc 2 1076 13
	movl	-164(%rbp), %edx
	movl	%edx, (%rax)
	.loc 2 1078 10
	cmpl	$0, -168(%rbp)
	jns	.L129
	.loc 2 1078 23 discriminator 1
	call	__errno_location@PLT
	movl	(%rax), %eax
	.loc 2 1078 20 discriminator 1
	cmpl	$11, %eax
	jne	.L129
	.loc 2 1082 11
	movq	-160(%rbp), %rax
	movq	%rax, %xmm0
	call	xnanosleep@PLT
	.loc 2 1083 22
	movsd	-160(%rbp), %xmm0
	addsd	%xmm0, %xmm0
	movsd	%xmm0, -160(%rbp)
	.loc 2 1084 11
	call	reap_exited
.L127:
	.loc 2 1062 15
	movq	-192(%rbp), %rax
	leaq	-1(%rax), %rdx
	movq	%rdx, -192(%rbp)
	.loc 2 1062 9
	testq	%rax, %rax
	jne	.L130
.L129:
	.loc 2 1088 6
	cmpl	$0, -168(%rbp)
	jns	.L131
	.loc 2 1090 21
	call	__errno_location@PLT
	.loc 2 1090 19
	movl	(%rax), %eax
	movl	%eax, -164(%rbp)
	.loc 2 1091 7
	movq	-184(%rbp), %rax
	movl	(%rax), %eax
	movl	%eax, %edi
	call	close@PLT
	.loc 2 1092 21
	movq	-184(%rbp), %rax
	addq	$4, %rax
	.loc 2 1092 7
	movl	(%rax), %eax
	movl	%eax, %edi
	call	close@PLT
	.loc 2 1093 7
	call	__errno_location@PLT
	.loc 2 1093 13
	movl	-164(%rbp), %edx
	movl	%edx, (%rax)
	jmp	.L132
.L131:
	.loc 2 1095 11
	cmpl	$0, -168(%rbp)
	jne	.L133
	.loc 2 1097 7
	movl	$0, %edi
	call	close@PLT
	.loc 2 1098 7
	movl	$1, %edi
	call	close@PLT
	jmp	.L132
.L133:
	.loc 2 1101 5
	movl	nprocs(%rip), %eax
	addl	$1, %eax
	movl	%eax, nprocs(%rip)
.L132:
	.loc 2 1103 10
	movl	-168(%rbp), %eax
.L134:
	.loc 2 1108 1 discriminator 1
	movq	-8(%rbp), %rcx
	xorq	%fs:40, %rcx
	je	.L135
	.loc 2 1108 1 is_stmt 0
	call	__stack_chk_fail@PLT
.L135:
	leave
	.cfi_def_cfa 7, 8
	ret
	.cfi_endproc
.LFE68:
	.size	pipe_fork, .-pipe_fork
	.section	.rodata
	.align 8
.LC107:
	.string	"couldn't execute compress program"
.LC108:
	.string	"w"
	.align 8
.LC109:
	.string	"couldn't create temporary file"
	.text
	.type	maybe_create_temp, @function
maybe_create_temp:
.LFB69:
	.loc 2 1118 1 is_stmt 1
	.cfi_startproc
	endbr64
	pushq	%rbp
	.cfi_def_cfa_offset 16
	.cfi_offset 6, -16
	movq	%rsp, %rbp
	.cfi_def_cfa_register 6
	pushq	%rbx
	subq	$56, %rsp
	.cfi_offset 3, -24
	movq	%rdi, -56(%rbp)
	movl	%esi, %eax
	movb	%al, -60(%rbp)
	.loc 2 1118 1
	movq	%fs:40, %rax
	movq	%rax, -24(%rbp)
	xorl	%eax, %eax
	.loc 2 1120 27
	movzbl	-60(%rbp), %edx
	leaq	-44(%rbp), %rax
	movl	%edx, %esi
	movq	%rax, %rdi
	call	create_temp_file
	movq	%rax, -40(%rbp)
	.loc 2 1121 6
	cmpq	$0, -40(%rbp)
	jne	.L137
	.loc 2 1122 12
	movl	$0, %eax
	jmp	.L143
.L137:
	.loc 2 1124 15
	movq	-40(%rbp), %rax
	movb	$0, 12(%rax)
	.loc 2 1126 7
	movq	compress_program(%rip), %rax
	.loc 2 1126 6
	testq	%rax, %rax
	je	.L139
.LBB14:
	.loc 2 1130 19
	leaq	-32(%rbp), %rax
	movl	$4, %esi
	movq	%rax, %rdi
	call	pipe_fork
	.loc 2 1130 17
	movq	-40(%rbp), %rdx
	movl	%eax, 8(%rdx)
	.loc 2 1131 19
	movq	-40(%rbp), %rax
	movl	8(%rax), %eax
	.loc 2 1131 10
	testl	%eax, %eax
	jle	.L140
	.loc 2 1133 11
	movl	-44(%rbp), %eax
	movl	%eax, %edi
	call	close@PLT
	.loc 2 1134 11
	movl	-32(%rbp), %eax
	movl	%eax, %edi
	call	close@PLT
	.loc 2 1135 27
	movl	-28(%rbp), %eax
	.loc 2 1135 18
	movl	%eax, -44(%rbp)
	.loc 2 1137 11
	movq	-40(%rbp), %rax
	movq	%rax, %rdi
	call	register_proc
	jmp	.L139
.L140:
	.loc 2 1139 20
	movq	-40(%rbp), %rax
	movl	8(%rax), %eax
	.loc 2 1139 15
	testl	%eax, %eax
	jne	.L139
	.loc 2 1143 11
	movl	-28(%rbp), %eax
	movl	%eax, %edi
	call	close@PLT
	.loc 2 1144 11
	movl	-44(%rbp), %eax
	movl	$1, %esi
	movl	%eax, %edi
	call	move_fd
	.loc 2 1145 11
	movl	-32(%rbp), %eax
	movl	$0, %esi
	movl	%eax, %edi
	call	move_fd
	.loc 2 1147 11
	movq	compress_program(%rip), %rcx
	movq	compress_program(%rip), %rax
	movl	$0, %edx
	movq	%rcx, %rsi
	movq	%rax, %rdi
	movl	$0, %eax
	call	execlp@PLT
	.loc 2 1149 27
	call	__errno_location@PLT
	.loc 2 1149 11
	movl	(%rax), %eax
	leaq	.LC107(%rip), %rsi
	movl	%eax, %edi
	call	async_safe_die
.L139:
.LBE14:
	.loc 2 1153 10
	movl	-44(%rbp), %eax
	leaq	.LC108(%rip), %rsi
	movl	%eax, %edi
	call	fdopen@PLT
	.loc 2 1153 8
	movq	-56(%rbp), %rdx
	movq	%rax, (%rdx)
	.loc 2 1154 9
	movq	-56(%rbp), %rax
	movq	(%rax), %rax
	.loc 2 1154 6
	testq	%rax, %rax
	jne	.L142
	.loc 2 1155 56
	movq	-40(%rbp), %rax
	leaq	13(%rax), %rbx
	.loc 2 1155 15
	leaq	.LC109(%rip), %rdi
	call	gettext@PLT
	.loc 2 1155 5
	movq	%rbx, %rsi
	movq	%rax, %rdi
	call	sort_die
.L142:
	.loc 2 1157 10
	movq	-40(%rbp), %rax
.L143:
	.loc 2 1158 1 discriminator 1
	movq	-24(%rbp), %rcx
	xorq	%fs:40, %rcx
	je	.L144
	.loc 2 1158 1 is_stmt 0
	call	__stack_chk_fail@PLT
.L144:
	addq	$56, %rsp
	popq	%rbx
	popq	%rbp
	.cfi_def_cfa 7, 8
	ret
	.cfi_endproc
.LFE69:
	.size	maybe_create_temp, .-maybe_create_temp
	.type	create_temp, @function
create_temp:
.LFB70:
	.loc 2 1166 1 is_stmt 1
	.cfi_startproc
	endbr64
	pushq	%rbp
	.cfi_def_cfa_offset 16
	.cfi_offset 6, -16
	movq	%rsp, %rbp
	.cfi_def_cfa_register 6
	subq	$16, %rsp
	movq	%rdi, -8(%rbp)
	.loc 2 1167 10
	movq	-8(%rbp), %rax
	movl	$0, %esi
	movq	%rax, %rdi
	call	maybe_create_temp
	.loc 2 1168 1
	leave
	.cfi_def_cfa 7, 8
	ret
	.cfi_endproc
.LFE70:
	.size	create_temp, .-create_temp
	.section	.rodata
	.align 8
.LC110:
	.string	"couldn't create process for %s -d"
.LC111:
	.string	"-d"
	.align 8
.LC112:
	.string	"couldn't execute compress program (with -d)"
.LC113:
	.string	"r"
	.text
	.type	open_temp, @function
open_temp:
.LFB71:
	.loc 2 1177 1
	.cfi_startproc
	endbr64
	pushq	%rbp
	.cfi_def_cfa_offset 16
	.cfi_offset 6, -16
	movq	%rsp, %rbp
	.cfi_def_cfa_register 6
	pushq	%r12
	pushq	%rbx
	subq	$64, %rsp
	.cfi_offset 12, -24
	.cfi_offset 3, -32
	movq	%rdi, -72(%rbp)
	.loc 2 1177 1
	movq	%fs:40, %rax
	movq	%rax, -24(%rbp)
	xorl	%eax, %eax
	.loc 2 1179 9
	movq	$0, -40(%rbp)
	.loc 2 1181 11
	movq	-72(%rbp), %rax
	movzbl	12(%rax), %eax
	.loc 2 1181 6
	cmpb	$1, %al
	jne	.L148
	.loc 2 1182 5
	movq	-72(%rbp), %rax
	movl	8(%rax), %eax
	movl	%eax, %edi
	call	wait_proc
.L148:
	.loc 2 1184 22
	movq	-72(%rbp), %rax
	addq	$13, %rax
	.loc 2 1184 12
	movl	$0, %esi
	movq	%rax, %rdi
	movl	$0, %eax
	call	open@PLT
	movl	%eax, -52(%rbp)
	.loc 2 1185 6
	cmpl	$0, -52(%rbp)
	jns	.L149
	.loc 2 1186 12
	movl	$0, %eax
	jmp	.L157
.L149:
	.loc 2 1188 17
	leaq	-32(%rbp), %rax
	movl	$9, %esi
	movq	%rax, %rdi
	call	pipe_fork
	movl	%eax, -48(%rbp)
	.loc 2 1190 3
	cmpl	$-1, -48(%rbp)
	je	.L151
	cmpl	$0, -48(%rbp)
	je	.L152
	jmp	.L159
.L151:
	.loc 2 1193 11
	call	__errno_location@PLT
	movl	(%rax), %eax
	.loc 2 1193 10
	cmpl	$24, %eax
	je	.L154
.LBB15:
	.loc 2 1194 9
	movq	compress_program(%rip), %rax
	movq	%rax, %rsi
	movl	$4, %edi
	call	quotearg_style@PLT
	movq	%rax, %r12
	leaq	.LC110(%rip), %rdi
	call	gettext@PLT
	movq	%rax, %rbx
	call	__errno_location@PLT
	movl	(%rax), %eax
	movq	%r12, %rcx
	movq	%rbx, %rdx
	movl	%eax, %esi
	movl	$2, %edi
	movl	$0, %eax
	call	error@PLT
.L154:
.LBE15:
	.loc 2 1196 7
	movl	-52(%rbp), %eax
	movl	%eax, %edi
	call	close@PLT
	.loc 2 1197 7
	call	__errno_location@PLT
	.loc 2 1197 13
	movl	$24, (%rax)
	.loc 2 1198 7
	jmp	.L155
.L152:
	.loc 2 1203 7
	movl	-32(%rbp), %eax
	movl	%eax, %edi
	call	close@PLT
	.loc 2 1204 7
	movl	-52(%rbp), %eax
	movl	$0, %esi
	movl	%eax, %edi
	call	move_fd
	.loc 2 1205 7
	movl	-28(%rbp), %eax
	movl	$1, %esi
	movl	%eax, %edi
	call	move_fd
	.loc 2 1207 7
	movq	compress_program(%rip), %rsi
	movq	compress_program(%rip), %rax
	movl	$0, %ecx
	leaq	.LC111(%rip), %rdx
	movq	%rax, %rdi
	movl	$0, %eax
	call	execlp@PLT
	.loc 2 1209 23
	call	__errno_location@PLT
	.loc 2 1209 7
	movl	(%rax), %eax
	leaq	.LC112(%rip), %rsi
	movl	%eax, %edi
	call	async_safe_die
.L159:
	.loc 2 1212 17
	movq	-72(%rbp), %rax
	movl	-48(%rbp), %edx
	movl	%edx, 8(%rax)
	.loc 2 1213 7
	movq	-72(%rbp), %rax
	movq	%rax, %rdi
	call	register_proc
	.loc 2 1214 7
	movl	-52(%rbp), %eax
	movl	%eax, %edi
	call	close@PLT
	.loc 2 1215 7
	movl	-28(%rbp), %eax
	movl	%eax, %edi
	call	close@PLT
	.loc 2 1217 12
	movl	-32(%rbp), %eax
	leaq	.LC113(%rip), %rsi
	movl	%eax, %edi
	call	fdopen@PLT
	movq	%rax, -40(%rbp)
	.loc 2 1218 10
	cmpq	$0, -40(%rbp)
	jne	.L160
.LBB16:
	.loc 2 1220 29
	call	__errno_location@PLT
	.loc 2 1220 15
	movl	(%rax), %eax
	movl	%eax, -44(%rbp)
	.loc 2 1221 11
	movl	-32(%rbp), %eax
	movl	%eax, %edi
	call	close@PLT
	.loc 2 1222 11
	call	__errno_location@PLT
	.loc 2 1222 17
	movl	-44(%rbp), %edx
	movl	%edx, (%rax)
.L160:
.LBE16:
	.loc 2 1224 7
	nop
.L155:
	.loc 2 1227 10
	movq	-40(%rbp), %rax
.L157:
	.loc 2 1228 1 discriminator 1
	movq	-24(%rbp), %rcx
	xorq	%fs:40, %rcx
	je	.L158
	.loc 2 1228 1 is_stmt 0
	call	__stack_chk_fail@PLT
.L158:
	addq	$64, %rsp
	popq	%rbx
	popq	%r12
	popq	%rbp
	.cfi_def_cfa 7, 8
	ret
	.cfi_endproc
.LFE71:
	.size	open_temp, .-open_temp
	.type	add_temp_dir, @function
add_temp_dir:
.LFB72:
	.loc 2 1233 1 is_stmt 1
	.cfi_startproc
	endbr64
	pushq	%rbp
	.cfi_def_cfa_offset 16
	.cfi_offset 6, -16
	movq	%rsp, %rbp
	.cfi_def_cfa_register 6
	subq	$16, %rsp
	movq	%rdi, -8(%rbp)
	.loc 2 1234 22
	movq	temp_dir_count(%rip), %rdx
	movq	temp_dir_alloc(%rip), %rax
	.loc 2 1234 6
	cmpq	%rax, %rdx
	jne	.L162
.LBB17:
	.loc 2 1235 17
	movq	temp_dirs(%rip), %rax
	movl	$8, %edx
	leaq	temp_dir_alloc(%rip), %rsi
	movq	%rax, %rdi
	call	x2nrealloc@PLT
	.loc 2 1235 15
	movq	%rax, temp_dirs(%rip)
.L162:
.LBE17:
	.loc 2 1237 12
	movq	temp_dirs(%rip), %rcx
	.loc 2 1237 27
	movq	temp_dir_count(%rip), %rax
	leaq	1(%rax), %rdx
	movq	%rdx, temp_dir_count(%rip)
	.loc 2 1237 12
	salq	$3, %rax
	leaq	(%rcx,%rax), %rdx
	.loc 2 1237 31
	movq	-8(%rbp), %rax
	movq	%rax, (%rdx)
	.loc 2 1238 1
	nop
	leave
	.cfi_def_cfa 7, 8
	ret
	.cfi_endproc
.LFE72:
	.size	add_temp_dir, .-add_temp_dir
	.section	.rodata
.LC114:
	.string	"warning: cannot remove: %s"
	.text
	.type	zaptemp, @function
zaptemp:
.LFB73:
	.loc 2 1244 1
	.cfi_startproc
	endbr64
	pushq	%rbp
	.cfi_def_cfa_offset 16
	.cfi_offset 6, -16
	movq	%rsp, %rbp
	.cfi_def_cfa_register 6
	pushq	%rbx
	subq	$200, %rsp
	.cfi_offset 3, -24
	movq	%rdi, -200(%rbp)
	.loc 2 1244 1
	movq	%fs:40, %rax
	movq	%rax, -24(%rbp)
	xorl	%eax, %eax
	.loc 2 1249 7
	movl	$0, -192(%rbp)
	.loc 2 1252 14
	leaq	temphead(%rip), %rax
	movq	%rax, -184(%rbp)
	.loc 2 1252 3
	jmp	.L164
.L165:
	.loc 2 1252 64
	movq	-176(%rbp), %rax
	movq	%rax, -184(%rbp)
.L164:
	.loc 2 1252 33 discriminator 1
	movq	-184(%rbp), %rax
	movq	(%rax), %rax
	movq	%rax, -176(%rbp)
	.loc 2 1252 27 discriminator 1
	movq	-176(%rbp), %rax
	addq	$13, %rax
	.loc 2 1252 3 discriminator 1
	cmpq	%rax, -200(%rbp)
	jne	.L165
	.loc 2 1255 11
	movq	-176(%rbp), %rax
	movzbl	12(%rax), %eax
	.loc 2 1255 6
	cmpb	$1, %al
	jne	.L166
	.loc 2 1256 5
	movq	-176(%rbp), %rax
	movl	8(%rax), %eax
	movl	%eax, %edi
	call	wait_proc
.L166:
	.loc 2 1259 8
	movq	-176(%rbp), %rax
	movq	(%rax), %rax
	movq	%rax, -168(%rbp)
	.loc 2 1260 3
	leaq	-160(%rbp), %rax
	movq	%rax, %rdi
	call	cs_enter
	.loc 2 1261 19
	movq	-200(%rbp), %rax
	movq	%rax, %rdi
	call	unlink@PLT
	movl	%eax, -188(%rbp)
	.loc 2 1262 18
	call	__errno_location@PLT
	.loc 2 1262 16
	movl	(%rax), %eax
	movl	%eax, -192(%rbp)
	.loc 2 1263 10
	movq	-184(%rbp), %rax
	movq	-168(%rbp), %rdx
	movq	%rdx, (%rax)
	.loc 2 1264 3
	leaq	-160(%rbp), %rax
	movq	%rax, %rdi
	call	cs_leave
	.loc 2 1266 6
	cmpl	$0, -188(%rbp)
	je	.L167
	.loc 2 1267 5
	movq	-200(%rbp), %rax
	movq	%rax, %rdx
	movl	$3, %esi
	movl	$0, %edi
	call	quotearg_n_style_colon@PLT
	movq	%rax, %rbx
	.loc 2 1267 29
	leaq	.LC114(%rip), %rdi
	call	gettext@PLT
	movq	%rax, %rdx
	.loc 2 1267 5
	movl	-192(%rbp), %eax
	movq	%rbx, %rcx
	movl	%eax, %esi
	movl	$0, %edi
	movl	$0, %eax
	call	error@PLT
.L167:
	.loc 2 1268 6
	cmpq	$0, -168(%rbp)
	jne	.L168
	.loc 2 1269 14
	movq	-184(%rbp), %rax
	movq	%rax, temptail(%rip)
.L168:
	.loc 2 1270 3
	movq	-176(%rbp), %rax
	movq	%rax, %rdi
	call	free@PLT
	.loc 2 1271 1
	nop
	movq	-24(%rbp), %rax
	xorq	%fs:40, %rax
	je	.L169
	call	__stack_chk_fail@PLT
.L169:
	addq	$200, %rsp
	popq	%rbx
	popq	%rbp
	.cfi_def_cfa 7, 8
	ret
	.cfi_endproc
.LFE73:
	.size	zaptemp, .-zaptemp
	.type	struct_month_cmp, @function
struct_month_cmp:
.LFB74:
	.loc 2 1277 1
	.cfi_startproc
	endbr64
	pushq	%rbp
	.cfi_def_cfa_offset 16
	.cfi_offset 6, -16
	movq	%rsp, %rbp
	.cfi_def_cfa_register 6
	subq	$32, %rsp
	movq	%rdi, -24(%rbp)
	movq	%rsi, -32(%rbp)
	.loc 2 1278 23
	movq	-24(%rbp), %rax
	movq	%rax, -16(%rbp)
	.loc 2 1279 23
	movq	-32(%rbp), %rax
	movq	%rax, -8(%rbp)
	.loc 2 1280 10
	movq	-8(%rbp), %rax
	movq	(%rax), %rdx
	movq	-16(%rbp), %rax
	movq	(%rax), %rax
	movq	%rdx, %rsi
	movq	%rax, %rdi
	call	strcmp@PLT
	.loc 2 1281 1
	leave
	.cfi_def_cfa 7, 8
	ret
	.cfi_endproc
.LFE74:
	.size	struct_month_cmp, .-struct_month_cmp
	.type	inittables, @function
inittables:
.LFB75:
	.loc 2 1289 1
	.cfi_startproc
	endbr64
	pushq	%rbp
	.cfi_def_cfa_offset 16
	.cfi_offset 6, -16
	movq	%rsp, %rbp
	.cfi_def_cfa_register 6
	pushq	%rbx
	subq	$56, %rsp
	.cfi_offset 3, -24
	.loc 2 1292 10
	movq	$0, -64(%rbp)
	.loc 2 1292 3
	jmp	.L173
.L176:
	.loc 2 1294 19
	movq	-64(%rbp), %rax
	movzbl	%al, %eax
	movl	%eax, %edi
	call	field_sep
	.loc 2 1294 17
	leaq	blanks(%rip), %rcx
	movq	-64(%rbp), %rdx
	addq	%rcx, %rdx
	movb	%al, (%rdx)
	.loc 2 1295 26
	call	__ctype_b_loc@PLT
	movq	(%rax), %rax
	movq	-64(%rbp), %rdx
	movslq	%edx, %rdx
	addq	%rdx, %rdx
	addq	%rdx, %rax
	movzwl	(%rax), %eax
	movzwl	%ax, %eax
	andl	$16384, %eax
	.loc 2 1295 24
	testl	%eax, %eax
	sete	%dl
	.loc 2 1295 22
	leaq	nonprinting(%rip), %rcx
	movq	-64(%rbp), %rax
	addq	%rcx, %rax
	movb	%dl, (%rax)
	.loc 2 1296 28
	call	__ctype_b_loc@PLT
	movq	(%rax), %rax
	movq	-64(%rbp), %rdx
	movslq	%edx, %rdx
	addq	%rdx, %rdx
	addq	%rdx, %rax
	movzwl	(%rax), %eax
	movzwl	%ax, %eax
	andl	$8, %eax
	.loc 2 1296 40
	testl	%eax, %eax
	jne	.L174
	.loc 2 1296 45 discriminator 1
	movq	-64(%rbp), %rax
	movzbl	%al, %eax
	movl	%eax, %edi
	call	field_sep
	.loc 2 1296 43 discriminator 1
	xorl	$1, %eax
	.loc 2 1296 40 discriminator 1
	testb	%al, %al
	je	.L174
	.loc 2 1296 40 is_stmt 0 discriminator 3
	movl	$1, %eax
	jmp	.L175
.L174:
	.loc 2 1296 40 discriminator 4
	movl	$0, %eax
.L175:
	.loc 2 1296 40 discriminator 6
	andl	$1, %eax
	.loc 2 1296 24 is_stmt 1 discriminator 6
	leaq	nondictionary(%rip), %rcx
	movq	-64(%rbp), %rdx
	addq	%rcx, %rdx
	movb	%al, (%rdx)
	.loc 2 1297 25 discriminator 6
	movq	-64(%rbp), %rax
	movl	%eax, %edi
	call	toupper@PLT
	.loc 2 1297 23 discriminator 6
	movl	%eax, %ecx
	leaq	fold_toupper(%rip), %rdx
	movq	-64(%rbp), %rax
	addq	%rdx, %rax
	movb	%cl, (%rax)
	.loc 2 1292 30 discriminator 6
	addq	$1, -64(%rbp)
.L173:
	.loc 2 1292 3 discriminator 2
	cmpq	$255, -64(%rbp)
	jbe	.L176
	.loc 2 1302 7
	movzbl	hard_LC_TIME(%rip), %eax
	.loc 2 1302 6
	testb	%al, %al
	je	.L183
	.loc 2 1304 14
	movq	$0, -64(%rbp)
	.loc 2 1304 7
	jmp	.L178
.L182:
.LBB18:
	.loc 2 1311 36
	movq	-64(%rbp), %rax
	addl	$131086, %eax
	.loc 2 1311 15
	movl	%eax, %edi
	call	nl_langinfo@PLT
	movq	%rax, -40(%rbp)
	.loc 2 1312 19
	movq	-40(%rbp), %rax
	movq	%rax, %rdi
	call	strlen@PLT
	movq	%rax, -32(%rbp)
	.loc 2 1313 37
	movq	-32(%rbp), %rax
	addq	$1, %rax
	movq	%rax, %rdi
	call	xmalloc@PLT
	movq	%rax, -24(%rbp)
	.loc 2 1313 28
	movq	-64(%rbp), %rax
	salq	$4, %rax
	movq	%rax, %rcx
	leaq	monthtab(%rip), %rdx
	movq	-24(%rbp), %rax
	movq	%rax, (%rcx,%rdx)
	.loc 2 1314 31
	movq	-64(%rbp), %rax
	addl	$1, %eax
	movl	%eax, %ecx
	.loc 2 1314 27
	movq	-64(%rbp), %rax
	salq	$4, %rax
	movq	%rax, %rdx
	leaq	8+monthtab(%rip), %rax
	movl	%ecx, (%rdx,%rax)
	.loc 2 1316 22
	movq	$0, -48(%rbp)
	.loc 2 1316 18
	movq	-48(%rbp), %rax
	movq	%rax, -56(%rbp)
	.loc 2 1316 11
	jmp	.L179
.L181:
	.loc 2 1317 19
	call	__ctype_b_loc@PLT
	movq	(%rax), %rbx
	movq	-40(%rbp), %rdx
	movq	-56(%rbp), %rax
	addq	%rdx, %rax
	movzbl	(%rax), %eax
	movsbl	%al, %eax
	movl	%eax, %edi
	call	to_uchar
	movzbl	%al, %eax
	addq	%rax, %rax
	addq	%rbx, %rax
	movzwl	(%rax), %eax
	movzwl	%ax, %eax
	andl	$1, %eax
	.loc 2 1317 16
	testl	%eax, %eax
	jne	.L180
	.loc 2 1318 51
	movq	-40(%rbp), %rdx
	movq	-56(%rbp), %rax
	addq	%rdx, %rax
	movzbl	(%rax), %eax
	.loc 2 1318 40
	movsbl	%al, %eax
	movl	%eax, %edi
	call	to_uchar
	movzbl	%al, %ecx
	.loc 2 1318 21
	movq	-48(%rbp), %rax
	leaq	1(%rax), %rdx
	movq	%rdx, -48(%rbp)
	.loc 2 1318 19
	movq	-24(%rbp), %rdx
	addq	%rax, %rdx
	.loc 2 1318 39
	movslq	%ecx, %rax
	leaq	fold_toupper(%rip), %rcx
	movzbl	(%rax,%rcx), %eax
	.loc 2 1318 25
	movb	%al, (%rdx)
.L180:
	.loc 2 1316 39 discriminator 2
	addq	$1, -56(%rbp)
.L179:
	.loc 2 1316 11 discriminator 1
	movq	-56(%rbp), %rax
	cmpq	-32(%rbp), %rax
	jb	.L181
	.loc 2 1319 15 discriminator 2
	movq	-24(%rbp), %rdx
	movq	-48(%rbp), %rax
	addq	%rdx, %rax
	.loc 2 1319 19 discriminator 2
	movb	$0, (%rax)
.LBE18:
	.loc 2 1304 41 discriminator 2
	addq	$1, -64(%rbp)
.L178:
	.loc 2 1304 7 discriminator 1
	cmpq	$11, -64(%rbp)
	jbe	.L182
	.loc 2 1321 7
	leaq	struct_month_cmp(%rip), %rcx
	movl	$16, %edx
	movl	$12, %esi
	leaq	monthtab(%rip), %rdi
	call	qsort@PLT
.L183:
	.loc 2 1324 1
	nop
	addq	$56, %rsp
	popq	%rbx
	popq	%rbp
	.cfi_def_cfa 7, 8
	ret
	.cfi_endproc
.LFE75:
	.size	inittables, .-inittables
	.section	.rodata
.LC115:
	.string	"invalid --%s argument %s"
.LC116:
	.string	"2"
.LC117:
	.string	"minimum --%s argument is %s"
.LC118:
	.string	"--%s argument %s too large"
	.align 8
.LC119:
	.string	"maximum --%s argument with current rlimit is %s"
	.text
	.type	specify_nmerge, @function
specify_nmerge:
.LFB76:
	.loc 2 1331 1
	.cfi_startproc
	endbr64
	pushq	%rbp
	.cfi_def_cfa_offset 16
	.cfi_offset 6, -16
	movq	%rsp, %rbp
	.cfi_def_cfa_register 6
	pushq	%r12
	pushq	%rbx
	subq	$80, %rsp
	.cfi_offset 12, -24
	.cfi_offset 3, -32
	movl	%edi, -84(%rbp)
	movl	%esi, %eax
	movq	%rdx, -96(%rbp)
	movb	%al, -88(%rbp)
	.loc 2 1331 1
	movq	%fs:40, %rax
	movq	%rax, -24(%rbp)
	xorl	%eax, %eax
	.loc 2 1334 25
	leaq	-72(%rbp), %rdx
	movq	-96(%rbp), %rax
	leaq	.LC18(%rip), %r8
	movq	%rdx, %rcx
	movl	$10, %edx
	movl	$0, %esi
	movq	%rax, %rdi
	call	xstrtoumax@PLT
	movl	%eax, -80(%rbp)
	.loc 2 1339 31
	leaq	-64(%rbp), %rax
	movq	%rax, %rsi
	movl	$7, %edi
	call	getrlimit@PLT
	.loc 2 1339 16
	testl	%eax, %eax
	jne	.L185
	.loc 2 1340 39 discriminator 1
	movq	-64(%rbp), %rax
	.loc 2 1339 16 discriminator 1
	subl	$3, %eax
	jmp	.L186
.L185:
	.loc 2 1339 16 is_stmt 0 discriminator 2
	movl	$17, %eax
.L186:
	.loc 2 1339 16 discriminator 4
	movl	%eax, -76(%rbp)
	.loc 2 1344 6 is_stmt 1 discriminator 4
	cmpl	$0, -80(%rbp)
	jne	.L187
	.loc 2 1346 14
	movq	-72(%rbp), %rax
	movl	%eax, nmerge(%rip)
	.loc 2 1347 18
	movl	nmerge(%rip), %eax
	movl	%eax, %edx
	movq	-72(%rbp), %rax
	.loc 2 1347 10
	cmpq	%rax, %rdx
	je	.L188
	.loc 2 1348 11
	movl	$1, -80(%rbp)
	jmp	.L187
.L188:
	.loc 2 1351 22
	movl	nmerge(%rip), %eax
	.loc 2 1351 14
	cmpl	$1, %eax
	ja	.L189
.LBB19:
	.loc 2 1353 15
	movq	-96(%rbp), %rax
	movq	%rax, %rdi
	call	quote@PLT
	movq	%rax, %r12
	movl	-84(%rbp), %eax
	cltq
	salq	$5, %rax
	movq	%rax, %rdx
	leaq	long_options(%rip), %rax
	movq	(%rdx,%rax), %rbx
	.loc 2 1353 28
	leaq	.LC115(%rip), %rdi
	call	gettext@PLT
	.loc 2 1353 15
	movq	%r12, %r8
	movq	%rbx, %rcx
	movq	%rax, %rdx
	movl	$0, %esi
	movl	$0, %edi
	movl	$0, %eax
	call	error@PLT
	.loc 2 1355 15
	leaq	.LC116(%rip), %rdi
	call	quote@PLT
	movq	%rax, %r12
	movl	-84(%rbp), %eax
	cltq
	salq	$5, %rax
	movq	%rax, %rdx
	leaq	long_options(%rip), %rax
	movq	(%rdx,%rax), %rbx
	leaq	.LC117(%rip), %rdi
	call	gettext@PLT
	movq	%r12, %r8
	movq	%rbx, %rcx
	movq	%rax, %rdx
	movl	$0, %esi
	movl	$2, %edi
	movl	$0, %eax
	call	error@PLT
.L189:
.LBE19:
	.loc 2 1359 31
	movl	nmerge(%rip), %eax
	.loc 2 1359 19
	cmpl	%eax, -76(%rbp)
	jnb	.L194
	.loc 2 1361 17
	movl	$1, -80(%rbp)
.L187:
	.loc 2 1368 6
	cmpl	$1, -80(%rbp)
	jne	.L192
.LBB20:
	.loc 2 1371 7
	movq	-96(%rbp), %rax
	movq	%rax, %rdi
	call	quote@PLT
	movq	%rax, %r12
	movl	-84(%rbp), %eax
	cltq
	salq	$5, %rax
	movq	%rax, %rdx
	leaq	long_options(%rip), %rax
	movq	(%rdx,%rax), %rbx
	.loc 2 1371 20
	leaq	.LC118(%rip), %rdi
	call	gettext@PLT
	.loc 2 1371 7
	movq	%r12, %r8
	movq	%rbx, %rcx
	movq	%rax, %rdx
	movl	$0, %esi
	movl	$0, %edi
	movl	$0, %eax
	call	error@PLT
	.loc 2 1373 7
	leaq	-35(%rbp), %rdx
	movl	-76(%rbp), %eax
	movq	%rdx, %rsi
	movl	%eax, %edi
	call	uinttostr@PLT
	movq	%rax, %r12
	movl	-84(%rbp), %eax
	cltq
	salq	$5, %rax
	movq	%rax, %rdx
	leaq	long_options(%rip), %rax
	movq	(%rdx,%rax), %rbx
	leaq	.LC119(%rip), %rdi
	call	gettext@PLT
	movq	%r12, %r8
	movq	%rbx, %rcx
	movq	%rax, %rdx
	movl	$0, %esi
	movl	$2, %edi
	movl	$0, %eax
	call	error@PLT
.L192:
.LBE20:
	.loc 2 1379 5
	movsbl	-88(%rbp), %edx
	movq	-96(%rbp), %rcx
	movl	-84(%rbp), %esi
	movl	-80(%rbp), %eax
	movq	%rcx, %r8
	leaq	long_options(%rip), %rcx
	movl	%eax, %edi
	call	xstrtol_fatal@PLT
.L194:
	.loc 2 1364 13
	nop
	.loc 2 1380 1
	movq	-24(%rbp), %rax
	xorq	%fs:40, %rax
	je	.L193
	call	__stack_chk_fail@PLT
.L193:
	addq	$80, %rsp
	popq	%rbx
	popq	%r12
	popq	%rbp
	.cfi_def_cfa 7, 8
	ret
	.cfi_endproc
.LFE76:
	.size	specify_nmerge, .-specify_nmerge
	.section	.rodata
.LC120:
	.string	"EgGkKmMPtTYZ"
	.text
	.type	specify_sort_size, @function
specify_sort_size:
.LFB77:
	.loc 2 1385 1
	.cfi_startproc
	endbr64
	pushq	%rbp
	.cfi_def_cfa_offset 16
	.cfi_offset 6, -16
	movq	%rsp, %rbp
	.cfi_def_cfa_register 6
	subq	$64, %rsp
	movl	%edi, -52(%rbp)
	movl	%esi, %eax
	movq	%rdx, -64(%rbp)
	movb	%al, -56(%rbp)
	.loc 2 1385 1
	movq	%fs:40, %rax
	movq	%rax, -8(%rbp)
	xorl	%eax, %eax
	.loc 2 1388 25
	leaq	-32(%rbp), %rdx
	leaq	-24(%rbp), %rsi
	movq	-64(%rbp), %rax
	leaq	.LC120(%rip), %r8
	movq	%rdx, %rcx
	movl	$10, %edx
	movq	%rax, %rdi
	call	xstrtoumax@PLT
	movl	%eax, -36(%rbp)
	.loc 2 1391 6
	cmpl	$0, -36(%rbp)
	jne	.L196
	.loc 2 1391 26 discriminator 1
	movq	-24(%rbp), %rax
	subq	$1, %rax
	movzbl	(%rax), %eax
	movsbl	%al, %eax
	subl	$48, %eax
	.loc 2 1391 23 discriminator 1
	cmpl	$9, %eax
	ja	.L196
	.loc 2 1393 13
	movq	-32(%rbp), %rax
	.loc 2 1393 10
	movabsq	$18014398509481983, %rdx
	cmpq	%rdx, %rax
	ja	.L197
	.loc 2 1394 11
	movq	-32(%rbp), %rax
	salq	$10, %rax
	movq	%rax, -32(%rbp)
	jmp	.L196
.L197:
	.loc 2 1396 11
	movl	$1, -36(%rbp)
.L196:
	.loc 2 1400 6
	cmpl	$2, -36(%rbp)
	jne	.L215
	.loc 2 1400 43 discriminator 1
	movq	-24(%rbp), %rax
	subq	$1, %rax
	movzbl	(%rax), %eax
	movsbl	%al, %eax
	subl	$48, %eax
	.loc 2 1400 40 discriminator 1
	cmpl	$9, %eax
	ja	.L215
	.loc 2 1400 75 discriminator 2
	movq	-24(%rbp), %rax
	addq	$1, %rax
	movzbl	(%rax), %eax
	.loc 2 1400 64 discriminator 2
	testb	%al, %al
	jne	.L215
	.loc 2 1401 19
	movq	-24(%rbp), %rax
	movzbl	(%rax), %eax
	movsbl	%al, %eax
	.loc 2 1401 5
	cmpl	$37, %eax
	je	.L199
	cmpl	$98, %eax
	jne	.L198
	.loc 2 1404 11
	movl	$0, -36(%rbp)
	.loc 2 1405 9
	jmp	.L198
.L199:
.LBB21:
	.loc 2 1409 24
	call	physmem_total@PLT
	movapd	%xmm0, %xmm1
	.loc 2 1409 41
	movq	-32(%rbp), %rax
	testq	%rax, %rax
	js	.L200
	cvtsi2sdq	%rax, %xmm0
	jmp	.L201
.L200:
	movq	%rax, %rdx
	shrq	%rdx
	andl	$1, %eax
	orq	%rax, %rdx
	cvtsi2sdq	%rdx, %xmm0
	addsd	%xmm0, %xmm0
.L201:
	mulsd	%xmm1, %xmm0
	.loc 2 1409 18
	movsd	.LC121(%rip), %xmm1
	divsd	%xmm1, %xmm0
	movsd	%xmm0, -16(%rbp)
	.loc 2 1412 14
	movsd	.LC122(%rip), %xmm0
	comisd	-16(%rbp), %xmm0
	jbe	.L214
	.loc 2 1414 17
	movsd	-16(%rbp), %xmm0
	comisd	.LC123(%rip), %xmm0
	jnb	.L204
	movsd	-16(%rbp), %xmm0
	cvttsd2siq	%xmm0, %rax
	jmp	.L205
.L204:
	movsd	-16(%rbp), %xmm0
	movsd	.LC123(%rip), %xmm1
	subsd	%xmm1, %xmm0
	cvttsd2siq	%xmm0, %rax
	movabsq	$-9223372036854775808, %rdx
	xorq	%rdx, %rax
.L205:
	movq	%rax, -32(%rbp)
	.loc 2 1415 17
	movl	$0, -36(%rbp)
.LBE21:
	.loc 2 1420 9
	jmp	.L198
.L214:
.LBB22:
	.loc 2 1418 15
	movl	$1, -36(%rbp)
.LBE22:
	.loc 2 1420 9
	jmp	.L198
.L215:
	.loc 2 1423 3
	nop
.L198:
	.loc 2 1423 6
	cmpl	$0, -36(%rbp)
	jne	.L207
	.loc 2 1427 13
	movq	-32(%rbp), %rdx
	movq	sort_size(%rip), %rax
	.loc 2 1427 10
	cmpq	%rax, %rdx
	jb	.L216
	.loc 2 1430 17
	movq	-32(%rbp), %rax
	movq	%rax, sort_size(%rip)
	.loc 2 1431 21
	movq	sort_size(%rip), %rdx
	movq	-32(%rbp), %rax
	.loc 2 1431 10
	cmpq	%rax, %rdx
	jne	.L210
	.loc 2 1433 23
	movl	nmerge(%rip), %eax
	movl	%eax, %edx
	movq	%rdx, %rax
	salq	$4, %rax
	addq	%rdx, %rax
	addq	%rax, %rax
	movq	%rax, %rdx
	movq	sort_size(%rip), %rax
	cmpq	%rax, %rdx
	cmovnb	%rdx, %rax
	.loc 2 1433 21
	movq	%rax, sort_size(%rip)
	.loc 2 1434 11
	jmp	.L195
.L210:
	.loc 2 1437 9
	movl	$1, -36(%rbp)
.L207:
	.loc 2 1440 3
	movsbl	-56(%rbp), %edx
	movq	-64(%rbp), %rcx
	movl	-52(%rbp), %esi
	movl	-36(%rbp), %eax
	movq	%rcx, %r8
	leaq	long_options(%rip), %rcx
	movl	%eax, %edi
	call	xstrtol_fatal@PLT
.L216:
	.loc 2 1428 9
	nop
.L195:
	.loc 2 1441 1
	movq	-8(%rbp), %rax
	xorq	%fs:40, %rax
	je	.L212
	call	__stack_chk_fail@PLT
.L212:
	leave
	.cfi_def_cfa 7, 8
	ret
	.cfi_endproc
.LFE77:
	.size	specify_sort_size, .-specify_sort_size
	.section	.rodata
	.align 8
.LC124:
	.string	"number in parallel must be nonzero"
	.text
	.type	specify_nthreads, @function
specify_nthreads:
.LFB78:
	.loc 2 1446 1
	.cfi_startproc
	endbr64
	pushq	%rbp
	.cfi_def_cfa_offset 16
	.cfi_offset 6, -16
	movq	%rsp, %rbp
	.cfi_def_cfa_register 6
	subq	$48, %rsp
	movl	%edi, -36(%rbp)
	movl	%esi, %eax
	movq	%rdx, -48(%rbp)
	movb	%al, -40(%rbp)
	.loc 2 1446 1
	movq	%fs:40, %rax
	movq	%rax, -8(%rbp)
	xorl	%eax, %eax
	.loc 2 1448 25
	leaq	-16(%rbp), %rdx
	movq	-48(%rbp), %rax
	leaq	.LC18(%rip), %r8
	movq	%rdx, %rcx
	movl	$10, %edx
	movl	$0, %esi
	movq	%rax, %rdi
	call	xstrtoumax@PLT
	movl	%eax, -20(%rbp)
	.loc 2 1449 6
	cmpl	$1, -20(%rbp)
	jne	.L218
	.loc 2 1450 12
	movq	$-1, %rax
	jmp	.L222
.L218:
	.loc 2 1451 6
	cmpl	$0, -20(%rbp)
	je	.L220
	.loc 2 1452 5
	movsbl	-40(%rbp), %edx
	movq	-48(%rbp), %rcx
	movl	-36(%rbp), %esi
	movl	-20(%rbp), %eax
	movq	%rcx, %r8
	leaq	long_options(%rip), %rcx
	movl	%eax, %edi
	call	xstrtol_fatal@PLT
.L220:
	.loc 2 1455 16
	movq	-16(%rbp), %rax
	.loc 2 1455 6
	testq	%rax, %rax
	jne	.L221
.LBB23:
	.loc 2 1456 5
	leaq	.LC124(%rip), %rdi
	call	gettext@PLT
	movq	%rax, %rdx
	movl	$0, %esi
	movl	$2, %edi
	movl	$0, %eax
	call	error@PLT
.L221:
.LBE23:
	.loc 2 1457 10
	movq	-16(%rbp), %rax
.L222:
	.loc 2 1458 1 discriminator 1
	movq	-8(%rbp), %rcx
	xorq	%fs:40, %rcx
	je	.L223
	.loc 2 1458 1 is_stmt 0
	call	__stack_chk_fail@PLT
.L223:
	leave
	.cfi_def_cfa 7, 8
	ret
	.cfi_endproc
.LFE78:
	.size	specify_nthreads, .-specify_nthreads
	.type	default_sort_size, @function
default_sort_size:
.LFB79:
	.loc 2 1463 1 is_stmt 1
	.cfi_startproc
	endbr64
	pushq	%rbp
	.cfi_def_cfa_offset 16
	.cfi_offset 6, -16
	movq	%rsp, %rbp
	.cfi_def_cfa_register 6
	subq	$64, %rsp
	.loc 2 1463 1
	movq	%fs:40, %rax
	movq	%rax, -8(%rbp)
	xorl	%eax, %eax
	.loc 2 1468 10
	movq	$-1, -64(%rbp)
	.loc 2 1470 7
	leaq	-32(%rbp), %rax
	movq	%rax, %rsi
	movl	$2, %edi
	call	getrlimit@PLT
	.loc 2 1470 6
	testl	%eax, %eax
	jne	.L225
	.loc 2 1470 54 discriminator 1
	movq	-32(%rbp), %rax
	.loc 2 1470 45 discriminator 1
	cmpq	%rax, -64(%rbp)
	jbe	.L225
	.loc 2 1471 10
	movq	-32(%rbp), %rax
	movq	%rax, -64(%rbp)
.L225:
	.loc 2 1473 7
	leaq	-32(%rbp), %rax
	movq	%rax, %rsi
	movl	$9, %edi
	call	getrlimit@PLT
	.loc 2 1473 6
	testl	%eax, %eax
	jne	.L226
	.loc 2 1473 52 discriminator 1
	movq	-32(%rbp), %rax
	.loc 2 1473 43 discriminator 1
	cmpq	%rax, -64(%rbp)
	jbe	.L226
	.loc 2 1474 10
	movq	-32(%rbp), %rax
	movq	%rax, -64(%rbp)
.L226:
	.loc 2 1479 8
	movq	-64(%rbp), %rax
	shrq	%rax
	movq	%rax, -64(%rbp)
	.loc 2 1484 7
	leaq	-32(%rbp), %rax
	movq	%rax, %rsi
	movl	$5, %edi
	call	getrlimit@PLT
	.loc 2 1484 6
	testl	%eax, %eax
	jne	.L227
	.loc 2 1484 53 discriminator 1
	movq	-32(%rbp), %rax
	.loc 2 1484 63 discriminator 1
	shrq	$4, %rax
	movq	%rax, %rdx
	.loc 2 1484 68 discriminator 1
	movq	%rdx, %rax
	salq	$4, %rax
	subq	%rdx, %rax
	.loc 2 1484 44 discriminator 1
	cmpq	%rax, -64(%rbp)
	jbe	.L227
	.loc 2 1485 18
	movq	-32(%rbp), %rax
	.loc 2 1485 28
	shrq	$4, %rax
	movq	%rax, %rdx
	.loc 2 1485 10
	movq	%rdx, %rax
	salq	$4, %rax
	subq	%rdx, %rax
	movq	%rax, -64(%rbp)
.L227:
	.loc 2 1490 18
	call	physmem_available@PLT
	movq	%xmm0, %rax
	movq	%rax, -56(%rbp)
	.loc 2 1491 18
	call	physmem_total@PLT
	movq	%xmm0, %rax
	movq	%rax, -48(%rbp)
	.loc 2 1492 16
	movsd	-48(%rbp), %xmm0
	movsd	.LC125(%rip), %xmm1
	divsd	%xmm1, %xmm0
	movapd	%xmm0, %xmm1
	movsd	-56(%rbp), %xmm0
	comisd	%xmm1, %xmm0
	jbe	.L248
	.loc 2 1492 16 is_stmt 0 discriminator 1
	movsd	-56(%rbp), %xmm0
	jmp	.L230
.L248:
	.loc 2 1492 16 discriminator 2
	movsd	-48(%rbp), %xmm0
	movsd	.LC125(%rip), %xmm1
	divsd	%xmm1, %xmm0
.L230:
	.loc 2 1492 10 is_stmt 1 discriminator 4
	movsd	%xmm0, -40(%rbp)
	.loc 2 1495 13 discriminator 4
	movsd	-48(%rbp), %xmm1
	movsd	.LC126(%rip), %xmm0
	mulsd	%xmm0, %xmm1
	.loc 2 1495 20 discriminator 4
	movq	-64(%rbp), %rax
	testq	%rax, %rax
	js	.L231
	cvtsi2sdq	%rax, %xmm0
	jmp	.L232
.L231:
	movq	%rax, %rdx
	shrq	%rdx
	andl	$1, %eax
	orq	%rax, %rdx
	cvtsi2sdq	%rdx, %xmm0
	addsd	%xmm0, %xmm0
.L232:
	.loc 2 1495 6 discriminator 4
	comisd	%xmm1, %xmm0
	jbe	.L233
	.loc 2 1496 18
	movsd	-48(%rbp), %xmm1
	movsd	.LC126(%rip), %xmm0
	mulsd	%xmm1, %xmm0
	.loc 2 1496 10
	comisd	.LC123(%rip), %xmm0
	jnb	.L235
	cvttsd2siq	%xmm0, %rax
	movq	%rax, -64(%rbp)
	jmp	.L236
.L235:
	movsd	.LC123(%rip), %xmm1
	subsd	%xmm1, %xmm0
	cvttsd2siq	%xmm0, %rax
	movq	%rax, -64(%rbp)
	movabsq	$-9223372036854775808, %rax
	xorq	%rax, -64(%rbp)
.L236:
	movq	-64(%rbp), %rax
	movq	%rax, -64(%rbp)
.L233:
	.loc 2 1501 11
	movq	-64(%rbp), %rax
	testq	%rax, %rax
	js	.L237
	cvtsi2sdq	%rax, %xmm0
	jmp	.L238
.L237:
	movq	%rax, %rdx
	shrq	%rdx
	andl	$1, %eax
	orq	%rax, %rdx
	cvtsi2sdq	%rdx, %xmm0
	addsd	%xmm0, %xmm0
.L238:
	.loc 2 1501 6
	comisd	-40(%rbp), %xmm0
	jbe	.L239
	.loc 2 1502 10
	movsd	-40(%rbp), %xmm0
	comisd	.LC123(%rip), %xmm0
	jnb	.L241
	movsd	-40(%rbp), %xmm0
	cvttsd2siq	%xmm0, %rax
	movq	%rax, -64(%rbp)
	jmp	.L242
.L241:
	movsd	-40(%rbp), %xmm0
	movsd	.LC123(%rip), %xmm1
	subsd	%xmm1, %xmm0
	cvttsd2siq	%xmm0, %rax
	movq	%rax, -64(%rbp)
	movabsq	$-9223372036854775808, %rax
	xorq	%rax, -64(%rbp)
.L242:
	movq	-64(%rbp), %rax
	movq	%rax, -64(%rbp)
.L239:
	.loc 2 1503 10
	movl	nmerge(%rip), %eax
	movl	%eax, %edx
	movq	%rdx, %rax
	salq	$4, %rax
	addq	%rdx, %rax
	addq	%rax, %rax
	cmpq	%rax, -64(%rbp)
	cmovnb	-64(%rbp), %rax
	.loc 2 1504 1
	movq	-8(%rbp), %rcx
	xorq	%fs:40, %rcx
	je	.L244
	call	__stack_chk_fail@PLT
.L244:
	leave
	.cfi_def_cfa 7, 8
	ret
	.cfi_endproc
.LFE79:
	.size	default_sort_size, .-default_sort_size
	.section	.rodata
.LC127:
	.string	"stat failed"
	.text
	.type	sort_buffer_size, @function
sort_buffer_size:
.LFB80:
	.loc 2 1517 1
	.cfi_startproc
	endbr64
	pushq	%rbp
	.cfi_def_cfa_offset 16
	.cfi_offset 6, -16
	movq	%rsp, %rbp
	.cfi_def_cfa_register 6
	pushq	%rbx
	subq	$264, %rsp
	.cfi_offset 3, -24
	movq	%rdi, -232(%rbp)
	movq	%rsi, -240(%rbp)
	movq	%rdx, -248(%rbp)
	movq	%rcx, -256(%rbp)
	movq	%r8, -264(%rbp)
	.loc 2 1517 1
	movq	%fs:40, %rax
	movq	%rax, -24(%rbp)
	xorl	%eax, %eax
	.loc 2 1523 10
	movq	-264(%rbp), %rax
	addq	$1, %rax
	movq	%rax, -192(%rbp)
	.loc 2 1527 10
	movq	-192(%rbp), %rax
	addq	$1, %rax
	movq	%rax, -216(%rbp)
.LBB24:
	.loc 2 1529 15
	movq	$0, -208(%rbp)
	.loc 2 1529 3
	jmp	.L250
.L264:
.LBB25:
	.loc 2 1538 11
	movq	-208(%rbp), %rax
	cmpq	-240(%rbp), %rax
	jnb	.L251
	.loc 2 1535 41 discriminator 1
	movq	-208(%rbp), %rax
	leaq	0(,%rax,8), %rdx
	movq	-232(%rbp), %rax
	addq	%rdx, %rax
	.loc 2 1535 23 discriminator 1
	movq	(%rax), %rax
	movq	%rax, %rdi
	call	fileno@PLT
	movl	%eax, %edx
	leaq	-176(%rbp), %rax
	movq	%rax, %rsi
	movl	%edx, %edi
	call	fstat@PLT
	.loc 2 1538 11 discriminator 1
	testl	%eax, %eax
	setne	%al
	jmp	.L252
.L251:
	.loc 2 1536 14 discriminator 2
	movq	-208(%rbp), %rax
	leaq	0(,%rax,8), %rdx
	movq	-248(%rbp), %rax
	addq	%rdx, %rax
	movq	(%rax), %rax
	leaq	.LC99(%rip), %rsi
	movq	%rax, %rdi
	call	strcmp@PLT
	.loc 2 1538 11 discriminator 2
	testl	%eax, %eax
	jne	.L253
	.loc 2 1536 38 discriminator 3
	leaq	-176(%rbp), %rax
	movq	%rax, %rsi
	movl	$0, %edi
	call	fstat@PLT
	.loc 2 1538 11 discriminator 3
	testl	%eax, %eax
	setne	%al
	jmp	.L252
.L253:
	.loc 2 1537 25 discriminator 4
	movq	-208(%rbp), %rax
	leaq	0(,%rax,8), %rdx
	movq	-248(%rbp), %rax
	addq	%rdx, %rax
	.loc 2 1537 14 discriminator 4
	movq	(%rax), %rax
	leaq	-176(%rbp), %rdx
	movq	%rdx, %rsi
	movq	%rax, %rdi
	call	stat@PLT
	.loc 2 1538 11 discriminator 4
	testl	%eax, %eax
	setne	%al
.L252:
	.loc 2 1535 10
	testb	%al, %al
	je	.L255
	.loc 2 1539 42
	movq	-208(%rbp), %rax
	leaq	0(,%rax,8), %rdx
	movq	-248(%rbp), %rax
	addq	%rdx, %rax
	.loc 2 1539 9
	movq	(%rax), %rbx
	.loc 2 1539 19
	leaq	.LC127(%rip), %rdi
	call	gettext@PLT
	.loc 2 1539 9
	movq	%rbx, %rsi
	movq	%rax, %rdi
	call	sort_die
.L255:
	.loc 2 1541 11
	movl	-152(%rbp), %eax
	andl	$61440, %eax
	.loc 2 1541 10
	cmpl	$32768, %eax
	jne	.L256
	.loc 2 1542 19
	movq	-128(%rbp), %rax
	movq	%rax, -200(%rbp)
	jmp	.L257
.L256:
	.loc 2 1547 15
	movq	sort_size(%rip), %rax
	.loc 2 1547 14
	testq	%rax, %rax
	je	.L258
	.loc 2 1548 20
	movq	sort_size(%rip), %rax
	jmp	.L263
.L258:
	.loc 2 1549 21
	movq	$131072, -200(%rbp)
.L257:
	.loc 2 1552 11
	movq	size_bound.8103(%rip), %rax
	.loc 2 1552 10
	testq	%rax, %rax
	jne	.L260
	.loc 2 1554 22
	movq	sort_size(%rip), %rax
	movq	%rax, size_bound.8103(%rip)
	.loc 2 1555 15
	movq	size_bound.8103(%rip), %rax
	.loc 2 1555 14
	testq	%rax, %rax
	jne	.L260
	.loc 2 1556 26
	call	default_sort_size
	.loc 2 1556 24
	movq	%rax, size_bound.8103(%rip)
.L260:
	.loc 2 1562 30
	movq	-200(%rbp), %rax
	imulq	-192(%rbp), %rax
	.loc 2 1562 18
	addq	$1, %rax
	movq	%rax, -184(%rbp)
	.loc 2 1563 35
	movq	-184(%rbp), %rax
	movl	$0, %edx
	divq	-192(%rbp)
	movq	%rax, %rdx
	.loc 2 1563 21
	movq	-200(%rbp), %rax
	.loc 2 1563 10
	cmpq	%rax, %rdx
	jne	.L261
	.loc 2 1564 25
	movq	size_bound.8103(%rip), %rax
	subq	-216(%rbp), %rax
	.loc 2 1564 11
	cmpq	%rax, -184(%rbp)
	jb	.L262
.L261:
	.loc 2 1565 16
	movq	size_bound.8103(%rip), %rax
	jmp	.L263
.L262:
	.loc 2 1566 12
	movq	-184(%rbp), %rax
	addq	%rax, -216(%rbp)
.LBE25:
	.loc 2 1529 35
	addq	$1, -208(%rbp)
.L250:
	.loc 2 1529 3 discriminator 1
	movq	-208(%rbp), %rax
	cmpq	-256(%rbp), %rax
	jb	.L264
.LBE24:
	.loc 2 1569 10
	movq	-216(%rbp), %rax
.L263:
	.loc 2 1570 1
	movq	-24(%rbp), %rcx
	xorq	%fs:40, %rcx
	je	.L265
	call	__stack_chk_fail@PLT
.L265:
	addq	$264, %rsp
	popq	%rbx
	popq	%rbp
	.cfi_def_cfa 7, 8
	ret
	.cfi_endproc
.LFE80:
	.size	sort_buffer_size, .-sort_buffer_size
	.type	initbuf, @function
initbuf:
.LFB81:
	.loc 2 1578 1
	.cfi_startproc
	endbr64
	pushq	%rbp
	.cfi_def_cfa_offset 16
	.cfi_offset 6, -16
	movq	%rsp, %rbp
	.cfi_def_cfa_register 6
	subq	$32, %rsp
	movq	%rdi, -8(%rbp)
	movq	%rsi, -16(%rbp)
	movq	%rdx, -24(%rbp)
.L270:
	.loc 2 1585 13
	movq	-24(%rbp), %rax
	andq	$-32, %rax
	addq	$32, %rax
	movq	%rax, -24(%rbp)
	.loc 2 1586 18
	movq	-24(%rbp), %rax
	movq	%rax, %rdi
	call	malloc@PLT
	movq	%rax, %rdx
	.loc 2 1586 16
	movq	-8(%rbp), %rax
	movq	%rdx, (%rax)
	.loc 2 1587 14
	movq	-8(%rbp), %rax
	movq	(%rax), %rax
	.loc 2 1587 10
	testq	%rax, %rax
	jne	.L272
	.loc 2 1589 13
	movq	-24(%rbp), %rax
	shrq	%rax
	movq	%rax, -24(%rbp)
	.loc 2 1590 31
	movq	-16(%rbp), %rax
	addq	$1, %rax
	.loc 2 1590 10
	cmpq	%rax, -24(%rbp)
	ja	.L270
	.loc 2 1591 9
	call	xalloc_die@PLT
.L272:
	.loc 2 1588 9
	nop
	.loc 2 1594 19
	movq	-8(%rbp), %rax
	movq	-16(%rbp), %rdx
	movq	%rdx, 40(%rax)
	.loc 2 1595 14
	movq	-8(%rbp), %rax
	movq	-24(%rbp), %rdx
	movq	%rdx, 24(%rax)
	.loc 2 1596 39
	movq	-8(%rbp), %rax
	movq	$0, 16(%rax)
	.loc 2 1596 30
	movq	-8(%rbp), %rax
	movq	16(%rax), %rdx
	.loc 2 1596 25
	movq	-8(%rbp), %rax
	movq	%rdx, 32(%rax)
	.loc 2 1596 18
	movq	-8(%rbp), %rax
	movq	32(%rax), %rdx
	.loc 2 1596 13
	movq	-8(%rbp), %rax
	movq	%rdx, 8(%rax)
	.loc 2 1597 12
	movq	-8(%rbp), %rax
	movb	$0, 48(%rax)
	.loc 2 1598 1
	nop
	leave
	.cfi_def_cfa 7, 8
	ret
	.cfi_endproc
.LFE81:
	.size	initbuf, .-initbuf
	.type	buffer_linelim, @function
buffer_linelim:
.LFB82:
	.loc 2 1604 1
	.cfi_startproc
	pushq	%rbp
	.cfi_def_cfa_offset 16
	.cfi_offset 6, -16
	movq	%rsp, %rbp
	.cfi_def_cfa_register 6
	movq	%rdi, -24(%rbp)
	.loc 2 1605 22
	movq	-24(%rbp), %rax
	movq	(%rax), %rdx
	.loc 2 1605 33
	movq	-24(%rbp), %rax
	movq	24(%rax), %rax
	.loc 2 1605 9
	addq	%rdx, %rax
	movq	%rax, -8(%rbp)
	.loc 2 1606 10
	movq	-8(%rbp), %rax
	.loc 2 1607 1
	popq	%rbp
	.cfi_def_cfa 7, 8
	ret
	.cfi_endproc
.LFE82:
	.size	buffer_linelim, .-buffer_linelim
	.type	begfield, @function
begfield:
.LFB83:
	.loc 2 1614 1
	.cfi_startproc
	endbr64
	pushq	%rbp
	.cfi_def_cfa_offset 16
	.cfi_offset 6, -16
	movq	%rsp, %rbp
	.cfi_def_cfa_register 6
	subq	$48, %rsp
	movq	%rdi, -40(%rbp)
	movq	%rsi, -48(%rbp)
	.loc 2 1615 9
	movq	-40(%rbp), %rax
	movq	(%rax), %rax
	movq	%rax, -32(%rbp)
	.loc 2 1615 44
	movq	-40(%rbp), %rax
	movq	8(%rax), %rax
	.loc 2 1615 53
	leaq	-1(%rax), %rdx
	.loc 2 1615 28
	movq	-32(%rbp), %rax
	addq	%rdx, %rax
	movq	%rax, -16(%rbp)
	.loc 2 1616 10
	movq	-48(%rbp), %rax
	movq	(%rax), %rax
	movq	%rax, -24(%rbp)
	.loc 2 1617 10
	movq	-48(%rbp), %rax
	movq	8(%rax), %rax
	movq	%rax, -8(%rbp)
	.loc 2 1622 11
	movl	tab(%rip), %eax
	.loc 2 1622 6
	cmpl	$128, %eax
	je	.L283
	.loc 2 1623 11
	jmp	.L277
.L280:
	.loc 2 1626 11
	addq	$1, -32(%rbp)
.L278:
	.loc 2 1625 15
	movq	-32(%rbp), %rax
	cmpq	-16(%rbp), %rax
	jnb	.L279
	.loc 2 1625 29 discriminator 1
	movq	-32(%rbp), %rax
	movzbl	(%rax), %eax
	movsbl	%al, %edx
	.loc 2 1625 34 discriminator 1
	movl	tab(%rip), %eax
	.loc 2 1625 26 discriminator 1
	cmpl	%eax, %edx
	jne	.L280
.L279:
	.loc 2 1627 12
	movq	-32(%rbp), %rax
	cmpq	-16(%rbp), %rax
	jnb	.L277
	.loc 2 1628 11
	addq	$1, -32(%rbp)
.L277:
	.loc 2 1623 11
	movq	-32(%rbp), %rax
	cmpq	-16(%rbp), %rax
	jnb	.L281
	.loc 2 1623 30 discriminator 1
	movq	-24(%rbp), %rax
	leaq	-1(%rax), %rdx
	movq	%rdx, -24(%rbp)
	.loc 2 1623 22 discriminator 1
	testq	%rax, %rax
	jne	.L278
	jmp	.L281
.L286:
	.loc 2 1634 11
	addq	$1, -32(%rbp)
.L284:
	.loc 2 1633 15
	movq	-32(%rbp), %rax
	cmpq	-16(%rbp), %rax
	jnb	.L287
	.loc 2 1633 46 discriminator 1
	movq	-32(%rbp), %rax
	movzbl	(%rax), %eax
	.loc 2 1633 36 discriminator 1
	movsbl	%al, %eax
	movl	%eax, %edi
	call	to_uchar
	movzbl	%al, %eax
	.loc 2 1633 35 discriminator 1
	cltq
	leaq	blanks(%rip), %rdx
	movzbl	(%rax,%rdx), %eax
	.loc 2 1633 26 discriminator 1
	testb	%al, %al
	jne	.L286
	.loc 2 1635 15
	jmp	.L287
.L288:
	.loc 2 1636 11
	addq	$1, -32(%rbp)
.L287:
	.loc 2 1635 15
	movq	-32(%rbp), %rax
	cmpq	-16(%rbp), %rax
	jnb	.L283
	.loc 2 1635 47 discriminator 1
	movq	-32(%rbp), %rax
	movzbl	(%rax), %eax
	.loc 2 1635 37 discriminator 1
	movsbl	%al, %eax
	movl	%eax, %edi
	call	to_uchar
	movzbl	%al, %eax
	.loc 2 1635 36 discriminator 1
	cltq
	leaq	blanks(%rip), %rdx
	movzbl	(%rax,%rdx), %eax
	.loc 2 1635 29 discriminator 1
	xorl	$1, %eax
	.loc 2 1635 26 discriminator 1
	testb	%al, %al
	jne	.L288
.L283:
	.loc 2 1631 11
	movq	-32(%rbp), %rax
	cmpq	-16(%rbp), %rax
	jnb	.L281
	.loc 2 1631 30 discriminator 1
	movq	-24(%rbp), %rax
	leaq	-1(%rax), %rdx
	movq	%rdx, -24(%rbp)
	.loc 2 1631 22 discriminator 1
	testq	%rax, %rax
	jne	.L284
.L281:
	.loc 2 1641 10
	movq	-48(%rbp), %rax
	movzbl	48(%rax), %eax
	.loc 2 1641 6
	testb	%al, %al
	je	.L290
	.loc 2 1642 11
	jmp	.L291
.L292:
	.loc 2 1643 7
	addq	$1, -32(%rbp)
.L291:
	.loc 2 1642 11
	movq	-32(%rbp), %rax
	cmpq	-16(%rbp), %rax
	jnb	.L290
	.loc 2 1642 42 discriminator 1
	movq	-32(%rbp), %rax
	movzbl	(%rax), %eax
	.loc 2 1642 32 discriminator 1
	movsbl	%al, %eax
	movl	%eax, %edi
	call	to_uchar
	movzbl	%al, %eax
	.loc 2 1642 31 discriminator 1
	cltq
	leaq	blanks(%rip), %rdx
	movzbl	(%rax,%rdx), %eax
	.loc 2 1642 22 discriminator 1
	testb	%al, %al
	jne	.L292
.L290:
	.loc 2 1646 9
	movq	-32(%rbp), %rdx
	movq	-8(%rbp), %rax
	addq	%rdx, %rax
	.loc 2 1646 7
	cmpq	%rax, -16(%rbp)
	cmovbe	-16(%rbp), %rax
	movq	%rax, -32(%rbp)
	.loc 2 1648 10
	movq	-32(%rbp), %rax
	.loc 2 1649 1
	leave
	.cfi_def_cfa 7, 8
	ret
	.cfi_endproc
.LFE83:
	.size	begfield, .-begfield
	.type	limfield, @function
limfield:
.LFB84:
	.loc 2 1656 1
	.cfi_startproc
	endbr64
	pushq	%rbp
	.cfi_def_cfa_offset 16
	.cfi_offset 6, -16
	movq	%rsp, %rbp
	.cfi_def_cfa_register 6
	subq	$48, %rsp
	movq	%rdi, -40(%rbp)
	movq	%rsi, -48(%rbp)
	.loc 2 1657 9
	movq	-40(%rbp), %rax
	movq	(%rax), %rax
	movq	%rax, -32(%rbp)
	.loc 2 1657 44
	movq	-40(%rbp), %rax
	movq	8(%rax), %rax
	.loc 2 1657 53
	leaq	-1(%rax), %rdx
	.loc 2 1657 28
	movq	-32(%rbp), %rax
	addq	%rdx, %rax
	movq	%rax, -16(%rbp)
	.loc 2 1658 10
	movq	-48(%rbp), %rax
	movq	16(%rax), %rax
	movq	%rax, -24(%rbp)
	.loc 2 1658 30
	movq	-48(%rbp), %rax
	movq	24(%rax), %rax
	movq	%rax, -8(%rbp)
	.loc 2 1660 6
	cmpq	$0, -8(%rbp)
	jne	.L295
	.loc 2 1661 10
	addq	$1, -24(%rbp)
.L295:
	.loc 2 1670 11
	movl	tab(%rip), %eax
	.loc 2 1670 6
	cmpl	$128, %eax
	je	.L304
	.loc 2 1671 11
	jmp	.L297
.L300:
	.loc 2 1674 11
	addq	$1, -32(%rbp)
.L298:
	.loc 2 1673 15
	movq	-32(%rbp), %rax
	cmpq	-16(%rbp), %rax
	jnb	.L299
	.loc 2 1673 29 discriminator 1
	movq	-32(%rbp), %rax
	movzbl	(%rax), %eax
	movsbl	%al, %edx
	.loc 2 1673 34 discriminator 1
	movl	tab(%rip), %eax
	.loc 2 1673 26 discriminator 1
	cmpl	%eax, %edx
	jne	.L300
.L299:
	.loc 2 1675 12
	movq	-32(%rbp), %rax
	cmpq	-16(%rbp), %rax
	jnb	.L297
	.loc 2 1675 23 discriminator 1
	cmpq	$0, -24(%rbp)
	jne	.L301
	.loc 2 1675 33 discriminator 2
	cmpq	$0, -8(%rbp)
	je	.L297
.L301:
	.loc 2 1676 11
	addq	$1, -32(%rbp)
.L297:
	.loc 2 1671 11
	movq	-32(%rbp), %rax
	cmpq	-16(%rbp), %rax
	jnb	.L302
	.loc 2 1671 30 discriminator 1
	movq	-24(%rbp), %rax
	leaq	-1(%rax), %rdx
	movq	%rdx, -24(%rbp)
	.loc 2 1671 22 discriminator 1
	testq	%rax, %rax
	jne	.L298
	jmp	.L302
.L307:
	.loc 2 1682 11
	addq	$1, -32(%rbp)
.L305:
	.loc 2 1681 15
	movq	-32(%rbp), %rax
	cmpq	-16(%rbp), %rax
	jnb	.L308
	.loc 2 1681 46 discriminator 1
	movq	-32(%rbp), %rax
	movzbl	(%rax), %eax
	.loc 2 1681 36 discriminator 1
	movsbl	%al, %eax
	movl	%eax, %edi
	call	to_uchar
	movzbl	%al, %eax
	.loc 2 1681 35 discriminator 1
	cltq
	leaq	blanks(%rip), %rdx
	movzbl	(%rax,%rdx), %eax
	.loc 2 1681 26 discriminator 1
	testb	%al, %al
	jne	.L307
	.loc 2 1683 15
	jmp	.L308
.L309:
	.loc 2 1684 11
	addq	$1, -32(%rbp)
.L308:
	.loc 2 1683 15
	movq	-32(%rbp), %rax
	cmpq	-16(%rbp), %rax
	jnb	.L304
	.loc 2 1683 47 discriminator 1
	movq	-32(%rbp), %rax
	movzbl	(%rax), %eax
	.loc 2 1683 37 discriminator 1
	movsbl	%al, %eax
	movl	%eax, %edi
	call	to_uchar
	movzbl	%al, %eax
	.loc 2 1683 36 discriminator 1
	cltq
	leaq	blanks(%rip), %rdx
	movzbl	(%rax,%rdx), %eax
	.loc 2 1683 29 discriminator 1
	xorl	$1, %eax
	.loc 2 1683 26 discriminator 1
	testb	%al, %al
	jne	.L309
.L304:
	.loc 2 1679 11
	movq	-32(%rbp), %rax
	cmpq	-16(%rbp), %rax
	jnb	.L302
	.loc 2 1679 30 discriminator 1
	movq	-24(%rbp), %rax
	leaq	-1(%rax), %rdx
	movq	%rdx, -24(%rbp)
	.loc 2 1679 22 discriminator 1
	testq	%rax, %rax
	jne	.L305
.L302:
	.loc 2 1738 6
	cmpq	$0, -8(%rbp)
	je	.L311
	.loc 2 1742 14
	movq	-48(%rbp), %rax
	movzbl	49(%rax), %eax
	.loc 2 1742 10
	testb	%al, %al
	je	.L312
	.loc 2 1743 15
	jmp	.L313
.L314:
	.loc 2 1744 11
	addq	$1, -32(%rbp)
.L313:
	.loc 2 1743 15
	movq	-32(%rbp), %rax
	cmpq	-16(%rbp), %rax
	jnb	.L312
	.loc 2 1743 46 discriminator 1
	movq	-32(%rbp), %rax
	movzbl	(%rax), %eax
	.loc 2 1743 36 discriminator 1
	movsbl	%al, %eax
	movl	%eax, %edi
	call	to_uchar
	movzbl	%al, %eax
	.loc 2 1743 35 discriminator 1
	cltq
	leaq	blanks(%rip), %rdx
	movzbl	(%rax,%rdx), %eax
	.loc 2 1743 26 discriminator 1
	testb	%al, %al
	jne	.L314
.L312:
	.loc 2 1747 13
	movq	-32(%rbp), %rdx
	movq	-8(%rbp), %rax
	addq	%rdx, %rax
	.loc 2 1747 11
	cmpq	%rax, -16(%rbp)
	cmovbe	-16(%rbp), %rax
	movq	%rax, -32(%rbp)
.L311:
	.loc 2 1750 10
	movq	-32(%rbp), %rax
	.loc 2 1751 1
	leave
	.cfi_def_cfa 7, 8
	ret
	.cfi_endproc
.LFE84:
	.size	limfield, .-limfield
	.section	.rodata
.LC128:
	.string	"read failed"
	.text
	.type	fillbuf, @function
fillbuf:
.LFB85:
	.loc 2 1761 1
	.cfi_startproc
	endbr64
	pushq	%rbp
	.cfi_def_cfa_offset 16
	.cfi_offset 6, -16
	movq	%rsp, %rbp
	.cfi_def_cfa_register 6
	subq	$160, %rsp
	movq	%rdi, -136(%rbp)
	movq	%rsi, -144(%rbp)
	movq	%rdx, -152(%rbp)
	.loc 2 1761 1
	movq	%fs:40, %rax
	movq	%rax, -8(%rbp)
	xorl	%eax, %eax
	.loc 2 1762 26
	movq	keylist(%rip), %rax
	movq	%rax, -56(%rbp)
	.loc 2 1763 8
	movzbl	eolchar(%rip), %eax
	movb	%al, -113(%rbp)
	.loc 2 1764 10
	movq	-136(%rbp), %rax
	movq	40(%rax), %rax
	movq	%rax, -48(%rbp)
	.loc 2 1765 40
	movq	merge_buffer_size(%rip), %rax
	.loc 2 1765 10
	subq	$34, %rax
	movq	%rax, -104(%rbp)
	.loc 2 1767 10
	movq	-136(%rbp), %rax
	movzbl	48(%rax), %eax
	.loc 2 1767 6
	testb	%al, %al
	je	.L317
	.loc 2 1768 12
	movl	$0, %eax
	jmp	.L318
.L317:
	.loc 2 1770 10
	movq	-136(%rbp), %rax
	movq	8(%rax), %rdx
	.loc 2 1770 23
	movq	-136(%rbp), %rax
	movq	32(%rax), %rax
	.loc 2 1770 6
	cmpq	%rax, %rdx
	je	.L338
	.loc 2 1772 7
	movq	-136(%rbp), %rax
	movq	32(%rax), %rdx
	.loc 2 1772 29
	movq	-136(%rbp), %rax
	movq	(%rax), %rcx
	.loc 2 1772 40
	movq	-136(%rbp), %rax
	movq	8(%rax), %rsi
	.loc 2 1772 52
	movq	-136(%rbp), %rax
	movq	32(%rax), %rax
	.loc 2 1772 47
	subq	%rax, %rsi
	movq	%rsi, %rax
	addq	%rax, %rcx
	.loc 2 1772 19
	movq	-136(%rbp), %rax
	movq	(%rax), %rax
	.loc 2 1772 7
	movq	%rcx, %rsi
	movq	%rax, %rdi
	call	memmove@PLT
	.loc 2 1773 22
	movq	-136(%rbp), %rax
	movq	32(%rax), %rdx
	.loc 2 1773 17
	movq	-136(%rbp), %rax
	movq	%rdx, 8(%rax)
	.loc 2 1774 19
	movq	-136(%rbp), %rax
	movq	$0, 16(%rax)
.L338:
.LBB26:
	.loc 2 1779 22
	movq	-136(%rbp), %rax
	movq	(%rax), %rdx
	.loc 2 1779 33
	movq	-136(%rbp), %rax
	movq	8(%rax), %rax
	.loc 2 1779 13
	addq	%rdx, %rax
	movq	%rax, -96(%rbp)
	.loc 2 1780 30
	movq	-136(%rbp), %rax
	movq	%rax, %rdi
	call	buffer_linelim
	movq	%rax, -40(%rbp)
	.loc 2 1781 40
	movq	-136(%rbp), %rax
	movq	16(%rax), %rax
	.loc 2 1781 35
	salq	$5, %rax
	negq	%rax
	movq	%rax, %rdx
	.loc 2 1781 20
	movq	-40(%rbp), %rax
	addq	%rdx, %rax
	movq	%rax, -88(%rbp)
	.loc 2 1782 44
	movq	-136(%rbp), %rax
	movq	16(%rax), %rax
	.loc 2 1782 53
	imulq	-48(%rbp), %rax
	.loc 2 1782 39
	negq	%rax
	movq	%rax, %rdx
	movq	-40(%rbp), %rax
	addq	%rdx, %rax
	.loc 2 1782 66
	subq	-96(%rbp), %rax
	.loc 2 1782 14
	movq	%rax, -80(%rbp)
	.loc 2 1783 29
	movq	-136(%rbp), %rax
	movq	16(%rax), %rax
	.loc 2 1783 66
	testq	%rax, %rax
	je	.L320
	.loc 2 1783 44 discriminator 1
	movq	-88(%rbp), %rax
	movq	(%rax), %rdx
	.loc 2 1783 57 discriminator 1
	movq	-88(%rbp), %rax
	movq	8(%rax), %rax
	.loc 2 1783 66 discriminator 1
	addq	%rdx, %rax
	jmp	.L321
.L320:
	.loc 2 1783 66 is_stmt 0 discriminator 2
	movq	-136(%rbp), %rax
	movq	(%rax), %rax
.L321:
	.loc 2 1783 13 is_stmt 1 discriminator 4
	movq	%rax, -72(%rbp)
	.loc 2 1785 13 discriminator 4
	jmp	.L322
.L336:
.LBB27:
	.loc 2 1792 36
	movq	-80(%rbp), %rax
	subq	$1, %rax
	.loc 2 1792 55
	movq	-48(%rbp), %rdx
	leaq	1(%rdx), %rcx
	.loc 2 1792 18
	movl	$0, %edx
	divq	%rcx
	movq	%rax, -32(%rbp)
	.loc 2 1793 31
	movq	-144(%rbp), %rcx
	movq	-32(%rbp), %rdx
	movq	-96(%rbp), %rax
	movl	$1, %esi
	movq	%rax, %rdi
	call	fread_unlocked@PLT
	movq	%rax, -24(%rbp)
	.loc 2 1794 17
	movq	-96(%rbp), %rdx
	movq	-24(%rbp), %rax
	addq	%rdx, %rax
	movq	%rax, -64(%rbp)
	.loc 2 1796 17
	movq	-24(%rbp), %rax
	subq	%rax, -80(%rbp)
	.loc 2 1798 14
	movq	-24(%rbp), %rax
	cmpq	-32(%rbp), %rax
	je	.L326
	.loc 2 1800 19
	movq	-144(%rbp), %rax
	movq	%rax, %rdi
	call	ferror_unlocked@PLT
	.loc 2 1800 18
	testl	%eax, %eax
	je	.L324
	.loc 2 1801 27
	leaq	.LC128(%rip), %rdi
	call	gettext@PLT
	movq	%rax, %rdx
	.loc 2 1801 17
	movq	-152(%rbp), %rax
	movq	%rax, %rsi
	movq	%rdx, %rdi
	call	sort_die
.L324:
	.loc 2 1802 19
	movq	-144(%rbp), %rax
	movq	%rax, %rdi
	call	feof_unlocked@PLT
	.loc 2 1802 18
	testl	%eax, %eax
	je	.L326
	.loc 2 1804 28
	movq	-136(%rbp), %rax
	movb	$1, 48(%rax)
	.loc 2 1805 26
	movq	-136(%rbp), %rax
	movq	(%rax), %rax
	.loc 2 1805 22
	cmpq	%rax, -64(%rbp)
	jne	.L325
	.loc 2 1806 28
	movl	$0, %eax
	jmp	.L318
.L325:
	.loc 2 1807 22
	movq	-72(%rbp), %rax
	cmpq	-64(%rbp), %rax
	je	.L326
	.loc 2 1807 53 discriminator 1
	movq	-64(%rbp), %rax
	subq	$1, %rax
	movzbl	(%rax), %eax
	.loc 2 1807 44 discriminator 1
	cmpb	%al, -113(%rbp)
	je	.L326
	.loc 2 1808 28
	movq	-64(%rbp), %rax
	leaq	1(%rax), %rdx
	movq	%rdx, -64(%rbp)
	.loc 2 1808 31
	movzbl	-113(%rbp), %edx
	movb	%dl, (%rax)
	.loc 2 1813 17
	jmp	.L326
.L334:
	.loc 2 1818 18
	movq	-16(%rbp), %rax
	movb	$0, (%rax)
	.loc 2 1819 19
	movq	-16(%rbp), %rax
	addq	$1, %rax
	movq	%rax, -96(%rbp)
	.loc 2 1820 19
	subq	$32, -88(%rbp)
	.loc 2 1821 26
	movq	-88(%rbp), %rax
	movq	-72(%rbp), %rdx
	movq	%rdx, (%rax)
	.loc 2 1822 34
	movq	-96(%rbp), %rax
	subq	-72(%rbp), %rax
	movq	%rax, %rdx
	.loc 2 1822 28
	movq	-88(%rbp), %rax
	movq	%rdx, 8(%rax)
	.loc 2 1823 27
	movq	-88(%rbp), %rax
	movq	8(%rax), %rax
	.loc 2 1823 25
	cmpq	%rax, -104(%rbp)
	cmovnb	-104(%rbp), %rax
	movq	%rax, -104(%rbp)
	.loc 2 1824 21
	movq	-48(%rbp), %rax
	subq	%rax, -80(%rbp)
	.loc 2 1826 18
	cmpq	$0, -56(%rbp)
	je	.L327
	.loc 2 1830 38
	movq	-56(%rbp), %rax
	movq	16(%rax), %rax
	.loc 2 1832 35
	cmpq	$-1, %rax
	je	.L328
	.loc 2 1832 37 discriminator 1
	movq	-56(%rbp), %rdx
	movq	-88(%rbp), %rax
	movq	%rdx, %rsi
	movq	%rax, %rdi
	call	limfield
	jmp	.L329
.L328:
	.loc 2 1832 35 discriminator 2
	movq	-16(%rbp), %rax
.L329:
	.loc 2 1830 32
	movq	-88(%rbp), %rdx
	movq	%rax, 24(%rdx)
	.loc 2 1834 26
	movq	-56(%rbp), %rax
	movq	(%rax), %rax
	.loc 2 1834 22
	cmpq	$-1, %rax
	je	.L330
	.loc 2 1835 36
	movq	-56(%rbp), %rdx
	movq	-88(%rbp), %rax
	movq	%rdx, %rsi
	movq	%rax, %rdi
	call	begfield
	.loc 2 1835 34
	movq	-88(%rbp), %rdx
	movq	%rax, 16(%rdx)
	jmp	.L327
.L330:
	.loc 2 1838 30
	movq	-56(%rbp), %rax
	movzbl	48(%rax), %eax
	.loc 2 1838 26
	testb	%al, %al
	je	.L331
	.loc 2 1839 31
	jmp	.L332
.L333:
	.loc 2 1840 37
	addq	$1, -72(%rbp)
.L332:
	.loc 2 1839 49
	movq	-72(%rbp), %rax
	movzbl	(%rax), %eax
	.loc 2 1839 39
	movsbl	%al, %eax
	movl	%eax, %edi
	call	to_uchar
	movzbl	%al, %eax
	.loc 2 1839 38
	cltq
	leaq	blanks(%rip), %rdx
	movzbl	(%rax,%rdx), %eax
	.loc 2 1839 31
	testb	%al, %al
	jne	.L333
.L331:
	.loc 2 1841 36
	movq	-88(%rbp), %rax
	movq	-72(%rbp), %rdx
	movq	%rdx, 16(%rax)
.L327:
	.loc 2 1845 26
	movq	-96(%rbp), %rax
	movq	%rax, -72(%rbp)
.L326:
	.loc 2 1813 48
	movq	-64(%rbp), %rax
	subq	-96(%rbp), %rax
	.loc 2 1813 23
	movq	%rax, %rdx
	movsbl	-113(%rbp), %ecx
	movq	-96(%rbp), %rax
	movl	%ecx, %esi
	movq	%rax, %rdi
	call	memchr@PLT
	movq	%rax, -16(%rbp)
	.loc 2 1813 17
	cmpq	$0, -16(%rbp)
	jne	.L334
	.loc 2 1848 15
	movq	-64(%rbp), %rax
	movq	%rax, -96(%rbp)
	.loc 2 1849 18
	movq	-136(%rbp), %rax
	movzbl	48(%rax), %eax
	.loc 2 1849 14
	testb	%al, %al
	jne	.L340
.L322:
.LBE27:
	.loc 2 1785 25
	movq	-48(%rbp), %rax
	addq	$1, %rax
	.loc 2 1785 13
	cmpq	%rax, -80(%rbp)
	ja	.L336
	jmp	.L335
.L340:
.LBB28:
	.loc 2 1850 13
	nop
.L335:
.LBE28:
	.loc 2 1853 28
	movq	-136(%rbp), %rax
	movq	(%rax), %rax
	.loc 2 1853 23
	movq	-96(%rbp), %rdx
	subq	%rax, %rdx
	movq	%rdx, %rax
	movq	%rax, %rdx
	.loc 2 1853 17
	movq	-136(%rbp), %rax
	movq	%rdx, 8(%rax)
	.loc 2 1854 21
	movq	-136(%rbp), %rax
	movq	%rax, %rdi
	call	buffer_linelim
	.loc 2 1854 42
	subq	-88(%rbp), %rax
	sarq	$5, %rax
	movq	%rax, %rdx
	.loc 2 1854 19
	movq	-136(%rbp), %rax
	movq	%rdx, 16(%rax)
	.loc 2 1855 14
	movq	-136(%rbp), %rax
	movq	16(%rax), %rax
	.loc 2 1855 10
	testq	%rax, %rax
	je	.L337
	.loc 2 1857 27
	movq	-96(%rbp), %rax
	subq	-72(%rbp), %rax
	movq	%rax, %rdx
	.loc 2 1857 21
	movq	-136(%rbp), %rax
	movq	%rdx, 32(%rax)
	.loc 2 1858 41
	movq	-104(%rbp), %rax
	addq	$34, %rax
	.loc 2 1858 29
	movq	%rax, merge_buffer_size(%rip)
	.loc 2 1859 18
	movl	$1, %eax
	jmp	.L318
.L337:
.LBB29:
	.loc 2 1866 32
	movq	-136(%rbp), %rax
	movq	24(%rax), %rax
	.loc 2 1866 40
	shrq	$5, %rax
	.loc 2 1866 16
	movq	%rax, -112(%rbp)
	.loc 2 1867 35
	movq	-136(%rbp), %rax
	movq	(%rax), %rax
	.loc 2 1867 20
	leaq	-112(%rbp), %rcx
	movl	$32, %edx
	movq	%rcx, %rsi
	movq	%rax, %rdi
	call	x2nrealloc@PLT
	.loc 2 1867 18
	movq	-136(%rbp), %rdx
	movq	%rax, (%rdx)
	.loc 2 1868 33
	movq	-112(%rbp), %rax
	salq	$5, %rax
	movq	%rax, %rdx
	.loc 2 1868 20
	movq	-136(%rbp), %rax
	movq	%rdx, 24(%rax)
.LBE29:
.LBE26:
	.loc 2 1778 5
	jmp	.L338
.L318:
	.loc 2 1871 1
	movq	-8(%rbp), %rcx
	xorq	%fs:40, %rcx
	je	.L339
	call	__stack_chk_fail@PLT
.L339:
	leave
	.cfi_def_cfa 7, 8
	ret
	.cfi_endproc
.LFE85:
	.size	fillbuf, .-fillbuf
	.section	.rodata
	.align 32
	.type	unit_order, @object
	.size	unit_order, 256
unit_order:
	.string	""
	.string	""
	.string	""
	.string	""
	.string	""
	.string	""
	.string	""
	.string	""
	.string	""
	.string	""
	.string	""
	.string	""
	.string	""
	.string	""
	.string	""
	.string	""
	.string	""
	.string	""
	.string	""
	.string	""
	.string	""
	.string	""
	.string	""
	.string	""
	.string	""
	.string	""
	.string	""
	.string	""
	.string	""
	.string	""
	.string	""
	.string	""
	.string	""
	.string	""
	.string	""
	.string	""
	.string	""
	.string	""
	.string	""
	.string	""
	.string	""
	.string	""
	.string	""
	.string	""
	.string	""
	.string	""
	.string	""
	.string	""
	.string	""
	.string	""
	.string	""
	.string	""
	.string	""
	.string	""
	.string	""
	.string	""
	.string	""
	.string	""
	.string	""
	.string	""
	.string	""
	.string	""
	.string	""
	.string	""
	.string	""
	.string	""
	.string	""
	.string	""
	.string	""
	.string	"\006"
	.string	"\003"
	.string	""
	.string	""
	.string	"\001"
	.string	"\002"
	.string	""
	.string	"\005"
	.string	""
	.string	""
	.string	"\004"
	.string	""
	.string	""
	.string	""
	.string	"\b\007"
	.string	""
	.string	""
	.string	""
	.string	""
	.string	""
	.string	""
	.string	""
	.string	""
	.string	""
	.string	""
	.string	""
	.string	""
	.string	""
	.string	""
	.string	""
	.string	"\001"
	.string	""
	.string	""
	.string	""
	.string	""
	.string	""
	.string	""
	.string	""
	.string	""
	.string	""
	.string	""
	.string	""
	.string	""
	.string	""
	.string	""
	.string	""
	.string	""
	.string	""
	.string	""
	.string	""
	.string	""
	.string	""
	.string	""
	.string	""
	.string	""
	.string	""
	.string	""
	.string	""
	.string	""
	.string	""
	.string	""
	.string	""
	.string	""
	.string	""
	.string	""
	.string	""
	.string	""
	.string	""
	.string	""
	.string	""
	.string	""
	.string	""
	.string	""
	.string	""
	.string	""
	.string	""
	.string	""
	.string	""
	.string	""
	.string	""
	.string	""
	.string	""
	.string	""
	.string	""
	.string	""
	.string	""
	.string	""
	.string	""
	.string	""
	.string	""
	.string	""
	.string	""
	.string	""
	.string	""
	.string	""
	.string	""
	.string	""
	.string	""
	.string	""
	.string	""
	.string	""
	.string	""
	.string	""
	.string	""
	.string	""
	.string	""
	.string	""
	.string	""
	.string	""
	.string	""
	.string	""
	.string	""
	.string	""
	.string	""
	.string	""
	.string	""
	.string	""
	.string	""
	.string	""
	.string	""
	.string	""
	.string	""
	.string	""
	.string	""
	.string	""
	.string	""
	.string	""
	.string	""
	.string	""
	.string	""
	.string	""
	.string	""
	.string	""
	.string	""
	.string	""
	.string	""
	.string	""
	.string	""
	.string	""
	.string	""
	.string	""
	.string	""
	.string	""
	.string	""
	.string	""
	.string	""
	.string	""
	.string	""
	.string	""
	.string	""
	.string	""
	.string	""
	.string	""
	.string	""
	.string	""
	.string	""
	.string	""
	.string	""
	.string	""
	.string	""
	.string	""
	.string	""
	.string	""
	.string	""
	.string	""
	.string	""
	.string	""
	.string	""
	.string	""
	.string	""
	.string	""
	.string	""
	.string	""
	.string	""
	.string	""
	.string	""
	.string	""
	.string	""
	.text
	.type	traverse_raw_number, @function
traverse_raw_number:
.LFB86:
	.loc 2 1908 1
	.cfi_startproc
	endbr64
	pushq	%rbp
	.cfi_def_cfa_offset 16
	.cfi_offset 6, -16
	movq	%rsp, %rbp
	.cfi_def_cfa_register 6
	movq	%rdi, -24(%rbp)
	.loc 2 1909 15
	movq	-24(%rbp), %rax
	movq	(%rax), %rax
	movq	%rax, -8(%rbp)
	.loc 2 1911 17
	movb	$0, -11(%rbp)
	.loc 2 1912 8
	movb	$0, -10(%rbp)
	.loc 2 1920 9
	jmp	.L342
.L344:
	.loc 2 1922 10
	movzbl	-11(%rbp), %eax
	cmpb	-9(%rbp), %al
	jnb	.L343
	.loc 2 1923 19
	movzbl	-9(%rbp), %eax
	movb	%al, -11(%rbp)
.L343:
	.loc 2 1928 34
	movq	-8(%rbp), %rax
	movzbl	(%rax), %eax
	movsbl	%al, %edx
	.loc 2 1928 37
	movl	thousands_sep(%rip), %eax
	.loc 2 1928 31
	cmpl	%eax, %edx
	sete	%al
	movb	%al, -10(%rbp)
	.loc 2 1929 10
	cmpb	$0, -10(%rbp)
	je	.L342
	.loc 2 1930 9
	addq	$1, -8(%rbp)
.L342:
	.loc 2 1920 10
	movq	-8(%rbp), %rax
	leaq	1(%rax), %rdx
	movq	%rdx, -8(%rbp)
	movzbl	(%rax), %eax
	movb	%al, -9(%rbp)
	movzbl	-9(%rbp), %eax
	subl	$48, %eax
	.loc 2 1920 9
	cmpl	$9, %eax
	jbe	.L344
	.loc 2 1933 6
	cmpb	$0, -10(%rbp)
	je	.L345
	.loc 2 1936 19
	movq	-8(%rbp), %rax
	leaq	-2(%rax), %rdx
	.loc 2 1936 15
	movq	-24(%rbp), %rax
	movq	%rdx, (%rax)
	.loc 2 1937 14
	movzbl	-11(%rbp), %eax
	jmp	.L346
.L345:
	.loc 2 1940 10
	movzbl	-9(%rbp), %edx
	movl	decimal_point(%rip), %eax
	.loc 2 1940 6
	cmpl	%eax, %edx
	jne	.L347
	.loc 2 1941 11
	jmp	.L348
.L349:
	.loc 2 1942 10
	movzbl	-11(%rbp), %eax
	cmpb	-9(%rbp), %al
	jnb	.L348
	.loc 2 1943 19
	movzbl	-9(%rbp), %eax
	movb	%al, -11(%rbp)
.L348:
	.loc 2 1941 12
	movq	-8(%rbp), %rax
	leaq	1(%rax), %rdx
	movq	%rdx, -8(%rbp)
	movzbl	(%rax), %eax
	movb	%al, -9(%rbp)
	movzbl	-9(%rbp), %eax
	subl	$48, %eax
	.loc 2 1941 11
	cmpl	$9, %eax
	jbe	.L349
.L347:
	.loc 2 1945 15
	movq	-8(%rbp), %rax
	leaq	-1(%rax), %rdx
	.loc 2 1945 11
	movq	-24(%rbp), %rax
	movq	%rdx, (%rax)
	.loc 2 1946 10
	movzbl	-11(%rbp), %eax
.L346:
	.loc 2 1947 1
	popq	%rbp
	.cfi_def_cfa 7, 8
	ret
	.cfi_endproc
.LFE86:
	.size	traverse_raw_number, .-traverse_raw_number
	.type	find_unit_order, @function
find_unit_order:
.LFB87:
	.loc 2 1956 1
	.cfi_startproc
	endbr64
	pushq	%rbp
	.cfi_def_cfa_offset 16
	.cfi_offset 6, -16
	movq	%rsp, %rbp
	.cfi_def_cfa_register 6
	subq	$48, %rsp
	movq	%rdi, -40(%rbp)
	.loc 2 1956 1
	movq	%fs:40, %rax
	movq	%rax, -8(%rbp)
	xorl	%eax, %eax
	.loc 2 1957 22
	movq	-40(%rbp), %rax
	movzbl	(%rax), %eax
	.loc 2 1957 8
	cmpb	$45, %al
	sete	%al
	movb	%al, -23(%rbp)
	.loc 2 1958 26
	movzbl	-23(%rbp), %edx
	movq	-40(%rbp), %rax
	addq	%rdx, %rax
	.loc 2 1958 15
	movq	%rax, -16(%rbp)
	.loc 2 1959 29
	leaq	-16(%rbp), %rax
	movq	%rax, %rdi
	call	traverse_raw_number
	movb	%al, -22(%rbp)
	.loc 2 1960 6
	cmpb	$48, -22(%rbp)
	jbe	.L351
.LBB30:
	.loc 2 1962 26
	movq	-16(%rbp), %rax
	movzbl	(%rax), %eax
	.loc 2 1962 21
	movb	%al, -21(%rbp)
	.loc 2 1963 29
	movzbl	-21(%rbp), %eax
	cltq
	leaq	unit_order(%rip), %rdx
	movzbl	(%rax,%rdx), %eax
	.loc 2 1963 11
	movsbl	%al, %eax
	movl	%eax, -20(%rbp)
	.loc 2 1964 35
	cmpb	$0, -23(%rbp)
	je	.L352
	.loc 2 1964 35 is_stmt 0 discriminator 1
	movl	-20(%rbp), %eax
	negl	%eax
	jmp	.L355
.L352:
	.loc 2 1964 35 discriminator 2
	movl	-20(%rbp), %eax
	jmp	.L355
.L351:
.LBE30:
	.loc 2 1967 12 is_stmt 1
	movl	$0, %eax
.L355:
	.loc 2 1968 1 discriminator 1
	movq	-8(%rbp), %rcx
	xorq	%fs:40, %rcx
	je	.L356
	.loc 2 1968 1 is_stmt 0
	call	__stack_chk_fail@PLT
.L356:
	leave
	.cfi_def_cfa 7, 8
	ret
	.cfi_endproc
.LFE87:
	.size	find_unit_order, .-find_unit_order
	.type	human_numcompare, @function
human_numcompare:
.LFB88:
	.loc 2 1975 1 is_stmt 1
	.cfi_startproc
	endbr64
	pushq	%rbp
	.cfi_def_cfa_offset 16
	.cfi_offset 6, -16
	movq	%rsp, %rbp
	.cfi_def_cfa_register 6
	pushq	%rbx
	subq	$40, %rsp
	.cfi_offset 3, -24
	movq	%rdi, -40(%rbp)
	movq	%rsi, -48(%rbp)
	.loc 2 1976 9
	jmp	.L358
.L359:
	.loc 2 1977 6
	addq	$1, -40(%rbp)
.L358:
	.loc 2 1976 27
	movq	-40(%rbp), %rax
	movzbl	(%rax), %eax
	.loc 2 1976 17
	movsbl	%al, %eax
	movl	%eax, %edi
	call	to_uchar
	movzbl	%al, %eax
	.loc 2 1976 16
	cltq
	leaq	blanks(%rip), %rdx
	movzbl	(%rax,%rdx), %eax
	.loc 2 1976 9
	testb	%al, %al
	jne	.L359
	.loc 2 1978 9
	jmp	.L360
.L361:
	.loc 2 1979 6
	addq	$1, -48(%rbp)
.L360:
	.loc 2 1978 27
	movq	-48(%rbp), %rax
	movzbl	(%rax), %eax
	.loc 2 1978 17
	movsbl	%al, %eax
	movl	%eax, %edi
	call	to_uchar
	movzbl	%al, %eax
	.loc 2 1978 16
	cltq
	leaq	blanks(%rip), %rdx
	movzbl	(%rax,%rdx), %eax
	.loc 2 1978 9
	testb	%al, %al
	jne	.L361
	.loc 2 1981 14
	movq	-40(%rbp), %rax
	movq	%rax, %rdi
	call	find_unit_order
	movl	%eax, %ebx
	.loc 2 1981 36
	movq	-48(%rbp), %rax
	movq	%rax, %rdi
	call	find_unit_order
	.loc 2 1981 7
	subl	%eax, %ebx
	movl	%ebx, %eax
	movl	%eax, -20(%rbp)
	.loc 2 1982 23
	cmpl	$0, -20(%rbp)
	jne	.L362
	.loc 2 1982 25 discriminator 1
	movl	thousands_sep(%rip), %ecx
	movl	decimal_point(%rip), %edx
	movq	-48(%rbp), %rsi
	movq	-40(%rbp), %rax
	movq	%rax, %rdi
	call	strnumcmp@PLT
	.loc 2 1982 23 discriminator 1
	jmp	.L364
.L362:
	.loc 2 1982 23 is_stmt 0 discriminator 2
	movl	-20(%rbp), %eax
.L364:
	.loc 2 1983 1 is_stmt 1 discriminator 5
	addq	$40, %rsp
	popq	%rbx
	popq	%rbp
	.cfi_def_cfa 7, 8
	ret
	.cfi_endproc
.LFE88:
	.size	human_numcompare, .-human_numcompare
	.type	numcompare, @function
numcompare:
.LFB89:
	.loc 2 1991 1
	.cfi_startproc
	endbr64
	pushq	%rbp
	.cfi_def_cfa_offset 16
	.cfi_offset 6, -16
	movq	%rsp, %rbp
	.cfi_def_cfa_register 6
	subq	$16, %rsp
	movq	%rdi, -8(%rbp)
	movq	%rsi, -16(%rbp)
	.loc 2 1992 9
	jmp	.L366
.L367:
	.loc 2 1993 6
	addq	$1, -8(%rbp)
.L366:
	.loc 2 1992 27
	movq	-8(%rbp), %rax
	movzbl	(%rax), %eax
	.loc 2 1992 17
	movsbl	%al, %eax
	movl	%eax, %edi
	call	to_uchar
	movzbl	%al, %eax
	.loc 2 1992 16
	cltq
	leaq	blanks(%rip), %rdx
	movzbl	(%rax,%rdx), %eax
	.loc 2 1992 9
	testb	%al, %al
	jne	.L367
	.loc 2 1994 9
	jmp	.L368
.L369:
	.loc 2 1995 6
	addq	$1, -16(%rbp)
.L368:
	.loc 2 1994 27
	movq	-16(%rbp), %rax
	movzbl	(%rax), %eax
	.loc 2 1994 17
	movsbl	%al, %eax
	movl	%eax, %edi
	call	to_uchar
	movzbl	%al, %eax
	.loc 2 1994 16
	cltq
	leaq	blanks(%rip), %rdx
	movzbl	(%rax,%rdx), %eax
	.loc 2 1994 9
	testb	%al, %al
	jne	.L369
	.loc 2 1997 10
	movl	thousands_sep(%rip), %ecx
	movl	decimal_point(%rip), %edx
	movq	-16(%rbp), %rsi
	movq	-8(%rbp), %rax
	movq	%rax, %rdi
	call	strnumcmp@PLT
	.loc 2 1998 1
	leave
	.cfi_def_cfa 7, 8
	ret
	.cfi_endproc
.LFE89:
	.size	numcompare, .-numcompare
	.type	nan_compare, @function
nan_compare:
.LFB90:
	.loc 2 2006 1
	.cfi_startproc
	endbr64
	pushq	%rbp
	.cfi_def_cfa_offset 16
	.cfi_offset 6, -16
	movq	%rsp, %rbp
	.cfi_def_cfa_register 6
	subq	$64, %rsp
	movq	%rdi, -56(%rbp)
	movq	%rsi, -64(%rbp)
	.loc 2 2006 1
	movq	%fs:40, %rax
	movq	%rax, -8(%rbp)
	xorl	%eax, %eax
	.loc 2 2008 3
	leaq	-48(%rbp), %rax
	movl	$16, %edx
	movl	$0, %esi
	movq	%rax, %rdi
	call	memset@PLT
	.loc 2 2009 7
	movq	-56(%rbp), %rax
	movl	$0, %esi
	movq	%rax, %rdi
	call	strtold@PLT
	.loc 2 2009 5
	fstpt	-48(%rbp)
	.loc 2 2012 3
	leaq	-32(%rbp), %rax
	movl	$16, %edx
	movl	$0, %esi
	movq	%rax, %rdi
	call	memset@PLT
	.loc 2 2013 7
	movq	-64(%rbp), %rax
	movl	$0, %esi
	movq	%rax, %rdi
	call	strtold@PLT
	.loc 2 2013 5
	fstpt	-32(%rbp)
	.loc 2 2015 10
	leaq	-32(%rbp), %rcx
	leaq	-48(%rbp), %rax
	movl	$16, %edx
	movq	%rcx, %rsi
	movq	%rax, %rdi
	call	memcmp@PLT
	.loc 2 2016 1
	movq	-8(%rbp), %rcx
	xorq	%fs:40, %rcx
	je	.L373
	call	__stack_chk_fail@PLT
.L373:
	leave
	.cfi_def_cfa 7, 8
	ret
	.cfi_endproc
.LFE90:
	.size	nan_compare, .-nan_compare
	.type	general_numcompare, @function
general_numcompare:
.LFB91:
	.loc 2 2020 1
	.cfi_startproc
	endbr64
	pushq	%rbp
	.cfi_def_cfa_offset 16
	.cfi_offset 6, -16
	movq	%rsp, %rbp
	.cfi_def_cfa_register 6
	subq	$80, %rsp
	movq	%rdi, -72(%rbp)
	movq	%rsi, -80(%rbp)
	.loc 2 2020 1
	movq	%fs:40, %rax
	movq	%rax, -8(%rbp)
	xorl	%eax, %eax
	.loc 2 2026 19
	leaq	-64(%rbp), %rdx
	movq	-72(%rbp), %rax
	movq	%rdx, %rsi
	movq	%rax, %rdi
	call	strtold@PLT
	fstpt	-48(%rbp)
	.loc 2 2027 19
	leaq	-56(%rbp), %rdx
	movq	-80(%rbp), %rax
	movq	%rdx, %rsi
	movq	%rax, %rdi
	call	strtold@PLT
	fstpt	-32(%rbp)
	.loc 2 2030 10
	movq	-64(%rbp), %rax
	.loc 2 2030 6
	cmpq	%rax, -72(%rbp)
	jne	.L375
	.loc 2 2031 15
	movq	-56(%rbp), %rax
	.loc 2 2031 25
	cmpq	%rax, -80(%rbp)
	jne	.L376
	.loc 2 2031 25 is_stmt 0 discriminator 1
	movl	$0, %eax
	jmp	.L395
.L376:
	.loc 2 2031 25 discriminator 2
	movl	$-1, %eax
	jmp	.L395
.L375:
	.loc 2 2032 10 is_stmt 1
	movq	-56(%rbp), %rax
	.loc 2 2032 6
	cmpq	%rax, -80(%rbp)
	jne	.L379
	.loc 2 2033 12
	movl	$1, %eax
	jmp	.L395
.L379:
	.loc 2 2039 11
	fldt	-48(%rbp)
	fldt	-32(%rbp)
	fcomip	%st(1), %st
	fstp	%st(0)
	jbe	.L402
	.loc 2 2039 11 is_stmt 0 discriminator 1
	movl	$-1, %eax
	jmp	.L407
.L402:
	.loc 2 2040 11 is_stmt 1
	fldt	-32(%rbp)
	fldt	-48(%rbp)
	fcomip	%st(1), %st
	fstp	%st(0)
	jbe	.L403
	.loc 2 2040 11 is_stmt 0 discriminator 1
	movl	$1, %eax
	.loc 2 2039 11 is_stmt 1 discriminator 1
	jmp	.L407
.L403:
	.loc 2 2041 11
	fldt	-48(%rbp)
	fldt	-32(%rbp)
	fucomip	%st(1), %st
	fstp	%st(0)
	jp	.L399
	fldt	-48(%rbp)
	fldt	-32(%rbp)
	fucomip	%st(1), %st
	fstp	%st(0)
	je	.L404
.L399:
	.loc 2 2042 11
	fldt	-32(%rbp)
	fldt	-32(%rbp)
	fucomip	%st(1), %st
	fstp	%st(0)
	jp	.L400
	fldt	-32(%rbp)
	fldt	-32(%rbp)
	fucomip	%st(1), %st
	fstp	%st(0)
	je	.L405
.L400:
	.loc 2 2043 11
	fldt	-48(%rbp)
	fldt	-48(%rbp)
	fucomip	%st(1), %st
	fstp	%st(0)
	jp	.L401
	fldt	-48(%rbp)
	fldt	-48(%rbp)
	fucomip	%st(1), %st
	fstp	%st(0)
	je	.L406
.L401:
	.loc 2 2043 13 discriminator 1
	movq	-80(%rbp), %rdx
	movq	-72(%rbp), %rax
	movq	%rdx, %rsi
	movq	%rax, %rdi
	call	nan_compare
	.loc 2 2039 11 discriminator 1
	jmp	.L407
.L406:
	.loc 2 2043 11 discriminator 2
	movl	$1, %eax
	.loc 2 2039 11 discriminator 2
	jmp	.L407
.L405:
	.loc 2 2042 11 discriminator 1
	movl	$-1, %eax
	.loc 2 2039 11 discriminator 1
	jmp	.L407
.L404:
	.loc 2 2041 11 discriminator 1
	movl	$0, %eax
.L407:
	.loc 2 2039 11
	nop
.L395:
	.loc 2 2044 1 discriminator 1
	movq	-8(%rbp), %rcx
	xorq	%fs:40, %rcx
	je	.L396
	.loc 2 2044 1 is_stmt 0
	call	__stack_chk_fail@PLT
.L396:
	leave
	.cfi_def_cfa 7, 8
	ret
	.cfi_endproc
.LFE91:
	.size	general_numcompare, .-general_numcompare
	.type	getmonth, @function
getmonth:
.LFB92:
	.loc 2 2051 1 is_stmt 1
	.cfi_startproc
	endbr64
	pushq	%rbp
	.cfi_def_cfa_offset 16
	.cfi_offset 6, -16
	movq	%rsp, %rbp
	.cfi_def_cfa_register 6
	pushq	%rbx
	subq	$64, %rsp
	.cfi_offset 3, -24
	movq	%rdi, -64(%rbp)
	movq	%rsi, -72(%rbp)
	.loc 2 2052 10
	movq	$0, -48(%rbp)
	.loc 2 2053 10
	movq	$12, -40(%rbp)
	.loc 2 2055 9
	jmp	.L409
.L410:
	.loc 2 2056 10
	addq	$1, -64(%rbp)
.L409:
	.loc 2 2055 27
	movq	-64(%rbp), %rax
	movzbl	(%rax), %eax
	.loc 2 2055 17
	movsbl	%al, %eax
	movl	%eax, %edi
	call	to_uchar
	movzbl	%al, %eax
	.loc 2 2055 16
	cltq
	leaq	blanks(%rip), %rdx
	movzbl	(%rax,%rdx), %eax
	.loc 2 2055 9
	testb	%al, %al
	jne	.L410
.L418:
.LBB31:
	.loc 2 2060 23
	movq	-48(%rbp), %rdx
	movq	-40(%rbp), %rax
	addq	%rdx, %rax
	.loc 2 2060 14
	shrq	%rax
	movq	%rax, -16(%rbp)
	.loc 2 2061 19
	movq	-64(%rbp), %rax
	movq	%rax, -32(%rbp)
	.loc 2 2062 19
	movq	-16(%rbp), %rax
	salq	$4, %rax
	movq	%rax, %rdx
	leaq	monthtab(%rip), %rax
	movq	(%rdx,%rax), %rax
	movq	%rax, -24(%rbp)
.L417:
	.loc 2 2066 16
	movq	-24(%rbp), %rax
	movzbl	(%rax), %eax
	.loc 2 2066 14
	testb	%al, %al
	jne	.L411
	.loc 2 2068 18
	cmpq	$0, -72(%rbp)
	je	.L412
	.loc 2 2069 21
	movq	-72(%rbp), %rax
	movq	-32(%rbp), %rdx
	movq	%rdx, (%rax)
.L412:
	.loc 2 2070 34
	movq	-16(%rbp), %rax
	salq	$4, %rax
	movq	%rax, %rdx
	leaq	8+monthtab(%rip), %rax
	movl	(%rdx,%rax), %eax
	jmp	.L413
.L411:
	.loc 2 2072 48
	movq	-32(%rbp), %rax
	movzbl	(%rax), %eax
	.loc 2 2072 38
	movsbl	%al, %eax
	movl	%eax, %edi
	call	to_uchar
	movzbl	%al, %eax
	.loc 2 2072 37
	cltq
	leaq	fold_toupper(%rip), %rdx
	movzbl	(%rax,%rdx), %eax
	.loc 2 2072 15
	movsbl	%al, %eax
	movl	%eax, %edi
	call	to_uchar
	movl	%eax, %ebx
	.loc 2 2072 66
	movq	-24(%rbp), %rax
	movzbl	(%rax), %eax
	.loc 2 2072 56
	movsbl	%al, %eax
	movl	%eax, %edi
	call	to_uchar
	.loc 2 2072 14
	cmpb	%al, %bl
	jnb	.L414
	.loc 2 2074 18
	movq	-16(%rbp), %rax
	movq	%rax, -40(%rbp)
	.loc 2 2075 15
	jmp	.L415
.L414:
	.loc 2 2077 53
	movq	-32(%rbp), %rax
	movzbl	(%rax), %eax
	.loc 2 2077 43
	movsbl	%al, %eax
	movl	%eax, %edi
	call	to_uchar
	movzbl	%al, %eax
	.loc 2 2077 42
	cltq
	leaq	fold_toupper(%rip), %rdx
	movzbl	(%rax,%rdx), %eax
	.loc 2 2077 20
	movsbl	%al, %eax
	movl	%eax, %edi
	call	to_uchar
	movl	%eax, %ebx
	.loc 2 2077 71
	movq	-24(%rbp), %rax
	movzbl	(%rax), %eax
	.loc 2 2077 61
	movsbl	%al, %eax
	movl	%eax, %edi
	call	to_uchar
	.loc 2 2077 19
	cmpb	%al, %bl
	jbe	.L416
	.loc 2 2079 18
	movq	-16(%rbp), %rax
	addq	$1, %rax
	movq	%rax, -48(%rbp)
	.loc 2 2080 15
	jmp	.L415
.L416:
	.loc 2 2064 16
	addq	$1, -32(%rbp)
	.loc 2 2064 21
	addq	$1, -24(%rbp)
	.loc 2 2066 14
	jmp	.L417
.L415:
.LBE31:
	.loc 2 2084 3
	movq	-48(%rbp), %rax
	cmpq	-40(%rbp), %rax
	jb	.L418
	.loc 2 2086 10
	movl	$0, %eax
.L413:
	.loc 2 2087 1
	addq	$64, %rsp
	popq	%rbx
	popq	%rbp
	.cfi_def_cfa 7, 8
	ret
	.cfi_endproc
.LFE92:
	.size	getmonth, .-getmonth
	.local	random_md5_state
	.comm	random_md5_state,156,32
	.section	.rodata
.LC130:
	.string	"getrandom"
	.text
	.type	random_md5_state_init, @function
random_md5_state_init:
.LFB93:
	.loc 2 2096 1
	.cfi_startproc
	endbr64
	pushq	%rbp
	.cfi_def_cfa_offset 16
	.cfi_offset 6, -16
	movq	%rsp, %rbp
	.cfi_def_cfa_register 6
	pushq	%rbx
	subq	$72, %rsp
	.cfi_offset 3, -24
	movq	%rdi, -72(%rbp)
	.loc 2 2096 1
	movq	%fs:40, %rax
	movq	%rax, -24(%rbp)
	xorl	%eax, %eax
	.loc 2 2098 31
	movq	-72(%rbp), %rax
	movl	$16, %esi
	movq	%rax, %rdi
	call	randread_new@PLT
	movq	%rax, -56(%rbp)
	.loc 2 2099 6
	cmpq	$0, -56(%rbp)
	jne	.L420
	.loc 2 2100 5
	cmpq	$0, -72(%rbp)
	je	.L421
	.loc 2 2100 5 is_stmt 0 discriminator 1
	movq	-72(%rbp), %rbx
	jmp	.L422
.L421:
	.loc 2 2100 5 discriminator 2
	leaq	.LC130(%rip), %rbx
.L422:
	.loc 2 2100 15 is_stmt 1 discriminator 4
	leaq	.LC103(%rip), %rdi
	call	gettext@PLT
	.loc 2 2100 5 discriminator 4
	movq	%rbx, %rsi
	movq	%rax, %rdi
	call	sort_die
.L420:
	.loc 2 2101 3
	leaq	-48(%rbp), %rcx
	movq	-56(%rbp), %rax
	movl	$16, %edx
	movq	%rcx, %rsi
	movq	%rax, %rdi
	call	randread@PLT
	.loc 2 2102 7
	movq	-56(%rbp), %rax
	movq	%rax, %rdi
	call	randread_free@PLT
	.loc 2 2102 6
	testl	%eax, %eax
	je	.L423
	.loc 2 2103 15
	leaq	.LC105(%rip), %rdi
	call	gettext@PLT
	movq	%rax, %rdx
	.loc 2 2103 5
	movq	-72(%rbp), %rax
	movq	%rax, %rsi
	movq	%rdx, %rdi
	call	sort_die
.L423:
	.loc 2 2104 3
	leaq	random_md5_state(%rip), %rdi
	call	md5_init_ctx@PLT
	.loc 2 2105 3
	leaq	-48(%rbp), %rax
	leaq	random_md5_state(%rip), %rdx
	movl	$16, %esi
	movq	%rax, %rdi
	call	md5_process_bytes@PLT
	.loc 2 2106 1
	nop
	movq	-24(%rbp), %rax
	xorq	%fs:40, %rax
	je	.L424
	call	__stack_chk_fail@PLT
.L424:
	addq	$72, %rsp
	popq	%rbx
	popq	%rbp
	.cfi_def_cfa 7, 8
	ret
	.cfi_endproc
.LFE93:
	.size	random_md5_state_init, .-random_md5_state_init
	.section	.rodata
.LC131:
	.string	"string transformation failed"
	.align 8
.LC132:
	.string	"set LC_ALL='C' to work around the problem"
	.align 8
.LC133:
	.string	"the untransformed string was %s"
	.text
	.type	xstrxfrm, @function
xstrxfrm:
.LFB94:
	.loc 2 2112 1
	.cfi_startproc
	endbr64
	pushq	%rbp
	.cfi_def_cfa_offset 16
	.cfi_offset 6, -16
	movq	%rsp, %rbp
	.cfi_def_cfa_register 6
	pushq	%rbx
	subq	$56, %rsp
	.cfi_offset 3, -24
	movq	%rdi, -40(%rbp)
	movq	%rsi, -48(%rbp)
	movq	%rdx, -56(%rbp)
	.loc 2 2113 3
	call	__errno_location@PLT
	.loc 2 2113 9
	movl	$0, (%rax)
	.loc 2 2114 28
	movq	-56(%rbp), %rdx
	movq	-48(%rbp), %rcx
	movq	-40(%rbp), %rax
	movq	%rcx, %rsi
	movq	%rax, %rdi
	call	strxfrm@PLT
	movq	%rax, -24(%rbp)
	.loc 2 2116 7
	call	__errno_location@PLT
	movl	(%rax), %eax
	.loc 2 2116 6
	testl	%eax, %eax
	je	.L426
.LBB32:
	.loc 2 2118 24
	leaq	.LC131(%rip), %rdi
	call	gettext@PLT
	movq	%rax, %rbx
	.loc 2 2118 17
	call	__errno_location@PLT
	.loc 2 2118 7
	movl	(%rax), %eax
	movq	%rbx, %rdx
	movl	%eax, %esi
	movl	$0, %edi
	movl	$0, %eax
	call	error@PLT
	.loc 2 2119 20
	leaq	.LC132(%rip), %rdi
	call	gettext@PLT
	.loc 2 2119 7
	movq	%rax, %rdx
	movl	$0, %esi
	movl	$0, %edi
	movl	$0, %eax
	call	error@PLT
	.loc 2 2120 7
	movq	-48(%rbp), %rax
	movq	%rax, %rdx
	movl	$8, %esi
	movl	$0, %edi
	call	quotearg_n_style@PLT
	movq	%rax, %rbx
	leaq	.LC133(%rip), %rdi
	call	gettext@PLT
	movq	%rbx, %rcx
	movq	%rax, %rdx
	movl	$0, %esi
	movl	$2, %edi
	movl	$0, %eax
	call	error@PLT
.L426:
.LBE32:
	.loc 2 2125 10
	movq	-24(%rbp), %rax
	.loc 2 2126 1
	addq	$56, %rsp
	popq	%rbx
	popq	%rbp
	.cfi_def_cfa 7, 8
	ret
	.cfi_endproc
.LFE94:
	.size	xstrxfrm, .-xstrxfrm
	.type	compare_random, @function
compare_random:
.LFB95:
	.loc 2 2135 1
	.cfi_startproc
	endbr64
	pushq	%rbp
	.cfi_def_cfa_offset 16
	.cfi_offset 6, -16
	movq	%rsp, %rbp
	.cfi_def_cfa_register 6
	subq	$4096, %rsp
	orq	$0, (%rsp)
	subq	$384, %rsp
	movq	%rdi, -4456(%rbp)
	movq	%rsi, -4464(%rbp)
	movq	%rdx, -4472(%rbp)
	movq	%rcx, -4480(%rbp)
	.loc 2 2135 1
	movq	%fs:40, %rax
	movq	%rax, -8(%rbp)
	xorl	%eax, %eax
	.loc 2 2140 7
	movl	$0, -4440(%rbp)
	.loc 2 2143 9
	leaq	-4016(%rbp), %rax
	movq	%rax, -4432(%rbp)
	.loc 2 2144 10
	movq	$4000, -4424(%rbp)
	.loc 2 2145 9
	movq	$0, -4416(%rbp)
	.loc 2 2148 15
	movq	random_md5_state(%rip), %rax
	movq	8+random_md5_state(%rip), %rdx
	movq	%rax, -4180(%rbp)
	movq	%rdx, -4172(%rbp)
	movq	16+random_md5_state(%rip), %rax
	movq	24+random_md5_state(%rip), %rdx
	movq	%rax, -4164(%rbp)
	movq	%rdx, -4156(%rbp)
	movq	32+random_md5_state(%rip), %rax
	movq	40+random_md5_state(%rip), %rdx
	movq	%rax, -4148(%rbp)
	movq	%rdx, -4140(%rbp)
	movq	48+random_md5_state(%rip), %rax
	movq	56+random_md5_state(%rip), %rdx
	movq	%rax, -4132(%rbp)
	movq	%rdx, -4124(%rbp)
	movq	64+random_md5_state(%rip), %rax
	movq	72+random_md5_state(%rip), %rdx
	movq	%rax, -4116(%rbp)
	movq	%rdx, -4108(%rbp)
	movq	80+random_md5_state(%rip), %rax
	movq	88+random_md5_state(%rip), %rdx
	movq	%rax, -4100(%rbp)
	movq	%rdx, -4092(%rbp)
	movq	96+random_md5_state(%rip), %rax
	movq	104+random_md5_state(%rip), %rdx
	movq	%rax, -4084(%rbp)
	movq	%rdx, -4076(%rbp)
	movq	112+random_md5_state(%rip), %rax
	movq	120+random_md5_state(%rip), %rdx
	movq	%rax, -4068(%rbp)
	movq	%rdx, -4060(%rbp)
	movq	128+random_md5_state(%rip), %rax
	movq	136+random_md5_state(%rip), %rdx
	movq	%rax, -4052(%rbp)
	movq	%rdx, -4044(%rbp)
	movq	144+random_md5_state(%rip), %rax
	movq	%rax, -4036(%rbp)
	movl	152+random_md5_state(%rip), %eax
	movl	%eax, -4028(%rbp)
	.loc 2 2148 8
	movq	-4180(%rbp), %rax
	movq	-4172(%rbp), %rdx
	movq	%rax, -4336(%rbp)
	movq	%rdx, -4328(%rbp)
	movq	-4164(%rbp), %rax
	movq	-4156(%rbp), %rdx
	movq	%rax, -4320(%rbp)
	movq	%rdx, -4312(%rbp)
	movq	-4148(%rbp), %rax
	movq	-4140(%rbp), %rdx
	movq	%rax, -4304(%rbp)
	movq	%rdx, -4296(%rbp)
	movq	-4132(%rbp), %rax
	movq	-4124(%rbp), %rdx
	movq	%rax, -4288(%rbp)
	movq	%rdx, -4280(%rbp)
	movq	-4116(%rbp), %rax
	movq	-4108(%rbp), %rdx
	movq	%rax, -4272(%rbp)
	movq	%rdx, -4264(%rbp)
	movq	-4100(%rbp), %rax
	movq	-4092(%rbp), %rdx
	movq	%rax, -4256(%rbp)
	movq	%rdx, -4248(%rbp)
	movq	-4084(%rbp), %rax
	movq	-4076(%rbp), %rdx
	movq	%rax, -4240(%rbp)
	movq	%rdx, -4232(%rbp)
	movq	-4068(%rbp), %rax
	movq	-4060(%rbp), %rdx
	movq	%rax, -4224(%rbp)
	movq	%rdx, -4216(%rbp)
	movq	-4052(%rbp), %rax
	movq	-4044(%rbp), %rdx
	movq	%rax, -4208(%rbp)
	movq	%rdx, -4200(%rbp)
	movq	-4036(%rbp), %rax
	movq	%rax, -4192(%rbp)
	movl	-4028(%rbp), %eax
	movl	%eax, -4184(%rbp)
	.loc 2 2150 7
	movzbl	hard_LC_COLLATE(%rip), %eax
	.loc 2 2150 6
	testb	%al, %al
	je	.L429
.LBB33:
	.loc 2 2152 19
	movq	-4456(%rbp), %rdx
	movq	-4464(%rbp), %rax
	addq	%rdx, %rax
	movq	%rax, -4408(%rbp)
	.loc 2 2153 19
	movq	-4472(%rbp), %rdx
	movq	-4480(%rbp), %rax
	addq	%rdx, %rax
	movq	%rax, -4400(%rbp)
.L447:
.LBB34:
	.loc 2 2172 44
	movq	-4464(%rbp), %rdx
	movq	-4480(%rbp), %rax
	addq	%rax, %rdx
	.loc 2 2172 36
	movq	%rdx, %rax
	addq	%rax, %rax
	addq	%rdx, %rax
	.loc 2 2172 18
	addq	$2, %rax
	movq	%rax, -4392(%rbp)
	.loc 2 2173 14
	movq	-4424(%rbp), %rax
	cmpq	-4392(%rbp), %rax
	jnb	.L430
	.loc 2 2175 25
	movq	-4424(%rbp), %rdx
	movq	%rdx, %rax
	addq	%rax, %rax
	addq	%rdx, %rax
	shrq	%rax
	.loc 2 2175 23
	cmpq	%rax, -4392(%rbp)
	cmovnb	-4392(%rbp), %rax
	movq	%rax, -4424(%rbp)
	.loc 2 2176 15
	movq	-4416(%rbp), %rax
	movq	%rax, %rdi
	call	free@PLT
	.loc 2 2177 33
	movq	-4424(%rbp), %rax
	movq	%rax, %rdi
	call	malloc@PLT
	movq	%rax, -4416(%rbp)
	.loc 2 2177 19
	movq	-4416(%rbp), %rax
	movq	%rax, -4432(%rbp)
	.loc 2 2178 18
	cmpq	$0, -4432(%rbp)
	jne	.L430
	.loc 2 2180 23
	leaq	-4016(%rbp), %rax
	movq	%rax, -4432(%rbp)
	.loc 2 2181 27
	movq	$4000, -4424(%rbp)
.L430:
	.loc 2 2186 64
	movq	-4456(%rbp), %rax
	cmpq	-4408(%rbp), %rax
	jnb	.L431
	.loc 2 2186 29 discriminator 1
	movq	-4424(%rbp), %rdx
	movq	-4456(%rbp), %rcx
	movq	-4432(%rbp), %rax
	movq	%rcx, %rsi
	movq	%rax, %rdi
	call	xstrxfrm
	.loc 2 2186 64 discriminator 1
	addq	$1, %rax
	jmp	.L432
.L431:
	.loc 2 2186 64 is_stmt 0 discriminator 2
	movl	$0, %eax
.L432:
	.loc 2 2185 18 is_stmt 1
	movq	%rax, -4384(%rbp)
	.loc 2 2187 16
	movq	-4384(%rbp), %rax
	cmpq	-4424(%rbp), %rax
	setbe	%al
	movb	%al, -4441(%rbp)
	.loc 2 2193 14
	movq	-4472(%rbp), %rax
	cmpq	-4400(%rbp), %rax
	jnb	.L433
	.loc 2 2190 17
	cmpb	$0, -4441(%rbp)
	je	.L434
	.loc 2 2190 17 is_stmt 0 discriminator 1
	movq	-4424(%rbp), %rax
	subq	-4384(%rbp), %rax
	jmp	.L435
.L434:
	.loc 2 2190 17 discriminator 2
	movl	$0, %eax
.L435:
	.loc 2 2190 17 discriminator 4
	cmpb	$0, -4441(%rbp)
	je	.L436
	.loc 2 2190 17 discriminator 5
	movq	-4432(%rbp), %rcx
	movq	-4384(%rbp), %rdx
	addq	%rdx, %rcx
	jmp	.L437
.L436:
	.loc 2 2190 17 discriminator 6
	movl	$0, %ecx
.L437:
	.loc 2 2190 17 discriminator 8
	movq	-4472(%rbp), %rsi
	movq	%rax, %rdx
	movq	%rcx, %rdi
	call	xstrxfrm
	.loc 2 2193 14 is_stmt 1 discriminator 8
	addq	$1, %rax
	jmp	.L438
.L433:
	.loc 2 2193 14 is_stmt 0 discriminator 1
	movl	$0, %eax
.L438:
	.loc 2 2188 18 is_stmt 1
	movq	%rax, -4376(%rbp)
	.loc 2 2195 18
	movzbl	-4441(%rbp), %eax
	xorl	$1, %eax
	.loc 2 2195 14
	testb	%al, %al
	jne	.L439
	.loc 2 2195 34 discriminator 1
	movq	-4384(%rbp), %rdx
	movq	-4376(%rbp), %rax
	addq	%rdx, %rax
	.loc 2 2195 15 discriminator 1
	cmpq	%rax, -4424(%rbp)
	jnb	.L440
.L439:
	.loc 2 2197 23
	movq	-4384(%rbp), %rdx
	movq	-4376(%rbp), %rax
	addq	%rdx, %rax
	movq	%rax, -4424(%rbp)
	.loc 2 2198 18
	movabsq	$6148914691236517204, %rax
	cmpq	%rax, -4424(%rbp)
	ja	.L441
	.loc 2 2199 35
	movq	-4424(%rbp), %rdx
	movq	%rdx, %rax
	addq	%rax, %rax
	addq	%rdx, %rax
	.loc 2 2199 25
	shrq	%rax
	movq	%rax, -4424(%rbp)
.L441:
	.loc 2 2200 15
	movq	-4416(%rbp), %rax
	movq	%rax, %rdi
	call	free@PLT
	.loc 2 2201 33
	movq	-4424(%rbp), %rax
	movq	%rax, %rdi
	call	xmalloc@PLT
	movq	%rax, -4416(%rbp)
	.loc 2 2201 19
	movq	-4416(%rbp), %rax
	movq	%rax, -4432(%rbp)
	.loc 2 2202 18
	movq	-4456(%rbp), %rax
	cmpq	-4408(%rbp), %rax
	jnb	.L442
	.loc 2 2203 17
	movq	-4384(%rbp), %rdx
	movq	-4456(%rbp), %rcx
	movq	-4432(%rbp), %rax
	movq	%rcx, %rsi
	movq	%rax, %rdi
	call	strxfrm@PLT
.L442:
	.loc 2 2204 18
	movq	-4472(%rbp), %rax
	cmpq	-4400(%rbp), %rax
	jnb	.L440
	.loc 2 2205 17
	movq	-4432(%rbp), %rdx
	movq	-4384(%rbp), %rax
	leaq	(%rdx,%rax), %rcx
	movq	-4376(%rbp), %rdx
	movq	-4472(%rbp), %rax
	movq	%rax, %rsi
	movq	%rcx, %rdi
	call	strxfrm@PLT
.L440:
	.loc 2 2212 14
	movq	-4456(%rbp), %rax
	cmpq	-4408(%rbp), %rax
	jnb	.L443
	.loc 2 2213 22
	movq	-4456(%rbp), %rax
	movq	%rax, %rdi
	call	strlen@PLT
	.loc 2 2213 19
	addq	$1, %rax
	addq	%rax, -4456(%rbp)
.L443:
	.loc 2 2214 14
	movq	-4472(%rbp), %rax
	cmpq	-4400(%rbp), %rax
	jnb	.L444
	.loc 2 2215 22
	movq	-4472(%rbp), %rax
	movq	%rax, %rdi
	call	strlen@PLT
	.loc 2 2215 19
	addq	$1, %rax
	addq	%rax, -4472(%rbp)
.L444:
	.loc 2 2216 14
	movq	-4456(%rbp), %rax
	cmpq	-4408(%rbp), %rax
	jb	.L445
	.loc 2 2216 15 discriminator 1
	movq	-4472(%rbp), %rax
	cmpq	-4400(%rbp), %rax
	jb	.L445
	.loc 2 2218 20
	movq	-4384(%rbp), %rax
	movq	%rax, -4464(%rbp)
	.loc 2 2218 35
	movq	-4432(%rbp), %rax
	movq	%rax, -4456(%rbp)
	.loc 2 2219 20
	movq	-4376(%rbp), %rax
	movq	%rax, -4480(%rbp)
	.loc 2 2219 35
	movq	-4432(%rbp), %rdx
	movq	-4384(%rbp), %rax
	addq	%rdx, %rax
	movq	%rax, -4472(%rbp)
	.loc 2 2220 15
	jmp	.L429
.L445:
	.loc 2 2225 11
	leaq	-4336(%rbp), %rdx
	movq	-4384(%rbp), %rcx
	movq	-4432(%rbp), %rax
	movq	%rcx, %rsi
	movq	%rax, %rdi
	call	md5_process_bytes@PLT
	.loc 2 2226 34
	movq	-4432(%rbp), %rdx
	movq	-4384(%rbp), %rax
	leaq	(%rdx,%rax), %rcx
	.loc 2 2226 11
	leaq	-4336(%rbp), %rax
	leaq	156(%rax), %rdx
	movq	-4376(%rbp), %rax
	movq	%rax, %rsi
	movq	%rcx, %rdi
	call	md5_process_bytes@PLT
	.loc 2 2229 14
	cmpl	$0, -4440(%rbp)
	jne	.L447
	.loc 2 2231 27
	movq	-4384(%rbp), %rax
	cmpq	%rax, -4376(%rbp)
	cmovbe	-4376(%rbp), %rax
	movq	%rax, %rdx
	.loc 2 2231 44
	movq	-4432(%rbp), %rcx
	movq	-4384(%rbp), %rax
	addq	%rax, %rcx
	.loc 2 2231 27
	movq	-4432(%rbp), %rax
	movq	%rcx, %rsi
	movq	%rax, %rdi
	call	memcmp@PLT
	movl	%eax, -4440(%rbp)
	.loc 2 2232 18
	cmpl	$0, -4440(%rbp)
	jne	.L447
	.loc 2 2233 36
	movq	-4384(%rbp), %rax
	cmpq	-4376(%rbp), %rax
	seta	%al
	movzbl	%al, %edx
	.loc 2 2233 54
	movq	-4384(%rbp), %rax
	cmpq	-4376(%rbp), %rax
	setb	%al
	movzbl	%al, %eax
	.loc 2 2233 27
	subl	%eax, %edx
	movl	%edx, %eax
	movl	%eax, -4440(%rbp)
.LBE34:
	.loc 2 2156 9
	jmp	.L447
.L429:
.LBE33:
	.loc 2 2239 3
	leaq	-4336(%rbp), %rdx
	movq	-4464(%rbp), %rcx
	movq	-4456(%rbp), %rax
	movq	%rcx, %rsi
	movq	%rax, %rdi
	call	md5_process_bytes@PLT
	.loc 2 2239 43
	leaq	-4368(%rbp), %rdx
	leaq	-4336(%rbp), %rax
	movq	%rdx, %rsi
	movq	%rax, %rdi
	call	md5_finish_ctx@PLT
	.loc 2 2240 3
	leaq	-4336(%rbp), %rax
	leaq	156(%rax), %rdx
	movq	-4480(%rbp), %rcx
	movq	-4472(%rbp), %rax
	movq	%rcx, %rsi
	movq	%rax, %rdi
	call	md5_process_bytes@PLT
	.loc 2 2240 43
	leaq	-4368(%rbp), %rax
	leaq	16(%rax), %rdx
	leaq	-4336(%rbp), %rax
	addq	$156, %rax
	movq	%rdx, %rsi
	movq	%rax, %rdi
	call	md5_finish_ctx@PLT
	.loc 2 2241 14
	leaq	-4368(%rbp), %rax
	leaq	16(%rax), %rcx
	leaq	-4368(%rbp), %rax
	movl	$16, %edx
	movq	%rcx, %rsi
	movq	%rax, %rdi
	call	memcmp@PLT
	movl	%eax, -4436(%rbp)
	.loc 2 2244 6
	cmpl	$0, -4436(%rbp)
	jne	.L448
	.loc 2 2246 10
	cmpl	$0, -4440(%rbp)
	jne	.L449
	.loc 2 2248 23
	movq	-4464(%rbp), %rax
	cmpq	%rax, -4480(%rbp)
	cmovbe	-4480(%rbp), %rax
	movq	%rax, %rdx
	movq	-4472(%rbp), %rcx
	movq	-4456(%rbp), %rax
	movq	%rcx, %rsi
	movq	%rax, %rdi
	call	memcmp@PLT
	movl	%eax, -4440(%rbp)
	.loc 2 2249 14
	cmpl	$0, -4440(%rbp)
	jne	.L449
	.loc 2 2250 31
	movq	-4464(%rbp), %rax
	cmpq	-4480(%rbp), %rax
	seta	%al
	movzbl	%al, %edx
	.loc 2 2250 47
	movq	-4464(%rbp), %rax
	cmpq	-4480(%rbp), %rax
	setb	%al
	movzbl	%al, %eax
	.loc 2 2250 23
	subl	%eax, %edx
	movl	%edx, %eax
	movl	%eax, -4440(%rbp)
.L449:
	.loc 2 2253 12
	movl	-4440(%rbp), %eax
	movl	%eax, -4436(%rbp)
.L448:
	.loc 2 2256 3
	movq	-4416(%rbp), %rax
	movq	%rax, %rdi
	call	free@PLT
	.loc 2 2258 10
	movl	-4436(%rbp), %eax
	.loc 2 2259 1
	movq	-8(%rbp), %rsi
	xorq	%fs:40, %rsi
	je	.L451
	call	__stack_chk_fail@PLT
.L451:
	leave
	.cfi_def_cfa 7, 8
	ret
	.cfi_endproc
.LFE95:
	.size	compare_random, .-compare_random
	.type	debug_width, @function
debug_width:
.LFB96:
	.loc 2 2267 1
	.cfi_startproc
	endbr64
	pushq	%rbp
	.cfi_def_cfa_offset 16
	.cfi_offset 6, -16
	movq	%rsp, %rbp
	.cfi_def_cfa_register 6
	subq	$32, %rsp
	movq	%rdi, -24(%rbp)
	movq	%rsi, -32(%rbp)
	.loc 2 2268 39
	movq	-32(%rbp), %rax
	subq	-24(%rbp), %rax
	.loc 2 2268 18
	movq	%rax, %rcx
	movq	-24(%rbp), %rax
	movl	$0, %edx
	movq	%rcx, %rsi
	movq	%rax, %rdi
	call	mbsnwidth@PLT
	.loc 2 2268 10
	cltq
	movq	%rax, -8(%rbp)
	.loc 2 2269 9
	jmp	.L453
.L454:
	.loc 2 2270 20
	movq	-24(%rbp), %rax
	leaq	1(%rax), %rdx
	movq	%rdx, -24(%rbp)
	.loc 2 2270 15
	movzbl	(%rax), %eax
	.loc 2 2270 23
	cmpb	$9, %al
	sete	%al
	movzbl	%al, %eax
	cltq
	.loc 2 2270 11
	addq	%rax, -8(%rbp)
.L453:
	.loc 2 2269 9
	movq	-24(%rbp), %rax
	cmpq	-32(%rbp), %rax
	jb	.L454
	.loc 2 2271 10
	movq	-8(%rbp), %rax
	.loc 2 2272 1
	leave
	.cfi_def_cfa 7, 8
	ret
	.cfi_endproc
.LFE96:
	.size	debug_width, .-debug_width
	.section	.rodata
.LC134:
	.string	"^ no match for key\n"
	.text
	.type	mark_key, @function
mark_key:
.LFB97:
	.loc 2 2279 1
	.cfi_startproc
	endbr64
	pushq	%rbp
	.cfi_def_cfa_offset 16
	.cfi_offset 6, -16
	movq	%rsp, %rbp
	.cfi_def_cfa_register 6
	subq	$16, %rsp
	movq	%rdi, -8(%rbp)
	movq	%rsi, -16(%rbp)
	.loc 2 2280 9
	jmp	.L457
.L458:
	.loc 2 2281 5
	movl	$32, %edi
	call	putchar_unlocked@PLT
.L457:
	.loc 2 2280 16
	movq	-8(%rbp), %rax
	leaq	-1(%rax), %rdx
	movq	%rdx, -8(%rbp)
	.loc 2 2280 9
	testq	%rax, %rax
	jne	.L458
	.loc 2 2283 6
	cmpq	$0, -16(%rbp)
	jne	.L459
	.loc 2 2284 13
	leaq	.LC134(%rip), %rdi
	call	gettext@PLT
	.loc 2 2284 5
	movq	%rax, %rdi
	movl	$0, %eax
	call	printf@PLT
	.loc 2 2293 1
	jmp	.L461
.L459:
	.loc 2 2288 9 discriminator 1
	movl	$95, %edi
	call	putchar_unlocked@PLT
	.loc 2 2289 7 discriminator 1
	subq	$1, -16(%rbp)
	cmpq	$0, -16(%rbp)
	jne	.L459
	.loc 2 2291 7
	movl	$10, %edi
	call	putchar_unlocked@PLT
.L461:
	.loc 2 2293 1
	nop
	leave
	.cfi_def_cfa 7, 8
	ret
	.cfi_endproc
.LFE97:
	.size	mark_key, .-mark_key
	.type	key_numeric, @function
key_numeric:
.LFB98:
	.loc 2 2299 1
	.cfi_startproc
	pushq	%rbp
	.cfi_def_cfa_offset 16
	.cfi_offset 6, -16
	movq	%rsp, %rbp
	.cfi_def_cfa_register 6
	movq	%rdi, -8(%rbp)
	.loc 2 2300 13
	movq	-8(%rbp), %rax
	movzbl	50(%rax), %eax
	.loc 2 2300 47
	testb	%al, %al
	jne	.L463
	.loc 2 2300 29 discriminator 2
	movq	-8(%rbp), %rax
	movzbl	52(%rax), %eax
	.loc 2 2300 23 discriminator 2
	testb	%al, %al
	jne	.L463
	.loc 2 2300 53 discriminator 4
	movq	-8(%rbp), %rax
	movzbl	53(%rax), %eax
	.loc 2 2300 47 discriminator 4
	testb	%al, %al
	je	.L464
.L463:
	.loc 2 2300 47 is_stmt 0 discriminator 5
	movl	$1, %eax
	jmp	.L465
.L464:
	.loc 2 2300 47 discriminator 6
	movl	$0, %eax
.L465:
	.loc 2 2300 47 discriminator 8
	andl	$1, %eax
	.loc 2 2301 1 is_stmt 1 discriminator 8
	popq	%rbp
	.cfi_def_cfa 7, 8
	ret
	.cfi_endproc
.LFE98:
	.size	key_numeric, .-key_numeric
	.type	debug_key, @function
debug_key:
.LFB99:
	.loc 2 2308 1
	.cfi_startproc
	endbr64
	pushq	%rbp
	.cfi_def_cfa_offset 16
	.cfi_offset 6, -16
	movq	%rsp, %rbp
	.cfi_def_cfa_register 6
	subq	$112, %rsp
	movq	%rdi, -104(%rbp)
	movq	%rsi, -112(%rbp)
	.loc 2 2308 1
	movq	%fs:40, %rax
	movq	%rax, -8(%rbp)
	xorl	%eax, %eax
	.loc 2 2309 9
	movq	-104(%rbp), %rax
	movq	(%rax), %rax
	movq	%rax, -56(%rbp)
	.loc 2 2310 9
	movq	-56(%rbp), %rax
	movq	%rax, -72(%rbp)
	.loc 2 2311 26
	movq	-104(%rbp), %rax
	movq	8(%rax), %rax
	.loc 2 2311 35
	leaq	-1(%rax), %rdx
	.loc 2 2311 9
	movq	-56(%rbp), %rax
	addq	%rdx, %rax
	movq	%rax, -64(%rbp)
	.loc 2 2313 6
	cmpq	$0, -112(%rbp)
	je	.L468
	.loc 2 2315 14
	movq	-112(%rbp), %rax
	movq	(%rax), %rax
	.loc 2 2315 10
	cmpq	$-1, %rax
	je	.L469
	.loc 2 2316 15
	movq	-112(%rbp), %rdx
	movq	-104(%rbp), %rax
	movq	%rdx, %rsi
	movq	%rax, %rdi
	call	begfield
	movq	%rax, -72(%rbp)
.L469:
	.loc 2 2317 14
	movq	-112(%rbp), %rax
	movq	16(%rax), %rax
	.loc 2 2317 10
	cmpq	$-1, %rax
	je	.L470
	.loc 2 2318 15
	movq	-112(%rbp), %rdx
	movq	-104(%rbp), %rax
	movq	%rdx, %rsi
	movq	%rax, %rdi
	call	limfield
	movq	%rax, -64(%rbp)
.L470:
	.loc 2 2320 15
	movq	-112(%rbp), %rax
	movzbl	48(%rax), %eax
	.loc 2 2320 10
	testb	%al, %al
	je	.L471
	.loc 2 2320 35 discriminator 1
	movq	-112(%rbp), %rax
	movq	(%rax), %rax
	.loc 2 2320 29 discriminator 1
	cmpq	$-1, %rax
	je	.L472
.L471:
	.loc 2 2321 17
	movq	-112(%rbp), %rax
	movzbl	54(%rax), %eax
	.loc 2 2321 11
	testb	%al, %al
	jne	.L472
	.loc 2 2321 28 discriminator 1
	movq	-112(%rbp), %rax
	movq	%rax, %rdi
	call	key_numeric
	.loc 2 2321 25 discriminator 1
	testb	%al, %al
	je	.L468
.L472:
.LBB35:
	.loc 2 2323 16
	movq	-64(%rbp), %rax
	movzbl	(%rax), %eax
	movb	%al, -91(%rbp)
	.loc 2 2324 16
	movq	-64(%rbp), %rax
	movb	$0, (%rax)
	.loc 2 2326 17
	jmp	.L473
.L474:
	.loc 2 2327 16
	addq	$1, -72(%rbp)
.L473:
	.loc 2 2326 35
	movq	-72(%rbp), %rax
	movzbl	(%rax), %eax
	.loc 2 2326 25
	movsbl	%al, %eax
	movl	%eax, %edi
	call	to_uchar
	movzbl	%al, %eax
	.loc 2 2326 24
	cltq
	leaq	blanks(%rip), %rdx
	movzbl	(%rax,%rdx), %eax
	.loc 2 2326 17
	testb	%al, %al
	jne	.L474
	.loc 2 2329 17
	movq	-72(%rbp), %rax
	movq	%rax, -88(%rbp)
	.loc 2 2331 14
	movq	-64(%rbp), %rax
	cmpq	-72(%rbp), %rax
	jnb	.L475
	.loc 2 2332 25
	movq	-64(%rbp), %rax
	movq	%rax, -88(%rbp)
	jmp	.L476
.L475:
	.loc 2 2333 23
	movq	-112(%rbp), %rax
	movzbl	54(%rax), %eax
	.loc 2 2333 19
	testb	%al, %al
	je	.L477
	.loc 2 2334 13
	leaq	-88(%rbp), %rdx
	movq	-72(%rbp), %rax
	movq	%rdx, %rsi
	movq	%rax, %rdi
	call	getmonth
	jmp	.L476
.L477:
	.loc 2 2335 23
	movq	-112(%rbp), %rax
	movzbl	52(%rax), %eax
	.loc 2 2335 19
	testb	%al, %al
	je	.L478
.LBB36:
	.loc 2 2336 13
	leaq	-88(%rbp), %rdx
	movq	-72(%rbp), %rax
	movq	%rdx, %rsi
	movq	%rax, %rdi
	call	strtold@PLT
	fstpt	-32(%rbp)
.LBE36:
	jmp	.L476
.L478:
	.loc 2 2337 23
	movq	-112(%rbp), %rax
	movzbl	50(%rax), %eax
	.loc 2 2337 19
	testb	%al, %al
	jne	.L479
	.loc 2 2337 39 discriminator 1
	movq	-112(%rbp), %rax
	movzbl	53(%rax), %eax
	.loc 2 2337 33 discriminator 1
	testb	%al, %al
	je	.L480
.L479:
.LBB37:
	.loc 2 2339 48
	movq	-72(%rbp), %rax
	cmpq	-64(%rbp), %rax
	jnb	.L481
	.loc 2 2339 51 discriminator 1
	movq	-72(%rbp), %rax
	movzbl	(%rax), %eax
	.loc 2 2339 48 discriminator 1
	cmpb	$45, %al
	jne	.L481
	.loc 2 2339 48 is_stmt 0 discriminator 3
	movl	$1, %eax
	jmp	.L482
.L481:
	.loc 2 2339 48 discriminator 4
	movl	$0, %eax
.L482:
	.loc 2 2339 48 discriminator 6
	movslq	%eax, %rdx
	.loc 2 2339 35 is_stmt 1 discriminator 6
	movq	-72(%rbp), %rax
	addq	%rdx, %rax
	.loc 2 2339 27 discriminator 6
	movq	%rax, -80(%rbp)
	.loc 2 2340 41 discriminator 6
	leaq	-80(%rbp), %rax
	movq	%rax, %rdi
	call	traverse_raw_number
	movb	%al, -90(%rbp)
	.loc 2 2341 18 discriminator 6
	cmpb	$47, -90(%rbp)
	jbe	.L487
.LBB38:
	.loc 2 2343 38
	movq	-80(%rbp), %rax
	movzbl	(%rax), %eax
	.loc 2 2343 33
	movb	%al, -89(%rbp)
	.loc 2 2344 33
	movq	-80(%rbp), %rdx
	.loc 2 2345 27
	movq	-112(%rbp), %rax
	movzbl	53(%rax), %eax
	.loc 2 2345 43
	testb	%al, %al
	je	.L484
	.loc 2 2345 56 discriminator 1
	movzbl	-89(%rbp), %eax
	cltq
	leaq	unit_order(%rip), %rcx
	movzbl	(%rax,%rcx), %eax
	.loc 2 2345 43 discriminator 1
	testb	%al, %al
	je	.L484
	.loc 2 2345 43 is_stmt 0 discriminator 3
	movl	$1, %eax
	jmp	.L485
.L484:
	.loc 2 2345 43 discriminator 4
	movl	$0, %eax
.L485:
	.loc 2 2345 43 discriminator 6
	cltq
	.loc 2 2345 21 is_stmt 1 discriminator 6
	addq	%rdx, %rax
	.loc 2 2344 31 discriminator 6
	movq	%rax, -88(%rbp)
.LBE38:
.LBE37:
	.loc 2 2338 13 discriminator 6
	jmp	.L487
.L480:
	.loc 2 2349 25
	movq	-64(%rbp), %rax
	movq	%rax, -88(%rbp)
	jmp	.L476
.L487:
	.loc 2 2338 13
	nop
.L476:
	.loc 2 2351 16 discriminator 1
	movq	-64(%rbp), %rax
	movzbl	-91(%rbp), %edx
	movb	%dl, (%rax)
	.loc 2 2352 15 discriminator 1
	movq	-88(%rbp), %rax
	movq	%rax, -64(%rbp)
.L468:
.LBE35:
	.loc 2 2356 19
	movq	-72(%rbp), %rdx
	movq	-56(%rbp), %rax
	movq	%rdx, %rsi
	movq	%rax, %rdi
	call	debug_width
	movq	%rax, -48(%rbp)
	.loc 2 2357 18
	movq	-64(%rbp), %rdx
	movq	-72(%rbp), %rax
	movq	%rdx, %rsi
	movq	%rax, %rdi
	call	debug_width
	movq	%rax, -40(%rbp)
	.loc 2 2358 3
	movq	-40(%rbp), %rdx
	movq	-48(%rbp), %rax
	movq	%rdx, %rsi
	movq	%rax, %rdi
	call	mark_key
	.loc 2 2359 1
	nop
	movq	-8(%rbp), %rax
	xorq	%fs:40, %rax
	je	.L486
	call	__stack_chk_fail@PLT
.L486:
	leave
	.cfi_def_cfa 7, 8
	ret
	.cfi_endproc
.LFE99:
	.size	debug_key, .-debug_key
	.type	debug_line, @function
debug_line:
.LFB100:
	.loc 2 2365 1
	.cfi_startproc
	endbr64
	pushq	%rbp
	.cfi_def_cfa_offset 16
	.cfi_offset 6, -16
	movq	%rsp, %rbp
	.cfi_def_cfa_register 6
	subq	$32, %rsp
	movq	%rdi, -24(%rbp)
	.loc 2 2366 26
	movq	keylist(%rip), %rax
	movq	%rax, -8(%rbp)
.L490:
	.loc 2 2369 5 discriminator 5
	movq	-8(%rbp), %rdx
	movq	-24(%rbp), %rax
	movq	%rdx, %rsi
	movq	%rax, %rdi
	call	debug_key
	.loc 2 2370 3 discriminator 5
	cmpq	$0, -8(%rbp)
	je	.L491
	.loc 2 2370 23 discriminator 1
	movq	-8(%rbp), %rax
	movq	64(%rax), %rax
	movq	%rax, -8(%rbp)
	.loc 2 2370 14 discriminator 1
	cmpq	$0, -8(%rbp)
	jne	.L490
	.loc 2 2370 42 discriminator 3
	movzbl	unique(%rip), %eax
	xorl	$1, %eax
	.loc 2 2370 36 discriminator 3
	testb	%al, %al
	je	.L491
	.loc 2 2370 49 discriminator 4
	movzbl	stable(%rip), %eax
	xorl	$1, %eax
	.loc 2 2370 39 discriminator 4
	testb	%al, %al
	jne	.L490
.L491:
	.loc 2 2371 1
	nop
	leave
	.cfi_def_cfa 7, 8
	ret
	.cfi_endproc
.LFE100:
	.size	debug_line, .-debug_line
	.type	default_key_compare, @function
default_key_compare:
.LFB101:
	.loc 2 2377 1
	.cfi_startproc
	endbr64
	pushq	%rbp
	.cfi_def_cfa_offset 16
	.cfi_offset 6, -16
	movq	%rsp, %rbp
	.cfi_def_cfa_register 6
	subq	$8, %rsp
	movq	%rdi, -8(%rbp)
	.loc 2 2378 16
	movq	-8(%rbp), %rax
	movq	32(%rax), %rax
	.loc 2 2378 10
	testq	%rax, %rax
	jne	.L493
	.loc 2 2379 19
	movq	-8(%rbp), %rax
	movq	40(%rax), %rax
	.loc 2 2379 13
	testq	%rax, %rax
	jne	.L493
	.loc 2 2380 19
	movq	-8(%rbp), %rax
	movzbl	48(%rax), %eax
	.loc 2 2380 13
	xorl	$1, %eax
	testb	%al, %al
	je	.L493
	.loc 2 2381 19
	movq	-8(%rbp), %rax
	movzbl	49(%rax), %eax
	.loc 2 2381 13
	xorl	$1, %eax
	testb	%al, %al
	je	.L493
	.loc 2 2382 16
	movq	-8(%rbp), %rax
	movq	%rax, %rdi
	call	key_numeric
	.loc 2 2382 13
	xorl	$1, %eax
	testb	%al, %al
	je	.L493
	.loc 2 2383 19
	movq	-8(%rbp), %rax
	movzbl	54(%rax), %eax
	.loc 2 2383 13
	xorl	$1, %eax
	testb	%al, %al
	je	.L493
	.loc 2 2384 19
	movq	-8(%rbp), %rax
	movzbl	56(%rax), %eax
	.loc 2 2384 13
	xorl	$1, %eax
	testb	%al, %al
	je	.L493
	.loc 2 2385 19 discriminator 3
	movq	-8(%rbp), %rax
	movzbl	51(%rax), %eax
	.loc 2 2385 13 discriminator 3
	xorl	$1, %eax
	.loc 2 2378 10 discriminator 3
	testb	%al, %al
	je	.L493
	.loc 2 2378 10 is_stmt 0 discriminator 2
	movl	$1, %eax
	jmp	.L494
.L493:
	.loc 2 2378 10 discriminator 1
	movl	$0, %eax
.L494:
	.loc 2 2378 10 discriminator 5
	andl	$1, %eax
	.loc 2 2388 1 is_stmt 1 discriminator 5
	leave
	.cfi_def_cfa 7, 8
	ret
	.cfi_endproc
.LFE101:
	.size	default_key_compare, .-default_key_compare
	.type	key_to_opts, @function
key_to_opts:
.LFB102:
	.loc 2 2394 1
	.cfi_startproc
	endbr64
	pushq	%rbp
	.cfi_def_cfa_offset 16
	.cfi_offset 6, -16
	movq	%rsp, %rbp
	.cfi_def_cfa_register 6
	movq	%rdi, -8(%rbp)
	movq	%rsi, -16(%rbp)
	.loc 2 2395 10
	movq	-8(%rbp), %rax
	movzbl	48(%rax), %eax
	.loc 2 2395 6
	testb	%al, %al
	jne	.L497
	.loc 2 2395 30 discriminator 1
	movq	-8(%rbp), %rax
	movzbl	49(%rax), %eax
	.loc 2 2395 24 discriminator 1
	testb	%al, %al
	je	.L498
.L497:
	.loc 2 2396 10
	movq	-16(%rbp), %rax
	leaq	1(%rax), %rdx
	movq	%rdx, -16(%rbp)
	.loc 2 2396 13
	movb	$98, (%rax)
.L498:
	.loc 2 2397 10
	movq	-8(%rbp), %rax
	movq	32(%rax), %rax
	.loc 2 2397 6
	leaq	nondictionary(%rip), %rdx
	cmpq	%rdx, %rax
	jne	.L499
	.loc 2 2398 10
	movq	-16(%rbp), %rax
	leaq	1(%rax), %rdx
	movq	%rdx, -16(%rbp)
	.loc 2 2398 13
	movb	$100, (%rax)
.L499:
	.loc 2 2399 10
	movq	-8(%rbp), %rax
	movq	40(%rax), %rax
	.loc 2 2399 6
	testq	%rax, %rax
	je	.L500
	.loc 2 2400 10
	movq	-16(%rbp), %rax
	leaq	1(%rax), %rdx
	movq	%rdx, -16(%rbp)
	.loc 2 2400 13
	movb	$102, (%rax)
.L500:
	.loc 2 2401 10
	movq	-8(%rbp), %rax
	movzbl	52(%rax), %eax
	.loc 2 2401 6
	testb	%al, %al
	je	.L501
	.loc 2 2402 10
	movq	-16(%rbp), %rax
	leaq	1(%rax), %rdx
	movq	%rdx, -16(%rbp)
	.loc 2 2402 13
	movb	$103, (%rax)
.L501:
	.loc 2 2403 10
	movq	-8(%rbp), %rax
	movzbl	53(%rax), %eax
	.loc 2 2403 6
	testb	%al, %al
	je	.L502
	.loc 2 2404 10
	movq	-16(%rbp), %rax
	leaq	1(%rax), %rdx
	movq	%rdx, -16(%rbp)
	.loc 2 2404 13
	movb	$104, (%rax)
.L502:
	.loc 2 2405 10
	movq	-8(%rbp), %rax
	movq	32(%rax), %rax
	.loc 2 2405 6
	leaq	nonprinting(%rip), %rdx
	cmpq	%rdx, %rax
	jne	.L503
	.loc 2 2406 10
	movq	-16(%rbp), %rax
	leaq	1(%rax), %rdx
	movq	%rdx, -16(%rbp)
	.loc 2 2406 13
	movb	$105, (%rax)
.L503:
	.loc 2 2407 10
	movq	-8(%rbp), %rax
	movzbl	54(%rax), %eax
	.loc 2 2407 6
	testb	%al, %al
	je	.L504
	.loc 2 2408 10
	movq	-16(%rbp), %rax
	leaq	1(%rax), %rdx
	movq	%rdx, -16(%rbp)
	.loc 2 2408 13
	movb	$77, (%rax)
.L504:
	.loc 2 2409 10
	movq	-8(%rbp), %rax
	movzbl	50(%rax), %eax
	.loc 2 2409 6
	testb	%al, %al
	je	.L505
	.loc 2 2410 10
	movq	-16(%rbp), %rax
	leaq	1(%rax), %rdx
	movq	%rdx, -16(%rbp)
	.loc 2 2410 13
	movb	$110, (%rax)
.L505:
	.loc 2 2411 10
	movq	-8(%rbp), %rax
	movzbl	51(%rax), %eax
	.loc 2 2411 6
	testb	%al, %al
	je	.L506
	.loc 2 2412 10
	movq	-16(%rbp), %rax
	leaq	1(%rax), %rdx
	movq	%rdx, -16(%rbp)
	.loc 2 2412 13
	movb	$82, (%rax)
.L506:
	.loc 2 2413 10
	movq	-8(%rbp), %rax
	movzbl	55(%rax), %eax
	.loc 2 2413 6
	testb	%al, %al
	je	.L507
	.loc 2 2414 10
	movq	-16(%rbp), %rax
	leaq	1(%rax), %rdx
	movq	%rdx, -16(%rbp)
	.loc 2 2414 13
	movb	$114, (%rax)
.L507:
	.loc 2 2415 10
	movq	-8(%rbp), %rax
	movzbl	56(%rax), %eax
	.loc 2 2415 6
	testb	%al, %al
	je	.L508
	.loc 2 2416 10
	movq	-16(%rbp), %rax
	leaq	1(%rax), %rdx
	movq	%rdx, -16(%rbp)
	.loc 2 2416 13
	movb	$86, (%rax)
.L508:
	.loc 2 2417 9
	movq	-16(%rbp), %rax
	movb	$0, (%rax)
	.loc 2 2418 1
	nop
	popq	%rbp
	.cfi_def_cfa 7, 8
	ret
	.cfi_endproc
.LFE102:
	.size	key_to_opts, .-key_to_opts
	.section	.rodata
	.align 8
.LC135:
	.string	"obsolescent key %s used; consider %s instead"
	.align 8
.LC136:
	.string	"key %lu has zero width and will be ignored"
	.align 8
.LC137:
	.string	"leading blanks are significant in key %lu; consider also specifying 'b'"
	.align 8
.LC138:
	.string	"key %lu is numeric and spans multiple fields"
.LC139:
	.string	"options '-%s' are ignored"
.LC140:
	.string	"option '-%s' is ignored"
	.align 8
.LC141:
	.string	"option '-r' only applies to last-resort comparison"
	.text
	.type	key_warnings, @function
key_warnings:
.LFB103:
	.loc 2 2424 1
	.cfi_startproc
	endbr64
	pushq	%rbp
	.cfi_def_cfa_offset 16
	.cfi_offset 6, -16
	movq	%rsp, %rbp
	.cfi_def_cfa_register 6
	pushq	%r12
	pushq	%rbx
	subq	$320, %rsp
	.cfi_offset 12, -24
	.cfi_offset 3, -32
	movq	%rdi, -328(%rbp)
	movl	%esi, %eax
	movb	%al, -332(%rbp)
	.loc 2 2424 1
	movq	%fs:40, %rax
	movq	%rax, -24(%rbp)
	xorl	%eax, %eax
	.loc 2 2426 19
	movq	-328(%rbp), %rax
	movq	(%rax), %rcx
	movq	8(%rax), %rbx
	movq	%rcx, -240(%rbp)
	movq	%rbx, -232(%rbp)
	movq	16(%rax), %rcx
	movq	24(%rax), %rbx
	movq	%rcx, -224(%rbp)
	movq	%rbx, -216(%rbp)
	movq	32(%rax), %rcx
	movq	40(%rax), %rbx
	movq	%rcx, -208(%rbp)
	movq	%rbx, -200(%rbp)
	movq	48(%rax), %rcx
	movq	56(%rax), %rbx
	movq	%rcx, -192(%rbp)
	movq	%rbx, -184(%rbp)
	movq	64(%rax), %rax
	movq	%rax, -176(%rbp)
	.loc 2 2427 17
	movq	$1, -296(%rbp)
	.loc 2 2429 12
	movq	keylist(%rip), %rax
	movq	%rax, -304(%rbp)
	.loc 2 2429 3
	jmp	.L510
.L531:
.LBB39:
	.loc 2 2431 14
	movq	-304(%rbp), %rax
	movzbl	57(%rax), %eax
	.loc 2 2431 10
	testb	%al, %al
	je	.L511
.LBB40:
	.loc 2 2433 18
	movq	-304(%rbp), %rax
	movq	(%rax), %rax
	movq	%rax, -288(%rbp)
	.loc 2 2434 18
	movq	-304(%rbp), %rax
	movq	16(%rax), %rax
	movq	%rax, -272(%rbp)
	.loc 2 2441 17
	leaq	-128(%rbp), %rax
	movq	%rax, -264(%rbp)
	.loc 2 2442 17
	leaq	-80(%rbp), %rax
	movq	%rax, -256(%rbp)
	.loc 2 2444 14
	cmpq	$-1, -288(%rbp)
	jne	.L512
	.loc 2 2445 18
	addq	$1, -288(%rbp)
.L512:
	.loc 2 2447 42
	leaq	-160(%rbp), %rdx
	movq	-288(%rbp), %rax
	movq	%rdx, %rsi
	movq	%rax, %rdi
	call	umaxtostr@PLT
	movq	%rax, %rdx
	movq	-264(%rbp), %rax
	movw	$43, (%rax)
	.loc 2 2447 16
	movq	-264(%rbp), %rax
	addq	$1, %rax
	movq	%rdx, %rsi
	movq	%rax, %rdi
	call	stpcpy@PLT
	movq	%rax, -264(%rbp)
	.loc 2 2448 44
	movq	-288(%rbp), %rax
	leaq	1(%rax), %rdx
	leaq	-160(%rbp), %rax
	movq	%rax, %rsi
	movq	%rdx, %rdi
	call	umaxtostr@PLT
	movq	%rax, %rdx
	movq	-256(%rbp), %rax
	movl	$2124589, (%rax)
	.loc 2 2448 16
	movq	-256(%rbp), %rax
	addq	$3, %rax
	movq	%rdx, %rsi
	movq	%rax, %rdi
	call	stpcpy@PLT
	movq	%rax, -256(%rbp)
	.loc 2 2449 18
	movq	-304(%rbp), %rax
	movq	16(%rax), %rax
	.loc 2 2449 14
	cmpq	$-1, %rax
	je	.L513
	.loc 2 2451 42
	movq	-272(%rbp), %rax
	leaq	1(%rax), %rdx
	leaq	-160(%rbp), %rax
	movq	%rax, %rsi
	movq	%rdx, %rdi
	call	umaxtostr@PLT
	movq	%rax, %rdx
	movq	-264(%rbp), %rax
	movw	$11552, (%rax)
	movb	$0, 2(%rax)
	.loc 2 2451 15
	movq	-264(%rbp), %rax
	addq	$2, %rax
	movq	%rdx, %rsi
	movq	%rax, %rdi
	call	strcpy@PLT
	.loc 2 2454 40
	movq	-304(%rbp), %rax
	movq	24(%rax), %rax
	.loc 2 2454 48
	cmpq	$-1, %rax
	sete	%al
	movzbl	%al, %edx
	.loc 2 2454 34
	movq	-272(%rbp), %rax
	addq	%rdx, %rax
	.loc 2 2453 23
	leaq	1(%rax), %rdx
	leaq	-160(%rbp), %rax
	movq	%rax, %rsi
	movq	%rdx, %rdi
	call	umaxtostr@PLT
	movq	%rax, %rdx
	movq	-256(%rbp), %rax
	movw	$44, (%rax)
	.loc 2 2452 15
	movq	-256(%rbp), %rax
	addq	$1, %rax
	movq	%rdx, %rsi
	movq	%rax, %rdi
	call	strcpy@PLT
.L513:
	.loc 2 2456 11
	leaq	-80(%rbp), %rax
	movq	%rax, %rsi
	movl	$1, %edi
	call	quote_n@PLT
	movq	%rax, %r12
	leaq	-128(%rbp), %rax
	movq	%rax, %rsi
	movl	$0, %edi
	call	quote_n@PLT
	movq	%rax, %rbx
	.loc 2 2456 24
	leaq	.LC135(%rip), %rdi
	call	gettext@PLT
	.loc 2 2456 11
	movq	%r12, %r8
	movq	%rbx, %rcx
	movq	%rax, %rdx
	movl	$0, %esi
	movl	$0, %edi
	movl	$0, %eax
	call	error@PLT
.L511:
.LBE40:
	.loc 2 2461 28
	movq	-304(%rbp), %rax
	movq	(%rax), %rax
	.loc 2 2461 48
	cmpq	$-1, %rax
	je	.L514
	.loc 2 2461 54 discriminator 1
	movq	-304(%rbp), %rax
	movq	16(%rax), %rdx
	.loc 2 2461 67 discriminator 1
	movq	-304(%rbp), %rax
	movq	(%rax), %rax
	.loc 2 2461 48 discriminator 1
	cmpq	%rax, %rdx
	jnb	.L514
	.loc 2 2461 48 is_stmt 0 discriminator 3
	movl	$1, %eax
	jmp	.L515
.L514:
	.loc 2 2461 48 discriminator 4
	movl	$0, %eax
.L515:
	.loc 2 2461 12 is_stmt 1 discriminator 6
	movb	%al, -307(%rbp)
	andb	$1, -307(%rbp)
	.loc 2 2462 10 discriminator 6
	cmpb	$0, -307(%rbp)
	je	.L516
	.loc 2 2463 22
	leaq	.LC136(%rip), %rdi
	call	gettext@PLT
	movq	%rax, %rdx
	.loc 2 2463 9
	movq	-296(%rbp), %rax
	movq	%rax, %rcx
	movl	$0, %esi
	movl	$0, %edi
	movl	$0, %eax
	call	error@PLT
.L516:
	.loc 2 2466 28
	movq	-304(%rbp), %rax
	movq	%rax, %rdi
	call	key_numeric
	.loc 2 2466 46
	testb	%al, %al
	jne	.L517
	.loc 2 2466 52 discriminator 2
	movq	-304(%rbp), %rax
	movzbl	54(%rax), %eax
	.loc 2 2466 46 discriminator 2
	testb	%al, %al
	je	.L518
.L517:
	.loc 2 2466 46 is_stmt 0 discriminator 3
	movl	$1, %eax
	jmp	.L519
.L518:
	.loc 2 2466 46 discriminator 4
	movl	$0, %eax
.L519:
	.loc 2 2466 12 is_stmt 1 discriminator 6
	movb	%al, -306(%rbp)
	andb	$1, -306(%rbp)
	.loc 2 2467 29 discriminator 6
	movq	-304(%rbp), %rax
	movq	16(%rax), %rax
	.loc 2 2467 42 discriminator 6
	testq	%rax, %rax
	jne	.L520
	.loc 2 2467 48 discriminator 1
	movq	-304(%rbp), %rax
	movq	24(%rax), %rax
	.loc 2 2467 42 discriminator 1
	testq	%rax, %rax
	je	.L520
	.loc 2 2467 42 is_stmt 0 discriminator 3
	movl	$1, %eax
	jmp	.L521
.L520:
	.loc 2 2467 42 discriminator 4
	movl	$0, %eax
.L521:
	.loc 2 2467 12 is_stmt 1 discriminator 6
	movb	%al, -305(%rbp)
	andb	$1, -305(%rbp)
	.loc 2 2468 11 discriminator 6
	movzbl	-307(%rbp), %eax
	xorl	$1, %eax
	.loc 2 2468 10 discriminator 6
	testb	%al, %al
	je	.L522
	.loc 2 2468 26 discriminator 1
	movzbl	-332(%rbp), %eax
	xorl	$1, %eax
	.loc 2 2468 23 discriminator 1
	testb	%al, %al
	je	.L522
	.loc 2 2468 44 discriminator 2
	movl	tab(%rip), %eax
	.loc 2 2468 37 discriminator 2
	cmpl	$128, %eax
	jne	.L522
	.loc 2 2468 62 discriminator 3
	movzbl	-305(%rbp), %eax
	xorl	$1, %eax
	.loc 2 2468 59 discriminator 3
	testb	%al, %al
	je	.L522
	.loc 2 2469 20
	movq	-304(%rbp), %rax
	movzbl	48(%rax), %eax
	.loc 2 2469 16
	xorl	$1, %eax
	.loc 2 2469 11
	testb	%al, %al
	je	.L523
	.loc 2 2469 37 discriminator 1
	movzbl	-306(%rbp), %eax
	xorl	$1, %eax
	.loc 2 2469 34 discriminator 1
	testb	%al, %al
	jne	.L524
.L523:
	.loc 2 2470 23
	movq	-304(%rbp), %rax
	movzbl	48(%rax), %eax
	.loc 2 2470 19
	xorl	$1, %eax
	.loc 2 2470 15
	testb	%al, %al
	je	.L525
	.loc 2 2470 43 discriminator 1
	movq	-304(%rbp), %rax
	movq	8(%rax), %rax
	.loc 2 2470 37 discriminator 1
	testq	%rax, %rax
	jne	.L524
.L525:
	.loc 2 2471 23
	movq	-304(%rbp), %rax
	movzbl	49(%rax), %eax
	.loc 2 2471 19
	xorl	$1, %eax
	.loc 2 2471 15
	testb	%al, %al
	je	.L522
	.loc 2 2471 43 discriminator 1
	movq	-304(%rbp), %rax
	movq	24(%rax), %rax
	.loc 2 2471 37 discriminator 1
	testq	%rax, %rax
	je	.L522
.L524:
	.loc 2 2472 22
	leaq	.LC137(%rip), %rdi
	call	gettext@PLT
	movq	%rax, %rdx
	.loc 2 2472 9
	movq	-296(%rbp), %rax
	movq	%rax, %rcx
	movl	$0, %esi
	movl	$0, %edi
	movl	$0, %eax
	call	error@PLT
.L522:
	.loc 2 2478 11
	movzbl	-332(%rbp), %eax
	xorl	$1, %eax
	.loc 2 2478 10
	testb	%al, %al
	je	.L526
	.loc 2 2478 25 discriminator 1
	movq	-304(%rbp), %rax
	movq	%rax, %rdi
	call	key_numeric
	.loc 2 2478 22 discriminator 1
	testb	%al, %al
	je	.L526
.LBB41:
	.loc 2 2480 29
	movq	-304(%rbp), %rax
	movq	(%rax), %rax
	.loc 2 2480 18
	addq	$1, %rax
	movq	%rax, -280(%rbp)
	.loc 2 2481 29
	movq	-304(%rbp), %rax
	movq	16(%rax), %rax
	.loc 2 2481 18
	addq	$1, %rax
	movq	%rax, -248(%rbp)
	.loc 2 2482 14
	cmpq	$0, -280(%rbp)
	jne	.L527
	.loc 2 2483 18
	addq	$1, -280(%rbp)
.L527:
	.loc 2 2484 14
	cmpq	$0, -248(%rbp)
	je	.L528
	.loc 2 2484 22 discriminator 1
	movq	-280(%rbp), %rax
	cmpq	-248(%rbp), %rax
	jnb	.L526
.L528:
	.loc 2 2485 26
	leaq	.LC138(%rip), %rdi
	call	gettext@PLT
	movq	%rax, %rdx
	.loc 2 2485 13
	movq	-296(%rbp), %rax
	movq	%rax, %rcx
	movl	$0, %esi
	movl	$0, %edi
	movl	$0, %eax
	call	error@PLT
.L526:
.LBE41:
	.loc 2 2490 16
	movq	-208(%rbp), %rax
	.loc 2 2490 10
	testq	%rax, %rax
	je	.L529
	.loc 2 2490 33 discriminator 1
	movq	-208(%rbp), %rdx
	.loc 2 2490 47 discriminator 1
	movq	-304(%rbp), %rax
	movq	32(%rax), %rax
	.loc 2 2490 24 discriminator 1
	cmpq	%rax, %rdx
	jne	.L529
	.loc 2 2491 22
	movq	$0, -208(%rbp)
.L529:
	.loc 2 2492 16
	movq	-200(%rbp), %rax
	.loc 2 2492 10
	testq	%rax, %rax
	je	.L530
	.loc 2 2492 36 discriminator 1
	movq	-200(%rbp), %rdx
	.loc 2 2492 53 discriminator 1
	movq	-304(%rbp), %rax
	movq	40(%rax), %rax
	.loc 2 2492 27 discriminator 1
	cmpq	%rax, %rdx
	jne	.L530
	.loc 2 2493 25
	movq	$0, -200(%rbp)
.L530:
	.loc 2 2494 25 discriminator 2
	movzbl	-192(%rbp), %eax
	movzbl	%al, %edx
	.loc 2 2494 32 discriminator 2
	movq	-304(%rbp), %rax
	movzbl	48(%rax), %eax
	.loc 2 2494 28 discriminator 2
	xorl	$1, %eax
	movzbl	%al, %eax
	.loc 2 2494 25 discriminator 2
	andl	%edx, %eax
	testl	%eax, %eax
	setne	%al
	movb	%al, -192(%rbp)
	.loc 2 2495 25 discriminator 2
	movzbl	-191(%rbp), %eax
	movzbl	%al, %edx
	.loc 2 2495 32 discriminator 2
	movq	-304(%rbp), %rax
	movzbl	49(%rax), %eax
	.loc 2 2495 28 discriminator 2
	xorl	$1, %eax
	movzbl	%al, %eax
	.loc 2 2495 25 discriminator 2
	andl	%edx, %eax
	testl	%eax, %eax
	setne	%al
	movb	%al, -191(%rbp)
	.loc 2 2496 19 discriminator 2
	movzbl	-186(%rbp), %eax
	movzbl	%al, %edx
	.loc 2 2496 26 discriminator 2
	movq	-304(%rbp), %rax
	movzbl	54(%rax), %eax
	.loc 2 2496 22 discriminator 2
	xorl	$1, %eax
	movzbl	%al, %eax
	.loc 2 2496 19 discriminator 2
	andl	%edx, %eax
	testl	%eax, %eax
	setne	%al
	movb	%al, -186(%rbp)
	.loc 2 2497 21 discriminator 2
	movzbl	-190(%rbp), %eax
	movzbl	%al, %edx
	.loc 2 2497 28 discriminator 2
	movq	-304(%rbp), %rax
	movzbl	50(%rax), %eax
	.loc 2 2497 24 discriminator 2
	xorl	$1, %eax
	movzbl	%al, %eax
	.loc 2 2497 21 discriminator 2
	andl	%edx, %eax
	testl	%eax, %eax
	setne	%al
	movb	%al, -190(%rbp)
	.loc 2 2498 29 discriminator 2
	movzbl	-188(%rbp), %eax
	movzbl	%al, %edx
	.loc 2 2498 36 discriminator 2
	movq	-304(%rbp), %rax
	movzbl	52(%rax), %eax
	.loc 2 2498 32 discriminator 2
	xorl	$1, %eax
	movzbl	%al, %eax
	.loc 2 2498 29 discriminator 2
	andl	%edx, %eax
	testl	%eax, %eax
	setne	%al
	movb	%al, -188(%rbp)
	.loc 2 2499 27 discriminator 2
	movzbl	-187(%rbp), %eax
	movzbl	%al, %edx
	.loc 2 2499 34 discriminator 2
	movq	-304(%rbp), %rax
	movzbl	53(%rax), %eax
	.loc 2 2499 30 discriminator 2
	xorl	$1, %eax
	movzbl	%al, %eax
	.loc 2 2499 27 discriminator 2
	andl	%edx, %eax
	testl	%eax, %eax
	setne	%al
	movb	%al, -187(%rbp)
	.loc 2 2500 20 discriminator 2
	movzbl	-189(%rbp), %eax
	movzbl	%al, %edx
	.loc 2 2500 27 discriminator 2
	movq	-304(%rbp), %rax
	movzbl	51(%rax), %eax
	.loc 2 2500 23 discriminator 2
	xorl	$1, %eax
	movzbl	%al, %eax
	.loc 2 2500 20 discriminator 2
	andl	%edx, %eax
	testl	%eax, %eax
	setne	%al
	movb	%al, -189(%rbp)
	.loc 2 2501 21 discriminator 2
	movzbl	-184(%rbp), %eax
	movzbl	%al, %edx
	.loc 2 2501 28 discriminator 2
	movq	-304(%rbp), %rax
	movzbl	56(%rax), %eax
	.loc 2 2501 24 discriminator 2
	xorl	$1, %eax
	movzbl	%al, %eax
	.loc 2 2501 21 discriminator 2
	andl	%edx, %eax
	testl	%eax, %eax
	setne	%al
	movb	%al, -184(%rbp)
	.loc 2 2502 21 discriminator 2
	movzbl	-185(%rbp), %eax
	movzbl	%al, %edx
	.loc 2 2502 28 discriminator 2
	movq	-304(%rbp), %rax
	movzbl	55(%rax), %eax
	.loc 2 2502 24 discriminator 2
	xorl	$1, %eax
	movzbl	%al, %eax
	.loc 2 2502 21 discriminator 2
	andl	%edx, %eax
	testl	%eax, %eax
	setne	%al
	movb	%al, -185(%rbp)
.LBE39:
	.loc 2 2429 32 discriminator 2
	movq	-304(%rbp), %rax
	movq	64(%rax), %rax
	movq	%rax, -304(%rbp)
	.loc 2 2429 51 discriminator 2
	addq	$1, -296(%rbp)
.L510:
	.loc 2 2429 3 discriminator 1
	cmpq	$0, -304(%rbp)
	jne	.L531
	.loc 2 2507 8
	leaq	-240(%rbp), %rax
	movq	%rax, %rdi
	call	default_key_compare
	.loc 2 2507 7
	xorl	$1, %eax
	.loc 2 2507 6
	testb	%al, %al
	jne	.L532
	.loc 2 2508 16
	movzbl	-185(%rbp), %eax
	.loc 2 2508 7
	testb	%al, %al
	je	.L533
	.loc 2 2508 29 discriminator 1
	movzbl	stable(%rip), %eax
	.loc 2 2508 25 discriminator 1
	testb	%al, %al
	jne	.L534
	.loc 2 2508 36 discriminator 3
	movzbl	unique(%rip), %eax
	testb	%al, %al
	je	.L533
.L534:
	.loc 2 2508 47 discriminator 4
	movq	keylist(%rip), %rax
	testq	%rax, %rax
	je	.L533
.L532:
.LBB42:
	.loc 2 2510 12
	movzbl	-185(%rbp), %eax
	movb	%al, -308(%rbp)
	.loc 2 2511 13
	movzbl	stable(%rip), %eax
	xorl	$1, %eax
	.loc 2 2511 10
	testb	%al, %al
	je	.L535
	.loc 2 2511 20 discriminator 1
	movzbl	unique(%rip), %eax
	xorl	$1, %eax
	.loc 2 2511 11 discriminator 1
	testb	%al, %al
	je	.L535
	.loc 2 2512 23
	movb	$0, -185(%rbp)
.L535:
	.loc 2 2515 7
	leaq	-80(%rbp), %rdx
	leaq	-240(%rbp), %rax
	movq	%rdx, %rsi
	movq	%rax, %rdi
	call	key_to_opts
	.loc 2 2517 14
	leaq	-80(%rbp), %rax
	movq	%rax, %rdi
	call	strlen@PLT
	movq	%rax, %rdi
	call	select_plural
	movq	%rax, %rdx
	leaq	.LC139(%rip), %rsi
	leaq	.LC140(%rip), %rdi
	call	ngettext@PLT
	movq	%rax, %rdx
	.loc 2 2516 7
	leaq	-80(%rbp), %rax
	movq	%rax, %rcx
	movl	$0, %esi
	movl	$0, %edi
	movl	$0, %eax
	call	error@PLT
	.loc 2 2520 21
	movzbl	-308(%rbp), %eax
	movb	%al, -185(%rbp)
.L533:
.LBE42:
	.loc 2 2522 12
	movzbl	-185(%rbp), %eax
	.loc 2 2522 6
	testb	%al, %al
	je	.L538
	.loc 2 2522 26 discriminator 1
	movzbl	stable(%rip), %eax
	xorl	$1, %eax
	.loc 2 2522 21 discriminator 1
	testb	%al, %al
	je	.L538
	.loc 2 2522 33 discriminator 2
	movzbl	unique(%rip), %eax
	xorl	$1, %eax
	.loc 2 2522 24 discriminator 2
	testb	%al, %al
	je	.L538
	.loc 2 2522 44 discriminator 3
	movq	keylist(%rip), %rax
	testq	%rax, %rax
	je	.L538
	.loc 2 2523 18
	leaq	.LC141(%rip), %rdi
	call	gettext@PLT
	.loc 2 2523 5
	movq	%rax, %rdx
	movl	$0, %esi
	movl	$0, %edi
	movl	$0, %eax
	call	error@PLT
.L538:
	.loc 2 2524 1
	nop
	movq	-24(%rbp), %rax
	xorq	%fs:40, %rax
	je	.L537
	call	__stack_chk_fail@PLT
.L537:
	addq	$320, %rsp
	popq	%rbx
	popq	%r12
	popq	%rbp
	.cfi_def_cfa 7, 8
	ret
	.cfi_endproc
.LFE103:
	.size	key_warnings, .-key_warnings
	.type	keycompare, @function
keycompare:
.LFB104:
	.loc 2 2531 1
	.cfi_startproc
	endbr64
	pushq	%rbp
	.cfi_def_cfa_offset 16
	.cfi_offset 6, -16
	movq	%rsp, %rbp
	.cfi_def_cfa_register 6
	pushq	%rbx
	subq	$4096, %rsp
	orq	$0, (%rsp)
	subq	$88, %rsp
	.cfi_offset 3, -24
	movq	%rdi, -4184(%rbp)
	movq	%rsi, -4192(%rbp)
	.loc 2 2531 1
	movq	%fs:40, %rax
	movq	%rax, -24(%rbp)
	xorl	%eax, %eax
	.loc 2 2532 20
	movq	keylist(%rip), %rax
	movq	%rax, -4160(%rbp)
	.loc 2 2536 9
	movq	-4184(%rbp), %rax
	movq	16(%rax), %rax
	movq	%rax, -4152(%rbp)
	.loc 2 2537 9
	movq	-4192(%rbp), %rax
	movq	16(%rax), %rax
	movq	%rax, -4144(%rbp)
	.loc 2 2538 9
	movq	-4184(%rbp), %rax
	movq	24(%rax), %rax
	movq	%rax, -4136(%rbp)
	.loc 2 2539 9
	movq	-4192(%rbp), %rax
	movq	24(%rax), %rax
	movq	%rax, -4128(%rbp)
.L613:
.LBB43:
	.loc 2 2545 19
	movq	-4160(%rbp), %rax
	movq	40(%rax), %rax
	movq	%rax, -4072(%rbp)
	.loc 2 2546 19
	movq	-4160(%rbp), %rax
	movq	32(%rax), %rax
	movq	%rax, -4064(%rbp)
	.loc 2 2549 12
	movq	-4152(%rbp), %rax
	cmpq	%rax, -4136(%rbp)
	cmovnb	-4136(%rbp), %rax
	movq	%rax, -4136(%rbp)
	.loc 2 2550 12
	movq	-4144(%rbp), %rax
	cmpq	%rax, -4128(%rbp)
	cmovnb	-4128(%rbp), %rax
	movq	%rax, -4128(%rbp)
	.loc 2 2553 26
	movq	-4136(%rbp), %rax
	subq	-4152(%rbp), %rax
	.loc 2 2553 14
	movq	%rax, -4056(%rbp)
	.loc 2 2554 26
	movq	-4128(%rbp), %rax
	subq	-4144(%rbp), %rax
	.loc 2 2554 14
	movq	%rax, -4048(%rbp)
	.loc 2 2556 11
	movzbl	hard_LC_COLLATE(%rip), %eax
	.loc 2 2556 10
	testb	%al, %al
	jne	.L540
	.loc 2 2556 30 discriminator 1
	movq	-4160(%rbp), %rax
	movq	%rax, %rdi
	call	key_numeric
	.loc 2 2556 27 discriminator 1
	testb	%al, %al
	jne	.L540
	.loc 2 2557 17
	movq	-4160(%rbp), %rax
	movzbl	54(%rax), %eax
	.loc 2 2557 11
	testb	%al, %al
	jne	.L540
	.loc 2 2557 31 discriminator 1
	movq	-4160(%rbp), %rax
	movzbl	51(%rax), %eax
	.loc 2 2557 25 discriminator 1
	testb	%al, %al
	jne	.L540
	.loc 2 2557 46 discriminator 2
	movq	-4160(%rbp), %rax
	movzbl	56(%rax), %eax
	.loc 2 2557 40 discriminator 2
	testb	%al, %al
	je	.L541
.L540:
.LBB44:
	.loc 2 2564 16
	movb	$0, -4166(%rbp)
	.loc 2 2565 16
	movb	$0, -4165(%rbp)
	.loc 2 2566 17
	movq	$0, -4088(%rbp)
	.loc 2 2569 14
	cmpq	$0, -4064(%rbp)
	jne	.L542
	.loc 2 2569 22 discriminator 1
	cmpq	$0, -4072(%rbp)
	je	.L543
.L542:
.LBB45:
	.loc 2 2578 38
	movq	-4056(%rbp), %rdx
	movq	-4048(%rbp), %rax
	addq	%rdx, %rax
	.loc 2 2578 22
	addq	$2, %rax
	movq	%rax, -4040(%rbp)
	.loc 2 2579 18
	cmpq	$4000, -4040(%rbp)
	ja	.L544
	.loc 2 2580 20
	leaq	-4032(%rbp), %rax
	movq	%rax, -4120(%rbp)
	.loc 2 2580 42
	movq	$0, -4088(%rbp)
	jmp	.L545
.L544:
	.loc 2 2582 34
	movq	-4040(%rbp), %rax
	movq	%rax, %rdi
	call	xmalloc@PLT
	movq	%rax, -4088(%rbp)
	.loc 2 2582 20
	movq	-4088(%rbp), %rax
	movq	%rax, -4120(%rbp)
.L545:
	.loc 2 2583 30
	movq	-4056(%rbp), %rax
	leaq	1(%rax), %rdx
	.loc 2 2583 18
	movq	-4120(%rbp), %rax
	addq	%rdx, %rax
	movq	%rax, -4112(%rbp)
	.loc 2 2587 30
	movq	$0, -4080(%rbp)
	.loc 2 2587 26
	movq	-4080(%rbp), %rax
	movq	%rax, -4104(%rbp)
	.loc 2 2587 15
	jmp	.L546
.L551:
	.loc 2 2588 20
	cmpq	$0, -4064(%rbp)
	je	.L547
	.loc 2 2588 56 discriminator 1
	movq	-4152(%rbp), %rdx
	movq	-4080(%rbp), %rax
	addq	%rdx, %rax
	movzbl	(%rax), %eax
	.loc 2 2588 41 discriminator 1
	movsbl	%al, %eax
	movl	%eax, %edi
	call	to_uchar
	movzbl	%al, %edx
	.loc 2 2588 40 discriminator 1
	movq	-4064(%rbp), %rax
	addq	%rdx, %rax
	movzbl	(%rax), %eax
	.loc 2 2588 31 discriminator 1
	xorl	$1, %eax
	.loc 2 2588 21 discriminator 1
	testb	%al, %al
	je	.L548
.L547:
	.loc 2 2589 31
	cmpq	$0, -4072(%rbp)
	je	.L549
	.loc 2 2590 61 discriminator 1
	movq	-4152(%rbp), %rdx
	movq	-4080(%rbp), %rax
	addq	%rdx, %rax
	movzbl	(%rax), %eax
	.loc 2 2590 46 discriminator 1
	movsbl	%al, %eax
	movl	%eax, %edi
	call	to_uchar
	movzbl	%al, %edx
	.loc 2 2590 45 discriminator 1
	movq	-4072(%rbp), %rax
	addq	%rdx, %rax
	.loc 2 2589 31 discriminator 1
	movzbl	(%rax), %eax
	jmp	.L550
.L549:
	.loc 2 2591 41 discriminator 2
	movq	-4152(%rbp), %rdx
	movq	-4080(%rbp), %rax
	addq	%rdx, %rax
	.loc 2 2589 31 discriminator 2
	movzbl	(%rax), %eax
.L550:
	.loc 2 2589 27 discriminator 4
	movq	-4104(%rbp), %rdx
	leaq	1(%rdx), %rcx
	movq	%rcx, -4104(%rbp)
	.loc 2 2589 21 discriminator 4
	movq	-4120(%rbp), %rcx
	addq	%rcx, %rdx
	.loc 2 2589 31 discriminator 4
	movb	%al, (%rdx)
.L548:
	.loc 2 2587 46 discriminator 2
	addq	$1, -4080(%rbp)
.L546:
	.loc 2 2587 15 discriminator 1
	movq	-4080(%rbp), %rax
	cmpq	-4056(%rbp), %rax
	jb	.L551
	.loc 2 2592 17
	movq	-4120(%rbp), %rdx
	movq	-4104(%rbp), %rax
	addq	%rdx, %rax
	.loc 2 2592 25
	movb	$0, (%rax)
	.loc 2 2594 30
	movq	$0, -4080(%rbp)
	.loc 2 2594 26
	movq	-4080(%rbp), %rax
	movq	%rax, -4096(%rbp)
	.loc 2 2594 15
	jmp	.L552
.L557:
	.loc 2 2595 20
	cmpq	$0, -4064(%rbp)
	je	.L553
	.loc 2 2595 56 discriminator 1
	movq	-4144(%rbp), %rdx
	movq	-4080(%rbp), %rax
	addq	%rdx, %rax
	movzbl	(%rax), %eax
	.loc 2 2595 41 discriminator 1
	movsbl	%al, %eax
	movl	%eax, %edi
	call	to_uchar
	movzbl	%al, %edx
	.loc 2 2595 40 discriminator 1
	movq	-4064(%rbp), %rax
	addq	%rdx, %rax
	movzbl	(%rax), %eax
	.loc 2 2595 31 discriminator 1
	xorl	$1, %eax
	.loc 2 2595 21 discriminator 1
	testb	%al, %al
	je	.L554
.L553:
	.loc 2 2596 31
	cmpq	$0, -4072(%rbp)
	je	.L555
	.loc 2 2597 61 discriminator 1
	movq	-4144(%rbp), %rdx
	movq	-4080(%rbp), %rax
	addq	%rdx, %rax
	movzbl	(%rax), %eax
	.loc 2 2597 46 discriminator 1
	movsbl	%al, %eax
	movl	%eax, %edi
	call	to_uchar
	movzbl	%al, %edx
	.loc 2 2597 45 discriminator 1
	movq	-4072(%rbp), %rax
	addq	%rdx, %rax
	.loc 2 2596 31 discriminator 1
	movzbl	(%rax), %eax
	jmp	.L556
.L555:
	.loc 2 2598 41 discriminator 2
	movq	-4144(%rbp), %rdx
	movq	-4080(%rbp), %rax
	addq	%rdx, %rax
	.loc 2 2596 31 discriminator 2
	movzbl	(%rax), %eax
.L556:
	.loc 2 2596 27 discriminator 4
	movq	-4096(%rbp), %rdx
	leaq	1(%rdx), %rcx
	movq	%rcx, -4096(%rbp)
	.loc 2 2596 21 discriminator 4
	movq	-4112(%rbp), %rcx
	addq	%rcx, %rdx
	.loc 2 2596 31 discriminator 4
	movb	%al, (%rdx)
.L554:
	.loc 2 2594 46 discriminator 2
	addq	$1, -4080(%rbp)
.L552:
	.loc 2 2594 15 discriminator 1
	movq	-4080(%rbp), %rax
	cmpq	-4048(%rbp), %rax
	jb	.L557
	.loc 2 2599 17
	movq	-4112(%rbp), %rdx
	movq	-4096(%rbp), %rax
	addq	%rdx, %rax
	.loc 2 2599 25
	movb	$0, (%rax)
.LBE45:
	.loc 2 2570 13
	jmp	.L558
.L543:
	.loc 2 2604 18
	movq	-4152(%rbp), %rax
	movq	%rax, -4120(%rbp)
	.loc 2 2604 33
	movq	-4056(%rbp), %rax
	movq	%rax, -4104(%rbp)
	.loc 2 2604 50
	movq	-4120(%rbp), %rdx
	movq	-4104(%rbp), %rax
	addq	%rdx, %rax
	.loc 2 2604 46
	movzbl	(%rax), %eax
	movb	%al, -4166(%rbp)
	.loc 2 2604 61
	movq	-4120(%rbp), %rdx
	movq	-4104(%rbp), %rax
	addq	%rdx, %rax
	.loc 2 2604 69
	movb	$0, (%rax)
	.loc 2 2605 18
	movq	-4144(%rbp), %rax
	movq	%rax, -4112(%rbp)
	.loc 2 2605 33
	movq	-4048(%rbp), %rax
	movq	%rax, -4096(%rbp)
	.loc 2 2605 50
	movq	-4112(%rbp), %rdx
	movq	-4096(%rbp), %rax
	addq	%rdx, %rax
	.loc 2 2605 46
	movzbl	(%rax), %eax
	movb	%al, -4165(%rbp)
	.loc 2 2605 61
	movq	-4112(%rbp), %rdx
	movq	-4096(%rbp), %rax
	addq	%rdx, %rax
	.loc 2 2605 69
	movb	$0, (%rax)
.L558:
	.loc 2 2608 18
	movq	-4160(%rbp), %rax
	movzbl	50(%rax), %eax
	.loc 2 2608 14
	testb	%al, %al
	je	.L559
	.loc 2 2609 20
	movq	-4112(%rbp), %rdx
	movq	-4120(%rbp), %rax
	movq	%rdx, %rsi
	movq	%rax, %rdi
	call	numcompare
	movl	%eax, -4164(%rbp)
	jmp	.L560
.L559:
	.loc 2 2610 23
	movq	-4160(%rbp), %rax
	movzbl	52(%rax), %eax
	.loc 2 2610 19
	testb	%al, %al
	je	.L561
	.loc 2 2611 20
	movq	-4112(%rbp), %rdx
	movq	-4120(%rbp), %rax
	movq	%rdx, %rsi
	movq	%rax, %rdi
	call	general_numcompare
	movl	%eax, -4164(%rbp)
	jmp	.L560
.L561:
	.loc 2 2612 23
	movq	-4160(%rbp), %rax
	movzbl	53(%rax), %eax
	.loc 2 2612 19
	testb	%al, %al
	je	.L562
	.loc 2 2613 20
	movq	-4112(%rbp), %rdx
	movq	-4120(%rbp), %rax
	movq	%rdx, %rsi
	movq	%rax, %rdi
	call	human_numcompare
	movl	%eax, -4164(%rbp)
	jmp	.L560
.L562:
	.loc 2 2614 23
	movq	-4160(%rbp), %rax
	movzbl	54(%rax), %eax
	.loc 2 2614 19
	testb	%al, %al
	je	.L563
	.loc 2 2615 20
	movq	-4120(%rbp), %rax
	movl	$0, %esi
	movq	%rax, %rdi
	call	getmonth
	movl	%eax, %ebx
	.loc 2 2615 42
	movq	-4112(%rbp), %rax
	movl	$0, %esi
	movq	%rax, %rdi
	call	getmonth
	.loc 2 2615 18
	subl	%eax, %ebx
	movl	%ebx, %eax
	movl	%eax, -4164(%rbp)
	jmp	.L560
.L563:
	.loc 2 2616 23
	movq	-4160(%rbp), %rax
	movzbl	51(%rax), %eax
	.loc 2 2616 19
	testb	%al, %al
	je	.L564
	.loc 2 2617 20
	movq	-4096(%rbp), %rcx
	movq	-4112(%rbp), %rdx
	movq	-4104(%rbp), %rsi
	movq	-4120(%rbp), %rax
	movq	%rax, %rdi
	call	compare_random
	movl	%eax, -4164(%rbp)
	jmp	.L560
.L564:
	.loc 2 2618 23
	movq	-4160(%rbp), %rax
	movzbl	56(%rax), %eax
	.loc 2 2618 19
	testb	%al, %al
	je	.L565
	.loc 2 2619 20
	movq	-4112(%rbp), %rdx
	movq	-4120(%rbp), %rax
	movq	%rdx, %rsi
	movq	%rax, %rdi
	call	filevercmp@PLT
	movl	%eax, -4164(%rbp)
	jmp	.L560
.L565:
	.loc 2 2624 18
	cmpq	$0, -4104(%rbp)
	jne	.L566
	.loc 2 2625 26
	cmpq	$0, -4096(%rbp)
	setne	%al
	movzbl	%al, %eax
	.loc 2 2625 22
	negl	%eax
	movl	%eax, -4164(%rbp)
	jmp	.L560
.L566:
	.loc 2 2626 23
	cmpq	$0, -4096(%rbp)
	jne	.L567
	.loc 2 2627 22
	movl	$1, -4164(%rbp)
	jmp	.L560
.L567:
	.loc 2 2629 24
	movq	-4096(%rbp), %rax
	leaq	1(%rax), %rcx
	movq	-4104(%rbp), %rax
	leaq	1(%rax), %rsi
	movq	-4112(%rbp), %rdx
	movq	-4120(%rbp), %rax
	movq	%rax, %rdi
	call	xmemcoll0@PLT
	movl	%eax, -4164(%rbp)
.L560:
	.loc 2 2632 14
	cmpq	$0, -4064(%rbp)
	jne	.L568
	.loc 2 2632 22 discriminator 1
	cmpq	$0, -4072(%rbp)
	je	.L569
.L568:
	.loc 2 2633 13
	movq	-4088(%rbp), %rax
	movq	%rax, %rdi
	call	free@PLT
.LBE44:
	.loc 2 2558 9
	jmp	.L571
.L569:
.LBB46:
	.loc 2 2636 17
	movq	-4120(%rbp), %rdx
	movq	-4104(%rbp), %rax
	addq	%rax, %rdx
	.loc 2 2636 25
	movzbl	-4166(%rbp), %eax
	movb	%al, (%rdx)
	.loc 2 2637 17
	movq	-4112(%rbp), %rdx
	movq	-4096(%rbp), %rax
	addq	%rax, %rdx
	.loc 2 2637 25
	movzbl	-4165(%rbp), %eax
	movb	%al, (%rdx)
.LBE46:
	.loc 2 2558 9
	jmp	.L571
.L541:
	.loc 2 2640 15
	cmpq	$0, -4064(%rbp)
	je	.L572
	.loc 2 2664 14
	cmpq	$0, -4072(%rbp)
	je	.L584
	.loc 2 2665 13
	jmp	.L574
.L576:
	.loc 2 2665 13 is_stmt 0 discriminator 3
	addq	$1, -4152(%rbp)
.L574:
	.loc 2 2665 13 discriminator 1
	movq	-4152(%rbp), %rax
	cmpq	-4136(%rbp), %rax
	jnb	.L577
	.loc 2 2665 13 discriminator 2
	movq	-4152(%rbp), %rax
	movzbl	(%rax), %eax
	movsbl	%al, %eax
	movl	%eax, %edi
	call	to_uchar
	movzbl	%al, %edx
	movq	-4064(%rbp), %rax
	addq	%rdx, %rax
	movzbl	(%rax), %eax
	testb	%al, %al
	jne	.L576
	.loc 2 2665 13
	jmp	.L577
.L579:
	.loc 2 2665 13 discriminator 7
	addq	$1, -4144(%rbp)
.L577:
	.loc 2 2665 13 discriminator 4
	movq	-4144(%rbp), %rax
	cmpq	-4128(%rbp), %rax
	jnb	.L578
	.loc 2 2665 13 discriminator 5
	movq	-4144(%rbp), %rax
	movzbl	(%rax), %eax
	movsbl	%al, %eax
	movl	%eax, %edi
	call	to_uchar
	movzbl	%al, %edx
	movq	-4064(%rbp), %rax
	addq	%rdx, %rax
	movzbl	(%rax), %eax
	testb	%al, %al
	jne	.L579
.L578:
	.loc 2 2665 13 discriminator 8
	movq	-4152(%rbp), %rax
	cmpq	-4136(%rbp), %rax
	jnb	.L580
	.loc 2 2665 13 discriminator 10
	movq	-4144(%rbp), %rax
	cmpq	-4128(%rbp), %rax
	jnb	.L580
	.loc 2 2665 13 discriminator 12
	movq	-4152(%rbp), %rax
	movzbl	(%rax), %eax
	movsbl	%al, %eax
	movl	%eax, %edi
	call	to_uchar
	movzbl	%al, %edx
	movq	-4072(%rbp), %rax
	addq	%rdx, %rax
	movzbl	(%rax), %eax
	movsbl	%al, %eax
	movl	%eax, %edi
	call	to_uchar
	movzbl	%al, %ebx
	movq	-4144(%rbp), %rax
	movzbl	(%rax), %eax
	movsbl	%al, %eax
	movl	%eax, %edi
	call	to_uchar
	movzbl	%al, %edx
	movq	-4072(%rbp), %rax
	addq	%rdx, %rax
	movzbl	(%rax), %eax
	movsbl	%al, %eax
	movl	%eax, %edi
	call	to_uchar
	movzbl	%al, %eax
	subl	%eax, %ebx
	movl	%ebx, %eax
	movl	%eax, -4164(%rbp)
	cmpl	$0, -4164(%rbp)
	jne	.L620
	.loc 2 2665 13 discriminator 14
	addq	$1, -4152(%rbp)
	addq	$1, -4144(%rbp)
	jmp	.L574
.L580:
	.loc 2 2665 13 discriminator 11
	movq	-4152(%rbp), %rax
	cmpq	-4136(%rbp), %rax
	setb	%al
	movzbl	%al, %edx
	movq	-4144(%rbp), %rax
	cmpq	-4128(%rbp), %rax
	setb	%al
	movzbl	%al, %eax
	subl	%eax, %edx
	movl	%edx, %eax
	movl	%eax, -4164(%rbp)
	jmp	.L571
.L586:
	.loc 2 2668 13 is_stmt 1 discriminator 3
	addq	$1, -4152(%rbp)
.L584:
	.loc 2 2668 13 is_stmt 0 discriminator 1
	movq	-4152(%rbp), %rax
	cmpq	-4136(%rbp), %rax
	jnb	.L587
	.loc 2 2668 13 discriminator 2
	movq	-4152(%rbp), %rax
	movzbl	(%rax), %eax
	movsbl	%al, %eax
	movl	%eax, %edi
	call	to_uchar
	movzbl	%al, %edx
	movq	-4064(%rbp), %rax
	addq	%rdx, %rax
	movzbl	(%rax), %eax
	testb	%al, %al
	jne	.L586
	.loc 2 2668 13
	jmp	.L587
.L589:
	.loc 2 2668 13 discriminator 7
	addq	$1, -4144(%rbp)
.L587:
	.loc 2 2668 13 discriminator 4
	movq	-4144(%rbp), %rax
	cmpq	-4128(%rbp), %rax
	jnb	.L588
	.loc 2 2668 13 discriminator 5
	movq	-4144(%rbp), %rax
	movzbl	(%rax), %eax
	movsbl	%al, %eax
	movl	%eax, %edi
	call	to_uchar
	movzbl	%al, %edx
	movq	-4064(%rbp), %rax
	addq	%rdx, %rax
	movzbl	(%rax), %eax
	testb	%al, %al
	jne	.L589
.L588:
	.loc 2 2668 13 discriminator 8
	movq	-4152(%rbp), %rax
	cmpq	-4136(%rbp), %rax
	jnb	.L590
	.loc 2 2668 13 discriminator 10
	movq	-4144(%rbp), %rax
	cmpq	-4128(%rbp), %rax
	jnb	.L590
	.loc 2 2668 13 discriminator 12
	movq	-4152(%rbp), %rax
	movzbl	(%rax), %eax
	movsbl	%al, %eax
	movl	%eax, %edi
	call	to_uchar
	movzbl	%al, %ebx
	movq	-4144(%rbp), %rax
	movzbl	(%rax), %eax
	movsbl	%al, %eax
	movl	%eax, %edi
	call	to_uchar
	movzbl	%al, %eax
	subl	%eax, %ebx
	movl	%ebx, %eax
	movl	%eax, -4164(%rbp)
	cmpl	$0, -4164(%rbp)
	jne	.L621
	.loc 2 2668 13 discriminator 14
	addq	$1, -4152(%rbp)
	addq	$1, -4144(%rbp)
	jmp	.L584
.L590:
	.loc 2 2668 13 discriminator 11
	movq	-4152(%rbp), %rax
	cmpq	-4136(%rbp), %rax
	setb	%al
	movzbl	%al, %edx
	movq	-4144(%rbp), %rax
	cmpq	-4128(%rbp), %rax
	setb	%al
	movzbl	%al, %eax
	subl	%eax, %edx
	movl	%edx, %eax
	movl	%eax, -4164(%rbp)
	jmp	.L571
.L572:
	.loc 2 2670 15 is_stmt 1
	cmpq	$0, -4056(%rbp)
	jne	.L592
	.loc 2 2671 18
	cmpq	$0, -4048(%rbp)
	setne	%al
	movzbl	%al, %eax
	.loc 2 2671 14
	negl	%eax
	movl	%eax, -4164(%rbp)
	jmp	.L571
.L592:
	.loc 2 2672 15
	cmpq	$0, -4048(%rbp)
	je	.L622
	.loc 2 2676 14
	cmpq	$0, -4072(%rbp)
	je	.L595
	.loc 2 2678 21
	jmp	.L596
.L598:
	.loc 2 2680 63
	movq	-4152(%rbp), %rax
	leaq	1(%rax), %rdx
	movq	%rdx, -4152(%rbp)
	.loc 2 2680 57
	movzbl	(%rax), %eax
	.loc 2 2680 47
	movsbl	%al, %eax
	movl	%eax, %edi
	call	to_uchar
	movzbl	%al, %edx
	.loc 2 2680 46
	movq	-4072(%rbp), %rax
	addq	%rdx, %rax
	movzbl	(%rax), %eax
	.loc 2 2680 27
	movsbl	%al, %eax
	movl	%eax, %edi
	call	to_uchar
	movzbl	%al, %ebx
	.loc 2 2681 65
	movq	-4144(%rbp), %rax
	leaq	1(%rax), %rdx
	movq	%rdx, -4144(%rbp)
	.loc 2 2681 59
	movzbl	(%rax), %eax
	.loc 2 2681 49
	movsbl	%al, %eax
	movl	%eax, %edi
	call	to_uchar
	movzbl	%al, %edx
	.loc 2 2681 48
	movq	-4072(%rbp), %rax
	addq	%rdx, %rax
	movzbl	(%rax), %eax
	.loc 2 2681 29
	movsbl	%al, %eax
	movl	%eax, %edi
	call	to_uchar
	movzbl	%al, %eax
	.loc 2 2680 24
	subl	%eax, %ebx
	movl	%ebx, %eax
	movl	%eax, -4164(%rbp)
	.loc 2 2682 22
	cmpl	$0, -4164(%rbp)
	jne	.L623
.L596:
	.loc 2 2678 21
	movq	-4152(%rbp), %rax
	cmpq	-4136(%rbp), %rax
	jnb	.L597
	.loc 2 2678 35 discriminator 1
	movq	-4144(%rbp), %rax
	cmpq	-4128(%rbp), %rax
	jb	.L598
	jmp	.L597
.L595:
	.loc 2 2688 22
	movq	-4056(%rbp), %rax
	cmpq	%rax, -4048(%rbp)
	cmovbe	-4048(%rbp), %rax
	movq	%rax, %rdx
	movq	-4144(%rbp), %rcx
	movq	-4152(%rbp), %rax
	movq	%rcx, %rsi
	movq	%rax, %rdi
	call	memcmp@PLT
	movl	%eax, -4164(%rbp)
	.loc 2 2689 18
	cmpl	$0, -4164(%rbp)
	jne	.L624
.L597:
	.loc 2 2692 35
	movq	-4056(%rbp), %rax
	cmpq	-4048(%rbp), %rax
	jb	.L599
	.loc 2 2692 42 discriminator 1
	movq	-4056(%rbp), %rax
	cmpq	-4048(%rbp), %rax
	setne	%al
	.loc 2 2692 35 discriminator 1
	movzbl	%al, %eax
	jmp	.L600
.L599:
	.loc 2 2692 35 is_stmt 0 discriminator 2
	movl	$-1, %eax
.L600:
	.loc 2 2692 16 is_stmt 1 discriminator 4
	movl	%eax, -4164(%rbp)
.L571:
	.loc 2 2695 10
	cmpl	$0, -4164(%rbp)
	jne	.L625
	.loc 2 2698 11
	movq	-4160(%rbp), %rax
	movq	64(%rax), %rax
	movq	%rax, -4160(%rbp)
	.loc 2 2699 10
	cmpq	$0, -4160(%rbp)
	je	.L626
	.loc 2 2703 14
	movq	-4160(%rbp), %rax
	movq	16(%rax), %rax
	.loc 2 2703 10
	cmpq	$-1, %rax
	je	.L604
	.loc 2 2704 16
	movq	-4160(%rbp), %rdx
	movq	-4184(%rbp), %rax
	movq	%rdx, %rsi
	movq	%rax, %rdi
	call	limfield
	movq	%rax, -4136(%rbp)
	.loc 2 2704 42
	movq	-4160(%rbp), %rdx
	movq	-4192(%rbp), %rax
	movq	%rdx, %rsi
	movq	%rax, %rdi
	call	limfield
	movq	%rax, -4128(%rbp)
	jmp	.L605
.L604:
	.loc 2 2706 17
	movq	-4184(%rbp), %rax
	movq	(%rax), %rdx
	.loc 2 2706 27
	movq	-4184(%rbp), %rax
	movq	8(%rax), %rax
	.loc 2 2706 36
	subq	$1, %rax
	.loc 2 2706 14
	addq	%rdx, %rax
	movq	%rax, -4136(%rbp)
	.loc 2 2706 49
	movq	-4192(%rbp), %rax
	movq	(%rax), %rdx
	.loc 2 2706 59
	movq	-4192(%rbp), %rax
	movq	8(%rax), %rax
	.loc 2 2706 68
	subq	$1, %rax
	.loc 2 2706 46
	addq	%rdx, %rax
	movq	%rax, -4128(%rbp)
.L605:
	.loc 2 2708 14
	movq	-4160(%rbp), %rax
	movq	(%rax), %rax
	.loc 2 2708 10
	cmpq	$-1, %rax
	je	.L606
	.loc 2 2709 17
	movq	-4160(%rbp), %rdx
	movq	-4184(%rbp), %rax
	movq	%rdx, %rsi
	movq	%rax, %rdi
	call	begfield
	movq	%rax, -4152(%rbp)
	.loc 2 2709 44
	movq	-4160(%rbp), %rdx
	movq	-4192(%rbp), %rax
	movq	%rdx, %rsi
	movq	%rax, %rdi
	call	begfield
	movq	%rax, -4144(%rbp)
	jmp	.L613
.L606:
	.loc 2 2712 17
	movq	-4184(%rbp), %rax
	movq	(%rax), %rax
	movq	%rax, -4152(%rbp)
	.loc 2 2712 34
	movq	-4192(%rbp), %rax
	movq	(%rax), %rax
	movq	%rax, -4144(%rbp)
	.loc 2 2713 18
	movq	-4160(%rbp), %rax
	movzbl	48(%rax), %eax
	.loc 2 2713 14
	testb	%al, %al
	je	.L613
	.loc 2 2715 21
	jmp	.L608
.L610:
	.loc 2 2716 17
	addq	$1, -4152(%rbp)
.L608:
	.loc 2 2715 21
	movq	-4152(%rbp), %rax
	cmpq	-4136(%rbp), %rax
	jnb	.L611
	.loc 2 2715 55 discriminator 1
	movq	-4152(%rbp), %rax
	movzbl	(%rax), %eax
	.loc 2 2715 45 discriminator 1
	movsbl	%al, %eax
	movl	%eax, %edi
	call	to_uchar
	movzbl	%al, %eax
	.loc 2 2715 44 discriminator 1
	cltq
	leaq	blanks(%rip), %rdx
	movzbl	(%rax,%rdx), %eax
	.loc 2 2715 35 discriminator 1
	testb	%al, %al
	jne	.L610
	.loc 2 2717 21
	jmp	.L611
.L612:
	.loc 2 2718 17
	addq	$1, -4144(%rbp)
.L611:
	.loc 2 2717 21
	movq	-4144(%rbp), %rax
	cmpq	-4128(%rbp), %rax
	jnb	.L613
	.loc 2 2717 55 discriminator 1
	movq	-4144(%rbp), %rax
	movzbl	(%rax), %eax
	.loc 2 2717 45 discriminator 1
	movsbl	%al, %eax
	movl	%eax, %edi
	call	to_uchar
	movzbl	%al, %eax
	.loc 2 2717 44 discriminator 1
	cltq
	leaq	blanks(%rip), %rdx
	movzbl	(%rax,%rdx), %eax
	.loc 2 2717 35 discriminator 1
	testb	%al, %al
	jne	.L612
.LBE43:
	.loc 2 2544 5
	jmp	.L613
.L626:
.LBB47:
	.loc 2 2700 9
	nop
.LBE47:
	.loc 2 2723 10
	movl	$0, %eax
	jmp	.L614
.L622:
.LBB48:
	.loc 2 2673 9
	nop
.L594:
	endbr64
.LBE48:
	.loc 2 2726 8
	movl	$1, -4164(%rbp)
	jmp	.L582
.L620:
.LBB49:
	.loc 2 2665 13
	nop
	jmp	.L582
.L621:
	.loc 2 2668 13
	nop
	jmp	.L582
.L623:
	.loc 2 2683 21
	nop
	jmp	.L582
.L624:
	.loc 2 2690 17
	nop
	jmp	.L582
.L625:
	.loc 2 2696 9
	nop
.L582:
.LBE49:
	.loc 2 2728 13
	movq	-4160(%rbp), %rax
	movzbl	55(%rax), %eax
	.loc 2 2728 31
	testb	%al, %al
	je	.L615
	.loc 2 2728 31 is_stmt 0 discriminator 1
	movl	-4164(%rbp), %eax
	negl	%eax
	jmp	.L614
.L615:
	.loc 2 2728 31 discriminator 2
	movl	-4164(%rbp), %eax
.L614:
	.loc 2 2729 1 is_stmt 1
	movq	-24(%rbp), %rcx
	xorq	%fs:40, %rcx
	je	.L617
	call	__stack_chk_fail@PLT
.L617:
	addq	$4184, %rsp
	popq	%rbx
	popq	%rbp
	.cfi_def_cfa 7, 8
	ret
	.cfi_endproc
.LFE104:
	.size	keycompare, .-keycompare
	.type	compare, @function
compare:
.LFB105:
	.loc 2 2736 1
	.cfi_startproc
	endbr64
	pushq	%rbp
	.cfi_def_cfa_offset 16
	.cfi_offset 6, -16
	movq	%rsp, %rbp
	.cfi_def_cfa_register 6
	subq	$48, %rsp
	movq	%rdi, -40(%rbp)
	movq	%rsi, -48(%rbp)
	.loc 2 2743 7
	movq	keylist(%rip), %rax
	.loc 2 2743 6
	testq	%rax, %rax
	je	.L628
	.loc 2 2745 14
	movq	-48(%rbp), %rdx
	movq	-40(%rbp), %rax
	movq	%rdx, %rsi
	movq	%rax, %rdi
	call	keycompare
	movl	%eax, -20(%rbp)
	.loc 2 2746 10
	cmpl	$0, -20(%rbp)
	jne	.L629
	.loc 2 2746 16 discriminator 1
	movzbl	unique(%rip), %eax
	testb	%al, %al
	jne	.L629
	.loc 2 2746 26 discriminator 2
	movzbl	stable(%rip), %eax
	testb	%al, %al
	je	.L628
.L629:
	.loc 2 2747 16
	movl	-20(%rbp), %eax
	jmp	.L630
.L628:
	.loc 2 2752 11
	movq	-40(%rbp), %rax
	movq	8(%rax), %rax
	.loc 2 2752 8
	subq	$1, %rax
	movq	%rax, -16(%rbp)
	.loc 2 2752 33
	movq	-48(%rbp), %rax
	movq	8(%rax), %rax
	.loc 2 2752 30
	subq	$1, %rax
	movq	%rax, -8(%rbp)
	.loc 2 2754 6
	cmpq	$0, -16(%rbp)
	jne	.L631
	.loc 2 2755 14
	cmpq	$0, -8(%rbp)
	setne	%al
	movzbl	%al, %eax
	.loc 2 2755 10
	negl	%eax
	movl	%eax, -20(%rbp)
	jmp	.L632
.L631:
	.loc 2 2756 11
	cmpq	$0, -8(%rbp)
	jne	.L633
	.loc 2 2757 10
	movl	$1, -20(%rbp)
	jmp	.L632
.L633:
	.loc 2 2758 12
	movzbl	hard_LC_COLLATE(%rip), %eax
	.loc 2 2758 11
	testb	%al, %al
	je	.L634
	.loc 2 2764 14
	movq	-8(%rbp), %rax
	leaq	1(%rax), %rcx
	.loc 2 2764 45
	movq	-48(%rbp), %rax
	movq	(%rax), %rdx
	.loc 2 2764 14
	movq	-16(%rbp), %rax
	leaq	1(%rax), %rsi
	.loc 2 2764 26
	movq	-40(%rbp), %rax
	movq	(%rax), %rax
	.loc 2 2764 14
	movq	%rax, %rdi
	call	xmemcoll0@PLT
	movl	%eax, -20(%rbp)
	jmp	.L632
.L634:
	.loc 2 2766 22
	movq	-16(%rbp), %rax
	cmpq	%rax, -8(%rbp)
	cmovbe	-8(%rbp), %rax
	movq	%rax, %rdx
	.loc 2 2766 40
	movq	-48(%rbp), %rax
	movq	(%rax), %rcx
	.loc 2 2766 31
	movq	-40(%rbp), %rax
	movq	(%rax), %rax
	.loc 2 2766 22
	movq	%rcx, %rsi
	movq	%rax, %rdi
	call	memcmp@PLT
	movl	%eax, -20(%rbp)
	.loc 2 2766 11
	cmpl	$0, -20(%rbp)
	jne	.L632
	.loc 2 2767 29
	movq	-16(%rbp), %rax
	cmpq	-8(%rbp), %rax
	jb	.L635
	.loc 2 2767 36 discriminator 1
	movq	-16(%rbp), %rax
	cmpq	-8(%rbp), %rax
	setne	%al
	.loc 2 2767 29 discriminator 1
	movzbl	%al, %eax
	jmp	.L636
.L635:
	.loc 2 2767 29 is_stmt 0 discriminator 2
	movl	$-1, %eax
.L636:
	.loc 2 2767 10 is_stmt 1 discriminator 4
	movl	%eax, -20(%rbp)
.L632:
	.loc 2 2769 18
	movzbl	reverse(%rip), %eax
	.loc 2 2769 26
	testb	%al, %al
	je	.L637
	.loc 2 2769 26 is_stmt 0 discriminator 1
	movl	-20(%rbp), %eax
	negl	%eax
	jmp	.L630
.L637:
	.loc 2 2769 26 discriminator 2
	movl	-20(%rbp), %eax
.L630:
	.loc 2 2770 1 is_stmt 1
	leave
	.cfi_def_cfa 7, 8
	ret
	.cfi_endproc
.LFE105:
	.size	compare, .-compare
	.section	.rodata
.LC142:
	.string	"write failed"
	.text
	.type	write_line, @function
write_line:
.LFB106:
	.loc 2 2779 1
	.cfi_startproc
	endbr64
	pushq	%rbp
	.cfi_def_cfa_offset 16
	.cfi_offset 6, -16
	movq	%rsp, %rbp
	.cfi_def_cfa_register 6
	subq	$80, %rsp
	movq	%rdi, -56(%rbp)
	movq	%rsi, -64(%rbp)
	movq	%rdx, -72(%rbp)
	.loc 2 2780 9
	movq	-56(%rbp), %rax
	movq	(%rax), %rax
	movq	%rax, -24(%rbp)
	.loc 2 2781 10
	movq	-56(%rbp), %rax
	movq	8(%rax), %rax
	movq	%rax, -16(%rbp)
	.loc 2 2782 9
	movq	-24(%rbp), %rdx
	movq	-16(%rbp), %rax
	addq	%rdx, %rax
	movq	%rax, -8(%rbp)
	.loc 2 2784 6
	cmpq	$0, -72(%rbp)
	jne	.L640
	.loc 2 2784 20 discriminator 1
	movzbl	debug(%rip), %eax
	testb	%al, %al
	je	.L640
.LBB50:
	.loc 2 2787 19
	movq	-24(%rbp), %rax
	movq	%rax, -32(%rbp)
	.loc 2 2789 13
	jmp	.L641
.L644:
.LBB51:
	.loc 2 2791 23
	movq	-32(%rbp), %rax
	leaq	1(%rax), %rdx
	movq	%rdx, -32(%rbp)
	.loc 2 2791 16
	movzbl	(%rax), %eax
	movb	%al, -33(%rbp)
	.loc 2 2792 14
	cmpb	$9, -33(%rbp)
	jne	.L642
	.loc 2 2793 16
	movb	$62, -33(%rbp)
	jmp	.L643
.L642:
	.loc 2 2794 19
	movq	-32(%rbp), %rax
	cmpq	-8(%rbp), %rax
	jne	.L643
	.loc 2 2795 16
	movb	$10, -33(%rbp)
.L643:
	.loc 2 2796 15
	movsbl	-33(%rbp), %eax
	movq	-64(%rbp), %rdx
	movq	%rdx, %rsi
	movl	%eax, %edi
	call	fputc_unlocked@PLT
	.loc 2 2796 14
	cmpl	$-1, %eax
	jne	.L641
	.loc 2 2797 23
	leaq	.LC142(%rip), %rdi
	call	gettext@PLT
	movq	%rax, %rdx
	.loc 2 2797 13
	movq	-72(%rbp), %rax
	movq	%rax, %rsi
	movq	%rdx, %rdi
	call	sort_die
.L641:
.LBE51:
	.loc 2 2789 13
	movq	-32(%rbp), %rax
	cmpq	-8(%rbp), %rax
	jb	.L644
	.loc 2 2800 7
	movq	-56(%rbp), %rax
	movq	%rax, %rdi
	call	debug_line
.LBE50:
	.loc 2 2785 5
	jmp	.L645
.L640:
	.loc 2 2804 11
	movq	-8(%rbp), %rax
	leaq	-1(%rax), %rdx
	.loc 2 2804 16
	movzbl	eolchar(%rip), %eax
	movb	%al, (%rdx)
	.loc 2 2805 11
	movq	-64(%rbp), %rcx
	movq	-16(%rbp), %rdx
	movq	-24(%rbp), %rax
	movl	$1, %esi
	movq	%rax, %rdi
	call	fwrite_unlocked@PLT
	.loc 2 2805 10
	cmpq	%rax, -16(%rbp)
	je	.L646
	.loc 2 2806 19
	leaq	.LC142(%rip), %rdi
	call	gettext@PLT
	movq	%rax, %rdx
	.loc 2 2806 9
	movq	-72(%rbp), %rax
	movq	%rax, %rsi
	movq	%rdx, %rdi
	call	sort_die
.L646:
	.loc 2 2807 11
	movq	-8(%rbp), %rax
	subq	$1, %rax
	.loc 2 2807 16
	movb	$0, (%rax)
	.loc 2 2809 1
	nop
.L645:
	nop
	leave
	.cfi_def_cfa 7, 8
	ret
	.cfi_endproc
.LFE106:
	.size	write_line, .-write_line
	.section	.rodata
.LC143:
	.string	"%s: %s:%s: disorder: "
.LC144:
	.string	"standard error"
	.text
	.type	check, @function
check:
.LFB107:
	.loc 2 2818 1
	.cfi_startproc
	endbr64
	pushq	%rbp
	.cfi_def_cfa_offset 16
	.cfi_offset 6, -16
	movq	%rsp, %rbp
	.cfi_def_cfa_register 6
	pushq	%r12
	pushq	%rbx
	subq	$224, %rsp
	.cfi_offset 12, -24
	.cfi_offset 3, -32
	movq	%rdi, -232(%rbp)
	movl	%esi, %eax
	movb	%al, -236(%rbp)
	.loc 2 2818 1
	movq	%fs:40, %rax
	movq	%rax, -24(%rbp)
	xorl	%eax, %eax
	.loc 2 2819 14
	movq	-232(%rbp), %rax
	leaq	.LC113(%rip), %rsi
	movq	%rax, %rdi
	call	xfopen
	movq	%rax, -184(%rbp)
	.loc 2 2822 10
	movq	$0, -208(%rbp)
	.loc 2 2823 13
	movq	$0, -200(%rbp)
	.loc 2 2824 26
	movq	keylist(%rip), %rax
	movq	%rax, -176(%rbp)
	.loc 2 2825 3
	movzbl	unique(%rip), %eax
	movzbl	%al, %eax
	testl	%eax, %eax
	setne	%al
	xorl	$1, %eax
	movzbl	%al, %eax
	.loc 2 2825 8
	movb	%al, -209(%rbp)
	andb	$1, -209(%rbp)
	.loc 2 2826 8
	movb	$1, -210(%rbp)
	.loc 2 2828 3
	movq	sort_size(%rip), %rdx
	movq	merge_buffer_size(%rip), %rax
	cmpq	%rax, %rdx
	cmovb	%rax, %rdx
	leaq	-112(%rbp), %rax
	movl	$32, %esi
	movq	%rax, %rdi
	call	initbuf
	.loc 2 2830 13
	movq	$0, -144(%rbp)
	.loc 2 2832 9
	jmp	.L648
.L659:
.LBB52:
	.loc 2 2834 33
	leaq	-112(%rbp), %rax
	movq	%rax, %rdi
	call	buffer_linelim
	movq	%rax, -192(%rbp)
	.loc 2 2835 47
	movq	-96(%rbp), %rax
	.loc 2 2835 42
	salq	$5, %rax
	negq	%rax
	movq	%rax, %rdx
	.loc 2 2835 26
	movq	-192(%rbp), %rax
	addq	%rdx, %rax
	movq	%rax, -168(%rbp)
	.loc 2 2839 10
	cmpq	$0, -208(%rbp)
	je	.L653
	.loc 2 2839 30 discriminator 1
	movzbl	-209(%rbp), %ebx
	.loc 2 2839 33 discriminator 1
	movq	-192(%rbp), %rax
	leaq	-32(%rax), %rdx
	leaq	-144(%rbp), %rax
	movq	%rdx, %rsi
	movq	%rax, %rdi
	call	compare
	.loc 2 2839 17 discriminator 1
	cmpl	%eax, %ebx
	jg	.L653
	.loc 2 2841 9
	nop
	jmp	.L650
.L662:
	.loc 2 2863 11
	nop
.L650:
	.loc 2 2843 16
	cmpb	$99, -236(%rbp)
	jne	.L651
.LBB53:
	.loc 2 2845 36
	movq	-192(%rbp), %rax
	subq	$32, %rax
	movq	%rax, -160(%rbp)
	.loc 2 2847 19
	leaq	-112(%rbp), %rax
	movq	%rax, %rdi
	call	buffer_linelim
	.loc 2 2847 41
	subq	-160(%rbp), %rax
	sarq	$5, %rax
	movq	%rax, %rdx
	.loc 2 2846 27
	movq	-200(%rbp), %rax
	addq	%rdx, %rax
	movq	%rax, -152(%rbp)
	.loc 2 2849 17
	leaq	-48(%rbp), %rdx
	movq	-152(%rbp), %rax
	movq	%rdx, %rsi
	movq	%rax, %rdi
	call	umaxtostr@PLT
	movq	%rax, %r12
	movq	program_name(%rip), %rbx
	.loc 2 2849 34
	leaq	.LC143(%rip), %rdi
	call	gettext@PLT
	movq	%rax, %rsi
	.loc 2 2849 17
	movq	stderr(%rip), %rax
	movq	-232(%rbp), %rdx
	movq	%r12, %r8
	movq	%rdx, %rcx
	movq	%rbx, %rdx
	movq	%rax, %rdi
	movl	$0, %eax
	call	fprintf@PLT
	.loc 2 2852 52
	leaq	.LC144(%rip), %rdi
	call	gettext@PLT
	movq	%rax, %rdx
	.loc 2 2852 17
	movq	stderr(%rip), %rcx
	movq	-160(%rbp), %rax
	movq	%rcx, %rsi
	movq	%rax, %rdi
	call	write_line
.L651:
.LBE53:
	.loc 2 2855 21
	movb	$0, -210(%rbp)
	.loc 2 2856 13
	jmp	.L652
.L654:
	.loc 2 2862 23
	movzbl	-209(%rbp), %ebx
	.loc 2 2862 26
	movq	-192(%rbp), %rax
	leaq	-32(%rax), %rdx
	movq	-192(%rbp), %rax
	movq	%rdx, %rsi
	movq	%rax, %rdi
	call	compare
	.loc 2 2862 12
	cmpl	%eax, %ebx
	jle	.L662
.L653:
	.loc 2 2861 13
	subq	$32, -192(%rbp)
	movq	-192(%rbp), %rax
	cmpq	-168(%rbp), %rax
	ja	.L654
	.loc 2 2865 25
	movq	-96(%rbp), %rax
	.loc 2 2865 19
	addq	%rax, -200(%rbp)
	.loc 2 2868 23
	movq	-192(%rbp), %rax
	movq	8(%rax), %rax
	.loc 2 2868 10
	cmpq	%rax, -208(%rbp)
	jnb	.L655
.L658:
	.loc 2 2872 21
	salq	-208(%rbp)
	.loc 2 2873 18
	cmpq	$0, -208(%rbp)
	jne	.L656
	.loc 2 2875 25
	movq	-192(%rbp), %rax
	movq	8(%rax), %rax
	movq	%rax, -208(%rbp)
	.loc 2 2876 19
	jmp	.L657
.L656:
	.loc 2 2879 30
	movq	-192(%rbp), %rax
	movq	8(%rax), %rax
	.loc 2 2879 11
	cmpq	%rax, -208(%rbp)
	jb	.L658
.L657:
	.loc 2 2881 21
	movq	-144(%rbp), %rax
	.loc 2 2881 11
	movq	%rax, %rdi
	call	free@PLT
	.loc 2 2882 23
	movq	-208(%rbp), %rax
	movq	%rax, %rdi
	call	xmalloc@PLT
	.loc 2 2882 21
	movq	%rax, -144(%rbp)
.L655:
	.loc 2 2884 7
	movq	-192(%rbp), %rax
	movq	8(%rax), %rdx
	.loc 2 2884 30
	movq	-192(%rbp), %rax
	movq	(%rax), %rcx
	.loc 2 2884 19
	movq	-144(%rbp), %rax
	.loc 2 2884 7
	movq	%rcx, %rsi
	movq	%rax, %rdi
	call	memcpy@PLT
	.loc 2 2885 25
	movq	-192(%rbp), %rax
	movq	8(%rax), %rax
	.loc 2 2885 19
	movq	%rax, -136(%rbp)
	.loc 2 2886 10
	cmpq	$0, -176(%rbp)
	je	.L648
	.loc 2 2888 29
	movq	-144(%rbp), %rdx
	.loc 2 2888 42
	movq	-192(%rbp), %rax
	movq	16(%rax), %rcx
	.loc 2 2888 57
	movq	-192(%rbp), %rax
	movq	(%rax), %rax
	.loc 2 2888 51
	subq	%rax, %rcx
	movq	%rcx, %rax
	.loc 2 2888 35
	addq	%rdx, %rax
	.loc 2 2888 23
	movq	%rax, -128(%rbp)
	.loc 2 2889 29
	movq	-144(%rbp), %rdx
	.loc 2 2889 42
	movq	-192(%rbp), %rax
	movq	24(%rax), %rcx
	.loc 2 2889 57
	movq	-192(%rbp), %rax
	movq	(%rax), %rax
	.loc 2 2889 51
	subq	%rax, %rcx
	movq	%rcx, %rax
	.loc 2 2889 35
	addq	%rdx, %rax
	.loc 2 2889 23
	movq	%rax, -120(%rbp)
.L648:
.LBE52:
	.loc 2 2832 10
	movq	-232(%rbp), %rdx
	movq	-184(%rbp), %rcx
	leaq	-112(%rbp), %rax
	movq	%rcx, %rsi
	movq	%rax, %rdi
	call	fillbuf
	.loc 2 2832 9
	testb	%al, %al
	jne	.L659
.L652:
	.loc 2 2893 3
	movq	-232(%rbp), %rdx
	movq	-184(%rbp), %rax
	movq	%rdx, %rsi
	movq	%rax, %rdi
	call	xfclose
	.loc 2 2894 12
	movq	-112(%rbp), %rax
	.loc 2 2894 3
	movq	%rax, %rdi
	call	free@PLT
	.loc 2 2895 13
	movq	-144(%rbp), %rax
	.loc 2 2895 3
	movq	%rax, %rdi
	call	free@PLT
	.loc 2 2896 10
	movzbl	-210(%rbp), %eax
	.loc 2 2897 1
	movq	-24(%rbp), %rbx
	xorq	%fs:40, %rbx
	je	.L661
	call	__stack_chk_fail@PLT
.L661:
	addq	$224, %rsp
	popq	%rbx
	popq	%r12
	popq	%rbp
	.cfi_def_cfa 7, 8
	ret
	.cfi_endproc
.LFE107:
	.size	check, .-check
	.type	open_input_files, @function
open_input_files:
.LFB108:
	.loc 2 2906 1
	.cfi_startproc
	endbr64
	pushq	%rbp
	.cfi_def_cfa_offset 16
	.cfi_offset 6, -16
	movq	%rsp, %rbp
	.cfi_def_cfa_register 6
	subq	$48, %rsp
	movq	%rdi, -24(%rbp)
	movq	%rsi, -32(%rbp)
	movq	%rdx, -40(%rbp)
	.loc 2 2907 24
	movq	-32(%rbp), %rax
	movl	$8, %esi
	movq	%rax, %rdi
	call	xnmalloc@PLT
	movq	%rax, %rdx
	.loc 2 2907 22
	movq	-40(%rbp), %rax
	movq	%rdx, (%rax)
	.loc 2 2907 10
	movq	-40(%rbp), %rax
	movq	(%rax), %rax
	movq	%rax, -8(%rbp)
	.loc 2 2911 10
	movl	$0, -12(%rbp)
	.loc 2 2911 3
	jmp	.L664
.L669:
	.loc 2 2913 22
	movl	-12(%rbp), %eax
	cltq
	salq	$4, %rax
	movq	%rax, %rdx
	movq	-24(%rbp), %rax
	addq	%rdx, %rax
	.loc 2 2913 25
	movq	8(%rax), %rax
	.loc 2 2915 17
	testq	%rax, %rax
	je	.L665
	.loc 2 2913 39
	movl	-12(%rbp), %eax
	cltq
	salq	$4, %rax
	movq	%rax, %rdx
	movq	-24(%rbp), %rax
	addq	%rdx, %rax
	.loc 2 2913 42
	movq	8(%rax), %rax
	.loc 2 2913 47
	movzbl	12(%rax), %eax
	.loc 2 2913 31
	testb	%al, %al
	je	.L665
	.loc 2 2914 35
	movl	-12(%rbp), %eax
	cltq
	salq	$4, %rax
	movq	%rax, %rdx
	movq	-24(%rbp), %rax
	addq	%rdx, %rax
	.loc 2 2914 19
	movq	8(%rax), %rax
	movq	%rax, %rdi
	call	open_temp
	.loc 2 2915 17
	jmp	.L666
.L665:
	.loc 2 2915 37 discriminator 1
	movl	-12(%rbp), %eax
	cltq
	salq	$4, %rax
	movq	%rax, %rdx
	movq	-24(%rbp), %rax
	addq	%rdx, %rax
	.loc 2 2915 19 discriminator 1
	movq	(%rax), %rax
	leaq	.LC113(%rip), %rsi
	movq	%rax, %rdi
	call	stream_open
.L666:
	.loc 2 2913 10
	movl	-12(%rbp), %edx
	movslq	%edx, %rdx
	leaq	0(,%rdx,8), %rcx
	movq	-8(%rbp), %rdx
	addq	%rcx, %rdx
	.loc 2 2913 14
	movq	%rax, (%rdx)
	.loc 2 2916 15
	movl	-12(%rbp), %eax
	cltq
	leaq	0(,%rax,8), %rdx
	movq	-8(%rbp), %rax
	addq	%rdx, %rax
	movq	(%rax), %rax
	.loc 2 2916 10
	testq	%rax, %rax
	je	.L671
	.loc 2 2911 28 discriminator 2
	addl	$1, -12(%rbp)
.L664:
	.loc 2 2911 17 discriminator 1
	movl	-12(%rbp), %eax
	cltq
	.loc 2 2911 3 discriminator 1
	cmpq	%rax, -32(%rbp)
	ja	.L669
	jmp	.L668
.L671:
	.loc 2 2917 9
	nop
.L668:
	.loc 2 2920 10
	movl	-12(%rbp), %eax
	cltq
	.loc 2 2921 1
	leave
	.cfi_def_cfa 7, 8
	ret
	.cfi_endproc
.LFE108:
	.size	open_input_files, .-open_input_files
	.type	mergefps, @function
mergefps:
.LFB109:
	.loc 2 2934 1
	.cfi_startproc
	endbr64
	pushq	%rbp
	.cfi_def_cfa_offset 16
	.cfi_offset 6, -16
	movq	%rsp, %rbp
	.cfi_def_cfa_register 6
	pushq	%rbx
	subq	$264, %rsp
	.cfi_offset 3, -24
	movq	%rdi, -232(%rbp)
	movq	%rsi, -240(%rbp)
	movq	%rdx, -248(%rbp)
	movq	%rcx, -256(%rbp)
	movq	%r8, -264(%rbp)
	movq	%r9, -272(%rbp)
	.loc 2 2934 1
	movq	%fs:40, %rax
	movq	%rax, -24(%rbp)
	xorl	%eax, %eax
	.loc 2 2935 27
	movq	-248(%rbp), %rax
	movl	$56, %esi
	movq	%rax, %rdi
	call	xnmalloc@PLT
	movq	%rax, -152(%rbp)
	.loc 2 2938 22
	movq	$0, -208(%rbp)
	.loc 2 2940 10
	movq	$0, -200(%rbp)
	.loc 2 2941 29
	movq	-248(%rbp), %rax
	movl	$8, %esi
	movq	%rax, %rdi
	call	xnmalloc@PLT
	movq	%rax, -144(%rbp)
	.loc 2 2943 30
	movq	-248(%rbp), %rax
	movl	$8, %esi
	movq	%rax, %rdi
	call	xnmalloc@PLT
	movq	%rax, -136(%rbp)
	.loc 2 2945 17
	movq	-248(%rbp), %rax
	movl	$8, %esi
	movq	%rax, %rdi
	call	xnmalloc@PLT
	movq	%rax, -128(%rbp)
	.loc 2 2952 26
	movq	keylist(%rip), %rax
	movq	%rax, -120(%rbp)
	.loc 2 2953 14
	movq	$0, -64(%rbp)
	.loc 2 2956 10
	movq	$0, -192(%rbp)
	.loc 2 2956 3
	jmp	.L673
.L678:
	.loc 2 2959 16
	movq	sort_size(%rip), %rax
	movl	$0, %edx
	divq	-248(%rbp)
	movq	%rax, %rdx
	.loc 2 2958 7
	movq	merge_buffer_size(%rip), %rax
	cmpq	%rax, %rdx
	cmovnb	%rdx, %rax
	movq	%rax, %rcx
	.loc 2 2958 23
	movq	-192(%rbp), %rdx
	movq	%rdx, %rax
	salq	$3, %rax
	subq	%rdx, %rax
	salq	$3, %rax
	movq	%rax, %rdx
	.loc 2 2958 7
	movq	-152(%rbp), %rax
	addq	%rdx, %rax
	movq	%rcx, %rdx
	movl	$32, %esi
	movq	%rax, %rdi
	call	initbuf
	.loc 2 2960 45
	movq	-192(%rbp), %rax
	salq	$4, %rax
	movq	%rax, %rdx
	movq	-232(%rbp), %rax
	addq	%rdx, %rax
	.loc 2 2960 11
	movq	(%rax), %rsi
	.loc 2 2960 35
	movq	-192(%rbp), %rax
	leaq	0(,%rax,8), %rdx
	movq	-272(%rbp), %rax
	addq	%rdx, %rax
	.loc 2 2960 11
	movq	(%rax), %rcx
	.loc 2 2960 27
	movq	-192(%rbp), %rdx
	movq	%rdx, %rax
	salq	$3, %rax
	subq	%rdx, %rax
	salq	$3, %rax
	movq	%rax, %rdx
	.loc 2 2960 11
	movq	-152(%rbp), %rax
	addq	%rdx, %rax
	movq	%rsi, %rdx
	movq	%rcx, %rsi
	movq	%rax, %rdi
	call	fillbuf
	.loc 2 2960 10
	testb	%al, %al
	je	.L674
.LBB54:
	.loc 2 2962 63
	movq	-192(%rbp), %rdx
	movq	%rdx, %rax
	salq	$3, %rax
	subq	%rdx, %rax
	salq	$3, %rax
	movq	%rax, %rdx
	.loc 2 2962 56
	movq	-152(%rbp), %rax
	addq	%rdx, %rax
	.loc 2 2962 40
	movq	%rax, %rdi
	call	buffer_linelim
	movq	%rax, -72(%rbp)
	.loc 2 2963 14
	movq	-192(%rbp), %rax
	leaq	0(,%rax,8), %rdx
	movq	-144(%rbp), %rax
	addq	%rdx, %rax
	.loc 2 2963 28
	movq	-72(%rbp), %rdx
	subq	$32, %rdx
	.loc 2 2963 18
	movq	%rdx, (%rax)
	.loc 2 2964 37
	movq	-192(%rbp), %rdx
	movq	%rdx, %rax
	salq	$3, %rax
	subq	%rdx, %rax
	salq	$3, %rax
	movq	%rax, %rdx
	movq	-152(%rbp), %rax
	addq	%rdx, %rax
	.loc 2 2964 40
	movq	16(%rax), %rax
	.loc 2 2964 29
	salq	$5, %rax
	negq	%rax
	movq	%rax, %rcx
	.loc 2 2964 15
	movq	-192(%rbp), %rax
	leaq	0(,%rax,8), %rdx
	movq	-136(%rbp), %rax
	addq	%rdx, %rax
	.loc 2 2964 29
	movq	-72(%rbp), %rdx
	addq	%rcx, %rdx
	.loc 2 2964 19
	movq	%rdx, (%rax)
	.loc 2 2965 12
	addq	$1, -192(%rbp)
.LBE54:
	jmp	.L673
.L674:
	.loc 2 2970 33
	movq	-192(%rbp), %rax
	salq	$4, %rax
	movq	%rax, %rdx
	movq	-232(%rbp), %rax
	addq	%rdx, %rax
	.loc 2 2970 11
	movq	(%rax), %rdx
	.loc 2 2970 23
	movq	-192(%rbp), %rax
	leaq	0(,%rax,8), %rcx
	movq	-272(%rbp), %rax
	addq	%rcx, %rax
	.loc 2 2970 11
	movq	(%rax), %rax
	movq	%rdx, %rsi
	movq	%rax, %rdi
	call	xfclose
	.loc 2 2971 14
	movq	-192(%rbp), %rax
	cmpq	-240(%rbp), %rax
	jnb	.L675
	.loc 2 2973 21
	subq	$1, -240(%rbp)
	.loc 2 2974 29
	movq	-192(%rbp), %rax
	salq	$4, %rax
	movq	%rax, %rdx
	movq	-232(%rbp), %rax
	addq	%rdx, %rax
	.loc 2 2974 15
	movq	(%rax), %rax
	movq	%rax, %rdi
	call	zaptemp
.L675:
	.loc 2 2976 23
	movq	-192(%rbp), %rdx
	movq	%rdx, %rax
	salq	$3, %rax
	subq	%rdx, %rax
	salq	$3, %rax
	movq	%rax, %rdx
	movq	-152(%rbp), %rax
	addq	%rdx, %rax
	.loc 2 2976 26
	movq	(%rax), %rax
	.loc 2 2976 11
	movq	%rax, %rdi
	call	free@PLT
	.loc 2 2977 11
	subq	$1, -248(%rbp)
	.loc 2 2978 18
	movq	-192(%rbp), %rax
	movq	%rax, -184(%rbp)
	.loc 2 2978 11
	jmp	.L676
.L677:
	.loc 2 2980 31 discriminator 3
	movq	-184(%rbp), %rax
	addq	$1, %rax
	salq	$4, %rax
	movq	%rax, %rdx
	movq	-232(%rbp), %rax
	addq	%rdx, %rax
	.loc 2 2980 20 discriminator 3
	movq	-184(%rbp), %rdx
	movq	%rdx, %rcx
	salq	$4, %rcx
	movq	-232(%rbp), %rdx
	addq	%rdx, %rcx
	.loc 2 2980 24 discriminator 3
	movq	8(%rax), %rdx
	movq	(%rax), %rax
	movq	%rax, (%rcx)
	movq	%rdx, 8(%rcx)
	.loc 2 2981 27 discriminator 3
	movq	-184(%rbp), %rax
	addq	$1, %rax
	leaq	0(,%rax,8), %rdx
	movq	-272(%rbp), %rax
	addq	%rdx, %rax
	.loc 2 2981 18 discriminator 3
	movq	-184(%rbp), %rdx
	leaq	0(,%rdx,8), %rcx
	movq	-272(%rbp), %rdx
	addq	%rcx, %rdx
	.loc 2 2981 27 discriminator 3
	movq	(%rax), %rax
	.loc 2 2981 22 discriminator 3
	movq	%rax, (%rdx)
	.loc 2 2978 35 discriminator 3
	addq	$1, -184(%rbp)
.L676:
	.loc 2 2978 11 discriminator 1
	movq	-184(%rbp), %rax
	cmpq	-248(%rbp), %rax
	jb	.L677
.L673:
	.loc 2 2956 3 discriminator 1
	movq	-192(%rbp), %rax
	cmpq	-248(%rbp), %rax
	jb	.L678
	.loc 2 2989 10
	movq	$0, -192(%rbp)
	.loc 2 2989 3
	jmp	.L679
.L680:
	.loc 2 2990 8 discriminator 3
	movq	-192(%rbp), %rax
	leaq	0(,%rax,8), %rdx
	movq	-128(%rbp), %rax
	addq	%rax, %rdx
	.loc 2 2990 12 discriminator 3
	movq	-192(%rbp), %rax
	movq	%rax, (%rdx)
	.loc 2 2989 27 discriminator 3
	addq	$1, -192(%rbp)
.L679:
	.loc 2 2989 3 discriminator 1
	movq	-192(%rbp), %rax
	cmpq	-248(%rbp), %rax
	jb	.L680
	.loc 2 2991 10
	movq	$1, -192(%rbp)
	.loc 2 2991 3
	jmp	.L681
.L683:
	.loc 2 2992 46
	movq	-192(%rbp), %rax
	leaq	0(,%rax,8), %rdx
	movq	-128(%rbp), %rax
	addq	%rdx, %rax
	movq	(%rax), %rax
	.loc 2 2992 42
	leaq	0(,%rax,8), %rdx
	movq	-144(%rbp), %rax
	addq	%rdx, %rax
	.loc 2 2992 13
	movq	(%rax), %rdx
	.loc 2 2992 29
	movq	-192(%rbp), %rax
	salq	$3, %rax
	leaq	-8(%rax), %rcx
	movq	-128(%rbp), %rax
	addq	%rcx, %rax
	movq	(%rax), %rax
	.loc 2 2992 25
	leaq	0(,%rax,8), %rcx
	movq	-144(%rbp), %rax
	addq	%rcx, %rax
	.loc 2 2992 13
	movq	(%rax), %rax
	movq	%rdx, %rsi
	movq	%rax, %rdi
	call	compare
	.loc 2 2992 8
	testl	%eax, %eax
	jle	.L682
	.loc 2 2993 14
	movq	-192(%rbp), %rax
	salq	$3, %rax
	leaq	-8(%rax), %rdx
	movq	-128(%rbp), %rax
	addq	%rdx, %rax
	.loc 2 2993 9
	movq	(%rax), %rax
	movq	%rax, -80(%rbp)
	.loc 2 2993 39
	movq	-192(%rbp), %rax
	leaq	0(,%rax,8), %rdx
	movq	-128(%rbp), %rax
	addq	%rdx, %rax
	.loc 2 2993 26
	movq	-192(%rbp), %rdx
	salq	$3, %rdx
	leaq	-8(%rdx), %rcx
	movq	-128(%rbp), %rdx
	addq	%rcx, %rdx
	.loc 2 2993 39
	movq	(%rax), %rax
	.loc 2 2993 34
	movq	%rax, (%rdx)
	.loc 2 2993 47
	movq	-192(%rbp), %rax
	leaq	0(,%rax,8), %rdx
	movq	-128(%rbp), %rax
	addq	%rax, %rdx
	.loc 2 2993 51
	movq	-80(%rbp), %rax
	movq	%rax, (%rdx)
	.loc 2 2993 58
	movq	$0, -192(%rbp)
.L682:
	.loc 2 2991 27 discriminator 2
	addq	$1, -192(%rbp)
.L681:
	.loc 2 2991 3 discriminator 1
	movq	-192(%rbp), %rax
	cmpq	-248(%rbp), %rax
	jb	.L683
	.loc 2 2996 9
	jmp	.L684
.L710:
.LBB55:
	.loc 2 2998 44
	movq	-128(%rbp), %rax
	movq	(%rax), %rax
	.loc 2 2998 40
	leaq	0(,%rax,8), %rdx
	movq	-144(%rbp), %rax
	addq	%rdx, %rax
	.loc 2 2998 26
	movq	(%rax), %rax
	movq	%rax, -112(%rbp)
	.loc 2 3002 11
	movzbl	unique(%rip), %eax
	.loc 2 3002 10
	testb	%al, %al
	je	.L685
	.loc 2 3004 14
	cmpq	$0, -208(%rbp)
	je	.L686
	.loc 2 3004 28 discriminator 1
	movq	-112(%rbp), %rdx
	movq	-208(%rbp), %rax
	movq	%rdx, %rsi
	movq	%rax, %rdi
	call	compare
	.loc 2 3004 25 discriminator 1
	testl	%eax, %eax
	je	.L686
	.loc 2 3006 25
	movq	$0, -208(%rbp)
	.loc 2 3007 15
	movq	-264(%rbp), %rdx
	movq	-256(%rbp), %rcx
	leaq	-64(%rbp), %rax
	movq	%rcx, %rsi
	movq	%rax, %rdi
	call	write_line
.L686:
	.loc 2 3009 14
	cmpq	$0, -208(%rbp)
	jne	.L687
	.loc 2 3011 25
	leaq	-64(%rbp), %rax
	movq	%rax, -208(%rbp)
	.loc 2 3012 39
	movq	-112(%rbp), %rax
	movq	8(%rax), %rax
	.loc 2 3012 18
	cmpq	%rax, -200(%rbp)
	jnb	.L688
.L691:
	.loc 2 3015 24
	cmpq	$0, -200(%rbp)
	jne	.L689
	.loc 2 3017 35
	movq	-112(%rbp), %rax
	movq	8(%rax), %rax
	movq	%rax, -200(%rbp)
	.loc 2 3018 25
	jmp	.L690
.L689:
	.loc 2 3020 37
	salq	-200(%rbp)
	.loc 2 3020 53
	movq	-112(%rbp), %rax
	movq	8(%rax), %rax
	.loc 2 3020 19
	cmpq	%rax, -200(%rbp)
	jb	.L691
.L690:
	.loc 2 3022 30
	movq	-64(%rbp), %rax
	.loc 2 3022 19
	movq	%rax, %rdi
	call	free@PLT
	.loc 2 3023 32
	movq	-200(%rbp), %rax
	movq	%rax, %rdi
	call	xmalloc@PLT
	.loc 2 3023 30
	movq	%rax, -64(%rbp)
.L688:
	.loc 2 3025 38
	movq	-112(%rbp), %rax
	movq	8(%rax), %rax
	.loc 2 3025 28
	movq	%rax, -56(%rbp)
	.loc 2 3026 15
	movq	-56(%rbp), %rdx
	.loc 2 3026 43
	movq	-112(%rbp), %rax
	movq	(%rax), %rcx
	.loc 2 3026 28
	movq	-64(%rbp), %rax
	.loc 2 3026 15
	movq	%rcx, %rsi
	movq	%rax, %rdi
	call	memcpy@PLT
	.loc 2 3027 18
	cmpq	$0, -120(%rbp)
	je	.L687
	.loc 2 3030 26
	movq	-64(%rbp), %rdx
	.loc 2 3030 43
	movq	-112(%rbp), %rax
	movq	16(%rax), %rcx
	.loc 2 3030 62
	movq	-112(%rbp), %rax
	movq	(%rax), %rax
	.loc 2 3030 52
	subq	%rax, %rcx
	movq	%rcx, %rax
	.loc 2 3030 32
	addq	%rdx, %rax
	.loc 2 3029 32
	movq	%rax, -48(%rbp)
	.loc 2 3032 26
	movq	-64(%rbp), %rdx
	.loc 2 3032 43
	movq	-112(%rbp), %rax
	movq	24(%rax), %rcx
	.loc 2 3032 62
	movq	-112(%rbp), %rax
	movq	(%rax), %rax
	.loc 2 3032 52
	subq	%rax, %rcx
	movq	%rcx, %rax
	.loc 2 3032 32
	addq	%rdx, %rax
	.loc 2 3031 32
	movq	%rax, -40(%rbp)
	jmp	.L687
.L685:
	.loc 2 3037 9
	movq	-264(%rbp), %rdx
	movq	-256(%rbp), %rcx
	movq	-112(%rbp), %rax
	movq	%rcx, %rsi
	movq	%rax, %rdi
	call	write_line
.L687:
	.loc 2 3040 19
	movq	-128(%rbp), %rax
	movq	(%rax), %rax
	.loc 2 3040 15
	leaq	0(,%rax,8), %rdx
	movq	-136(%rbp), %rax
	addq	%rdx, %rax
	movq	(%rax), %rax
	.loc 2 3040 10
	cmpq	%rax, -112(%rbp)
	jbe	.L692
	.loc 2 3041 16
	movq	-128(%rbp), %rax
	movq	(%rax), %rax
	.loc 2 3041 12
	leaq	0(,%rax,8), %rdx
	movq	-144(%rbp), %rax
	addq	%rdx, %rax
	.loc 2 3041 32
	movq	-112(%rbp), %rdx
	subq	$32, %rdx
	.loc 2 3041 21
	movq	%rdx, (%rax)
	jmp	.L693
.L692:
	.loc 2 3044 63
	movq	-128(%rbp), %rax
	movq	(%rax), %rax
	.loc 2 3044 59
	salq	$4, %rax
	movq	%rax, %rdx
	movq	-232(%rbp), %rax
	addq	%rdx, %rax
	.loc 2 3044 15
	movq	(%rax), %rsi
	.loc 2 3044 48
	movq	-128(%rbp), %rax
	movq	(%rax), %rax
	.loc 2 3044 44
	leaq	0(,%rax,8), %rdx
	movq	-272(%rbp), %rax
	addq	%rdx, %rax
	.loc 2 3044 15
	movq	(%rax), %rcx
	.loc 2 3044 35
	movq	-128(%rbp), %rax
	movq	(%rax), %rdx
	.loc 2 3044 31
	movq	%rdx, %rax
	salq	$3, %rax
	subq	%rdx, %rax
	salq	$3, %rax
	movq	%rax, %rdx
	.loc 2 3044 15
	movq	-152(%rbp), %rax
	addq	%rdx, %rax
	movq	%rsi, %rdx
	movq	%rcx, %rsi
	movq	%rax, %rdi
	call	fillbuf
	.loc 2 3044 14
	testb	%al, %al
	je	.L694
.LBB56:
	.loc 2 3046 71
	movq	-128(%rbp), %rax
	movq	(%rax), %rdx
	.loc 2 3046 67
	movq	%rdx, %rax
	salq	$3, %rax
	subq	%rdx, %rax
	salq	$3, %rax
	movq	%rax, %rdx
	.loc 2 3046 60
	movq	-152(%rbp), %rax
	addq	%rdx, %rax
	.loc 2 3046 44
	movq	%rax, %rdi
	call	buffer_linelim
	movq	%rax, -104(%rbp)
	.loc 2 3047 22
	movq	-128(%rbp), %rax
	movq	(%rax), %rax
	.loc 2 3047 18
	leaq	0(,%rax,8), %rdx
	movq	-144(%rbp), %rax
	addq	%rdx, %rax
	.loc 2 3047 37
	movq	-104(%rbp), %rdx
	subq	$32, %rdx
	.loc 2 3047 27
	movq	%rdx, (%rax)
	.loc 2 3048 50
	movq	-128(%rbp), %rax
	movq	(%rax), %rdx
	.loc 2 3048 46
	movq	%rdx, %rax
	salq	$3, %rax
	subq	%rdx, %rax
	salq	$3, %rax
	movq	%rax, %rdx
	movq	-152(%rbp), %rax
	addq	%rdx, %rax
	.loc 2 3048 54
	movq	16(%rax), %rax
	.loc 2 3048 38
	salq	$5, %rax
	negq	%rax
	movq	%rax, %rcx
	.loc 2 3048 23
	movq	-128(%rbp), %rax
	movq	(%rax), %rax
	.loc 2 3048 19
	leaq	0(,%rax,8), %rdx
	movq	-136(%rbp), %rax
	addq	%rdx, %rax
	.loc 2 3048 38
	movq	-104(%rbp), %rdx
	addq	%rcx, %rdx
	.loc 2 3048 28
	movq	%rdx, (%rax)
.LBE56:
	jmp	.L693
.L694:
	.loc 2 3053 22
	movq	$1, -192(%rbp)
	.loc 2 3053 15
	jmp	.L695
.L697:
	.loc 2 3054 24
	movq	-192(%rbp), %rax
	leaq	0(,%rax,8), %rdx
	movq	-128(%rbp), %rax
	addq	%rdx, %rax
	movq	(%rax), %rdx
	.loc 2 3054 33
	movq	-128(%rbp), %rax
	movq	(%rax), %rax
	.loc 2 3054 20
	cmpq	%rax, %rdx
	jbe	.L696
	.loc 2 3055 24
	movq	-192(%rbp), %rax
	leaq	0(,%rax,8), %rdx
	movq	-128(%rbp), %rax
	addq	%rdx, %rax
	movq	(%rax), %rdx
	.loc 2 3055 19
	subq	$1, %rdx
	movq	%rdx, (%rax)
.L696:
	.loc 2 3053 39 discriminator 2
	addq	$1, -192(%rbp)
.L695:
	.loc 2 3053 15 discriminator 1
	movq	-192(%rbp), %rax
	cmpq	-248(%rbp), %rax
	jb	.L697
	.loc 2 3056 15
	subq	$1, -248(%rbp)
	.loc 2 3057 46
	movq	-128(%rbp), %rax
	movq	(%rax), %rax
	.loc 2 3057 42
	salq	$4, %rax
	movq	%rax, %rdx
	movq	-232(%rbp), %rax
	addq	%rdx, %rax
	.loc 2 3057 15
	movq	(%rax), %rdx
	.loc 2 3057 31
	movq	-128(%rbp), %rax
	movq	(%rax), %rax
	.loc 2 3057 27
	leaq	0(,%rax,8), %rcx
	movq	-272(%rbp), %rax
	addq	%rcx, %rax
	.loc 2 3057 15
	movq	(%rax), %rax
	movq	%rdx, %rsi
	movq	%rax, %rdi
	call	xfclose
	.loc 2 3058 22
	movq	-128(%rbp), %rax
	movq	(%rax), %rax
	.loc 2 3058 18
	cmpq	%rax, -240(%rbp)
	jbe	.L698
	.loc 2 3060 25
	subq	$1, -240(%rbp)
	.loc 2 3061 37
	movq	-128(%rbp), %rax
	movq	(%rax), %rax
	.loc 2 3061 33
	salq	$4, %rax
	movq	%rax, %rdx
	movq	-232(%rbp), %rax
	addq	%rdx, %rax
	.loc 2 3061 19
	movq	(%rax), %rax
	movq	%rax, %rdi
	call	zaptemp
.L698:
	.loc 2 3063 31
	movq	-128(%rbp), %rax
	movq	(%rax), %rdx
	.loc 2 3063 27
	movq	%rdx, %rax
	salq	$3, %rax
	subq	%rdx, %rax
	salq	$3, %rax
	movq	%rax, %rdx
	movq	-152(%rbp), %rax
	addq	%rdx, %rax
	.loc 2 3063 35
	movq	(%rax), %rax
	.loc 2 3063 15
	movq	%rax, %rdi
	call	free@PLT
	.loc 2 3064 22
	movq	-128(%rbp), %rax
	movq	(%rax), %rax
	movq	%rax, -192(%rbp)
	.loc 2 3064 15
	jmp	.L699
.L700:
	.loc 2 3066 31 discriminator 3
	movq	-192(%rbp), %rax
	addq	$1, %rax
	leaq	0(,%rax,8), %rdx
	movq	-272(%rbp), %rax
	addq	%rdx, %rax
	.loc 2 3066 22 discriminator 3
	movq	-192(%rbp), %rdx
	leaq	0(,%rdx,8), %rcx
	movq	-272(%rbp), %rdx
	addq	%rcx, %rdx
	.loc 2 3066 31 discriminator 3
	movq	(%rax), %rax
	.loc 2 3066 26 discriminator 3
	movq	%rax, (%rdx)
	.loc 2 3067 35 discriminator 3
	movq	-192(%rbp), %rax
	addq	$1, %rax
	salq	$4, %rax
	movq	%rax, %rdx
	movq	-232(%rbp), %rax
	addq	%rdx, %rax
	.loc 2 3067 24 discriminator 3
	movq	-192(%rbp), %rdx
	movq	%rdx, %rcx
	salq	$4, %rcx
	movq	-232(%rbp), %rdx
	addq	%rdx, %rcx
	.loc 2 3067 28 discriminator 3
	movq	8(%rax), %rdx
	movq	(%rax), %rax
	movq	%rax, (%rcx)
	movq	%rdx, 8(%rcx)
	.loc 2 3068 37 discriminator 3
	movq	-192(%rbp), %rax
	leaq	1(%rax), %rdx
	movq	%rdx, %rax
	salq	$3, %rax
	subq	%rdx, %rax
	salq	$3, %rax
	movq	%rax, %rdx
	movq	-152(%rbp), %rax
	addq	%rax, %rdx
	.loc 2 3068 25 discriminator 3
	movq	-192(%rbp), %rcx
	movq	%rcx, %rax
	salq	$3, %rax
	subq	%rcx, %rax
	salq	$3, %rax
	movq	%rax, %rcx
	movq	-152(%rbp), %rax
	addq	%rcx, %rax
	.loc 2 3068 29 discriminator 3
	movq	(%rdx), %rcx
	movq	8(%rdx), %rbx
	movq	%rcx, (%rax)
	movq	%rbx, 8(%rax)
	movq	16(%rdx), %rcx
	movq	24(%rdx), %rbx
	movq	%rcx, 16(%rax)
	movq	%rbx, 24(%rax)
	movq	32(%rdx), %rcx
	movq	40(%rdx), %rbx
	movq	%rcx, 32(%rax)
	movq	%rbx, 40(%rax)
	movq	48(%rdx), %rdx
	movq	%rdx, 48(%rax)
	.loc 2 3069 31 discriminator 3
	movq	-192(%rbp), %rax
	addq	$1, %rax
	leaq	0(,%rax,8), %rdx
	movq	-144(%rbp), %rax
	addq	%rdx, %rax
	.loc 2 3069 22 discriminator 3
	movq	-192(%rbp), %rdx
	leaq	0(,%rdx,8), %rcx
	movq	-144(%rbp), %rdx
	addq	%rcx, %rdx
	.loc 2 3069 31 discriminator 3
	movq	(%rax), %rax
	.loc 2 3069 26 discriminator 3
	movq	%rax, (%rdx)
	.loc 2 3070 33 discriminator 3
	movq	-192(%rbp), %rax
	addq	$1, %rax
	leaq	0(,%rax,8), %rdx
	movq	-136(%rbp), %rax
	addq	%rdx, %rax
	.loc 2 3070 23 discriminator 3
	movq	-192(%rbp), %rdx
	leaq	0(,%rdx,8), %rcx
	movq	-136(%rbp), %rdx
	addq	%rcx, %rdx
	.loc 2 3070 33 discriminator 3
	movq	(%rax), %rax
	.loc 2 3070 27 discriminator 3
	movq	%rax, (%rdx)
	.loc 2 3064 44 discriminator 3
	addq	$1, -192(%rbp)
.L699:
	.loc 2 3064 15 discriminator 1
	movq	-192(%rbp), %rax
	cmpq	-248(%rbp), %rax
	jb	.L700
	.loc 2 3072 22
	movq	$0, -192(%rbp)
	.loc 2 3072 15
	jmp	.L701
.L702:
	.loc 2 3073 29 discriminator 3
	movq	-192(%rbp), %rax
	addq	$1, %rax
	leaq	0(,%rax,8), %rdx
	movq	-128(%rbp), %rax
	addq	%rdx, %rax
	.loc 2 3073 20 discriminator 3
	movq	-192(%rbp), %rdx
	leaq	0(,%rdx,8), %rcx
	movq	-128(%rbp), %rdx
	addq	%rcx, %rdx
	.loc 2 3073 29 discriminator 3
	movq	(%rax), %rax
	.loc 2 3073 24 discriminator 3
	movq	%rax, (%rdx)
	.loc 2 3072 39 discriminator 3
	addq	$1, -192(%rbp)
.L701:
	.loc 2 3072 15 discriminator 1
	movq	-192(%rbp), %rax
	cmpq	-248(%rbp), %rax
	jb	.L702
	.loc 2 3074 15
	jmp	.L684
.L693:
.LBB57:
	.loc 2 3083 16
	movq	$1, -176(%rbp)
	.loc 2 3084 16
	movq	-248(%rbp), %rax
	movq	%rax, -168(%rbp)
	.loc 2 3085 16
	movq	-176(%rbp), %rax
	movq	%rax, -160(%rbp)
	.loc 2 3086 16
	movq	-128(%rbp), %rax
	movq	(%rax), %rax
	movq	%rax, -96(%rbp)
	.loc 2 3089 15
	jmp	.L703
.L707:
.LBB58:
	.loc 2 3091 50
	movq	-160(%rbp), %rax
	leaq	0(,%rax,8), %rdx
	movq	-128(%rbp), %rax
	addq	%rdx, %rax
	movq	(%rax), %rax
	.loc 2 3091 46
	leaq	0(,%rax,8), %rdx
	movq	-144(%rbp), %rax
	addq	%rdx, %rax
	.loc 2 3091 23
	movq	(%rax), %rdx
	.loc 2 3091 35
	movq	-96(%rbp), %rax
	leaq	0(,%rax,8), %rcx
	movq	-144(%rbp), %rax
	addq	%rcx, %rax
	.loc 2 3091 23
	movq	(%rax), %rax
	movq	%rdx, %rsi
	movq	%rax, %rdi
	call	compare
	movl	%eax, -212(%rbp)
	.loc 2 3092 16
	cmpl	$0, -212(%rbp)
	js	.L704
	.loc 2 3092 25 discriminator 1
	cmpl	$0, -212(%rbp)
	jne	.L705
	.loc 2 3092 51 discriminator 2
	movq	-160(%rbp), %rax
	leaq	0(,%rax,8), %rdx
	movq	-128(%rbp), %rax
	addq	%rdx, %rax
	movq	(%rax), %rax
	.loc 2 3092 38 discriminator 2
	cmpq	%rax, -96(%rbp)
	jnb	.L705
.L704:
	.loc 2 3093 18
	movq	-160(%rbp), %rax
	movq	%rax, -168(%rbp)
	jmp	.L706
.L705:
	.loc 2 3095 18
	movq	-160(%rbp), %rax
	addq	$1, %rax
	movq	%rax, -176(%rbp)
.L706:
	.loc 2 3096 25
	movq	-176(%rbp), %rdx
	movq	-168(%rbp), %rax
	addq	%rdx, %rax
	.loc 2 3096 19
	shrq	%rax
	movq	%rax, -160(%rbp)
.L703:
.LBE58:
	.loc 2 3089 15
	movq	-176(%rbp), %rax
	cmpq	-168(%rbp), %rax
	jb	.L707
	.loc 2 3099 32
	movq	-176(%rbp), %rax
	subq	$1, %rax
	movq	%rax, -88(%rbp)
	.loc 2 3100 16
	movq	$0, -184(%rbp)
	.loc 2 3100 9
	jmp	.L708
.L709:
	.loc 2 3101 23 discriminator 3
	movq	-184(%rbp), %rax
	addq	$1, %rax
	leaq	0(,%rax,8), %rdx
	movq	-128(%rbp), %rax
	addq	%rdx, %rax
	.loc 2 3101 14 discriminator 3
	movq	-184(%rbp), %rdx
	leaq	0(,%rdx,8), %rcx
	movq	-128(%rbp), %rdx
	addq	%rcx, %rdx
	.loc 2 3101 23 discriminator 3
	movq	(%rax), %rax
	.loc 2 3101 18 discriminator 3
	movq	%rax, (%rdx)
	.loc 2 3100 50 discriminator 3
	addq	$1, -184(%rbp)
.L708:
	.loc 2 3100 9 discriminator 1
	movq	-184(%rbp), %rax
	cmpq	-88(%rbp), %rax
	jb	.L709
	.loc 2 3102 12
	movq	-88(%rbp), %rax
	leaq	0(,%rax,8), %rdx
	movq	-128(%rbp), %rax
	addq	%rax, %rdx
	.loc 2 3102 37
	movq	-96(%rbp), %rax
	movq	%rax, (%rdx)
.L684:
.LBE57:
.LBE55:
	.loc 2 2996 9
	cmpq	$0, -248(%rbp)
	jne	.L710
	.loc 2 3106 7
	movzbl	unique(%rip), %eax
	.loc 2 3106 6
	testb	%al, %al
	je	.L711
	.loc 2 3106 14 discriminator 1
	cmpq	$0, -208(%rbp)
	je	.L711
	.loc 2 3108 7
	movq	-264(%rbp), %rdx
	movq	-256(%rbp), %rcx
	leaq	-64(%rbp), %rax
	movq	%rcx, %rsi
	movq	%rax, %rdi
	call	write_line
	.loc 2 3109 18
	movq	-64(%rbp), %rax
	.loc 2 3109 7
	movq	%rax, %rdi
	call	free@PLT
.L711:
	.loc 2 3112 3
	movq	-264(%rbp), %rdx
	movq	-256(%rbp), %rax
	movq	%rdx, %rsi
	movq	%rax, %rdi
	call	xfclose
	.loc 2 3113 3
	movq	-272(%rbp), %rax
	movq	%rax, %rdi
	call	free@PLT
	.loc 2 3114 3
	movq	-152(%rbp), %rax
	movq	%rax, %rdi
	call	free@PLT
	.loc 2 3115 3
	movq	-128(%rbp), %rax
	movq	%rax, %rdi
	call	free@PLT
	.loc 2 3116 3
	movq	-136(%rbp), %rax
	movq	%rax, %rdi
	call	free@PLT
	.loc 2 3117 3
	movq	-144(%rbp), %rax
	movq	%rax, %rdi
	call	free@PLT
	.loc 2 3118 1
	nop
	movq	-24(%rbp), %rax
	xorq	%fs:40, %rax
	je	.L712
	call	__stack_chk_fail@PLT
.L712:
	addq	$264, %rsp
	popq	%rbx
	popq	%rbp
	.cfi_def_cfa 7, 8
	ret
	.cfi_endproc
.LFE109:
	.size	mergefps, .-mergefps
	.type	mergefiles, @function
mergefiles:
.LFB110:
	.loc 2 3133 1
	.cfi_startproc
	endbr64
	pushq	%rbp
	.cfi_def_cfa_offset 16
	.cfi_offset 6, -16
	movq	%rsp, %rbp
	.cfi_def_cfa_register 6
	pushq	%rbx
	subq	$88, %rsp
	.cfi_offset 3, -24
	movq	%rdi, -56(%rbp)
	movq	%rsi, -64(%rbp)
	movq	%rdx, -72(%rbp)
	movq	%rcx, -80(%rbp)
	movq	%r8, -88(%rbp)
	.loc 2 3133 1
	movq	%fs:40, %rax
	movq	%rax, -24(%rbp)
	xorl	%eax, %eax
	.loc 2 3135 20
	leaq	-40(%rbp), %rdx
	movq	-72(%rbp), %rcx
	movq	-56(%rbp), %rax
	movq	%rcx, %rsi
	movq	%rax, %rdi
	call	open_input_files
	movq	%rax, -32(%rbp)
	.loc 2 3136 6
	movq	-32(%rbp), %rax
	cmpq	-72(%rbp), %rax
	jnb	.L714
	.loc 2 3136 24 discriminator 1
	cmpq	$1, -32(%rbp)
	ja	.L714
	.loc 2 3137 38
	movq	-32(%rbp), %rax
	salq	$4, %rax
	movq	%rax, %rdx
	movq	-56(%rbp), %rax
	addq	%rdx, %rax
	.loc 2 3137 5
	movq	(%rax), %rbx
	.loc 2 3137 15
	leaq	.LC103(%rip), %rdi
	call	gettext@PLT
	.loc 2 3137 5
	movq	%rbx, %rsi
	movq	%rax, %rdi
	call	sort_die
.L714:
	.loc 2 3138 3
	movq	-40(%rbp), %r8
	movq	-88(%rbp), %rdi
	movq	-80(%rbp), %rcx
	movq	-32(%rbp), %rdx
	movq	-64(%rbp), %rsi
	movq	-56(%rbp), %rax
	movq	%r8, %r9
	movq	%rdi, %r8
	movq	%rax, %rdi
	call	mergefps
	.loc 2 3139 10
	movq	-32(%rbp), %rax
	.loc 2 3140 1
	movq	-24(%rbp), %rbx
	xorq	%fs:40, %rbx
	je	.L716
	call	__stack_chk_fail@PLT
.L716:
	addq	$88, %rsp
	popq	%rbx
	popq	%rbp
	.cfi_def_cfa 7, 8
	ret
	.cfi_endproc
.LFE110:
	.size	mergefiles, .-mergefiles
	.type	mergelines, @function
mergelines:
.LFB111:
	.loc 2 3151 1
	.cfi_startproc
	endbr64
	pushq	%rbp
	.cfi_def_cfa_offset 16
	.cfi_offset 6, -16
	movq	%rsp, %rbp
	.cfi_def_cfa_register 6
	subq	$64, %rsp
	movq	%rdi, -40(%rbp)
	movq	%rsi, -48(%rbp)
	movq	%rdx, -56(%rbp)
	.loc 2 3152 10
	movq	-48(%rbp), %rax
	shrq	%rax
	movq	%rax, -24(%rbp)
	.loc 2 3153 10
	movq	-48(%rbp), %rax
	subq	-24(%rbp), %rax
	movq	%rax, -16(%rbp)
	.loc 2 3154 23
	movq	-24(%rbp), %rax
	salq	$5, %rax
	negq	%rax
	movq	%rax, %rdx
	.loc 2 3154 16
	movq	-40(%rbp), %rax
	addq	%rdx, %rax
	movq	%rax, -8(%rbp)
.L722:
	.loc 2 3157 29
	movq	-8(%rbp), %rax
	leaq	-32(%rax), %rdx
	.loc 2 3157 9
	movq	-56(%rbp), %rax
	subq	$32, %rax
	movq	%rdx, %rsi
	movq	%rax, %rdi
	call	compare
	.loc 2 3157 8
	testl	%eax, %eax
	jg	.L718
	.loc 2 3159 14
	subq	$32, -56(%rbp)
	subq	$32, -40(%rbp)
	movq	-40(%rbp), %rcx
	movq	-56(%rbp), %rsi
	movq	(%rsi), %rax
	movq	8(%rsi), %rdx
	movq	%rax, (%rcx)
	movq	%rdx, 8(%rcx)
	movq	16(%rsi), %rax
	movq	24(%rsi), %rdx
	movq	%rax, 16(%rcx)
	movq	%rdx, 24(%rcx)
	.loc 2 3160 12
	subq	$1, -24(%rbp)
	cmpq	$0, -24(%rbp)
	jne	.L722
	.loc 2 3164 13
	jmp	.L717
.L718:
	.loc 2 3169 14
	subq	$32, -8(%rbp)
	subq	$32, -40(%rbp)
	movq	-40(%rbp), %rcx
	movq	-8(%rbp), %rsi
	movq	(%rsi), %rax
	movq	8(%rsi), %rdx
	movq	%rax, (%rcx)
	movq	%rdx, 8(%rcx)
	movq	16(%rsi), %rax
	movq	24(%rsi), %rdx
	movq	%rax, 16(%rcx)
	movq	%rdx, 24(%rcx)
	.loc 2 3170 12
	subq	$1, -16(%rbp)
	cmpq	$0, -16(%rbp)
	jne	.L722
.L721:
	.loc 2 3173 20 discriminator 1
	subq	$32, -56(%rbp)
	subq	$32, -40(%rbp)
	movq	-40(%rbp), %rcx
	movq	-56(%rbp), %rsi
	movq	(%rsi), %rax
	movq	8(%rsi), %rdx
	movq	%rax, (%rcx)
	movq	%rdx, 8(%rcx)
	movq	16(%rsi), %rax
	movq	24(%rsi), %rdx
	movq	%rax, 16(%rcx)
	movq	%rdx, 24(%rcx)
	.loc 2 3174 13 discriminator 1
	subq	$1, -24(%rbp)
	cmpq	$0, -24(%rbp)
	jne	.L721
.L717:
	.loc 2 3179 1
	leave
	.cfi_def_cfa 7, 8
	ret
	.cfi_endproc
.LFE111:
	.size	mergelines, .-mergelines
	.type	sequential_sort, @function
sequential_sort:
.LFB112:
	.loc 2 3198 1
	.cfi_startproc
	endbr64
	pushq	%rbp
	.cfi_def_cfa_offset 16
	.cfi_offset 6, -16
	movq	%rsp, %rbp
	.cfi_def_cfa_register 6
	subq	$96, %rsp
	movq	%rdi, -72(%rbp)
	movq	%rsi, -80(%rbp)
	movq	%rdx, -88(%rbp)
	movl	%ecx, %eax
	movb	%al, -92(%rbp)
	.loc 2 3199 6
	cmpq	$2, -80(%rbp)
	jne	.L724
.LBB59:
	.loc 2 3204 44
	movq	-72(%rbp), %rax
	leaq	-64(%rax), %rdx
	.loc 2 3204 32
	movq	-72(%rbp), %rax
	subq	$32, %rax
	.loc 2 3204 23
	movq	%rdx, %rsi
	movq	%rax, %rdi
	call	compare
	.loc 2 3204 21
	testl	%eax, %eax
	setg	%al
	.loc 2 3204 11
	movzbl	%al, %eax
	movl	%eax, -52(%rbp)
	.loc 2 3205 10
	cmpb	$0, -92(%rbp)
	je	.L725
	.loc 2 3207 31
	movl	-52(%rbp), %eax
	notl	%eax
	cltq
	.loc 2 3207 27
	salq	$5, %rax
	movq	%rax, %rdx
	movq	-72(%rbp), %rax
	leaq	(%rdx,%rax), %rsi
	.loc 2 3207 15
	movq	-88(%rbp), %rax
	leaq	-32(%rax), %rcx
	.loc 2 3207 20
	movq	(%rsi), %rax
	movq	8(%rsi), %rdx
	movq	%rax, (%rcx)
	movq	%rdx, 8(%rcx)
	movq	16(%rsi), %rax
	movq	24(%rsi), %rdx
	movq	%rax, 16(%rcx)
	movq	%rdx, 24(%rcx)
	.loc 2 3208 31
	movl	-52(%rbp), %eax
	subl	$2, %eax
	cltq
	.loc 2 3208 27
	salq	$5, %rax
	movq	%rax, %rdx
	movq	-72(%rbp), %rax
	leaq	(%rdx,%rax), %rsi
	.loc 2 3208 15
	movq	-88(%rbp), %rax
	leaq	-64(%rax), %rcx
	.loc 2 3208 20
	movq	(%rsi), %rax
	movq	8(%rsi), %rdx
	movq	%rax, (%rcx)
	movq	%rdx, 8(%rcx)
	movq	16(%rsi), %rax
	movq	24(%rsi), %rdx
	movq	%rax, 16(%rcx)
	movq	%rdx, 24(%rcx)
.LBE59:
	.loc 2 3244 1
	jmp	.L733
.L725:
.LBB60:
	.loc 2 3210 15
	cmpl	$0, -52(%rbp)
	je	.L733
	.loc 2 3212 15
	movq	-88(%rbp), %rax
	leaq	-32(%rax), %rsi
	.loc 2 3212 20
	movq	-72(%rbp), %rcx
	movq	-32(%rcx), %rax
	movq	-24(%rcx), %rdx
	movq	%rax, (%rsi)
	movq	%rdx, 8(%rsi)
	movq	-16(%rcx), %rax
	movq	-8(%rcx), %rdx
	movq	%rax, 16(%rsi)
	movq	%rdx, 24(%rsi)
	.loc 2 3213 16
	movq	-72(%rbp), %rax
	leaq	-32(%rax), %rsi
	.loc 2 3213 21
	movq	-72(%rbp), %rcx
	movq	-64(%rcx), %rax
	movq	-56(%rcx), %rdx
	movq	%rax, (%rsi)
	movq	%rdx, 8(%rsi)
	movq	-48(%rcx), %rax
	movq	-40(%rcx), %rdx
	movq	%rax, 16(%rsi)
	movq	%rdx, 24(%rsi)
	.loc 2 3214 16
	movq	-72(%rbp), %rax
	leaq	-64(%rax), %rsi
	.loc 2 3214 21
	movq	-88(%rbp), %rcx
	movq	-32(%rcx), %rax
	movq	-24(%rcx), %rdx
	movq	%rax, (%rsi)
	movq	%rdx, 8(%rsi)
	movq	-16(%rcx), %rax
	movq	-8(%rcx), %rdx
	movq	%rax, 16(%rsi)
	movq	%rdx, 24(%rsi)
.LBE60:
	.loc 2 3244 1
	jmp	.L733
.L724:
.LBB61:
	.loc 2 3219 14
	movq	-80(%rbp), %rax
	shrq	%rax
	movq	%rax, -32(%rbp)
	.loc 2 3220 14
	movq	-80(%rbp), %rax
	subq	-32(%rbp), %rax
	movq	%rax, -24(%rbp)
	.loc 2 3221 20
	movq	-72(%rbp), %rax
	movq	%rax, -16(%rbp)
	.loc 2 3222 31
	movq	-32(%rbp), %rax
	salq	$5, %rax
	negq	%rax
	movq	%rax, %rdx
	.loc 2 3222 20
	movq	-72(%rbp), %rax
	addq	%rdx, %rax
	movq	%rax, -8(%rbp)
	.loc 2 3224 7
	movzbl	-92(%rbp), %edx
	.loc 2 3224 38
	cmpb	$0, -92(%rbp)
	je	.L727
	.loc 2 3224 38 is_stmt 0 discriminator 1
	movq	-32(%rbp), %rax
	salq	$5, %rax
	negq	%rax
	movq	%rax, %rcx
	jmp	.L728
.L727:
	.loc 2 3224 38 discriminator 2
	movl	$0, %ecx
.L728:
	.loc 2 3224 7 is_stmt 1 discriminator 4
	movq	-88(%rbp), %rax
	leaq	(%rcx,%rax), %rdi
	movq	-24(%rbp), %rsi
	movq	-8(%rbp), %rax
	movl	%edx, %ecx
	movq	%rdi, %rdx
	movq	%rax, %rdi
	call	sequential_sort
	.loc 2 3225 10 discriminator 4
	cmpq	$1, -32(%rbp)
	jbe	.L729
	.loc 2 3226 9
	movzbl	-92(%rbp), %eax
	testl	%eax, %eax
	setne	%al
	xorl	$1, %eax
	movzbl	%al, %eax
	.loc 2 3226 41
	andl	$1, %eax
	.loc 2 3226 9
	movzbl	%al, %ecx
	movq	-88(%rbp), %rdx
	movq	-32(%rbp), %rsi
	movq	-16(%rbp), %rax
	movq	%rax, %rdi
	call	sequential_sort
	jmp	.L730
.L729:
	.loc 2 3227 16
	movzbl	-92(%rbp), %eax
	xorl	$1, %eax
	.loc 2 3227 15
	testb	%al, %al
	je	.L730
	.loc 2 3228 13
	movq	-88(%rbp), %rax
	leaq	-32(%rax), %rsi
	.loc 2 3228 18
	movq	-16(%rbp), %rcx
	movq	-32(%rcx), %rax
	movq	-24(%rcx), %rdx
	movq	%rax, (%rsi)
	movq	%rdx, 8(%rsi)
	movq	-16(%rcx), %rax
	movq	-8(%rcx), %rdx
	movq	%rax, 16(%rsi)
	movq	%rdx, 24(%rsi)
.L730:
	.loc 2 3232 10
	cmpb	$0, -92(%rbp)
	je	.L731
	.loc 2 3234 16
	movq	-88(%rbp), %rax
	movq	%rax, -48(%rbp)
	.loc 2 3235 21
	movq	-72(%rbp), %rax
	movq	%rax, -40(%rbp)
	jmp	.L732
.L731:
	.loc 2 3239 16
	movq	-72(%rbp), %rax
	movq	%rax, -48(%rbp)
	.loc 2 3240 21
	movq	-88(%rbp), %rax
	movq	%rax, -40(%rbp)
.L732:
	.loc 2 3242 7
	movq	-40(%rbp), %rdx
	movq	-80(%rbp), %rcx
	movq	-48(%rbp), %rax
	movq	%rcx, %rsi
	movq	%rax, %rdi
	call	mergelines
.L733:
.LBE61:
	.loc 2 3244 1
	nop
	leave
	.cfi_def_cfa 7, 8
	ret
	.cfi_endproc
.LFE112:
	.size	sequential_sort, .-sequential_sort
	.type	merge_tree_init, @function
merge_tree_init:
.LFB113:
	.loc 2 3255 1
	.cfi_startproc
	endbr64
	pushq	%rbp
	.cfi_def_cfa_offset 16
	.cfi_offset 6, -16
	movq	%rsp, %rbp
	.cfi_def_cfa_register 6
	subq	$48, %rsp
	movq	%rdi, -24(%rbp)
	movq	%rsi, -32(%rbp)
	movq	%rdx, -40(%rbp)
	.loc 2 3256 35
	movq	-24(%rbp), %rax
	salq	$8, %rax
	movq	%rax, %rdi
	call	xmalloc@PLT
	movq	%rax, -16(%rbp)
	.loc 2 3258 22
	movq	-16(%rbp), %rax
	movq	%rax, -8(%rbp)
	.loc 2 3259 53
	movq	-8(%rbp), %rax
	movq	$0, 24(%rax)
	.loc 2 3259 44
	movq	-8(%rbp), %rax
	movq	24(%rax), %rdx
	.loc 2 3259 38
	movq	-8(%rbp), %rax
	movq	%rdx, 16(%rax)
	.loc 2 3259 29
	movq	-8(%rbp), %rax
	movq	16(%rax), %rdx
	.loc 2 3259 23
	movq	-8(%rbp), %rax
	movq	%rdx, 8(%rax)
	.loc 2 3259 18
	movq	-8(%rbp), %rax
	movq	8(%rax), %rdx
	.loc 2 3259 12
	movq	-8(%rbp), %rax
	movq	%rdx, (%rax)
	.loc 2 3260 14
	movq	-8(%rbp), %rax
	movq	$0, 32(%rax)
	.loc 2 3261 25
	movq	-8(%rbp), %rax
	movq	-32(%rbp), %rdx
	movq	%rdx, 48(%rax)
	.loc 2 3261 19
	movq	-8(%rbp), %rax
	movq	48(%rax), %rdx
	.loc 2 3261 13
	movq	-8(%rbp), %rax
	movq	%rdx, 40(%rax)
	.loc 2 3262 16
	movq	-8(%rbp), %rax
	movq	$0, 56(%rax)
	.loc 2 3263 15
	movq	-8(%rbp), %rax
	movl	$0, 80(%rax)
	.loc 2 3264 16
	movq	-8(%rbp), %rax
	movb	$0, 84(%rax)
	.loc 2 3265 3
	movq	-8(%rbp), %rax
	addq	$88, %rax
	movl	$0, %esi
	movq	%rax, %rdi
	call	pthread_mutex_init@PLT
	.loc 2 3267 3
	movq	-8(%rbp), %rax
	leaq	128(%rax), %rsi
	movq	-32(%rbp), %rdi
	movq	-24(%rbp), %rcx
	movq	-40(%rbp), %rdx
	movq	-8(%rbp), %rax
	movl	$0, %r9d
	movq	%rdi, %r8
	movq	%rax, %rdi
	call	init_node
	.loc 2 3268 10
	movq	-16(%rbp), %rax
	.loc 2 3269 1
	leave
	.cfi_def_cfa 7, 8
	ret
	.cfi_endproc
.LFE113:
	.size	merge_tree_init, .-merge_tree_init
	.type	merge_tree_destroy, @function
merge_tree_destroy:
.LFB114:
	.loc 2 3274 1
	.cfi_startproc
	endbr64
	pushq	%rbp
	.cfi_def_cfa_offset 16
	.cfi_offset 6, -16
	movq	%rsp, %rbp
	.cfi_def_cfa_register 6
	subq	$32, %rsp
	movq	%rdi, -24(%rbp)
	movq	%rsi, -32(%rbp)
	.loc 2 3275 10
	movq	-24(%rbp), %rax
	addq	%rax, %rax
	movq	%rax, -16(%rbp)
	.loc 2 3276 22
	movq	-32(%rbp), %rax
	movq	%rax, -8(%rbp)
	.loc 2 3278 9
	jmp	.L737
.L738:
	.loc 2 3280 7
	movq	-8(%rbp), %rax
	addq	$88, %rax
	movq	%rax, %rdi
	call	pthread_mutex_destroy@PLT
	.loc 2 3281 11
	subq	$-128, -8(%rbp)
.L737:
	.loc 2 3278 17
	movq	-16(%rbp), %rax
	leaq	-1(%rax), %rdx
	movq	%rdx, -16(%rbp)
	.loc 2 3278 9
	testq	%rax, %rax
	jne	.L738
	.loc 2 3284 3
	movq	-32(%rbp), %rax
	movq	%rax, %rdi
	call	free@PLT
	.loc 2 3285 1
	nop
	leave
	.cfi_def_cfa 7, 8
	ret
	.cfi_endproc
.LFE114:
	.size	merge_tree_destroy, .-merge_tree_destroy
	.type	init_node, @function
init_node:
.LFB115:
	.loc 2 3299 1
	.cfi_startproc
	endbr64
	pushq	%rbp
	.cfi_def_cfa_offset 16
	.cfi_offset 6, -16
	movq	%rsp, %rbp
	.cfi_def_cfa_register 6
	addq	$-128, %rsp
	movq	%rdi, -88(%rbp)
	movq	%rsi, -96(%rbp)
	movq	%rdx, -104(%rbp)
	movq	%rcx, -112(%rbp)
	movq	%r8, -120(%rbp)
	movl	%r9d, %eax
	movb	%al, -124(%rbp)
	.loc 2 3300 46
	cmpb	$0, -124(%rbp)
	je	.L740
	.loc 2 3300 46 is_stmt 0 discriminator 1
	movq	-88(%rbp), %rax
	movq	40(%rax), %rax
	jmp	.L741
.L740:
	.loc 2 3300 46 discriminator 2
	movq	-88(%rbp), %rax
	movq	48(%rax), %rax
.L741:
	.loc 2 3300 10 is_stmt 1 discriminator 4
	movq	%rax, -72(%rbp)
	.loc 2 3301 10 discriminator 4
	movq	-72(%rbp), %rax
	shrq	%rax
	movq	%rax, -64(%rbp)
	.loc 2 3302 10 discriminator 4
	movq	-72(%rbp), %rax
	subq	-64(%rbp), %rax
	movq	%rax, -56(%rbp)
	.loc 2 3303 26 discriminator 4
	movq	-120(%rbp), %rax
	salq	$5, %rax
	negq	%rax
	movq	%rax, %rdx
	.loc 2 3303 16 discriminator 4
	movq	-104(%rbp), %rax
	addq	%rdx, %rax
	movq	%rax, -48(%rbp)
	.loc 2 3304 24 discriminator 4
	movq	-64(%rbp), %rax
	salq	$5, %rax
	negq	%rax
	movq	%rax, %rdx
	.loc 2 3304 16 discriminator 4
	movq	-48(%rbp), %rax
	addq	%rdx, %rax
	movq	%rax, -40(%rbp)
	.loc 2 3305 61 discriminator 4
	cmpb	$0, -124(%rbp)
	je	.L742
	.loc 2 3305 61 is_stmt 0 discriminator 1
	movq	-88(%rbp), %rax
	addq	$16, %rax
	jmp	.L743
.L742:
	.loc 2 3305 61 discriminator 2
	movq	-88(%rbp), %rax
	addq	$24, %rax
.L743:
	.loc 2 3305 17 is_stmt 1 discriminator 4
	movq	%rax, -32(%rbp)
	.loc 2 3307 38 discriminator 4
	movq	-96(%rbp), %rax
	leaq	128(%rax), %rdx
	movq	%rdx, -96(%rbp)
	.loc 2 3307 22 discriminator 4
	movq	%rax, -24(%rbp)
	.loc 2 3308 27 discriminator 4
	movq	-24(%rbp), %rax
	movq	-48(%rbp), %rdx
	movq	%rdx, 16(%rax)
	.loc 2 3308 18 discriminator 4
	movq	-24(%rbp), %rax
	movq	16(%rax), %rdx
	.loc 2 3308 12 discriminator 4
	movq	-24(%rbp), %rax
	movq	%rdx, (%rax)
	.loc 2 3309 27 discriminator 4
	movq	-24(%rbp), %rax
	movq	-40(%rbp), %rdx
	movq	%rdx, 24(%rax)
	.loc 2 3309 18 discriminator 4
	movq	-24(%rbp), %rax
	movq	24(%rax), %rdx
	.loc 2 3309 12 discriminator 4
	movq	-24(%rbp), %rax
	movq	%rdx, 8(%rax)
	.loc 2 3310 14 discriminator 4
	movq	-24(%rbp), %rax
	movq	-32(%rbp), %rdx
	movq	%rdx, 32(%rax)
	.loc 2 3311 13 discriminator 4
	movq	-24(%rbp), %rax
	movq	-64(%rbp), %rdx
	movq	%rdx, 40(%rax)
	.loc 2 3312 13 discriminator 4
	movq	-24(%rbp), %rax
	movq	-56(%rbp), %rdx
	movq	%rdx, 48(%rax)
	.loc 2 3313 16 discriminator 4
	movq	-24(%rbp), %rax
	movq	-88(%rbp), %rdx
	movq	%rdx, 56(%rax)
	.loc 2 3314 23 discriminator 4
	movq	-88(%rbp), %rax
	movl	80(%rax), %eax
	.loc 2 3314 31 discriminator 4
	leal	1(%rax), %edx
	.loc 2 3314 15 discriminator 4
	movq	-24(%rbp), %rax
	movl	%edx, 80(%rax)
	.loc 2 3315 16 discriminator 4
	movq	-24(%rbp), %rax
	movb	$0, 84(%rax)
	.loc 2 3316 3 discriminator 4
	movq	-24(%rbp), %rax
	addq	$88, %rax
	movl	$0, %esi
	movq	%rax, %rdi
	call	pthread_mutex_init@PLT
	.loc 2 3318 6 discriminator 4
	cmpq	$1, -112(%rbp)
	jbe	.L744
.LBB62:
	.loc 2 3320 14
	movq	-112(%rbp), %rax
	shrq	%rax
	movq	%rax, -16(%rbp)
	.loc 2 3321 14
	movq	-112(%rbp), %rax
	subq	-16(%rbp), %rax
	movq	%rax, -8(%rbp)
	.loc 2 3322 22
	movq	-24(%rbp), %rax
	movq	-96(%rbp), %rdx
	movq	%rdx, 64(%rax)
	.loc 2 3323 19
	movq	-120(%rbp), %rdi
	movq	-16(%rbp), %rcx
	movq	-48(%rbp), %rdx
	movq	-96(%rbp), %rsi
	movq	-24(%rbp), %rax
	movl	$1, %r9d
	movq	%rdi, %r8
	movq	%rax, %rdi
	call	init_node
	movq	%rax, -96(%rbp)
	.loc 2 3325 22
	movq	-24(%rbp), %rax
	movq	-96(%rbp), %rdx
	movq	%rdx, 72(%rax)
	.loc 2 3326 19
	movq	-120(%rbp), %rdi
	movq	-8(%rbp), %rcx
	movq	-40(%rbp), %rdx
	movq	-96(%rbp), %rsi
	movq	-24(%rbp), %rax
	movl	$0, %r9d
	movq	%rdi, %r8
	movq	%rax, %rdi
	call	init_node
	movq	%rax, -96(%rbp)
.LBE62:
	jmp	.L745
.L744:
	.loc 2 3331 22
	movq	-24(%rbp), %rax
	movq	$0, 64(%rax)
	.loc 2 3332 22
	movq	-24(%rbp), %rax
	movq	$0, 72(%rax)
.L745:
	.loc 2 3334 10
	movq	-96(%rbp), %rax
	.loc 2 3335 1
	leave
	.cfi_def_cfa 7, 8
	ret
	.cfi_endproc
.LFE115:
	.size	init_node, .-init_node
	.type	compare_nodes, @function
compare_nodes:
.LFB116:
	.loc 2 3342 1
	.cfi_startproc
	endbr64
	pushq	%rbp
	.cfi_def_cfa_offset 16
	.cfi_offset 6, -16
	movq	%rsp, %rbp
	.cfi_def_cfa_register 6
	movq	%rdi, -24(%rbp)
	movq	%rsi, -32(%rbp)
	.loc 2 3343 28
	movq	-24(%rbp), %rax
	movq	%rax, -16(%rbp)
	.loc 2 3344 28
	movq	-32(%rbp), %rax
	movq	%rax, -8(%rbp)
	.loc 2 3345 12
	movq	-16(%rbp), %rax
	movl	80(%rax), %edx
	.loc 2 3345 28
	movq	-8(%rbp), %rax
	movl	80(%rax), %eax
	.loc 2 3345 6
	cmpl	%eax, %edx
	jne	.L748
	.loc 2 3346 20
	movq	-16(%rbp), %rax
	movq	40(%rax), %rdx
	.loc 2 3346 33
	movq	-16(%rbp), %rax
	movq	48(%rax), %rax
	.loc 2 3346 26
	leaq	(%rdx,%rax), %rcx
	.loc 2 3346 48
	movq	-8(%rbp), %rax
	movq	40(%rax), %rdx
	.loc 2 3346 61
	movq	-8(%rbp), %rax
	movq	48(%rax), %rax
	.loc 2 3346 54
	addq	%rdx, %rax
	.loc 2 3346 40
	cmpq	%rax, %rcx
	setb	%al
	movzbl	%al, %eax
	jmp	.L749
.L748:
	.loc 2 3347 15
	movq	-16(%rbp), %rax
	movl	80(%rax), %edx
	.loc 2 3347 30
	movq	-8(%rbp), %rax
	movl	80(%rax), %eax
	.loc 2 3347 23
	cmpl	%eax, %edx
	setb	%al
	movzbl	%al, %eax
.L749:
	.loc 2 3348 1
	popq	%rbp
	.cfi_def_cfa 7, 8
	ret
	.cfi_endproc
.LFE116:
	.size	compare_nodes, .-compare_nodes
	.type	lock_node, @function
lock_node:
.LFB117:
	.loc 2 3354 1
	.cfi_startproc
	pushq	%rbp
	.cfi_def_cfa_offset 16
	.cfi_offset 6, -16
	movq	%rsp, %rbp
	.cfi_def_cfa_register 6
	subq	$16, %rsp
	movq	%rdi, -8(%rbp)
	.loc 2 3355 3
	movq	-8(%rbp), %rax
	addq	$88, %rax
	movq	%rax, %rdi
	call	pthread_mutex_lock@PLT
	.loc 2 3356 1
	nop
	leave
	.cfi_def_cfa 7, 8
	ret
	.cfi_endproc
.LFE117:
	.size	lock_node, .-lock_node
	.type	unlock_node, @function
unlock_node:
.LFB118:
	.loc 2 3362 1
	.cfi_startproc
	pushq	%rbp
	.cfi_def_cfa_offset 16
	.cfi_offset 6, -16
	movq	%rsp, %rbp
	.cfi_def_cfa_register 6
	subq	$16, %rsp
	movq	%rdi, -8(%rbp)
	.loc 2 3363 3
	movq	-8(%rbp), %rax
	addq	$88, %rax
	movq	%rax, %rdi
	call	pthread_mutex_unlock@PLT
	.loc 2 3364 1
	nop
	leave
	.cfi_def_cfa 7, 8
	ret
	.cfi_endproc
.LFE118:
	.size	unlock_node, .-unlock_node
	.type	queue_destroy, @function
queue_destroy:
.LFB119:
	.loc 2 3370 1
	.cfi_startproc
	endbr64
	pushq	%rbp
	.cfi_def_cfa_offset 16
	.cfi_offset 6, -16
	movq	%rsp, %rbp
	.cfi_def_cfa_register 6
	subq	$16, %rsp
	movq	%rdi, -8(%rbp)
	.loc 2 3371 3
	movq	-8(%rbp), %rax
	movq	(%rax), %rax
	movq	%rax, %rdi
	call	heap_free@PLT
	.loc 2 3372 3
	movq	-8(%rbp), %rax
	addq	$48, %rax
	movq	%rax, %rdi
	call	pthread_cond_destroy@PLT
	.loc 2 3373 3
	movq	-8(%rbp), %rax
	addq	$8, %rax
	movq	%rax, %rdi
	call	pthread_mutex_destroy@PLT
	.loc 2 3374 1
	nop
	leave
	.cfi_def_cfa 7, 8
	ret
	.cfi_endproc
.LFE119:
	.size	queue_destroy, .-queue_destroy
	.type	queue_init, @function
queue_init:
.LFB120:
	.loc 2 3381 1
	.cfi_startproc
	endbr64
	pushq	%rbp
	.cfi_def_cfa_offset 16
	.cfi_offset 6, -16
	movq	%rsp, %rbp
	.cfi_def_cfa_register 6
	subq	$16, %rsp
	movq	%rdi, -8(%rbp)
	movq	%rsi, -16(%rbp)
	.loc 2 3385 27
	movq	-16(%rbp), %rax
	addq	%rax, %rax
	movq	%rax, %rsi
	leaq	compare_nodes(%rip), %rdi
	call	heap_alloc@PLT
	.loc 2 3385 25
	movq	-8(%rbp), %rdx
	movq	%rax, (%rdx)
	.loc 2 3386 3
	movq	-8(%rbp), %rax
	addq	$8, %rax
	movl	$0, %esi
	movq	%rax, %rdi
	call	pthread_mutex_init@PLT
	.loc 2 3387 3
	movq	-8(%rbp), %rax
	addq	$48, %rax
	movl	$0, %esi
	movq	%rax, %rdi
	call	pthread_cond_init@PLT
	.loc 2 3388 1
	nop
	leave
	.cfi_def_cfa 7, 8
	ret
	.cfi_endproc
.LFE120:
	.size	queue_init, .-queue_init
	.type	queue_insert, @function
queue_insert:
.LFB121:
	.loc 2 3395 1
	.cfi_startproc
	endbr64
	pushq	%rbp
	.cfi_def_cfa_offset 16
	.cfi_offset 6, -16
	movq	%rsp, %rbp
	.cfi_def_cfa_register 6
	subq	$16, %rsp
	movq	%rdi, -8(%rbp)
	movq	%rsi, -16(%rbp)
	.loc 2 3396 3
	movq	-8(%rbp), %rax
	addq	$8, %rax
	movq	%rax, %rdi
	call	pthread_mutex_lock@PLT
	.loc 2 3397 3
	movq	-8(%rbp), %rax
	movq	(%rax), %rax
	movq	-16(%rbp), %rdx
	movq	%rdx, %rsi
	movq	%rax, %rdi
	call	heap_insert@PLT
	.loc 2 3398 16
	movq	-16(%rbp), %rax
	movb	$1, 84(%rax)
	.loc 2 3399 3
	movq	-8(%rbp), %rax
	addq	$48, %rax
	movq	%rax, %rdi
	call	pthread_cond_signal@PLT
	.loc 2 3400 3
	movq	-8(%rbp), %rax
	addq	$8, %rax
	movq	%rax, %rdi
	call	pthread_mutex_unlock@PLT
	.loc 2 3401 1
	nop
	leave
	.cfi_def_cfa 7, 8
	ret
	.cfi_endproc
.LFE121:
	.size	queue_insert, .-queue_insert
	.type	queue_pop, @function
queue_pop:
.LFB122:
	.loc 2 3407 1
	.cfi_startproc
	endbr64
	pushq	%rbp
	.cfi_def_cfa_offset 16
	.cfi_offset 6, -16
	movq	%rsp, %rbp
	.cfi_def_cfa_register 6
	subq	$32, %rsp
	movq	%rdi, -24(%rbp)
	.loc 2 3409 3
	movq	-24(%rbp), %rax
	addq	$8, %rax
	movq	%rax, %rdi
	call	pthread_mutex_lock@PLT
	.loc 2 3410 9
	jmp	.L756
.L757:
	.loc 2 3411 5
	movq	-24(%rbp), %rax
	leaq	8(%rax), %rdx
	movq	-24(%rbp), %rax
	addq	$48, %rax
	movq	%rdx, %rsi
	movq	%rax, %rdi
	call	pthread_cond_wait@PLT
.L756:
	.loc 2 3410 20
	movq	-24(%rbp), %rax
	movq	(%rax), %rax
	movq	%rax, %rdi
	call	heap_remove_top@PLT
	movq	%rax, -8(%rbp)
	.loc 2 3410 9
	cmpq	$0, -8(%rbp)
	je	.L757
	.loc 2 3412 3
	movq	-24(%rbp), %rax
	addq	$8, %rax
	movq	%rax, %rdi
	call	pthread_mutex_unlock@PLT
	.loc 2 3413 3
	movq	-8(%rbp), %rax
	movq	%rax, %rdi
	call	lock_node
	.loc 2 3414 16
	movq	-8(%rbp), %rax
	movb	$0, 84(%rax)
	.loc 2 3415 10
	movq	-8(%rbp), %rax
	.loc 2 3416 1
	leave
	.cfi_def_cfa 7, 8
	ret
	.cfi_endproc
.LFE122:
	.size	queue_pop, .-queue_pop
	.type	write_unique, @function
write_unique:
.LFB123:
	.loc 2 3427 1
	.cfi_startproc
	endbr64
	pushq	%rbp
	.cfi_def_cfa_offset 16
	.cfi_offset 6, -16
	movq	%rsp, %rbp
	.cfi_def_cfa_register 6
	subq	$32, %rsp
	movq	%rdi, -8(%rbp)
	movq	%rsi, -16(%rbp)
	movq	%rdx, -24(%rbp)
	.loc 2 3428 7
	movzbl	unique(%rip), %eax
	.loc 2 3428 6
	testb	%al, %al
	je	.L760
	.loc 2 3430 21
	movq	saved_line(%rip), %rax
	.loc 2 3430 10
	testq	%rax, %rax
	je	.L761
	.loc 2 3430 32 discriminator 1
	movq	-8(%rbp), %rax
	leaq	saved_line(%rip), %rsi
	movq	%rax, %rdi
	call	compare
	.loc 2 3430 27 discriminator 1
	testl	%eax, %eax
	je	.L763
.L761:
	.loc 2 3432 18
	movq	-8(%rbp), %rcx
	movq	(%rcx), %rax
	movq	8(%rcx), %rdx
	movq	%rax, saved_line(%rip)
	movq	%rdx, 8+saved_line(%rip)
	movq	16(%rcx), %rax
	movq	24(%rcx), %rdx
	movq	%rax, 16+saved_line(%rip)
	movq	%rdx, 24+saved_line(%rip)
.L760:
	.loc 2 3435 3
	movq	-24(%rbp), %rdx
	movq	-16(%rbp), %rcx
	movq	-8(%rbp), %rax
	movq	%rcx, %rsi
	movq	%rax, %rdi
	call	write_line
	jmp	.L759
.L763:
	.loc 2 3431 9
	nop
.L759:
	.loc 2 3436 1
	leave
	.cfi_def_cfa 7, 8
	ret
	.cfi_endproc
.LFE123:
	.size	write_unique, .-write_unique
	.type	mergelines_node, @function
mergelines_node:
.LFB124:
	.loc 2 3448 1
	.cfi_startproc
	endbr64
	pushq	%rbp
	.cfi_def_cfa_offset 16
	.cfi_offset 6, -16
	movq	%rsp, %rbp
	.cfi_def_cfa_register 6
	subq	$80, %rsp
	movq	%rdi, -56(%rbp)
	movq	%rsi, -64(%rbp)
	movq	%rdx, -72(%rbp)
	movq	%rcx, -80(%rbp)
	.loc 2 3449 16
	movq	-56(%rbp), %rax
	movq	(%rax), %rax
	movq	%rax, -32(%rbp)
	.loc 2 3450 16
	movq	-56(%rbp), %rax
	movq	8(%rax), %rax
	movq	%rax, -24(%rbp)
	.loc 2 3451 21
	movq	-56(%rbp), %rax
	movl	80(%rax), %eax
	addl	$1, %eax
	addl	%eax, %eax
	movq	-64(%rbp), %rdx
	movl	%eax, %ecx
	shrq	%cl, %rdx
	movq	%rdx, %rax
	.loc 2 3451 10
	addq	$1, %rax
	movq	%rax, -48(%rbp)
	.loc 2 3455 11
	movq	-56(%rbp), %rax
	movl	80(%rax), %eax
	.loc 2 3455 6
	cmpl	$1, %eax
	jbe	.L777
.LBB63:
	.loc 2 3458 32
	movq	-56(%rbp), %rax
	movq	32(%rax), %rax
	.loc 2 3458 20
	movq	(%rax), %rax
	movq	%rax, -40(%rbp)
	.loc 2 3459 13
	jmp	.L766
.L769:
	.loc 2 3460 40
	movq	-56(%rbp), %rax
	movq	8(%rax), %rax
	.loc 2 3460 45
	leaq	-32(%rax), %rdx
	.loc 2 3460 26
	movq	-56(%rbp), %rax
	movq	(%rax), %rax
	.loc 2 3460 31
	subq	$32, %rax
	.loc 2 3460 13
	movq	%rdx, %rsi
	movq	%rax, %rdi
	call	compare
	.loc 2 3460 12
	testl	%eax, %eax
	jg	.L767
	.loc 2 3461 28
	movq	-56(%rbp), %rax
	movq	(%rax), %rax
	.loc 2 3461 22
	leaq	-32(%rax), %rdx
	.loc 2 3461 19
	movq	-56(%rbp), %rax
	movq	%rdx, (%rax)
	.loc 2 3461 28
	movq	-56(%rbp), %rax
	movq	(%rax), %rsi
	.loc 2 3461 19
	subq	$32, -40(%rbp)
	movq	-40(%rbp), %rcx
	movq	(%rsi), %rax
	movq	8(%rsi), %rdx
	movq	%rax, (%rcx)
	movq	%rdx, 8(%rcx)
	movq	16(%rsi), %rax
	movq	24(%rsi), %rdx
	movq	%rax, 16(%rcx)
	movq	%rdx, 24(%rcx)
	jmp	.L766
.L767:
	.loc 2 3463 28
	movq	-56(%rbp), %rax
	movq	8(%rax), %rax
	.loc 2 3463 22
	leaq	-32(%rax), %rdx
	.loc 2 3463 19
	movq	-56(%rbp), %rax
	movq	%rdx, 8(%rax)
	.loc 2 3463 28
	movq	-56(%rbp), %rax
	movq	8(%rax), %rsi
	.loc 2 3463 19
	subq	$32, -40(%rbp)
	movq	-40(%rbp), %rcx
	movq	(%rsi), %rax
	movq	8(%rsi), %rdx
	movq	%rax, (%rcx)
	movq	%rdx, 8(%rcx)
	movq	16(%rsi), %rax
	movq	24(%rsi), %rdx
	movq	%rax, 16(%rcx)
	movq	%rdx, 24(%rcx)
.L766:
	.loc 2 3459 18
	movq	-56(%rbp), %rax
	movq	(%rax), %rdx
	.loc 2 3459 30
	movq	-56(%rbp), %rax
	movq	16(%rax), %rax
	.loc 2 3459 13
	cmpq	%rax, %rdx
	je	.L768
	.loc 2 3459 46 discriminator 1
	movq	-56(%rbp), %rax
	movq	8(%rax), %rdx
	.loc 2 3459 58 discriminator 1
	movq	-56(%rbp), %rax
	movq	24(%rax), %rax
	.loc 2 3459 39 discriminator 1
	cmpq	%rax, %rdx
	je	.L768
	.loc 2 3459 78 discriminator 2
	movq	-48(%rbp), %rax
	leaq	-1(%rax), %rdx
	movq	%rdx, -48(%rbp)
	.loc 2 3459 67 discriminator 2
	testq	%rax, %rax
	jne	.L769
.L768:
	.loc 2 3465 33
	movq	-56(%rbp), %rax
	movq	(%rax), %rax
	.loc 2 3465 27
	movq	-32(%rbp), %rdx
	subq	%rax, %rdx
	movq	%rdx, %rax
	sarq	$5, %rax
	.loc 2 3465 17
	movq	%rax, -16(%rbp)
	.loc 2 3466 33
	movq	-56(%rbp), %rax
	movq	8(%rax), %rax
	.loc 2 3466 27
	movq	-24(%rbp), %rdx
	subq	%rax, %rdx
	movq	%rdx, %rax
	sarq	$5, %rax
	.loc 2 3466 17
	movq	%rax, -8(%rbp)
	.loc 2 3468 15
	movq	-56(%rbp), %rax
	movq	48(%rax), %rax
	.loc 2 3468 10
	cmpq	%rax, -8(%rbp)
	jne	.L770
	.loc 2 3469 15
	jmp	.L771
.L773:
	.loc 2 3470 28
	movq	-56(%rbp), %rax
	movq	(%rax), %rax
	.loc 2 3470 22
	leaq	-32(%rax), %rdx
	.loc 2 3470 19
	movq	-56(%rbp), %rax
	movq	%rdx, (%rax)
	.loc 2 3470 28
	movq	-56(%rbp), %rax
	movq	(%rax), %rsi
	.loc 2 3470 19
	subq	$32, -40(%rbp)
	movq	-40(%rbp), %rcx
	movq	(%rsi), %rax
	movq	8(%rsi), %rdx
	movq	%rax, (%rcx)
	movq	%rdx, 8(%rcx)
	movq	16(%rsi), %rax
	movq	24(%rsi), %rdx
	movq	%rax, 16(%rcx)
	movq	%rdx, 24(%rcx)
.L771:
	.loc 2 3469 20
	movq	-56(%rbp), %rax
	movq	(%rax), %rdx
	.loc 2 3469 32
	movq	-56(%rbp), %rax
	movq	16(%rax), %rax
	.loc 2 3469 15
	cmpq	%rax, %rdx
	je	.L772
	.loc 2 3469 52 discriminator 1
	movq	-48(%rbp), %rax
	leaq	-1(%rax), %rdx
	movq	%rdx, -48(%rbp)
	.loc 2 3469 41 discriminator 1
	testq	%rax, %rax
	jne	.L773
	jmp	.L772
.L770:
	.loc 2 3471 20
	movq	-56(%rbp), %rax
	movq	40(%rax), %rax
	.loc 2 3471 15
	cmpq	%rax, -16(%rbp)
	jne	.L772
	.loc 2 3472 15
	jmp	.L774
.L775:
	.loc 2 3473 28
	movq	-56(%rbp), %rax
	movq	8(%rax), %rax
	.loc 2 3473 22
	leaq	-32(%rax), %rdx
	.loc 2 3473 19
	movq	-56(%rbp), %rax
	movq	%rdx, 8(%rax)
	.loc 2 3473 28
	movq	-56(%rbp), %rax
	movq	8(%rax), %rsi
	.loc 2 3473 19
	subq	$32, -40(%rbp)
	movq	-40(%rbp), %rcx
	movq	(%rsi), %rax
	movq	8(%rsi), %rdx
	movq	%rax, (%rcx)
	movq	%rdx, 8(%rcx)
	movq	16(%rsi), %rax
	movq	24(%rsi), %rdx
	movq	%rax, 16(%rcx)
	movq	%rdx, 24(%rcx)
.L774:
	.loc 2 3472 20
	movq	-56(%rbp), %rax
	movq	8(%rax), %rdx
	.loc 2 3472 32
	movq	-56(%rbp), %rax
	movq	24(%rax), %rax
	.loc 2 3472 15
	cmpq	%rax, %rdx
	je	.L772
	.loc 2 3472 52 discriminator 1
	movq	-48(%rbp), %rax
	leaq	-1(%rax), %rdx
	movq	%rdx, -48(%rbp)
	.loc 2 3472 41 discriminator 1
	testq	%rax, %rax
	jne	.L775
.L772:
	.loc 2 3474 12
	movq	-56(%rbp), %rax
	movq	32(%rax), %rax
	.loc 2 3474 19
	movq	-40(%rbp), %rdx
	movq	%rdx, (%rax)
.LBE63:
	jmp	.L776
.L780:
	.loc 2 3481 42
	movq	-56(%rbp), %rax
	movq	8(%rax), %rax
	.loc 2 3481 47
	leaq	-32(%rax), %rdx
	.loc 2 3481 28
	movq	-56(%rbp), %rax
	movq	(%rax), %rax
	.loc 2 3481 33
	subq	$32, %rax
	.loc 2 3481 15
	movq	%rdx, %rsi
	movq	%rax, %rdi
	call	compare
	.loc 2 3481 14
	testl	%eax, %eax
	jg	.L778
	.loc 2 3482 33
	movq	-56(%rbp), %rax
	movq	(%rax), %rax
	.loc 2 3482 13
	leaq	-32(%rax), %rdx
	movq	-56(%rbp), %rax
	movq	%rdx, (%rax)
	.loc 2 3482 33
	movq	-56(%rbp), %rax
	movq	(%rax), %rax
	.loc 2 3482 13
	movq	-80(%rbp), %rdx
	movq	-72(%rbp), %rcx
	movq	%rcx, %rsi
	movq	%rax, %rdi
	call	write_unique
	jmp	.L777
.L778:
	.loc 2 3484 33
	movq	-56(%rbp), %rax
	movq	8(%rax), %rax
	.loc 2 3484 13
	leaq	-32(%rax), %rdx
	movq	-56(%rbp), %rax
	movq	%rdx, 8(%rax)
	.loc 2 3484 33
	movq	-56(%rbp), %rax
	movq	8(%rax), %rax
	.loc 2 3484 13
	movq	-80(%rbp), %rdx
	movq	-72(%rbp), %rcx
	movq	%rcx, %rsi
	movq	%rax, %rdi
	call	write_unique
.L777:
	.loc 2 3479 18
	movq	-56(%rbp), %rax
	movq	(%rax), %rdx
	.loc 2 3479 30
	movq	-56(%rbp), %rax
	movq	16(%rax), %rax
	.loc 2 3479 13
	cmpq	%rax, %rdx
	je	.L779
	.loc 2 3479 46 discriminator 1
	movq	-56(%rbp), %rax
	movq	8(%rax), %rdx
	.loc 2 3479 58 discriminator 1
	movq	-56(%rbp), %rax
	movq	24(%rax), %rax
	.loc 2 3479 39 discriminator 1
	cmpq	%rax, %rdx
	je	.L779
	.loc 2 3479 78 discriminator 2
	movq	-48(%rbp), %rax
	leaq	-1(%rax), %rdx
	movq	%rdx, -48(%rbp)
	.loc 2 3479 67 discriminator 2
	testq	%rax, %rax
	jne	.L780
.L779:
	.loc 2 3487 33
	movq	-56(%rbp), %rax
	movq	(%rax), %rax
	.loc 2 3487 27
	movq	-32(%rbp), %rdx
	subq	%rax, %rdx
	movq	%rdx, %rax
	sarq	$5, %rax
	.loc 2 3487 17
	movq	%rax, -16(%rbp)
	.loc 2 3488 33
	movq	-56(%rbp), %rax
	movq	8(%rax), %rax
	.loc 2 3488 27
	movq	-24(%rbp), %rdx
	subq	%rax, %rdx
	movq	%rdx, %rax
	sarq	$5, %rax
	.loc 2 3488 17
	movq	%rax, -8(%rbp)
	.loc 2 3490 15
	movq	-56(%rbp), %rax
	movq	48(%rax), %rax
	.loc 2 3490 10
	cmpq	%rax, -8(%rbp)
	jne	.L781
	.loc 2 3492 17
	jmp	.L782
.L783:
	.loc 2 3493 33
	movq	-56(%rbp), %rax
	movq	(%rax), %rax
	.loc 2 3493 13
	leaq	-32(%rax), %rdx
	movq	-56(%rbp), %rax
	movq	%rdx, (%rax)
	.loc 2 3493 33
	movq	-56(%rbp), %rax
	movq	(%rax), %rax
	.loc 2 3493 13
	movq	-80(%rbp), %rdx
	movq	-72(%rbp), %rcx
	movq	%rcx, %rsi
	movq	%rax, %rdi
	call	write_unique
.L782:
	.loc 2 3492 22
	movq	-56(%rbp), %rax
	movq	(%rax), %rdx
	.loc 2 3492 34
	movq	-56(%rbp), %rax
	movq	16(%rax), %rax
	.loc 2 3492 17
	cmpq	%rax, %rdx
	je	.L776
	.loc 2 3492 54 discriminator 1
	movq	-48(%rbp), %rax
	leaq	-1(%rax), %rdx
	movq	%rdx, -48(%rbp)
	.loc 2 3492 43 discriminator 1
	testq	%rax, %rax
	jne	.L783
	jmp	.L776
.L781:
	.loc 2 3495 20
	movq	-56(%rbp), %rax
	movq	40(%rax), %rax
	.loc 2 3495 15
	cmpq	%rax, -16(%rbp)
	jne	.L776
	.loc 2 3497 17
	jmp	.L784
.L785:
	.loc 2 3498 33
	movq	-56(%rbp), %rax
	movq	8(%rax), %rax
	.loc 2 3498 13
	leaq	-32(%rax), %rdx
	movq	-56(%rbp), %rax
	movq	%rdx, 8(%rax)
	.loc 2 3498 33
	movq	-56(%rbp), %rax
	movq	8(%rax), %rax
	.loc 2 3498 13
	movq	-80(%rbp), %rdx
	movq	-72(%rbp), %rcx
	movq	%rcx, %rsi
	movq	%rax, %rdi
	call	write_unique
.L784:
	.loc 2 3497 22
	movq	-56(%rbp), %rax
	movq	8(%rax), %rdx
	.loc 2 3497 34
	movq	-56(%rbp), %rax
	movq	24(%rax), %rax
	.loc 2 3497 17
	cmpq	%rax, %rdx
	je	.L776
	.loc 2 3497 54 discriminator 1
	movq	-48(%rbp), %rax
	leaq	-1(%rax), %rdx
	movq	%rdx, -48(%rbp)
	.loc 2 3497 43 discriminator 1
	testq	%rax, %rax
	jne	.L785
.L776:
	.loc 2 3503 29
	movq	-56(%rbp), %rax
	movq	(%rax), %rax
	.loc 2 3503 23
	movq	-32(%rbp), %rdx
	subq	%rax, %rdx
	movq	%rdx, %rax
	sarq	$5, %rax
	.loc 2 3503 13
	movq	%rax, -16(%rbp)
	.loc 2 3504 29
	movq	-56(%rbp), %rax
	movq	8(%rax), %rax
	.loc 2 3504 23
	movq	-24(%rbp), %rdx
	subq	%rax, %rdx
	movq	%rdx, %rax
	sarq	$5, %rax
	.loc 2 3504 13
	movq	%rax, -8(%rbp)
	.loc 2 3505 13
	movq	-56(%rbp), %rax
	movq	40(%rax), %rax
	subq	-16(%rbp), %rax
	movq	%rax, %rdx
	movq	-56(%rbp), %rax
	movq	%rdx, 40(%rax)
	.loc 2 3506 13
	movq	-56(%rbp), %rax
	movq	48(%rax), %rax
	subq	-8(%rbp), %rax
	movq	%rax, %rdx
	movq	-56(%rbp), %rax
	movq	%rdx, 48(%rax)
	.loc 2 3507 1
	nop
	leave
	.cfi_def_cfa 7, 8
	ret
	.cfi_endproc
.LFE124:
	.size	mergelines_node, .-mergelines_node
	.type	queue_check_insert, @function
queue_check_insert:
.LFB125:
	.loc 2 3515 1
	.cfi_startproc
	endbr64
	pushq	%rbp
	.cfi_def_cfa_offset 16
	.cfi_offset 6, -16
	movq	%rsp, %rbp
	.cfi_def_cfa_register 6
	subq	$32, %rsp
	movq	%rdi, -24(%rbp)
	movq	%rsi, -32(%rbp)
	.loc 2 3516 13
	movq	-32(%rbp), %rax
	movzbl	84(%rax), %eax
	.loc 2 3516 7
	xorl	$1, %eax
	.loc 2 3516 6
	testb	%al, %al
	je	.L795
.LBB64:
	.loc 2 3518 28
	movq	-32(%rbp), %rax
	movq	(%rax), %rdx
	.loc 2 3518 39
	movq	-32(%rbp), %rax
	movq	16(%rax), %rax
	.loc 2 3518 12
	cmpq	%rax, %rdx
	setne	%al
	movb	%al, -2(%rbp)
	.loc 2 3519 28
	movq	-32(%rbp), %rax
	movq	8(%rax), %rdx
	.loc 2 3519 39
	movq	-32(%rbp), %rax
	movq	24(%rax), %rax
	.loc 2 3519 12
	cmpq	%rax, %rdx
	setne	%al
	movb	%al, -1(%rbp)
	.loc 2 3520 11
	cmpb	$0, -2(%rbp)
	je	.L788
	.loc 2 3520 31 discriminator 1
	cmpb	$0, -1(%rbp)
	jne	.L789
	.loc 2 3520 40 discriminator 4
	movq	-32(%rbp), %rax
	movq	48(%rax), %rax
	.loc 2 3520 31 discriminator 4
	testq	%rax, %rax
	jne	.L790
.L789:
	.loc 2 3520 31 is_stmt 0 discriminator 5
	movl	$1, %eax
	jmp	.L791
.L790:
	.loc 2 3520 31 discriminator 6
	movl	$0, %eax
.L791:
	.loc 2 3520 11 is_stmt 1 discriminator 8
	andl	$1, %eax
	jmp	.L792
.L788:
	.loc 2 3520 57 discriminator 2
	cmpb	$0, -1(%rbp)
	je	.L793
	.loc 2 3520 66 discriminator 10
	movq	-32(%rbp), %rax
	movq	40(%rax), %rax
	.loc 2 3520 57 discriminator 10
	testq	%rax, %rax
	jne	.L793
	.loc 2 3520 57 is_stmt 0 discriminator 12
	movl	$1, %eax
	jmp	.L794
.L793:
	.loc 2 3520 57 discriminator 13
	movl	$0, %eax
.L794:
	.loc 2 3520 11 is_stmt 1 discriminator 15
	andl	$1, %eax
.L792:
	.loc 2 3520 10 discriminator 16
	testb	%al, %al
	je	.L795
	.loc 2 3521 9
	movq	-32(%rbp), %rdx
	movq	-24(%rbp), %rax
	movq	%rdx, %rsi
	movq	%rax, %rdi
	call	queue_insert
.L795:
.LBE64:
	.loc 2 3523 1
	nop
	leave
	.cfi_def_cfa 7, 8
	ret
	.cfi_endproc
.LFE125:
	.size	queue_check_insert, .-queue_check_insert
	.type	queue_check_insert_parent, @function
queue_check_insert_parent:
.LFB126:
	.loc 2 3530 1
	.cfi_startproc
	endbr64
	pushq	%rbp
	.cfi_def_cfa_offset 16
	.cfi_offset 6, -16
	movq	%rsp, %rbp
	.cfi_def_cfa_register 6
	subq	$16, %rsp
	movq	%rdi, -8(%rbp)
	movq	%rsi, -16(%rbp)
	.loc 2 3531 11
	movq	-16(%rbp), %rax
	movl	80(%rax), %eax
	.loc 2 3531 6
	cmpl	$1, %eax
	jbe	.L797
	.loc 2 3533 7
	movq	-16(%rbp), %rax
	movq	56(%rax), %rax
	movq	%rax, %rdi
	call	lock_node
	.loc 2 3534 7
	movq	-16(%rbp), %rax
	movq	56(%rax), %rdx
	movq	-8(%rbp), %rax
	movq	%rdx, %rsi
	movq	%rax, %rdi
	call	queue_check_insert
	.loc 2 3535 7
	movq	-16(%rbp), %rax
	movq	56(%rax), %rax
	movq	%rax, %rdi
	call	unlock_node
	.loc 2 3543 1
	jmp	.L799
.L797:
	.loc 2 3537 16
	movq	-16(%rbp), %rax
	movq	40(%rax), %rdx
	.loc 2 3537 28
	movq	-16(%rbp), %rax
	movq	48(%rax), %rax
	.loc 2 3537 22
	addq	%rdx, %rax
	.loc 2 3537 11
	testq	%rax, %rax
	jne	.L799
	.loc 2 3541 7
	movq	-16(%rbp), %rax
	movq	56(%rax), %rdx
	movq	-8(%rbp), %rax
	movq	%rdx, %rsi
	movq	%rax, %rdi
	call	queue_insert
.L799:
	.loc 2 3543 1
	nop
	leave
	.cfi_def_cfa 7, 8
	ret
	.cfi_endproc
.LFE126:
	.size	queue_check_insert_parent, .-queue_check_insert_parent
	.type	merge_loop, @function
merge_loop:
.LFB127:
	.loc 2 3554 1
	.cfi_startproc
	endbr64
	pushq	%rbp
	.cfi_def_cfa_offset 16
	.cfi_offset 6, -16
	movq	%rsp, %rbp
	.cfi_def_cfa_register 6
	subq	$48, %rsp
	movq	%rdi, -24(%rbp)
	movq	%rsi, -32(%rbp)
	movq	%rdx, -40(%rbp)
	movq	%rcx, -48(%rbp)
.L803:
.LBB65:
	.loc 2 3557 33
	movq	-24(%rbp), %rax
	movq	%rax, %rdi
	call	queue_pop
	movq	%rax, -8(%rbp)
	.loc 2 3559 15
	movq	-8(%rbp), %rax
	movl	80(%rax), %eax
	.loc 2 3559 10
	testl	%eax, %eax
	jne	.L801
	.loc 2 3561 11
	movq	-8(%rbp), %rax
	movq	%rax, %rdi
	call	unlock_node
	.loc 2 3563 11
	movq	-8(%rbp), %rdx
	movq	-24(%rbp), %rax
	movq	%rdx, %rsi
	movq	%rax, %rdi
	call	queue_insert
	.loc 2 3564 11
	jmp	.L804
.L801:
	.loc 2 3566 7
	movq	-48(%rbp), %rcx
	movq	-40(%rbp), %rdx
	movq	-32(%rbp), %rsi
	movq	-8(%rbp), %rax
	movq	%rax, %rdi
	call	mergelines_node
	.loc 2 3567 7
	movq	-8(%rbp), %rdx
	movq	-24(%rbp), %rax
	movq	%rdx, %rsi
	movq	%rax, %rdi
	call	queue_check_insert
	.loc 2 3568 7
	movq	-8(%rbp), %rdx
	movq	-24(%rbp), %rax
	movq	%rdx, %rsi
	movq	%rax, %rdi
	call	queue_check_insert_parent
	.loc 2 3570 7
	movq	-8(%rbp), %rax
	movq	%rax, %rdi
	call	unlock_node
.LBE65:
	.loc 2 3556 5
	jmp	.L803
.L804:
	.loc 2 3572 1
	nop
	leave
	.cfi_def_cfa 7, 8
	ret
	.cfi_endproc
.LFE127:
	.size	merge_loop, .-merge_loop
	.type	sortlines_thread, @function
sortlines_thread:
.LFB128:
	.loc 2 3611 1
	.cfi_startproc
	endbr64
	pushq	%rbp
	.cfi_def_cfa_offset 16
	.cfi_offset 6, -16
	movq	%rsp, %rbp
	.cfi_def_cfa_register 6
	subq	$32, %rsp
	movq	%rdi, -24(%rbp)
	.loc 2 3612 29
	movq	-24(%rbp), %rax
	movq	%rax, -8(%rbp)
	.loc 2 3613 3
	movq	-8(%rbp), %rax
	movq	48(%rax), %rdi
	movq	-8(%rbp), %rax
	movq	40(%rax), %r9
	movq	-8(%rbp), %rax
	movq	32(%rax), %r8
	movq	-8(%rbp), %rax
	movq	24(%rax), %rcx
	movq	-8(%rbp), %rax
	movq	16(%rax), %rdx
	movq	-8(%rbp), %rax
	movq	8(%rax), %rsi
	movq	-8(%rbp), %rax
	movq	(%rax), %rax
	subq	$8, %rsp
	pushq	%rdi
	movq	%rax, %rdi
	call	sortlines
	addq	$16, %rsp
	.loc 2 3616 10
	movl	$0, %eax
	.loc 2 3617 1
	leave
	.cfi_def_cfa 7, 8
	ret
	.cfi_endproc
.LFE128:
	.size	sortlines_thread, .-sortlines_thread
	.type	sortlines, @function
sortlines:
.LFB129:
	.loc 2 3647 1
	.cfi_startproc
	endbr64
	pushq	%rbp
	.cfi_def_cfa_offset 16
	.cfi_offset 6, -16
	movq	%rsp, %rbp
	.cfi_def_cfa_register 6
	subq	$192, %rsp
	movq	%rdi, -136(%rbp)
	movq	%rsi, -144(%rbp)
	movq	%rdx, -152(%rbp)
	movq	%rcx, -160(%rbp)
	movq	%r8, -168(%rbp)
	movq	%r9, -176(%rbp)
	movq	16(%rbp), %rax
	movq	%rax, -184(%rbp)
	.loc 2 3647 1
	movq	%fs:40, %rax
	movq	%rax, -8(%rbp)
	xorl	%eax, %eax
	.loc 2 3648 23
	movq	-160(%rbp), %rax
	movq	40(%rax), %rdx
	.loc 2 3648 35
	movq	-160(%rbp), %rax
	movq	48(%rax), %rax
	.loc 2 3648 10
	addq	%rdx, %rax
	movq	%rax, -112(%rbp)
	.loc 2 3651 10
	movq	-144(%rbp), %rax
	shrq	%rax
	movq	%rax, -104(%rbp)
	.loc 2 3652 10
	movq	-144(%rbp), %rax
	subq	-104(%rbp), %rax
	movq	%rax, -96(%rbp)
	.loc 2 3654 22
	movq	-136(%rbp), %rax
	movq	%rax, -64(%rbp)
	movq	-104(%rbp), %rax
	movq	%rax, -56(%rbp)
	movq	-152(%rbp), %rax
	movq	%rax, -48(%rbp)
	.loc 2 3655 34
	movq	-160(%rbp), %rax
	movq	64(%rax), %rax
	.loc 2 3654 22
	movq	%rax, -40(%rbp)
	movq	-168(%rbp), %rax
	movq	%rax, -32(%rbp)
	movq	-176(%rbp), %rax
	movq	%rax, -24(%rbp)
	movq	-184(%rbp), %rax
	movq	%rax, -16(%rbp)
	.loc 2 3657 6
	cmpq	$1, -144(%rbp)
	jbe	.L808
	.loc 2 3657 20 discriminator 1
	cmpq	$131071, -112(%rbp)
	jbe	.L808
	.loc 2 3658 10
	leaq	-64(%rbp), %rdx
	leaq	-120(%rbp), %rax
	movq	%rdx, %rcx
	leaq	sortlines_thread(%rip), %rdx
	movl	$0, %esi
	movq	%rax, %rdi
	call	pthread_create@PLT
	.loc 2 3658 7
	testl	%eax, %eax
	jne	.L808
	.loc 2 3660 7
	movq	-160(%rbp), %rax
	movq	72(%rax), %rcx
	.loc 2 3660 30
	movq	-160(%rbp), %rax
	movq	40(%rax), %rax
	.loc 2 3660 24
	salq	$5, %rax
	negq	%rax
	movq	%rax, %rdx
	.loc 2 3660 7
	movq	-136(%rbp), %rax
	leaq	(%rdx,%rax), %rdi
	movq	-176(%rbp), %r8
	movq	-168(%rbp), %rsi
	movq	-152(%rbp), %rdx
	movq	-96(%rbp), %rax
	subq	$8, %rsp
	pushq	-184(%rbp)
	movq	%r8, %r9
	movq	%rsi, %r8
	movq	%rax, %rsi
	call	sortlines
	addq	$16, %rsp
	.loc 2 3662 7
	movq	-120(%rbp), %rax
	movl	$0, %esi
	movq	%rax, %rdi
	call	pthread_join@PLT
	jmp	.L809
.L808:
.LBB66:
	.loc 2 3668 14
	movq	-160(%rbp), %rax
	movq	40(%rax), %rax
	movq	%rax, -88(%rbp)
	.loc 2 3669 14
	movq	-160(%rbp), %rax
	movq	48(%rax), %rax
	movq	%rax, -80(%rbp)
	.loc 2 3670 33
	movq	-152(%rbp), %rax
	salq	$5, %rax
	negq	%rax
	movq	%rax, %rdx
	.loc 2 3670 20
	movq	-136(%rbp), %rax
	addq	%rdx, %rax
	movq	%rax, -72(%rbp)
	.loc 2 3671 10
	cmpq	$1, -80(%rbp)
	jbe	.L810
	.loc 2 3672 55
	movq	-88(%rbp), %rax
	shrq	%rax
	.loc 2 3672 49
	salq	$5, %rax
	negq	%rax
	movq	%rax, %rdx
	.loc 2 3672 9
	movq	-72(%rbp), %rax
	addq	%rax, %rdx
	.loc 2 3672 32
	movq	-88(%rbp), %rax
	salq	$5, %rax
	negq	%rax
	movq	%rax, %rcx
	.loc 2 3672 9
	movq	-136(%rbp), %rax
	leaq	(%rcx,%rax), %rdi
	movq	-80(%rbp), %rax
	movl	$0, %ecx
	movq	%rax, %rsi
	call	sequential_sort
.L810:
	.loc 2 3673 10
	cmpq	$1, -88(%rbp)
	jbe	.L811
	.loc 2 3674 9
	movq	-72(%rbp), %rdx
	movq	-88(%rbp), %rsi
	movq	-136(%rbp), %rax
	movl	$0, %ecx
	movq	%rax, %rdi
	call	sequential_sort
.L811:
	.loc 2 3677 16
	movq	-160(%rbp), %rax
	movq	-136(%rbp), %rdx
	movq	%rdx, (%rax)
	.loc 2 3678 24
	movq	-88(%rbp), %rax
	salq	$5, %rax
	negq	%rax
	movq	%rax, %rdx
	movq	-136(%rbp), %rax
	addq	%rax, %rdx
	.loc 2 3678 16
	movq	-160(%rbp), %rax
	movq	%rdx, 8(%rax)
	.loc 2 3679 28
	movq	-88(%rbp), %rax
	salq	$5, %rax
	negq	%rax
	movq	%rax, %rdx
	movq	-136(%rbp), %rax
	addq	%rax, %rdx
	.loc 2 3679 20
	movq	-160(%rbp), %rax
	movq	%rdx, 16(%rax)
	.loc 2 3680 28
	movq	-88(%rbp), %rax
	salq	$5, %rax
	negq	%rax
	movq	%rax, %rdx
	.loc 2 3680 34
	movq	-80(%rbp), %rax
	salq	$5, %rax
	subq	%rax, %rdx
	movq	-136(%rbp), %rax
	addq	%rax, %rdx
	.loc 2 3680 20
	movq	-160(%rbp), %rax
	movq	%rdx, 24(%rax)
	.loc 2 3682 7
	movq	-160(%rbp), %rdx
	movq	-168(%rbp), %rax
	movq	%rdx, %rsi
	movq	%rax, %rdi
	call	queue_insert
	.loc 2 3683 7
	movq	-184(%rbp), %rcx
	movq	-176(%rbp), %rdx
	movq	-152(%rbp), %rsi
	movq	-168(%rbp), %rax
	movq	%rax, %rdi
	call	merge_loop
.L809:
.LBE66:
	.loc 2 3685 1
	nop
	movq	-8(%rbp), %rax
	xorq	%fs:40, %rax
	je	.L812
	call	__stack_chk_fail@PLT
.L812:
	leave
	.cfi_def_cfa 7, 8
	ret
	.cfi_endproc
.LFE129:
	.size	sortlines, .-sortlines
	.type	avoid_trashing_input, @function
avoid_trashing_input:
.LFB130:
	.loc 2 3707 1
	.cfi_startproc
	endbr64
	pushq	%rbp
	.cfi_def_cfa_offset 16
	.cfi_offset 6, -16
	movq	%rsp, %rbp
	.cfi_def_cfa_register 6
	subq	$240, %rsp
	movq	%rdi, -216(%rbp)
	movq	%rsi, -224(%rbp)
	movq	%rdx, -232(%rbp)
	movq	%rcx, -240(%rbp)
	.loc 2 3707 1
	movq	%fs:40, %rax
	movq	%rax, -8(%rbp)
	xorl	%eax, %eax
	.loc 2 3708 20
	movq	$0, -184(%rbp)
.LBB67:
	.loc 2 3710 15
	movq	-224(%rbp), %rax
	movq	%rax, -176(%rbp)
	.loc 2 3710 3
	jmp	.L814
.L826:
.LBB68:
	.loc 2 3712 23
	movq	-176(%rbp), %rax
	salq	$4, %rax
	movq	%rax, %rdx
	movq	-216(%rbp), %rax
	addq	%rdx, %rax
	movq	(%rax), %rax
	leaq	.LC99(%rip), %rsi
	movq	%rax, %rdi
	call	strcmp@PLT
	.loc 2 3712 12
	testl	%eax, %eax
	sete	%al
	movb	%al, -193(%rbp)
	.loc 2 3716 10
	cmpq	$0, -240(%rbp)
	je	.L815
	.loc 2 3716 22 discriminator 1
	movq	-176(%rbp), %rax
	salq	$4, %rax
	movq	%rax, %rdx
	movq	-216(%rbp), %rax
	addq	%rdx, %rax
	movq	(%rax), %rdx
	movq	-240(%rbp), %rax
	movq	%rdx, %rsi
	movq	%rax, %rdi
	call	strcmp@PLT
	.loc 2 3716 19 discriminator 1
	testl	%eax, %eax
	jne	.L815
	.loc 2 3716 56 discriminator 2
	movzbl	-193(%rbp), %eax
	xorl	$1, %eax
	.loc 2 3716 53 discriminator 2
	testb	%al, %al
	je	.L815
	.loc 2 3717 14
	movb	$1, -194(%rbp)
	jmp	.L816
.L815:
.LBB69:
	.loc 2 3720 32
	call	get_outstatus
	movq	%rax, -168(%rbp)
	.loc 2 3721 14
	cmpq	$0, -168(%rbp)
	je	.L829
	.loc 2 3728 19
	cmpb	$0, -193(%rbp)
	je	.L819
	.loc 2 3725 23 discriminator 1
	leaq	-160(%rbp), %rax
	movq	%rax, %rsi
	movl	$0, %edi
	call	fstat@PLT
	.loc 2 3728 19 discriminator 1
	testl	%eax, %eax
	je	.L820
	jmp	.L821
.L819:
	.loc 2 3726 34
	movq	-176(%rbp), %rax
	salq	$4, %rax
	movq	%rax, %rdx
	movq	-216(%rbp), %rax
	addq	%rdx, %rax
	.loc 2 3726 23
	movq	(%rax), %rax
	leaq	-160(%rbp), %rdx
	movq	%rdx, %rsi
	movq	%rax, %rdi
	call	stat@PLT
	.loc 2 3727 20
	testl	%eax, %eax
	jne	.L821
.L820:
	.loc 2 3728 22 discriminator 4
	movq	-152(%rbp), %rdx
	movq	-168(%rbp), %rax
	movq	8(%rax), %rax
	.loc 2 3728 19 discriminator 4
	cmpq	%rax, %rdx
	jne	.L821
	.loc 2 3728 22 discriminator 3
	movq	-160(%rbp), %rdx
	movq	-168(%rbp), %rax
	movq	(%rax), %rax
	cmpq	%rax, %rdx
	jne	.L821
	.loc 2 3728 19 discriminator 5
	movl	$1, %eax
	jmp	.L822
.L821:
	.loc 2 3728 19 is_stmt 0 discriminator 6
	movl	$0, %eax
.L822:
	.loc 2 3724 16 is_stmt 1
	movb	%al, -194(%rbp)
	andb	$1, -194(%rbp)
.L816:
.LBE69:
	.loc 2 3731 10
	cmpb	$0, -194(%rbp)
	je	.L823
	.loc 2 3733 14
	cmpq	$0, -184(%rbp)
	jne	.L824
.LBB70:
	.loc 2 3736 26
	leaq	-192(%rbp), %rax
	movq	%rax, %rdi
	call	create_temp
	movq	%rax, -184(%rbp)
	.loc 2 3737 58
	movq	-184(%rbp), %rax
	leaq	13(%rax), %rsi
	.loc 2 3737 15
	movq	-192(%rbp), %rax
	.loc 2 3737 33
	movq	-176(%rbp), %rdx
	movq	%rdx, %rcx
	salq	$4, %rcx
	.loc 2 3737 15
	movq	-216(%rbp), %rdx
	leaq	(%rcx,%rdx), %rdi
	movq	%rsi, %r8
	movq	%rax, %rcx
	movl	$1, %edx
	movl	$0, %esi
	call	mergefiles
.L824:
.LBE70:
	.loc 2 3740 16
	movq	-176(%rbp), %rax
	salq	$4, %rax
	movq	%rax, %rdx
	movq	-216(%rbp), %rax
	addq	%rdx, %rax
	.loc 2 3740 27
	movq	-184(%rbp), %rdx
	addq	$13, %rdx
	.loc 2 3740 25
	movq	%rdx, (%rax)
	.loc 2 3741 16
	movq	-176(%rbp), %rax
	salq	$4, %rax
	movq	%rax, %rdx
	movq	-216(%rbp), %rax
	addq	%rax, %rdx
	.loc 2 3741 25
	movq	-184(%rbp), %rax
	movq	%rax, 8(%rdx)
.L823:
.LBE68:
