	.file	"stdbuf.c"
	.text
.Ltext0:
	.type	initialize_exit_failure, @function
initialize_exit_failure:
.LFB6:
	.file 1 "src/system.h"
	.loc 1 100 1
	.cfi_startproc
	pushq	%rbp
	.cfi_def_cfa_offset 16
	.cfi_offset 6, -16
	movq	%rsp, %rbp
	.cfi_def_cfa_register 6
	movl	%edi, -4(%rbp)
	.loc 1 101 6
	cmpl	$1, -4(%rbp)
	je	.L3
	.loc 1 102 18
	movl	-4(%rbp), %eax
	movl	%eax, exit_failure(%rip)
.L3:
	.loc 1 103 1
	nop
	popq	%rbp
	.cfi_def_cfa 7, 8
	ret
	.cfi_endproc
.LFE6:
	.size	initialize_exit_failure, .-initialize_exit_failure
	.section	.rodata
	.align 8
.LC0:
	.string	"\nMandatory arguments to long options are mandatory for short options too.\n"
	.text
	.type	emit_mandatory_arg_note, @function
emit_mandatory_arg_note:
.LFB36:
	.loc 1 589 1
	.cfi_startproc
	pushq	%rbp
	.cfi_def_cfa_offset 16
	.cfi_offset 6, -16
	movq	%rsp, %rbp
	.cfi_def_cfa_register 6
	pushq	%rbx
	subq	$8, %rsp
	.cfi_offset 3, -24
	.loc 1 590 3
	movq	stdout(%rip), %rbx
	leaq	.LC0(%rip), %rdi
	call	gettext@PLT
	movq	%rbx, %rsi
	movq	%rax, %rdi
	call	fputs_unlocked@PLT
	.loc 1 593 1
	nop
	addq	$8, %rsp
	popq	%rbx
	popq	%rbp
	.cfi_def_cfa 7, 8
	ret
	.cfi_endproc
.LFE36:
	.size	emit_mandatory_arg_note, .-emit_mandatory_arg_note
	.section	.rodata
.LC1:
	.string	"["
.LC2:
	.string	"test invocation"
.LC3:
	.string	"coreutils"
.LC4:
	.string	"Multi-call invocation"
.LC5:
	.string	"sha224sum"
.LC6:
	.string	"sha2 utilities"
.LC7:
	.string	"sha256sum"
.LC8:
	.string	"sha384sum"
.LC9:
	.string	"sha512sum"
.LC10:
	.string	"\n%s online help: <%s>\n"
	.align 8
.LC11:
	.string	"https://www.gnu.org/software/coreutils/"
.LC12:
	.string	"GNU coreutils"
.LC13:
	.string	"en_"
	.align 8
.LC14:
	.string	"Report any translation bugs to <https://translationproject.org/team/>\n"
.LC15:
	.string	"Full documentation <%s%s>\n"
.LC16:
	.string	" invocation"
.LC17:
	.string	""
	.align 8
.LC18:
	.string	"or available locally via: info '(coreutils) %s%s'\n"
	.text
	.type	emit_ancillary_info, @function
emit_ancillary_info:
.LFB40:
	.loc 1 635 1
	.cfi_startproc
	pushq	%rbp
	.cfi_def_cfa_offset 16
	.cfi_offset 6, -16
	movq	%rsp, %rbp
	.cfi_def_cfa_register 6
	pushq	%rbx
	subq	$184, %rsp
	.cfi_offset 3, -24
	movq	%rdi, -184(%rbp)
	.loc 1 635 1
	movq	%fs:40, %rax
	movq	%rax, -24(%rbp)
	xorl	%eax, %eax
	.loc 1 636 67
	leaq	.LC1(%rip), %rax
	movq	%rax, -144(%rbp)
	leaq	.LC2(%rip), %rax
	movq	%rax, -136(%rbp)
	leaq	.LC3(%rip), %rax
	movq	%rax, -128(%rbp)
	leaq	.LC4(%rip), %rax
	movq	%rax, -120(%rbp)
	leaq	.LC5(%rip), %rax
	movq	%rax, -112(%rbp)
	leaq	.LC6(%rip), %rax
	movq	%rax, -104(%rbp)
	leaq	.LC7(%rip), %rax
	movq	%rax, -96(%rbp)
	leaq	.LC6(%rip), %rax
	movq	%rax, -88(%rbp)
	leaq	.LC8(%rip), %rax
	movq	%rax, -80(%rbp)
	leaq	.LC6(%rip), %rax
	movq	%rax, -72(%rbp)
	leaq	.LC9(%rip), %rax
	movq	%rax, -64(%rbp)
	leaq	.LC6(%rip), %rax
	movq	%rax, -56(%rbp)
	movq	$0, -48(%rbp)
	movq	$0, -40(%rbp)
	.loc 1 646 15
	movq	-184(%rbp), %rax
	movq	%rax, -168(%rbp)
	.loc 1 647 25
	leaq	-144(%rbp), %rax
	movq	%rax, -160(%rbp)
	.loc 1 649 9
	jmp	.L6
.L8:
	.loc 1 650 13
	addq	$16, -160(%rbp)
.L6:
	.loc 1 649 18
	movq	-160(%rbp), %rax
	movq	(%rax), %rax
	.loc 1 649 9
	testq	%rax, %rax
	je	.L7
	.loc 1 649 33 discriminator 1
	movq	-160(%rbp), %rax
	movq	(%rax), %rdx
	movq	-184(%rbp), %rax
	movq	%rdx, %rsi
	movq	%rax, %rdi
	call	strcmp@PLT
	.loc 1 649 28 discriminator 1
	testl	%eax, %eax
	jne	.L8
.L7:
	.loc 1 652 15
	movq	-160(%rbp), %rax
	movq	8(%rax), %rax
	.loc 1 652 6
	testq	%rax, %rax
	je	.L9
	.loc 1 653 10
	movq	-160(%rbp), %rax
	movq	8(%rax), %rax
	movq	%rax, -168(%rbp)
.L9:
	.loc 1 655 11
	leaq	.LC10(%rip), %rdi
	call	gettext@PLT
	.loc 1 655 3
	leaq	.LC11(%rip), %rdx
	leaq	.LC12(%rip), %rsi
	movq	%rax, %rdi
	movl	$0, %eax
	call	printf@PLT
	.loc 1 659 29
	movl	$0, %esi
	movl	$5, %edi
	call	setlocale@PLT
	movq	%rax, -152(%rbp)
	.loc 1 660 6
	cmpq	$0, -152(%rbp)
	je	.L10
	.loc 1 660 22 discriminator 1
	movq	-152(%rbp), %rax
	movl	$3, %edx
	leaq	.LC13(%rip), %rsi
	movq	%rax, %rdi
	call	strncmp@PLT
	.loc 1 660 19 discriminator 1
	testl	%eax, %eax
	je	.L10
	.loc 1 666 7
	movq	stdout(%rip), %rbx
	leaq	.LC14(%rip), %rdi
	call	gettext@PLT
	movq	%rbx, %rsi
	movq	%rax, %rdi
	call	fputs_unlocked@PLT
.L10:
	.loc 1 669 11
	leaq	.LC15(%rip), %rdi
	call	gettext@PLT
	movq	%rax, %rcx
	.loc 1 669 3
	movq	-184(%rbp), %rax
	movq	%rax, %rdx
	leaq	.LC11(%rip), %rsi
	movq	%rcx, %rdi
	movl	$0, %eax
	call	printf@PLT
	.loc 1 671 3
	movq	-168(%rbp), %rax
	cmpq	-184(%rbp), %rax
	jne	.L11
	.loc 1 671 3 is_stmt 0 discriminator 1
	leaq	.LC16(%rip), %rbx
	jmp	.L12
.L11:
	.loc 1 671 3 discriminator 2
	leaq	.LC17(%rip), %rbx
.L12:
	.loc 1 671 11 is_stmt 1 discriminator 4
	leaq	.LC18(%rip), %rdi
	call	gettext@PLT
	movq	%rax, %rcx
	.loc 1 671 3 discriminator 4
	movq	-168(%rbp), %rax
	movq	%rbx, %rdx
	movq	%rax, %rsi
	movq	%rcx, %rdi
	movl	$0, %eax
	call	printf@PLT
	.loc 1 673 1 discriminator 4
	nop
	movq	-24(%rbp), %rax
	xorq	%fs:40, %rax
	je	.L13
	.loc 1 673 1 is_stmt 0
	call	__stack_chk_fail@PLT
.L13:
	addq	$184, %rsp
	popq	%rbx
	popq	%rbp
	.cfi_def_cfa 7, 8
	ret
	.cfi_endproc
.LFE40:
	.size	emit_ancillary_info, .-emit_ancillary_info
	.local	program_path
	.comm	program_path,8,8
	.local	stdbuf
	.comm	stdbuf,72,32
	.section	.rodata
.LC19:
	.string	"input"
.LC20:
	.string	"output"
.LC21:
	.string	"error"
.LC22:
	.string	"help"
.LC23:
	.string	"version"
	.section	.data.rel.ro.local,"aw"
	.align 32
	.type	longopts, @object
	.size	longopts, 192
longopts:
	.quad	.LC19
	.long	1
	.zero	4
	.quad	0
	.long	105
	.zero	4
	.quad	.LC20
	.long	1
	.zero	4
	.quad	0
	.long	111
	.zero	4
	.quad	.LC21
	.long	1
	.zero	4
	.quad	0
	.long	101
	.zero	4
	.quad	.LC22
	.long	0
	.zero	4
	.quad	0
	.long	-130
	.zero	4
	.quad	.LC23
	.long	0
	.zero	4
	.quad	0
	.long	-131
	.zero	4
	.quad	0
	.long	0
	.zero	4
	.quad	0
	.long	0
	.zero	4
	.section	.rodata
.LC24:
	.string	"EGkKMPTYZ0"
	.text
	.type	parse_size, @function
parse_size:
.LFB61:
	.file 2 "src/stdbuf.c"
	.loc 2 67 1 is_stmt 1
	.cfi_startproc
	endbr64
	pushq	%rbp
	.cfi_def_cfa_offset 16
	.cfi_offset 6, -16
	movq	%rsp, %rbp
	.cfi_def_cfa_register 6
	pushq	%rbx
	subq	$56, %rsp
	.cfi_offset 3, -24
	movq	%rdi, -56(%rbp)
	movq	%rsi, -64(%rbp)
	.loc 2 67 1
	movq	%fs:40, %rax
	movq	%rax, -24(%rbp)
	xorl	%eax, %eax
	.loc 2 69 25
	leaq	-32(%rbp), %rdx
	movq	-56(%rbp), %rax
	leaq	.LC24(%rip), %r8
	movq	%rdx, %rcx
	movl	$10, %edx
	movl	$0, %esi
	movq	%rax, %rdi
	call	xstrtoumax@PLT
	movl	%eax, -36(%rbp)
	.loc 2 73 6
	cmpl	$0, -36(%rbp)
	jne	.L15
	.loc 2 75 7
	call	__errno_location@PLT
	.loc 2 75 13
	movl	$0, (%rax)
	.loc 2 76 13
	movq	-32(%rbp), %rdx
	movq	-64(%rbp), %rax
	movq	%rdx, (%rax)
	.loc 2 77 14
	movl	$0, %eax
	jmp	.L19
.L15:
	.loc 2 80 46
	cmpl	$1, -36(%rbp)
	je	.L17
	.loc 2 80 48 discriminator 1
	call	__errno_location@PLT
	.loc 2 80 46 discriminator 1
	movl	(%rax), %ebx
	jmp	.L18
.L17:
	.loc 2 80 46 is_stmt 0 discriminator 2
	movl	$75, %ebx
.L18:
	.loc 2 80 3 is_stmt 1 discriminator 4
	call	__errno_location@PLT
	.loc 2 80 9 discriminator 4
	movl	%ebx, (%rax)
	.loc 2 81 10 discriminator 4
	movl	$-1, %eax
.L19:
	.loc 2 82 1 discriminator 1
	movq	-24(%rbp), %rcx
	xorq	%fs:40, %rcx
	je	.L20
	.loc 2 82 1 is_stmt 0
	call	__stack_chk_fail@PLT
.L20:
	addq	$56, %rsp
	popq	%rbx
	popq	%rbp
	.cfi_def_cfa 7, 8
	ret
	.cfi_endproc
.LFE61:
	.size	parse_size, .-parse_size
	.section	.rodata
	.align 8
.LC25:
	.string	"Try '%s --help' for more information.\n"
.LC26:
	.string	"Usage: %s OPTION... COMMAND\n"
	.align 8
.LC27:
	.string	"Run COMMAND, with modified buffering operations for its standard streams.\n"
	.align 8
.LC28:
	.string	"  -i, --input=MODE   adjust standard input stream buffering\n  -o, --output=MODE  adjust standard output stream buffering\n  -e, --error=MODE   adjust standard error stream buffering\n"
	.align 8
.LC29:
	.string	"      --help     display this help and exit\n"
	.align 8
.LC30:
	.string	"      --version  output version information and exit\n"
	.align 8
.LC31:
	.string	"\nIf MODE is 'L' the corresponding stream will be line buffered.\nThis option is invalid with standard input.\n"
	.align 8
.LC32:
	.string	"\nIf MODE is '0' the corresponding stream will be unbuffered.\n"
	.align 8
.LC33:
	.ascii	"\nOtherwise MODE is a number which may be followed by on"
	.string	"e of the following:\nKB 1000, K 1024, MB 1000*1000, M 1024*1024, and so on for G, T, P, E, Z, Y.\nBinary prefixes can be used, too: KiB=K, MiB=M, and so on.\nIn this case the corresponding stream will be fully buffered with the buffer\nsize set to MODE bytes.\n"
	.align 8
.LC34:
	.ascii	"\nNOTE: If "
	.string	"COMMAND adjusts the buffering of its standard streams ('tee' does\nfor example) then that will override corresponding changes by 'stdbuf'.\nAlso some filters (like 'dd' and 'cat' etc.) don't use streams for I/O,\nand are thus unaffected by 'stdbuf' settings.\n"
.LC35:
	.string	"stdbuf"
	.text
	.globl	usage
	.type	usage, @function
usage:
.LFB62:
	.loc 2 86 1 is_stmt 1
	.cfi_startproc
	endbr64
	pushq	%rbp
	.cfi_def_cfa_offset 16
	.cfi_offset 6, -16
	movq	%rsp, %rbp
	.cfi_def_cfa_register 6
	pushq	%rbx
	subq	$24, %rsp
	.cfi_offset 3, -24
	movl	%edi, -20(%rbp)
	.loc 2 87 6
	cmpl	$0, -20(%rbp)
	je	.L22
	.loc 2 88 5
	movq	program_name(%rip), %rbx
	leaq	.LC25(%rip), %rdi
	call	gettext@PLT
	movq	%rax, %rcx
	movq	stderr(%rip), %rax
	movq	%rbx, %rdx
	movq	%rcx, %rsi
	movq	%rax, %rdi
	movl	$0, %eax
	call	fprintf@PLT
	jmp	.L23
.L22:
	.loc 2 91 7
	movq	program_name(%rip), %rbx
	.loc 2 91 15
	leaq	.LC26(%rip), %rdi
	call	gettext@PLT
	.loc 2 91 7
	movq	%rbx, %rsi
	movq	%rax, %rdi
	movl	$0, %eax
	call	printf@PLT
	.loc 2 92 7
	movq	stdout(%rip), %rbx
	leaq	.LC27(%rip), %rdi
	call	gettext@PLT
	movq	%rbx, %rsi
	movq	%rax, %rdi
	call	fputs_unlocked@PLT
	.loc 2 96 7
	call	emit_mandatory_arg_note
	.loc 2 98 7
	movq	stdout(%rip), %rbx
	leaq	.LC28(%rip), %rdi
	call	gettext@PLT
	movq	%rbx, %rsi
	movq	%rax, %rdi
	call	fputs_unlocked@PLT
	.loc 2 103 7
	movq	stdout(%rip), %rbx
	leaq	.LC29(%rip), %rdi
	call	gettext@PLT
	movq	%rbx, %rsi
	movq	%rax, %rdi
	call	fputs_unlocked@PLT
	.loc 2 104 7
	movq	stdout(%rip), %rbx
	leaq	.LC30(%rip), %rdi
	call	gettext@PLT
	movq	%rbx, %rsi
	movq	%rax, %rdi
	call	fputs_unlocked@PLT
	.loc 2 105 7
	movq	stdout(%rip), %rbx
	leaq	.LC31(%rip), %rdi
	call	gettext@PLT
	movq	%rbx, %rsi
	movq	%rax, %rdi
	call	fputs_unlocked@PLT
	.loc 2 108 7
	movq	stdout(%rip), %rbx
	leaq	.LC32(%rip), %rdi
	call	gettext@PLT
	movq	%rbx, %rsi
	movq	%rax, %rdi
	call	fputs_unlocked@PLT
	.loc 2 111 7
	movq	stdout(%rip), %rbx
	leaq	.LC33(%rip), %rdi
	call	gettext@PLT
	movq	%rbx, %rsi
	movq	%rax, %rdi
	call	fputs_unlocked@PLT
	.loc 2 118 7
	movq	stdout(%rip), %rbx
	leaq	.LC34(%rip), %rdi
	call	gettext@PLT
	movq	%rbx, %rsi
	movq	%rax, %rdi
	call	fputs_unlocked@PLT
	.loc 2 124 7
	leaq	.LC35(%rip), %rdi
	call	emit_ancillary_info
.L23:
	.loc 2 126 3
	movl	-20(%rbp), %eax
	movl	%eax, %edi
	call	exit@PLT
	.cfi_endproc
.LFE62:
	.size	usage, .-usage
	.section	.rodata
.LC36:
	.string	"/proc/self/exe"
.LC37:
	.string	"PATH"
.LC38:
	.string	":"
	.text
	.type	set_program_path, @function
set_program_path:
.LFB63:
	.loc 2 137 1
	.cfi_startproc
	endbr64
	pushq	%rbp
	.cfi_def_cfa_offset 16
	.cfi_offset 6, -16
	movq	%rsp, %rbp
	.cfi_def_cfa_register 6
	subq	$48, %rsp
	movq	%rdi, -40(%rbp)
	.loc 2 138 7
	movq	-40(%rbp), %rax
	movl	$47, %esi
	movq	%rax, %rdi
	call	strchr@PLT
	.loc 2 138 6
	testq	%rax, %rax
	je	.L25
	.loc 2 140 22
	movq	-40(%rbp), %rax
	movq	%rax, %rdi
	call	dir_name@PLT
	.loc 2 140 20
	movq	%rax, program_path(%rip)
	.loc 2 165 1
	jmp	.L32
.L25:
.LBB2:
	.loc 2 144 20
	leaq	.LC36(%rip), %rdi
	call	xreadlink@PLT
	movq	%rax, -24(%rbp)
	.loc 2 145 10
	cmpq	$0, -24(%rbp)
	je	.L27
	.loc 2 146 24
	movq	-24(%rbp), %rax
	movq	%rax, %rdi
	call	dir_name@PLT
	.loc 2 146 22
	movq	%rax, program_path(%rip)
	jmp	.L28
.L27:
	.loc 2 147 24
	leaq	.LC37(%rip), %rdi
	call	getenv@PLT
	movq	%rax, -24(%rbp)
	.loc 2 147 15
	cmpq	$0, -24(%rbp)
	je	.L28
.LBB3:
	.loc 2 150 18
	movq	-24(%rbp), %rax
	movq	%rax, %rdi
	call	xstrdup@PLT
	movq	%rax, -24(%rbp)
	.loc 2 151 22
	movq	-24(%rbp), %rax
	leaq	.LC38(%rip), %rsi
	movq	%rax, %rdi
	call	strtok@PLT
	movq	%rax, -16(%rbp)
	.loc 2 151 11
	jmp	.L29
.L31:
.LBB4:
	.loc 2 153 33
	movq	-40(%rbp), %rcx
	movq	-16(%rbp), %rax
	movl	$0, %edx
	movq	%rcx, %rsi
	movq	%rax, %rdi
	call	file_name_concat@PLT
	movq	%rax, -8(%rbp)
	.loc 2 154 19
	movq	-8(%rbp), %rax
	movl	$1, %esi
	movq	%rax, %rdi
	call	access@PLT
	.loc 2 154 18
	testl	%eax, %eax
	jne	.L30
	.loc 2 156 34
	movq	-8(%rbp), %rax
	movq	%rax, %rdi
	call	dir_name@PLT
	.loc 2 156 32
	movq	%rax, program_path(%rip)
	.loc 2 157 19
	movq	-8(%rbp), %rax
	movq	%rax, %rdi
	call	free@PLT
	.loc 2 158 19
	jmp	.L28
.L30:
	.loc 2 160 15 discriminator 2
	movq	-8(%rbp), %rax
	movq	%rax, %rdi
	call	free@PLT
.LBE4:
	.loc 2 151 61 discriminator 2
	leaq	.LC38(%rip), %rsi
	movl	$0, %edi
	call	strtok@PLT
	movq	%rax, -16(%rbp)
.L29:
	.loc 2 151 11 discriminator 1
	cmpq	$0, -16(%rbp)
	jne	.L31
.L28:
.LBE3:
	.loc 2 163 7
	movq	-24(%rbp), %rax
	movq	%rax, %rdi
	call	free@PLT
.L32:
.LBE2:
	.loc 2 165 1
	nop
	leave
	.cfi_def_cfa 7, 8
	ret
	.cfi_endproc
.LFE63:
	.size	set_program_path, .-set_program_path
	.type	optc_to_fileno, @function
optc_to_fileno:
.LFB64:
	.loc 2 169 1
	.cfi_startproc
	endbr64
	pushq	%rbp
	.cfi_def_cfa_offset 16
	.cfi_offset 6, -16
	movq	%rsp, %rbp
	.cfi_def_cfa_register 6
	movl	%edi, -20(%rbp)
	.loc 2 170 7
	movl	$-1, -4(%rbp)
	.loc 2 172 3
	cmpl	$111, -20(%rbp)
	je	.L34
	cmpl	$111, -20(%rbp)
	jg	.L35
	cmpl	$101, -20(%rbp)
	je	.L36
	cmpl	$105, -20(%rbp)
	je	.L37
	jmp	.L35
.L36:
	.loc 2 175 11
	movl	$2, -4(%rbp)
	.loc 2 176 7
	jmp	.L35
.L37:
	.loc 2 178 11
	movl	$0, -4(%rbp)
	.loc 2 179 7
	jmp	.L35
.L34:
	.loc 2 181 11
	movl	$1, -4(%rbp)
	.loc 2 182 7
	nop
.L35:
	.loc 2 185 10
	movl	-4(%rbp), %eax
	.loc 2 186 1
	popq	%rbp
	.cfi_def_cfa 7, 8
	ret
	.cfi_endproc
.LFE64:
	.size	optc_to_fileno, .-optc_to_fileno
	.section	.rodata
.LC39:
	.string	"LD_PRELOAD"
.LC40:
	.string	"/usr/local/libexec/coreutils"
.LC41:
	.string	"libstdbuf.so"
.LC42:
	.string	"%s/%s"
.LC43:
	.string	"failed to find %s"
.LC44:
	.string	"%s=%s:%s"
.LC45:
	.string	"%s=%s"
	.align 8
.LC46:
	.string	"failed to update the environment with %s"
	.text
	.type	set_LD_PRELOAD, @function
set_LD_PRELOAD:
.LFB65:
	.loc 2 190 1
	.cfi_startproc
	endbr64
	pushq	%rbp
	.cfi_def_cfa_offset 16
	.cfi_offset 6, -16
	movq	%rsp, %rbp
	.cfi_def_cfa_register 6
	pushq	%r12
	pushq	%rbx
	subq	$240, %rsp
	.cfi_offset 12, -24
	.cfi_offset 3, -32
	.loc 2 190 1
	movq	%fs:40, %rax
	movq	%rax, -24(%rbp)
	xorl	%eax, %eax
	.loc 2 195 15
	leaq	.LC39(%rip), %rax
	movq	%rax, -224(%rbp)
	.loc 2 197 20
	movq	-224(%rbp), %rax
	movq	%rax, %rdi
	call	getenv@PLT
	movq	%rax, -216(%rbp)
	.loc 2 216 21
	movq	program_path(%rip), %rax
	movq	%rax, -208(%rbp)
	leaq	.LC40(%rip), %rax
	movq	%rax, -200(%rbp)
	movq	$0, -192(%rbp)
	.loc 2 222 22
	leaq	-208(%rbp), %rax
	movq	%rax, -232(%rbp)
.L45:
.LBB5:
	.loc 2 229 13
	movq	-232(%rbp), %rax
	movq	(%rax), %rax
	.loc 2 229 12
	movzbl	(%rax), %eax
	.loc 2 229 10
	testb	%al, %al
	jne	.L40
	.loc 2 231 23
	leaq	.LC41(%rip), %rdi
	call	xstrdup@PLT
	.loc 2 231 21
	movq	%rax, -240(%rbp)
	.loc 2 232 11
	jmp	.L41
.L40:
	.loc 2 234 13
	movq	-232(%rbp), %rax
	movq	(%rax), %rdx
	leaq	-240(%rbp), %rax
	leaq	.LC41(%rip), %rcx
	leaq	.LC42(%rip), %rsi
	movq	%rax, %rdi
	movl	$0, %eax
	call	rpl_asprintf@PLT
	movl	%eax, -252(%rbp)
	.loc 2 235 10
	cmpl	$0, -252(%rbp)
	jns	.L42
	.loc 2 236 9
	call	xalloc_die@PLT
.L42:
	.loc 2 237 11
	movq	-240(%rbp), %rax
	leaq	-176(%rbp), %rdx
	movq	%rdx, %rsi
	movq	%rax, %rdi
	call	stat@PLT
	.loc 2 237 10
	testl	%eax, %eax
	je	.L51
	.loc 2 239 7
	movq	-240(%rbp), %rax
	movq	%rax, %rdi
	call	free@PLT
	.loc 2 241 7
	addq	$8, -232(%rbp)
	.loc 2 242 14
	movq	-232(%rbp), %rax
	movq	(%rax), %rax
	.loc 2 242 10
	testq	%rax, %rax
	jne	.L45
.LBB6:
	.loc 2 243 9
	leaq	.LC41(%rip), %rdi
	call	quote@PLT
	movq	%rax, %rbx
	leaq	.LC43(%rip), %rdi
	call	gettext@PLT
	movq	%rbx, %rcx
	movq	%rax, %rdx
	movl	$0, %esi
	movl	$125, %edi
	movl	$0, %eax
	call	error@PLT
.L51:
.LBE6:
	.loc 2 238 9
	nop
.L41:
.LBE5:
	.loc 2 248 6
	cmpq	$0, -216(%rbp)
	je	.L46
	.loc 2 249 11
	movq	-240(%rbp), %rsi
	movq	-216(%rbp), %rcx
	movq	-224(%rbp), %rdx
	leaq	-248(%rbp), %rax
	movq	%rsi, %r8
	leaq	.LC44(%rip), %rsi
	movq	%rax, %rdi
	movl	$0, %eax
	call	rpl_asprintf@PLT
	movl	%eax, -252(%rbp)
	jmp	.L47
.L46:
	.loc 2 251 11
	movq	-240(%rbp), %rcx
	movq	-224(%rbp), %rdx
	leaq	-248(%rbp), %rax
	leaq	.LC45(%rip), %rsi
	movq	%rax, %rdi
	movl	$0, %eax
	call	rpl_asprintf@PLT
	movl	%eax, -252(%rbp)
.L47:
	.loc 2 253 6
	cmpl	$0, -252(%rbp)
	jns	.L48
	.loc 2 254 5
	call	xalloc_die@PLT
.L48:
	.loc 2 256 3
	movq	-240(%rbp), %rax
	movq	%rax, %rdi
	call	free@PLT
	.loc 2 258 9
	movq	-248(%rbp), %rax
	movq	%rax, %rdi
	call	putenv@PLT
	movl	%eax, -252(%rbp)
	.loc 2 264 6
	cmpl	$0, -252(%rbp)
	je	.L52
.LBB7:
	.loc 2 266 7
	movq	-248(%rbp), %rax
	movq	%rax, %rdi
	call	quote@PLT
	movq	%rax, %r12
	leaq	.LC46(%rip), %rdi
	call	gettext@PLT
	movq	%rax, %rbx
	call	__errno_location@PLT
	movl	(%rax), %eax
	movq	%r12, %rcx
	movq	%rbx, %rdx
	movl	%eax, %esi
	movl	$125, %edi
	movl	$0, %eax
	call	error@PLT
.L52:
.LBE7:
	.loc 2 270 1
	nop
	movq	-24(%rbp), %rax
	xorq	%fs:40, %rax
	je	.L50
	call	__stack_chk_fail@PLT
.L50:
	addq	$240, %rsp
	popq	%rbx
	popq	%r12
	popq	%rbp
	.cfi_def_cfa 7, 8
	ret
	.cfi_endproc
.LFE65:
	.size	set_LD_PRELOAD, .-set_LD_PRELOAD
	.section	.rodata
.LC47:
	.string	"_STDBUF_"
.LC48:
	.string	"%s%c=L"
.LC49:
	.string	"%s%c=%lu"
	.text
	.type	set_libstdbuf_options, @function
set_libstdbuf_options:
.LFB66:
	.loc 2 277 1
	.cfi_startproc
	endbr64
	pushq	%rbp
	.cfi_def_cfa_offset 16
	.cfi_offset 6, -16
	movq	%rsp, %rbp
	.cfi_def_cfa_register 6
	pushq	%r12
	pushq	%rbx
	subq	$32, %rsp
	.cfi_offset 12, -24
	.cfi_offset 3, -32
	.loc 2 277 1
	movq	%fs:40, %rax
	movq	%rax, -24(%rbp)
	xorl	%eax, %eax
	.loc 2 278 8
	movb	$0, -45(%rbp)
.LBB8:
	.loc 2 280 15
	movq	$0, -32(%rbp)
	.loc 2 280 3
	jmp	.L54
.L60:
	.loc 2 282 20
	movq	-32(%rbp), %rdx
	movq	%rdx, %rax
	addq	%rax, %rax
	addq	%rdx, %rax
	salq	$3, %rax
	movq	%rax, %rdx
	leaq	16+stdbuf(%rip), %rax
	movq	(%rdx,%rax), %rax
	.loc 2 282 10
	testq	%rax, %rax
	je	.L55
.LBB9:
	.loc 2 287 25
	movq	-32(%rbp), %rdx
	movq	%rdx, %rax
	addq	%rax, %rax
	addq	%rdx, %rax
	salq	$3, %rax
	movq	%rax, %rdx
	leaq	16+stdbuf(%rip), %rax
	movq	(%rdx,%rax), %rax
	.loc 2 287 15
	movzbl	(%rax), %eax
	.loc 2 287 14
	cmpb	$76, %al
	jne	.L56
	.loc 2 288 19
	movq	-32(%rbp), %rdx
	movq	%rdx, %rax
	addq	%rax, %rax
	addq	%rdx, %rax
	salq	$3, %rax
	movq	%rax, %rdx
	leaq	8+stdbuf(%rip), %rax
	movl	(%rdx,%rax), %eax
	movl	%eax, %edi
	call	toupper@PLT
	movl	%eax, %edx
	leaq	-40(%rbp), %rax
	movl	%edx, %ecx
	leaq	.LC47(%rip), %rdx
	leaq	.LC48(%rip), %rsi
	movq	%rax, %rdi
	movl	$0, %eax
	call	rpl_asprintf@PLT
	movl	%eax, -44(%rbp)
	jmp	.L57
.L56:
	.loc 2 293 50
	movq	-32(%rbp), %rdx
	movq	%rdx, %rax
	addq	%rax, %rax
	addq	%rdx, %rax
	salq	$3, %rax
	movq	%rax, %rdx
	leaq	stdbuf(%rip), %rax
	movq	(%rdx,%rax), %rbx
	.loc 2 291 19
	movq	-32(%rbp), %rdx
	movq	%rdx, %rax
	addq	%rax, %rax
	addq	%rdx, %rax
	salq	$3, %rax
	movq	%rax, %rdx
	leaq	8+stdbuf(%rip), %rax
	movl	(%rdx,%rax), %eax
	movl	%eax, %edi
	call	toupper@PLT
	movl	%eax, %edx
	leaq	-40(%rbp), %rax
	movq	%rbx, %r8
	movl	%edx, %ecx
	leaq	.LC47(%rip), %rdx
	leaq	.LC49(%rip), %rsi
	movq	%rax, %rdi
	movl	$0, %eax
	call	rpl_asprintf@PLT
	movl	%eax, -44(%rbp)
.L57:
	.loc 2 294 14
	cmpl	$0, -44(%rbp)
	jns	.L58
	.loc 2 295 13
	call	xalloc_die@PLT
.L58:
	.loc 2 297 15
	movq	-40(%rbp), %rax
	movq	%rax, %rdi
	call	putenv@PLT
	.loc 2 297 14
	testl	%eax, %eax
	je	.L59
.LBB10:
	.loc 2 299 15
	movq	-40(%rbp), %rax
	movq	%rax, %rdi
	call	quote@PLT
	movq	%rax, %r12
	leaq	.LC46(%rip), %rdi
	call	gettext@PLT
	movq	%rax, %rbx
	call	__errno_location@PLT
	movl	(%rax), %eax
	movq	%r12, %rcx
	movq	%rbx, %rdx
	movl	%eax, %esi
	movl	$125, %edi
	movl	$0, %eax
	call	error@PLT
.L59:
.LBE10:
	.loc 2 304 19
	movb	$1, -45(%rbp)
.L55:
.LBE9:
	.loc 2 280 55 discriminator 2
	addq	$1, -32(%rbp)
.L54:
	.loc 2 280 3 discriminator 1
	cmpq	$2, -32(%rbp)
	jbe	.L60
.LBE8:
	.loc 2 308 10
	movzbl	-45(%rbp), %eax
	.loc 2 309 1
	movq	-24(%rbp), %rcx
	xorq	%fs:40, %rcx
	je	.L62
	call	__stack_chk_fail@PLT
.L62:
	addq	$32, %rsp
	popq	%rbx
	popq	%r12
	popq	%rbp
	.cfi_def_cfa 7, 8
	ret
	.cfi_endproc
.LFE66:
	.size	set_libstdbuf_options, .-set_libstdbuf_options
	.section	.rodata
.LC50:
	.string	"/usr/local/share/locale"
.LC51:
	.string	"src/stdbuf.c"
	.align 8
.LC52:
	.string	"0 <= opt_fileno && opt_fileno < ARRAY_CARDINALITY (stdbuf)"
	.align 8
.LC53:
	.string	"line buffering stdin is meaningless"
.LC54:
	.string	"L"
.LC55:
	.string	"invalid mode %s"
.LC56:
	.string	"Padraig Brady"
.LC57:
	.string	"+i:o:e:"
.LC58:
	.string	"missing operand"
	.align 8
.LC59:
	.string	"you must specify a buffering mode option"
.LC60:
	.string	"/usr/local/lib/coreutils"
.LC61:
	.string	"failed to run command %s"
	.text
	.globl	main
	.type	main, @function
main:
.LFB67:
	.loc 2 313 1
	.cfi_startproc
	endbr64
	pushq	%rbp
	.cfi_def_cfa_offset 16
	.cfi_offset 6, -16
	movq	%rsp, %rbp
	.cfi_def_cfa_register 6
	pushq	%r12
	pushq	%rbx
	subq	$32, %rsp
	.cfi_offset 12, -24
	.cfi_offset 3, -32
	movl	%edi, -36(%rbp)
	movq	%rsi, -48(%rbp)
	.loc 2 317 3
	movq	-48(%rbp), %rax
	movq	(%rax), %rax
	movq	%rax, %rdi
	call	set_program_name@PLT
	.loc 2 318 3
	leaq	.LC17(%rip), %rsi
	movl	$6, %edi
	call	setlocale@PLT
	.loc 2 319 3
	leaq	.LC50(%rip), %rsi
	leaq	.LC3(%rip), %rdi
	call	bindtextdomain@PLT
	.loc 2 320 3
	leaq	.LC3(%rip), %rdi
	call	textdomain@PLT
	.loc 2 322 3
	movl	$125, %edi
	call	initialize_exit_failure
	.loc 2 323 3
	movq	close_stdout@GOTPCREL(%rip), %rax
	movq	%rax, %rdi
	call	atexit@PLT
	.loc 2 325 9
	jmp	.L64
.L75:
.LBB11:
	.loc 2 329 7
	cmpl	$111, -28(%rbp)
	jg	.L65
	cmpl	$101, -28(%rbp)
	jge	.L66
	cmpl	$-131, -28(%rbp)
	je	.L67
	cmpl	$-130, -28(%rbp)
	je	.L68
	jmp	.L65
.L66:
	movl	-28(%rbp), %eax
	subl	$101, %eax
	movl	$1, %edx
	movl	%eax, %ecx
	salq	%cl, %rdx
	movq	%rdx, %rax
	andl	$1041, %eax
	testq	%rax, %rax
	setne	%al
	testb	%al, %al
	je	.L65
	.loc 2 335 24
	movl	-28(%rbp), %eax
	movl	%eax, %edi
	call	optc_to_fileno
	movl	%eax, -20(%rbp)
	.loc 2 336 11
	cmpl	$0, -20(%rbp)
	js	.L69
	.loc 2 336 11 is_stmt 0 discriminator 1
	movl	-20(%rbp), %eax
	cmpl	$2, %eax
	jbe	.L82
.L69:
	.loc 2 336 11 discriminator 3
	leaq	__PRETTY_FUNCTION__.7056(%rip), %rcx
	movl	$336, %edx
	leaq	.LC51(%rip), %rsi
	leaq	.LC52(%rip), %rdi
	call	__assert_fail@PLT
.L82:
	.loc 2 337 35 is_stmt 1
	movl	-20(%rbp), %eax
	movslq	%eax, %rdx
	movq	%rdx, %rax
	addq	%rax, %rax
	addq	%rdx, %rax
	salq	$3, %rax
	movq	%rax, %rcx
	leaq	8+stdbuf(%rip), %rdx
	movl	-28(%rbp), %eax
	movl	%eax, (%rcx,%rdx)
	.loc 2 338 17
	jmp	.L71
.L72:
	.loc 2 339 19
	movq	optarg(%rip), %rax
	addq	$1, %rax
	movq	%rax, optarg(%rip)
.L71:
	.loc 2 338 29
	movq	optarg(%rip), %rax
	movzbl	(%rax), %eax
	.loc 2 338 18
	movsbl	%al, %eax
	movl	%eax, %edi
	call	c_isspace@PLT
	.loc 2 338 17
	testb	%al, %al
	jne	.L72
	.loc 2 340 37
	movq	optarg(%rip), %rcx
	movl	-20(%rbp), %eax
	movslq	%eax, %rdx
	movq	%rdx, %rax
	addq	%rax, %rax
	addq	%rdx, %rax
	salq	$3, %rax
	movq	%rax, %rdx
	leaq	16+stdbuf(%rip), %rax
	movq	%rcx, (%rdx,%rax)
	.loc 2 341 14
	cmpl	$105, -28(%rbp)
	jne	.L73
	.loc 2 341 27 discriminator 1
	movq	optarg(%rip), %rax
	movzbl	(%rax), %eax
	.loc 2 341 24 discriminator 1
	cmpb	$76, %al
	jne	.L73
	.loc 2 346 28
	leaq	.LC53(%rip), %rdi
	call	gettext@PLT
	.loc 2 346 15
	movq	%rax, %rdx
	movl	$0, %esi
	movl	$0, %edi
	movl	$0, %eax
	call	error@PLT
	.loc 2 347 15
	movl	$125, %edi
	call	usage
.L73:
	.loc 2 350 16
	movq	optarg(%rip), %rax
	leaq	.LC54(%rip), %rsi
	movq	%rax, %rdi
	call	strcmp@PLT
	.loc 2 350 14
	testl	%eax, %eax
	je	.L64
	.loc 2 351 18
	movl	-20(%rbp), %eax
	movslq	%eax, %rdx
	movq	%rdx, %rax
	addq	%rax, %rax
	addq	%rdx, %rax
	salq	$3, %rax
	leaq	stdbuf(%rip), %rdx
	addq	%rax, %rdx
	movq	optarg(%rip), %rax
	movq	%rdx, %rsi
	movq	%rax, %rdi
	call	parse_size
	.loc 2 351 15
	cmpl	$-1, %eax
	jne	.L64
.LBB12:
	.loc 2 352 13
	movq	optarg(%rip), %rax
	movq	%rax, %rdi
	call	quote@PLT
	movq	%rax, %r12
	leaq	.LC55(%rip), %rdi
	call	gettext@PLT
	movq	%rax, %rbx
	call	__errno_location@PLT
	movl	(%rax), %eax
	movq	%r12, %rcx
	movq	%rbx, %rdx
	movl	%eax, %esi
	movl	$125, %edi
	movl	$0, %eax
	call	error@PLT
.L68:
.LBE12:
	.loc 2 356 9
	movl	$0, %edi
	call	usage
.L67:
	.loc 2 358 9
	movq	Version(%rip), %rdx
	movq	stdout(%rip), %rax
	movl	$0, %r9d
	leaq	.LC56(%rip), %r8
	movq	%rdx, %rcx
	leaq	.LC12(%rip), %rdx
	leaq	.LC35(%rip), %rsi
	movq	%rax, %rdi
	movl	$0, %eax
	call	version_etc@PLT
	movl	$0, %edi
	call	exit@PLT
.L65:
	.loc 2 361 11
	movl	$125, %edi
	call	usage
.L64:
.LBE11:
	.loc 2 325 15
	movq	-48(%rbp), %rsi
	movl	-36(%rbp), %eax
	movl	$0, %r8d
	leaq	longopts(%rip), %rcx
	leaq	.LC57(%rip), %rdx
	movl	%eax, %edi
	call	getopt_long@PLT
	movl	%eax, -28(%rbp)
	.loc 2 325 9
	cmpl	$-1, -28(%rbp)
	jne	.L75
	.loc 2 365 8
	movl	optind(%rip), %eax
	cltq
	salq	$3, %rax
	addq	%rax, -48(%rbp)
	.loc 2 366 8
	movl	optind(%rip), %eax
	subl	%eax, -36(%rbp)
	.loc 2 369 6
	cmpl	$0, -36(%rbp)
	jg	.L76
	.loc 2 371 20
	leaq	.LC58(%rip), %rdi
	call	gettext@PLT
	.loc 2 371 7
	movq	%rax, %rdx
	movl	$0, %esi
	movl	$0, %edi
	movl	$0, %eax
	call	error@PLT
	.loc 2 372 7
	movl	$125, %edi
	call	usage
.L76:
	.loc 2 375 9
	call	set_libstdbuf_options
	.loc 2 375 7
	xorl	$1, %eax
	.loc 2 375 6
	testb	%al, %al
	je	.L77
	.loc 2 377 20
	leaq	.LC59(%rip), %rdi
	call	gettext@PLT
	.loc 2 377 7
	movq	%rax, %rdx
	movl	$0, %esi
	movl	$0, %edi
	movl	$0, %eax
	call	error@PLT
	.loc 2 378 7
	movl	$125, %edi
	call	usage
.L77:
	.loc 2 383 3
	movq	program_name(%rip), %rax
	movq	%rax, %rdi
	call	set_program_path
	.loc 2 384 7
	movq	program_path(%rip), %rax
	.loc 2 384 6
	testq	%rax, %rax
	jne	.L78
	.loc 2 385 20
	leaq	.LC60(%rip), %rdi
	call	xstrdup@PLT
	.loc 2 385 18
	movq	%rax, program_path(%rip)
.L78:
	.loc 2 386 3
	call	set_LD_PRELOAD
	.loc 2 387 3
	movq	program_path(%rip), %rax
	movq	%rax, %rdi
	call	free@PLT
	.loc 2 389 3
	movq	-48(%rbp), %rax
	movq	(%rax), %rax
	movq	-48(%rbp), %rdx
	movq	%rdx, %rsi
	movq	%rax, %rdi
	call	execvp@PLT
	.loc 2 391 21
	call	__errno_location@PLT
	movl	(%rax), %eax
	.loc 2 391 51
	cmpl	$2, %eax
	jne	.L79
	.loc 2 391 51 is_stmt 0 discriminator 1
	movl	$127, %eax
	jmp	.L80
.L79:
	.loc 2 391 51 discriminator 2
	movl	$126, %eax
.L80:
	.loc 2 391 7 is_stmt 1 discriminator 4
	movl	%eax, -24(%rbp)
	.loc 2 392 3 discriminator 4
	movq	-48(%rbp), %rax
	movq	(%rax), %rax
	movq	%rax, %rdi
	call	quote@PLT
	movq	%rax, %r12
	.loc 2 392 20 discriminator 4
	leaq	.LC61(%rip), %rdi
	call	gettext@PLT
	movq	%rax, %rbx
	.loc 2 392 13 discriminator 4
	call	__errno_location@PLT
	.loc 2 392 3 discriminator 4
	movl	(%rax), %eax
	movq	%r12, %rcx
	movq	%rbx, %rdx
	movl	%eax, %esi
	movl	$0, %edi
	movl	$0, %eax
	call	error@PLT
	.loc 2 393 10 discriminator 4
	movl	-24(%rbp), %eax
	.loc 2 394 1 discriminator 4
	addq	$32, %rsp
	popq	%rbx
	popq	%r12
	popq	%rbp
	.cfi_def_cfa 7, 8
	ret
	.cfi_endproc
.LFE67:
	.size	main, .-main
	.section	.rodata
	.type	__PRETTY_FUNCTION__.7056, @object
	.size	__PRETTY_FUNCTION__.7056, 5
__PRETTY_FUNCTION__.7056:
	.string	"main"
	.text
.Letext0:
	.file 3 "/usr/lib/gcc/x86_64-linux-gnu/9/include/stddef.h"
	.file 4 "/usr/include/x86_64-linux-gnu/bits/types.h"
	.file 5 "/usr/include/x86_64-linux-gnu/bits/types/struct_FILE.h"
	.file 6 "/usr/include/x86_64-linux-gnu/bits/types/FILE.h"
	.file 7 "/usr/include/stdio.h"
	.file 8 "/usr/include/x86_64-linux-gnu/bits/sys_errlist.h"
	.file 9 "/usr/include/x86_64-linux-gnu/bits/types/time_t.h"
	.file 10 "/usr/include/x86_64-linux-gnu/bits/types/struct_timespec.h"
	.file 11 "./lib/sys/select.h"
	.file 12 "/usr/include/x86_64-linux-gnu/bits/getopt_core.h"
	.file 13 "/usr/include/x86_64-linux-gnu/bits/getopt_ext.h"
	.file 14 "/usr/include/time.h"
	.file 15 "/usr/include/x86_64-linux-gnu/bits/stat.h"
	.file 16 "/usr/include/signal.h"
	.file 17 "/usr/include/unistd.h"
	.file 18 "/usr/include/errno.h"
	.file 19 "src/version.h"
	.file 20 "./lib/exitfail.h"
	.file 21 "/usr/include/stdint.h"
	.file 22 "./lib/timespec.h"
	.file 23 "./lib/version-etc.h"
	.file 24 "./lib/progname.h"
	.file 25 "./lib/quotearg.h"
	.file 26 "./lib/error.h"
	.file 27 "./lib/quote.h"
	.file 28 "./lib/xstrtol.h"
	.section	.note.GNU-stack,"",@progbits
	.section	.note.gnu.property,"a"
	.align 8
	.long	 1f - 0f
	.long	 4f - 1f
	.long	 5
0:
	.string	 "GNU"
1:
	.align 8
	.long	 0xc0000002
	.long	 3f - 2f
2:
	.long	 0x3
3:
	.align 8
4:
