	.file	"sum.c"
	.text
.Ltext0:
	.section	.rodata
	.align 8
.LC0:
	.string	"\nWith no FILE, or when FILE is -, read standard input.\n"
	.text
	.type	emit_stdin_note, @function
emit_stdin_note:
.LFB35:
	.file 1 "src/system.h"
	.loc 1 582 1
	.cfi_startproc
	pushq	%rbp
	.cfi_def_cfa_offset 16
	.cfi_offset 6, -16
	movq	%rsp, %rbp
	.cfi_def_cfa_register 6
	pushq	%rbx
	subq	$8, %rsp
	.cfi_offset 3, -24
	.loc 1 583 3
	movq	stdout(%rip), %rbx
	leaq	.LC0(%rip), %rdi
	call	gettext@PLT
	movq	%rbx, %rsi
	movq	%rax, %rdi
	call	fputs_unlocked@PLT
	.loc 1 586 1
	nop
	addq	$8, %rsp
	popq	%rbx
	popq	%rbp
	.cfi_def_cfa 7, 8
	ret
	.cfi_endproc
.LFE35:
	.size	emit_stdin_note, .-emit_stdin_note
	.section	.rodata
.LC1:
	.string	"["
.LC2:
	.string	"test invocation"
.LC3:
	.string	"coreutils"
.LC4:
	.string	"Multi-call invocation"
.LC5:
	.string	"sha224sum"
.LC6:
	.string	"sha2 utilities"
.LC7:
	.string	"sha256sum"
.LC8:
	.string	"sha384sum"
.LC9:
	.string	"sha512sum"
.LC10:
	.string	"\n%s online help: <%s>\n"
	.align 8
.LC11:
	.string	"https://www.gnu.org/software/coreutils/"
.LC12:
	.string	"GNU coreutils"
.LC13:
	.string	"en_"
	.align 8
.LC14:
	.string	"Report any translation bugs to <https://translationproject.org/team/>\n"
.LC15:
	.string	"Full documentation <%s%s>\n"
.LC16:
	.string	" invocation"
.LC17:
	.string	""
	.align 8
.LC18:
	.string	"or available locally via: info '(coreutils) %s%s'\n"
	.text
	.type	emit_ancillary_info, @function
emit_ancillary_info:
.LFB40:
	.loc 1 635 1
	.cfi_startproc
	pushq	%rbp
	.cfi_def_cfa_offset 16
	.cfi_offset 6, -16
	movq	%rsp, %rbp
	.cfi_def_cfa_register 6
	pushq	%rbx
	subq	$184, %rsp
	.cfi_offset 3, -24
	movq	%rdi, -184(%rbp)
	.loc 1 635 1
	movq	%fs:40, %rax
	movq	%rax, -24(%rbp)
	xorl	%eax, %eax
	.loc 1 636 67
	leaq	.LC1(%rip), %rax
	movq	%rax, -144(%rbp)
	leaq	.LC2(%rip), %rax
	movq	%rax, -136(%rbp)
	leaq	.LC3(%rip), %rax
	movq	%rax, -128(%rbp)
	leaq	.LC4(%rip), %rax
	movq	%rax, -120(%rbp)
	leaq	.LC5(%rip), %rax
	movq	%rax, -112(%rbp)
	leaq	.LC6(%rip), %rax
	movq	%rax, -104(%rbp)
	leaq	.LC7(%rip), %rax
	movq	%rax, -96(%rbp)
	leaq	.LC6(%rip), %rax
	movq	%rax, -88(%rbp)
	leaq	.LC8(%rip), %rax
	movq	%rax, -80(%rbp)
	leaq	.LC6(%rip), %rax
	movq	%rax, -72(%rbp)
	leaq	.LC9(%rip), %rax
	movq	%rax, -64(%rbp)
	leaq	.LC6(%rip), %rax
	movq	%rax, -56(%rbp)
	movq	$0, -48(%rbp)
	movq	$0, -40(%rbp)
	.loc 1 646 15
	movq	-184(%rbp), %rax
	movq	%rax, -168(%rbp)
	.loc 1 647 25
	leaq	-144(%rbp), %rax
	movq	%rax, -160(%rbp)
	.loc 1 649 9
	jmp	.L3
.L5:
	.loc 1 650 13
	addq	$16, -160(%rbp)
.L3:
	.loc 1 649 18
	movq	-160(%rbp), %rax
	movq	(%rax), %rax
	.loc 1 649 9
	testq	%rax, %rax
	je	.L4
	.loc 1 649 33 discriminator 1
	movq	-160(%rbp), %rax
	movq	(%rax), %rdx
	movq	-184(%rbp), %rax
	movq	%rdx, %rsi
	movq	%rax, %rdi
	call	strcmp@PLT
	.loc 1 649 28 discriminator 1
	testl	%eax, %eax
	jne	.L5
.L4:
	.loc 1 652 15
	movq	-160(%rbp), %rax
	movq	8(%rax), %rax
	.loc 1 652 6
	testq	%rax, %rax
	je	.L6
	.loc 1 653 10
	movq	-160(%rbp), %rax
	movq	8(%rax), %rax
	movq	%rax, -168(%rbp)
.L6:
	.loc 1 655 11
	leaq	.LC10(%rip), %rdi
	call	gettext@PLT
	.loc 1 655 3
	leaq	.LC11(%rip), %rdx
	leaq	.LC12(%rip), %rsi
	movq	%rax, %rdi
	movl	$0, %eax
	call	printf@PLT
	.loc 1 659 29
	movl	$0, %esi
	movl	$5, %edi
	call	setlocale@PLT
	movq	%rax, -152(%rbp)
	.loc 1 660 6
	cmpq	$0, -152(%rbp)
	je	.L7
	.loc 1 660 22 discriminator 1
	movq	-152(%rbp), %rax
	movl	$3, %edx
	leaq	.LC13(%rip), %rsi
	movq	%rax, %rdi
	call	strncmp@PLT
	.loc 1 660 19 discriminator 1
	testl	%eax, %eax
	je	.L7
	.loc 1 666 7
	movq	stdout(%rip), %rbx
	leaq	.LC14(%rip), %rdi
	call	gettext@PLT
	movq	%rbx, %rsi
	movq	%rax, %rdi
	call	fputs_unlocked@PLT
.L7:
	.loc 1 669 11
	leaq	.LC15(%rip), %rdi
	call	gettext@PLT
	movq	%rax, %rcx
	.loc 1 669 3
	movq	-184(%rbp), %rax
	movq	%rax, %rdx
	leaq	.LC11(%rip), %rsi
	movq	%rcx, %rdi
	movl	$0, %eax
	call	printf@PLT
	.loc 1 671 3
	movq	-168(%rbp), %rax
	cmpq	-184(%rbp), %rax
	jne	.L8
	.loc 1 671 3 is_stmt 0 discriminator 1
	leaq	.LC16(%rip), %rbx
	jmp	.L9
.L8:
	.loc 1 671 3 discriminator 2
	leaq	.LC17(%rip), %rbx
.L9:
	.loc 1 671 11 is_stmt 1 discriminator 4
	leaq	.LC18(%rip), %rdi
	call	gettext@PLT
	movq	%rax, %rcx
	.loc 1 671 3 discriminator 4
	movq	-168(%rbp), %rax
	movq	%rbx, %rdx
	movq	%rax, %rsi
	movq	%rcx, %rdi
	movl	$0, %eax
	call	printf@PLT
	.loc 1 673 1 discriminator 4
	nop
	movq	-24(%rbp), %rax
	xorq	%fs:40, %rax
	je	.L10
	.loc 1 673 1 is_stmt 0
	call	__stack_chk_fail@PLT
.L10:
	addq	$184, %rsp
	popq	%rbx
	popq	%rbp
	.cfi_def_cfa 7, 8
	ret
	.cfi_endproc
.LFE40:
	.size	emit_ancillary_info, .-emit_ancillary_info
	.local	have_read_stdin
	.comm	have_read_stdin,1,1
	.section	.rodata
.LC19:
	.string	"sysv"
.LC20:
	.string	"help"
.LC21:
	.string	"version"
	.section	.data.rel.ro.local,"aw"
	.align 32
	.type	longopts, @object
	.size	longopts, 128
longopts:
	.quad	.LC19
	.long	0
	.zero	4
	.quad	0
	.long	115
	.zero	4
	.quad	.LC20
	.long	0
	.zero	4
	.quad	0
	.long	-130
	.zero	4
	.quad	.LC21
	.long	0
	.zero	4
	.quad	0
	.long	-131
	.zero	4
	.quad	0
	.long	0
	.zero	4
	.quad	0
	.long	0
	.zero	4
	.section	.rodata
	.align 8
.LC22:
	.string	"Try '%s --help' for more information.\n"
	.align 8
.LC23:
	.string	"Usage: %s [OPTION]... [FILE]...\n"
	.align 8
.LC24:
	.string	"Print checksum and block counts for each FILE.\n"
	.align 8
.LC25:
	.string	"\n  -r              use BSD sum algorithm, use 1K blocks\n  -s, --sysv      use System V sum algorithm, use 512 bytes blocks\n"
	.align 8
.LC26:
	.string	"      --help     display this help and exit\n"
	.align 8
.LC27:
	.string	"      --version  output version information and exit\n"
.LC28:
	.string	"sum"
	.text
	.globl	usage
	.type	usage, @function
usage:
.LFB50:
	.file 2 "src/sum.c"
	.loc 2 54 1 is_stmt 1
	.cfi_startproc
	endbr64
	pushq	%rbp
	.cfi_def_cfa_offset 16
	.cfi_offset 6, -16
	movq	%rsp, %rbp
	.cfi_def_cfa_register 6
	pushq	%rbx
	subq	$24, %rsp
	.cfi_offset 3, -24
	movl	%edi, -20(%rbp)
	.loc 2 55 6
	cmpl	$0, -20(%rbp)
	je	.L12
	.loc 2 56 5
	movq	program_name(%rip), %rbx
	leaq	.LC22(%rip), %rdi
	call	gettext@PLT
	movq	%rax, %rcx
	movq	stderr(%rip), %rax
	movq	%rbx, %rdx
	movq	%rcx, %rsi
	movq	%rax, %rdi
	movl	$0, %eax
	call	fprintf@PLT
	jmp	.L13
.L12:
	.loc 2 59 7
	movq	program_name(%rip), %rbx
	.loc 2 59 15
	leaq	.LC23(%rip), %rdi
	call	gettext@PLT
	.loc 2 59 7
	movq	%rbx, %rsi
	movq	%rax, %rdi
	movl	$0, %eax
	call	printf@PLT
	.loc 2 63 7
	movq	stdout(%rip), %rbx
	leaq	.LC24(%rip), %rdi
	call	gettext@PLT
	movq	%rbx, %rsi
	movq	%rax, %rdi
	call	fputs_unlocked@PLT
	.loc 2 67 7
	call	emit_stdin_note
	.loc 2 69 7
	movq	stdout(%rip), %rbx
	leaq	.LC25(%rip), %rdi
	call	gettext@PLT
	movq	%rbx, %rsi
	movq	%rax, %rdi
	call	fputs_unlocked@PLT
	.loc 2 74 7
	movq	stdout(%rip), %rbx
	leaq	.LC26(%rip), %rdi
	call	gettext@PLT
	movq	%rbx, %rsi
	movq	%rax, %rdi
	call	fputs_unlocked@PLT
	.loc 2 75 7
	movq	stdout(%rip), %rbx
	leaq	.LC27(%rip), %rdi
	call	gettext@PLT
	movq	%rbx, %rsi
	movq	%rax, %rdi
	call	fputs_unlocked@PLT
	.loc 2 76 7
	leaq	.LC28(%rip), %rdi
	call	emit_ancillary_info
.L13:
	.loc 2 78 3
	movl	-20(%rbp), %eax
	movl	%eax, %edi
	call	exit@PLT
	.cfi_endproc
.LFE50:
	.size	usage, .-usage
	.section	.rodata
.LC29:
	.string	"-"
.LC30:
	.string	"r"
.LC31:
	.string	"%s"
.LC32:
	.string	"%05d %5s"
.LC33:
	.string	" %s"
	.text
	.type	bsd_sum_file, @function
bsd_sum_file:
.LFB51:
	.loc 2 89 1
	.cfi_startproc
	endbr64
	pushq	%rbp
	.cfi_def_cfa_offset 16
	.cfi_offset 6, -16
	movq	%rsp, %rbp
	.cfi_def_cfa_register 6
	pushq	%rbx
	subq	$728, %rsp
	.cfi_offset 3, -24
	movq	%rdi, -728(%rbp)
	movl	%esi, -732(%rbp)
	.loc 2 89 1
	movq	%fs:40, %rax
	movq	%rax, -24(%rbp)
	xorl	%eax, %eax
	.loc 2 91 7
	movl	$0, -712(%rbp)
	.loc 2 92 13
	movq	$0, -696(%rbp)
	.loc 2 95 19
	movq	-728(%rbp), %rax
	leaq	.LC29(%rip), %rsi
	movq	%rax, %rdi
	call	strcmp@PLT
	.loc 2 95 8
	testl	%eax, %eax
	sete	%al
	movb	%al, -713(%rbp)
	.loc 2 97 6
	cmpb	$0, -713(%rbp)
	je	.L15
	.loc 2 99 10
	movq	stdin(%rip), %rax
	movq	%rax, -704(%rbp)
	.loc 2 100 23
	movb	$1, have_read_stdin(%rip)
	.loc 2 101 7
	movl	$0, %esi
	movl	$0, %edi
	call	xset_binary_mode@PLT
	jmp	.L16
.L15:
	.loc 2 105 12
	movq	-728(%rbp), %rax
	leaq	.LC30(%rip), %rsi
	movq	%rax, %rdi
	call	fopen@PLT
	movq	%rax, -704(%rbp)
	.loc 2 106 10
	cmpq	$0, -704(%rbp)
	jne	.L16
	.loc 2 108 11
	movq	-728(%rbp), %rax
	movq	%rax, %rdx
	movl	$3, %esi
	movl	$0, %edi
	call	quotearg_n_style_colon@PLT
	movq	%rax, %rbx
	.loc 2 108 21
	call	__errno_location@PLT
	.loc 2 108 11
	movl	(%rax), %eax
	movq	%rbx, %rcx
	leaq	.LC31(%rip), %rdx
	movl	%eax, %esi
	movl	$0, %edi
	movl	$0, %eax
	call	error@PLT
	.loc 2 109 18
	movl	$0, %eax
	jmp	.L24
.L16:
	.loc 2 113 3
	movq	-704(%rbp), %rax
	movl	$2, %esi
	movq	%rax, %rdi
	call	fadvise@PLT
	.loc 2 115 9
	jmp	.L18
.L19:
	.loc 2 117 18
	addq	$1, -696(%rbp)
	.loc 2 118 28
	movl	-712(%rbp), %eax
	sarl	%eax
	movl	%eax, %edx
	.loc 2 118 52
	movl	-712(%rbp), %eax
	sall	$15, %eax
	movzwl	%ax, %eax
	.loc 2 118 16
	addl	%edx, %eax
	movl	%eax, -712(%rbp)
	.loc 2 119 16
	movl	-708(%rbp), %eax
	addl	%eax, -712(%rbp)
	.loc 2 120 16
	andl	$65535, -712(%rbp)
.L18:
	.loc 2 115 16
	movq	-704(%rbp), %rax
	movq	%rax, %rdi
	call	getc_unlocked@PLT
	movl	%eax, -708(%rbp)
	.loc 2 115 9
	cmpl	$-1, -708(%rbp)
	jne	.L19
	.loc 2 123 7
	movq	-704(%rbp), %rax
	movq	%rax, %rdi
	call	ferror_unlocked@PLT
	.loc 2 123 6
	testl	%eax, %eax
	je	.L20
	.loc 2 125 7
	movq	-728(%rbp), %rax
	movq	%rax, %rdx
	movl	$3, %esi
	movl	$0, %edi
	call	quotearg_n_style_colon@PLT
	movq	%rax, %rbx
	.loc 2 125 17
	call	__errno_location@PLT
	.loc 2 125 7
	movl	(%rax), %eax
	movq	%rbx, %rcx
	leaq	.LC31(%rip), %rdx
	movl	%eax, %esi
	movl	$0, %edi
	movl	$0, %eax
	call	error@PLT
	.loc 2 126 11
	movzbl	-713(%rbp), %eax
	xorl	$1, %eax
	.loc 2 126 10
	testb	%al, %al
	je	.L21
	.loc 2 127 9
	movq	-704(%rbp), %rax
	movq	%rax, %rdi
	call	rpl_fclose@PLT
.L21:
	.loc 2 128 14
	movl	$0, %eax
	jmp	.L24
.L20:
	.loc 2 131 7
	movzbl	-713(%rbp), %eax
	xorl	$1, %eax
	.loc 2 131 6
	testb	%al, %al
	je	.L22
	.loc 2 131 20 discriminator 1
	movq	-704(%rbp), %rax
	movq	%rax, %rdi
	call	rpl_fclose@PLT
	.loc 2 131 17 discriminator 1
	testl	%eax, %eax
	je	.L22
	.loc 2 133 7
	movq	-728(%rbp), %rax
	movq	%rax, %rdx
	movl	$3, %esi
	movl	$0, %edi
	call	quotearg_n_style_colon@PLT
	movq	%rax, %rbx
	.loc 2 133 17
	call	__errno_location@PLT
	.loc 2 133 7
	movl	(%rax), %eax
	movq	%rbx, %rcx
	leaq	.LC31(%rip), %rdx
	movl	%eax, %esi
	movl	$0, %edi
	movl	$0, %eax
	call	error@PLT
	.loc 2 134 14
	movl	$0, %eax
	jmp	.L24
.L22:
	.loc 2 137 3
	leaq	-688(%rbp), %rsi
	movq	-696(%rbp), %rax
	movl	$1024, %r8d
	movl	$1, %ecx
	movl	$0, %edx
	movq	%rax, %rdi
	call	human_readable@PLT
	movq	%rax, %rdx
	movl	-712(%rbp), %eax
	movl	%eax, %esi
	leaq	.LC32(%rip), %rdi
	movl	$0, %eax
	call	printf@PLT
	.loc 2 139 6
	cmpl	$1, -732(%rbp)
	jle	.L23
	.loc 2 140 5
	movq	-728(%rbp), %rax
	movq	%rax, %rsi
	leaq	.LC33(%rip), %rdi
	movl	$0, %eax
	call	printf@PLT
.L23:
	.loc 2 141 3
	movl	$10, %edi
	call	putchar_unlocked@PLT
	.loc 2 143 10
	movl	$1, %eax
.L24:
	.loc 2 144 1 discriminator 1
	movq	-24(%rbp), %rcx
	xorq	%fs:40, %rcx
	je	.L25
	.loc 2 144 1 is_stmt 0
	call	__stack_chk_fail@PLT
.L25:
	addq	$728, %rsp
	popq	%rbx
	popq	%rbp
	.cfi_def_cfa 7, 8
	ret
	.cfi_endproc
.LFE51:
	.size	bsd_sum_file, .-bsd_sum_file
	.section	.rodata
.LC34:
	.string	"%d %s"
	.text
	.type	sysv_sum_file, @function
sysv_sum_file:
.LFB52:
	.loc 2 153 1 is_stmt 1
	.cfi_startproc
	endbr64
	pushq	%rbp
	.cfi_def_cfa_offset 16
	.cfi_offset 6, -16
	movq	%rsp, %rbp
	.cfi_def_cfa_register 6
	pushq	%rbx
	subq	$4096, %rsp
	orq	$0, (%rsp)
	subq	$4096, %rsp
	orq	$0, (%rsp)
	subq	$744, %rsp
	.cfi_offset 3, -24
	movq	%rdi, -8936(%rbp)
	movl	%esi, -8940(%rbp)
	.loc 2 153 1
	movq	%fs:40, %rax
	movq	%rax, -24(%rbp)
	xorl	%eax, %eax
	.loc 2 156 13
	movq	$0, -8904(%rbp)
	.loc 2 162 16
	movl	$0, -8916(%rbp)
	.loc 2 164 19
	movq	-8936(%rbp), %rax
	leaq	.LC29(%rip), %rsi
	movq	%rax, %rdi
	call	strcmp@PLT
	.loc 2 164 8
	testl	%eax, %eax
	sete	%al
	movb	%al, -8921(%rbp)
	.loc 2 166 6
	cmpb	$0, -8921(%rbp)
	je	.L27
	.loc 2 168 10
	movl	$0, -8920(%rbp)
	.loc 2 169 23
	movb	$1, have_read_stdin(%rip)
	.loc 2 170 7
	movl	$0, %esi
	movl	$0, %edi
	call	xset_binary_mode@PLT
	jmp	.L36
.L27:
	.loc 2 174 12
	movq	-8936(%rbp), %rax
	movl	$0, %esi
	movq	%rax, %rdi
	movl	$0, %eax
	call	open@PLT
	movl	%eax, -8920(%rbp)
	.loc 2 175 10
	cmpl	$-1, -8920(%rbp)
	jne	.L36
	.loc 2 177 11
	movq	-8936(%rbp), %rax
	movq	%rax, %rdx
	movl	$3, %esi
	movl	$0, %edi
	call	quotearg_n_style_colon@PLT
	movq	%rax, %rbx
	.loc 2 177 21
	call	__errno_location@PLT
	.loc 2 177 11
	movl	(%rax), %eax
	movq	%rbx, %rcx
	leaq	.LC31(%rip), %rdx
	movl	%eax, %esi
	movl	$0, %edi
	movl	$0, %eax
	call	error@PLT
	.loc 2 178 18
	movl	$0, %eax
	jmp	.L39
.L36:
.LBB2:
	.loc 2 184 27
	leaq	-8224(%rbp), %rcx
	movl	-8920(%rbp), %eax
	movl	$8192, %edx
	movq	%rcx, %rsi
	movl	%eax, %edi
	call	safe_read@PLT
	movq	%rax, -8888(%rbp)
	.loc 2 186 10
	cmpq	$0, -8888(%rbp)
	je	.L42
	.loc 2 189 10
	cmpq	$-1, -8888(%rbp)
	jne	.L32
	.loc 2 191 11
	movq	-8936(%rbp), %rax
	movq	%rax, %rdx
	movl	$3, %esi
	movl	$0, %edi
	call	quotearg_n_style_colon@PLT
	movq	%rax, %rbx
	.loc 2 191 21
	call	__errno_location@PLT
	.loc 2 191 11
	movl	(%rax), %eax
	movq	%rbx, %rcx
	leaq	.LC31(%rip), %rdx
	movl	%eax, %esi
	movl	$0, %edi
	movl	$0, %eax
	call	error@PLT
	.loc 2 192 15
	movzbl	-8921(%rbp), %eax
	xorl	$1, %eax
	.loc 2 192 14
	testb	%al, %al
	je	.L33
	.loc 2 193 13
	movl	-8920(%rbp), %eax
	movl	%eax, %edi
	call	close@PLT
.L33:
	.loc 2 194 18
	movl	$0, %eax
	jmp	.L39
.L32:
.LBB3:
	.loc 2 197 19
	movq	$0, -8896(%rbp)
	.loc 2 197 7
	jmp	.L34
.L35:
	.loc 2 198 17 discriminator 3
	leaq	-8224(%rbp), %rdx
	movq	-8896(%rbp), %rax
	addq	%rdx, %rax
	movzbl	(%rax), %eax
	movzbl	%al, %eax
	.loc 2 198 11 discriminator 3
	addl	%eax, -8916(%rbp)
	.loc 2 197 43 discriminator 3
	addq	$1, -8896(%rbp)
.L34:
	.loc 2 197 7 discriminator 1
	movq	-8896(%rbp), %rax
	cmpq	-8888(%rbp), %rax
	jb	.L35
.LBE3:
	.loc 2 199 19
	movq	-8888(%rbp), %rax
	addq	%rax, -8904(%rbp)
.LBE2:
	.loc 2 183 5
	jmp	.L36
.L42:
.LBB4:
	.loc 2 187 9
	nop
.LBE4:
	.loc 2 202 7
	movzbl	-8921(%rbp), %eax
	xorl	$1, %eax
	.loc 2 202 6
	testb	%al, %al
	je	.L37
	.loc 2 202 20 discriminator 1
	movl	-8920(%rbp), %eax
	movl	%eax, %edi
	call	close@PLT
	.loc 2 202 17 discriminator 1
	testl	%eax, %eax
	je	.L37
	.loc 2 204 7
	movq	-8936(%rbp), %rax
	movq	%rax, %rdx
	movl	$3, %esi
	movl	$0, %edi
	call	quotearg_n_style_colon@PLT
	movq	%rax, %rbx
	.loc 2 204 17
	call	__errno_location@PLT
	.loc 2 204 7
	movl	(%rax), %eax
	movq	%rbx, %rcx
	leaq	.LC31(%rip), %rdx
	movl	%eax, %esi
	movl	$0, %edi
	movl	$0, %eax
	call	error@PLT
	.loc 2 205 14
	movl	$0, %eax
	jmp	.L39
.L37:
	.loc 2 208 10
	movl	-8916(%rbp), %eax
	movzwl	%ax, %eax
	.loc 2 208 40
	movl	-8916(%rbp), %edx
	shrl	$16, %edx
	.loc 2 208 20
	addl	%edx, %eax
	.loc 2 208 5
	movl	%eax, -8912(%rbp)
	.loc 2 209 17
	movl	-8912(%rbp), %eax
	movzwl	%ax, %eax
	.loc 2 209 32
	movl	-8912(%rbp), %edx
	sarl	$16, %edx
	.loc 2 209 12
	addl	%edx, %eax
	movl	%eax, -8908(%rbp)
	.loc 2 211 3
	leaq	-8880(%rbp), %rsi
	movq	-8904(%rbp), %rax
	movl	$512, %r8d
	movl	$1, %ecx
	movl	$0, %edx
	movq	%rax, %rdi
	call	human_readable@PLT
	movq	%rax, %rdx
	movl	-8908(%rbp), %eax
	movl	%eax, %esi
	leaq	.LC34(%rip), %rdi
	movl	$0, %eax
	call	printf@PLT
	.loc 2 213 6
	cmpl	$0, -8940(%rbp)
	je	.L38
	.loc 2 214 5
	movq	-8936(%rbp), %rax
	movq	%rax, %rsi
	leaq	.LC33(%rip), %rdi
	movl	$0, %eax
	call	printf@PLT
.L38:
	.loc 2 215 3
	movl	$10, %edi
	call	putchar_unlocked@PLT
	.loc 2 217 10
	movl	$1, %eax
.L39:
	.loc 2 218 1 discriminator 1
	movq	-24(%rbp), %rcx
	xorq	%fs:40, %rcx
	je	.L40
	.loc 2 218 1 is_stmt 0
	call	__stack_chk_fail@PLT
.L40:
	addq	$8936, %rsp
	popq	%rbx
	popq	%rbp
	.cfi_def_cfa 7, 8
	ret
	.cfi_endproc
.LFE52:
	.size	sysv_sum_file, .-sysv_sum_file
	.section	.rodata
.LC35:
	.string	"/usr/local/share/locale"
.LC36:
	.string	"David MacKenzie"
.LC37:
	.string	"Kayvan Aghaiepour"
.LC38:
	.string	"rs"
	.text
	.globl	main
	.type	main, @function
main:
.LFB53:
	.loc 2 222 1 is_stmt 1
	.cfi_startproc
	endbr64
	pushq	%rbp
	.cfi_def_cfa_offset 16
	.cfi_offset 6, -16
	movq	%rsp, %rbp
	.cfi_def_cfa_register 6
	pushq	%rbx
	subq	$56, %rsp
	.cfi_offset 3, -24
	movl	%edi, -52(%rbp)
	movq	%rsi, -64(%rbp)
	.loc 2 226 10
	leaq	bsd_sum_file(%rip), %rax
	movq	%rax, -24(%rbp)
	.loc 2 229 3
	movq	-64(%rbp), %rax
	movq	(%rax), %rax
	movq	%rax, %rdi
	call	set_program_name@PLT
	.loc 2 230 3
	leaq	.LC17(%rip), %rsi
	movl	$6, %edi
	call	setlocale@PLT
	.loc 2 231 3
	leaq	.LC35(%rip), %rsi
	leaq	.LC3(%rip), %rdi
	call	bindtextdomain@PLT
	.loc 2 232 3
	leaq	.LC3(%rip), %rdi
	call	textdomain@PLT
	.loc 2 234 3
	movq	close_stdout@GOTPCREL(%rip), %rax
	movq	%rax, %rdi
	call	atexit@PLT
	.loc 2 238 3
	movq	stdout(%rip), %rax
	movl	$0, %ecx
	movl	$1, %edx
	movl	$0, %esi
	movq	%rax, %rdi
	call	setvbuf@PLT
	.loc 2 240 19
	movb	$0, have_read_stdin(%rip)
	.loc 2 242 9
	jmp	.L44
.L50:
	.loc 2 244 7
	cmpl	$115, -32(%rbp)
	je	.L45
	cmpl	$115, -32(%rbp)
	jg	.L46
	cmpl	$114, -32(%rbp)
	je	.L47
	cmpl	$114, -32(%rbp)
	jg	.L46
	cmpl	$-131, -32(%rbp)
	je	.L48
	cmpl	$-130, -32(%rbp)
	je	.L49
	jmp	.L46
.L47:
	.loc 2 247 20
	leaq	bsd_sum_file(%rip), %rax
	movq	%rax, -24(%rbp)
	.loc 2 248 11
	jmp	.L44
.L45:
	.loc 2 251 20
	leaq	sysv_sum_file(%rip), %rax
	movq	%rax, -24(%rbp)
	.loc 2 252 11
	jmp	.L44
.L49:
	.loc 2 254 9
	movl	$0, %edi
	call	usage
.L48:
	.loc 2 256 9
	movq	Version(%rip), %rdx
	movq	stdout(%rip), %rax
	subq	$8, %rsp
	pushq	$0
	leaq	.LC36(%rip), %r9
	leaq	.LC37(%rip), %r8
	movq	%rdx, %rcx
	leaq	.LC12(%rip), %rdx
	leaq	.LC28(%rip), %rsi
	movq	%rax, %rdi
	movl	$0, %eax
	call	version_etc@PLT
	addq	$16, %rsp
	movl	$0, %edi
	call	exit@PLT
.L46:
	.loc 2 259 11
	movl	$1, %edi
	call	usage
.L44:
	.loc 2 242 18
	movq	-64(%rbp), %rsi
	movl	-52(%rbp), %eax
	movl	$0, %r8d
	leaq	longopts(%rip), %rcx
	leaq	.LC38(%rip), %rdx
	movl	%eax, %edi
	call	getopt_long@PLT
	movl	%eax, -32(%rbp)
	.loc 2 242 9
	cmpl	$-1, -32(%rbp)
	jne	.L50
	.loc 2 263 22
	movl	optind(%rip), %eax
	.loc 2 263 15
	movl	-52(%rbp), %edx
	subl	%eax, %edx
	movl	%edx, %eax
	movl	%eax, -28(%rbp)
	.loc 2 264 6
	cmpl	$0, -28(%rbp)
	jg	.L51
	.loc 2 265 10
	movl	-28(%rbp), %eax
	movq	-24(%rbp), %rdx
	movl	%eax, %esi
	leaq	.LC29(%rip), %rdi
	call	*%rdx
.LVL0:
	movb	%al, -33(%rbp)
	jmp	.L52
.L51:
	.loc 2 267 13
	movb	$1, -33(%rbp)
	.loc 2 267 5
	jmp	.L53
.L54:
	.loc 2 268 27 discriminator 3
	movl	optind(%rip), %eax
	cltq
	leaq	0(,%rax,8), %rdx
	movq	-64(%rbp), %rax
	addq	%rdx, %rax
	.loc 2 268 13 discriminator 3
	movq	(%rax), %rax
	movl	-28(%rbp), %edx
	movq	-24(%rbp), %rcx
	movl	%edx, %esi
	movq	%rax, %rdi
	call	*%rcx
.LVL1:
	.loc 2 268 10 discriminator 3
	movzbl	-33(%rbp), %edx
	.loc 2 268 13 discriminator 3
	movzbl	%al, %eax
	.loc 2 268 10 discriminator 3
	andl	%edx, %eax
	testl	%eax, %eax
	setne	%al
	movb	%al, -33(%rbp)
	.loc 2 267 42 discriminator 3
	movl	optind(%rip), %eax
	addl	$1, %eax
	movl	%eax, optind(%rip)
.L53:
	.loc 2 267 28 discriminator 1
	movl	optind(%rip), %eax
	.loc 2 267 5 discriminator 1
	cmpl	%eax, -52(%rbp)
	jg	.L54
.L52:
	.loc 2 270 7
	movzbl	have_read_stdin(%rip), %eax
	.loc 2 270 6
	testb	%al, %al
	je	.L55
	.loc 2 270 26 discriminator 1
	movq	stdin(%rip), %rax
	movq	%rax, %rdi
	call	rpl_fclose@PLT
	.loc 2 270 23 discriminator 1
	cmpl	$-1, %eax
	jne	.L55
.LBB5:
	.loc 2 271 5
	leaq	.LC29(%rip), %rdx
	movl	$3, %esi
	movl	$0, %edi
	call	quotearg_n_style_colon@PLT
	movq	%rax, %rbx
	call	__errno_location@PLT
	movl	(%rax), %eax
	movq	%rbx, %rcx
	leaq	.LC31(%rip), %rdx
	movl	%eax, %esi
	movl	$1, %edi
	movl	$0, %eax
	call	error@PLT
.L55:
.LBE5:
	.loc 2 272 28
	movzbl	-33(%rbp), %eax
	xorl	$1, %eax
	movzbl	%al, %eax
	.loc 2 273 1
	movq	-8(%rbp), %rbx
	leave
	.cfi_def_cfa 7, 8
	ret
	.cfi_endproc
.LFE53:
	.size	main, .-main
.Letext0:
	.file 3 "/usr/lib/gcc/x86_64-linux-gnu/9/include/stddef.h"
	.file 4 "/usr/include/x86_64-linux-gnu/bits/types.h"
	.file 5 "/usr/include/x86_64-linux-gnu/bits/types/struct_FILE.h"
	.file 6 "/usr/include/x86_64-linux-gnu/bits/types/FILE.h"
	.file 7 "/usr/include/stdio.h"
	.file 8 "/usr/include/x86_64-linux-gnu/bits/sys_errlist.h"
	.file 9 "/usr/include/x86_64-linux-gnu/bits/types/time_t.h"
	.file 10 "./lib/sys/select.h"
	.file 11 "/usr/include/x86_64-linux-gnu/bits/getopt_core.h"
	.file 12 "/usr/include/x86_64-linux-gnu/bits/getopt_ext.h"
	.file 13 "/usr/include/time.h"
	.file 14 "/usr/include/signal.h"
	.file 15 "/usr/include/unistd.h"
	.file 16 "/usr/include/errno.h"
	.file 17 "src/version.h"
	.file 18 "./lib/exitfail.h"
	.file 19 "/usr/include/stdint.h"
	.file 20 "./lib/timespec.h"
	.file 21 "./lib/version-etc.h"
	.file 22 "./lib/progname.h"
	.file 23 "./lib/quotearg.h"
	.file 24 "./lib/error.h"
	.file 25 "./lib/fadvise.h"
	.file 26 "./lib/human.h"
	.section	.note.GNU-stack,"",@progbits
	.section	.note.gnu.property,"a"
	.align 8
	.long	 1f - 0f
	.long	 4f - 1f
	.long	 5
0:
	.string	 "GNU"
1:
	.align 8
	.long	 0xc0000002
	.long	 3f - 2f
2:
	.long	 0x3
3:
	.align 8
4:
