	.file	"timeout.c"
	.text
.Ltext0:
	.type	initialize_exit_failure, @function
initialize_exit_failure:
.LFB6:
	.file 1 "src/system.h"
	.loc 1 100 1
	.cfi_startproc
	pushq	%rbp
	.cfi_def_cfa_offset 16
	.cfi_offset 6, -16
	movq	%rsp, %rbp
	.cfi_def_cfa_register 6
	movl	%edi, -4(%rbp)
	.loc 1 101 6
	cmpl	$1, -4(%rbp)
	je	.L3
	.loc 1 102 18
	movl	-4(%rbp), %eax
	movl	%eax, exit_failure(%rip)
.L3:
	.loc 1 103 1
	nop
	popq	%rbp
	.cfi_def_cfa 7, 8
	ret
	.cfi_endproc
.LFE6:
	.size	initialize_exit_failure, .-initialize_exit_failure
	.section	.rodata
	.align 8
.LC0:
	.string	"\nMandatory arguments to long options are mandatory for short options too.\n"
	.text
	.type	emit_mandatory_arg_note, @function
emit_mandatory_arg_note:
.LFB36:
	.loc 1 589 1
	.cfi_startproc
	pushq	%rbp
	.cfi_def_cfa_offset 16
	.cfi_offset 6, -16
	movq	%rsp, %rbp
	.cfi_def_cfa_register 6
	pushq	%rbx
	subq	$8, %rsp
	.cfi_offset 3, -24
	.loc 1 590 3
	movq	stdout(%rip), %rbx
	leaq	.LC0(%rip), %rdi
	call	gettext@PLT
	movq	%rbx, %rsi
	movq	%rax, %rdi
	call	fputs_unlocked@PLT
	.loc 1 593 1
	nop
	addq	$8, %rsp
	popq	%rbx
	popq	%rbp
	.cfi_def_cfa 7, 8
	ret
	.cfi_endproc
.LFE36:
	.size	emit_mandatory_arg_note, .-emit_mandatory_arg_note
	.section	.rodata
.LC1:
	.string	"["
.LC2:
	.string	"test invocation"
.LC3:
	.string	"coreutils"
.LC4:
	.string	"Multi-call invocation"
.LC5:
	.string	"sha224sum"
.LC6:
	.string	"sha2 utilities"
.LC7:
	.string	"sha256sum"
.LC8:
	.string	"sha384sum"
.LC9:
	.string	"sha512sum"
.LC10:
	.string	"\n%s online help: <%s>\n"
	.align 8
.LC11:
	.string	"https://www.gnu.org/software/coreutils/"
.LC12:
	.string	"GNU coreutils"
.LC13:
	.string	"en_"
	.align 8
.LC14:
	.string	"Report any translation bugs to <https://translationproject.org/team/>\n"
.LC15:
	.string	"Full documentation <%s%s>\n"
.LC16:
	.string	" invocation"
.LC17:
	.string	""
	.align 8
.LC18:
	.string	"or available locally via: info '(coreutils) %s%s'\n"
	.text
	.type	emit_ancillary_info, @function
emit_ancillary_info:
.LFB40:
	.loc 1 635 1
	.cfi_startproc
	pushq	%rbp
	.cfi_def_cfa_offset 16
	.cfi_offset 6, -16
	movq	%rsp, %rbp
	.cfi_def_cfa_register 6
	pushq	%rbx
	subq	$184, %rsp
	.cfi_offset 3, -24
	movq	%rdi, -184(%rbp)
	.loc 1 635 1
	movq	%fs:40, %rax
	movq	%rax, -24(%rbp)
	xorl	%eax, %eax
	.loc 1 636 67
	leaq	.LC1(%rip), %rax
	movq	%rax, -144(%rbp)
	leaq	.LC2(%rip), %rax
	movq	%rax, -136(%rbp)
	leaq	.LC3(%rip), %rax
	movq	%rax, -128(%rbp)
	leaq	.LC4(%rip), %rax
	movq	%rax, -120(%rbp)
	leaq	.LC5(%rip), %rax
	movq	%rax, -112(%rbp)
	leaq	.LC6(%rip), %rax
	movq	%rax, -104(%rbp)
	leaq	.LC7(%rip), %rax
	movq	%rax, -96(%rbp)
	leaq	.LC6(%rip), %rax
	movq	%rax, -88(%rbp)
	leaq	.LC8(%rip), %rax
	movq	%rax, -80(%rbp)
	leaq	.LC6(%rip), %rax
	movq	%rax, -72(%rbp)
	leaq	.LC9(%rip), %rax
	movq	%rax, -64(%rbp)
	leaq	.LC6(%rip), %rax
	movq	%rax, -56(%rbp)
	movq	$0, -48(%rbp)
	movq	$0, -40(%rbp)
	.loc 1 646 15
	movq	-184(%rbp), %rax
	movq	%rax, -168(%rbp)
	.loc 1 647 25
	leaq	-144(%rbp), %rax
	movq	%rax, -160(%rbp)
	.loc 1 649 9
	jmp	.L6
.L8:
	.loc 1 650 13
	addq	$16, -160(%rbp)
.L6:
	.loc 1 649 18
	movq	-160(%rbp), %rax
	movq	(%rax), %rax
	.loc 1 649 9
	testq	%rax, %rax
	je	.L7
	.loc 1 649 33 discriminator 1
	movq	-160(%rbp), %rax
	movq	(%rax), %rdx
	movq	-184(%rbp), %rax
	movq	%rdx, %rsi
	movq	%rax, %rdi
	call	strcmp@PLT
	.loc 1 649 28 discriminator 1
	testl	%eax, %eax
	jne	.L8
.L7:
	.loc 1 652 15
	movq	-160(%rbp), %rax
	movq	8(%rax), %rax
	.loc 1 652 6
	testq	%rax, %rax
	je	.L9
	.loc 1 653 10
	movq	-160(%rbp), %rax
	movq	8(%rax), %rax
	movq	%rax, -168(%rbp)
.L9:
	.loc 1 655 11
	leaq	.LC10(%rip), %rdi
	call	gettext@PLT
	.loc 1 655 3
	leaq	.LC11(%rip), %rdx
	leaq	.LC12(%rip), %rsi
	movq	%rax, %rdi
	movl	$0, %eax
	call	printf@PLT
	.loc 1 659 29
	movl	$0, %esi
	movl	$5, %edi
	call	setlocale@PLT
	movq	%rax, -152(%rbp)
	.loc 1 660 6
	cmpq	$0, -152(%rbp)
	je	.L10
	.loc 1 660 22 discriminator 1
	movq	-152(%rbp), %rax
	movl	$3, %edx
	leaq	.LC13(%rip), %rsi
	movq	%rax, %rdi
	call	strncmp@PLT
	.loc 1 660 19 discriminator 1
	testl	%eax, %eax
	je	.L10
	.loc 1 666 7
	movq	stdout(%rip), %rbx
	leaq	.LC14(%rip), %rdi
	call	gettext@PLT
	movq	%rbx, %rsi
	movq	%rax, %rdi
	call	fputs_unlocked@PLT
.L10:
	.loc 1 669 11
	leaq	.LC15(%rip), %rdi
	call	gettext@PLT
	movq	%rax, %rcx
	.loc 1 669 3
	movq	-184(%rbp), %rax
	movq	%rax, %rdx
	leaq	.LC11(%rip), %rsi
	movq	%rcx, %rdi
	movl	$0, %eax
	call	printf@PLT
	.loc 1 671 3
	movq	-168(%rbp), %rax
	cmpq	-184(%rbp), %rax
	jne	.L11
	.loc 1 671 3 is_stmt 0 discriminator 1
	leaq	.LC16(%rip), %rbx
	jmp	.L12
.L11:
	.loc 1 671 3 discriminator 2
	leaq	.LC17(%rip), %rbx
.L12:
	.loc 1 671 11 is_stmt 1 discriminator 4
	leaq	.LC18(%rip), %rdi
	call	gettext@PLT
	movq	%rax, %rcx
	.loc 1 671 3 discriminator 4
	movq	-168(%rbp), %rax
	movq	%rbx, %rdx
	movq	%rax, %rsi
	movq	%rcx, %rdi
	movl	$0, %eax
	call	printf@PLT
	.loc 1 673 1 discriminator 4
	nop
	movq	-24(%rbp), %rax
	xorq	%fs:40, %rax
	je	.L13
	.loc 1 673 1 is_stmt 0
	call	__stack_chk_fail@PLT
.L13:
	addq	$184, %rsp
	popq	%rbx
	popq	%rbp
	.cfi_def_cfa 7, 8
	ret
	.cfi_endproc
.LFE40:
	.size	emit_ancillary_info, .-emit_ancillary_info
	.local	timed_out
	.comm	timed_out,4,4
	.data
	.align 4
	.type	term_signal, @object
	.size	term_signal, 4
term_signal:
	.long	15
	.local	monitored_pid
	.comm	monitored_pid,4,4
	.local	kill_after
	.comm	kill_after,8,8
	.local	foreground
	.comm	foreground,1,1
	.local	preserve_status
	.comm	preserve_status,1,1
	.local	verbose
	.comm	verbose,1,1
	.local	command
	.comm	command,8,8
	.section	.rodata
.LC19:
	.string	"kill-after"
.LC20:
	.string	"signal"
.LC21:
	.string	"verbose"
.LC22:
	.string	"foreground"
.LC23:
	.string	"preserve-status"
.LC24:
	.string	"help"
.LC25:
	.string	"version"
	.section	.data.rel.ro.local,"aw"
	.align 32
	.type	long_options, @object
	.size	long_options, 256
long_options:
	.quad	.LC19
	.long	1
	.zero	4
	.quad	0
	.long	107
	.zero	4
	.quad	.LC20
	.long	1
	.zero	4
	.quad	0
	.long	115
	.zero	4
	.quad	.LC21
	.long	0
	.zero	4
	.quad	0
	.long	118
	.zero	4
	.quad	.LC22
	.long	0
	.zero	4
	.quad	0
	.long	128
	.zero	4
	.quad	.LC23
	.long	0
	.zero	4
	.quad	0
	.long	129
	.zero	4
	.quad	.LC24
	.long	0
	.zero	4
	.quad	0
	.long	-130
	.zero	4
	.quad	.LC25
	.long	0
	.zero	4
	.quad	0
	.long	-131
	.zero	4
	.quad	0
	.long	0
	.zero	4
	.quad	0
	.long	0
	.zero	4
	.section	.rodata
.LC26:
	.string	"warning: timer_settime"
.LC27:
	.string	"warning: timer_create"
	.text
	.type	settimeout, @function
settimeout:
.LFB46:
	.file 2 "src/timeout.c"
	.loc 2 115 1 is_stmt 1
	.cfi_startproc
	endbr64
	pushq	%rbp
	.cfi_def_cfa_offset 16
	.cfi_offset 6, -16
	movq	%rsp, %rbp
	.cfi_def_cfa_register 6
	pushq	%rbx
	subq	$104, %rsp
	.cfi_offset 3, -24
	movsd	%xmm0, -104(%rbp)
	movl	%edi, %eax
	movb	%al, -108(%rbp)
	.loc 2 115 1
	movq	%fs:40, %rax
	movq	%rax, -24(%rbp)
	xorl	%eax, %eax
	.loc 2 120 24
	movq	-104(%rbp), %rax
	movq	%rax, %xmm0
	call	dtotimespec@PLT
	movq	%rax, -80(%rbp)
	movq	%rdx, -72(%rbp)
	.loc 2 121 21
	movq	$0, -64(%rbp)
	movq	$0, -56(%rbp)
	movq	-80(%rbp), %rax
	movq	-72(%rbp), %rdx
	movq	%rax, -48(%rbp)
	movq	%rdx, -40(%rbp)
	.loc 2 123 7
	leaq	-88(%rbp), %rax
	movq	%rax, %rdx
	movl	$0, %esi
	movl	$0, %edi
	call	timer_create@PLT
	.loc 2 123 6
	testl	%eax, %eax
	jne	.L15
	.loc 2 125 11
	movq	-88(%rbp), %rax
	leaq	-64(%rbp), %rdx
	movl	$0, %ecx
	movl	$0, %esi
	movq	%rax, %rdi
	call	timer_settime@PLT
	.loc 2 125 10
	testl	%eax, %eax
	je	.L28
	.loc 2 129 14
	cmpb	$0, -108(%rbp)
	je	.L18
	.loc 2 130 30
	leaq	.LC26(%rip), %rdi
	call	gettext@PLT
	movq	%rax, %rbx
	.loc 2 130 23
	call	__errno_location@PLT
	.loc 2 130 13
	movl	(%rax), %eax
	movq	%rbx, %rdx
	movl	%eax, %esi
	movl	$0, %edi
	movl	$0, %eax
	call	error@PLT
.L18:
	.loc 2 131 11
	movq	-88(%rbp), %rax
	movq	%rax, %rdi
	call	timer_delete@PLT
	jmp	.L19
.L15:
	.loc 2 134 11
	cmpb	$0, -108(%rbp)
	je	.L19
	.loc 2 134 20 discriminator 1
	call	__errno_location@PLT
	movl	(%rax), %eax
	.loc 2 134 17 discriminator 1
	cmpl	$38, %eax
	je	.L19
	.loc 2 135 22
	leaq	.LC27(%rip), %rdi
	call	gettext@PLT
	movq	%rax, %rbx
	.loc 2 135 15
	call	__errno_location@PLT
	.loc 2 135 5
	movl	(%rax), %eax
	movq	%rbx, %rdx
	movl	%eax, %esi
	movl	$0, %edi
	movl	$0, %eax
	call	error@PLT
.L19:
	.loc 2 168 6
	movsd	-104(%rbp), %xmm0
	comisd	.LC28(%rip), %xmm0
	jb	.L27
	.loc 2 169 13
	movl	$-1, -96(%rbp)
	jmp	.L22
.L27:
.LBB2:
	.loc 2 172 20
	movsd	-104(%rbp), %xmm0
	cvttsd2siq	%xmm0, %rax
	movl	%eax, -92(%rbp)
	.loc 2 173 50
	movl	-92(%rbp), %eax
	testq	%rax, %rax
	js	.L23
	cvtsi2sdq	%rax, %xmm0
	jmp	.L24
.L23:
	movq	%rax, %rdx
	shrq	%rdx
	andl	$1, %eax
	orq	%rax, %rdx
	cvtsi2sdq	%rdx, %xmm0
	addsd	%xmm0, %xmm0
.L24:
	movsd	-104(%rbp), %xmm1
	comisd	%xmm0, %xmm1
	seta	%al
	movzbl	%al, %edx
	.loc 2 173 15
	movl	-92(%rbp), %eax
	addl	%edx, %eax
	movl	%eax, -96(%rbp)
.L22:
.LBE2:
	.loc 2 175 3
	movl	-96(%rbp), %eax
	movl	%eax, %edi
	call	alarm@PLT
	jmp	.L14
.L28:
	.loc 2 126 9
	nop
.L14:
	.loc 2 176 1
	movq	-24(%rbp), %rax
	xorq	%fs:40, %rax
	je	.L25
	call	__stack_chk_fail@PLT
.L25:
	addq	$104, %rsp
	popq	%rbx
	popq	%rbp
	.cfi_def_cfa 7, 8
	ret
	.cfi_endproc
.LFE46:
	.size	settimeout, .-settimeout
	.type	send_sig, @function
send_sig:
.LFB47:
	.loc 2 182 1
	.cfi_startproc
	endbr64
	pushq	%rbp
	.cfi_def_cfa_offset 16
	.cfi_offset 6, -16
	movq	%rsp, %rbp
	.cfi_def_cfa_register 6
	subq	$16, %rsp
	movl	%edi, -4(%rbp)
	movl	%esi, -8(%rbp)
	.loc 2 190 6
	cmpl	$0, -4(%rbp)
	jne	.L30
	.loc 2 191 5
	movl	-8(%rbp), %eax
	movl	$1, %esi
	movl	%eax, %edi
	call	signal@PLT
.L30:
	.loc 2 192 10
	movl	-8(%rbp), %edx
	movl	-4(%rbp), %eax
	movl	%edx, %esi
	movl	%eax, %edi
	call	kill@PLT
	.loc 2 193 1
	leave
	.cfi_def_cfa 7, 8
	ret
	.cfi_endproc
.LFE47:
	.size	send_sig, .-send_sig
	.type	chld, @function
chld:
.LFB48:
	.loc 2 199 1
	.cfi_startproc
	endbr64
	pushq	%rbp
	.cfi_def_cfa_offset 16
	.cfi_offset 6, -16
	movq	%rsp, %rbp
	.cfi_def_cfa_register 6
	movl	%edi, -4(%rbp)
	.loc 2 200 1
	nop
	popq	%rbp
	.cfi_def_cfa 7, 8
	ret
	.cfi_endproc
.LFE48:
	.size	chld, .-chld
	.section	.rodata
.LC30:
	.string	"%d"
	.align 8
.LC31:
	.string	"sending signal %s to command %s"
	.text
	.type	cleanup, @function
cleanup:
.LFB49:
	.loc 2 205 1
	.cfi_startproc
	endbr64
	pushq	%rbp
	.cfi_def_cfa_offset 16
	.cfi_offset 6, -16
	movq	%rsp, %rbp
	.cfi_def_cfa_register 6
	pushq	%rbx
	subq	$72, %rsp
	.cfi_offset 3, -24
	movl	%edi, -68(%rbp)
	.loc 2 205 1
	movq	%fs:40, %rax
	movq	%rax, -24(%rbp)
	xorl	%eax, %eax
	.loc 2 206 6
	cmpl	$14, -68(%rbp)
	jne	.L34
	.loc 2 208 17
	movl	$1, timed_out(%rip)
	.loc 2 209 11
	movl	term_signal(%rip), %eax
	movl	%eax, -68(%rbp)
.L34:
	.loc 2 211 7
	movl	monitored_pid(%rip), %eax
	.loc 2 211 6
	testl	%eax, %eax
	je	.L35
	.loc 2 213 11
	movsd	kill_after(%rip), %xmm0
	.loc 2 213 10
	pxor	%xmm1, %xmm1
	ucomisd	%xmm1, %xmm0
	jp	.L42
	pxor	%xmm1, %xmm1
	ucomisd	%xmm1, %xmm0
	je	.L36
.L42:
.LBB3:
	.loc 2 215 29
	call	__errno_location@PLT
	.loc 2 215 15
	movl	(%rax), %eax
	movl	%eax, -52(%rbp)
	.loc 2 217 23
	movl	$9, term_signal(%rip)
	.loc 2 218 11
	movq	kill_after(%rip), %rax
	movl	$0, %edi
	movq	%rax, %xmm0
	call	settimeout
	.loc 2 219 22
	pxor	%xmm0, %xmm0
	movsd	%xmm0, kill_after(%rip)
	.loc 2 220 11
	call	__errno_location@PLT
	.loc 2 220 17
	movl	-52(%rbp), %edx
	movl	%edx, (%rax)
.L36:
.LBE3:
	.loc 2 226 11
	movzbl	verbose(%rip), %eax
	.loc 2 226 10
	testb	%al, %al
	je	.L38
.LBB4:
	.loc 2 229 15
	leaq	-48(%rbp), %rdx
	movl	-68(%rbp), %eax
	movq	%rdx, %rsi
	movl	%eax, %edi
	call	sig2str@PLT
	.loc 2 229 14
	testl	%eax, %eax
	je	.L39
	.loc 2 230 13
	movl	-68(%rbp), %edx
	leaq	-48(%rbp), %rax
	movl	%edx, %ecx
	leaq	.LC30(%rip), %rdx
	movl	$19, %esi
	movq	%rax, %rdi
	movl	$0, %eax
	call	snprintf@PLT
.L39:
	.loc 2 231 11
	movq	command(%rip), %rax
	movq	%rax, %rdi
	call	quote@PLT
	movq	%rax, %rbx
	.loc 2 231 24
	leaq	.LC31(%rip), %rdi
	call	gettext@PLT
	movq	%rax, %rdx
	.loc 2 231 11
	leaq	-48(%rbp), %rax
	movq	%rbx, %r8
	movq	%rax, %rcx
	movl	$0, %esi
	movl	$0, %edi
	movl	$0, %eax
	call	error@PLT
.L38:
.LBE4:
	.loc 2 234 7
	movl	monitored_pid(%rip), %eax
	movl	-68(%rbp), %edx
	movl	%edx, %esi
	movl	%eax, %edi
	call	send_sig
	.loc 2 238 11
	movzbl	foreground(%rip), %eax
	xorl	$1, %eax
	.loc 2 238 10
	testb	%al, %al
	je	.L43
	.loc 2 240 11
	movl	-68(%rbp), %eax
	movl	%eax, %esi
	movl	$0, %edi
	call	send_sig
	.loc 2 241 14
	cmpl	$9, -68(%rbp)
	je	.L43
	.loc 2 241 30 discriminator 1
	cmpl	$18, -68(%rbp)
	je	.L43
	.loc 2 243 15
	movl	monitored_pid(%rip), %eax
	movl	$18, %esi
	movl	%eax, %edi
	call	send_sig
	.loc 2 244 15
	movl	$18, %esi
	movl	$0, %edi
	call	send_sig
	.loc 2 250 1
	jmp	.L43
.L35:
	.loc 2 249 5
	movl	-68(%rbp), %eax
	subl	$-128, %eax
	movl	%eax, %edi
	call	_exit@PLT
.L43:
	.loc 2 250 1
	nop
	movq	-24(%rbp), %rax
	xorq	%fs:40, %rax
	je	.L41
	call	__stack_chk_fail@PLT
.L41:
	addq	$72, %rsp
	popq	%rbx
	popq	%rbp
	.cfi_def_cfa 7, 8
	ret
	.cfi_endproc
.LFE49:
	.size	cleanup, .-cleanup
	.section	.rodata
	.align 8
.LC32:
	.string	"Try '%s --help' for more information.\n"
	.align 8
.LC33:
	.string	"Usage: %s [OPTION] DURATION COMMAND [ARG]...\n  or:  %s [OPTION]\n"
	.align 8
.LC34:
	.string	"Start COMMAND, and kill it if still running after DURATION.\n"
	.align 8
.LC35:
	.ascii	"      --preserve-status\n                 exit with the same"
	.ascii	" status as COMMAND, even when the\n                   comman"
	.ascii	"d times out\n      --foreground\n                 when not r"
	.ascii	"unning timeout directly from a shell prompt,\n              "
	.ascii	"     allow COMMAND to read from the TTY and get TTY signals;"
	.ascii	"\n                   in this mode, children of COMMAND will "
	.ascii	"not be timed out\n  -k, --kill-after=DURATION\n             "
	.ascii	"    also send a KILL signal if COMMAND is still running\n   "
	.ascii	"    "
	.string	"            this long after the initial signal was sent\n  -s, --signal=SIGNAL\n                 specify the signal to be sent on timeout;\n                   SIGNAL may be a name like 'HUP' or a number;\n                   see 'kill -l' for a list of signals\n"
	.align 8
.LC36:
	.string	"  -v, --verbose  diagnose to stderr any signal sent upon timeout\n"
	.align 8
.LC37:
	.string	"      --help     display this help and exit\n"
	.align 8
.LC38:
	.string	"      --version  output version information and exit\n"
	.align 8
.LC39:
	.string	"\nDURATION is a floating point number with an optional suffix:\n's' for seconds (the default), 'm' for minutes, 'h' for hours or 'd' for days.\nA duration of 0 disables the associated timeout.\n"
	.align 8
.LC40:
	.string	"\nUpon timeout, send the TERM signal to COMMAND, if no other SIGNAL specified.\nThe TERM signal kills any process that does not block or catch that signal.\nIt may be necessary to use the KILL signal, since this signal can't be caught.\n"
	.align 8
.LC41:
	.ascii	"\nEXIT status:\n  124  if COMMAND times out, and --preserve-"
	.ascii	"status is no"
	.string	"t specified\n  125  if the timeout command itself fails\n  126  if COMMAND is found but cannot be invoked\n  127  if COMMAND cannot be found\n  137  if COMMAND (or timeout itself) is sent the KILL (9) signal (128+9)\n  -    the exit status of COMMAND otherwise\n"
.LC42:
	.string	"timeout"
	.text
	.globl	usage
	.type	usage, @function
usage:
.LFB50:
	.loc 2 254 1
	.cfi_startproc
	endbr64
	pushq	%rbp
	.cfi_def_cfa_offset 16
	.cfi_offset 6, -16
	movq	%rsp, %rbp
	.cfi_def_cfa_register 6
	pushq	%r12
	pushq	%rbx
	subq	$16, %rsp
	.cfi_offset 12, -24
	.cfi_offset 3, -32
	movl	%edi, -20(%rbp)
	.loc 2 255 6
	cmpl	$0, -20(%rbp)
	je	.L45
	.loc 2 256 5
	movq	program_name(%rip), %rbx
	leaq	.LC32(%rip), %rdi
	call	gettext@PLT
	movq	%rax, %rcx
	movq	stderr(%rip), %rax
	movq	%rbx, %rdx
	movq	%rcx, %rsi
	movq	%rax, %rdi
	movl	$0, %eax
	call	fprintf@PLT
	jmp	.L46
.L45:
	.loc 2 259 7
	movq	program_name(%rip), %r12
	movq	program_name(%rip), %rbx
	.loc 2 259 15
	leaq	.LC33(%rip), %rdi
	call	gettext@PLT
	.loc 2 259 7
	movq	%r12, %rdx
	movq	%rbx, %rsi
	movq	%rax, %rdi
	movl	$0, %eax
	call	printf@PLT
	.loc 2 263 7
	movq	stdout(%rip), %rbx
	leaq	.LC34(%rip), %rdi
	call	gettext@PLT
	movq	%rbx, %rsi
	movq	%rax, %rdi
	call	fputs_unlocked@PLT
	.loc 2 267 7
	call	emit_mandatory_arg_note
	.loc 2 269 7
	movq	stdout(%rip), %rbx
	leaq	.LC35(%rip), %rdi
	call	gettext@PLT
	movq	%rbx, %rsi
	movq	%rax, %rdi
	call	fputs_unlocked@PLT
	.loc 2 284 7
	movq	stdout(%rip), %rbx
	leaq	.LC36(%rip), %rdi
	call	gettext@PLT
	movq	%rbx, %rsi
	movq	%rax, %rdi
	call	fputs_unlocked@PLT
	.loc 2 287 7
	movq	stdout(%rip), %rbx
	leaq	.LC37(%rip), %rdi
	call	gettext@PLT
	movq	%rbx, %rsi
	movq	%rax, %rdi
	call	fputs_unlocked@PLT
	.loc 2 288 7
	movq	stdout(%rip), %rbx
	leaq	.LC38(%rip), %rdi
	call	gettext@PLT
	movq	%rbx, %rsi
	movq	%rax, %rdi
	call	fputs_unlocked@PLT
	.loc 2 290 7
	movq	stdout(%rip), %rbx
	leaq	.LC39(%rip), %rdi
	call	gettext@PLT
	movq	%rbx, %rsi
	movq	%rax, %rdi
	call	fputs_unlocked@PLT
	.loc 2 295 7
	movq	stdout(%rip), %rbx
	leaq	.LC40(%rip), %rdi
	call	gettext@PLT
	movq	%rbx, %rsi
	movq	%rax, %rdi
	call	fputs_unlocked@PLT
	.loc 2 301 7
	movq	stdout(%rip), %rbx
	leaq	.LC41(%rip), %rdi
	call	gettext@PLT
	movq	%rbx, %rsi
	movq	%rax, %rdi
	call	fputs_unlocked@PLT
	.loc 2 311 7
	leaq	.LC42(%rip), %rdi
	call	emit_ancillary_info
.L46:
	.loc 2 313 3
	movl	-20(%rbp), %eax
	movl	%eax, %edi
	call	exit@PLT
	.cfi_endproc
.LFE50:
	.size	usage, .-usage
	.type	apply_time_suffix, @function
apply_time_suffix:
.LFB51:
	.loc 2 324 1
	.cfi_startproc
	endbr64
	pushq	%rbp
	.cfi_def_cfa_offset 16
	.cfi_offset 6, -16
	movq	%rsp, %rbp
	.cfi_def_cfa_register 6
	movq	%rdi, -24(%rbp)
	movl	%esi, %eax
	movb	%al, -28(%rbp)
	.loc 2 327 3
	movsbl	-28(%rbp), %eax
	cmpl	$115, %eax
	je	.L48
	cmpl	$115, %eax
	jg	.L49
	cmpl	$109, %eax
	je	.L50
	cmpl	$109, %eax
	jg	.L49
	cmpl	$104, %eax
	je	.L51
	cmpl	$104, %eax
	jg	.L49
	testl	%eax, %eax
	je	.L48
	cmpl	$100, %eax
	je	.L52
	jmp	.L49
.L48:
	.loc 2 331 18
	movl	$1, -4(%rbp)
	.loc 2 332 7
	jmp	.L53
.L50:
	.loc 2 334 18
	movl	$60, -4(%rbp)
	.loc 2 335 7
	jmp	.L53
.L51:
	.loc 2 337 18
	movl	$3600, -4(%rbp)
	.loc 2 338 7
	jmp	.L53
.L52:
	.loc 2 340 18
	movl	$86400, -4(%rbp)
	.loc 2 341 7
	jmp	.L53
.L49:
	.loc 2 343 14
	movl	$0, %eax
	jmp	.L54
.L53:
	.loc 2 346 6
	movq	-24(%rbp), %rax
	movsd	(%rax), %xmm1
	cvtsi2sdl	-4(%rbp), %xmm0
	mulsd	%xmm1, %xmm0
	movq	-24(%rbp), %rax
	movsd	%xmm0, (%rax)
	.loc 2 348 10
	movl	$1, %eax
.L54:
	.loc 2 349 1
	popq	%rbp
	.cfi_def_cfa 7, 8
	ret
	.cfi_endproc
.LFE51:
	.size	apply_time_suffix, .-apply_time_suffix
	.section	.rodata
.LC43:
	.string	"invalid time interval %s"
	.text
	.type	parse_duration, @function
parse_duration:
.LFB52:
	.loc 2 353 1
	.cfi_startproc
	endbr64
	pushq	%rbp
	.cfi_def_cfa_offset 16
	.cfi_offset 6, -16
	movq	%rsp, %rbp
	.cfi_def_cfa_register 6
	pushq	%rbx
	subq	$56, %rsp
	.cfi_offset 3, -24
	movq	%rdi, -56(%rbp)
	.loc 2 353 1
	movq	%fs:40, %rax
	movq	%rax, -24(%rbp)
	xorl	%eax, %eax
	.loc 2 357 10
	leaq	-40(%rbp), %rdx
	leaq	-32(%rbp), %rsi
	movq	-56(%rbp), %rax
	movq	cl_strtod@GOTPCREL(%rip), %rcx
	movq	%rax, %rdi
	call	xstrtod@PLT
	xorl	$1, %eax
	.loc 2 357 6
	testb	%al, %al
	je	.L56
	.loc 2 357 54 discriminator 1
	call	__errno_location@PLT
	movl	(%rax), %eax
	.loc 2 357 7 discriminator 1
	cmpl	$34, %eax
	jne	.L57
.L56:
	.loc 2 359 15
	movsd	-40(%rbp), %xmm0
	pxor	%xmm1, %xmm1
	comisd	%xmm1, %xmm0
	setnb	%al
	.loc 2 359 10
	xorl	$1, %eax
	.loc 2 359 7
	testb	%al, %al
	jne	.L57
	.loc 2 361 11
	movq	-32(%rbp), %rax
	movzbl	(%rax), %eax
	.loc 2 361 7
	testb	%al, %al
	je	.L58
	.loc 2 361 23 discriminator 1
	movq	-32(%rbp), %rax
	addq	$1, %rax
	.loc 2 361 18 discriminator 1
	movzbl	(%rax), %eax
	.loc 2 361 15 discriminator 1
	testb	%al, %al
	jne	.L57
.L58:
	.loc 2 363 41
	movq	-32(%rbp), %rax
	movzbl	(%rax), %eax
	.loc 2 363 11
	movsbl	%al, %edx
	leaq	-40(%rbp), %rax
	movl	%edx, %esi
	movq	%rax, %rdi
	call	apply_time_suffix
	.loc 2 363 10
	xorl	$1, %eax
	.loc 2 363 7
	testb	%al, %al
	je	.L59
.L57:
	.loc 2 365 7
	movq	-56(%rbp), %rax
	movq	%rax, %rdi
	call	quote@PLT
	movq	%rax, %rbx
	.loc 2 365 20
	leaq	.LC43(%rip), %rdi
	call	gettext@PLT
	.loc 2 365 7
	movq	%rbx, %rcx
	movq	%rax, %rdx
	movl	$0, %esi
	movl	$0, %edi
	movl	$0, %eax
	call	error@PLT
	.loc 2 366 7
	movl	$125, %edi
	call	usage
.L59:
	.loc 2 369 10
	movsd	-40(%rbp), %xmm0
	.loc 2 370 1
	movq	-24(%rbp), %rax
	xorq	%fs:40, %rax
	je	.L61
	call	__stack_chk_fail@PLT
.L61:
	addq	$56, %rsp
	popq	%rbx
	popq	%rbp
	.cfi_def_cfa 7, 8
	ret
	.cfi_endproc
.LFE52:
	.size	parse_duration, .-parse_duration
	.section	.rodata
.LC44:
	.string	"warning: sigprocmask"
	.text
	.type	unblock_signal, @function
unblock_signal:
.LFB53:
	.loc 2 374 1
	.cfi_startproc
	endbr64
	pushq	%rbp
	.cfi_def_cfa_offset 16
	.cfi_offset 6, -16
	movq	%rsp, %rbp
	.cfi_def_cfa_register 6
	pushq	%rbx
	subq	$168, %rsp
	.cfi_offset 3, -24
	movl	%edi, -164(%rbp)
	.loc 2 374 1
	movq	%fs:40, %rax
	movq	%rax, -24(%rbp)
	xorl	%eax, %eax
	.loc 2 376 3
	leaq	-160(%rbp), %rax
	movq	%rax, %rdi
	call	sigemptyset@PLT
	.loc 2 377 3
	movl	-164(%rbp), %edx
	leaq	-160(%rbp), %rax
	movl	%edx, %esi
	movq	%rax, %rdi
	call	sigaddset@PLT
	.loc 2 378 7
	leaq	-160(%rbp), %rax
	movl	$0, %edx
	movq	%rax, %rsi
	movl	$1, %edi
	call	sigprocmask@PLT
	.loc 2 378 6
	testl	%eax, %eax
	je	.L65
	.loc 2 379 22
	leaq	.LC44(%rip), %rdi
	call	gettext@PLT
	movq	%rax, %rbx
	.loc 2 379 15
	call	__errno_location@PLT
	.loc 2 379 5
	movl	(%rax), %eax
	movq	%rbx, %rdx
	movl	%eax, %esi
	movl	$0, %edi
	movl	$0, %eax
	call	error@PLT
.L65:
	.loc 2 380 1
	nop
	movq	-24(%rbp), %rax
	xorq	%fs:40, %rax
	je	.L64
	call	__stack_chk_fail@PLT
.L64:
	addq	$168, %rsp
	popq	%rbx
	popq	%rbp
	.cfi_def_cfa 7, 8
	ret
	.cfi_endproc
.LFE53:
	.size	unblock_signal, .-unblock_signal
	.type	install_sigchld, @function
install_sigchld:
.LFB54:
	.loc 2 384 1
	.cfi_startproc
	endbr64
	pushq	%rbp
	.cfi_def_cfa_offset 16
	.cfi_offset 6, -16
	movq	%rsp, %rbp
	.cfi_def_cfa_register 6
	subq	$160, %rsp
	.loc 2 384 1
	movq	%fs:40, %rax
	movq	%rax, -8(%rbp)
	xorl	%eax, %eax
	.loc 2 386 3
	leaq	-160(%rbp), %rax
	addq	$8, %rax
	movq	%rax, %rdi
	call	sigemptyset@PLT
	.loc 2 387 17
	leaq	chld(%rip), %rax
	movq	%rax, -160(%rbp)
	.loc 2 388 15
	movl	$268435456, -24(%rbp)
	.loc 2 391 3
	leaq	-160(%rbp), %rax
	movl	$0, %edx
	movq	%rax, %rsi
	movl	$17, %edi
	call	sigaction@PLT
	.loc 2 395 3
	movl	$17, %edi
	call	unblock_signal
	.loc 2 396 1
	nop
	movq	-8(%rbp), %rax
	xorq	%fs:40, %rax
	je	.L67
	call	__stack_chk_fail@PLT
.L67:
	leave
	.cfi_def_cfa 7, 8
	ret
	.cfi_endproc
.LFE54:
	.size	install_sigchld, .-install_sigchld
	.type	install_cleanup, @function
install_cleanup:
.LFB55:
	.loc 2 400 1
	.cfi_startproc
	endbr64
	pushq	%rbp
	.cfi_def_cfa_offset 16
	.cfi_offset 6, -16
	movq	%rsp, %rbp
	.cfi_def_cfa_register 6
	subq	$176, %rsp
	movl	%edi, -164(%rbp)
	.loc 2 400 1
	movq	%fs:40, %rax
	movq	%rax, -8(%rbp)
	xorl	%eax, %eax
	.loc 2 402 3
	leaq	-160(%rbp), %rax
	addq	$8, %rax
	movq	%rax, %rdi
	call	sigemptyset@PLT
	.loc 2 403 17
	leaq	cleanup(%rip), %rax
	movq	%rax, -160(%rbp)
	.loc 2 404 15
	movl	$268435456, -24(%rbp)
	.loc 2 407 3
	leaq	-160(%rbp), %rax
	movl	$0, %edx
	movq	%rax, %rsi
	movl	$14, %edi
	call	sigaction@PLT
	.loc 2 408 3
	leaq	-160(%rbp), %rax
	movl	$0, %edx
	movq	%rax, %rsi
	movl	$2, %edi
	call	sigaction@PLT
	.loc 2 409 3
	leaq	-160(%rbp), %rax
	movl	$0, %edx
	movq	%rax, %rsi
	movl	$3, %edi
	call	sigaction@PLT
	.loc 2 410 3
	leaq	-160(%rbp), %rax
	movl	$0, %edx
	movq	%rax, %rsi
	movl	$1, %edi
	call	sigaction@PLT
	.loc 2 411 3
	leaq	-160(%rbp), %rax
	movl	$0, %edx
	movq	%rax, %rsi
	movl	$15, %edi
	call	sigaction@PLT
	.loc 2 412 3
	leaq	-160(%rbp), %rcx
	movl	-164(%rbp), %eax
	movl	$0, %edx
	movq	%rcx, %rsi
	movl	%eax, %edi
	call	sigaction@PLT
	.loc 2 413 1
	nop
	movq	-8(%rbp), %rax
	xorq	%fs:40, %rax
	je	.L69
	call	__stack_chk_fail@PLT
.L69:
	leave
	.cfi_def_cfa 7, 8
	ret
	.cfi_endproc
.LFE55:
	.size	install_cleanup, .-install_cleanup
	.type	block_cleanup_and_chld, @function
block_cleanup_and_chld:
.LFB56:
	.loc 2 422 1
	.cfi_startproc
	endbr64
	pushq	%rbp
	.cfi_def_cfa_offset 16
	.cfi_offset 6, -16
	movq	%rsp, %rbp
	.cfi_def_cfa_register 6
	pushq	%rbx
	subq	$168, %rsp
	.cfi_offset 3, -24
	movl	%edi, -164(%rbp)
	movq	%rsi, -176(%rbp)
	.loc 2 422 1
	movq	%fs:40, %rax
	movq	%rax, -24(%rbp)
	xorl	%eax, %eax
	.loc 2 424 3
	leaq	-160(%rbp), %rax
	movq	%rax, %rdi
	call	sigemptyset@PLT
	.loc 2 426 3
	leaq	-160(%rbp), %rax
	movl	$14, %esi
	movq	%rax, %rdi
	call	sigaddset@PLT
	.loc 2 427 3
	leaq	-160(%rbp), %rax
	movl	$2, %esi
	movq	%rax, %rdi
	call	sigaddset@PLT
	.loc 2 428 3
	leaq	-160(%rbp), %rax
	movl	$3, %esi
	movq	%rax, %rdi
	call	sigaddset@PLT
	.loc 2 429 3
	leaq	-160(%rbp), %rax
	movl	$1, %esi
	movq	%rax, %rdi
	call	sigaddset@PLT
	.loc 2 430 3
	leaq	-160(%rbp), %rax
	movl	$15, %esi
	movq	%rax, %rdi
	call	sigaddset@PLT
	.loc 2 431 3
	movl	-164(%rbp), %edx
	leaq	-160(%rbp), %rax
	movl	%edx, %esi
	movq	%rax, %rdi
	call	sigaddset@PLT
	.loc 2 433 3
	leaq	-160(%rbp), %rax
	movl	$17, %esi
	movq	%rax, %rdi
	call	sigaddset@PLT
	.loc 2 435 7
	movq	-176(%rbp), %rdx
	leaq	-160(%rbp), %rax
	movq	%rax, %rsi
	movl	$0, %edi
	call	sigprocmask@PLT
	.loc 2 435 6
	testl	%eax, %eax
	je	.L73
	.loc 2 436 22
	leaq	.LC44(%rip), %rdi
	call	gettext@PLT
	movq	%rax, %rbx
	.loc 2 436 15
	call	__errno_location@PLT
	.loc 2 436 5
	movl	(%rax), %eax
	movq	%rbx, %rdx
	movl	%eax, %esi
	movl	$0, %edi
	movl	$0, %eax
	call	error@PLT
.L73:
	.loc 2 437 1
	nop
	movq	-24(%rbp), %rax
	xorq	%fs:40, %rax
	je	.L72
	call	__stack_chk_fail@PLT
.L72:
	addq	$168, %rsp
	popq	%rbx
	popq	%rbp
	.cfi_def_cfa 7, 8
	ret
	.cfi_endproc
.LFE56:
	.size	block_cleanup_and_chld, .-block_cleanup_and_chld
	.section	.rodata
	.align 8
.LC45:
	.string	"warning: disabling core dumps failed"
	.text
	.type	disable_core_dumps, @function
disable_core_dumps:
.LFB57:
	.loc 2 443 1
	.cfi_startproc
	endbr64
	pushq	%rbp
	.cfi_def_cfa_offset 16
	.cfi_offset 6, -16
	movq	%rsp, %rbp
	.cfi_def_cfa_register 6
	pushq	%rbx
	subq	$8, %rsp
	.cfi_offset 3, -24
	.loc 2 445 7
	movl	$0, %esi
	movl	$4, %edi
	movl	$0, %eax
	call	prctl@PLT
	.loc 2 445 6
	testl	%eax, %eax
	jne	.L75
	.loc 2 446 12
	movl	$1, %eax
	jmp	.L76
.L75:
	.loc 2 458 20
	leaq	.LC45(%rip), %rdi
	call	gettext@PLT
	movq	%rax, %rbx
	.loc 2 458 13
	call	__errno_location@PLT
	.loc 2 458 3
	movl	(%rax), %eax
	movq	%rbx, %rdx
	movl	%eax, %esi
	movl	$0, %edi
	movl	$0, %eax
	call	error@PLT
	.loc 2 459 10
	movl	$0, %eax
.L76:
	.loc 2 460 1
	addq	$8, %rsp
	popq	%rbx
	popq	%rbp
	.cfi_def_cfa 7, 8
	ret
	.cfi_endproc
.LFE57:
	.size	disable_core_dumps, .-disable_core_dumps
	.section	.rodata
.LC46:
	.string	"/usr/local/share/locale"
.LC47:
	.string	"Padraig Brady"
.LC48:
	.string	"+k:s:v"
.LC49:
	.string	"fork system call failed"
.LC50:
	.string	"failed to run command %s"
.LC51:
	.string	"error waiting for command"
	.align 8
.LC52:
	.string	"the monitored command dumped core"
	.align 8
.LC53:
	.string	"unknown status from command (%d)"
	.text
	.globl	main
	.type	main, @function
main:
.LFB58:
	.loc 2 464 1
	.cfi_startproc
	endbr64
	pushq	%rbp
	.cfi_def_cfa_offset 16
	.cfi_offset 6, -16
	movq	%rsp, %rbp
	.cfi_def_cfa_register 6
	pushq	%r12
	pushq	%rbx
	subq	$208, %rsp
	.cfi_offset 12, -24
	.cfi_offset 3, -32
	movl	%edi, -212(%rbp)
	movq	%rsi, -224(%rbp)
	.loc 2 464 1
	movq	%fs:40, %rax
	movq	%rax, -24(%rbp)
	xorl	%eax, %eax
	.loc 2 470 3
	movq	-224(%rbp), %rax
	movq	(%rax), %rax
	movq	%rax, %rdi
	call	set_program_name@PLT
	.loc 2 471 3
	leaq	.LC17(%rip), %rsi
	movl	$6, %edi
	call	setlocale@PLT
	.loc 2 472 3
	leaq	.LC46(%rip), %rsi
	leaq	.LC3(%rip), %rdi
	call	bindtextdomain@PLT
	.loc 2 473 3
	leaq	.LC3(%rip), %rdi
	call	textdomain@PLT
	.loc 2 475 3
	movl	$125, %edi
	call	initialize_exit_failure
	.loc 2 476 3
	movq	close_stdout@GOTPCREL(%rip), %rax
	movq	%rax, %rdi
	call	atexit@PLT
	.loc 2 478 9
	jmp	.L78
.L90:
	.loc 2 480 7
	cmpl	$129, -200(%rbp)
	jg	.L79
	cmpl	$107, -200(%rbp)
	jge	.L80
	cmpl	$-131, -200(%rbp)
	je	.L81
	cmpl	$-130, -200(%rbp)
	je	.L82
	jmp	.L79
.L80:
	movl	-200(%rbp), %eax
	subl	$107, %eax
	cmpl	$22, %eax
	ja	.L79
	movl	%eax, %eax
	leaq	0(,%rax,4), %rdx
	leaq	.L84(%rip), %rax
	movl	(%rdx,%rax), %eax
	cltq
	leaq	.L84(%rip), %rdx
	addq	%rdx, %rax
	notrack jmp	*%rax
	.section	.rodata
	.align 4
	.align 4
.L84:
	.long	.L88-.L84
	.long	.L79-.L84
	.long	.L79-.L84
	.long	.L79-.L84
	.long	.L79-.L84
	.long	.L79-.L84
	.long	.L79-.L84
	.long	.L79-.L84
	.long	.L87-.L84
	.long	.L79-.L84
	.long	.L79-.L84
	.long	.L86-.L84
	.long	.L79-.L84
	.long	.L79-.L84
	.long	.L79-.L84
	.long	.L79-.L84
	.long	.L79-.L84
	.long	.L79-.L84
	.long	.L79-.L84
	.long	.L79-.L84
	.long	.L79-.L84
	.long	.L85-.L84
	.long	.L83-.L84
	.text
.L88:
	.loc 2 483 24
	movq	optarg(%rip), %rax
	movq	%rax, %rdi
	call	parse_duration
	movq	%xmm0, %rax
	.loc 2 483 22
	movq	%rax, kill_after(%rip)
	.loc 2 484 11
	jmp	.L78
.L87:
	.loc 2 487 25
	movq	optarg(%rip), %rax
	leaq	-48(%rbp), %rdx
	movq	%rdx, %rsi
	movq	%rax, %rdi
	call	operand2sig@PLT
	.loc 2 487 23
	movl	%eax, term_signal(%rip)
	.loc 2 488 27
	movl	term_signal(%rip), %eax
	.loc 2 488 14
	cmpl	$-1, %eax
	jne	.L78
	.loc 2 489 13
	movl	$125, %edi
	call	usage
.L86:
	.loc 2 493 19
	movb	$1, verbose(%rip)
	.loc 2 494 11
	jmp	.L78
.L85:
	.loc 2 497 22
	movb	$1, foreground(%rip)
	.loc 2 498 11
	jmp	.L78
.L83:
	.loc 2 501 27
	movb	$1, preserve_status(%rip)
	.loc 2 502 11
	jmp	.L78
.L82:
	.loc 2 504 9
	movl	$0, %edi
	call	usage
.L81:
	.loc 2 506 9
	movq	Version(%rip), %rdx
	movq	stdout(%rip), %rax
	movl	$0, %r9d
	leaq	.LC47(%rip), %r8
	movq	%rdx, %rcx
	leaq	.LC12(%rip), %rdx
	leaq	.LC42(%rip), %rsi
	movq	%rax, %rdi
	movl	$0, %eax
	call	version_etc@PLT
	movl	$0, %edi
	call	exit@PLT
.L79:
	.loc 2 509 11
	movl	$125, %edi
	call	usage
.L78:
	.loc 2 478 15
	movq	-224(%rbp), %rsi
	movl	-212(%rbp), %eax
	movl	$0, %r8d
	leaq	long_options(%rip), %rcx
	leaq	.LC48(%rip), %rdx
	movl	%eax, %edi
	call	getopt_long@PLT
	movl	%eax, -200(%rbp)
	.loc 2 478 9
	cmpl	$-1, -200(%rbp)
	jne	.L90
	.loc 2 514 12
	movl	optind(%rip), %eax
	movl	-212(%rbp), %edx
	subl	%eax, %edx
	movl	%edx, %eax
	.loc 2 514 6
	cmpl	$1, %eax
	jg	.L91
	.loc 2 515 5
	movl	$125, %edi
	call	usage
.L91:
	.loc 2 517 40
	movl	optind(%rip), %eax
	leal	1(%rax), %edx
	movl	%edx, optind(%rip)
	cltq
	.loc 2 517 33
	leaq	0(,%rax,8), %rdx
	movq	-224(%rbp), %rax
	addq	%rdx, %rax
	.loc 2 517 13
	movq	(%rax), %rax
	movq	%rax, %rdi
	call	parse_duration
	movq	%xmm0, %rax
	movq	%rax, -184(%rbp)
	.loc 2 519 8
	movl	optind(%rip), %eax
	cltq
	salq	$3, %rax
	addq	%rax, -224(%rbp)
	.loc 2 520 17
	movq	-224(%rbp), %rax
	movq	(%rax), %rax
	.loc 2 520 11
	movq	%rax, command(%rip)
	.loc 2 526 7
	movzbl	foreground(%rip), %eax
	xorl	$1, %eax
	.loc 2 526 6
	testb	%al, %al
	je	.L92
	.loc 2 527 5
	movl	$0, %esi
	movl	$0, %edi
	call	setpgid@PLT
.L92:
	.loc 2 531 3
	movl	term_signal(%rip), %eax
	movl	%eax, %edi
	call	install_cleanup
	.loc 2 532 3
	movl	$1, %esi
	movl	$21, %edi
	call	signal@PLT
	.loc 2 533 3
	movl	$1, %esi
	movl	$22, %edi
	call	signal@PLT
	.loc 2 534 3
	call	install_sigchld
	.loc 2 536 19
	call	fork@PLT
	.loc 2 536 17
	movl	%eax, monitored_pid(%rip)
	.loc 2 537 21
	movl	monitored_pid(%rip), %eax
	.loc 2 537 6
	cmpl	$-1, %eax
	jne	.L93
	.loc 2 539 24
	leaq	.LC49(%rip), %rdi
	call	gettext@PLT
	movq	%rax, %rbx
	.loc 2 539 17
	call	__errno_location@PLT
	.loc 2 539 7
	movl	(%rax), %eax
	movq	%rbx, %rdx
	movl	%eax, %esi
	movl	$0, %edi
	movl	$0, %eax
	call	error@PLT
	.loc 2 540 14
	movl	$125, %eax
	jmp	.L107
.L93:
	.loc 2 542 26
	movl	monitored_pid(%rip), %eax
	.loc 2 542 11
	testl	%eax, %eax
	jne	.L95
.LBB5:
	.loc 2 545 7
	movl	$0, %esi
	movl	$21, %edi
	call	signal@PLT
	.loc 2 546 7
	movl	$0, %esi
	movl	$22, %edi
	call	signal@PLT
	.loc 2 548 7
	movq	-224(%rbp), %rax
	movq	(%rax), %rax
	movq	-224(%rbp), %rdx
	movq	%rdx, %rsi
	movq	%rax, %rdi
	call	execvp@PLT
	.loc 2 551 25
	call	__errno_location@PLT
	movl	(%rax), %eax
	.loc 2 551 55
	cmpl	$2, %eax
	jne	.L96
	.loc 2 551 55 is_stmt 0 discriminator 1
	movl	$127, %eax
	jmp	.L97
.L96:
	.loc 2 551 55 discriminator 2
	movl	$126, %eax
.L97:
	.loc 2 551 11 is_stmt 1 discriminator 4
	movl	%eax, -188(%rbp)
	.loc 2 552 7 discriminator 4
	movq	command(%rip), %rax
	movq	%rax, %rdi
	call	quote@PLT
	movq	%rax, %r12
	.loc 2 552 24 discriminator 4
	leaq	.LC50(%rip), %rdi
	call	gettext@PLT
	movq	%rax, %rbx
	.loc 2 552 17 discriminator 4
	call	__errno_location@PLT
	.loc 2 552 7 discriminator 4
	movl	(%rax), %eax
	movq	%r12, %rcx
	movq	%rbx, %rdx
	movl	%eax, %esi
	movl	$0, %edi
	movl	$0, %eax
	call	error@PLT
	.loc 2 553 14 discriminator 4
	movl	-188(%rbp), %eax
	jmp	.L107
.L95:
.LBE5:
.LBB6:
	.loc 2 562 7
	movl	$14, %edi
	call	unblock_signal
	.loc 2 564 7
	movq	-184(%rbp), %rax
	movl	$1, %edi
	movq	%rax, %xmm0
	call	settimeout
	.loc 2 569 7
	movl	term_signal(%rip), %eax
	leaq	-176(%rbp), %rdx
	movq	%rdx, %rsi
	movl	%eax, %edi
	call	block_cleanup_and_chld
	.loc 2 571 13
	jmp	.L98
.L99:
	.loc 2 572 9
	leaq	-176(%rbp), %rax
	movq	%rax, %rdi
	call	sigsuspend@PLT
.L98:
	.loc 2 571 29
	movl	monitored_pid(%rip), %eax
	leaq	-204(%rbp), %rcx
	movl	$1, %edx
	movq	%rcx, %rsi
	movl	%eax, %edi
	call	waitpid@PLT
	movl	%eax, -196(%rbp)
	.loc 2 571 13
	cmpl	$0, -196(%rbp)
	je	.L99
	.loc 2 574 10
	cmpl	$0, -196(%rbp)
	jns	.L100
	.loc 2 577 28
	leaq	.LC51(%rip), %rdi
	call	gettext@PLT
	movq	%rax, %rbx
	.loc 2 577 21
	call	__errno_location@PLT
	.loc 2 577 11
	movl	(%rax), %eax
	movq	%rbx, %rdx
	movl	%eax, %esi
	movl	$0, %edi
	movl	$0, %eax
	call	error@PLT
	.loc 2 578 18
	movl	$125, -204(%rbp)
	jmp	.L101
.L100:
	.loc 2 582 15
	movl	-204(%rbp), %eax
	andl	$127, %eax
	.loc 2 582 14
	testl	%eax, %eax
	jne	.L102
	.loc 2 583 22
	movl	-204(%rbp), %eax
	sarl	$8, %eax
	movzbl	%al, %eax
	.loc 2 583 20
	movl	%eax, -204(%rbp)
	jmp	.L101
.L102:
	.loc 2 584 20
	movl	-204(%rbp), %eax
	andl	$127, %eax
	addl	$1, %eax
	sarb	%al
	.loc 2 584 19
	testb	%al, %al
	jle	.L103
.LBB7:
	.loc 2 586 25
	movl	-204(%rbp), %eax
	.loc 2 586 19
	andl	$127, %eax
	movl	%eax, -192(%rbp)
	.loc 2 587 19
	movl	-204(%rbp), %eax
	andl	$128, %eax
	.loc 2 587 18
	testl	%eax, %eax
	je	.L104
	.loc 2 588 30
	leaq	.LC52(%rip), %rdi
	call	gettext@PLT
	.loc 2 588 17
	movq	%rax, %rdx
	movl	$0, %esi
	movl	$0, %edi
	movl	$0, %eax
	call	error@PLT
.L104:
	.loc 2 589 19
	movl	timed_out(%rip), %eax
	.loc 2 589 18
	testl	%eax, %eax
	jne	.L105
	.loc 2 589 33 discriminator 1
	call	disable_core_dumps
	.loc 2 589 30 discriminator 1
	testb	%al, %al
	je	.L105
	.loc 2 592 19
	movl	-192(%rbp), %eax
	movl	$0, %esi
	movl	%eax, %edi
	call	signal@PLT
	.loc 2 593 19
	movl	-192(%rbp), %eax
	movl	%eax, %edi
	call	unblock_signal
	.loc 2 594 19
	movl	-192(%rbp), %eax
	movl	%eax, %edi
	call	raise@PLT
.L105:
	.loc 2 596 28
	movl	-192(%rbp), %eax
	subl	$-128, %eax
	.loc 2 596 22
	movl	%eax, -204(%rbp)
.LBE7:
	jmp	.L101
.L103:
	.loc 2 601 15
	movl	-204(%rbp), %ebx
	.loc 2 601 28
	leaq	.LC53(%rip), %rdi
	call	gettext@PLT
	.loc 2 601 15
	movl	%ebx, %ecx
	movq	%rax, %rdx
	movl	$0, %esi
	movl	$0, %edi
	movl	$0, %eax
	call	error@PLT
	.loc 2 602 22
	movl	$1, -204(%rbp)
.L101:
	.loc 2 606 11
	movl	timed_out(%rip), %eax
	.loc 2 606 10
	testl	%eax, %eax
	je	.L106
	.loc 2 606 24 discriminator 1
	movzbl	preserve_status(%rip), %eax
	xorl	$1, %eax
	.loc 2 606 21 discriminator 1
	testb	%al, %al
	je	.L106
	.loc 2 607 16
	movl	$124, -204(%rbp)
.L106:
	.loc 2 608 14
	movl	-204(%rbp), %eax
.L107:
.LBE6:
	.loc 2 610 1 discriminator 2
	movq	-24(%rbp), %rcx
	xorq	%fs:40, %rcx
	je	.L108
	.loc 2 610 1 is_stmt 0
	call	__stack_chk_fail@PLT
.L108:
	addq	$208, %rsp
	popq	%rbx
	popq	%r12
	popq	%rbp
	.cfi_def_cfa 7, 8
	ret
	.cfi_endproc
.LFE58:
	.size	main, .-main
	.section	.rodata
	.align 8
.LC28:
	.long	4292870144
	.long	1106247679
	.text
.Letext0:
	.file 3 "/usr/include/x86_64-linux-gnu/bits/getopt_core.h"
	.file 4 "/usr/include/x86_64-linux-gnu/bits/getopt_ext.h"
	.file 5 "/usr/lib/gcc/x86_64-linux-gnu/9/include/stddef.h"
	.file 6 "/usr/include/x86_64-linux-gnu/bits/types.h"
	.file 7 "/usr/include/x86_64-linux-gnu/bits/types/struct_FILE.h"
	.file 8 "/usr/include/x86_64-linux-gnu/bits/types/FILE.h"
	.file 9 "/usr/include/stdio.h"
	.file 10 "/usr/include/x86_64-linux-gnu/bits/sys_errlist.h"
	.file 11 "/usr/include/x86_64-linux-gnu/sys/types.h"
	.file 12 "/usr/include/x86_64-linux-gnu/bits/types/time_t.h"
	.file 13 "/usr/include/x86_64-linux-gnu/bits/types/timer_t.h"
	.file 14 "/usr/include/x86_64-linux-gnu/bits/types/__sigset_t.h"
	.file 15 "/usr/include/x86_64-linux-gnu/bits/types/sigset_t.h"
	.file 16 "/usr/include/x86_64-linux-gnu/bits/types/struct_timespec.h"
	.file 17 "./lib/sys/select.h"
	.file 18 "/usr/include/x86_64-linux-gnu/bits/types/__sigval_t.h"
	.file 19 "/usr/include/x86_64-linux-gnu/bits/types/siginfo_t.h"
	.file 20 "/usr/include/signal.h"
	.file 21 "/usr/include/x86_64-linux-gnu/bits/sigaction.h"
	.file 22 "/usr/include/x86_64-linux-gnu/bits/types/struct_itimerspec.h"
	.file 23 "/usr/include/time.h"
	.file 24 "/usr/include/unistd.h"
	.file 25 "/usr/include/errno.h"
	.file 26 "src/version.h"
	.file 27 "./lib/exitfail.h"
	.file 28 "./lib/timespec.h"
	.file 29 "./lib/version-etc.h"
	.file 30 "./lib/progname.h"
	.file 31 "./lib/quotearg.h"
	.file 32 "./lib/error.h"
	.file 33 "./lib/quote.h"
	.section	.note.GNU-stack,"",@progbits
	.section	.note.gnu.property,"a"
	.align 8
	.long	 1f - 0f
	.long	 4f - 1f
	.long	 5
0:
	.string	 "GNU"
1:
	.align 8
	.long	 0xc0000002
	.long	 3f - 2f
2:
	.long	 0x3
3:
	.align 8
4:
