	.file	"uname.c"
	.text
.Ltext0:
	.section	.rodata
.LC0:
	.string	"["
.LC1:
	.string	"test invocation"
.LC2:
	.string	"coreutils"
.LC3:
	.string	"Multi-call invocation"
.LC4:
	.string	"sha224sum"
.LC5:
	.string	"sha2 utilities"
.LC6:
	.string	"sha256sum"
.LC7:
	.string	"sha384sum"
.LC8:
	.string	"sha512sum"
.LC9:
	.string	"\n%s online help: <%s>\n"
	.align 8
.LC10:
	.string	"https://www.gnu.org/software/coreutils/"
.LC11:
	.string	"GNU coreutils"
.LC12:
	.string	"en_"
	.align 8
.LC13:
	.string	"Report any translation bugs to <https://translationproject.org/team/>\n"
.LC14:
	.string	"Full documentation <%s%s>\n"
.LC15:
	.string	" invocation"
.LC16:
	.string	""
	.align 8
.LC17:
	.string	"or available locally via: info '(coreutils) %s%s'\n"
	.text
	.type	emit_ancillary_info, @function
emit_ancillary_info:
.LFB40:
	.file 1 "src/system.h"
	.loc 1 635 1
	.cfi_startproc
	pushq	%rbp
	.cfi_def_cfa_offset 16
	.cfi_offset 6, -16
	movq	%rsp, %rbp
	.cfi_def_cfa_register 6
	pushq	%rbx
	subq	$184, %rsp
	.cfi_offset 3, -24
	movq	%rdi, -184(%rbp)
	.loc 1 635 1
	movq	%fs:40, %rax
	movq	%rax, -24(%rbp)
	xorl	%eax, %eax
	.loc 1 636 67
	leaq	.LC0(%rip), %rax
	movq	%rax, -144(%rbp)
	leaq	.LC1(%rip), %rax
	movq	%rax, -136(%rbp)
	leaq	.LC2(%rip), %rax
	movq	%rax, -128(%rbp)
	leaq	.LC3(%rip), %rax
	movq	%rax, -120(%rbp)
	leaq	.LC4(%rip), %rax
	movq	%rax, -112(%rbp)
	leaq	.LC5(%rip), %rax
	movq	%rax, -104(%rbp)
	leaq	.LC6(%rip), %rax
	movq	%rax, -96(%rbp)
	leaq	.LC5(%rip), %rax
	movq	%rax, -88(%rbp)
	leaq	.LC7(%rip), %rax
	movq	%rax, -80(%rbp)
	leaq	.LC5(%rip), %rax
	movq	%rax, -72(%rbp)
	leaq	.LC8(%rip), %rax
	movq	%rax, -64(%rbp)
	leaq	.LC5(%rip), %rax
	movq	%rax, -56(%rbp)
	movq	$0, -48(%rbp)
	movq	$0, -40(%rbp)
	.loc 1 646 15
	movq	-184(%rbp), %rax
	movq	%rax, -168(%rbp)
	.loc 1 647 25
	leaq	-144(%rbp), %rax
	movq	%rax, -160(%rbp)
	.loc 1 649 9
	jmp	.L2
.L4:
	.loc 1 650 13
	addq	$16, -160(%rbp)
.L2:
	.loc 1 649 18
	movq	-160(%rbp), %rax
	movq	(%rax), %rax
	.loc 1 649 9
	testq	%rax, %rax
	je	.L3
	.loc 1 649 33 discriminator 1
	movq	-160(%rbp), %rax
	movq	(%rax), %rdx
	movq	-184(%rbp), %rax
	movq	%rdx, %rsi
	movq	%rax, %rdi
	call	strcmp@PLT
	.loc 1 649 28 discriminator 1
	testl	%eax, %eax
	jne	.L4
.L3:
	.loc 1 652 15
	movq	-160(%rbp), %rax
	movq	8(%rax), %rax
	.loc 1 652 6
	testq	%rax, %rax
	je	.L5
	.loc 1 653 10
	movq	-160(%rbp), %rax
	movq	8(%rax), %rax
	movq	%rax, -168(%rbp)
.L5:
	.loc 1 655 11
	leaq	.LC9(%rip), %rdi
	call	gettext@PLT
	.loc 1 655 3
	leaq	.LC10(%rip), %rdx
	leaq	.LC11(%rip), %rsi
	movq	%rax, %rdi
	movl	$0, %eax
	call	printf@PLT
	.loc 1 659 29
	movl	$0, %esi
	movl	$5, %edi
	call	setlocale@PLT
	movq	%rax, -152(%rbp)
	.loc 1 660 6
	cmpq	$0, -152(%rbp)
	je	.L6
	.loc 1 660 22 discriminator 1
	movq	-152(%rbp), %rax
	movl	$3, %edx
	leaq	.LC12(%rip), %rsi
	movq	%rax, %rdi
	call	strncmp@PLT
	.loc 1 660 19 discriminator 1
	testl	%eax, %eax
	je	.L6
	.loc 1 666 7
	movq	stdout(%rip), %rbx
	leaq	.LC13(%rip), %rdi
	call	gettext@PLT
	movq	%rbx, %rsi
	movq	%rax, %rdi
	call	fputs_unlocked@PLT
.L6:
	.loc 1 669 11
	leaq	.LC14(%rip), %rdi
	call	gettext@PLT
	movq	%rax, %rcx
	.loc 1 669 3
	movq	-184(%rbp), %rax
	movq	%rax, %rdx
	leaq	.LC10(%rip), %rsi
	movq	%rcx, %rdi
	movl	$0, %eax
	call	printf@PLT
	.loc 1 671 3
	movq	-168(%rbp), %rax
	cmpq	-184(%rbp), %rax
	jne	.L7
	.loc 1 671 3 is_stmt 0 discriminator 1
	leaq	.LC15(%rip), %rbx
	jmp	.L8
.L7:
	.loc 1 671 3 discriminator 2
	leaq	.LC16(%rip), %rbx
.L8:
	.loc 1 671 11 is_stmt 1 discriminator 4
	leaq	.LC17(%rip), %rdi
	call	gettext@PLT
	movq	%rax, %rcx
	.loc 1 671 3 discriminator 4
	movq	-168(%rbp), %rax
	movq	%rbx, %rdx
	movq	%rax, %rsi
	movq	%rcx, %rdi
	movl	$0, %eax
	call	printf@PLT
	.loc 1 673 1 discriminator 4
	nop
	movq	-24(%rbp), %rax
	xorq	%fs:40, %rax
	je	.L9
	.loc 1 673 1 is_stmt 0
	call	__stack_chk_fail@PLT
.L9:
	addq	$184, %rsp
	popq	%rbx
	popq	%rbp
	.cfi_def_cfa 7, 8
	ret
	.cfi_endproc
.LFE40:
	.size	emit_ancillary_info, .-emit_ancillary_info
	.section	.rodata
.LC18:
	.string	"all"
.LC19:
	.string	"kernel-name"
.LC20:
	.string	"sysname"
.LC21:
	.string	"nodename"
.LC22:
	.string	"kernel-release"
.LC23:
	.string	"release"
.LC24:
	.string	"kernel-version"
.LC25:
	.string	"machine"
.LC26:
	.string	"processor"
.LC27:
	.string	"hardware-platform"
.LC28:
	.string	"operating-system"
.LC29:
	.string	"help"
.LC30:
	.string	"version"
	.section	.data.rel.ro.local,"aw"
	.align 32
	.type	uname_long_options, @object
	.size	uname_long_options, 448
uname_long_options:
	.quad	.LC18
	.long	0
	.zero	4
	.quad	0
	.long	97
	.zero	4
	.quad	.LC19
	.long	0
	.zero	4
	.quad	0
	.long	115
	.zero	4
	.quad	.LC20
	.long	0
	.zero	4
	.quad	0
	.long	115
	.zero	4
	.quad	.LC21
	.long	0
	.zero	4
	.quad	0
	.long	110
	.zero	4
	.quad	.LC22
	.long	0
	.zero	4
	.quad	0
	.long	114
	.zero	4
	.quad	.LC23
	.long	0
	.zero	4
	.quad	0
	.long	114
	.zero	4
	.quad	.LC24
	.long	0
	.zero	4
	.quad	0
	.long	118
	.zero	4
	.quad	.LC25
	.long	0
	.zero	4
	.quad	0
	.long	109
	.zero	4
	.quad	.LC26
	.long	0
	.zero	4
	.quad	0
	.long	112
	.zero	4
	.quad	.LC27
	.long	0
	.zero	4
	.quad	0
	.long	105
	.zero	4
	.quad	.LC28
	.long	0
	.zero	4
	.quad	0
	.long	111
	.zero	4
	.quad	.LC29
	.long	0
	.zero	4
	.quad	0
	.long	-130
	.zero	4
	.quad	.LC30
	.long	0
	.zero	4
	.quad	0
	.long	-131
	.zero	4
	.quad	0
	.long	0
	.zero	4
	.quad	0
	.long	0
	.zero	4
	.align 32
	.type	arch_long_options, @object
	.size	arch_long_options, 96
arch_long_options:
	.quad	.LC29
	.long	0
	.zero	4
	.quad	0
	.long	-130
	.zero	4
	.quad	.LC30
	.long	0
	.zero	4
	.quad	0
	.long	-131
	.zero	4
	.quad	0
	.long	0
	.zero	4
	.quad	0
	.long	0
	.zero	4
	.section	.rodata
	.align 8
.LC31:
	.string	"Try '%s --help' for more information.\n"
.LC32:
	.string	"Usage: %s [OPTION]...\n"
	.align 8
.LC33:
	.ascii	"Print certain system information.  With no OPTION, same as -"
	.ascii	"s.\n\n  -a, --all                print all info"
	.string	"rmation, in the following order,\n                             except omit -p and -i if unknown:\n  -s, --kernel-name        print the kernel name\n  -n, --nodename           print the network node hostname\n  -r, --kernel-release     print the kernel release\n"
	.align 8
.LC34:
	.ascii	"  -v, --kernel-version     print the kernel ve"
	.string	"rsion\n  -m, --machine            print the machine hardware name\n  -p, --processor          print the processor type (non-portable)\n  -i, --hardware-platform  print the hardware platform (non-portable)\n  -o, --operating-system   print the operating system\n"
.LC35:
	.string	"Print machine architecture.\n\n"
	.align 8
.LC36:
	.string	"      --help     display this help and exit\n"
	.align 8
.LC37:
	.string	"      --version  output version information and exit\n"
.LC38:
	.string	"uname"
.LC39:
	.string	"arch"
	.text
	.globl	usage
	.type	usage, @function
usage:
.LFB46:
	.file 2 "src/uname.c"
	.loc 2 116 1 is_stmt 1
	.cfi_startproc
	endbr64
	pushq	%rbp
	.cfi_def_cfa_offset 16
	.cfi_offset 6, -16
	movq	%rsp, %rbp
	.cfi_def_cfa_register 6
	pushq	%rbx
	subq	$24, %rsp
	.cfi_offset 3, -24
	movl	%edi, -20(%rbp)
	.loc 2 117 6
	cmpl	$0, -20(%rbp)
	je	.L11
	.loc 2 118 5
	movq	program_name(%rip), %rbx
	leaq	.LC31(%rip), %rdi
	call	gettext@PLT
	movq	%rax, %rcx
	movq	stderr(%rip), %rax
	movq	%rbx, %rdx
	movq	%rcx, %rsi
	movq	%rax, %rdi
	movl	$0, %eax
	call	fprintf@PLT
	jmp	.L12
.L11:
	.loc 2 121 7
	movq	program_name(%rip), %rbx
	.loc 2 121 15
	leaq	.LC32(%rip), %rdi
	call	gettext@PLT
	.loc 2 121 7
	movq	%rbx, %rsi
	movq	%rax, %rdi
	movl	$0, %eax
	call	printf@PLT
	.loc 2 123 22
	movl	uname_mode(%rip), %eax
	.loc 2 123 10
	cmpl	$1, %eax
	jne	.L13
	.loc 2 125 11
	movq	stdout(%rip), %rbx
	leaq	.LC33(%rip), %rdi
	call	gettext@PLT
	movq	%rbx, %rsi
	movq	%rax, %rdi
	call	fputs_unlocked@PLT
	.loc 2 134 11
	movq	stdout(%rip), %rbx
	leaq	.LC34(%rip), %rdi
	call	gettext@PLT
	movq	%rbx, %rsi
	movq	%rax, %rdi
	call	fputs_unlocked@PLT
	jmp	.L14
.L13:
	.loc 2 144 11
	movq	stdout(%rip), %rbx
	leaq	.LC35(%rip), %rdi
	call	gettext@PLT
	movq	%rbx, %rsi
	movq	%rax, %rdi
	call	fputs_unlocked@PLT
.L14:
	.loc 2 150 7
	movq	stdout(%rip), %rbx
	leaq	.LC36(%rip), %rdi
	call	gettext@PLT
	movq	%rbx, %rsi
	movq	%rax, %rdi
	call	fputs_unlocked@PLT
	.loc 2 151 7
	movq	stdout(%rip), %rbx
	leaq	.LC37(%rip), %rdi
	call	gettext@PLT
	movq	%rbx, %rsi
	movq	%rax, %rdi
	call	fputs_unlocked@PLT
	.loc 2 152 28
	movl	uname_mode(%rip), %eax
	.loc 2 152 7
	cmpl	$1, %eax
	jne	.L15
	.loc 2 152 7 is_stmt 0 discriminator 1
	leaq	.LC38(%rip), %rax
	jmp	.L16
.L15:
	.loc 2 152 7 discriminator 2
	leaq	.LC39(%rip), %rax
.L16:
	.loc 2 152 7 discriminator 4
	movq	%rax, %rdi
	call	emit_ancillary_info
.L12:
	.loc 2 154 3 is_stmt 1
	movl	-20(%rbp), %eax
	movl	%eax, %edi
	call	exit@PLT
	.cfi_endproc
.LFE46:
	.size	usage, .-usage
	.type	print_element, @function
print_element:
.LFB47:
	.loc 2 162 1
	.cfi_startproc
	endbr64
	pushq	%rbp
	.cfi_def_cfa_offset 16
	.cfi_offset 6, -16
	movq	%rsp, %rbp
	.cfi_def_cfa_register 6
	subq	$16, %rsp
	movq	%rdi, -8(%rbp)
	.loc 2 164 7
	movzbl	printed.6239(%rip), %eax
	.loc 2 164 6
	testb	%al, %al
	je	.L18
	.loc 2 165 5
	movl	$32, %edi
	call	putchar_unlocked@PLT
.L18:
	.loc 2 166 11
	movb	$1, printed.6239(%rip)
	.loc 2 167 3
	movq	stdout(%rip), %rdx
	movq	-8(%rbp), %rax
	movq	%rdx, %rsi
	movq	%rax, %rdi
	call	fputs_unlocked@PLT
	.loc 2 168 1
	nop
	leave
	.cfi_def_cfa 7, 8
	ret
	.cfi_endproc
.LFE47:
	.size	print_element, .-print_element
	.section	.rodata
.LC40:
	.string	"Karel Zak"
.LC41:
	.string	"David MacKenzie"
.LC42:
	.string	"asnrvmpio"
.LC43:
	.string	"extra operand %s"
	.text
	.type	decode_switches, @function
decode_switches:
.LFB48:
	.loc 2 176 1
	.cfi_startproc
	endbr64
	pushq	%rbp
	.cfi_def_cfa_offset 16
	.cfi_offset 6, -16
	movq	%rsp, %rbp
	.cfi_def_cfa_register 6
	pushq	%rbx
	subq	$40, %rsp
	.cfi_offset 3, -24
	movl	%edi, -36(%rbp)
	movq	%rsi, -48(%rbp)
	.loc 2 178 16
	movl	$0, -24(%rbp)
	.loc 2 180 18
	movl	uname_mode(%rip), %eax
	.loc 2 180 6
	cmpl	$2, %eax
	jne	.L28
	.loc 2 182 13
	jmp	.L48
.L26:
	.loc 2 185 11
	cmpl	$-131, -20(%rbp)
	je	.L22
	cmpl	$-130, -20(%rbp)
	jne	.L23
	.loc 2 187 13
	movl	$0, %edi
	call	usage
.L22:
	.loc 2 189 13
	movq	Version(%rip), %rdx
	movl	uname_mode(%rip), %eax
	cmpl	$1, %eax
	jne	.L24
	.loc 2 189 13 is_stmt 0 discriminator 1
	leaq	.LC38(%rip), %rax
	jmp	.L25
.L24:
	.loc 2 189 13 discriminator 2
	leaq	.LC39(%rip), %rax
.L25:
	.loc 2 189 13 discriminator 4
	movq	stdout(%rip), %rdi
	subq	$8, %rsp
	pushq	$0
	leaq	.LC40(%rip), %r9
	leaq	.LC41(%rip), %r8
	movq	%rdx, %rcx
	leaq	.LC11(%rip), %rdx
	movq	%rax, %rsi
	movl	$0, %eax
	call	version_etc@PLT
	addq	$16, %rsp
	movl	$0, %edi
	call	exit@PLT
.L23:
	.loc 2 192 15 is_stmt 1
	movl	$1, %edi
	call	usage
.L48:
	.loc 2 182 19
	movq	-48(%rbp), %rsi
	movl	-36(%rbp), %eax
	movl	$0, %r8d
	leaq	arch_long_options(%rip), %rcx
	leaq	.LC16(%rip), %rdx
	movl	%eax, %edi
	call	getopt_long@PLT
	movl	%eax, -20(%rbp)
	.loc 2 182 13
	cmpl	$-1, -20(%rbp)
	jne	.L26
	.loc 2 195 15
	movl	$16, -24(%rbp)
	jmp	.L27
.L45:
	.loc 2 202 11
	cmpl	$118, -20(%rbp)
	jg	.L29
	cmpl	$97, -20(%rbp)
	jge	.L30
	cmpl	$-131, -20(%rbp)
	je	.L31
	cmpl	$-130, -20(%rbp)
	je	.L32
	jmp	.L29
.L30:
	movl	-20(%rbp), %eax
	subl	$97, %eax
	cmpl	$21, %eax
	ja	.L29
	movl	%eax, %eax
	leaq	0(,%rax,4), %rdx
	leaq	.L34(%rip), %rax
	movl	(%rdx,%rax), %eax
	cltq
	leaq	.L34(%rip), %rdx
	addq	%rdx, %rax
	notrack jmp	*%rax
	.section	.rodata
	.align 4
	.align 4
.L34:
	.long	.L42-.L34
	.long	.L29-.L34
	.long	.L29-.L34
	.long	.L29-.L34
	.long	.L29-.L34
	.long	.L29-.L34
	.long	.L29-.L34
	.long	.L29-.L34
	.long	.L41-.L34
	.long	.L29-.L34
	.long	.L29-.L34
	.long	.L29-.L34
	.long	.L40-.L34
	.long	.L39-.L34
	.long	.L38-.L34
	.long	.L37-.L34
	.long	.L29-.L34
	.long	.L36-.L34
	.long	.L35-.L34
	.long	.L29-.L34
	.long	.L29-.L34
	.long	.L33-.L34
	.text
.L42:
	.loc 2 205 23
	movl	$-1, -24(%rbp)
	.loc 2 206 15
	jmp	.L28
.L35:
	.loc 2 209 23
	orl	$1, -24(%rbp)
	.loc 2 210 15
	jmp	.L28
.L39:
	.loc 2 213 23
	orl	$2, -24(%rbp)
	.loc 2 214 15
	jmp	.L28
.L36:
	.loc 2 217 23
	orl	$4, -24(%rbp)
	.loc 2 218 15
	jmp	.L28
.L33:
	.loc 2 221 23
	orl	$8, -24(%rbp)
	.loc 2 222 15
	jmp	.L28
.L40:
	.loc 2 225 23
	orl	$16, -24(%rbp)
	.loc 2 226 15
	jmp	.L28
.L37:
	.loc 2 229 23
	orl	$32, -24(%rbp)
	.loc 2 230 15
	jmp	.L28
.L41:
	.loc 2 233 23
	orl	$64, -24(%rbp)
	.loc 2 234 15
	jmp	.L28
.L38:
	.loc 2 237 23
	orl	$128, -24(%rbp)
	.loc 2 238 15
	jmp	.L28
.L32:
	.loc 2 240 13
	movl	$0, %edi
	call	usage
.L31:
	.loc 2 242 13
	movq	Version(%rip), %rdx
	movl	uname_mode(%rip), %eax
	cmpl	$1, %eax
	jne	.L43
	.loc 2 242 13 is_stmt 0 discriminator 1
	leaq	.LC38(%rip), %rax
	jmp	.L44
.L43:
	.loc 2 242 13 discriminator 2
	leaq	.LC39(%rip), %rax
.L44:
	.loc 2 242 13 discriminator 4
	movq	stdout(%rip), %rdi
	movl	$0, %r9d
	leaq	.LC41(%rip), %r8
	movq	%rdx, %rcx
	leaq	.LC11(%rip), %rdx
	movq	%rax, %rsi
	movl	$0, %eax
	call	version_etc@PLT
	movl	$0, %edi
	call	exit@PLT
.L29:
	.loc 2 245 15 is_stmt 1
	movl	$1, %edi
	call	usage
.L28:
	.loc 2 199 19
	movq	-48(%rbp), %rsi
	movl	-36(%rbp), %eax
	movl	$0, %r8d
	leaq	uname_long_options(%rip), %rcx
	leaq	.LC42(%rip), %rdx
	movl	%eax, %edi
	call	getopt_long@PLT
	movl	%eax, -20(%rbp)
	.loc 2 199 13
	cmpl	$-1, -20(%rbp)
	jne	.L45
.L27:
	.loc 2 250 12
	movl	optind(%rip), %eax
	.loc 2 250 6
	cmpl	%eax, -36(%rbp)
	je	.L46
	.loc 2 252 54
	movl	optind(%rip), %eax
	cltq
	leaq	0(,%rax,8), %rdx
	movq	-48(%rbp), %rax
	addq	%rdx, %rax
	.loc 2 252 7
	movq	(%rax), %rax
	movq	%rax, %rdi
	call	quote@PLT
	movq	%rax, %rbx
	.loc 2 252 20
	leaq	.LC43(%rip), %rdi
	call	gettext@PLT
	.loc 2 252 7
	movq	%rbx, %rcx
	movq	%rax, %rdx
	movl	$0, %esi
	movl	$0, %edi
	movl	$0, %eax
	call	error@PLT
	.loc 2 253 7
	movl	$1, %edi
	call	usage
.L46:
	.loc 2 256 10
	movl	-24(%rbp), %eax
	.loc 2 257 1
	movq	-8(%rbp), %rbx
	leave
	.cfi_def_cfa 7, 8
	ret
	.cfi_endproc
.LFE48:
	.size	decode_switches, .-decode_switches
	.section	.rodata
.LC44:
	.string	"/usr/local/share/locale"
.LC45:
	.string	"cannot get system name"
.LC46:
	.string	"GNU/Linux"
	.text
	.globl	main
	.type	main, @function
main:
.LFB49:
	.loc 2 261 1
	.cfi_startproc
	endbr64
	pushq	%rbp
	.cfi_def_cfa_offset 16
	.cfi_offset 6, -16
	movq	%rsp, %rbp
	.cfi_def_cfa_register 6
	pushq	%rbx
	subq	$456, %rsp
	.cfi_offset 3, -24
	movl	%edi, -452(%rbp)
	movq	%rsi, -464(%rbp)
	.loc 2 261 1
	movq	%fs:40, %rax
	movq	%rax, -24(%rbp)
	xorl	%eax, %eax
	.loc 2 265 16
	movl	$0, -436(%rbp)
	.loc 2 268 3
	movq	-464(%rbp), %rax
	movq	(%rax), %rax
	movq	%rax, %rdi
	call	set_program_name@PLT
	.loc 2 269 3
	leaq	.LC16(%rip), %rsi
	movl	$6, %edi
	call	setlocale@PLT
	.loc 2 270 3
	leaq	.LC44(%rip), %rsi
	leaq	.LC2(%rip), %rdi
	call	bindtextdomain@PLT
	.loc 2 271 3
	leaq	.LC2(%rip), %rdi
	call	textdomain@PLT
	.loc 2 273 3
	movq	close_stdout@GOTPCREL(%rip), %rax
	movq	%rax, %rdi
	call	atexit@PLT
	.loc 2 275 13
	movq	-464(%rbp), %rdx
	movl	-452(%rbp), %eax
	movq	%rdx, %rsi
	movl	%eax, %edi
	call	decode_switches
	.loc 2 275 11
	movl	%eax, -436(%rbp)
	.loc 2 277 6
	cmpl	$0, -436(%rbp)
	jne	.L50
	.loc 2 278 13
	movl	$1, -436(%rbp)
.L50:
	.loc 2 281 8
	movl	-436(%rbp), %eax
	andl	$31, %eax
	.loc 2 280 6
	testl	%eax, %eax
	je	.L51
.LBB2:
	.loc 2 286 11
	leaq	-416(%rbp), %rax
	movq	%rax, %rdi
	call	uname@PLT
	.loc 2 286 10
	cmpl	$-1, %eax
	jne	.L52
.LBB3:
	.loc 2 287 9
	leaq	.LC45(%rip), %rdi
	call	gettext@PLT
	movq	%rax, %rbx
	call	__errno_location@PLT
	movl	(%rax), %eax
	movq	%rbx, %rdx
	movl	%eax, %esi
	movl	$1, %edi
	movl	$0, %eax
	call	error@PLT
.L52:
.LBE3:
	.loc 2 289 19
	movl	-436(%rbp), %eax
	andl	$1, %eax
	.loc 2 289 10
	testl	%eax, %eax
	je	.L53
	.loc 2 290 9
	leaq	-416(%rbp), %rax
	movq	%rax, %rdi
	call	print_element
.L53:
	.loc 2 291 19
	movl	-436(%rbp), %eax
	andl	$2, %eax
	.loc 2 291 10
	testl	%eax, %eax
	je	.L54
	.loc 2 292 9
	leaq	-416(%rbp), %rax
	addq	$65, %rax
	movq	%rax, %rdi
	call	print_element
.L54:
	.loc 2 293 19
	movl	-436(%rbp), %eax
	andl	$4, %eax
	.loc 2 293 10
	testl	%eax, %eax
	je	.L55
	.loc 2 294 9
	leaq	-416(%rbp), %rax
	addq	$130, %rax
	movq	%rax, %rdi
	call	print_element
.L55:
	.loc 2 295 19
	movl	-436(%rbp), %eax
	andl	$8, %eax
	.loc 2 295 10
	testl	%eax, %eax
	je	.L56
	.loc 2 296 9
	leaq	-416(%rbp), %rax
	addq	$195, %rax
	movq	%rax, %rdi
	call	print_element
.L56:
	.loc 2 297 19
	movl	-436(%rbp), %eax
	andl	$16, %eax
	.loc 2 297 10
	testl	%eax, %eax
	je	.L51
	.loc 2 298 9
	leaq	-416(%rbp), %rax
	addq	$260, %rax
	movq	%rax, %rdi
	call	print_element
.L51:
.LBE2:
	.loc 2 301 15
	movl	-436(%rbp), %eax
	andl	$32, %eax
	.loc 2 301 6
	testl	%eax, %eax
	je	.L58
.LBB4:
	.loc 2 303 19
	leaq	unknown.6272(%rip), %rax
	movq	%rax, -432(%rbp)
	.loc 2 341 10
	cmpl	$-1, -436(%rbp)
	jne	.L59
	.loc 2 341 11 discriminator 1
	leaq	unknown.6272(%rip), %rax
	cmpq	%rax, -432(%rbp)
	je	.L58
.L59:
	.loc 2 342 9
	movq	-432(%rbp), %rax
	movq	%rax, %rdi
	call	print_element
.L58:
.LBE4:
	.loc 2 345 15
	movl	-436(%rbp), %eax
	andl	$64, %eax
	.loc 2 345 6
	testl	%eax, %eax
	je	.L60
.LBB5:
	.loc 2 347 19
	leaq	unknown.6272(%rip), %rax
	movq	%rax, -424(%rbp)
	.loc 2 366 10
	cmpl	$-1, -436(%rbp)
	jne	.L61
	.loc 2 366 11 discriminator 1
	leaq	unknown.6272(%rip), %rax
	cmpq	%rax, -424(%rbp)
	je	.L60
.L61:
	.loc 2 367 9
	movq	-424(%rbp), %rax
	movq	%rax, %rdi
	call	print_element
.L60:
.LBE5:
	.loc 2 370 15
	movl	-436(%rbp), %eax
	andl	$128, %eax
	.loc 2 370 6
	testl	%eax, %eax
	je	.L62
	.loc 2 371 5
	leaq	.LC46(%rip), %rdi
	call	print_element
.L62:
	.loc 2 373 3
	movl	$10, %edi
	call	putchar_unlocked@PLT
	.loc 2 375 10
	movl	$0, %eax
	.loc 2 376 1
	movq	-24(%rbp), %rcx
	xorq	%fs:40, %rcx
	je	.L64
	call	__stack_chk_fail@PLT
.L64:
	addq	$456, %rsp
	popq	%rbx
	popq	%rbp
	.cfi_def_cfa 7, 8
	ret
	.cfi_endproc
.LFE49:
	.size	main, .-main
	.local	printed.6239
	.comm	printed.6239,1,1
	.section	.rodata
	.align 8
	.type	unknown.6272, @object
	.size	unknown.6272, 8
unknown.6272:
	.string	"unknown"
	.text
.Letext0:
	.file 3 "/usr/lib/gcc/x86_64-linux-gnu/9/include/stddef.h"
	.file 4 "/usr/include/x86_64-linux-gnu/bits/types.h"
	.file 5 "/usr/include/x86_64-linux-gnu/bits/types/struct_FILE.h"
	.file 6 "/usr/include/x86_64-linux-gnu/bits/types/FILE.h"
	.file 7 "/usr/include/stdio.h"
	.file 8 "/usr/include/x86_64-linux-gnu/bits/sys_errlist.h"
	.file 9 "/usr/include/x86_64-linux-gnu/bits/types/time_t.h"
	.file 10 "./lib/sys/select.h"
	.file 11 "/usr/include/x86_64-linux-gnu/sys/utsname.h"
	.file 12 "/usr/include/x86_64-linux-gnu/bits/getopt_core.h"
	.file 13 "/usr/include/x86_64-linux-gnu/bits/getopt_ext.h"
	.file 14 "/usr/include/time.h"
	.file 15 "/usr/include/signal.h"
	.file 16 "/usr/include/unistd.h"
	.file 17 "/usr/include/errno.h"
	.file 18 "src/version.h"
	.file 19 "./lib/exitfail.h"
	.file 20 "./lib/timespec.h"
	.file 21 "./lib/version-etc.h"
	.file 22 "./lib/progname.h"
	.file 23 "./lib/quotearg.h"
	.file 24 "./lib/error.h"
	.file 25 "./lib/quote.h"
	.file 26 "src/uname.h"
	.section	.note.GNU-stack,"",@progbits
	.section	.note.gnu.property,"a"
	.align 8
	.long	 1f - 0f
	.long	 4f - 1f
	.long	 5
0:
	.string	 "GNU"
1:
	.align 8
	.long	 0xc0000002
	.long	 3f - 2f
2:
	.long	 0x3
3:
	.align 8
4:
