	.file	"unexpand.c"
	.text
.Ltext0:
	.section	.rodata
	.align 8
.LC0:
	.string	"\nWith no FILE, or when FILE is -, read standard input.\n"
	.text
	.type	emit_stdin_note, @function
emit_stdin_note:
.LFB35:
	.file 1 "src/system.h"
	.loc 1 582 1
	.cfi_startproc
	pushq	%rbp
	.cfi_def_cfa_offset 16
	.cfi_offset 6, -16
	movq	%rsp, %rbp
	.cfi_def_cfa_register 6
	pushq	%rbx
	subq	$8, %rsp
	.cfi_offset 3, -24
	.loc 1 583 3
	movq	stdout(%rip), %rbx
	leaq	.LC0(%rip), %rdi
	call	gettext@PLT
	movq	%rbx, %rsi
	movq	%rax, %rdi
	call	fputs_unlocked@PLT
	.loc 1 586 1
	nop
	addq	$8, %rsp
	popq	%rbx
	popq	%rbp
	.cfi_def_cfa 7, 8
	ret
	.cfi_endproc
.LFE35:
	.size	emit_stdin_note, .-emit_stdin_note
	.section	.rodata
	.align 8
.LC1:
	.string	"\nMandatory arguments to long options are mandatory for short options too.\n"
	.text
	.type	emit_mandatory_arg_note, @function
emit_mandatory_arg_note:
.LFB36:
	.loc 1 589 1
	.cfi_startproc
	pushq	%rbp
	.cfi_def_cfa_offset 16
	.cfi_offset 6, -16
	movq	%rsp, %rbp
	.cfi_def_cfa_register 6
	pushq	%rbx
	subq	$8, %rsp
	.cfi_offset 3, -24
	.loc 1 590 3
	movq	stdout(%rip), %rbx
	leaq	.LC1(%rip), %rdi
	call	gettext@PLT
	movq	%rbx, %rsi
	movq	%rax, %rdi
	call	fputs_unlocked@PLT
	.loc 1 593 1
	nop
	addq	$8, %rsp
	popq	%rbx
	popq	%rbp
	.cfi_def_cfa 7, 8
	ret
	.cfi_endproc
.LFE36:
	.size	emit_mandatory_arg_note, .-emit_mandatory_arg_note
	.section	.rodata
.LC2:
	.string	"["
.LC3:
	.string	"test invocation"
.LC4:
	.string	"coreutils"
.LC5:
	.string	"Multi-call invocation"
.LC6:
	.string	"sha224sum"
.LC7:
	.string	"sha2 utilities"
.LC8:
	.string	"sha256sum"
.LC9:
	.string	"sha384sum"
.LC10:
	.string	"sha512sum"
.LC11:
	.string	"\n%s online help: <%s>\n"
	.align 8
.LC12:
	.string	"https://www.gnu.org/software/coreutils/"
.LC13:
	.string	"GNU coreutils"
.LC14:
	.string	"en_"
	.align 8
.LC15:
	.string	"Report any translation bugs to <https://translationproject.org/team/>\n"
.LC16:
	.string	"Full documentation <%s%s>\n"
.LC17:
	.string	" invocation"
.LC18:
	.string	""
	.align 8
.LC19:
	.string	"or available locally via: info '(coreutils) %s%s'\n"
	.text
	.type	emit_ancillary_info, @function
emit_ancillary_info:
.LFB40:
	.loc 1 635 1
	.cfi_startproc
	pushq	%rbp
	.cfi_def_cfa_offset 16
	.cfi_offset 6, -16
	movq	%rsp, %rbp
	.cfi_def_cfa_register 6
	pushq	%rbx
	subq	$184, %rsp
	.cfi_offset 3, -24
	movq	%rdi, -184(%rbp)
	.loc 1 635 1
	movq	%fs:40, %rax
	movq	%rax, -24(%rbp)
	xorl	%eax, %eax
	.loc 1 636 67
	leaq	.LC2(%rip), %rax
	movq	%rax, -144(%rbp)
	leaq	.LC3(%rip), %rax
	movq	%rax, -136(%rbp)
	leaq	.LC4(%rip), %rax
	movq	%rax, -128(%rbp)
	leaq	.LC5(%rip), %rax
	movq	%rax, -120(%rbp)
	leaq	.LC6(%rip), %rax
	movq	%rax, -112(%rbp)
	leaq	.LC7(%rip), %rax
	movq	%rax, -104(%rbp)
	leaq	.LC8(%rip), %rax
	movq	%rax, -96(%rbp)
	leaq	.LC7(%rip), %rax
	movq	%rax, -88(%rbp)
	leaq	.LC9(%rip), %rax
	movq	%rax, -80(%rbp)
	leaq	.LC7(%rip), %rax
	movq	%rax, -72(%rbp)
	leaq	.LC10(%rip), %rax
	movq	%rax, -64(%rbp)
	leaq	.LC7(%rip), %rax
	movq	%rax, -56(%rbp)
	movq	$0, -48(%rbp)
	movq	$0, -40(%rbp)
	.loc 1 646 15
	movq	-184(%rbp), %rax
	movq	%rax, -168(%rbp)
	.loc 1 647 25
	leaq	-144(%rbp), %rax
	movq	%rax, -160(%rbp)
	.loc 1 649 9
	jmp	.L4
.L6:
	.loc 1 650 13
	addq	$16, -160(%rbp)
.L4:
	.loc 1 649 18
	movq	-160(%rbp), %rax
	movq	(%rax), %rax
	.loc 1 649 9
	testq	%rax, %rax
	je	.L5
	.loc 1 649 33 discriminator 1
	movq	-160(%rbp), %rax
	movq	(%rax), %rdx
	movq	-184(%rbp), %rax
	movq	%rdx, %rsi
	movq	%rax, %rdi
	call	strcmp@PLT
	.loc 1 649 28 discriminator 1
	testl	%eax, %eax
	jne	.L6
.L5:
	.loc 1 652 15
	movq	-160(%rbp), %rax
	movq	8(%rax), %rax
	.loc 1 652 6
	testq	%rax, %rax
	je	.L7
	.loc 1 653 10
	movq	-160(%rbp), %rax
	movq	8(%rax), %rax
	movq	%rax, -168(%rbp)
.L7:
	.loc 1 655 11
	leaq	.LC11(%rip), %rdi
	call	gettext@PLT
	.loc 1 655 3
	leaq	.LC12(%rip), %rdx
	leaq	.LC13(%rip), %rsi
	movq	%rax, %rdi
	movl	$0, %eax
	call	printf@PLT
	.loc 1 659 29
	movl	$0, %esi
	movl	$5, %edi
	call	setlocale@PLT
	movq	%rax, -152(%rbp)
	.loc 1 660 6
	cmpq	$0, -152(%rbp)
	je	.L8
	.loc 1 660 22 discriminator 1
	movq	-152(%rbp), %rax
	movl	$3, %edx
	leaq	.LC14(%rip), %rsi
	movq	%rax, %rdi
	call	strncmp@PLT
	.loc 1 660 19 discriminator 1
	testl	%eax, %eax
	je	.L8
	.loc 1 666 7
	movq	stdout(%rip), %rbx
	leaq	.LC15(%rip), %rdi
	call	gettext@PLT
	movq	%rbx, %rsi
	movq	%rax, %rdi
	call	fputs_unlocked@PLT
.L8:
	.loc 1 669 11
	leaq	.LC16(%rip), %rdi
	call	gettext@PLT
	movq	%rax, %rcx
	.loc 1 669 3
	movq	-184(%rbp), %rax
	movq	%rax, %rdx
	leaq	.LC12(%rip), %rsi
	movq	%rcx, %rdi
	movl	$0, %eax
	call	printf@PLT
	.loc 1 671 3
	movq	-168(%rbp), %rax
	cmpq	-184(%rbp), %rax
	jne	.L9
	.loc 1 671 3 is_stmt 0 discriminator 1
	leaq	.LC17(%rip), %rbx
	jmp	.L10
.L9:
	.loc 1 671 3 discriminator 2
	leaq	.LC18(%rip), %rbx
.L10:
	.loc 1 671 11 is_stmt 1 discriminator 4
	leaq	.LC19(%rip), %rdi
	call	gettext@PLT
	movq	%rax, %rcx
	.loc 1 671 3 discriminator 4
	movq	-168(%rbp), %rax
	movq	%rbx, %rdx
	movq	%rax, %rsi
	movq	%rcx, %rdi
	movl	$0, %eax
	call	printf@PLT
	.loc 1 673 1 discriminator 4
	nop
	movq	-24(%rbp), %rax
	xorq	%fs:40, %rax
	je	.L11
	.loc 1 673 1 is_stmt 0
	call	__stack_chk_fail@PLT
.L11:
	addq	$184, %rsp
	popq	%rbx
	popq	%rbp
	.cfi_def_cfa 7, 8
	ret
	.cfi_endproc
.LFE40:
	.size	emit_ancillary_info, .-emit_ancillary_info
	.section	.rodata
.LC20:
	.string	"tabs"
.LC21:
	.string	"all"
.LC22:
	.string	"first-only"
.LC23:
	.string	"help"
.LC24:
	.string	"version"
	.section	.data.rel.ro.local,"aw"
	.align 32
	.type	longopts, @object
	.size	longopts, 192
longopts:
	.quad	.LC20
	.long	1
	.zero	4
	.quad	0
	.long	116
	.zero	4
	.quad	.LC21
	.long	0
	.zero	4
	.quad	0
	.long	97
	.zero	4
	.quad	.LC22
	.long	0
	.zero	4
	.quad	0
	.long	128
	.zero	4
	.quad	.LC23
	.long	0
	.zero	4
	.quad	0
	.long	-130
	.zero	4
	.quad	.LC24
	.long	0
	.zero	4
	.quad	0
	.long	-131
	.zero	4
	.quad	0
	.long	0
	.zero	4
	.quad	0
	.long	0
	.zero	4
	.section	.rodata
	.align 8
.LC25:
	.string	"Try '%s --help' for more information.\n"
	.align 8
.LC26:
	.string	"Usage: %s [OPTION]... [FILE]...\n"
	.align 8
.LC27:
	.string	"Convert blanks in each FILE to tabs, writing to standard output.\n"
	.align 8
.LC28:
	.string	"  -a, --all        convert all blanks, instead of just initial blanks\n      --first-only  convert only leading sequences of blanks (overrides -a)\n  -t, --tabs=N     have tabs N characters apart instead of 8 (enables -a)\n"
	.align 8
.LC29:
	.string	"      --help     display this help and exit\n"
	.align 8
.LC30:
	.string	"      --version  output version information and exit\n"
.LC31:
	.string	"unexpand"
	.text
	.globl	usage
	.type	usage, @function
usage:
.LFB46:
	.file 2 "src/unexpand.c"
	.loc 2 73 1 is_stmt 1
	.cfi_startproc
	endbr64
	pushq	%rbp
	.cfi_def_cfa_offset 16
	.cfi_offset 6, -16
	movq	%rsp, %rbp
	.cfi_def_cfa_register 6
	pushq	%rbx
	subq	$24, %rsp
	.cfi_offset 3, -24
	movl	%edi, -20(%rbp)
	.loc 2 74 6
	cmpl	$0, -20(%rbp)
	je	.L13
	.loc 2 75 5
	movq	program_name(%rip), %rbx
	leaq	.LC25(%rip), %rdi
	call	gettext@PLT
	movq	%rax, %rcx
	movq	stderr(%rip), %rax
	movq	%rbx, %rdx
	movq	%rcx, %rsi
	movq	%rax, %rdi
	movl	$0, %eax
	call	fprintf@PLT
	jmp	.L14
.L13:
	.loc 2 78 7
	movq	program_name(%rip), %rbx
	.loc 2 78 15
	leaq	.LC26(%rip), %rdi
	call	gettext@PLT
	.loc 2 78 7
	movq	%rbx, %rsi
	movq	%rax, %rdi
	movl	$0, %eax
	call	printf@PLT
	.loc 2 82 7
	movq	stdout(%rip), %rbx
	leaq	.LC27(%rip), %rdi
	call	gettext@PLT
	movq	%rbx, %rsi
	movq	%rax, %rdi
	call	fputs_unlocked@PLT
	.loc 2 86 7
	call	emit_stdin_note
	.loc 2 87 7
	call	emit_mandatory_arg_note
	.loc 2 89 7
	movq	stdout(%rip), %rbx
	leaq	.LC28(%rip), %rdi
	call	gettext@PLT
	movq	%rbx, %rsi
	movq	%rax, %rdi
	call	fputs_unlocked@PLT
	.loc 2 94 7
	call	emit_tab_list_info@PLT
	.loc 2 95 7
	movq	stdout(%rip), %rbx
	leaq	.LC29(%rip), %rdi
	call	gettext@PLT
	movq	%rbx, %rsi
	movq	%rax, %rdi
	call	fputs_unlocked@PLT
	.loc 2 96 7
	movq	stdout(%rip), %rbx
	leaq	.LC30(%rip), %rdi
	call	gettext@PLT
	movq	%rbx, %rsi
	movq	%rax, %rdi
	call	fputs_unlocked@PLT
	.loc 2 97 7
	leaq	.LC31(%rip), %rdi
	call	emit_ancillary_info
.L14:
	.loc 2 99 3
	movl	-20(%rbp), %eax
	movl	%eax, %edi
	call	exit@PLT
	.cfi_endproc
.LFE46:
	.size	usage, .-usage
	.section	.rodata
.LC32:
	.string	"input line is too long"
.LC33:
	.string	"write error"
	.text
	.type	unexpand, @function
unexpand:
.LFB47:
	.loc 2 107 1
	.cfi_startproc
	endbr64
	pushq	%rbp
	.cfi_def_cfa_offset 16
	.cfi_offset 6, -16
	movq	%rsp, %rbp
	.cfi_def_cfa_register 6
	pushq	%rbx
	subq	$88, %rsp
	.cfi_offset 3, -24
	.loc 2 107 1
	movq	%fs:40, %rax
	movq	%rax, -24(%rbp)
	xorl	%eax, %eax
	.loc 2 109 14
	movl	$0, %edi
	call	next_file@PLT
	movq	%rax, -64(%rbp)
	.loc 2 116 6
	cmpq	$0, -64(%rbp)
	je	.L44
	.loc 2 122 19
	movq	max_column_width(%rip), %rax
	movq	%rax, %rdi
	call	xmalloc@PLT
	movq	%rax, -40(%rbp)
.L42:
.LBB2:
	.loc 2 130 12
	movb	$1, -80(%rbp)
	.loc 2 137 17
	movq	$0, -56(%rbp)
	.loc 2 140 17
	movq	$0, -32(%rbp)
	.loc 2 143 14
	movq	$0, -72(%rbp)
	.loc 2 146 12
	movb	$0, -79(%rbp)
	.loc 2 151 12
	movb	$1, -78(%rbp)
	.loc 2 154 14
	movq	$0, -48(%rbp)
	.loc 2 161 17
	jmp	.L18
.L20:
	.loc 2 162 13
	nop
.L18:
	.loc 2 161 23
	movq	-64(%rbp), %rax
	movq	%rax, %rdi
	call	getc_unlocked@PLT
	movl	%eax, -76(%rbp)
	.loc 2 161 17
	cmpl	$0, -76(%rbp)
	jns	.L19
	.loc 2 161 47 discriminator 1
	movq	-64(%rbp), %rax
	movq	%rax, %rdi
	call	next_file@PLT
	movq	%rax, -64(%rbp)
	.loc 2 161 38 discriminator 1
	cmpq	$0, -64(%rbp)
	jne	.L20
.L19:
	.loc 2 164 14
	cmpb	$0, -80(%rbp)
	je	.L21
.LBB3:
	.loc 2 166 31
	call	__ctype_b_loc@PLT
	movq	(%rax), %rax
	movl	-76(%rbp), %edx
	movslq	%edx, %rdx
	addq	%rdx, %rdx
	addq	%rdx, %rax
	movzwl	(%rax), %eax
	movzwl	%ax, %eax
	andl	$1, %eax
	.loc 2 166 20
	testl	%eax, %eax
	setne	%al
	movb	%al, -77(%rbp)
	.loc 2 168 18
	cmpb	$0, -77(%rbp)
	je	.L22
.LBB4:
	.loc 2 170 24
	movb	$0, -81(%rbp)
	.loc 2 172 37
	leaq	-81(%rbp), %rdx
	leaq	-72(%rbp), %rcx
	movq	-56(%rbp), %rax
	movq	%rcx, %rsi
	movq	%rax, %rdi
	call	get_next_tab_column@PLT
	movq	%rax, -32(%rbp)
	.loc 2 175 23
	movzbl	-81(%rbp), %eax
	.loc 2 175 22
	testb	%al, %al
	je	.L23
	.loc 2 176 29
	movb	$0, -80(%rbp)
.L23:
	.loc 2 178 22
	cmpb	$0, -80(%rbp)
	je	.L32
	.loc 2 180 26
	movq	-32(%rbp), %rax
	cmpq	-56(%rbp), %rax
	jnb	.L25
.LBB5:
	.loc 2 181 25
	leaq	.LC32(%rip), %rdi
	call	gettext@PLT
	movq	%rax, %rdx
	movl	$0, %esi
	movl	$1, %edi
	movl	$0, %eax
	call	error@PLT
.L25:
.LBE5:
	.loc 2 183 26
	cmpl	$9, -76(%rbp)
	jne	.L26
	.loc 2 185 34
	movq	-32(%rbp), %rax
	movq	%rax, -56(%rbp)
	.loc 2 187 30
	cmpq	$0, -48(%rbp)
	je	.L27
	.loc 2 188 46
	movq	-40(%rbp), %rax
	movb	$9, (%rax)
	jmp	.L27
.L26:
	.loc 2 192 33
	addq	$1, -56(%rbp)
	.loc 2 194 34
	movzbl	-78(%rbp), %eax
	xorl	$1, %eax
	.loc 2 194 30
	testb	%al, %al
	jne	.L28
	.loc 2 194 31 discriminator 1
	movq	-56(%rbp), %rax
	cmpq	-32(%rbp), %rax
	je	.L29
.L28:
	.loc 2 198 34
	movq	-56(%rbp), %rax
	cmpq	-32(%rbp), %rax
	jne	.L30
	.loc 2 199 59
	movb	$1, -79(%rbp)
.L30:
	.loc 2 200 52
	movq	-48(%rbp), %rax
	leaq	1(%rax), %rdx
	movq	%rdx, -48(%rbp)
	.loc 2 200 44
	movq	-40(%rbp), %rdx
	addq	%rdx, %rax
	.loc 2 200 56
	movl	-76(%rbp), %edx
	movb	%dl, (%rax)
	.loc 2 201 42
	movb	$1, -78(%rbp)
	jmp	.L31
.L29:
	.loc 2 206 48
	movl	$9, -76(%rbp)
	.loc 2 206 44
	movq	-40(%rbp), %rax
	movb	$9, (%rax)
.L27:
	.loc 2 211 31
	movzbl	-79(%rbp), %eax
	movq	%rax, -48(%rbp)
	jmp	.L32
.L22:
.LBE4:
	.loc 2 214 23
	cmpl	$8, -76(%rbp)
	jne	.L33
	.loc 2 218 29
	cmpq	$0, -56(%rbp)
	setne	%al
	movzbl	%al, %eax
	.loc 2 218 26
	subq	%rax, -56(%rbp)
	.loc 2 219 35
	movq	-56(%rbp), %rax
	movq	%rax, -32(%rbp)
	.loc 2 220 29
	movq	-72(%rbp), %rdx
	.loc 2 220 32
	movq	-72(%rbp), %rax
	testq	%rax, %rax
	setne	%al
	movzbl	%al, %eax
	.loc 2 220 29
	subq	%rax, %rdx
	movq	%rdx, %rax
	movq	%rax, -72(%rbp)
	jmp	.L32
.L33:
	.loc 2 224 25
	addq	$1, -56(%rbp)
	.loc 2 225 22
	cmpq	$0, -56(%rbp)
	jne	.L32
.LBB6:
	.loc 2 226 21
	leaq	.LC32(%rip), %rdi
	call	gettext@PLT
	movq	%rax, %rdx
	movl	$0, %esi
	movl	$1, %edi
	movl	$0, %eax
	call	error@PLT
.L32:
.LBE6:
	.loc 2 229 18
	cmpq	$0, -48(%rbp)
	je	.L34
	.loc 2 231 22
	cmpq	$1, -48(%rbp)
	jbe	.L35
	.loc 2 231 35 discriminator 1
	cmpb	$0, -79(%rbp)
	je	.L35
	.loc 2 232 38
	movq	-40(%rbp), %rax
	movb	$9, (%rax)
.L35:
	.loc 2 233 23
	movq	stdout(%rip), %rcx
	movq	-48(%rbp), %rdx
	movq	-40(%rbp), %rax
	movl	$1, %esi
	movq	%rax, %rdi
	call	fwrite_unlocked@PLT
	.loc 2 233 22
	cmpq	%rax, -48(%rbp)
	je	.L36
.LBB7:
	.loc 2 234 21
	leaq	.LC33(%rip), %rdi
	call	gettext@PLT
	movq	%rax, %rbx
	call	__errno_location@PLT
	movl	(%rax), %eax
	movq	%rbx, %rdx
	movl	%eax, %esi
	movl	$1, %edi
	movl	$0, %eax
	call	error@PLT
.L36:
.LBE7:
	.loc 2 235 27
	movq	$0, -48(%rbp)
	.loc 2 236 45
	movb	$0, -79(%rbp)
.L34:
	.loc 2 239 26
	movzbl	-77(%rbp), %eax
	movb	%al, -78(%rbp)
	.loc 2 240 23
	movzbl	-80(%rbp), %edx
	.loc 2 240 26
	movzbl	convert_entire_line(%rip), %eax
	.loc 2 240 46
	testb	%al, %al
	jne	.L37
	.loc 2 240 46 is_stmt 0 discriminator 2
	cmpb	$0, -77(%rbp)
	je	.L38
.L37:
	.loc 2 240 46 discriminator 3
	movl	$1, %eax
	jmp	.L39
.L38:
	.loc 2 240 46 discriminator 4
	movl	$0, %eax
.L39:
	.loc 2 240 23 is_stmt 1 discriminator 6
	andl	%edx, %eax
	testl	%eax, %eax
	setne	%al
	movb	%al, -80(%rbp)
.L21:
.LBE3:
	.loc 2 243 14
	cmpl	$0, -76(%rbp)
	jns	.L40
	.loc 2 245 15
	movq	-40(%rbp), %rax
	movq	%rax, %rdi
	call	free@PLT
	jmp	.L15
.L40:
	.loc 2 249 15
	movl	-76(%rbp), %eax
	movl	%eax, %edi
	call	putchar_unlocked@PLT
	.loc 2 249 14
	testl	%eax, %eax
	jns	.L31
.LBB8:
	.loc 2 250 13
	leaq	.LC33(%rip), %rdi
	call	gettext@PLT
	movq	%rax, %rbx
	call	__errno_location@PLT
	movl	(%rax), %eax
	movq	%rbx, %rdx
	movl	%eax, %esi
	movl	$1, %edi
	movl	$0, %eax
	call	error@PLT
.L31:
.LBE8:
	.loc 2 252 7
	cmpl	$10, -76(%rbp)
	jne	.L18
.LBE2:
	.loc 2 125 5
	jmp	.L42
.L44:
	.loc 2 117 5
	nop
.L15:
	.loc 2 254 1
	movq	-24(%rbp), %rax
	xorq	%fs:40, %rax
	je	.L43
	call	__stack_chk_fail@PLT
.L43:
	addq	$88, %rsp
	popq	%rbx
	popq	%rbp
	.cfi_def_cfa 7, 8
	ret
	.cfi_endproc
.LFE47:
	.size	unexpand, .-unexpand
	.section	.rodata
.LC34:
	.string	"/usr/local/share/locale"
.LC35:
	.string	"David MacKenzie"
.LC36:
	.string	"tab stop value is too large"
.LC37:
	.string	",0123456789at:"
	.text
	.globl	main
	.type	main, @function
main:
.LFB48:
	.loc 2 258 1
	.cfi_startproc
	endbr64
	pushq	%rbp
	.cfi_def_cfa_offset 16
	.cfi_offset 6, -16
	movq	%rsp, %rbp
	.cfi_def_cfa_register 6
	subq	$48, %rsp
	movl	%edi, -36(%rbp)
	movq	%rsi, -48(%rbp)
	.loc 2 258 1
	movq	%fs:40, %rax
	movq	%rax, -8(%rbp)
	xorl	%eax, %eax
	.loc 2 259 8
	movb	$0, -22(%rbp)
	.loc 2 260 13
	movq	$0, -16(%rbp)
	.loc 2 265 8
	movb	$0, -21(%rbp)
	.loc 2 268 3
	movq	-48(%rbp), %rax
	movq	(%rax), %rax
	movq	%rax, %rdi
	call	set_program_name@PLT
	.loc 2 269 3
	leaq	.LC18(%rip), %rsi
	movl	$6, %edi
	call	setlocale@PLT
	.loc 2 270 3
	leaq	.LC34(%rip), %rsi
	leaq	.LC4(%rip), %rdi
	call	bindtextdomain@PLT
	.loc 2 271 3
	leaq	.LC4(%rip), %rdi
	call	textdomain@PLT
	.loc 2 273 3
	movq	close_stdout@GOTPCREL(%rip), %rax
	movq	%rax, %rdi
	call	atexit@PLT
	.loc 2 275 9
	jmp	.L46
.L60:
	.loc 2 278 7
	cmpl	$128, -20(%rbp)
	je	.L47
	cmpl	$128, -20(%rbp)
	jg	.L48
	cmpl	$116, -20(%rbp)
	je	.L49
	cmpl	$116, -20(%rbp)
	jg	.L48
	cmpl	$97, -20(%rbp)
	je	.L50
	cmpl	$97, -20(%rbp)
	jg	.L48
	cmpl	$63, -20(%rbp)
	je	.L51
	cmpl	$63, -20(%rbp)
	jg	.L48
	cmpl	$44, -20(%rbp)
	je	.L52
	cmpl	$44, -20(%rbp)
	jg	.L48
	cmpl	$-131, -20(%rbp)
	je	.L53
	cmpl	$-130, -20(%rbp)
	je	.L54
	jmp	.L48
.L51:
	.loc 2 281 11
	movl	$1, %edi
	call	usage
.L50:
	.loc 2 283 31
	movb	$1, convert_entire_line(%rip)
	.loc 2 284 11
	jmp	.L46
.L49:
	.loc 2 286 31
	movb	$1, convert_entire_line(%rip)
	.loc 2 287 11
	movq	optarg(%rip), %rax
	movq	%rax, %rdi
	call	parse_tab_stops@PLT
	.loc 2 288 11
	jmp	.L46
.L47:
	.loc 2 290 30
	movb	$1, -21(%rbp)
	.loc 2 291 11
	jmp	.L46
.L52:
	.loc 2 293 14
	cmpb	$0, -22(%rbp)
	je	.L55
	.loc 2 294 13
	movq	-16(%rbp), %rax
	movq	%rax, %rdi
	call	add_tab_stop@PLT
.L55:
	.loc 2 295 23
	movb	$0, -22(%rbp)
	.loc 2 296 11
	jmp	.L46
.L54:
	.loc 2 297 9
	movl	$0, %edi
	call	usage
.L53:
	.loc 2 298 9
	movq	Version(%rip), %rdx
	movq	stdout(%rip), %rax
	movl	$0, %r9d
	leaq	.LC35(%rip), %r8
	movq	%rdx, %rcx
	leaq	.LC13(%rip), %rdx
	leaq	.LC31(%rip), %rsi
	movq	%rax, %rdi
	movl	$0, %eax
	call	version_etc@PLT
	movl	$0, %edi
	call	exit@PLT
.L48:
	.loc 2 300 15
	movzbl	-22(%rbp), %eax
	xorl	$1, %eax
	.loc 2 300 14
	testb	%al, %al
	je	.L56
	.loc 2 302 22
	movq	$0, -16(%rbp)
	.loc 2 303 27
	movb	$1, -22(%rbp)
.L56:
.LBB9:
	.loc 2 305 16
	movq	-16(%rbp), %rax
	.loc 2 305 15
	movabsq	$1844674407370955161, %rdx
	cmpq	%rdx, %rax
	ja	.L57
	.loc 2 305 16 discriminator 1
	movq	-16(%rbp), %rdx
	movq	%rdx, %rax
	salq	$2, %rax
	addq	%rdx, %rax
	addq	%rax, %rax
	movq	%rax, %rdx
	movl	-20(%rbp), %eax
	subl	$48, %eax
	cltq
	addq	%rax, %rdx
	movq	-16(%rbp), %rax
	cmpq	%rax, %rdx
	jb	.L57
	.loc 2 305 16 is_stmt 0 discriminator 3
	movq	-16(%rbp), %rdx
	movq	%rdx, %rax
	salq	$2, %rax
	addq	%rdx, %rax
	addq	%rax, %rax
	movq	%rax, %rdx
	movl	-20(%rbp), %eax
	subl	$48, %eax
	cltq
	addq	%rdx, %rax
	movq	%rax, -16(%rbp)
	.loc 2 305 15 is_stmt 1 discriminator 3
	movl	$0, %eax
	jmp	.L58
.L57:
	.loc 2 305 15 is_stmt 0 discriminator 4
	movl	$1, %eax
.L58:
	.loc 2 305 14 is_stmt 1 discriminator 6
	testb	%al, %al
	je	.L67
.LBB10:
	.loc 2 306 13
	leaq	.LC36(%rip), %rdi
	call	gettext@PLT
	movq	%rax, %rdx
	movl	$0, %esi
	movl	$1, %edi
	movl	$0, %eax
	call	error@PLT
.L67:
.LBE10:
.LBE9:
	.loc 2 307 11
	nop
.L46:
	.loc 2 275 15
	movq	-48(%rbp), %rsi
	movl	-36(%rbp), %eax
	movl	$0, %r8d
	leaq	longopts(%rip), %rcx
	leaq	.LC37(%rip), %rdx
	movl	%eax, %edi
	call	getopt_long@PLT
	movl	%eax, -20(%rbp)
	.loc 2 275 9
	cmpl	$-1, -20(%rbp)
	jne	.L60
	.loc 2 311 6
	cmpb	$0, -21(%rbp)
	je	.L61
	.loc 2 312 25
	movb	$0, convert_entire_line(%rip)
.L61:
	.loc 2 314 6
	cmpb	$0, -22(%rbp)
	je	.L62
	.loc 2 315 5
	movq	-16(%rbp), %rax
	movq	%rax, %rdi
	call	add_tab_stop@PLT
.L62:
	.loc 2 317 3
	call	finalize_tab_stops@PLT
	.loc 2 319 27
	movl	optind(%rip), %eax
	.loc 2 319 3
	cmpl	%eax, -36(%rbp)
	jle	.L63
	.loc 2 319 42 discriminator 1
	movl	optind(%rip), %eax
	cltq
	leaq	0(,%rax,8), %rdx
	.loc 2 319 3 discriminator 1
	movq	-48(%rbp), %rax
	addq	%rdx, %rax
	jmp	.L64
.L63:
	.loc 2 319 3 is_stmt 0 discriminator 2
	movl	$0, %eax
.L64:
	.loc 2 319 3 discriminator 4
	movq	%rax, %rdi
	call	set_file_list@PLT
	.loc 2 321 3 is_stmt 1 discriminator 4
	call	unexpand
	.loc 2 323 3 discriminator 4
	call	cleanup_file_list_stdin@PLT
	.loc 2 325 10 discriminator 4
	movl	exit_status(%rip), %eax
	.loc 2 326 1 discriminator 4
	movq	-8(%rbp), %rcx
	xorq	%fs:40, %rcx
	je	.L66
	.loc 2 326 1 is_stmt 0
	call	__stack_chk_fail@PLT
.L66:
	leave
	.cfi_def_cfa 7, 8
	ret
	.cfi_endproc
.LFE48:
	.size	main, .-main
.Letext0:
	.file 3 "/usr/lib/gcc/x86_64-linux-gnu/9/include/stddef.h"
	.file 4 "/usr/include/x86_64-linux-gnu/bits/types.h"
	.file 5 "/usr/include/x86_64-linux-gnu/bits/types/struct_FILE.h"
	.file 6 "/usr/include/x86_64-linux-gnu/bits/types/FILE.h"
	.file 7 "/usr/include/stdio.h"
	.file 8 "/usr/include/x86_64-linux-gnu/bits/sys_errlist.h"
	.file 9 "/usr/include/x86_64-linux-gnu/bits/types/time_t.h"
	.file 10 "./lib/sys/select.h"
	.file 11 "/usr/include/x86_64-linux-gnu/bits/getopt_core.h"
	.file 12 "/usr/include/x86_64-linux-gnu/bits/getopt_ext.h"
	.file 13 "/usr/include/time.h"
	.file 14 "/usr/include/signal.h"
	.file 15 "/usr/include/unistd.h"
	.file 16 "/usr/include/errno.h"
	.file 17 "src/version.h"
	.file 18 "./lib/exitfail.h"
	.file 19 "/usr/include/stdint.h"
	.file 20 "./lib/timespec.h"
	.file 21 "/usr/include/ctype.h"
	.file 22 "./lib/version-etc.h"
	.file 23 "./lib/progname.h"
	.file 24 "./lib/quotearg.h"
	.file 25 "./lib/error.h"
	.file 26 "src/expand-common.h"
	.section	.note.GNU-stack,"",@progbits
	.section	.note.gnu.property,"a"
	.align 8
	.long	 1f - 0f
	.long	 4f - 1f
	.long	 5
0:
	.string	 "GNU"
1:
	.align 8
	.long	 0xc0000002
	.long	 3f - 2f
2:
	.long	 0x3
3:
	.align 8
4:
