	.file	"whoami.c"
	.text
.Ltext0:
	.section	.rodata
.LC0:
	.string	"["
.LC1:
	.string	"test invocation"
.LC2:
	.string	"coreutils"
.LC3:
	.string	"Multi-call invocation"
.LC4:
	.string	"sha224sum"
.LC5:
	.string	"sha2 utilities"
.LC6:
	.string	"sha256sum"
.LC7:
	.string	"sha384sum"
.LC8:
	.string	"sha512sum"
.LC9:
	.string	"\n%s online help: <%s>\n"
	.align 8
.LC10:
	.string	"https://www.gnu.org/software/coreutils/"
.LC11:
	.string	"GNU coreutils"
.LC12:
	.string	"en_"
	.align 8
.LC13:
	.string	"Report any translation bugs to <https://translationproject.org/team/>\n"
.LC14:
	.string	"Full documentation <%s%s>\n"
.LC15:
	.string	" invocation"
.LC16:
	.string	""
	.align 8
.LC17:
	.string	"or available locally via: info '(coreutils) %s%s'\n"
	.text
	.type	emit_ancillary_info, @function
emit_ancillary_info:
.LFB40:
	.file 1 "src/system.h"
	.loc 1 635 1
	.cfi_startproc
	pushq	%rbp
	.cfi_def_cfa_offset 16
	.cfi_offset 6, -16
	movq	%rsp, %rbp
	.cfi_def_cfa_register 6
	pushq	%rbx
	subq	$184, %rsp
	.cfi_offset 3, -24
	movq	%rdi, -184(%rbp)
	.loc 1 635 1
	movq	%fs:40, %rax
	movq	%rax, -24(%rbp)
	xorl	%eax, %eax
	.loc 1 636 67
	leaq	.LC0(%rip), %rax
	movq	%rax, -144(%rbp)
	leaq	.LC1(%rip), %rax
	movq	%rax, -136(%rbp)
	leaq	.LC2(%rip), %rax
	movq	%rax, -128(%rbp)
	leaq	.LC3(%rip), %rax
	movq	%rax, -120(%rbp)
	leaq	.LC4(%rip), %rax
	movq	%rax, -112(%rbp)
	leaq	.LC5(%rip), %rax
	movq	%rax, -104(%rbp)
	leaq	.LC6(%rip), %rax
	movq	%rax, -96(%rbp)
	leaq	.LC5(%rip), %rax
	movq	%rax, -88(%rbp)
	leaq	.LC7(%rip), %rax
	movq	%rax, -80(%rbp)
	leaq	.LC5(%rip), %rax
	movq	%rax, -72(%rbp)
	leaq	.LC8(%rip), %rax
	movq	%rax, -64(%rbp)
	leaq	.LC5(%rip), %rax
	movq	%rax, -56(%rbp)
	movq	$0, -48(%rbp)
	movq	$0, -40(%rbp)
	.loc 1 646 15
	movq	-184(%rbp), %rax
	movq	%rax, -168(%rbp)
	.loc 1 647 25
	leaq	-144(%rbp), %rax
	movq	%rax, -160(%rbp)
	.loc 1 649 9
	jmp	.L2
.L4:
	.loc 1 650 13
	addq	$16, -160(%rbp)
.L2:
	.loc 1 649 18
	movq	-160(%rbp), %rax
	movq	(%rax), %rax
	.loc 1 649 9
	testq	%rax, %rax
	je	.L3
	.loc 1 649 33 discriminator 1
	movq	-160(%rbp), %rax
	movq	(%rax), %rdx
	movq	-184(%rbp), %rax
	movq	%rdx, %rsi
	movq	%rax, %rdi
	call	strcmp@PLT
	.loc 1 649 28 discriminator 1
	testl	%eax, %eax
	jne	.L4
.L3:
	.loc 1 652 15
	movq	-160(%rbp), %rax
	movq	8(%rax), %rax
	.loc 1 652 6
	testq	%rax, %rax
	je	.L5
	.loc 1 653 10
	movq	-160(%rbp), %rax
	movq	8(%rax), %rax
	movq	%rax, -168(%rbp)
.L5:
	.loc 1 655 11
	leaq	.LC9(%rip), %rdi
	call	gettext@PLT
	.loc 1 655 3
	leaq	.LC10(%rip), %rdx
	leaq	.LC11(%rip), %rsi
	movq	%rax, %rdi
	movl	$0, %eax
	call	printf@PLT
	.loc 1 659 29
	movl	$0, %esi
	movl	$5, %edi
	call	setlocale@PLT
	movq	%rax, -152(%rbp)
	.loc 1 660 6
	cmpq	$0, -152(%rbp)
	je	.L6
	.loc 1 660 22 discriminator 1
	movq	-152(%rbp), %rax
	movl	$3, %edx
	leaq	.LC12(%rip), %rsi
	movq	%rax, %rdi
	call	strncmp@PLT
	.loc 1 660 19 discriminator 1
	testl	%eax, %eax
	je	.L6
	.loc 1 666 7
	movq	stdout(%rip), %rbx
	leaq	.LC13(%rip), %rdi
	call	gettext@PLT
	movq	%rbx, %rsi
	movq	%rax, %rdi
	call	fputs_unlocked@PLT
.L6:
	.loc 1 669 11
	leaq	.LC14(%rip), %rdi
	call	gettext@PLT
	movq	%rax, %rcx
	.loc 1 669 3
	movq	-184(%rbp), %rax
	movq	%rax, %rdx
	leaq	.LC10(%rip), %rsi
	movq	%rcx, %rdi
	movl	$0, %eax
	call	printf@PLT
	.loc 1 671 3
	movq	-168(%rbp), %rax
	cmpq	-184(%rbp), %rax
	jne	.L7
	.loc 1 671 3 is_stmt 0 discriminator 1
	leaq	.LC15(%rip), %rbx
	jmp	.L8
.L7:
	.loc 1 671 3 discriminator 2
	leaq	.LC16(%rip), %rbx
.L8:
	.loc 1 671 11 is_stmt 1 discriminator 4
	leaq	.LC17(%rip), %rdi
	call	gettext@PLT
	movq	%rax, %rcx
	.loc 1 671 3 discriminator 4
	movq	-168(%rbp), %rax
	movq	%rbx, %rdx
	movq	%rax, %rsi
	movq	%rcx, %rdi
	movl	$0, %eax
	call	printf@PLT
	.loc 1 673 1 discriminator 4
	nop
	movq	-24(%rbp), %rax
	xorq	%fs:40, %rax
	je	.L9
	.loc 1 673 1 is_stmt 0
	call	__stack_chk_fail@PLT
.L9:
	addq	$184, %rsp
	popq	%rbx
	popq	%rbp
	.cfi_def_cfa 7, 8
	ret
	.cfi_endproc
.LFE40:
	.size	emit_ancillary_info, .-emit_ancillary_info
	.section	.rodata
	.align 8
.LC18:
	.string	"Try '%s --help' for more information.\n"
.LC19:
	.string	"Usage: %s [OPTION]...\n"
	.align 8
.LC20:
	.string	"Print the user name associated with the current effective user ID.\nSame as id -un.\n\n"
	.align 8
.LC21:
	.string	"      --help     display this help and exit\n"
	.align 8
.LC22:
	.string	"      --version  output version information and exit\n"
.LC23:
	.string	"whoami"
	.text
	.globl	usage
	.type	usage, @function
usage:
.LFB46:
	.file 2 "src/whoami.c"
	.loc 2 39 1 is_stmt 1
	.cfi_startproc
	endbr64
	pushq	%rbp
	.cfi_def_cfa_offset 16
	.cfi_offset 6, -16
	movq	%rsp, %rbp
	.cfi_def_cfa_register 6
	pushq	%rbx
	subq	$24, %rsp
	.cfi_offset 3, -24
	movl	%edi, -20(%rbp)
	.loc 2 40 6
	cmpl	$0, -20(%rbp)
	je	.L11
	.loc 2 41 5
	movq	program_name(%rip), %rbx
	leaq	.LC18(%rip), %rdi
	call	gettext@PLT
	movq	%rax, %rcx
	movq	stderr(%rip), %rax
	movq	%rbx, %rdx
	movq	%rcx, %rsi
	movq	%rax, %rdi
	movl	$0, %eax
	call	fprintf@PLT
	jmp	.L12
.L11:
	.loc 2 44 7
	movq	program_name(%rip), %rbx
	.loc 2 44 15
	leaq	.LC19(%rip), %rdi
	call	gettext@PLT
	.loc 2 44 7
	movq	%rbx, %rsi
	movq	%rax, %rdi
	movl	$0, %eax
	call	printf@PLT
	.loc 2 45 7
	movq	stdout(%rip), %rbx
	leaq	.LC20(%rip), %rdi
	call	gettext@PLT
	movq	%rbx, %rsi
	movq	%rax, %rdi
	call	fputs_unlocked@PLT
	.loc 2 50 7
	movq	stdout(%rip), %rbx
	leaq	.LC21(%rip), %rdi
	call	gettext@PLT
	movq	%rbx, %rsi
	movq	%rax, %rdi
	call	fputs_unlocked@PLT
	.loc 2 51 7
	movq	stdout(%rip), %rbx
	leaq	.LC22(%rip), %rdi
	call	gettext@PLT
	movq	%rbx, %rsi
	movq	%rax, %rdi
	call	fputs_unlocked@PLT
	.loc 2 52 7
	leaq	.LC23(%rip), %rdi
	call	emit_ancillary_info
.L12:
	.loc 2 54 3
	movl	-20(%rbp), %eax
	movl	%eax, %edi
	call	exit@PLT
	.cfi_endproc
.LFE46:
	.size	usage, .-usage
	.section	.rodata
.LC24:
	.string	"/usr/local/share/locale"
.LC25:
	.string	"Richard Mlynarik"
.LC26:
	.string	"extra operand %s"
	.align 8
.LC27:
	.string	"cannot find name for user ID %lu"
	.text
	.globl	main
	.type	main, @function
main:
.LFB47:
	.loc 2 59 1
	.cfi_startproc
	endbr64
	pushq	%rbp
	.cfi_def_cfa_offset 16
	.cfi_offset 6, -16
	movq	%rsp, %rbp
	.cfi_def_cfa_register 6
	pushq	%r12
	pushq	%rbx
	subq	$32, %rsp
	.cfi_offset 12, -24
	.cfi_offset 3, -32
	movl	%edi, -36(%rbp)
	movq	%rsi, -48(%rbp)
	.loc 2 62 9
	movl	$-1, -32(%rbp)
	.loc 2 65 3
	movq	-48(%rbp), %rax
	movq	(%rax), %rax
	movq	%rax, %rdi
	call	set_program_name@PLT
	.loc 2 66 3
	leaq	.LC16(%rip), %rsi
	movl	$6, %edi
	call	setlocale@PLT
	.loc 2 67 3
	leaq	.LC24(%rip), %rsi
	leaq	.LC2(%rip), %rdi
	call	bindtextdomain@PLT
	.loc 2 68 3
	leaq	.LC2(%rip), %rdi
	call	textdomain@PLT
	.loc 2 70 3
	movq	close_stdout@GOTPCREL(%rip), %rax
	movq	%rax, %rdi
	call	atexit@PLT
	.loc 2 72 3
	movq	Version(%rip), %rcx
	movq	-48(%rbp), %rsi
	movl	-36(%rbp), %eax
	subq	$8, %rsp
	pushq	$0
	leaq	.LC25(%rip), %rdx
	pushq	%rdx
	leaq	usage(%rip), %rdx
	pushq	%rdx
	movl	$1, %r9d
	movq	%rcx, %r8
	leaq	.LC11(%rip), %rcx
	leaq	.LC23(%rip), %rdx
	movl	%eax, %edi
	movl	$0, %eax
	call	parse_gnu_standard_options_only@PLT
	addq	$32, %rsp
	.loc 2 76 14
	movl	optind(%rip), %eax
	.loc 2 76 6
	cmpl	%eax, -36(%rbp)
	je	.L14
	.loc 2 78 54
	movl	optind(%rip), %eax
	cltq
	leaq	0(,%rax,8), %rdx
	movq	-48(%rbp), %rax
	addq	%rdx, %rax
	.loc 2 78 7
	movq	(%rax), %rax
	movq	%rax, %rdi
	call	quote@PLT
	movq	%rax, %rbx
	.loc 2 78 20
	leaq	.LC26(%rip), %rdi
	call	gettext@PLT
	.loc 2 78 7
	movq	%rbx, %rcx
	movq	%rax, %rdx
	movl	$0, %esi
	movl	$0, %edi
	movl	$0, %eax
	call	error@PLT
	.loc 2 79 7
	movl	$1, %edi
	call	usage
.L14:
	.loc 2 82 3
	call	__errno_location@PLT
	.loc 2 82 9
	movl	$0, (%rax)
	.loc 2 83 9
	call	geteuid@PLT
	movl	%eax, -28(%rbp)
	.loc 2 84 39
	movl	-28(%rbp), %eax
	cmpl	-32(%rbp), %eax
	jne	.L15
	.loc 2 84 26 discriminator 2
	call	__errno_location@PLT
	movl	(%rax), %eax
	.loc 2 84 23 discriminator 2
	testl	%eax, %eax
	jne	.L16
.L15:
	.loc 2 84 41 discriminator 3
	movl	-28(%rbp), %eax
	movl	%eax, %edi
	call	getpwuid@PLT
	.loc 2 84 39 discriminator 3
	jmp	.L17
.L16:
	.loc 2 84 39 is_stmt 0 discriminator 4
	movl	$0, %eax
.L17:
	.loc 2 84 6 is_stmt 1 discriminator 6
	movq	%rax, -24(%rbp)
	.loc 2 85 6 discriminator 6
	cmpq	$0, -24(%rbp)
	jne	.L18
.LBB2:
	.loc 2 86 5
	movl	-28(%rbp), %ebx
	leaq	.LC27(%rip), %rdi
	call	gettext@PLT
	movq	%rax, %r12
	call	__errno_location@PLT
	movl	(%rax), %eax
	movq	%rbx, %rcx
	movq	%r12, %rdx
	movl	%eax, %esi
	movl	$1, %edi
	movl	$0, %eax
	call	error@PLT
.L18:
.LBE2:
	.loc 2 88 11
	movq	-24(%rbp), %rax
	movq	(%rax), %rax
	.loc 2 88 3
	movq	%rax, %rdi
	call	puts@PLT
	.loc 2 89 10
	movl	$0, %eax
	.loc 2 90 1
	leaq	-16(%rbp), %rsp
	popq	%rbx
	popq	%r12
	popq	%rbp
	.cfi_def_cfa 7, 8
	ret
	.cfi_endproc
.LFE47:
	.size	main, .-main
.Letext0:
	.file 3 "/usr/lib/gcc/x86_64-linux-gnu/9/include/stddef.h"
	.file 4 "/usr/include/x86_64-linux-gnu/bits/types.h"
	.file 5 "/usr/include/x86_64-linux-gnu/bits/types/struct_FILE.h"
	.file 6 "/usr/include/x86_64-linux-gnu/bits/types/FILE.h"
	.file 7 "/usr/include/stdio.h"
	.file 8 "/usr/include/x86_64-linux-gnu/bits/sys_errlist.h"
	.file 9 "/usr/include/x86_64-linux-gnu/sys/types.h"
	.file 10 "./lib/sys/select.h"
	.file 11 "/usr/include/pwd.h"
	.file 12 "/usr/include/time.h"
	.file 13 "/usr/include/signal.h"
	.file 14 "/usr/include/unistd.h"
	.file 15 "/usr/include/x86_64-linux-gnu/bits/getopt_core.h"
	.file 16 "/usr/include/errno.h"
	.file 17 "src/version.h"
	.file 18 "./lib/exitfail.h"
	.file 19 "./lib/version-etc.h"
	.file 20 "./lib/progname.h"
	.file 21 "./lib/quotearg.h"
	.file 22 "./lib/error.h"
	.file 23 "./lib/quote.h"
	.section	.note.GNU-stack,"",@progbits
	.section	.note.gnu.property,"a"
	.align 8
	.long	 1f - 0f
	.long	 4f - 1f
	.long	 5
0:
	.string	 "GNU"
1:
	.align 8
	.long	 0xc0000002
	.long	 3f - 2f
2:
	.long	 0x3
3:
	.align 8
4:
